ARM GAS  C:\Users\z80\AppData\Local\Temp\ccoVIiZT.s 			page 1


   1              		.syntax unified
   2              		.cpu cortex-m3
   3              		.fpu softvfp
   4              		.eabi_attribute 20, 1
   5              		.eabi_attribute 21, 1
   6              		.eabi_attribute 23, 3
   7              		.eabi_attribute 24, 1
   8              		.eabi_attribute 25, 1
   9              		.eabi_attribute 26, 1
  10              		.eabi_attribute 30, 6
  11              		.eabi_attribute 34, 1
  12              		.eabi_attribute 18, 4
  13              		.thumb
  14              		.file	"adc_ctrl.c"
  15              		.text
  16              	.Ltext0:
  17              		.cfi_sections	.debug_frame
  18              		.global	adc_queue
  19              		.section	.bss.adc_queue,"aw",%nobits
  20              		.align	2
  21              		.type	adc_queue, %object
  22              		.size	adc_queue, 32
  23              	adc_queue:
  24 0000 00000000 		.space	32
  24      00000000 
  24      00000000 
  24      00000000 
  24      00000000 
  25              		.global	adc_queue_buffer
  26              		.section	.bss.adc_queue_buffer,"aw",%nobits
  27              		.align	2
  28              		.type	adc_queue_buffer, %object
  29              		.size	adc_queue_buffer, 320
  30              	adc_queue_buffer:
  31 0000 00000000 		.space	320
  31      00000000 
  31      00000000 
  31      00000000 
  31      00000000 
  32              		.global	adc_rx_buffer
  33              		.section	.bss.adc_rx_buffer,"aw",%nobits
  34              		.align	2
  35              		.type	adc_rx_buffer, %object
  36              		.size	adc_rx_buffer, 4
  37              	adc_rx_buffer:
  38 0000 00000000 		.space	4
  39              		.section	.bss.adcIndex,"aw",%nobits
  40              		.align	2
  41              		.type	adcIndex, %object
  42              		.size	adcIndex, 4
  43              	adcIndex:
  44 0000 00000000 		.space	4
  45              		.section	.data.instantAdcData,"aw",%progbits
  46              		.align	2
  47              		.type	instantAdcData, %object
  48              		.size	instantAdcData, 16
  49              	instantAdcData:
ARM GAS  C:\Users\z80\AppData\Local\Temp\ccoVIiZT.s 			page 2


  50 0000 FFFFFFFF 		.word	-1
  51 0004 FFFFFFFF 		.word	-1
  52 0008 FFFFFFFF 		.word	-1
  53 000c FFFFFFFF 		.word	-1
  54              		.global	signalMask
  55              		.section	.data.signalMask,"aw",%progbits
  56              		.align	2
  57              		.type	signalMask, %object
  58              		.size	signalMask, 4
  59              	signalMask:
  60 0000 0F000000 		.word	15
  61              		.global	period
  62              		.section	.data.period,"aw",%progbits
  63              		.align	2
  64              		.type	period, %object
  65              		.size	period, 4
  66              	period:
  67 0000 05000000 		.word	5
  68              		.global	elapsed
  69              		.section	.bss.elapsed,"aw",%nobits
  70              		.align	2
  71              		.type	elapsed, %object
  72              		.size	elapsed, 4
  73              	elapsed:
  74 0000 00000000 		.space	4
  75              		.section	.rodata.hs_spicfg,"a",%progbits
  76              		.align	2
  77              		.type	hs_spicfg, %object
  78              		.size	hs_spicfg, 12
  79              	hs_spicfg:
  80 0000 00000000 		.word	onSpiComplete
  81 0004 00080140 		.word	1073809408
  82 0008 0400     		.short	4
  83 000a 1200     		.short	18
  84              		.section	.text.initAdc,"ax",%progbits
  85              		.align	2
  86              		.p2align 4,,15
  87              		.global	initAdc
  88              		.thumb
  89              		.thumb_func
  90              		.type	initAdc, %function
  91              	initAdc:
  92              	.LFB62:
  93              		.file 1 "./src/adc_ctrl.c"
  94              		.loc 1 45 0
  95              		.cfi_startproc
  96              		@ args = 0, pretend = 0, frame = 0
  97              		@ frame_needed = 0, uses_anonymous_args = 0
  98 0000 08B5     		push	{r3, lr}
  99              	.LCFI0:
 100              		.cfi_def_cfa_offset 8
 101              		.cfi_offset 14, -4
 102              		.cfi_offset 3, -8
 103              		.loc 1 46 0
 104 0002 4FF44060 		mov	r0, #3072
 105 0006 C4F20100 		movt	r0, 16385
 106 000a 4FF48071 		mov	r1, #256
ARM GAS  C:\Users\z80\AppData\Local\Temp\ccoVIiZT.s 			page 3


 107 000e 4FF00602 		mov	r2, #6
 108 0012 FFF7FEFF 		bl	_pal_lld_setgroupmode
 109              		.loc 1 48 0
 110 0016 40F20000 		movw	r0, #:lower16:adc_queue
 111 001a C0F20000 		movt	r0, #:upper16:adc_queue
 112 001e 40F20001 		movw	r1, #:lower16:adc_queue_buffer
 113 0022 C0F20001 		movt	r1, #:upper16:adc_queue_buffer
 114 0026 4FF4A072 		mov	r2, #320
 115 002a 4FF00003 		mov	r3, #0
 116 002e FFF7FEFF 		bl	chIQInit
 117              		.loc 1 50 0
 118 0032 4FF40060 		mov	r0, #2048
 119 0036 C4F20100 		movt	r0, 16385
 120 003a 4FF00101 		mov	r1, #1
 121 003e 4FF00602 		mov	r2, #6
 122 0042 FFF7FEFF 		bl	_pal_lld_setgroupmode
 123              		.loc 1 51 0
 124 0046 4FF40060 		mov	r0, #2048
 125 004a C4F20100 		movt	r0, 16385
 126 004e 4FF00201 		mov	r1, #2
 127 0052 4FF00602 		mov	r2, #6
 128 0056 FFF7FEFF 		bl	_pal_lld_setgroupmode
 129              		.loc 1 53 0
 130 005a 4FF40060 		mov	r0, #2048
 131 005e C4F20100 		movt	r0, 16385
 132 0062 4FF02001 		mov	r1, #32
 133 0066 4FF01002 		mov	r2, #16
 134 006a FFF7FEFF 		bl	_pal_lld_setgroupmode
 135              		.loc 1 54 0
 136 006e 4FF40060 		mov	r0, #2048
 137 0072 C4F20100 		movt	r0, 16385
 138 0076 4FF04001 		mov	r1, #64
 139 007a 4FF01002 		mov	r2, #16
 140 007e FFF7FEFF 		bl	_pal_lld_setgroupmode
 141              		.loc 1 55 0
 142 0082 4FF40060 		mov	r0, #2048
 143 0086 C4F20100 		movt	r0, 16385
 144 008a 4FF01001 		mov	r1, #16
 145 008e 4FF00602 		mov	r2, #6
 146 0092 FFF7FEFF 		bl	_pal_lld_setgroupmode
 147              		.loc 1 56 0
 148 0096 4FF40063 		mov	r3, #2048
 149 009a C4F20103 		movt	r3, 16385
 150 009e 4FF01002 		mov	r2, #16
 151 00a2 1A61     		str	r2, [r3, #16]
 152              		.loc 1 58 0
 153 00a4 40F20003 		movw	r3, #:lower16:adcIndex
 154 00a8 C0F20003 		movt	r3, #:upper16:adcIndex
 155 00ac 1B68     		ldr	r3, [r3, #0]
 156 00ae 1846     		mov	r0, r3
 157 00b0 FFF7FEFF 		bl	selectAdcIndex
 158              		.loc 1 60 0
 159 00b4 40F20000 		movw	r0, #:lower16:SPID1
 160 00b8 C0F20000 		movt	r0, #:upper16:SPID1
 161 00bc 40F20001 		movw	r1, #:lower16:hs_spicfg
 162 00c0 C0F20001 		movt	r1, #:upper16:hs_spicfg
 163 00c4 FFF7FEFF 		bl	spiStart
ARM GAS  C:\Users\z80\AppData\Local\Temp\ccoVIiZT.s 			page 4


 164              		.loc 1 61 0
 165 00c8 08BD     		pop	{r3, pc}
 166              		.cfi_endproc
 167              	.LFE62:
 168              		.size	initAdc, .-initAdc
 169 00ca 00BFAFF3 		.section	.text.queryAdcI,"ax",%progbits
 169      0080
 170              		.align	2
 171              		.p2align 4,,15
 172              		.global	queryAdcI
 173              		.thumb
 174              		.thumb_func
 175              		.type	queryAdcI, %function
 176              	queryAdcI:
 177              	.LFB63:
 178              		.loc 1 64 0
 179              		.cfi_startproc
 180              		@ args = 0, pretend = 0, frame = 0
 181              		@ frame_needed = 0, uses_anonymous_args = 0
 182 0000 08B5     		push	{r3, lr}
 183              	.LCFI1:
 184              		.cfi_def_cfa_offset 8
 185              		.cfi_offset 14, -4
 186              		.cfi_offset 3, -8
 187              		.loc 1 65 0
 188 0002 40F20000 		movw	r0, #:lower16:SPID1
 189 0006 C0F20000 		movt	r0, #:upper16:SPID1
 190 000a FFF7FEFF 		bl	spi_lld_select
 191              		.loc 1 66 0
 192 000e 40F20003 		movw	r3, #:lower16:SPID1
 193 0012 C0F20003 		movt	r3, #:upper16:SPID1
 194 0016 4FF00302 		mov	r2, #3
 195 001a 1A70     		strb	r2, [r3, #0]
 196 001c 40F20000 		movw	r0, #:lower16:SPID1
 197 0020 C0F20000 		movt	r0, #:upper16:SPID1
 198 0024 4FF00301 		mov	r1, #3
 199 0028 40F20002 		movw	r2, #:lower16:adc_rx_buffer
 200 002c C0F20002 		movt	r2, #:upper16:adc_rx_buffer
 201 0030 FFF7FEFF 		bl	spi_lld_receive
 202              		.loc 1 70 0
 203 0034 08BD     		pop	{r3, pc}
 204              		.cfi_endproc
 205              	.LFE63:
 206              		.size	queryAdcI, .-queryAdcI
 207 0036 00BFAFF3 		.section	.text.onSpiComplete,"ax",%progbits
 207      0080AFF3 
 207      0080
 208              		.align	2
 209              		.p2align 4,,15
 210              		.thumb
 211              		.thumb_func
 212              		.type	onSpiComplete, %function
 213              	onSpiComplete:
 214              	.LFB64:
 215              		.loc 1 73 0
 216              		.cfi_startproc
 217              		@ args = 0, pretend = 0, frame = 24
ARM GAS  C:\Users\z80\AppData\Local\Temp\ccoVIiZT.s 			page 5


 218              		@ frame_needed = 0, uses_anonymous_args = 0
 219 0000 00B5     		push	{lr}
 220              	.LCFI2:
 221              		.cfi_def_cfa_offset 4
 222              		.cfi_offset 14, -4
 223 0002 87B0     		sub	sp, sp, #28
 224              	.LCFI3:
 225              		.cfi_def_cfa_offset 32
 226 0004 0190     		str	r0, [sp, #4]
 227              		.loc 1 75 0
 228 0006 4FF44063 		mov	r3, #3072
 229 000a C4F20103 		movt	r3, 16385
 230 000e 4FF48072 		mov	r2, #256
 231 0012 1A61     		str	r2, [r3, #16]
 232              	.LBB2:
 233              		.loc 1 76 0
 234 0014 4FF02003 		mov	r3, #32
 235              	@ 76 "./src/adc_ctrl.c" 1
 236 0018 83F31188 		msr     BASEPRI, r3
 237              	@ 0 "" 2
 238              		.thumb
 239              	.LBE2:
 240 001c FFF7FEFF 		bl	dbg_check_lock_from_isr
 241              		.loc 1 78 0
 242 0020 40F20003 		movw	r3, #:lower16:adcIndex
 243 0024 C0F20003 		movt	r3, #:upper16:adcIndex
 244 0028 1B68     		ldr	r3, [r3, #0]
 245 002a 0593     		str	r3, [sp, #20]
 246              		.loc 1 79 0
 247 002c 40F20003 		movw	r3, #:lower16:adcIndex
 248 0030 C0F20003 		movt	r3, #:upper16:adcIndex
 249 0034 1B68     		ldr	r3, [r3, #0]
 250 0036 03F10102 		add	r2, r3, #1
 251 003a 4FEAE273 		asr	r3, r2, #31
 252 003e 4FEA9373 		lsr	r3, r3, #30
 253 0042 D218     		adds	r2, r2, r3
 254 0044 02F00302 		and	r2, r2, #3
 255 0048 D31A     		subs	r3, r2, r3
 256 004a 1A46     		mov	r2, r3
 257 004c 40F20003 		movw	r3, #:lower16:adcIndex
 258 0050 C0F20003 		movt	r3, #:upper16:adcIndex
 259 0054 1A60     		str	r2, [r3, #0]
 260              		.loc 1 80 0
 261 0056 40F20003 		movw	r3, #:lower16:adcIndex
 262 005a C0F20003 		movt	r3, #:upper16:adcIndex
 263 005e 1B68     		ldr	r3, [r3, #0]
 264 0060 1846     		mov	r0, r3
 265 0062 FFF7FEFF 		bl	selectAdcIndex
 266              		.loc 1 82 0
 267 0066 40F20000 		movw	r0, #:lower16:SPID1
 268 006a C0F20000 		movt	r0, #:upper16:SPID1
 269 006e FFF7FEFF 		bl	spi_lld_unselect
 270              		.loc 1 84 0
 271 0072 40F20003 		movw	r3, #:lower16:adc_rx_buffer
 272 0076 C0F20003 		movt	r3, #:upper16:adc_rx_buffer
 273 007a 9B78     		ldrb	r3, [r3, #2]	@ zero_extendqisi2
 274 007c 1A46     		mov	r2, r3
ARM GAS  C:\Users\z80\AppData\Local\Temp\ccoVIiZT.s 			page 6


 275              		.loc 1 85 0
 276 007e 40F20003 		movw	r3, #:lower16:adc_rx_buffer
 277 0082 C0F20003 		movt	r3, #:upper16:adc_rx_buffer
 278 0086 5B78     		ldrb	r3, [r3, #1]	@ zero_extendqisi2
 279 0088 4FEA0323 		lsl	r3, r3, #8
 280              		.loc 1 84 0
 281 008c D218     		adds	r2, r2, r3
 282              		.loc 1 86 0
 283 008e 40F20003 		movw	r3, #:lower16:adc_rx_buffer
 284 0092 C0F20003 		movt	r3, #:upper16:adc_rx_buffer
 285 0096 1B78     		ldrb	r3, [r3, #0]	@ zero_extendqisi2
 286 0098 4FEA0343 		lsl	r3, r3, #16
 287              		.loc 1 84 0
 288 009c D318     		adds	r3, r2, r3
 289 009e 0493     		str	r3, [sp, #16]
 290              		.loc 1 87 0
 291 00a0 049B     		ldr	r3, [sp, #16]
 292 00a2 4FEA6303 		asr	r3, r3, #1
 293 00a6 4FEA0343 		lsl	r3, r3, #16
 294 00aa 4FEA1343 		lsr	r3, r3, #16
 295 00ae 0493     		str	r3, [sp, #16]
 296              		.loc 1 89 0
 297 00b0 059B     		ldr	r3, [sp, #20]
 298 00b2 DBB2     		uxtb	r3, r3
 299 00b4 1846     		mov	r0, r3
 300 00b6 0499     		ldr	r1, [sp, #16]
 301 00b8 FFF7FEFF 		bl	filterAdc
 302              		.loc 1 96 0
 303 00bc 059B     		ldr	r3, [sp, #20]
 304 00be 032B     		cmp	r3, #3
 305 00c0 40F0F780 		bne	.L4
 306              		.loc 1 98 0
 307 00c4 40F20003 		movw	r3, #:lower16:elapsed
 308 00c8 C0F20003 		movt	r3, #:upper16:elapsed
 309 00cc 1B68     		ldr	r3, [r3, #0]
 310 00ce 03F10102 		add	r2, r3, #1
 311 00d2 40F20003 		movw	r3, #:lower16:elapsed
 312 00d6 C0F20003 		movt	r3, #:upper16:elapsed
 313 00da 1A60     		str	r2, [r3, #0]
 314              		.loc 1 99 0
 315 00dc 40F20003 		movw	r3, #:lower16:elapsed
 316 00e0 C0F20003 		movt	r3, #:upper16:elapsed
 317 00e4 1A68     		ldr	r2, [r3, #0]
 318 00e6 40F20003 		movw	r3, #:lower16:period
 319 00ea C0F20003 		movt	r3, #:upper16:period
 320 00ee 1B68     		ldr	r3, [r3, #0]
 321 00f0 9A42     		cmp	r2, r3
 322 00f2 C0F2DE80 		blt	.L4
 323              		.loc 1 101 0
 324 00f6 40F20003 		movw	r3, #:lower16:elapsed
 325 00fa C0F20003 		movt	r3, #:upper16:elapsed
 326 00fe 1A68     		ldr	r2, [r3, #0]
 327 0100 40F20003 		movw	r3, #:lower16:period
 328 0104 C0F20003 		movt	r3, #:upper16:period
 329 0108 1B68     		ldr	r3, [r3, #0]
 330 010a D21A     		subs	r2, r2, r3
 331 010c 40F20003 		movw	r3, #:lower16:elapsed
ARM GAS  C:\Users\z80\AppData\Local\Temp\ccoVIiZT.s 			page 7


 332 0110 C0F20003 		movt	r3, #:upper16:elapsed
 333 0114 1A60     		str	r2, [r3, #0]
 334              		.loc 1 102 0
 335 0116 40F20003 		movw	r3, #:lower16:adc_queue
 336 011a C0F20003 		movt	r3, #:upper16:adc_queue
 337 011e 1B69     		ldr	r3, [r3, #16]
 338 0120 1A46     		mov	r2, r3
 339 0122 40F20003 		movw	r3, #:lower16:adc_queue
 340 0126 C0F20003 		movt	r3, #:upper16:adc_queue
 341 012a DB68     		ldr	r3, [r3, #12]
 342 012c D31A     		subs	r3, r2, r3
 343 012e 1A46     		mov	r2, r3
 344 0130 40F20003 		movw	r3, #:lower16:adc_queue
 345 0134 C0F20003 		movt	r3, #:upper16:adc_queue
 346 0138 9B68     		ldr	r3, [r3, #8]
 347 013a D31A     		subs	r3, r2, r3
 348 013c 0B2B     		cmp	r3, #11
 349 013e 40F2B880 		bls	.L4
 350              	.LBB3:
 351              		.loc 1 110 0
 352 0142 40F20003 		movw	r3, #:lower16:instantAdcData
 353 0146 C0F20003 		movt	r3, #:upper16:instantAdcData
 354 014a 1B68     		ldr	r3, [r3, #0]
 355 014c 0493     		str	r3, [sp, #16]
 356              		.loc 1 111 0
 357 014e 049B     		ldr	r3, [sp, #16]
 358 0150 8DF80F30 		strb	r3, [sp, #15]
 359              		.loc 1 112 0
 360 0154 9DF80F30 		ldrb	r3, [sp, #15]	@ zero_extendqisi2
 361 0158 40F20000 		movw	r0, #:lower16:adc_queue
 362 015c C0F20000 		movt	r0, #:upper16:adc_queue
 363 0160 1946     		mov	r1, r3
 364 0162 FFF7FEFF 		bl	chIQPutI
 365              		.loc 1 114 0
 366 0166 049B     		ldr	r3, [sp, #16]
 367 0168 4FEA2323 		asr	r3, r3, #8
 368 016c 8DF80F30 		strb	r3, [sp, #15]
 369              		.loc 1 115 0
 370 0170 9DF80F30 		ldrb	r3, [sp, #15]	@ zero_extendqisi2
 371 0174 40F20000 		movw	r0, #:lower16:adc_queue
 372 0178 C0F20000 		movt	r0, #:upper16:adc_queue
 373 017c 1946     		mov	r1, r3
 374 017e FFF7FEFF 		bl	chIQPutI
 375              		.loc 1 117 0
 376 0182 049B     		ldr	r3, [sp, #16]
 377 0184 4FEA2343 		asr	r3, r3, #16
 378 0188 8DF80F30 		strb	r3, [sp, #15]
 379              		.loc 1 118 0
 380 018c 9DF80F30 		ldrb	r3, [sp, #15]	@ zero_extendqisi2
 381 0190 40F20000 		movw	r0, #:lower16:adc_queue
 382 0194 C0F20000 		movt	r0, #:upper16:adc_queue
 383 0198 1946     		mov	r1, r3
 384 019a FFF7FEFF 		bl	chIQPutI
 385              		.loc 1 122 0
 386 019e 40F20003 		movw	r3, #:lower16:instantAdcData
 387 01a2 C0F20003 		movt	r3, #:upper16:instantAdcData
 388 01a6 5B68     		ldr	r3, [r3, #4]
ARM GAS  C:\Users\z80\AppData\Local\Temp\ccoVIiZT.s 			page 8


 389 01a8 0493     		str	r3, [sp, #16]
 390              		.loc 1 123 0
 391 01aa 049B     		ldr	r3, [sp, #16]
 392 01ac 8DF80F30 		strb	r3, [sp, #15]
 393              		.loc 1 124 0
 394 01b0 9DF80F30 		ldrb	r3, [sp, #15]	@ zero_extendqisi2
 395 01b4 40F20000 		movw	r0, #:lower16:adc_queue
 396 01b8 C0F20000 		movt	r0, #:upper16:adc_queue
 397 01bc 1946     		mov	r1, r3
 398 01be FFF7FEFF 		bl	chIQPutI
 399              		.loc 1 126 0
 400 01c2 049B     		ldr	r3, [sp, #16]
 401 01c4 4FEA2323 		asr	r3, r3, #8
 402 01c8 8DF80F30 		strb	r3, [sp, #15]
 403              		.loc 1 127 0
 404 01cc 9DF80F30 		ldrb	r3, [sp, #15]	@ zero_extendqisi2
 405 01d0 40F20000 		movw	r0, #:lower16:adc_queue
 406 01d4 C0F20000 		movt	r0, #:upper16:adc_queue
 407 01d8 1946     		mov	r1, r3
 408 01da FFF7FEFF 		bl	chIQPutI
 409              		.loc 1 129 0
 410 01de 049B     		ldr	r3, [sp, #16]
 411 01e0 4FEA2343 		asr	r3, r3, #16
 412 01e4 8DF80F30 		strb	r3, [sp, #15]
 413              		.loc 1 130 0
 414 01e8 9DF80F30 		ldrb	r3, [sp, #15]	@ zero_extendqisi2
 415 01ec 40F20000 		movw	r0, #:lower16:adc_queue
 416 01f0 C0F20000 		movt	r0, #:upper16:adc_queue
 417 01f4 1946     		mov	r1, r3
 418 01f6 FFF7FEFF 		bl	chIQPutI
 419              		.loc 1 134 0
 420 01fa 40F20003 		movw	r3, #:lower16:instantAdcData
 421 01fe C0F20003 		movt	r3, #:upper16:instantAdcData
 422 0202 9B68     		ldr	r3, [r3, #8]
 423 0204 0493     		str	r3, [sp, #16]
 424              		.loc 1 135 0
 425 0206 049B     		ldr	r3, [sp, #16]
 426 0208 8DF80F30 		strb	r3, [sp, #15]
 427              		.loc 1 136 0
 428 020c 9DF80F30 		ldrb	r3, [sp, #15]	@ zero_extendqisi2
 429 0210 40F20000 		movw	r0, #:lower16:adc_queue
 430 0214 C0F20000 		movt	r0, #:upper16:adc_queue
 431 0218 1946     		mov	r1, r3
 432 021a FFF7FEFF 		bl	chIQPutI
 433              		.loc 1 138 0
 434 021e 049B     		ldr	r3, [sp, #16]
 435 0220 4FEA2323 		asr	r3, r3, #8
 436 0224 8DF80F30 		strb	r3, [sp, #15]
 437              		.loc 1 139 0
 438 0228 9DF80F30 		ldrb	r3, [sp, #15]	@ zero_extendqisi2
 439 022c 40F20000 		movw	r0, #:lower16:adc_queue
 440 0230 C0F20000 		movt	r0, #:upper16:adc_queue
 441 0234 1946     		mov	r1, r3
 442 0236 FFF7FEFF 		bl	chIQPutI
 443              		.loc 1 141 0
 444 023a 049B     		ldr	r3, [sp, #16]
 445 023c 4FEA2343 		asr	r3, r3, #16
ARM GAS  C:\Users\z80\AppData\Local\Temp\ccoVIiZT.s 			page 9


 446 0240 8DF80F30 		strb	r3, [sp, #15]
 447              		.loc 1 142 0
 448 0244 9DF80F30 		ldrb	r3, [sp, #15]	@ zero_extendqisi2
 449 0248 40F20000 		movw	r0, #:lower16:adc_queue
 450 024c C0F20000 		movt	r0, #:upper16:adc_queue
 451 0250 1946     		mov	r1, r3
 452 0252 FFF7FEFF 		bl	chIQPutI
 453              		.loc 1 146 0
 454 0256 40F20003 		movw	r3, #:lower16:instantAdcData
 455 025a C0F20003 		movt	r3, #:upper16:instantAdcData
 456 025e DB68     		ldr	r3, [r3, #12]
 457 0260 0493     		str	r3, [sp, #16]
 458              		.loc 1 147 0
 459 0262 049B     		ldr	r3, [sp, #16]
 460 0264 8DF80F30 		strb	r3, [sp, #15]
 461              		.loc 1 148 0
 462 0268 9DF80F30 		ldrb	r3, [sp, #15]	@ zero_extendqisi2
 463 026c 40F20000 		movw	r0, #:lower16:adc_queue
 464 0270 C0F20000 		movt	r0, #:upper16:adc_queue
 465 0274 1946     		mov	r1, r3
 466 0276 FFF7FEFF 		bl	chIQPutI
 467              		.loc 1 150 0
 468 027a 049B     		ldr	r3, [sp, #16]
 469 027c 4FEA2323 		asr	r3, r3, #8
 470 0280 8DF80F30 		strb	r3, [sp, #15]
 471              		.loc 1 151 0
 472 0284 9DF80F30 		ldrb	r3, [sp, #15]	@ zero_extendqisi2
 473 0288 40F20000 		movw	r0, #:lower16:adc_queue
 474 028c C0F20000 		movt	r0, #:upper16:adc_queue
 475 0290 1946     		mov	r1, r3
 476 0292 FFF7FEFF 		bl	chIQPutI
 477              		.loc 1 153 0
 478 0296 049B     		ldr	r3, [sp, #16]
 479 0298 4FEA2343 		asr	r3, r3, #16
 480 029c 8DF80F30 		strb	r3, [sp, #15]
 481              		.loc 1 154 0
 482 02a0 9DF80F30 		ldrb	r3, [sp, #15]	@ zero_extendqisi2
 483 02a4 40F20000 		movw	r0, #:lower16:adc_queue
 484 02a8 C0F20000 		movt	r0, #:upper16:adc_queue
 485 02ac 1946     		mov	r1, r3
 486 02ae FFF7FEFF 		bl	chIQPutI
 487              	.L4:
 488              	.LBE3:
 489              		.loc 1 158 0
 490 02b2 FFF7FEFF 		bl	dbg_check_unlock_from_isr
 491              	.LBB4:
 492 02b6 4FF00003 		mov	r3, #0
 493              	@ 158 "./src/adc_ctrl.c" 1
 494 02ba 83F31188 		msr     BASEPRI, r3
 495              	@ 0 "" 2
 496              		.thumb
 497              	.LBE4:
 498              		.loc 1 159 0
 499 02be 4FF44063 		mov	r3, #3072
 500 02c2 C4F20103 		movt	r3, 16385
 501 02c6 4FF48072 		mov	r2, #256
 502 02ca 5A61     		str	r2, [r3, #20]
ARM GAS  C:\Users\z80\AppData\Local\Temp\ccoVIiZT.s 			page 10


 503              		.loc 1 160 0
 504 02cc 07B0     		add	sp, sp, #28
 505 02ce 00BD     		pop	{pc}
 506              		.cfi_endproc
 507              	.LFE64:
 508              		.size	onSpiComplete, .-onSpiComplete
 509              		.section	.text.adcQueue,"ax",%progbits
 510              		.align	2
 511              		.p2align 4,,15
 512              		.global	adcQueue
 513              		.thumb
 514              		.thumb_func
 515              		.type	adcQueue, %function
 516              	adcQueue:
 517              	.LFB65:
 518              		.loc 1 163 0
 519              		.cfi_startproc
 520              		@ args = 0, pretend = 0, frame = 0
 521              		@ frame_needed = 0, uses_anonymous_args = 0
 522              		@ link register save eliminated.
 523              		.loc 1 164 0
 524 0000 40F20003 		movw	r3, #:lower16:adc_queue
 525 0004 C0F20003 		movt	r3, #:upper16:adc_queue
 526              		.loc 1 165 0
 527 0008 1846     		mov	r0, r3
 528 000a 7047     		bx	lr
 529              		.cfi_endproc
 530              	.LFE65:
 531              		.size	adcQueue, .-adcQueue
 532 000c AFF30080 		.section	.text.selectAdcIndex,"ax",%progbits
 533              		.align	2
 534              		.p2align 4,,15
 535              		.thumb
 536              		.thumb_func
 537              		.type	selectAdcIndex, %function
 538              	selectAdcIndex:
 539              	.LFB66:
 540              		.loc 1 168 0
 541              		.cfi_startproc
 542              		@ args = 0, pretend = 0, frame = 8
 543              		@ frame_needed = 0, uses_anonymous_args = 0
 544              		@ link register save eliminated.
 545 0000 82B0     		sub	sp, sp, #8
 546              	.LCFI4:
 547              		.cfi_def_cfa_offset 8
 548 0002 0190     		str	r0, [sp, #4]
 549              		.loc 1 169 0
 550 0004 019B     		ldr	r3, [sp, #4]
 551 0006 03F00103 		and	r3, r3, #1
 552 000a DBB2     		uxtb	r3, r3
 553 000c 002B     		cmp	r3, #0
 554 000e 07D0     		beq	.L7
 555              		.loc 1 170 0
 556 0010 4FF40063 		mov	r3, #2048
 557 0014 C4F20103 		movt	r3, 16385
 558 0018 4FF00102 		mov	r2, #1
 559 001c 1A61     		str	r2, [r3, #16]
ARM GAS  C:\Users\z80\AppData\Local\Temp\ccoVIiZT.s 			page 11


 560 001e 06E0     		b	.L8
 561              	.L7:
 562              		.loc 1 172 0
 563 0020 4FF40063 		mov	r3, #2048
 564 0024 C4F20103 		movt	r3, 16385
 565 0028 4FF00102 		mov	r2, #1
 566 002c 5A61     		str	r2, [r3, #20]
 567              	.L8:
 568              		.loc 1 174 0
 569 002e 019B     		ldr	r3, [sp, #4]
 570 0030 03F00203 		and	r3, r3, #2
 571 0034 002B     		cmp	r3, #0
 572 0036 07D0     		beq	.L9
 573              		.loc 1 175 0
 574 0038 4FF40063 		mov	r3, #2048
 575 003c C4F20103 		movt	r3, 16385
 576 0040 4FF00202 		mov	r2, #2
 577 0044 1A61     		str	r2, [r3, #16]
 578 0046 06E0     		b	.L6
 579              	.L9:
 580              		.loc 1 177 0
 581 0048 4FF40063 		mov	r3, #2048
 582 004c C4F20103 		movt	r3, 16385
 583 0050 4FF00202 		mov	r2, #2
 584 0054 5A61     		str	r2, [r3, #20]
 585              	.L6:
 586              		.loc 1 178 0
 587 0056 02B0     		add	sp, sp, #8
 588 0058 7047     		bx	lr
 589              		.cfi_endproc
 590              	.LFE66:
 591              		.size	selectAdcIndex, .-selectAdcIndex
 592 005a 00BFAFF3 		.section	.text.instantAdc,"ax",%progbits
 592      0080
 593              		.align	2
 594              		.p2align 4,,15
 595              		.global	instantAdc
 596              		.thumb
 597              		.thumb_func
 598              		.type	instantAdc, %function
 599              	instantAdc:
 600              	.LFB67:
 601              		.loc 1 198 0
 602              		.cfi_startproc
 603              		@ args = 0, pretend = 0, frame = 8
 604              		@ frame_needed = 0, uses_anonymous_args = 0
 605 0000 00B5     		push	{lr}
 606              	.LCFI5:
 607              		.cfi_def_cfa_offset 4
 608              		.cfi_offset 14, -4
 609 0002 83B0     		sub	sp, sp, #12
 610              	.LCFI6:
 611              		.cfi_def_cfa_offset 16
 612 0004 0190     		str	r0, [sp, #4]
 613              	.LBB5:
 614              		.loc 1 199 0
 615 0006 4FF02003 		mov	r3, #32
ARM GAS  C:\Users\z80\AppData\Local\Temp\ccoVIiZT.s 			page 12


 616              	@ 199 "./src/adc_ctrl.c" 1
 617 000a 83F31188 		msr     BASEPRI, r3
 618              	@ 0 "" 2
 619              		.thumb
 620              	.LBE5:
 621 000e FFF7FEFF 		bl	dbg_check_lock
 622              		.loc 1 200 0
 623 0012 0198     		ldr	r0, [sp, #4]
 624 0014 FFF7FEFF 		bl	instantAdcI
 625              		.loc 1 201 0
 626 0018 FFF7FEFF 		bl	dbg_check_unlock
 627              	.LBB6:
 628 001c 4FF00003 		mov	r3, #0
 629              	@ 201 "./src/adc_ctrl.c" 1
 630 0020 83F31188 		msr     BASEPRI, r3
 631              	@ 0 "" 2
 632              		.thumb
 633              	.LBE6:
 634              		.loc 1 202 0
 635 0024 03B0     		add	sp, sp, #12
 636 0026 00BD     		pop	{pc}
 637              		.cfi_endproc
 638              	.LFE67:
 639              		.size	instantAdc, .-instantAdc
 640 0028 AFF30080 		.section	.text.instantAdcI,"ax",%progbits
 640      AFF30080 
 641              		.align	2
 642              		.p2align 4,,15
 643              		.global	instantAdcI
 644              		.thumb
 645              		.thumb_func
 646              		.type	instantAdcI, %function
 647              	instantAdcI:
 648              	.LFB68:
 649              		.loc 1 205 0
 650              		.cfi_startproc
 651              		@ args = 0, pretend = 0, frame = 8
 652              		@ frame_needed = 0, uses_anonymous_args = 0
 653              		@ link register save eliminated.
 654 0000 82B0     		sub	sp, sp, #8
 655              	.LCFI7:
 656              		.cfi_def_cfa_offset 8
 657 0002 0190     		str	r0, [sp, #4]
 658              		.loc 1 206 0
 659 0004 019B     		ldr	r3, [sp, #4]
 660 0006 002B     		cmp	r3, #0
 661 0008 21D0     		beq	.L12
 662              		.loc 1 208 0
 663 000a 40F20003 		movw	r3, #:lower16:instantAdcData
 664 000e C0F20003 		movt	r3, #:upper16:instantAdcData
 665 0012 1A68     		ldr	r2, [r3, #0]
 666 0014 019B     		ldr	r3, [sp, #4]
 667 0016 1A60     		str	r2, [r3, #0]
 668              		.loc 1 209 0
 669 0018 019B     		ldr	r3, [sp, #4]
 670 001a 03F10402 		add	r2, r3, #4
 671 001e 40F20003 		movw	r3, #:lower16:instantAdcData
ARM GAS  C:\Users\z80\AppData\Local\Temp\ccoVIiZT.s 			page 13


 672 0022 C0F20003 		movt	r3, #:upper16:instantAdcData
 673 0026 5B68     		ldr	r3, [r3, #4]
 674 0028 1360     		str	r3, [r2, #0]
 675              		.loc 1 210 0
 676 002a 019B     		ldr	r3, [sp, #4]
 677 002c 03F10802 		add	r2, r3, #8
 678 0030 40F20003 		movw	r3, #:lower16:instantAdcData
 679 0034 C0F20003 		movt	r3, #:upper16:instantAdcData
 680 0038 9B68     		ldr	r3, [r3, #8]
 681 003a 1360     		str	r3, [r2, #0]
 682              		.loc 1 211 0
 683 003c 019B     		ldr	r3, [sp, #4]
 684 003e 03F10C02 		add	r2, r3, #12
 685 0042 40F20003 		movw	r3, #:lower16:instantAdcData
 686 0046 C0F20003 		movt	r3, #:upper16:instantAdcData
 687 004a DB68     		ldr	r3, [r3, #12]
 688 004c 1360     		str	r3, [r2, #0]
 689              	.L12:
 690              		.loc 1 213 0
 691 004e 02B0     		add	sp, sp, #8
 692 0050 7047     		bx	lr
 693              		.cfi_endproc
 694              	.LFE68:
 695              		.size	instantAdcI, .-instantAdcI
 696 0052 00BFAFF3 		.section	.text.setOscSignals,"ax",%progbits
 696      0080AFF3 
 696      0080AFF3 
 696      0080
 697              		.align	2
 698              		.p2align 4,,15
 699              		.global	setOscSignals
 700              		.thumb
 701              		.thumb_func
 702              		.type	setOscSignals, %function
 703              	setOscSignals:
 704              	.LFB69:
 705              		.loc 1 216 0
 706              		.cfi_startproc
 707              		@ args = 0, pretend = 0, frame = 8
 708              		@ frame_needed = 0, uses_anonymous_args = 0
 709 0000 00B5     		push	{lr}
 710              	.LCFI8:
 711              		.cfi_def_cfa_offset 4
 712              		.cfi_offset 14, -4
 713 0002 83B0     		sub	sp, sp, #12
 714              	.LCFI9:
 715              		.cfi_def_cfa_offset 16
 716 0004 0190     		str	r0, [sp, #4]
 717              	.LBB7:
 718              		.loc 1 217 0
 719 0006 4FF02003 		mov	r3, #32
 720              	@ 217 "./src/adc_ctrl.c" 1
 721 000a 83F31188 		msr     BASEPRI, r3
 722              	@ 0 "" 2
 723              		.thumb
 724              	.LBE7:
 725 000e FFF7FEFF 		bl	dbg_check_lock
ARM GAS  C:\Users\z80\AppData\Local\Temp\ccoVIiZT.s 			page 14


 726              		.loc 1 218 0
 727 0012 40F20003 		movw	r3, #:lower16:signalMask
 728 0016 C0F20003 		movt	r3, #:upper16:signalMask
 729 001a 019A     		ldr	r2, [sp, #4]
 730 001c 1A60     		str	r2, [r3, #0]
 731              		.loc 1 219 0
 732 001e FFF7FEFF 		bl	dbg_check_unlock
 733              	.LBB8:
 734 0022 4FF00003 		mov	r3, #0
 735              	@ 219 "./src/adc_ctrl.c" 1
 736 0026 83F31188 		msr     BASEPRI, r3
 737              	@ 0 "" 2
 738              		.thumb
 739              	.LBE8:
 740              		.loc 1 220 0
 741 002a 03B0     		add	sp, sp, #12
 742 002c 00BD     		pop	{pc}
 743              		.cfi_endproc
 744              	.LFE69:
 745              		.size	setOscSignals, .-setOscSignals
 746 002e 00BF     		.section	.text.setOscPeriod,"ax",%progbits
 747              		.align	2
 748              		.p2align 4,,15
 749              		.global	setOscPeriod
 750              		.thumb
 751              		.thumb_func
 752              		.type	setOscPeriod, %function
 753              	setOscPeriod:
 754              	.LFB70:
 755              		.loc 1 223 0
 756              		.cfi_startproc
 757              		@ args = 0, pretend = 0, frame = 8
 758              		@ frame_needed = 0, uses_anonymous_args = 0
 759 0000 00B5     		push	{lr}
 760              	.LCFI10:
 761              		.cfi_def_cfa_offset 4
 762              		.cfi_offset 14, -4
 763 0002 83B0     		sub	sp, sp, #12
 764              	.LCFI11:
 765              		.cfi_def_cfa_offset 16
 766 0004 0190     		str	r0, [sp, #4]
 767              	.LBB9:
 768              		.loc 1 224 0
 769 0006 4FF02003 		mov	r3, #32
 770              	@ 224 "./src/adc_ctrl.c" 1
 771 000a 83F31188 		msr     BASEPRI, r3
 772              	@ 0 "" 2
 773              		.thumb
 774              	.LBE9:
 775 000e FFF7FEFF 		bl	dbg_check_lock
 776              		.loc 1 225 0
 777 0012 019A     		ldr	r2, [sp, #4]
 778 0014 40F20003 		movw	r3, #:lower16:period
 779 0018 C0F20003 		movt	r3, #:upper16:period
 780 001c 1A60     		str	r2, [r3, #0]
 781              		.loc 1 226 0
 782 001e FFF7FEFF 		bl	dbg_check_unlock
ARM GAS  C:\Users\z80\AppData\Local\Temp\ccoVIiZT.s 			page 15


 783              	.LBB10:
 784 0022 4FF00003 		mov	r3, #0
 785              	@ 226 "./src/adc_ctrl.c" 1
 786 0026 83F31188 		msr     BASEPRI, r3
 787              	@ 0 "" 2
 788              		.thumb
 789              	.LBE10:
 790              		.loc 1 227 0
 791 002a 03B0     		add	sp, sp, #12
 792 002c 00BD     		pop	{pc}
 793              		.cfi_endproc
 794              	.LFE70:
 795              		.size	setOscPeriod, .-setOscPeriod
 796              		.global	adcRaw
 797 002e 00BF     		.section	.bss.adcRaw,"aw",%nobits
 798              		.align	2
 799              		.type	adcRaw, %object
 800              		.size	adcRaw, 80
 801              	adcRaw:
 802 0000 00000000 		.space	80
 802      00000000 
 802      00000000 
 802      00000000 
 802      00000000 
 803              		.global	adcFiltered
 804              		.section	.bss.adcFiltered,"aw",%nobits
 805              		.align	2
 806              		.type	adcFiltered, %object
 807              		.size	adcFiltered, 80
 808              	adcFiltered:
 809 0000 00000000 		.space	80
 809      00000000 
 809      00000000 
 809      00000000 
 809      00000000 
 810              		.global	adcPointer
 811              		.section	.bss.adcPointer,"aw",%nobits
 812              		.align	2
 813              		.type	adcPointer, %object
 814              		.size	adcPointer, 4
 815              	adcPointer:
 816 0000 00000000 		.space	4
 817              		.section	.text.filterAdc,"ax",%progbits
 818              		.align	2
 819              		.p2align 4,,15
 820              		.thumb
 821              		.thumb_func
 822              		.type	filterAdc, %function
 823              	filterAdc:
 824              	.LFB71:
 825              		.loc 1 236 0
 826              		.cfi_startproc
 827              		@ args = 0, pretend = 0, frame = 32
 828              		@ frame_needed = 0, uses_anonymous_args = 0
 829              		@ link register save eliminated.
 830 0000 88B0     		sub	sp, sp, #32
 831              	.LCFI12:
ARM GAS  C:\Users\z80\AppData\Local\Temp\ccoVIiZT.s 			page 16


 832              		.cfi_def_cfa_offset 32
 833 0002 0346     		mov	r3, r0
 834 0004 0091     		str	r1, [sp, #0]
 835 0006 8DF80730 		strb	r3, [sp, #7]
 836              		.loc 1 237 0
 837 000a 9DF80720 		ldrb	r2, [sp, #7]	@ zero_extendqisi2
 838 000e 1346     		mov	r3, r2
 839 0010 4FEA8303 		lsl	r3, r3, #2
 840 0014 9B18     		adds	r3, r3, r2
 841 0016 4FEA8303 		lsl	r3, r3, #2
 842 001a 1A46     		mov	r2, r3
 843 001c 40F20003 		movw	r3, #:lower16:adcRaw
 844 0020 C0F20003 		movt	r3, #:upper16:adcRaw
 845 0024 D318     		adds	r3, r2, r3
 846 0026 0693     		str	r3, [sp, #24]
 847              		.loc 1 238 0
 848 0028 9DF80720 		ldrb	r2, [sp, #7]	@ zero_extendqisi2
 849 002c 40F20003 		movw	r3, #:lower16:adcPointer
 850 0030 C0F20003 		movt	r3, #:upper16:adcPointer
 851 0034 D318     		adds	r3, r2, r3
 852 0036 0593     		str	r3, [sp, #20]
 853              		.loc 1 239 0
 854 0038 059B     		ldr	r3, [sp, #20]
 855 003a 1B78     		ldrb	r3, [r3, #0]	@ zero_extendqisi2
 856 003c 4FEA8303 		lsl	r3, r3, #2
 857 0040 069A     		ldr	r2, [sp, #24]
 858 0042 D318     		adds	r3, r2, r3
 859 0044 009A     		ldr	r2, [sp, #0]
 860 0046 1A60     		str	r2, [r3, #0]
 861              		.loc 1 240 0
 862 0048 059B     		ldr	r3, [sp, #20]
 863 004a 1B78     		ldrb	r3, [r3, #0]	@ zero_extendqisi2
 864 004c 03F10101 		add	r1, r3, #1
 865 0050 46F26763 		movw	r3, #26215
 866 0054 C6F26663 		movt	r3, 26214
 867 0058 83FB0123 		smull	r2, r3, r3, r1
 868 005c 4FEA6302 		asr	r2, r3, #1
 869 0060 4FEAE173 		asr	r3, r1, #31
 870 0064 D21A     		subs	r2, r2, r3
 871 0066 1346     		mov	r3, r2
 872 0068 4FEA8303 		lsl	r3, r3, #2
 873 006c 9B18     		adds	r3, r3, r2
 874 006e CA1A     		subs	r2, r1, r3
 875 0070 D2B2     		uxtb	r2, r2
 876 0072 059B     		ldr	r3, [sp, #20]
 877 0074 1A70     		strb	r2, [r3, #0]
 878              		.loc 1 242 0
 879 0076 9DF80720 		ldrb	r2, [sp, #7]	@ zero_extendqisi2
 880 007a 1346     		mov	r3, r2
 881 007c 4FEA8303 		lsl	r3, r3, #2
 882 0080 9B18     		adds	r3, r3, r2
 883 0082 4FEA8303 		lsl	r3, r3, #2
 884 0086 1A46     		mov	r2, r3
 885 0088 40F20003 		movw	r3, #:lower16:adcFiltered
 886 008c C0F20003 		movt	r3, #:upper16:adcFiltered
 887 0090 D318     		adds	r3, r2, r3
 888 0092 0493     		str	r3, [sp, #16]
ARM GAS  C:\Users\z80\AppData\Local\Temp\ccoVIiZT.s 			page 17


 889              		.loc 1 244 0
 890 0094 4FF00003 		mov	r3, #0
 891 0098 8DF81F30 		strb	r3, [sp, #31]
 892 009c 13E0     		b	.L17
 893              	.L18:
 894              		.loc 1 245 0 discriminator 2
 895 009e 9DF81F30 		ldrb	r3, [sp, #31]	@ zero_extendqisi2
 896 00a2 4FEA8303 		lsl	r3, r3, #2
 897 00a6 049A     		ldr	r2, [sp, #16]
 898 00a8 D318     		adds	r3, r2, r3
 899 00aa 9DF81F20 		ldrb	r2, [sp, #31]	@ zero_extendqisi2
 900 00ae 4FEA8202 		lsl	r2, r2, #2
 901 00b2 0699     		ldr	r1, [sp, #24]
 902 00b4 8A18     		adds	r2, r1, r2
 903 00b6 1268     		ldr	r2, [r2, #0]
 904 00b8 1A60     		str	r2, [r3, #0]
 905              		.loc 1 244 0 discriminator 2
 906 00ba 9DF81F30 		ldrb	r3, [sp, #31]
 907 00be 03F10103 		add	r3, r3, #1
 908 00c2 8DF81F30 		strb	r3, [sp, #31]
 909              	.L17:
 910              		.loc 1 244 0 is_stmt 0 discriminator 1
 911 00c6 9DF81F30 		ldrb	r3, [sp, #31]	@ zero_extendqisi2
 912 00ca 032B     		cmp	r3, #3
 913 00cc E7D9     		bls	.L18
 914              		.loc 1 246 0 is_stmt 1
 915 00ce 4FF00003 		mov	r3, #0
 916 00d2 8DF81F30 		strb	r3, [sp, #31]
 917 00d6 44E0     		b	.L19
 918              	.L23:
 919              		.loc 1 248 0
 920 00d8 9DF81F30 		ldrb	r3, [sp, #31]
 921 00dc 03F10103 		add	r3, r3, #1
 922 00e0 8DF81E30 		strb	r3, [sp, #30]
 923 00e4 33E0     		b	.L20
 924              	.L22:
 925              		.loc 1 250 0
 926 00e6 9DF81F30 		ldrb	r3, [sp, #31]	@ zero_extendqisi2
 927 00ea 4FEA8303 		lsl	r3, r3, #2
 928 00ee 049A     		ldr	r2, [sp, #16]
 929 00f0 D318     		adds	r3, r2, r3
 930 00f2 1A68     		ldr	r2, [r3, #0]
 931 00f4 9DF81E30 		ldrb	r3, [sp, #30]	@ zero_extendqisi2
 932 00f8 4FEA8303 		lsl	r3, r3, #2
 933 00fc 0499     		ldr	r1, [sp, #16]
 934 00fe CB18     		adds	r3, r1, r3
 935 0100 1B68     		ldr	r3, [r3, #0]
 936 0102 9A42     		cmp	r2, r3
 937 0104 1DDA     		bge	.L21
 938              	.LBB11:
 939              		.loc 1 252 0
 940 0106 9DF81F30 		ldrb	r3, [sp, #31]	@ zero_extendqisi2
 941 010a 4FEA8303 		lsl	r3, r3, #2
 942 010e 049A     		ldr	r2, [sp, #16]
 943 0110 D318     		adds	r3, r2, r3
 944 0112 1B68     		ldr	r3, [r3, #0]
 945 0114 0393     		str	r3, [sp, #12]
ARM GAS  C:\Users\z80\AppData\Local\Temp\ccoVIiZT.s 			page 18


 946              		.loc 1 253 0
 947 0116 9DF81F30 		ldrb	r3, [sp, #31]	@ zero_extendqisi2
 948 011a 4FEA8303 		lsl	r3, r3, #2
 949 011e 049A     		ldr	r2, [sp, #16]
 950 0120 D318     		adds	r3, r2, r3
 951 0122 9DF81E20 		ldrb	r2, [sp, #30]	@ zero_extendqisi2
 952 0126 4FEA8202 		lsl	r2, r2, #2
 953 012a 0499     		ldr	r1, [sp, #16]
 954 012c 8A18     		adds	r2, r1, r2
 955 012e 1268     		ldr	r2, [r2, #0]
 956 0130 1A60     		str	r2, [r3, #0]
 957              		.loc 1 254 0
 958 0132 9DF81E30 		ldrb	r3, [sp, #30]	@ zero_extendqisi2
 959 0136 4FEA8303 		lsl	r3, r3, #2
 960 013a 049A     		ldr	r2, [sp, #16]
 961 013c D318     		adds	r3, r2, r3
 962 013e 039A     		ldr	r2, [sp, #12]
 963 0140 1A60     		str	r2, [r3, #0]
 964              	.L21:
 965              	.LBE11:
 966              		.loc 1 248 0
 967 0142 9DF81E30 		ldrb	r3, [sp, #30]
 968 0146 03F10103 		add	r3, r3, #1
 969 014a 8DF81E30 		strb	r3, [sp, #30]
 970              	.L20:
 971              		.loc 1 248 0 is_stmt 0 discriminator 1
 972 014e 9DF81E30 		ldrb	r3, [sp, #30]	@ zero_extendqisi2
 973 0152 042B     		cmp	r3, #4
 974 0154 C7D9     		bls	.L22
 975              		.loc 1 246 0 is_stmt 1
 976 0156 9DF81F30 		ldrb	r3, [sp, #31]
 977 015a 03F10103 		add	r3, r3, #1
 978 015e 8DF81F30 		strb	r3, [sp, #31]
 979              	.L19:
 980              		.loc 1 246 0 is_stmt 0 discriminator 1
 981 0162 9DF81F30 		ldrb	r3, [sp, #31]	@ zero_extendqisi2
 982 0166 032B     		cmp	r3, #3
 983 0168 B6D9     		bls	.L23
 984              		.loc 1 258 0 is_stmt 1
 985 016a 9DF80720 		ldrb	r2, [sp, #7]	@ zero_extendqisi2
 986 016e 049B     		ldr	r3, [sp, #16]
 987 0170 9968     		ldr	r1, [r3, #8]
 988 0172 40F20003 		movw	r3, #:lower16:instantAdcData
 989 0176 C0F20003 		movt	r3, #:upper16:instantAdcData
 990 017a 43F82210 		str	r1, [r3, r2, lsl #2]
 991              		.loc 1 259 0
 992 017e 08B0     		add	sp, sp, #32
 993 0180 7047     		bx	lr
 994              		.cfi_endproc
 995              	.LFE71:
 996              		.size	filterAdc, .-filterAdc
 997 0182 00BFAFF3 		.text
 997      0080AFF3 
 997      0080AFF3 
 997      0080
 998              	.Letext0:
 999              		.file 2 "c:\\programs\\codesourcery\\2011.03-56\\bin\\../lib/gcc/arm-none-eabi/4.6.3/include/stdde
ARM GAS  C:\Users\z80\AppData\Local\Temp\ccoVIiZT.s 			page 19


 1000              		.file 3 "c:\\programs\\codesourcery\\2011.03-56\\bin\\../lib/gcc/arm-none-eabi/4.6.3/../../../../a
 1001              		.file 4 "../chibios_2.4.x/os/ports/GCC/ARMCMx/chtypes.h"
 1002              		.file 5 "../chibios_2.4.x/os/kernel/include/chlists.h"
 1003              		.file 6 "../chibios_2.4.x/os/kernel/include/chthreads.h"
 1004              		.file 7 "../chibios_2.4.x/os/ports/GCC/ARMCMx/chcore_v7m.h"
 1005              		.file 8 "../chibios_2.4.x/os/kernel/include/chmtx.h"
 1006              		.file 9 "../chibios_2.4.x/os/kernel/include/chqueues.h"
 1007              		.file 10 "../chibios_2.4.x/os/hal/platforms/STM32F1xx/stm32f10x.h"
 1008              		.file 11 "../chibios_2.4.x/os/hal/platforms/STM32F1xx/stm32_dma.h"
 1009              		.file 12 "../chibios_2.4.x/os/hal/platforms/STM32/GPIOv1/pal_lld.h"
 1010              		.file 13 "../chibios_2.4.x/os/hal/include/spi.h"
 1011              		.file 14 "../chibios_2.4.x/os/hal/platforms/STM32/spi_lld.h"
 1012              		.file 15 "../chibios_2.4.x/os/ports/common/ARMCMx/CMSIS/include/core_cm3.h"