ARM GAS  C:\Users\z80\AppData\Local\Temp\ccqtrITI.s 			page 1


   1              		.syntax unified
   2              		.cpu cortex-m3
   3              		.fpu softvfp
   4              		.eabi_attribute 20, 1
   5              		.eabi_attribute 21, 1
   6              		.eabi_attribute 23, 3
   7              		.eabi_attribute 24, 1
   8              		.eabi_attribute 25, 1
   9              		.eabi_attribute 26, 1
  10              		.eabi_attribute 30, 2
  11              		.eabi_attribute 18, 4
  12              		.thumb
  13              		.file	"adc_ctrl.c"
  14              		.section	.debug_abbrev,"",%progbits
  15              	.Ldebug_abbrev0:
  16              		.section	.debug_info,"",%progbits
  17              	.Ldebug_info0:
  18              		.section	.debug_line,"",%progbits
  19              	.Ldebug_line0:
  20 0000 DE030000 		.text
  20      02007C02 
  20      00000201 
  20      FB0E0D00 
  20      01010101 
  21              	.Ltext0:
  22              		.cfi_sections	.debug_frame
  23              		.section	.text.onSpiComplete,"ax",%progbits
  24              		.align	2
  25              		.p2align 4,,15
  26              		.thumb
  27              		.thumb_func
  28              		.type	onSpiComplete, %function
  29              	onSpiComplete:
  30              	.LFB64:
  31              		.file 1 "./src/adc_ctrl.c"
  32              		.loc 1 76 0
  33              		.cfi_startproc
  34              		@ args = 0, pretend = 0, frame = 0
  35              		@ frame_needed = 0, uses_anonymous_args = 0
  36              	.LVL0:
  37 0000 F8B5     		push	{r3, r4, r5, r6, r7, lr}
  38              	.LCFI0:
  39              		.cfi_def_cfa_offset 24
  40              	.LBB9:
  41              		.loc 1 78 0
  42 0002 2023     		movs	r3, #32
  43              		.cfi_offset 14, -4
  44              		.cfi_offset 7, -8
  45              		.cfi_offset 6, -12
  46              		.cfi_offset 5, -16
  47              		.cfi_offset 4, -20
  48              		.cfi_offset 3, -24
  49              	.LVL1:
  50              	@ 78 "./src/adc_ctrl.c" 1
  51 0004 83F31188 		msr     BASEPRI, r3
  52              	@ 0 "" 2
  53              	.LVL2:
ARM GAS  C:\Users\z80\AppData\Local\Temp\ccqtrITI.s 			page 2


  54              		.thumb
  55              	.LBE9:
  56 0008 FFF7FEFF 		bl	dbg_check_lock_from_isr
  57              	.LVL3:
  58              		.loc 1 80 0
  59 000c 544A     		ldr	r2, .L16
  60 000e 1568     		ldr	r5, [r2, #0]
  61              	.LVL4:
  62              		.loc 1 81 0
  63 0010 681C     		adds	r0, r5, #1
  64 0012 C117     		asrs	r1, r0, #31
  65 0014 890F     		lsrs	r1, r1, #30
  66 0016 4318     		adds	r3, r0, r1
  67 0018 03F00303 		and	r3, r3, #3
  68 001c 5B1A     		subs	r3, r3, r1
  69              	.LBB10:
  70              	.LBB12:
  71              		.loc 1 173 0
  72 001e 13F0010F 		tst	r3, #1
  73              	.LBE12:
  74              	.LBE10:
  75              		.loc 1 81 0
  76 0022 1360     		str	r3, [r2, #0]
  77              	.LVL5:
  78              	.LBB14:
  79              	.LBB11:
  80              		.loc 1 173 0
  81 0024 26D0     		beq	.L2
  82              		.loc 1 174 0
  83 0026 4FF40062 		mov	r2, #2048
  84 002a 0121     		movs	r1, #1
  85 002c C4F20102 		movt	r2, 16385
  86              		.loc 1 178 0
  87 0030 13F0020F 		tst	r3, #2
  88              		.loc 1 174 0
  89 0034 1161     		str	r1, [r2, #16]
  90              		.loc 1 178 0
  91 0036 26D0     		beq	.L4
  92              	.L12:
  93              		.loc 1 179 0
  94 0038 4FF40063 		mov	r3, #2048
  95              	.LVL6:
  96 003c C4F20103 		movt	r3, 16385
  97 0040 0222     		movs	r2, #2
  98 0042 1A61     		str	r2, [r3, #16]
  99              	.L5:
 100              	.LBE11:
 101              	.LBE14:
 102              		.loc 1 84 0
 103 0044 4748     		ldr	r0, .L16+4
 104 0046 FFF7FEFF 		bl	spi_lld_unselect
 105              	.LVL7:
 106              		.loc 1 87 0
 107 004a 474B     		ldr	r3, .L16+8
 108              		.loc 1 90 0
 109 004c 474C     		ldr	r4, .L16+12
 110              		.loc 1 88 0
ARM GAS  C:\Users\z80\AppData\Local\Temp\ccqtrITI.s 			page 3


 111 004e 1978     		ldrb	r1, [r3, #0]	@ zero_extendqisi2
 112              		.loc 1 87 0
 113 0050 5878     		ldrb	r0, [r3, #1]	@ zero_extendqisi2
 114              		.loc 1 88 0
 115 0052 0904     		lsls	r1, r1, #16
 116              		.loc 1 86 0
 117 0054 9A78     		ldrb	r2, [r3, #2]	@ zero_extendqisi2
 118 0056 01EB0023 		add	r3, r1, r0, lsl #8
 119 005a 9B18     		adds	r3, r3, r2
 120              	.LVL8:
 121              		.loc 1 89 0
 122 005c C3F34F03 		ubfx	r3, r3, #1, #16
 123              	.LVL9:
 124              		.loc 1 96 0
 125 0060 032D     		cmp	r5, #3
 126              		.loc 1 90 0
 127 0062 44F82530 		str	r3, [r4, r5, lsl #2]
 128              		.loc 1 96 0
 129 0066 15D0     		beq	.L11
 130              	.LVL10:
 131              	.L6:
 132              		.loc 1 163 0
 133 0068 FFF7FEFF 		bl	dbg_check_unlock_from_isr
 134              	.LBB15:
 135 006c 0023     		movs	r3, #0
 136              	.LVL11:
 137              	@ 163 "./src/adc_ctrl.c" 1
 138 006e 83F31188 		msr     BASEPRI, r3
 139              	@ 0 "" 2
 140              	.LVL12:
 141              		.thumb
 142              	.LBE15:
 143              		.loc 1 164 0
 144 0072 F8BD     		pop	{r3, r4, r5, r6, r7, pc}
 145              	.LVL13:
 146              	.L2:
 147              	.LBB16:
 148              	.LBB13:
 149              		.loc 1 176 0
 150 0074 4FF40062 		mov	r2, #2048
 151 0078 0121     		movs	r1, #1
 152 007a C4F20102 		movt	r2, 16385
 153              		.loc 1 178 0
 154 007e 13F0020F 		tst	r3, #2
 155              		.loc 1 176 0
 156 0082 5161     		str	r1, [r2, #20]
 157              		.loc 1 178 0
 158 0084 D8D1     		bne	.L12
 159              	.L4:
 160              		.loc 1 181 0
 161 0086 4FF40063 		mov	r3, #2048
 162              	.LVL14:
 163 008a C4F20103 		movt	r3, 16385
 164 008e 0222     		movs	r2, #2
 165 0090 5A61     		str	r2, [r3, #20]
 166 0092 D7E7     		b	.L5
 167              	.LVL15:
ARM GAS  C:\Users\z80\AppData\Local\Temp\ccqtrITI.s 			page 4


 168              	.L11:
 169              	.LBE13:
 170              	.LBE16:
 171              		.loc 1 98 0
 172 0094 364B     		ldr	r3, .L16+16
 173              		.loc 1 99 0
 174 0096 3749     		ldr	r1, .L16+20
 175              		.loc 1 98 0
 176 0098 1A68     		ldr	r2, [r3, #0]
 177              		.loc 1 99 0
 178 009a 0968     		ldr	r1, [r1, #0]
 179              		.loc 1 98 0
 180 009c 0132     		adds	r2, r2, #1
 181              		.loc 1 99 0
 182 009e 8A42     		cmp	r2, r1
 183              		.loc 1 98 0
 184 00a0 1A60     		str	r2, [r3, #0]
 185              		.loc 1 99 0
 186 00a2 E1DB     		blt	.L6
 187              		.loc 1 102 0
 188 00a4 344D     		ldr	r5, .L16+24
 189              	.LVL16:
 190              		.loc 1 101 0
 191 00a6 521A     		subs	r2, r2, r1
 192              		.loc 1 102 0
 193 00a8 D5F810C0 		ldr	ip, [r5, #16]
 194 00ac E868     		ldr	r0, [r5, #12]
 195 00ae A968     		ldr	r1, [r5, #8]
 196 00b0 C0EB0C00 		rsb	r0, r0, ip
 197 00b4 401A     		subs	r0, r0, r1
 198 00b6 0B28     		cmp	r0, #11
 199              		.loc 1 101 0
 200 00b8 1A60     		str	r2, [r3, #0]
 201              		.loc 1 102 0
 202 00ba D5D9     		bls	.L6
 203              	.LBB17:
 204              		.loc 1 109 0
 205 00bc 2F4E     		ldr	r6, .L16+28
 206 00be 3368     		ldr	r3, [r6, #0]
 207 00c0 13F0010F 		tst	r3, #1
 208 00c4 18D1     		bne	.L13
 209              	.L7:
 210              		.loc 1 122 0
 211 00c6 13F0020F 		tst	r3, #2
 212 00ca 37D1     		bne	.L14
 213              	.L8:
 214              		.loc 1 135 0
 215 00cc 13F0040F 		tst	r3, #4
 216 00d0 23D1     		bne	.L15
 217              	.L9:
 218              		.loc 1 148 0
 219 00d2 13F0080F 		tst	r3, #8
 220 00d6 C7D0     		beq	.L6
 221              		.loc 1 150 0
 222 00d8 E468     		ldr	r4, [r4, #12]
 223              	.LVL17:
 224              		.loc 1 152 0
ARM GAS  C:\Users\z80\AppData\Local\Temp\ccqtrITI.s 			page 5


 225 00da 2748     		ldr	r0, .L16+24
 226 00dc E1B2     		uxtb	r1, r4
 227 00de FFF7FEFF 		bl	chIQPutI
 228              	.LVL18:
 229              		.loc 1 155 0
 230 00e2 C4F30721 		ubfx	r1, r4, #8, #8
 231 00e6 2448     		ldr	r0, .L16+24
 232 00e8 FFF7FEFF 		bl	chIQPutI
 233              	.LVL19:
 234              		.loc 1 158 0
 235 00ec C4F30741 		ubfx	r1, r4, #16, #8
 236 00f0 2148     		ldr	r0, .L16+24
 237 00f2 FFF7FEFF 		bl	chIQPutI
 238 00f6 B7E7     		b	.L6
 239              	.LVL20:
 240              	.L13:
 241              		.loc 1 111 0
 242 00f8 2768     		ldr	r7, [r4, #0]
 243              	.LVL21:
 244              		.loc 1 113 0
 245 00fa 2846     		mov	r0, r5
 246 00fc F9B2     		uxtb	r1, r7
 247 00fe FFF7FEFF 		bl	chIQPutI
 248              	.LVL22:
 249              		.loc 1 116 0
 250 0102 C7F30721 		ubfx	r1, r7, #8, #8
 251 0106 2846     		mov	r0, r5
 252 0108 FFF7FEFF 		bl	chIQPutI
 253              	.LVL23:
 254              		.loc 1 119 0
 255 010c C7F30741 		ubfx	r1, r7, #16, #8
 256 0110 2846     		mov	r0, r5
 257 0112 FFF7FEFF 		bl	chIQPutI
 258 0116 3368     		ldr	r3, [r6, #0]
 259 0118 D5E7     		b	.L7
 260              	.LVL24:
 261              	.L15:
 262              		.loc 1 137 0
 263 011a A568     		ldr	r5, [r4, #8]
 264              	.LVL25:
 265              		.loc 1 139 0
 266 011c 1648     		ldr	r0, .L16+24
 267 011e E9B2     		uxtb	r1, r5
 268 0120 FFF7FEFF 		bl	chIQPutI
 269              	.LVL26:
 270              		.loc 1 142 0
 271 0124 C5F30721 		ubfx	r1, r5, #8, #8
 272 0128 1348     		ldr	r0, .L16+24
 273 012a FFF7FEFF 		bl	chIQPutI
 274              	.LVL27:
 275              		.loc 1 145 0
 276 012e C5F30741 		ubfx	r1, r5, #16, #8
 277 0132 1148     		ldr	r0, .L16+24
 278 0134 FFF7FEFF 		bl	chIQPutI
 279 0138 3368     		ldr	r3, [r6, #0]
 280 013a CAE7     		b	.L9
 281              	.LVL28:
ARM GAS  C:\Users\z80\AppData\Local\Temp\ccqtrITI.s 			page 6


 282              	.L14:
 283              		.loc 1 124 0
 284 013c 6568     		ldr	r5, [r4, #4]
 285              	.LVL29:
 286              		.loc 1 126 0
 287 013e 0E48     		ldr	r0, .L16+24
 288 0140 E9B2     		uxtb	r1, r5
 289 0142 FFF7FEFF 		bl	chIQPutI
 290              	.LVL30:
 291              		.loc 1 129 0
 292 0146 C5F30721 		ubfx	r1, r5, #8, #8
 293 014a 0B48     		ldr	r0, .L16+24
 294 014c FFF7FEFF 		bl	chIQPutI
 295              	.LVL31:
 296              		.loc 1 132 0
 297 0150 C5F30741 		ubfx	r1, r5, #16, #8
 298 0154 0848     		ldr	r0, .L16+24
 299 0156 FFF7FEFF 		bl	chIQPutI
 300 015a 3368     		ldr	r3, [r6, #0]
 301 015c B6E7     		b	.L8
 302              	.L17:
 303 015e 00BF     		.align	2
 304              	.L16:
 305 0160 00000000 		.word	.LANCHOR0
 306 0164 00000000 		.word	SPID1
 307 0168 00000000 		.word	.LANCHOR1
 308 016c 00000000 		.word	.LANCHOR2
 309 0170 00000000 		.word	.LANCHOR3
 310 0174 00000000 		.word	.LANCHOR4
 311 0178 00000000 		.word	.LANCHOR5
 312 017c 00000000 		.word	.LANCHOR6
 313              	.LBE17:
 314              		.cfi_endproc
 315              	.LFE64:
 316              		.size	onSpiComplete, .-onSpiComplete
 317              		.section	.text.initAdc,"ax",%progbits
 318              		.align	2
 319              		.p2align 4,,15
 320              		.global	initAdc
 321              		.thumb
 322              		.thumb_func
 323              		.type	initAdc, %function
 324              	initAdc:
 325              	.LFB62:
 326              		.loc 1 51 0
 327              		.cfi_startproc
 328              		@ args = 0, pretend = 0, frame = 0
 329              		@ frame_needed = 0, uses_anonymous_args = 0
 330 0000 10B5     		push	{r4, lr}
 331              	.LCFI1:
 332              		.cfi_def_cfa_offset 8
 333              		.loc 1 52 0
 334 0002 0023     		movs	r3, #0
 335 0004 2948     		ldr	r0, .L24
 336 0006 2A49     		ldr	r1, .L24+4
 337 0008 4FF4A072 		mov	r2, #320
 338              		.cfi_offset 14, -4
ARM GAS  C:\Users\z80\AppData\Local\Temp\ccqtrITI.s 			page 7


 339              		.cfi_offset 4, -8
 340 000c FFF7FEFF 		bl	chIQInit
 341              		.loc 1 56 0
 342 0010 4FF40064 		mov	r4, #2048
 343              		.loc 1 53 0
 344 0014 0023     		movs	r3, #0
 345 0016 2748     		ldr	r0, .L24+8
 346 0018 2749     		ldr	r1, .L24+12
 347 001a 4FF4A072 		mov	r2, #320
 348              		.loc 1 56 0
 349 001e C4F20104 		movt	r4, 16385
 350              		.loc 1 53 0
 351 0022 FFF7FEFF 		bl	chIQInit
 352              		.loc 1 54 0
 353 0026 0023     		movs	r3, #0
 354 0028 0222     		movs	r2, #2
 355 002a 2448     		ldr	r0, .L24+16
 356 002c 2449     		ldr	r1, .L24+20
 357 002e FFF7FEFF 		bl	chOQInit
 358              		.loc 1 56 0
 359 0032 0121     		movs	r1, #1
 360 0034 0622     		movs	r2, #6
 361 0036 2046     		mov	r0, r4
 362 0038 FFF7FEFF 		bl	_pal_lld_setgroupmode
 363              		.loc 1 57 0
 364 003c 0221     		movs	r1, #2
 365 003e 0622     		movs	r2, #6
 366 0040 2046     		mov	r0, r4
 367 0042 FFF7FEFF 		bl	_pal_lld_setgroupmode
 368              		.loc 1 59 0
 369 0046 2021     		movs	r1, #32
 370 0048 1022     		movs	r2, #16
 371 004a 2046     		mov	r0, r4
 372 004c FFF7FEFF 		bl	_pal_lld_setgroupmode
 373              		.loc 1 60 0
 374 0050 4021     		movs	r1, #64
 375 0052 1022     		movs	r2, #16
 376 0054 2046     		mov	r0, r4
 377 0056 FFF7FEFF 		bl	_pal_lld_setgroupmode
 378              		.loc 1 61 0
 379 005a 0622     		movs	r2, #6
 380 005c 1021     		movs	r1, #16
 381 005e 2046     		mov	r0, r4
 382 0060 FFF7FEFF 		bl	_pal_lld_setgroupmode
 383              		.loc 1 64 0
 384 0064 174B     		ldr	r3, .L24+24
 385              		.loc 1 62 0
 386 0066 1022     		movs	r2, #16
 387              		.loc 1 64 0
 388 0068 1B68     		ldr	r3, [r3, #0]
 389              	.LVL32:
 390              		.loc 1 62 0
 391 006a 2261     		str	r2, [r4, #16]
 392              	.LBB18:
 393              	.LBB19:
 394              		.loc 1 173 0
 395 006c 13F0010F 		tst	r3, #1
ARM GAS  C:\Users\z80\AppData\Local\Temp\ccqtrITI.s 			page 8


 396 0070 0FD0     		beq	.L19
 397              		.loc 1 174 0
 398 0072 0122     		movs	r2, #1
 399              		.loc 1 178 0
 400 0074 13F0020F 		tst	r3, #2
 401              		.loc 1 174 0
 402 0078 2261     		str	r2, [r4, #16]
 403              		.loc 1 178 0
 404 007a 0FD1     		bne	.L23
 405              	.L21:
 406              		.loc 1 181 0
 407 007c 4FF40063 		mov	r3, #2048
 408 0080 C4F20103 		movt	r3, 16385
 409 0084 0222     		movs	r2, #2
 410 0086 5A61     		str	r2, [r3, #20]
 411              	.L22:
 412              	.LBE19:
 413              	.LBE18:
 414              		.loc 1 66 0
 415 0088 0F48     		ldr	r0, .L24+28
 416 008a 1049     		ldr	r1, .L24+32
 417 008c FFF7FEFF 		bl	spiStart
 418              	.LVL33:
 419              		.loc 1 67 0
 420 0090 10BD     		pop	{r4, pc}
 421              	.LVL34:
 422              	.L19:
 423              	.LBB21:
 424              	.LBB20:
 425              		.loc 1 176 0
 426 0092 0122     		movs	r2, #1
 427              		.loc 1 178 0
 428 0094 13F0020F 		tst	r3, #2
 429              		.loc 1 176 0
 430 0098 6261     		str	r2, [r4, #20]
 431              		.loc 1 178 0
 432 009a EFD0     		beq	.L21
 433              	.L23:
 434              		.loc 1 179 0
 435 009c 4FF40063 		mov	r3, #2048
 436              	.LVL35:
 437 00a0 C4F20103 		movt	r3, 16385
 438 00a4 0222     		movs	r2, #2
 439 00a6 1A61     		str	r2, [r3, #16]
 440 00a8 EEE7     		b	.L22
 441              	.L25:
 442 00aa 00BF     		.align	2
 443              	.L24:
 444 00ac 00000000 		.word	.LANCHOR5
 445 00b0 00000000 		.word	.LANCHOR7
 446 00b4 00000000 		.word	.LANCHOR8
 447 00b8 00000000 		.word	.LANCHOR9
 448 00bc 00000000 		.word	.LANCHOR10
 449 00c0 00000000 		.word	.LANCHOR11
 450 00c4 00000000 		.word	.LANCHOR0
 451 00c8 00000000 		.word	SPID1
 452 00cc 00000000 		.word	.LANCHOR12
ARM GAS  C:\Users\z80\AppData\Local\Temp\ccqtrITI.s 			page 9


 453              	.LBE20:
 454              	.LBE21:
 455              		.cfi_endproc
 456              	.LFE62:
 457              		.size	initAdc, .-initAdc
 458              		.section	.text.queryAdcI,"ax",%progbits
 459              		.align	2
 460              		.p2align 4,,15
 461              		.global	queryAdcI
 462              		.thumb
 463              		.thumb_func
 464              		.type	queryAdcI, %function
 465              	queryAdcI:
 466              	.LFB63:
 467              		.loc 1 70 0
 468              		.cfi_startproc
 469              		@ args = 0, pretend = 0, frame = 0
 470              		@ frame_needed = 0, uses_anonymous_args = 0
 471 0000 10B5     		push	{r4, lr}
 472              	.LCFI2:
 473              		.cfi_def_cfa_offset 8
 474              		.loc 1 71 0
 475 0002 40F20004 		movw	r4, #:lower16:SPID1
 476              		.cfi_offset 14, -4
 477              		.cfi_offset 4, -8
 478 0006 C0F20004 		movt	r4, #:upper16:SPID1
 479 000a 2046     		mov	r0, r4
 480 000c FFF7FEFF 		bl	spi_lld_select
 481              		.loc 1 72 0
 482 0010 40F20002 		movw	r2, #:lower16:.LANCHOR1
 483 0014 0321     		movs	r1, #3
 484 0016 C0F20002 		movt	r2, #:upper16:.LANCHOR1
 485 001a 2046     		mov	r0, r4
 486 001c 2170     		strb	r1, [r4, #0]
 487 001e FFF7FEFF 		bl	spi_lld_receive
 488              		.loc 1 73 0
 489 0022 10BD     		pop	{r4, pc}
 490              		.cfi_endproc
 491              	.LFE63:
 492              		.size	queryAdcI, .-queryAdcI
 493 0024 AFF30080 		.section	.text.adcQueue,"ax",%progbits
 493      AFF30080 
 493      AFF30080 
 494              		.align	2
 495              		.p2align 4,,15
 496              		.global	adcQueue
 497              		.thumb
 498              		.thumb_func
 499              		.type	adcQueue, %function
 500              	adcQueue:
 501              	.LFB65:
 502              		.loc 1 167 0
 503              		.cfi_startproc
 504              		@ args = 0, pretend = 0, frame = 0
 505              		@ frame_needed = 0, uses_anonymous_args = 0
 506              		@ link register save eliminated.
 507              		.loc 1 168 0
ARM GAS  C:\Users\z80\AppData\Local\Temp\ccqtrITI.s 			page 10


 508 0000 40F20000 		movw	r0, #:lower16:.LANCHOR5
 509 0004 C0F20000 		movt	r0, #:upper16:.LANCHOR5
 510              		.loc 1 169 0
 511 0008 7047     		bx	lr
 512              		.cfi_endproc
 513              	.LFE65:
 514              		.size	adcQueue, .-adcQueue
 515 000a 00BFAFF3 		.section	.text.instantAdc,"ax",%progbits
 515      0080
 516              		.align	2
 517              		.p2align 4,,15
 518              		.global	instantAdc
 519              		.thumb
 520              		.thumb_func
 521              		.type	instantAdc, %function
 522              	instantAdc:
 523              	.LFB67:
 524              		.loc 1 202 0
 525              		.cfi_startproc
 526              		@ args = 0, pretend = 0, frame = 0
 527              		@ frame_needed = 0, uses_anonymous_args = 0
 528              	.LVL36:
 529 0000 10B5     		push	{r4, lr}
 530              	.LCFI3:
 531              		.cfi_def_cfa_offset 8
 532              		.loc 1 202 0
 533 0002 0446     		mov	r4, r0
 534              		.cfi_offset 14, -4
 535              		.cfi_offset 4, -8
 536              		.loc 1 203 0
 537 0004 90B1     		cbz	r0, .L28
 538              	.LBB22:
 539              		.loc 1 205 0
 540 0006 2023     		movs	r3, #32
 541              	.LVL37:
 542              	@ 205 "./src/adc_ctrl.c" 1
 543 0008 83F31188 		msr     BASEPRI, r3
 544              	@ 0 "" 2
 545              	.LVL38:
 546              		.thumb
 547              	.LBE22:
 548 000c FFF7FEFF 		bl	dbg_check_lock
 549              	.LVL39:
 550              		.loc 1 206 0
 551 0010 074B     		ldr	r3, .L30
 552 0012 1A68     		ldr	r2, [r3, #0]
 553 0014 2260     		str	r2, [r4, #0]
 554              		.loc 1 207 0
 555 0016 5A68     		ldr	r2, [r3, #4]
 556 0018 6260     		str	r2, [r4, #4]
 557              		.loc 1 208 0
 558 001a 9A68     		ldr	r2, [r3, #8]
 559 001c A260     		str	r2, [r4, #8]
 560              		.loc 1 209 0
 561 001e DB68     		ldr	r3, [r3, #12]
 562 0020 E360     		str	r3, [r4, #12]
 563              		.loc 1 210 0
ARM GAS  C:\Users\z80\AppData\Local\Temp\ccqtrITI.s 			page 11


 564 0022 FFF7FEFF 		bl	dbg_check_unlock
 565              	.LBB23:
 566 0026 0023     		movs	r3, #0
 567              	.LVL40:
 568              	@ 210 "./src/adc_ctrl.c" 1
 569 0028 83F31188 		msr     BASEPRI, r3
 570              	@ 0 "" 2
 571              	.LVL41:
 572              		.thumb
 573              	.L28:
 574              	.LBE23:
 575              		.loc 1 212 0
 576 002c 10BD     		pop	{r4, pc}
 577              	.L31:
 578 002e 00BF     		.align	2
 579              	.L30:
 580 0030 00000000 		.word	.LANCHOR2
 581              		.cfi_endproc
 582              	.LFE67:
 583              		.size	instantAdc, .-instantAdc
 584 0034 AFF30080 		.section	.text.setOscSignals,"ax",%progbits
 584      AFF30080 
 584      AFF30080 
 585              		.align	2
 586              		.p2align 4,,15
 587              		.global	setOscSignals
 588              		.thumb
 589              		.thumb_func
 590              		.type	setOscSignals, %function
 591              	setOscSignals:
 592              	.LFB68:
 593              		.loc 1 215 0
 594              		.cfi_startproc
 595              		@ args = 0, pretend = 0, frame = 0
 596              		@ frame_needed = 0, uses_anonymous_args = 0
 597              	.LVL42:
 598 0000 10B5     		push	{r4, lr}
 599              	.LCFI4:
 600              		.cfi_def_cfa_offset 8
 601              	.LBB24:
 602              		.loc 1 216 0
 603 0002 2023     		movs	r3, #32
 604              	.LVL43:
 605              	.LBE24:
 606              		.loc 1 215 0
 607 0004 0446     		mov	r4, r0
 608              		.cfi_offset 14, -4
 609              		.cfi_offset 4, -8
 610              	.LBB25:
 611              		.loc 1 216 0
 612              	@ 216 "./src/adc_ctrl.c" 1
 613 0006 83F31188 		msr     BASEPRI, r3
 614              	@ 0 "" 2
 615              	.LVL44:
 616              		.thumb
 617              	.LBE25:
 618 000a FFF7FEFF 		bl	dbg_check_lock
ARM GAS  C:\Users\z80\AppData\Local\Temp\ccqtrITI.s 			page 12


 619              	.LVL45:
 620              		.loc 1 217 0
 621 000e 40F20003 		movw	r3, #:lower16:.LANCHOR6
 622 0012 C0F20003 		movt	r3, #:upper16:.LANCHOR6
 623 0016 1C60     		str	r4, [r3, #0]
 624              		.loc 1 218 0
 625 0018 FFF7FEFF 		bl	dbg_check_unlock
 626              	.LBB26:
 627 001c 0023     		movs	r3, #0
 628              	.LVL46:
 629              	@ 218 "./src/adc_ctrl.c" 1
 630 001e 83F31188 		msr     BASEPRI, r3
 631              	@ 0 "" 2
 632              	.LVL47:
 633              		.thumb
 634              	.LBE26:
 635              		.loc 1 219 0
 636 0022 10BD     		pop	{r4, pc}
 637              		.cfi_endproc
 638              	.LFE68:
 639              		.size	setOscSignals, .-setOscSignals
 640 0024 AFF30080 		.section	.text.setOscPeriod,"ax",%progbits
 640      AFF30080 
 640      AFF30080 
 641              		.align	2
 642              		.p2align 4,,15
 643              		.global	setOscPeriod
 644              		.thumb
 645              		.thumb_func
 646              		.type	setOscPeriod, %function
 647              	setOscPeriod:
 648              	.LFB69:
 649              		.loc 1 222 0
 650              		.cfi_startproc
 651              		@ args = 0, pretend = 0, frame = 0
 652              		@ frame_needed = 0, uses_anonymous_args = 0
 653              	.LVL48:
 654 0000 10B5     		push	{r4, lr}
 655              	.LCFI5:
 656              		.cfi_def_cfa_offset 8
 657              	.LBB27:
 658              		.loc 1 223 0
 659 0002 2023     		movs	r3, #32
 660              	.LVL49:
 661              	.LBE27:
 662              		.loc 1 222 0
 663 0004 0446     		mov	r4, r0
 664              		.cfi_offset 14, -4
 665              		.cfi_offset 4, -8
 666              	.LBB28:
 667              		.loc 1 223 0
 668              	@ 223 "./src/adc_ctrl.c" 1
 669 0006 83F31188 		msr     BASEPRI, r3
 670              	@ 0 "" 2
 671              	.LVL50:
 672              		.thumb
 673              	.LBE28:
ARM GAS  C:\Users\z80\AppData\Local\Temp\ccqtrITI.s 			page 13


 674 000a FFF7FEFF 		bl	dbg_check_lock
 675              	.LVL51:
 676              		.loc 1 224 0
 677 000e 40F20003 		movw	r3, #:lower16:.LANCHOR4
 678 0012 C0F20003 		movt	r3, #:upper16:.LANCHOR4
 679 0016 1C60     		str	r4, [r3, #0]
 680              		.loc 1 225 0
 681 0018 FFF7FEFF 		bl	dbg_check_unlock
 682              	.LBB29:
 683 001c 0023     		movs	r3, #0
 684              	.LVL52:
 685              	@ 225 "./src/adc_ctrl.c" 1
 686 001e 83F31188 		msr     BASEPRI, r3
 687              	@ 0 "" 2
 688              	.LVL53:
 689              		.thumb
 690              	.LBE29:
 691              		.loc 1 226 0
 692 0022 10BD     		pop	{r4, pc}
 693              		.cfi_endproc
 694              	.LFE69:
 695              		.size	setOscPeriod, .-setOscPeriod
 696 0024 AFF30080 		.section	.text.sweepData,"ax",%progbits
 696      AFF30080 
 696      AFF30080 
 697              		.align	2
 698              		.p2align 4,,15
 699              		.global	sweepData
 700              		.thumb
 701              		.thumb_func
 702              		.type	sweepData, %function
 703              	sweepData:
 704              	.LFB70:
 705              		.loc 1 229 0
 706              		.cfi_startproc
 707              		@ args = 0, pretend = 0, frame = 0
 708              		@ frame_needed = 0, uses_anonymous_args = 0
 709              		@ link register save eliminated.
 710              		.loc 1 230 0
 711 0000 40F20000 		movw	r0, #:lower16:.LANCHOR8
 712 0004 C0F20000 		movt	r0, #:upper16:.LANCHOR8
 713              		.loc 1 231 0
 714 0008 7047     		bx	lr
 715              		.cfi_endproc
 716              	.LFE70:
 717              		.size	sweepData, .-sweepData
 718 000a 00BFAFF3 		.section	.text.setSweepOsc,"ax",%progbits
 718      0080
 719              		.align	2
 720              		.p2align 4,,15
 721              		.global	setSweepOsc
 722              		.thumb
 723              		.thumb_func
 724              		.type	setSweepOsc, %function
 725              	setSweepOsc:
 726              	.LFB71:
 727              		.loc 1 237 0
ARM GAS  C:\Users\z80\AppData\Local\Temp\ccqtrITI.s 			page 14


 728              		.cfi_startproc
 729              		@ args = 0, pretend = 0, frame = 0
 730              		@ frame_needed = 0, uses_anonymous_args = 0
 731              		@ link register save eliminated.
 732              	.LVL54:
 733              		.loc 1 238 0
 734 0000 40F20002 		movw	r2, #:lower16:.LANCHOR13
 735              		.loc 1 239 0
 736 0004 40F20003 		movw	r3, #:lower16:.LANCHOR14
 737              		.loc 1 238 0
 738 0008 C0F20002 		movt	r2, #:upper16:.LANCHOR13
 739              		.loc 1 239 0
 740 000c C0F20003 		movt	r3, #:upper16:.LANCHOR14
 741              		.loc 1 238 0
 742 0010 1070     		strb	r0, [r2, #0]
 743              		.loc 1 239 0
 744 0012 1960     		str	r1, [r3, #0]
 745              		.loc 1 240 0
 746 0014 7047     		bx	lr
 747              		.cfi_endproc
 748              	.LFE71:
 749              		.size	setSweepOsc, .-setSweepOsc
 750 0016 00BFAFF3 		.section	.text.setSweep,"ax",%progbits
 750      0080AFF3 
 750      0080
 751              		.align	2
 752              		.p2align 4,,15
 753              		.global	setSweep
 754              		.thumb
 755              		.thumb_func
 756              		.type	setSweep, %function
 757              	setSweep:
 758              	.LFB72:
 759              		.loc 1 247 0
 760              		.cfi_startproc
 761              		@ args = 0, pretend = 0, frame = 0
 762              		@ frame_needed = 0, uses_anonymous_args = 0
 763              	.LVL55:
 764 0000 08B5     		push	{r3, lr}
 765              	.LCFI6:
 766              		.cfi_def_cfa_offset 8
 767              		.loc 1 248 0
 768 0002 B0F800C0 		ldrh	ip, [r0, #0]
 769 0006 40F20003 		movw	r3, #:lower16:.LANCHOR15
 770              		.cfi_offset 14, -4
 771              		.cfi_offset 3, -8
 772 000a C0F20003 		movt	r3, #:upper16:.LANCHOR15
 773 000e A3F800C0 		strh	ip, [r3, #0]	@ movhi
 774              		.loc 1 249 0
 775 0012 B0F802E0 		ldrh	lr, [r0, #2]
 776 0016 A3F802E0 		strh	lr, [r3, #2]	@ movhi
 777              		.loc 1 250 0
 778 001a B0F804C0 		ldrh	ip, [r0, #4]
 779 001e A3F804C0 		strh	ip, [r3, #4]	@ movhi
 780              		.loc 1 251 0
 781 0022 C088     		ldrh	r0, [r0, #6]
 782              	.LVL56:
ARM GAS  C:\Users\z80\AppData\Local\Temp\ccqtrITI.s 			page 15


 783              		.loc 1 253 0
 784 0024 40F2000C 		movw	ip, #:lower16:.LANCHOR16
 785              		.loc 1 251 0
 786 0028 D880     		strh	r0, [r3, #6]	@ movhi
 787              		.loc 1 253 0
 788 002a B1F800E0 		ldrh	lr, [r1, #0]
 789 002e C0F2000C 		movt	ip, #:upper16:.LANCHOR16
 790 0032 ACF800E0 		strh	lr, [ip, #0]	@ movhi
 791              		.loc 1 254 0
 792 0036 4B88     		ldrh	r3, [r1, #2]
 793              		.loc 1 260 0
 794 0038 40F20000 		movw	r0, #:lower16:.LANCHOR10
 795              		.loc 1 254 0
 796 003c ACF80230 		strh	r3, [ip, #2]	@ movhi
 797              		.loc 1 255 0
 798 0040 B1F804E0 		ldrh	lr, [r1, #4]
 799              		.loc 1 258 0
 800 0044 40F20003 		movw	r3, #:lower16:.LANCHOR17
 801              		.loc 1 255 0
 802 0048 ACF804E0 		strh	lr, [ip, #4]	@ movhi
 803              		.loc 1 256 0
 804 004c C988     		ldrh	r1, [r1, #6]
 805              	.LVL57:
 806              		.loc 1 258 0
 807 004e C0F20003 		movt	r3, #:upper16:.LANCHOR17
 808              		.loc 1 256 0
 809 0052 ACF80610 		strh	r1, [ip, #6]	@ movhi
 810              		.loc 1 258 0
 811 0056 1A60     		str	r2, [r3, #0]
 812              		.loc 1 260 0
 813 0058 0121     		movs	r1, #1
 814 005a 4FF0FF32 		mov	r2, #-1
 815              	.LVL58:
 816 005e C0F20000 		movt	r0, #:upper16:.LANCHOR10
 817 0062 FFF7FEFF 		bl	chOQPutTimeout
 818              	.LVL59:
 819              		.loc 1 261 0
 820 0066 08BD     		pop	{r3, pc}
 821              		.cfi_endproc
 822              	.LFE72:
 823              		.size	setSweep, .-setSweep
 824              		.global	signalMask
 825              		.global	period
 826              		.global	elapsed
 827              		.global	adc_queue
 828              		.global	adc_queue_buffer
 829              		.global	sweep_queue
 830              		.global	sweep_queue_buffer
 831              		.global	sweepCmdQueue
 832              		.global	sweepCmdBuffer
 833              		.global	adc_rx_buffer
 834 0068 AFF30080 		.section	.bss.sweepDacsFrom,"aw",%nobits
 834      AFF30080 
 835              		.align	2
 836              		.set	.LANCHOR15,. + 0
 837              		.type	sweepDacsFrom, %object
 838              		.size	sweepDacsFrom, 8
ARM GAS  C:\Users\z80\AppData\Local\Temp\ccqtrITI.s 			page 16


 839              	sweepDacsFrom:
 840 0000 00000000 		.space	8
 840      00000000 
 841              		.section	.bss.sweep_queue_buffer,"aw",%nobits
 842              		.align	2
 843              		.set	.LANCHOR9,. + 0
 844              		.type	sweep_queue_buffer, %object
 845              		.size	sweep_queue_buffer, 320
 846              	sweep_queue_buffer:
 847 0000 00000000 		.space	320
 847      00000000 
 847      00000000 
 847      00000000 
 847      00000000 
 848              		.section	.data.sweepSigs,"aw",%progbits
 849              		.set	.LANCHOR13,. + 0
 850              		.type	sweepSigs, %object
 851              		.size	sweepSigs, 1
 852              	sweepSigs:
 853 0000 0F       		.byte	15
 854              		.section	.bss.sweepDacsTo,"aw",%nobits
 855              		.align	2
 856              		.set	.LANCHOR16,. + 0
 857              		.type	sweepDacsTo, %object
 858              		.size	sweepDacsTo, 8
 859              	sweepDacsTo:
 860 0000 00000000 		.space	8
 860      00000000 
 861              		.section	.bss.adc_queue,"aw",%nobits
 862              		.align	2
 863              		.set	.LANCHOR5,. + 0
 864              		.type	adc_queue, %object
 865              		.size	adc_queue, 32
 866              	adc_queue:
 867 0000 00000000 		.space	32
 867      00000000 
 867      00000000 
 867      00000000 
 867      00000000 
 868              		.section	.bss.sweepCmdQueue,"aw",%nobits
 869              		.align	2
 870              		.set	.LANCHOR10,. + 0
 871              		.type	sweepCmdQueue, %object
 872              		.size	sweepCmdQueue, 32
 873              	sweepCmdQueue:
 874 0000 00000000 		.space	32
 874      00000000 
 874      00000000 
 874      00000000 
 874      00000000 
 875              		.section	.data.sweepPeriod,"aw",%progbits
 876              		.align	2
 877              		.set	.LANCHOR17,. + 0
 878              		.type	sweepPeriod, %object
 879              		.size	sweepPeriod, 4
 880              	sweepPeriod:
 881 0000 00127A00 		.word	8000000
ARM GAS  C:\Users\z80\AppData\Local\Temp\ccqtrITI.s 			page 17


 882              		.section	.data.instantAdcData,"aw",%progbits
 883              		.align	2
 884              		.set	.LANCHOR2,. + 0
 885              		.type	instantAdcData, %object
 886              		.size	instantAdcData, 16
 887              	instantAdcData:
 888 0000 FFFFFFFF 		.word	-1
 889 0004 FFFFFFFF 		.word	-1
 890 0008 FFFFFFFF 		.word	-1
 891 000c FFFFFFFF 		.word	-1
 892              		.section	.data.sweepOscPeriod,"aw",%progbits
 893              		.align	2
 894              		.set	.LANCHOR14,. + 0
 895              		.type	sweepOscPeriod, %object
 896              		.size	sweepOscPeriod, 4
 897              	sweepOscPeriod:
 898 0000 401F0000 		.word	8000
 899              		.section	.bss.adc_rx_buffer,"aw",%nobits
 900              		.align	2
 901              		.set	.LANCHOR1,. + 0
 902              		.type	adc_rx_buffer, %object
 903              		.size	adc_rx_buffer, 4
 904              	adc_rx_buffer:
 905 0000 00000000 		.space	4
 906              		.section	.bss.sweepCmdBuffer,"aw",%nobits
 907              		.align	2
 908              		.set	.LANCHOR11,. + 0
 909              		.type	sweepCmdBuffer, %object
 910              		.size	sweepCmdBuffer, 2
 911              	sweepCmdBuffer:
 912 0000 0000     		.space	2
 913 0002 0000     		.section	.bss.sweep_queue,"aw",%nobits
 914              		.align	2
 915              		.set	.LANCHOR8,. + 0
 916              		.type	sweep_queue, %object
 917              		.size	sweep_queue, 32
 918              	sweep_queue:
 919 0000 00000000 		.space	32
 919      00000000 
 919      00000000 
 919      00000000 
 919      00000000 
 920              		.section	.data.signalMask,"aw",%progbits
 921              		.align	2
 922              		.set	.LANCHOR6,. + 0
 923              		.type	signalMask, %object
 924              		.size	signalMask, 4
 925              	signalMask:
 926 0000 0F000000 		.word	15
 927              		.section	.bss.adcIndex,"aw",%nobits
 928              		.align	2
 929              		.set	.LANCHOR0,. + 0
 930              		.type	adcIndex, %object
 931              		.size	adcIndex, 4
 932              	adcIndex:
 933 0000 00000000 		.space	4
 934              		.section	.data.period,"aw",%progbits
ARM GAS  C:\Users\z80\AppData\Local\Temp\ccqtrITI.s 			page 18


 935              		.align	2
 936              		.set	.LANCHOR4,. + 0
 937              		.type	period, %object
 938              		.size	period, 4
 939              	period:
 940 0000 19000000 		.word	25
 941              		.section	.rodata.hs_spicfg,"a",%progbits
 942              		.align	2
 943              		.set	.LANCHOR12,. + 0
 944              		.type	hs_spicfg, %object
 945              		.size	hs_spicfg, 12
 946              	hs_spicfg:
 947 0000 00000000 		.word	onSpiComplete
 948 0004 00080140 		.word	1073809408
 949 0008 0400     		.short	4
 950 000a 2A00     		.short	42
 951              		.section	.bss.elapsed,"aw",%nobits
 952              		.align	2
 953              		.set	.LANCHOR3,. + 0
 954              		.type	elapsed, %object
 955              		.size	elapsed, 4
 956              	elapsed:
 957 0000 00000000 		.space	4
 958              		.section	.bss.adc_queue_buffer,"aw",%nobits
 959              		.align	2
 960              		.set	.LANCHOR7,. + 0
 961              		.type	adc_queue_buffer, %object
 962              		.size	adc_queue_buffer, 320
 963              	adc_queue_buffer:
 964 0000 00000000 		.space	320
 964      00000000 
 964      00000000 
 964      00000000 
 964      00000000 
 965              		.text
 966              	.Letext0:
 967              		.section	.debug_loc,"",%progbits
 968              	.Ldebug_loc0:
 969              	.LLST0:
 970 0000 00000000 		.4byte	.LFB64
 971 0004 02000000 		.4byte	.LCFI0
 972 0008 0200     		.2byte	0x2
 973 000a 7D       		.byte	0x7d
 974 000b 00       		.sleb128 0
 975 000c 02000000 		.4byte	.LCFI0
 976 0010 80010000 		.4byte	.LFE64
 977 0014 0200     		.2byte	0x2
 978 0016 7D       		.byte	0x7d
 979 0017 18       		.sleb128 24
 980 0018 00000000 		.4byte	0x0
 981 001c 00000000 		.4byte	0x0
 982              	.LLST1:
 983 0020 00000000 		.4byte	.LVL0
 984 0024 0B000000 		.4byte	.LVL3-1
 985 0028 0100     		.2byte	0x1
 986 002a 50       		.byte	0x50
 987 002b 00000000 		.4byte	0x0
ARM GAS  C:\Users\z80\AppData\Local\Temp\ccqtrITI.s 			page 19


 988 002f 00000000 		.4byte	0x0
 989              	.LLST2:
 990 0033 10000000 		.4byte	.LVL4
 991 0037 49000000 		.4byte	.LVL7-1
 992 003b 0500     		.2byte	0x5
 993 003d 03       		.byte	0x3
 994 003e 00000000 		.4byte	adcIndex
 995 0042 49000000 		.4byte	.LVL7-1
 996 0046 68000000 		.4byte	.LVL10
 997 004a 0100     		.2byte	0x1
 998 004c 55       		.byte	0x55
 999 004d 74000000 		.4byte	.LVL13
 1000 0051 A6000000 		.4byte	.LVL16
 1001 0055 0100     		.2byte	0x1
 1002 0057 55       		.byte	0x55
 1003 0058 00000000 		.4byte	0x0
 1004 005c 00000000 		.4byte	0x0
 1005              	.LLST3:
 1006 0060 5C000000 		.4byte	.LVL8
 1007 0064 60000000 		.4byte	.LVL9
 1008 0068 0900     		.2byte	0x9
 1009 006a 73       		.byte	0x73
 1010 006b 00       		.sleb128 0
 1011 006c 31       		.byte	0x31
 1012 006d 25       		.byte	0x25
 1013 006e 0A       		.byte	0xa
 1014 006f FFFF     		.2byte	0xffff
 1015 0071 1A       		.byte	0x1a
 1016 0072 9F       		.byte	0x9f
 1017 0073 DA000000 		.4byte	.LVL17
 1018 0077 E1000000 		.4byte	.LVL18-1
 1019 007b 0500     		.2byte	0x5
 1020 007d 03       		.byte	0x3
 1021 007e 0C000000 		.4byte	instantAdcData+12
 1022 0082 E1000000 		.4byte	.LVL18-1
 1023 0086 F8000000 		.4byte	.LVL20
 1024 008a 0100     		.2byte	0x1
 1025 008c 54       		.byte	0x54
 1026 008d FA000000 		.4byte	.LVL21
 1027 0091 01010000 		.4byte	.LVL22-1
 1028 0095 0500     		.2byte	0x5
 1029 0097 03       		.byte	0x3
 1030 0098 00000000 		.4byte	instantAdcData
 1031 009c 01010000 		.4byte	.LVL22-1
 1032 00a0 1A010000 		.4byte	.LVL24
 1033 00a4 0100     		.2byte	0x1
 1034 00a6 57       		.byte	0x57
 1035 00a7 1C010000 		.4byte	.LVL25
 1036 00ab 23010000 		.4byte	.LVL26-1
 1037 00af 0500     		.2byte	0x5
 1038 00b1 03       		.byte	0x3
 1039 00b2 08000000 		.4byte	instantAdcData+8
 1040 00b6 23010000 		.4byte	.LVL26-1
 1041 00ba 3C010000 		.4byte	.LVL28
 1042 00be 0100     		.2byte	0x1
 1043 00c0 55       		.byte	0x55
 1044 00c1 3E010000 		.4byte	.LVL29
ARM GAS  C:\Users\z80\AppData\Local\Temp\ccqtrITI.s 			page 20


 1045 00c5 45010000 		.4byte	.LVL30-1
 1046 00c9 0500     		.2byte	0x5
 1047 00cb 03       		.byte	0x3
 1048 00cc 04000000 		.4byte	instantAdcData+4
 1049 00d0 45010000 		.4byte	.LVL30-1
 1050 00d4 80010000 		.4byte	.LFE64
 1051 00d8 0100     		.2byte	0x1
 1052 00da 55       		.byte	0x55
 1053 00db 00000000 		.4byte	0x0
 1054 00df 00000000 		.4byte	0x0
 1055              	.LLST4:
 1056 00e3 08000000 		.4byte	.LVL2
 1057 00e7 0B000000 		.4byte	.LVL3-1
 1058 00eb 0100     		.2byte	0x1
 1059 00ed 53       		.byte	0x53
 1060 00ee 00000000 		.4byte	0x0
 1061 00f2 00000000 		.4byte	0x0
 1062              	.LLST5:
 1063 00f6 24000000 		.4byte	.LVL5
 1064 00fa 3C000000 		.4byte	.LVL6
 1065 00fe 0100     		.2byte	0x1
 1066 0100 53       		.byte	0x53
 1067 0101 3C000000 		.4byte	.LVL6
 1068 0105 49000000 		.4byte	.LVL7-1
 1069 0109 0500     		.2byte	0x5
 1070 010b 03       		.byte	0x3
 1071 010c 00000000 		.4byte	adcIndex
 1072 0110 74000000 		.4byte	.LVL13
 1073 0114 8A000000 		.4byte	.LVL14
 1074 0118 0100     		.2byte	0x1
 1075 011a 53       		.byte	0x53
 1076 011b 8A000000 		.4byte	.LVL14
 1077 011f 94000000 		.4byte	.LVL15
 1078 0123 0500     		.2byte	0x5
 1079 0125 03       		.byte	0x3
 1080 0126 00000000 		.4byte	adcIndex
 1081 012a 00000000 		.4byte	0x0
 1082 012e 00000000 		.4byte	0x0
 1083              	.LLST6:
 1084 0132 72000000 		.4byte	.LVL12
 1085 0136 74000000 		.4byte	.LVL13
 1086 013a 0100     		.2byte	0x1
 1087 013c 53       		.byte	0x53
 1088 013d 00000000 		.4byte	0x0
 1089 0141 00000000 		.4byte	0x0
 1090              	.LLST7:
 1091 0145 DA000000 		.4byte	.LVL17
 1092 0149 E1000000 		.4byte	.LVL18-1
 1093 014d 0500     		.2byte	0x5
 1094 014f 03       		.byte	0x3
 1095 0150 0C000000 		.4byte	instantAdcData+12
 1096 0154 E1000000 		.4byte	.LVL18-1
 1097 0158 E2000000 		.4byte	.LVL18
 1098 015c 0100     		.2byte	0x1
 1099 015e 54       		.byte	0x54
 1100 015f FA000000 		.4byte	.LVL21
 1101 0163 01010000 		.4byte	.LVL22-1
ARM GAS  C:\Users\z80\AppData\Local\Temp\ccqtrITI.s 			page 21


 1102 0167 0500     		.2byte	0x5
 1103 0169 03       		.byte	0x3
 1104 016a 00000000 		.4byte	instantAdcData
 1105 016e 01010000 		.4byte	.LVL22-1
 1106 0172 02010000 		.4byte	.LVL22
 1107 0176 0100     		.2byte	0x1
 1108 0178 57       		.byte	0x57
 1109 0179 1C010000 		.4byte	.LVL25
 1110 017d 23010000 		.4byte	.LVL26-1
 1111 0181 0500     		.2byte	0x5
 1112 0183 03       		.byte	0x3
 1113 0184 08000000 		.4byte	instantAdcData+8
 1114 0188 23010000 		.4byte	.LVL26-1
 1115 018c 24010000 		.4byte	.LVL26
 1116 0190 0100     		.2byte	0x1
 1117 0192 55       		.byte	0x55
 1118 0193 3E010000 		.4byte	.LVL29
 1119 0197 45010000 		.4byte	.LVL30-1
 1120 019b 0500     		.2byte	0x5
 1121 019d 03       		.byte	0x3
 1122 019e 04000000 		.4byte	instantAdcData+4
 1123 01a2 45010000 		.4byte	.LVL30-1
 1124 01a6 46010000 		.4byte	.LVL30
 1125 01aa 0100     		.2byte	0x1
 1126 01ac 55       		.byte	0x55
 1127 01ad 00000000 		.4byte	0x0
 1128 01b1 00000000 		.4byte	0x0
 1129              	.LLST8:
 1130 01b5 00000000 		.4byte	.LFB62
 1131 01b9 02000000 		.4byte	.LCFI1
 1132 01bd 0200     		.2byte	0x2
 1133 01bf 7D       		.byte	0x7d
 1134 01c0 00       		.sleb128 0
 1135 01c1 02000000 		.4byte	.LCFI1
 1136 01c5 D0000000 		.4byte	.LFE62
 1137 01c9 0200     		.2byte	0x2
 1138 01cb 7D       		.byte	0x7d
 1139 01cc 08       		.sleb128 8
 1140 01cd 00000000 		.4byte	0x0
 1141 01d1 00000000 		.4byte	0x0
 1142              	.LLST9:
 1143 01d5 6A000000 		.4byte	.LVL32
 1144 01d9 8F000000 		.4byte	.LVL33-1
 1145 01dd 0500     		.2byte	0x5
 1146 01df 03       		.byte	0x3
 1147 01e0 00000000 		.4byte	adcIndex
 1148 01e4 92000000 		.4byte	.LVL34
 1149 01e8 A0000000 		.4byte	.LVL35
 1150 01ec 0100     		.2byte	0x1
 1151 01ee 53       		.byte	0x53
 1152 01ef A0000000 		.4byte	.LVL35
 1153 01f3 D0000000 		.4byte	.LFE62
 1154 01f7 0500     		.2byte	0x5
 1155 01f9 03       		.byte	0x3
 1156 01fa 00000000 		.4byte	adcIndex
 1157 01fe 00000000 		.4byte	0x0
 1158 0202 00000000 		.4byte	0x0
ARM GAS  C:\Users\z80\AppData\Local\Temp\ccqtrITI.s 			page 22


 1159              	.LLST10:
 1160 0206 00000000 		.4byte	.LFB63
 1161 020a 02000000 		.4byte	.LCFI2
 1162 020e 0200     		.2byte	0x2
 1163 0210 7D       		.byte	0x7d
 1164 0211 00       		.sleb128 0
 1165 0212 02000000 		.4byte	.LCFI2
 1166 0216 24000000 		.4byte	.LFE63
 1167 021a 0200     		.2byte	0x2
 1168 021c 7D       		.byte	0x7d
 1169 021d 08       		.sleb128 8
 1170 021e 00000000 		.4byte	0x0
 1171 0222 00000000 		.4byte	0x0
 1172              	.LLST11:
 1173 0226 00000000 		.4byte	.LFB67
 1174 022a 02000000 		.4byte	.LCFI3
 1175 022e 0200     		.2byte	0x2
 1176 0230 7D       		.byte	0x7d
 1177 0231 00       		.sleb128 0
 1178 0232 02000000 		.4byte	.LCFI3
 1179 0236 34000000 		.4byte	.LFE67
 1180 023a 0200     		.2byte	0x2
 1181 023c 7D       		.byte	0x7d
 1182 023d 08       		.sleb128 8
 1183 023e 00000000 		.4byte	0x0
 1184 0242 00000000 		.4byte	0x0
 1185              	.LLST12:
 1186 0246 00000000 		.4byte	.LVL36
 1187 024a 0F000000 		.4byte	.LVL39-1
 1188 024e 0100     		.2byte	0x1
 1189 0250 50       		.byte	0x50
 1190 0251 0F000000 		.4byte	.LVL39-1
 1191 0255 34000000 		.4byte	.LFE67
 1192 0259 0100     		.2byte	0x1
 1193 025b 54       		.byte	0x54
 1194 025c 00000000 		.4byte	0x0
 1195 0260 00000000 		.4byte	0x0
 1196              	.LLST13:
 1197 0264 0C000000 		.4byte	.LVL38
 1198 0268 0F000000 		.4byte	.LVL39-1
 1199 026c 0100     		.2byte	0x1
 1200 026e 53       		.byte	0x53
 1201 026f 00000000 		.4byte	0x0
 1202 0273 00000000 		.4byte	0x0
 1203              	.LLST14:
 1204 0277 2C000000 		.4byte	.LVL41
 1205 027b 34000000 		.4byte	.LFE67
 1206 027f 0100     		.2byte	0x1
 1207 0281 53       		.byte	0x53
 1208 0282 00000000 		.4byte	0x0
 1209 0286 00000000 		.4byte	0x0
 1210              	.LLST15:
 1211 028a 00000000 		.4byte	.LFB68
 1212 028e 02000000 		.4byte	.LCFI4
 1213 0292 0200     		.2byte	0x2
 1214 0294 7D       		.byte	0x7d
 1215 0295 00       		.sleb128 0
ARM GAS  C:\Users\z80\AppData\Local\Temp\ccqtrITI.s 			page 23


 1216 0296 02000000 		.4byte	.LCFI4
 1217 029a 24000000 		.4byte	.LFE68
 1218 029e 0200     		.2byte	0x2
 1219 02a0 7D       		.byte	0x7d
 1220 02a1 08       		.sleb128 8
 1221 02a2 00000000 		.4byte	0x0
 1222 02a6 00000000 		.4byte	0x0
 1223              	.LLST16:
 1224 02aa 00000000 		.4byte	.LVL42
 1225 02ae 0D000000 		.4byte	.LVL45-1
 1226 02b2 0100     		.2byte	0x1
 1227 02b4 50       		.byte	0x50
 1228 02b5 0D000000 		.4byte	.LVL45-1
 1229 02b9 24000000 		.4byte	.LFE68
 1230 02bd 0100     		.2byte	0x1
 1231 02bf 54       		.byte	0x54
 1232 02c0 00000000 		.4byte	0x0
 1233 02c4 00000000 		.4byte	0x0
 1234              	.LLST17:
 1235 02c8 0A000000 		.4byte	.LVL44
 1236 02cc 0D000000 		.4byte	.LVL45-1
 1237 02d0 0100     		.2byte	0x1
 1238 02d2 53       		.byte	0x53
 1239 02d3 00000000 		.4byte	0x0
 1240 02d7 00000000 		.4byte	0x0
 1241              	.LLST18:
 1242 02db 22000000 		.4byte	.LVL47
 1243 02df 24000000 		.4byte	.LFE68
 1244 02e3 0100     		.2byte	0x1
 1245 02e5 53       		.byte	0x53
 1246 02e6 00000000 		.4byte	0x0
 1247 02ea 00000000 		.4byte	0x0
 1248              	.LLST19:
 1249 02ee 00000000 		.4byte	.LFB69
 1250 02f2 02000000 		.4byte	.LCFI5
 1251 02f6 0200     		.2byte	0x2
 1252 02f8 7D       		.byte	0x7d
 1253 02f9 00       		.sleb128 0
 1254 02fa 02000000 		.4byte	.LCFI5
 1255 02fe 24000000 		.4byte	.LFE69
 1256 0302 0200     		.2byte	0x2
 1257 0304 7D       		.byte	0x7d
 1258 0305 08       		.sleb128 8
 1259 0306 00000000 		.4byte	0x0
 1260 030a 00000000 		.4byte	0x0
 1261              	.LLST20:
 1262 030e 00000000 		.4byte	.LVL48
 1263 0312 0D000000 		.4byte	.LVL51-1
 1264 0316 0100     		.2byte	0x1
 1265 0318 50       		.byte	0x50
 1266 0319 0D000000 		.4byte	.LVL51-1
 1267 031d 24000000 		.4byte	.LFE69
 1268 0321 0100     		.2byte	0x1
 1269 0323 54       		.byte	0x54
 1270 0324 00000000 		.4byte	0x0
 1271 0328 00000000 		.4byte	0x0
 1272              	.LLST21:
ARM GAS  C:\Users\z80\AppData\Local\Temp\ccqtrITI.s 			page 24


 1273 032c 0A000000 		.4byte	.LVL50
 1274 0330 0D000000 		.4byte	.LVL51-1
 1275 0334 0100     		.2byte	0x1
 1276 0336 53       		.byte	0x53
 1277 0337 00000000 		.4byte	0x0
 1278 033b 00000000 		.4byte	0x0
 1279              	.LLST22:
 1280 033f 22000000 		.4byte	.LVL53
 1281 0343 24000000 		.4byte	.LFE69
 1282 0347 0100     		.2byte	0x1
 1283 0349 53       		.byte	0x53
 1284 034a 00000000 		.4byte	0x0
 1285 034e 00000000 		.4byte	0x0
 1286              	.LLST23:
 1287 0352 00000000 		.4byte	.LFB72
 1288 0356 02000000 		.4byte	.LCFI6
 1289 035a 0200     		.2byte	0x2
 1290 035c 7D       		.byte	0x7d
 1291 035d 00       		.sleb128 0
 1292 035e 02000000 		.4byte	.LCFI6
 1293 0362 68000000 		.4byte	.LFE72
 1294 0366 0200     		.2byte	0x2
 1295 0368 7D       		.byte	0x7d
 1296 0369 08       		.sleb128 8
 1297 036a 00000000 		.4byte	0x0
 1298 036e 00000000 		.4byte	0x0
 1299              	.LLST24:
 1300 0372 00000000 		.4byte	.LVL55
 1301 0376 24000000 		.4byte	.LVL56
 1302 037a 0100     		.2byte	0x1
 1303 037c 50       		.byte	0x50
 1304 037d 00000000 		.4byte	0x0
 1305 0381 00000000 		.4byte	0x0
 1306              	.LLST25:
 1307 0385 00000000 		.4byte	.LVL55
 1308 0389 4E000000 		.4byte	.LVL57
 1309 038d 0100     		.2byte	0x1
 1310 038f 51       		.byte	0x51
 1311 0390 00000000 		.4byte	0x0
 1312 0394 00000000 		.4byte	0x0
 1313              	.LLST26:
 1314 0398 00000000 		.4byte	.LVL55
 1315 039c 5E000000 		.4byte	.LVL58
 1316 03a0 0100     		.2byte	0x1
 1317 03a2 52       		.byte	0x52
 1318 03a3 5E000000 		.4byte	.LVL58
 1319 03a7 65000000 		.4byte	.LVL59-1
 1320 03ab 0500     		.2byte	0x5
 1321 03ad 03       		.byte	0x3
 1322 03ae 00000000 		.4byte	sweepPeriod
 1323 03b2 00000000 		.4byte	0x0
 1324 03b6 00000000 		.4byte	0x0
 1325              		.file 2 "c:\\programs\\yagarto\\bin\\../lib/gcc/arm-none-eabi/4.5.0/include/stddef.h"
 1326              		.file 3 "c:/programs/yagarto/lib/gcc/../../arm-none-eabi/sys-include/stdint.h"
 1327              		.file 4 "../chibios_2.4.x/os/ports/GCC/ARMCMx/chtypes.h"
 1328              		.file 5 "../chibios_2.4.x/os/kernel/include/chlists.h"
 1329              		.file 6 "../chibios_2.4.x/os/kernel/include/chthreads.h"
ARM GAS  C:\Users\z80\AppData\Local\Temp\ccqtrITI.s 			page 25


 1330              		.file 7 "../chibios_2.4.x/os/ports/GCC/ARMCMx/chcore_v7m.h"
 1331              		.file 8 "../chibios_2.4.x/os/kernel/include/chmtx.h"
 1332              		.file 9 "../chibios_2.4.x/os/kernel/include/chqueues.h"
 1333              		.file 10 "../chibios_2.4.x/os/hal/platforms/STM32F1xx/stm32f10x.h"
 1334              		.file 11 "../chibios_2.4.x/os/hal/platforms/STM32F1xx/stm32_dma.h"
 1335              		.file 12 "../chibios_2.4.x/os/hal/platforms/STM32/GPIOv1/pal_lld.h"
 1336              		.file 13 "../chibios_2.4.x/os/hal/include/spi.h"
 1337              		.file 14 "../chibios_2.4.x/os/hal/platforms/STM32/spi_lld.h"
 1338              		.file 15 "../chibios_2.4.x/os/ports/common/ARMCMx/CMSIS/include/core_cm3.h"
 1339              		.section	.debug_info
 1340 0000 770D0000 		.4byte	0xd77
 1341 0004 0200     		.2byte	0x2
 1342 0006 00000000 		.4byte	.Ldebug_abbrev0
 1343 000a 04       		.byte	0x4
 1344 000b 01       		.uleb128 0x1
 1345 000c CE050000 		.4byte	.LASF149
 1346 0010 01       		.byte	0x1
 1347 0011 0E010000 		.4byte	.LASF150
 1348 0015 68010000 		.4byte	.LASF151
 1349 0019 00000000 		.4byte	0x0
 1350 001d 00000000 		.4byte	0x0
 1351 0021 68000000 		.4byte	.Ldebug_ranges0+0x68
 1352 0025 00000000 		.4byte	.Ldebug_line0
 1353 0029 02       		.uleb128 0x2
 1354 002a 04       		.byte	0x4
 1355 002b 05       		.byte	0x5
 1356 002c 696E7400 		.ascii	"int\000"
 1357 0030 03       		.uleb128 0x3
 1358 0031 06000000 		.4byte	.LASF2
 1359 0035 02       		.byte	0x2
 1360 0036 D3       		.byte	0xd3
 1361 0037 3B000000 		.4byte	0x3b
 1362 003b 04       		.uleb128 0x4
 1363 003c 04       		.byte	0x4
 1364 003d 07       		.byte	0x7
 1365 003e 55020000 		.4byte	.LASF0
 1366 0042 04       		.uleb128 0x4
 1367 0043 01       		.byte	0x1
 1368 0044 06       		.byte	0x6
 1369 0045 02010000 		.4byte	.LASF1
 1370 0049 03       		.uleb128 0x3
 1371 004a C1050000 		.4byte	.LASF3
 1372 004e 03       		.byte	0x3
 1373 004f 2A       		.byte	0x2a
 1374 0050 54000000 		.4byte	0x54
 1375 0054 04       		.uleb128 0x4
 1376 0055 01       		.byte	0x1
 1377 0056 08       		.byte	0x8
 1378 0057 1F040000 		.4byte	.LASF4
 1379 005b 04       		.uleb128 0x4
 1380 005c 02       		.byte	0x2
 1381 005d 05       		.byte	0x5
 1382 005e 63040000 		.4byte	.LASF5
 1383 0062 03       		.uleb128 0x3
 1384 0063 6E020000 		.4byte	.LASF6
 1385 0067 03       		.byte	0x3
 1386 0068 36       		.byte	0x36
ARM GAS  C:\Users\z80\AppData\Local\Temp\ccqtrITI.s 			page 26


 1387 0069 6D000000 		.4byte	0x6d
 1388 006d 04       		.uleb128 0x4
 1389 006e 02       		.byte	0x2
 1390 006f 07       		.byte	0x7
 1391 0070 A0020000 		.4byte	.LASF7
 1392 0074 03       		.uleb128 0x3
 1393 0075 17040000 		.4byte	.LASF8
 1394 0079 03       		.byte	0x3
 1395 007a 4F       		.byte	0x4f
 1396 007b 7F000000 		.4byte	0x7f
 1397 007f 04       		.uleb128 0x4
 1398 0080 04       		.byte	0x4
 1399 0081 05       		.byte	0x5
 1400 0082 A4010000 		.4byte	.LASF9
 1401 0086 03       		.uleb128 0x3
 1402 0087 D8040000 		.4byte	.LASF10
 1403 008b 03       		.byte	0x3
 1404 008c 50       		.byte	0x50
 1405 008d 91000000 		.4byte	0x91
 1406 0091 04       		.uleb128 0x4
 1407 0092 04       		.byte	0x4
 1408 0093 07       		.byte	0x7
 1409 0094 F7040000 		.4byte	.LASF11
 1410 0098 04       		.uleb128 0x4
 1411 0099 08       		.byte	0x8
 1412 009a 05       		.byte	0x5
 1413 009b F4000000 		.4byte	.LASF12
 1414 009f 03       		.uleb128 0x3
 1415 00a0 3D030000 		.4byte	.LASF13
 1416 00a4 03       		.byte	0x3
 1417 00a5 78       		.byte	0x78
 1418 00a6 AA000000 		.4byte	0xaa
 1419 00aa 04       		.uleb128 0x4
 1420 00ab 08       		.byte	0x8
 1421 00ac 07       		.byte	0x7
 1422 00ad 30010000 		.4byte	.LASF14
 1423 00b1 03       		.uleb128 0x3
 1424 00b2 C3020000 		.4byte	.LASF15
 1425 00b6 04       		.byte	0x4
 1426 00b7 2F       		.byte	0x2f
 1427 00b8 49000000 		.4byte	0x49
 1428 00bc 03       		.uleb128 0x3
 1429 00bd AD010000 		.4byte	.LASF16
 1430 00c1 04       		.byte	0x4
 1431 00c2 30       		.byte	0x30
 1432 00c3 49000000 		.4byte	0x49
 1433 00c7 03       		.uleb128 0x3
 1434 00c8 F8030000 		.4byte	.LASF17
 1435 00cc 04       		.byte	0x4
 1436 00cd 32       		.byte	0x32
 1437 00ce 86000000 		.4byte	0x86
 1438 00d2 03       		.uleb128 0x3
 1439 00d3 B3020000 		.4byte	.LASF18
 1440 00d7 04       		.byte	0x4
 1441 00d8 33       		.byte	0x33
 1442 00d9 74000000 		.4byte	0x74
 1443 00dd 03       		.uleb128 0x3
ARM GAS  C:\Users\z80\AppData\Local\Temp\ccqtrITI.s 			page 27


 1444 00de D5020000 		.4byte	.LASF19
 1445 00e2 04       		.byte	0x4
 1446 00e3 35       		.byte	0x35
 1447 00e4 86000000 		.4byte	0x86
 1448 00e8 03       		.uleb128 0x3
 1449 00e9 4D050000 		.4byte	.LASF20
 1450 00ed 04       		.byte	0x4
 1451 00ee 36       		.byte	0x36
 1452 00ef 86000000 		.4byte	0x86
 1453 00f3 03       		.uleb128 0x3
 1454 00f4 18030000 		.4byte	.LASF21
 1455 00f8 05       		.byte	0x5
 1456 00f9 2A       		.byte	0x2a
 1457 00fa FE000000 		.4byte	0xfe
 1458 00fe 05       		.uleb128 0x5
 1459 00ff 18030000 		.4byte	.LASF21
 1460 0103 48       		.byte	0x48
 1461 0104 06       		.byte	0x6
 1462 0105 5E       		.byte	0x5e
 1463 0106 07020000 		.4byte	0x207
 1464 010a 06       		.uleb128 0x6
 1465 010b 8B040000 		.4byte	.LASF22
 1466 010f 06       		.byte	0x6
 1467 0110 5F       		.byte	0x5f
 1468 0111 2C020000 		.4byte	0x22c
 1469 0115 02       		.byte	0x2
 1470 0116 23       		.byte	0x23
 1471 0117 00       		.uleb128 0x0
 1472 0118 06       		.uleb128 0x6
 1473 0119 D3030000 		.4byte	.LASF23
 1474 011d 06       		.byte	0x6
 1475 011e 61       		.byte	0x61
 1476 011f 2C020000 		.4byte	0x22c
 1477 0123 02       		.byte	0x2
 1478 0124 23       		.byte	0x23
 1479 0125 04       		.uleb128 0x4
 1480 0126 06       		.uleb128 0x6
 1481 0127 DA000000 		.4byte	.LASF24
 1482 012b 06       		.byte	0x6
 1483 012c 63       		.byte	0x63
 1484 012d C7000000 		.4byte	0xc7
 1485 0131 02       		.byte	0x2
 1486 0132 23       		.byte	0x23
 1487 0133 08       		.uleb128 0x8
 1488 0134 06       		.uleb128 0x6
 1489 0135 00060000 		.4byte	.LASF25
 1490 0139 06       		.byte	0x6
 1491 013a 64       		.byte	0x64
 1492 013b 04030000 		.4byte	0x304
 1493 013f 02       		.byte	0x2
 1494 0140 23       		.byte	0x23
 1495 0141 0C       		.uleb128 0xc
 1496 0142 06       		.uleb128 0x6
 1497 0143 E4010000 		.4byte	.LASF26
 1498 0147 06       		.byte	0x6
 1499 0148 66       		.byte	0x66
 1500 0149 2C020000 		.4byte	0x22c
ARM GAS  C:\Users\z80\AppData\Local\Temp\ccqtrITI.s 			page 28


 1501 014d 02       		.byte	0x2
 1502 014e 23       		.byte	0x23
 1503 014f 10       		.uleb128 0x10
 1504 0150 06       		.uleb128 0x6
 1505 0151 46030000 		.4byte	.LASF27
 1506 0155 06       		.byte	0x6
 1507 0156 67       		.byte	0x67
 1508 0157 2C020000 		.4byte	0x22c
 1509 015b 02       		.byte	0x2
 1510 015c 23       		.byte	0x23
 1511 015d 14       		.uleb128 0x14
 1512 015e 06       		.uleb128 0x6
 1513 015f E1050000 		.4byte	.LASF28
 1514 0163 06       		.byte	0x6
 1515 0164 6E       		.byte	0x6e
 1516 0165 B1030000 		.4byte	0x3b1
 1517 0169 02       		.byte	0x2
 1518 016a 23       		.byte	0x23
 1519 016b 18       		.uleb128 0x18
 1520 016c 06       		.uleb128 0x6
 1521 016d 4A020000 		.4byte	.LASF29
 1522 0171 06       		.byte	0x6
 1523 0172 74       		.byte	0x74
 1524 0173 C3030000 		.4byte	0x3c3
 1525 0177 02       		.byte	0x2
 1526 0178 23       		.byte	0x23
 1527 0179 1C       		.uleb128 0x1c
 1528 017a 06       		.uleb128 0x6
 1529 017b 6D040000 		.4byte	.LASF30
 1530 017f 06       		.byte	0x6
 1531 0180 79       		.byte	0x79
 1532 0181 BC000000 		.4byte	0xbc
 1533 0185 02       		.byte	0x2
 1534 0186 23       		.byte	0x23
 1535 0187 20       		.uleb128 0x20
 1536 0188 06       		.uleb128 0x6
 1537 0189 92040000 		.4byte	.LASF31
 1538 018d 06       		.byte	0x6
 1539 018e 7D       		.byte	0x7d
 1540 018f B1000000 		.4byte	0xb1
 1541 0193 02       		.byte	0x2
 1542 0194 23       		.byte	0x23
 1543 0195 21       		.uleb128 0x21
 1544 0196 06       		.uleb128 0x6
 1545 0197 DD010000 		.4byte	.LASF32
 1546 019b 06       		.byte	0x6
 1547 019c 89       		.byte	0x89
 1548 019d 2F030000 		.4byte	0x32f
 1549 01a1 02       		.byte	0x2
 1550 01a2 23       		.byte	0x23
 1551 01a3 24       		.uleb128 0x24
 1552 01a4 07       		.uleb128 0x7
 1553 01a5 705F7500 		.ascii	"p_u\000"
 1554 01a9 06       		.byte	0x6
 1555 01aa AE       		.byte	0xae
 1556 01ab 7C030000 		.4byte	0x37c
 1557 01af 02       		.byte	0x2
ARM GAS  C:\Users\z80\AppData\Local\Temp\ccqtrITI.s 			page 29


 1558 01b0 23       		.byte	0x23
 1559 01b1 28       		.uleb128 0x28
 1560 01b2 06       		.uleb128 0x6
 1561 01b3 06060000 		.4byte	.LASF33
 1562 01b7 06       		.byte	0x6
 1563 01b8 B3       		.byte	0xb3
 1564 01b9 54020000 		.4byte	0x254
 1565 01bd 02       		.byte	0x2
 1566 01be 23       		.byte	0x23
 1567 01bf 2C       		.uleb128 0x2c
 1568 01c0 06       		.uleb128 0x6
 1569 01c1 7C020000 		.4byte	.LASF34
 1570 01c5 06       		.byte	0x6
 1571 01c6 B9       		.byte	0xb9
 1572 01c7 32020000 		.4byte	0x232
 1573 01cb 02       		.byte	0x2
 1574 01cc 23       		.byte	0x23
 1575 01cd 30       		.uleb128 0x30
 1576 01ce 06       		.uleb128 0x6
 1577 01cf F2050000 		.4byte	.LASF35
 1578 01d3 06       		.byte	0x6
 1579 01d4 BD       		.byte	0xbd
 1580 01d5 D2000000 		.4byte	0xd2
 1581 01d9 02       		.byte	0x2
 1582 01da 23       		.byte	0x23
 1583 01db 38       		.uleb128 0x38
 1584 01dc 06       		.uleb128 0x6
 1585 01dd BE040000 		.4byte	.LASF36
 1586 01e1 06       		.byte	0x6
 1587 01e2 C3       		.byte	0xc3
 1588 01e3 DD000000 		.4byte	0xdd
 1589 01e7 02       		.byte	0x2
 1590 01e8 23       		.byte	0x23
 1591 01e9 3C       		.uleb128 0x3c
 1592 01ea 06       		.uleb128 0x6
 1593 01eb 59040000 		.4byte	.LASF37
 1594 01ef 06       		.byte	0x6
 1595 01f0 CA       		.byte	0xca
 1596 01f1 C9030000 		.4byte	0x3c9
 1597 01f5 02       		.byte	0x2
 1598 01f6 23       		.byte	0x23
 1599 01f7 40       		.uleb128 0x40
 1600 01f8 06       		.uleb128 0x6
 1601 01f9 57050000 		.4byte	.LASF38
 1602 01fd 06       		.byte	0x6
 1603 01fe CE       		.byte	0xce
 1604 01ff C7000000 		.4byte	0xc7
 1605 0203 02       		.byte	0x2
 1606 0204 23       		.byte	0x23
 1607 0205 44       		.uleb128 0x44
 1608 0206 00       		.byte	0x0
 1609 0207 08       		.uleb128 0x8
 1610 0208 08       		.byte	0x8
 1611 0209 05       		.byte	0x5
 1612 020a 61       		.byte	0x61
 1613 020b 2C020000 		.4byte	0x22c
 1614 020f 06       		.uleb128 0x6
ARM GAS  C:\Users\z80\AppData\Local\Temp\ccqtrITI.s 			page 30


 1615 0210 8B040000 		.4byte	.LASF22
 1616 0214 05       		.byte	0x5
 1617 0215 62       		.byte	0x62
 1618 0216 2C020000 		.4byte	0x22c
 1619 021a 02       		.byte	0x2
 1620 021b 23       		.byte	0x23
 1621 021c 00       		.uleb128 0x0
 1622 021d 06       		.uleb128 0x6
 1623 021e D3030000 		.4byte	.LASF23
 1624 0222 05       		.byte	0x5
 1625 0223 64       		.byte	0x64
 1626 0224 2C020000 		.4byte	0x22c
 1627 0228 02       		.byte	0x2
 1628 0229 23       		.byte	0x23
 1629 022a 04       		.uleb128 0x4
 1630 022b 00       		.byte	0x0
 1631 022c 09       		.uleb128 0x9
 1632 022d 04       		.byte	0x4
 1633 022e F3000000 		.4byte	0xf3
 1634 0232 03       		.uleb128 0x3
 1635 0233 4E030000 		.4byte	.LASF39
 1636 0237 05       		.byte	0x5
 1637 0238 66       		.byte	0x66
 1638 0239 07020000 		.4byte	0x207
 1639 023d 08       		.uleb128 0x8
 1640 023e 04       		.byte	0x4
 1641 023f 05       		.byte	0x5
 1642 0240 6B       		.byte	0x6b
 1643 0241 54020000 		.4byte	0x254
 1644 0245 06       		.uleb128 0x6
 1645 0246 8B040000 		.4byte	.LASF22
 1646 024a 05       		.byte	0x5
 1647 024b 6D       		.byte	0x6d
 1648 024c 2C020000 		.4byte	0x22c
 1649 0250 02       		.byte	0x2
 1650 0251 23       		.byte	0x23
 1651 0252 00       		.uleb128 0x0
 1652 0253 00       		.byte	0x0
 1653 0254 03       		.uleb128 0x3
 1654 0255 0D000000 		.4byte	.LASF40
 1655 0259 05       		.byte	0x5
 1656 025a 70       		.byte	0x70
 1657 025b 3D020000 		.4byte	0x23d
 1658 025f 03       		.uleb128 0x3
 1659 0260 0B020000 		.4byte	.LASF41
 1660 0264 07       		.byte	0x7
 1661 0265 D7       		.byte	0xd7
 1662 0266 6A020000 		.4byte	0x26a
 1663 026a 0A       		.uleb128 0xa
 1664 026b 04       		.byte	0x4
 1665 026c 03       		.uleb128 0x3
 1666 026d 08030000 		.4byte	.LASF42
 1667 0271 07       		.byte	0x7
 1668 0272 DD       		.byte	0xdd
 1669 0273 9F000000 		.4byte	0x9f
 1670 0277 05       		.uleb128 0x5
 1671 0278 75050000 		.4byte	.LASF43
ARM GAS  C:\Users\z80\AppData\Local\Temp\ccqtrITI.s 			page 31


 1672 027c 24       		.byte	0x24
 1673 027d 07       		.byte	0x7
 1674 027e FE       		.byte	0xfe
 1675 027f 04030000 		.4byte	0x304
 1676 0283 0B       		.uleb128 0xb
 1677 0284 723400   		.ascii	"r4\000"
 1678 0287 07       		.byte	0x7
 1679 0288 1101     		.2byte	0x111
 1680 028a 5F020000 		.4byte	0x25f
 1681 028e 02       		.byte	0x2
 1682 028f 23       		.byte	0x23
 1683 0290 00       		.uleb128 0x0
 1684 0291 0B       		.uleb128 0xb
 1685 0292 723500   		.ascii	"r5\000"
 1686 0295 07       		.byte	0x7
 1687 0296 1201     		.2byte	0x112
 1688 0298 5F020000 		.4byte	0x25f
 1689 029c 02       		.byte	0x2
 1690 029d 23       		.byte	0x23
 1691 029e 04       		.uleb128 0x4
 1692 029f 0B       		.uleb128 0xb
 1693 02a0 723600   		.ascii	"r6\000"
 1694 02a3 07       		.byte	0x7
 1695 02a4 1301     		.2byte	0x113
 1696 02a6 5F020000 		.4byte	0x25f
 1697 02aa 02       		.byte	0x2
 1698 02ab 23       		.byte	0x23
 1699 02ac 08       		.uleb128 0x8
 1700 02ad 0B       		.uleb128 0xb
 1701 02ae 723700   		.ascii	"r7\000"
 1702 02b1 07       		.byte	0x7
 1703 02b2 1401     		.2byte	0x114
 1704 02b4 5F020000 		.4byte	0x25f
 1705 02b8 02       		.byte	0x2
 1706 02b9 23       		.byte	0x23
 1707 02ba 0C       		.uleb128 0xc
 1708 02bb 0B       		.uleb128 0xb
 1709 02bc 723800   		.ascii	"r8\000"
 1710 02bf 07       		.byte	0x7
 1711 02c0 1501     		.2byte	0x115
 1712 02c2 5F020000 		.4byte	0x25f
 1713 02c6 02       		.byte	0x2
 1714 02c7 23       		.byte	0x23
 1715 02c8 10       		.uleb128 0x10
 1716 02c9 0B       		.uleb128 0xb
 1717 02ca 723900   		.ascii	"r9\000"
 1718 02cd 07       		.byte	0x7
 1719 02ce 1601     		.2byte	0x116
 1720 02d0 5F020000 		.4byte	0x25f
 1721 02d4 02       		.byte	0x2
 1722 02d5 23       		.byte	0x23
 1723 02d6 14       		.uleb128 0x14
 1724 02d7 0B       		.uleb128 0xb
 1725 02d8 72313000 		.ascii	"r10\000"
 1726 02dc 07       		.byte	0x7
 1727 02dd 1701     		.2byte	0x117
 1728 02df 5F020000 		.4byte	0x25f
ARM GAS  C:\Users\z80\AppData\Local\Temp\ccqtrITI.s 			page 32


 1729 02e3 02       		.byte	0x2
 1730 02e4 23       		.byte	0x23
 1731 02e5 18       		.uleb128 0x18
 1732 02e6 0B       		.uleb128 0xb
 1733 02e7 72313100 		.ascii	"r11\000"
 1734 02eb 07       		.byte	0x7
 1735 02ec 1801     		.2byte	0x118
 1736 02ee 5F020000 		.4byte	0x25f
 1737 02f2 02       		.byte	0x2
 1738 02f3 23       		.byte	0x23
 1739 02f4 1C       		.uleb128 0x1c
 1740 02f5 0B       		.uleb128 0xb
 1741 02f6 6C7200   		.ascii	"lr\000"
 1742 02f9 07       		.byte	0x7
 1743 02fa 1901     		.2byte	0x119
 1744 02fc 5F020000 		.4byte	0x25f
 1745 0300 02       		.byte	0x2
 1746 0301 23       		.byte	0x23
 1747 0302 20       		.uleb128 0x20
 1748 0303 00       		.byte	0x0
 1749 0304 0C       		.uleb128 0xc
 1750 0305 6D050000 		.4byte	.LASF44
 1751 0309 04       		.byte	0x4
 1752 030a 07       		.byte	0x7
 1753 030b 2301     		.2byte	0x123
 1754 030d 21030000 		.4byte	0x321
 1755 0311 0B       		.uleb128 0xb
 1756 0312 72313300 		.ascii	"r13\000"
 1757 0316 07       		.byte	0x7
 1758 0317 2401     		.2byte	0x124
 1759 0319 21030000 		.4byte	0x321
 1760 031d 02       		.byte	0x2
 1761 031e 23       		.byte	0x23
 1762 031f 00       		.uleb128 0x0
 1763 0320 00       		.byte	0x0
 1764 0321 09       		.uleb128 0x9
 1765 0322 04       		.byte	0x4
 1766 0323 77020000 		.4byte	0x277
 1767 0327 0D       		.uleb128 0xd
 1768 0328 86000000 		.4byte	0x86
 1769 032c 0E       		.uleb128 0xe
 1770 032d 04       		.byte	0x4
 1771 032e 07       		.byte	0x7
 1772 032f 0D       		.uleb128 0xd
 1773 0330 E8000000 		.4byte	0xe8
 1774 0334 05       		.uleb128 0x5
 1775 0335 37030000 		.4byte	.LASF45
 1776 0339 10       		.byte	0x10
 1777 033a 08       		.byte	0x8
 1778 033b 2C       		.byte	0x2c
 1779 033c 6B030000 		.4byte	0x36b
 1780 0340 06       		.uleb128 0x6
 1781 0341 47010000 		.4byte	.LASF46
 1782 0345 08       		.byte	0x8
 1783 0346 2D       		.byte	0x2d
 1784 0347 32020000 		.4byte	0x232
 1785 034b 02       		.byte	0x2
ARM GAS  C:\Users\z80\AppData\Local\Temp\ccqtrITI.s 			page 33


 1786 034c 23       		.byte	0x23
 1787 034d 00       		.uleb128 0x0
 1788 034e 06       		.uleb128 0x6
 1789 034f F8050000 		.4byte	.LASF47
 1790 0353 08       		.byte	0x8
 1791 0354 2F       		.byte	0x2f
 1792 0355 2C020000 		.4byte	0x22c
 1793 0359 02       		.byte	0x2
 1794 035a 23       		.byte	0x23
 1795 035b 08       		.uleb128 0x8
 1796 035c 06       		.uleb128 0x6
 1797 035d 46050000 		.4byte	.LASF48
 1798 0361 08       		.byte	0x8
 1799 0362 31       		.byte	0x31
 1800 0363 6B030000 		.4byte	0x36b
 1801 0367 02       		.byte	0x2
 1802 0368 23       		.byte	0x23
 1803 0369 0C       		.uleb128 0xc
 1804 036a 00       		.byte	0x0
 1805 036b 09       		.uleb128 0x9
 1806 036c 04       		.byte	0x4
 1807 036d 34030000 		.4byte	0x334
 1808 0371 03       		.uleb128 0x3
 1809 0372 37030000 		.4byte	.LASF45
 1810 0376 08       		.byte	0x8
 1811 0377 33       		.byte	0x33
 1812 0378 34030000 		.4byte	0x334
 1813 037c 0F       		.uleb128 0xf
 1814 037d 04       		.byte	0x4
 1815 037e 06       		.byte	0x6
 1816 037f 90       		.byte	0x90
 1817 0380 B1030000 		.4byte	0x3b1
 1818 0384 10       		.uleb128 0x10
 1819 0385 19000000 		.4byte	.LASF49
 1820 0389 06       		.byte	0x6
 1821 038a 97       		.byte	0x97
 1822 038b D2000000 		.4byte	0xd2
 1823 038f 10       		.uleb128 0x10
 1824 0390 97000000 		.4byte	.LASF50
 1825 0394 06       		.byte	0x6
 1826 0395 9E       		.byte	0x9e
 1827 0396 D2000000 		.4byte	0xd2
 1828 039a 10       		.uleb128 0x10
 1829 039b DA050000 		.4byte	.LASF51
 1830 039f 06       		.byte	0x6
 1831 03a0 A5       		.byte	0xa5
 1832 03a1 6A020000 		.4byte	0x26a
 1833 03a5 10       		.uleb128 0x10
 1834 03a6 84040000 		.4byte	.LASF52
 1835 03aa 06       		.byte	0x6
 1836 03ab AC       		.byte	0xac
 1837 03ac DD000000 		.4byte	0xdd
 1838 03b0 00       		.byte	0x0
 1839 03b1 09       		.uleb128 0x9
 1840 03b2 04       		.byte	0x4
 1841 03b3 B7030000 		.4byte	0x3b7
 1842 03b7 11       		.uleb128 0x11
ARM GAS  C:\Users\z80\AppData\Local\Temp\ccqtrITI.s 			page 34


 1843 03b8 BC030000 		.4byte	0x3bc
 1844 03bc 04       		.uleb128 0x4
 1845 03bd 01       		.byte	0x1
 1846 03be 08       		.byte	0x8
 1847 03bf 15050000 		.4byte	.LASF53
 1848 03c3 09       		.uleb128 0x9
 1849 03c4 04       		.byte	0x4
 1850 03c5 6C020000 		.4byte	0x26c
 1851 03c9 09       		.uleb128 0x9
 1852 03ca 04       		.byte	0x4
 1853 03cb 71030000 		.4byte	0x371
 1854 03cf 03       		.uleb128 0x3
 1855 03d0 FB020000 		.4byte	.LASF54
 1856 03d4 09       		.byte	0x9
 1857 03d5 37       		.byte	0x37
 1858 03d6 DA030000 		.4byte	0x3da
 1859 03da 05       		.uleb128 0x5
 1860 03db FB020000 		.4byte	.LASF54
 1861 03df 20       		.byte	0x20
 1862 03e0 09       		.byte	0x9
 1863 03e1 45       		.byte	0x45
 1864 03e2 49040000 		.4byte	0x449
 1865 03e6 06       		.uleb128 0x6
 1866 03e7 EA000000 		.4byte	.LASF55
 1867 03eb 09       		.byte	0x9
 1868 03ec 46       		.byte	0x46
 1869 03ed 32020000 		.4byte	0x232
 1870 03f1 02       		.byte	0x2
 1871 03f2 23       		.byte	0x23
 1872 03f3 00       		.uleb128 0x0
 1873 03f4 06       		.uleb128 0x6
 1874 03f5 2D030000 		.4byte	.LASF56
 1875 03f9 09       		.byte	0x9
 1876 03fa 47       		.byte	0x47
 1877 03fb 30000000 		.4byte	0x30
 1878 03ff 02       		.byte	0x2
 1879 0400 23       		.byte	0x23
 1880 0401 08       		.uleb128 0x8
 1881 0402 06       		.uleb128 0x6
 1882 0403 CC010000 		.4byte	.LASF57
 1883 0407 09       		.byte	0x9
 1884 0408 48       		.byte	0x48
 1885 0409 6C040000 		.4byte	0x46c
 1886 040d 02       		.byte	0x2
 1887 040e 23       		.byte	0x23
 1888 040f 0C       		.uleb128 0xc
 1889 0410 06       		.uleb128 0x6
 1890 0411 9D050000 		.4byte	.LASF58
 1891 0415 09       		.byte	0x9
 1892 0416 49       		.byte	0x49
 1893 0417 6C040000 		.4byte	0x46c
 1894 041b 02       		.byte	0x2
 1895 041c 23       		.byte	0x23
 1896 041d 10       		.uleb128 0x10
 1897 041e 06       		.uleb128 0x6
 1898 041f D5010000 		.4byte	.LASF59
 1899 0423 09       		.byte	0x9
ARM GAS  C:\Users\z80\AppData\Local\Temp\ccqtrITI.s 			page 35


 1900 0424 4B       		.byte	0x4b
 1901 0425 6C040000 		.4byte	0x46c
 1902 0429 02       		.byte	0x2
 1903 042a 23       		.byte	0x23
 1904 042b 14       		.uleb128 0x14
 1905 042c 06       		.uleb128 0x6
 1906 042d 00040000 		.4byte	.LASF60
 1907 0431 09       		.byte	0x9
 1908 0432 4C       		.byte	0x4c
 1909 0433 6C040000 		.4byte	0x46c
 1910 0437 02       		.byte	0x2
 1911 0438 23       		.byte	0x23
 1912 0439 18       		.uleb128 0x18
 1913 043a 06       		.uleb128 0x6
 1914 043b B8050000 		.4byte	.LASF61
 1915 043f 09       		.byte	0x9
 1916 0440 4D       		.byte	0x4d
 1917 0441 49040000 		.4byte	0x449
 1918 0445 02       		.byte	0x2
 1919 0446 23       		.byte	0x23
 1920 0447 1C       		.uleb128 0x1c
 1921 0448 00       		.byte	0x0
 1922 0449 03       		.uleb128 0x3
 1923 044a F1020000 		.4byte	.LASF62
 1924 044e 09       		.byte	0x9
 1925 044f 3A       		.byte	0x3a
 1926 0450 54040000 		.4byte	0x454
 1927 0454 09       		.uleb128 0x9
 1928 0455 04       		.byte	0x4
 1929 0456 5A040000 		.4byte	0x45a
 1930 045a 12       		.uleb128 0x12
 1931 045b 01       		.byte	0x1
 1932 045c 66040000 		.4byte	0x466
 1933 0460 13       		.uleb128 0x13
 1934 0461 66040000 		.4byte	0x466
 1935 0465 00       		.byte	0x0
 1936 0466 09       		.uleb128 0x9
 1937 0467 04       		.byte	0x4
 1938 0468 CF030000 		.4byte	0x3cf
 1939 046c 09       		.uleb128 0x9
 1940 046d 04       		.byte	0x4
 1941 046e 49000000 		.4byte	0x49
 1942 0472 03       		.uleb128 0x3
 1943 0473 E1020000 		.4byte	.LASF63
 1944 0477 09       		.byte	0x9
 1945 0478 76       		.byte	0x76
 1946 0479 CF030000 		.4byte	0x3cf
 1947 047d 03       		.uleb128 0x3
 1948 047e 3B000000 		.4byte	.LASF64
 1949 0482 09       		.byte	0x9
 1950 0483 E6       		.byte	0xe6
 1951 0484 CF030000 		.4byte	0x3cf
 1952 0488 0D       		.uleb128 0xd
 1953 0489 62000000 		.4byte	0x62
 1954 048d 0D       		.uleb128 0xd
 1955 048e 74000000 		.4byte	0x74
 1956 0492 14       		.uleb128 0x14
ARM GAS  C:\Users\z80\AppData\Local\Temp\ccqtrITI.s 			page 36


 1957 0493 10       		.byte	0x10
 1958 0494 0A       		.byte	0xa
 1959 0495 2D03     		.2byte	0x32d
 1960 0497 D8040000 		.4byte	0x4d8
 1961 049b 0B       		.uleb128 0xb
 1962 049c 43435200 		.ascii	"CCR\000"
 1963 04a0 0A       		.byte	0xa
 1964 04a1 2F03     		.2byte	0x32f
 1965 04a3 27030000 		.4byte	0x327
 1966 04a7 02       		.byte	0x2
 1967 04a8 23       		.byte	0x23
 1968 04a9 00       		.uleb128 0x0
 1969 04aa 15       		.uleb128 0x15
 1970 04ab AD050000 		.4byte	.LASF65
 1971 04af 0A       		.byte	0xa
 1972 04b0 3003     		.2byte	0x330
 1973 04b2 27030000 		.4byte	0x327
 1974 04b6 02       		.byte	0x2
 1975 04b7 23       		.byte	0x23
 1976 04b8 04       		.uleb128 0x4
 1977 04b9 15       		.uleb128 0x15
 1978 04ba 77020000 		.4byte	.LASF66
 1979 04be 0A       		.byte	0xa
 1980 04bf 3103     		.2byte	0x331
 1981 04c1 27030000 		.4byte	0x327
 1982 04c5 02       		.byte	0x2
 1983 04c6 23       		.byte	0x23
 1984 04c7 08       		.uleb128 0x8
 1985 04c8 15       		.uleb128 0x15
 1986 04c9 B3050000 		.4byte	.LASF67
 1987 04cd 0A       		.byte	0xa
 1988 04ce 3203     		.2byte	0x332
 1989 04d0 27030000 		.4byte	0x327
 1990 04d4 02       		.byte	0x2
 1991 04d5 23       		.byte	0x23
 1992 04d6 0C       		.uleb128 0xc
 1993 04d7 00       		.byte	0x0
 1994 04d8 16       		.uleb128 0x16
 1995 04d9 87030000 		.4byte	.LASF68
 1996 04dd 0A       		.byte	0xa
 1997 04de 3303     		.2byte	0x333
 1998 04e0 92040000 		.4byte	0x492
 1999 04e4 14       		.uleb128 0x14
 2000 04e5 1C       		.byte	0x1c
 2001 04e6 0A       		.byte	0xa
 2002 04e7 F803     		.2byte	0x3f8
 2003 04e9 57050000 		.4byte	0x557
 2004 04ed 0B       		.uleb128 0xb
 2005 04ee 43524C00 		.ascii	"CRL\000"
 2006 04f2 0A       		.byte	0xa
 2007 04f3 FA03     		.2byte	0x3fa
 2008 04f5 27030000 		.4byte	0x327
 2009 04f9 02       		.byte	0x2
 2010 04fa 23       		.byte	0x23
 2011 04fb 00       		.uleb128 0x0
 2012 04fc 0B       		.uleb128 0xb
 2013 04fd 43524800 		.ascii	"CRH\000"
ARM GAS  C:\Users\z80\AppData\Local\Temp\ccqtrITI.s 			page 37


 2014 0501 0A       		.byte	0xa
 2015 0502 FB03     		.2byte	0x3fb
 2016 0504 27030000 		.4byte	0x327
 2017 0508 02       		.byte	0x2
 2018 0509 23       		.byte	0x23
 2019 050a 04       		.uleb128 0x4
 2020 050b 0B       		.uleb128 0xb
 2021 050c 49445200 		.ascii	"IDR\000"
 2022 0510 0A       		.byte	0xa
 2023 0511 FC03     		.2byte	0x3fc
 2024 0513 27030000 		.4byte	0x327
 2025 0517 02       		.byte	0x2
 2026 0518 23       		.byte	0x23
 2027 0519 08       		.uleb128 0x8
 2028 051a 0B       		.uleb128 0xb
 2029 051b 4F445200 		.ascii	"ODR\000"
 2030 051f 0A       		.byte	0xa
 2031 0520 FD03     		.2byte	0x3fd
 2032 0522 27030000 		.4byte	0x327
 2033 0526 02       		.byte	0x2
 2034 0527 23       		.byte	0x23
 2035 0528 0C       		.uleb128 0xc
 2036 0529 15       		.uleb128 0x15
 2037 052a A3050000 		.4byte	.LASF69
 2038 052e 0A       		.byte	0xa
 2039 052f FE03     		.2byte	0x3fe
 2040 0531 27030000 		.4byte	0x327
 2041 0535 02       		.byte	0x2
 2042 0536 23       		.byte	0x23
 2043 0537 10       		.uleb128 0x10
 2044 0538 0B       		.uleb128 0xb
 2045 0539 42525200 		.ascii	"BRR\000"
 2046 053d 0A       		.byte	0xa
 2047 053e FF03     		.2byte	0x3ff
 2048 0540 27030000 		.4byte	0x327
 2049 0544 02       		.byte	0x2
 2050 0545 23       		.byte	0x23
 2051 0546 14       		.uleb128 0x14
 2052 0547 15       		.uleb128 0x15
 2053 0548 94020000 		.4byte	.LASF70
 2054 054c 0A       		.byte	0xa
 2055 054d 0004     		.2byte	0x400
 2056 054f 27030000 		.4byte	0x327
 2057 0553 02       		.byte	0x2
 2058 0554 23       		.byte	0x23
 2059 0555 18       		.uleb128 0x18
 2060 0556 00       		.byte	0x0
 2061 0557 16       		.uleb128 0x16
 2062 0558 87020000 		.4byte	.LASF71
 2063 055c 0A       		.byte	0xa
 2064 055d 0104     		.2byte	0x401
 2065 055f E4040000 		.4byte	0x4e4
 2066 0563 14       		.uleb128 0x14
 2067 0564 24       		.byte	0x24
 2068 0565 0A       		.byte	0xa
 2069 0566 9704     		.2byte	0x497
 2070 0568 79060000 		.4byte	0x679
ARM GAS  C:\Users\z80\AppData\Local\Temp\ccqtrITI.s 			page 38


 2071 056c 0B       		.uleb128 0xb
 2072 056d 43523100 		.ascii	"CR1\000"
 2073 0571 0A       		.byte	0xa
 2074 0572 9904     		.2byte	0x499
 2075 0574 88040000 		.4byte	0x488
 2076 0578 02       		.byte	0x2
 2077 0579 23       		.byte	0x23
 2078 057a 00       		.uleb128 0x0
 2079 057b 15       		.uleb128 0x15
 2080 057c A1030000 		.4byte	.LASF72
 2081 0580 0A       		.byte	0xa
 2082 0581 9A04     		.2byte	0x49a
 2083 0583 62000000 		.4byte	0x62
 2084 0587 02       		.byte	0x2
 2085 0588 23       		.byte	0x23
 2086 0589 02       		.uleb128 0x2
 2087 058a 0B       		.uleb128 0xb
 2088 058b 43523200 		.ascii	"CR2\000"
 2089 058f 0A       		.byte	0xa
 2090 0590 9B04     		.2byte	0x49b
 2091 0592 88040000 		.4byte	0x488
 2092 0596 02       		.byte	0x2
 2093 0597 23       		.byte	0x23
 2094 0598 04       		.uleb128 0x4
 2095 0599 15       		.uleb128 0x15
 2096 059a AB030000 		.4byte	.LASF73
 2097 059e 0A       		.byte	0xa
 2098 059f 9C04     		.2byte	0x49c
 2099 05a1 62000000 		.4byte	0x62
 2100 05a5 02       		.byte	0x2
 2101 05a6 23       		.byte	0x23
 2102 05a7 06       		.uleb128 0x6
 2103 05a8 0B       		.uleb128 0xb
 2104 05a9 535200   		.ascii	"SR\000"
 2105 05ac 0A       		.byte	0xa
 2106 05ad 9D04     		.2byte	0x49d
 2107 05af 88040000 		.4byte	0x488
 2108 05b3 02       		.byte	0x2
 2109 05b4 23       		.byte	0x23
 2110 05b5 08       		.uleb128 0x8
 2111 05b6 15       		.uleb128 0x15
 2112 05b7 B5030000 		.4byte	.LASF74
 2113 05bb 0A       		.byte	0xa
 2114 05bc 9E04     		.2byte	0x49e
 2115 05be 62000000 		.4byte	0x62
 2116 05c2 02       		.byte	0x2
 2117 05c3 23       		.byte	0x23
 2118 05c4 0A       		.uleb128 0xa
 2119 05c5 0B       		.uleb128 0xb
 2120 05c6 445200   		.ascii	"DR\000"
 2121 05c9 0A       		.byte	0xa
 2122 05ca 9F04     		.2byte	0x49f
 2123 05cc 88040000 		.4byte	0x488
 2124 05d0 02       		.byte	0x2
 2125 05d1 23       		.byte	0x23
 2126 05d2 0C       		.uleb128 0xc
 2127 05d3 15       		.uleb128 0x15
ARM GAS  C:\Users\z80\AppData\Local\Temp\ccqtrITI.s 			page 39


 2128 05d4 BF030000 		.4byte	.LASF75
 2129 05d8 0A       		.byte	0xa
 2130 05d9 A004     		.2byte	0x4a0
 2131 05db 62000000 		.4byte	0x62
 2132 05df 02       		.byte	0x2
 2133 05e0 23       		.byte	0x23
 2134 05e1 0E       		.uleb128 0xe
 2135 05e2 15       		.uleb128 0x15
 2136 05e3 91000000 		.4byte	.LASF76
 2137 05e7 0A       		.byte	0xa
 2138 05e8 A104     		.2byte	0x4a1
 2139 05ea 88040000 		.4byte	0x488
 2140 05ee 02       		.byte	0x2
 2141 05ef 23       		.byte	0x23
 2142 05f0 10       		.uleb128 0x10
 2143 05f1 15       		.uleb128 0x15
 2144 05f2 C9030000 		.4byte	.LASF77
 2145 05f6 0A       		.byte	0xa
 2146 05f7 A204     		.2byte	0x4a2
 2147 05f9 62000000 		.4byte	0x62
 2148 05fd 02       		.byte	0x2
 2149 05fe 23       		.byte	0x23
 2150 05ff 12       		.uleb128 0x12
 2151 0600 15       		.uleb128 0x15
 2152 0601 F0040000 		.4byte	.LASF78
 2153 0605 0A       		.byte	0xa
 2154 0606 A304     		.2byte	0x4a3
 2155 0608 88040000 		.4byte	0x488
 2156 060c 02       		.byte	0x2
 2157 060d 23       		.byte	0x23
 2158 060e 14       		.uleb128 0x14
 2159 060f 15       		.uleb128 0x15
 2160 0610 CE040000 		.4byte	.LASF79
 2161 0614 0A       		.byte	0xa
 2162 0615 A404     		.2byte	0x4a4
 2163 0617 62000000 		.4byte	0x62
 2164 061b 02       		.byte	0x2
 2165 061c 23       		.byte	0x23
 2166 061d 16       		.uleb128 0x16
 2167 061e 15       		.uleb128 0x15
 2168 061f 2E050000 		.4byte	.LASF80
 2169 0623 0A       		.byte	0xa
 2170 0624 A504     		.2byte	0x4a5
 2171 0626 88040000 		.4byte	0x488
 2172 062a 02       		.byte	0x2
 2173 062b 23       		.byte	0x23
 2174 062c 18       		.uleb128 0x18
 2175 062d 15       		.uleb128 0x15
 2176 062e DA030000 		.4byte	.LASF81
 2177 0632 0A       		.byte	0xa
 2178 0633 A604     		.2byte	0x4a6
 2179 0635 62000000 		.4byte	0x62
 2180 0639 02       		.byte	0x2
 2181 063a 23       		.byte	0x23
 2182 063b 1A       		.uleb128 0x1a
 2183 063c 15       		.uleb128 0x15
 2184 063d 28010000 		.4byte	.LASF82
ARM GAS  C:\Users\z80\AppData\Local\Temp\ccqtrITI.s 			page 40


 2185 0641 0A       		.byte	0xa
 2186 0642 A704     		.2byte	0x4a7
 2187 0644 88040000 		.4byte	0x488
 2188 0648 02       		.byte	0x2
 2189 0649 23       		.byte	0x23
 2190 064a 1C       		.uleb128 0x1c
 2191 064b 15       		.uleb128 0x15
 2192 064c E4030000 		.4byte	.LASF83
 2193 0650 0A       		.byte	0xa
 2194 0651 A804     		.2byte	0x4a8
 2195 0653 62000000 		.4byte	0x62
 2196 0657 02       		.byte	0x2
 2197 0658 23       		.byte	0x23
 2198 0659 1E       		.uleb128 0x1e
 2199 065a 15       		.uleb128 0x15
 2200 065b 27030000 		.4byte	.LASF84
 2201 065f 0A       		.byte	0xa
 2202 0660 A904     		.2byte	0x4a9
 2203 0662 88040000 		.4byte	0x488
 2204 0666 02       		.byte	0x2
 2205 0667 23       		.byte	0x23
 2206 0668 20       		.uleb128 0x20
 2207 0669 15       		.uleb128 0x15
 2208 066a EE030000 		.4byte	.LASF85
 2209 066e 0A       		.byte	0xa
 2210 066f AA04     		.2byte	0x4aa
 2211 0671 62000000 		.4byte	0x62
 2212 0675 02       		.byte	0x2
 2213 0676 23       		.byte	0x23
 2214 0677 22       		.uleb128 0x22
 2215 0678 00       		.byte	0x0
 2216 0679 16       		.uleb128 0x16
 2217 067a 09050000 		.4byte	.LASF86
 2218 067e 0A       		.byte	0xa
 2219 067f AB04     		.2byte	0x4ab
 2220 0681 63050000 		.4byte	0x563
 2221 0685 08       		.uleb128 0x8
 2222 0686 0C       		.byte	0xc
 2223 0687 0B       		.byte	0xb
 2224 0688 C2       		.byte	0xc2
 2225 0689 D4060000 		.4byte	0x6d4
 2226 068d 06       		.uleb128 0x6
 2227 068e A8040000 		.4byte	.LASF87
 2228 0692 0B       		.byte	0xb
 2229 0693 C3       		.byte	0xc3
 2230 0694 D4060000 		.4byte	0x6d4
 2231 0698 02       		.byte	0x2
 2232 0699 23       		.byte	0x23
 2233 069a 00       		.uleb128 0x0
 2234 069b 06       		.uleb128 0x6
 2235 069c C9040000 		.4byte	.LASF88
 2236 06a0 0B       		.byte	0xb
 2237 06a1 C4       		.byte	0xc4
 2238 06a2 DA060000 		.4byte	0x6da
 2239 06a6 02       		.byte	0x2
 2240 06a7 23       		.byte	0x23
 2241 06a8 04       		.uleb128 0x4
ARM GAS  C:\Users\z80\AppData\Local\Temp\ccqtrITI.s 			page 41


 2242 06a9 06       		.uleb128 0x6
 2243 06aa 99020000 		.4byte	.LASF89
 2244 06ae 0B       		.byte	0xb
 2245 06af C5       		.byte	0xc5
 2246 06b0 49000000 		.4byte	0x49
 2247 06b4 02       		.byte	0x2
 2248 06b5 23       		.byte	0x23
 2249 06b6 08       		.uleb128 0x8
 2250 06b7 06       		.uleb128 0x6
 2251 06b8 14020000 		.4byte	.LASF90
 2252 06bc 0B       		.byte	0xb
 2253 06bd C7       		.byte	0xc7
 2254 06be 49000000 		.4byte	0x49
 2255 06c2 02       		.byte	0x2
 2256 06c3 23       		.byte	0x23
 2257 06c4 09       		.uleb128 0x9
 2258 06c5 06       		.uleb128 0x6
 2259 06c6 A0000000 		.4byte	.LASF91
 2260 06ca 0B       		.byte	0xb
 2261 06cb C8       		.byte	0xc8
 2262 06cc 49000000 		.4byte	0x49
 2263 06d0 02       		.byte	0x2
 2264 06d1 23       		.byte	0x23
 2265 06d2 0A       		.uleb128 0xa
 2266 06d3 00       		.byte	0x0
 2267 06d4 09       		.uleb128 0x9
 2268 06d5 04       		.byte	0x4
 2269 06d6 D8040000 		.4byte	0x4d8
 2270 06da 09       		.uleb128 0x9
 2271 06db 04       		.byte	0x4
 2272 06dc 27030000 		.4byte	0x327
 2273 06e0 03       		.uleb128 0x3
 2274 06e1 2D040000 		.4byte	.LASF92
 2275 06e5 0B       		.byte	0xb
 2276 06e6 C9       		.byte	0xc9
 2277 06e7 85060000 		.4byte	0x685
 2278 06eb 03       		.uleb128 0x3
 2279 06ec 5D000000 		.4byte	.LASF93
 2280 06f0 0C       		.byte	0xc
 2281 06f1 78       		.byte	0x78
 2282 06f2 86000000 		.4byte	0x86
 2283 06f6 03       		.uleb128 0x3
 2284 06f7 62050000 		.4byte	.LASF94
 2285 06fb 0C       		.byte	0xc
 2286 06fc 85       		.byte	0x85
 2287 06fd 01070000 		.4byte	0x701
 2288 0701 09       		.uleb128 0x9
 2289 0702 04       		.byte	0x4
 2290 0703 57050000 		.4byte	0x557
 2291 0707 17       		.uleb128 0x17
 2292 0708 01       		.byte	0x1
 2293 0709 0D       		.byte	0xd
 2294 070a 55       		.byte	0x55
 2295 070b 2E070000 		.4byte	0x72e
 2296 070f 18       		.uleb128 0x18
 2297 0710 86050000 		.4byte	.LASF95
 2298 0714 00       		.sleb128 0
ARM GAS  C:\Users\z80\AppData\Local\Temp\ccqtrITI.s 			page 42


 2299 0715 18       		.uleb128 0x18
 2300 0716 1F010000 		.4byte	.LASF96
 2301 071a 01       		.sleb128 1
 2302 071b 18       		.uleb128 0x18
 2303 071c 7C050000 		.4byte	.LASF97
 2304 0720 02       		.sleb128 2
 2305 0721 18       		.uleb128 0x18
 2306 0722 47000000 		.4byte	.LASF98
 2307 0726 03       		.sleb128 3
 2308 0727 18       		.uleb128 0x18
 2309 0728 1A050000 		.4byte	.LASF99
 2310 072c 04       		.sleb128 4
 2311 072d 00       		.byte	0x0
 2312 072e 03       		.uleb128 0x3
 2313 072f 3B050000 		.4byte	.LASF100
 2314 0733 0D       		.byte	0xd
 2315 0734 5B       		.byte	0x5b
 2316 0735 07070000 		.4byte	0x707
 2317 0739 16       		.uleb128 0x16
 2318 073a A7000000 		.4byte	.LASF101
 2319 073e 0E       		.byte	0xe
 2320 073f 0701     		.2byte	0x107
 2321 0741 45070000 		.4byte	0x745
 2322 0745 0C       		.uleb128 0xc
 2323 0746 A7000000 		.4byte	.LASF101
 2324 074a 1C       		.byte	0x1c
 2325 074b 0E       		.byte	0xe
 2326 074c 2B01     		.2byte	0x12b
 2327 074e BC070000 		.4byte	0x7bc
 2328 0752 15       		.uleb128 0x15
 2329 0753 9E010000 		.4byte	.LASF102
 2330 0757 0E       		.byte	0xe
 2331 0758 2F01     		.2byte	0x12f
 2332 075a 2E070000 		.4byte	0x72e
 2333 075e 02       		.byte	0x2
 2334 075f 23       		.byte	0x23
 2335 0760 00       		.uleb128 0x0
 2336 0761 15       		.uleb128 0x15
 2337 0762 27050000 		.4byte	.LASF103
 2338 0766 0E       		.byte	0xe
 2339 0767 3301     		.2byte	0x133
 2340 0769 32080000 		.4byte	0x832
 2341 076d 02       		.byte	0x2
 2342 076e 23       		.byte	0x23
 2343 076f 04       		.uleb128 0x4
 2344 0770 0B       		.uleb128 0xb
 2345 0771 73706900 		.ascii	"spi\000"
 2346 0775 0E       		.byte	0xe
 2347 0776 4B01     		.2byte	0x14b
 2348 0778 3D080000 		.4byte	0x83d
 2349 077c 02       		.byte	0x2
 2350 077d 23       		.byte	0x23
 2351 077e 08       		.uleb128 0x8
 2352 077f 15       		.uleb128 0x15
 2353 0780 00000000 		.4byte	.LASF104
 2354 0784 0E       		.byte	0xe
 2355 0785 4F01     		.2byte	0x14f
ARM GAS  C:\Users\z80\AppData\Local\Temp\ccqtrITI.s 			page 43


 2356 0787 43080000 		.4byte	0x843
 2357 078b 02       		.byte	0x2
 2358 078c 23       		.byte	0x23
 2359 078d 0C       		.uleb128 0xc
 2360 078e 15       		.uleb128 0x15
 2361 078f 9B030000 		.4byte	.LASF105
 2362 0793 0E       		.byte	0xe
 2363 0794 5301     		.2byte	0x153
 2364 0796 43080000 		.4byte	0x843
 2365 079a 02       		.byte	0x2
 2366 079b 23       		.byte	0x23
 2367 079c 10       		.uleb128 0x10
 2368 079d 15       		.uleb128 0x15
 2369 079e F3010000 		.4byte	.LASF106
 2370 07a2 0E       		.byte	0xe
 2371 07a3 5701     		.2byte	0x157
 2372 07a5 86000000 		.4byte	0x86
 2373 07a9 02       		.byte	0x2
 2374 07aa 23       		.byte	0x23
 2375 07ab 14       		.uleb128 0x14
 2376 07ac 15       		.uleb128 0x15
 2377 07ad 5B030000 		.4byte	.LASF107
 2378 07b1 0E       		.byte	0xe
 2379 07b2 5B01     		.2byte	0x15b
 2380 07b4 86000000 		.4byte	0x86
 2381 07b8 02       		.byte	0x2
 2382 07b9 23       		.byte	0x23
 2383 07ba 18       		.uleb128 0x18
 2384 07bb 00       		.byte	0x0
 2385 07bc 16       		.uleb128 0x16
 2386 07bd 1E020000 		.4byte	.LASF108
 2387 07c1 0E       		.byte	0xe
 2388 07c2 0F01     		.2byte	0x10f
 2389 07c4 C8070000 		.4byte	0x7c8
 2390 07c8 09       		.uleb128 0x9
 2391 07c9 04       		.byte	0x4
 2392 07ca CE070000 		.4byte	0x7ce
 2393 07ce 12       		.uleb128 0x12
 2394 07cf 01       		.byte	0x1
 2395 07d0 DA070000 		.4byte	0x7da
 2396 07d4 13       		.uleb128 0x13
 2397 07d5 DA070000 		.4byte	0x7da
 2398 07d9 00       		.byte	0x0
 2399 07da 09       		.uleb128 0x9
 2400 07db 04       		.byte	0x4
 2401 07dc 39070000 		.4byte	0x739
 2402 07e0 14       		.uleb128 0x14
 2403 07e1 0C       		.byte	0xc
 2404 07e2 0E       		.byte	0xe
 2405 07e3 1401     		.2byte	0x114
 2406 07e5 26080000 		.4byte	0x826
 2407 07e9 15       		.uleb128 0x15
 2408 07ea EC010000 		.4byte	.LASF109
 2409 07ee 0E       		.byte	0xe
 2410 07ef 1801     		.2byte	0x118
 2411 07f1 BC070000 		.4byte	0x7bc
 2412 07f5 02       		.byte	0x2
ARM GAS  C:\Users\z80\AppData\Local\Temp\ccqtrITI.s 			page 44


 2413 07f6 23       		.byte	0x23
 2414 07f7 00       		.uleb128 0x0
 2415 07f8 15       		.uleb128 0x15
 2416 07f9 B1000000 		.4byte	.LASF110
 2417 07fd 0E       		.byte	0xe
 2418 07fe 1D01     		.2byte	0x11d
 2419 0800 F6060000 		.4byte	0x6f6
 2420 0804 02       		.byte	0x2
 2421 0805 23       		.byte	0x23
 2422 0806 04       		.uleb128 0x4
 2423 0807 15       		.uleb128 0x15
 2424 0808 71000000 		.4byte	.LASF111
 2425 080c 0E       		.byte	0xe
 2426 080d 2101     		.2byte	0x121
 2427 080f 62000000 		.4byte	0x62
 2428 0813 02       		.byte	0x2
 2429 0814 23       		.byte	0x23
 2430 0815 08       		.uleb128 0x8
 2431 0816 0B       		.uleb128 0xb
 2432 0817 63723100 		.ascii	"cr1\000"
 2433 081b 0E       		.byte	0xe
 2434 081c 2501     		.2byte	0x125
 2435 081e 62000000 		.4byte	0x62
 2436 0822 02       		.byte	0x2
 2437 0823 23       		.byte	0x23
 2438 0824 0A       		.uleb128 0xa
 2439 0825 00       		.byte	0x0
 2440 0826 16       		.uleb128 0x16
 2441 0827 E8050000 		.4byte	.LASF112
 2442 082b 0E       		.byte	0xe
 2443 082c 2601     		.2byte	0x126
 2444 082e E0070000 		.4byte	0x7e0
 2445 0832 09       		.uleb128 0x9
 2446 0833 04       		.byte	0x4
 2447 0834 38080000 		.4byte	0x838
 2448 0838 11       		.uleb128 0x11
 2449 0839 26080000 		.4byte	0x826
 2450 083d 09       		.uleb128 0x9
 2451 083e 04       		.byte	0x4
 2452 083f 79060000 		.4byte	0x679
 2453 0843 09       		.uleb128 0x9
 2454 0844 04       		.byte	0x4
 2455 0845 49080000 		.4byte	0x849
 2456 0849 11       		.uleb128 0x11
 2457 084a E0060000 		.4byte	0x6e0
 2458 084e 19       		.uleb128 0x19
 2459 084f 65030000 		.4byte	.LASF152
 2460 0853 01       		.byte	0x1
 2461 0854 AB       		.byte	0xab
 2462 0855 01       		.byte	0x1
 2463 0856 01       		.byte	0x1
 2464 0857 67080000 		.4byte	0x867
 2465 085b 1A       		.uleb128 0x1a
 2466 085c 35050000 		.4byte	.LASF153
 2467 0860 01       		.byte	0x1
 2468 0861 AB       		.byte	0xab
 2469 0862 29000000 		.4byte	0x29
ARM GAS  C:\Users\z80\AppData\Local\Temp\ccqtrITI.s 			page 45


 2470 0866 00       		.byte	0x0
 2471 0867 1B       		.uleb128 0x1b
 2472 0868 3C020000 		.4byte	.LASF154
 2473 086c 01       		.byte	0x1
 2474 086d 4B       		.byte	0x4b
 2475 086e 01       		.byte	0x1
 2476 086f 00000000 		.4byte	.LFB64
 2477 0873 80010000 		.4byte	.LFE64
 2478 0877 00000000 		.4byte	.LLST0
 2479 087b 1B090000 		.4byte	0x91b
 2480 087f 1C       		.uleb128 0x1c
 2481 0880 A8050000 		.4byte	.LASF117
 2482 0884 01       		.byte	0x1
 2483 0885 4B       		.byte	0x4b
 2484 0886 DA070000 		.4byte	0x7da
 2485 088a 20000000 		.4byte	.LLST1
 2486 088e 1D       		.uleb128 0x1d
 2487 088f B9020000 		.4byte	.LASF113
 2488 0893 01       		.byte	0x1
 2489 0894 50       		.byte	0x50
 2490 0895 29000000 		.4byte	0x29
 2491 0899 33000000 		.4byte	.LLST2
 2492 089d 1D       		.uleb128 0x1d
 2493 089e 2C020000 		.4byte	.LASF114
 2494 08a2 01       		.byte	0x1
 2495 08a3 56       		.byte	0x56
 2496 08a4 29000000 		.4byte	0x29
 2497 08a8 60000000 		.4byte	.LLST3
 2498 08ac 1E       		.uleb128 0x1e
 2499 08ad 02000000 		.4byte	.LBB9
 2500 08b1 08000000 		.4byte	.LBE9
 2501 08b5 C9080000 		.4byte	0x8c9
 2502 08b9 1F       		.uleb128 0x1f
 2503 08ba 746D7000 		.ascii	"tmp\000"
 2504 08be 01       		.byte	0x1
 2505 08bf 4E       		.byte	0x4e
 2506 08c0 86000000 		.4byte	0x86
 2507 08c4 E3000000 		.4byte	.LLST4
 2508 08c8 00       		.byte	0x0
 2509 08c9 20       		.uleb128 0x20
 2510 08ca 4E080000 		.4byte	0x84e
 2511 08ce 1E000000 		.4byte	.LBB10
 2512 08d2 00000000 		.4byte	.Ldebug_ranges0+0x0
 2513 08d6 01       		.byte	0x1
 2514 08d7 52       		.byte	0x52
 2515 08d8 E6080000 		.4byte	0x8e6
 2516 08dc 21       		.uleb128 0x21
 2517 08dd 5B080000 		.4byte	0x85b
 2518 08e1 F6000000 		.4byte	.LLST5
 2519 08e5 00       		.byte	0x0
 2520 08e6 1E       		.uleb128 0x1e
 2521 08e7 6C000000 		.4byte	.LBB15
 2522 08eb 72000000 		.4byte	.LBE15
 2523 08ef 03090000 		.4byte	0x903
 2524 08f3 1F       		.uleb128 0x1f
 2525 08f4 746D7000 		.ascii	"tmp\000"
 2526 08f8 01       		.byte	0x1
ARM GAS  C:\Users\z80\AppData\Local\Temp\ccqtrITI.s 			page 46


 2527 08f9 A3       		.byte	0xa3
 2528 08fa 86000000 		.4byte	0x86
 2529 08fe 32010000 		.4byte	.LLST6
 2530 0902 00       		.byte	0x0
 2531 0903 22       		.uleb128 0x22
 2532 0904 BC000000 		.4byte	.LBB17
 2533 0908 80010000 		.4byte	.LBE17
 2534 090c 1F       		.uleb128 0x1f
 2535 090d 7600     		.ascii	"v\000"
 2536 090f 01       		.byte	0x1
 2537 0910 6C       		.byte	0x6c
 2538 0911 49000000 		.4byte	0x49
 2539 0915 45010000 		.4byte	.LLST7
 2540 0919 00       		.byte	0x0
 2541 091a 00       		.byte	0x0
 2542 091b 23       		.uleb128 0x23
 2543 091c 01       		.byte	0x1
 2544 091d 1F030000 		.4byte	.LASF115
 2545 0921 01       		.byte	0x1
 2546 0922 32       		.byte	0x32
 2547 0923 01       		.byte	0x1
 2548 0924 00000000 		.4byte	.LFB62
 2549 0928 D0000000 		.4byte	.LFE62
 2550 092c B5010000 		.4byte	.LLST8
 2551 0930 4E090000 		.4byte	0x94e
 2552 0934 24       		.uleb128 0x24
 2553 0935 4E080000 		.4byte	0x84e
 2554 0939 6C000000 		.4byte	.LBB18
 2555 093d 20000000 		.4byte	.Ldebug_ranges0+0x20
 2556 0941 01       		.byte	0x1
 2557 0942 40       		.byte	0x40
 2558 0943 21       		.uleb128 0x21
 2559 0944 5B080000 		.4byte	0x85b
 2560 0948 D5010000 		.4byte	.LLST9
 2561 094c 00       		.byte	0x0
 2562 094d 00       		.byte	0x0
 2563 094e 25       		.uleb128 0x25
 2564 094f 01       		.byte	0x1
 2565 0950 32020000 		.4byte	.LASF155
 2566 0954 01       		.byte	0x1
 2567 0955 45       		.byte	0x45
 2568 0956 01       		.byte	0x1
 2569 0957 00000000 		.4byte	.LFB63
 2570 095b 24000000 		.4byte	.LFE63
 2571 095f 06020000 		.4byte	.LLST10
 2572 0963 26       		.uleb128 0x26
 2573 0964 01       		.byte	0x1
 2574 0965 E1000000 		.4byte	.LASF123
 2575 0969 01       		.byte	0x1
 2576 096a A6       		.byte	0xa6
 2577 096b 01       		.byte	0x1
 2578 096c 7B090000 		.4byte	0x97b
 2579 0970 00000000 		.4byte	.LFB65
 2580 0974 0A000000 		.4byte	.LFE65
 2581 0978 02       		.byte	0x2
 2582 0979 7D       		.byte	0x7d
 2583 097a 00       		.sleb128 0
ARM GAS  C:\Users\z80\AppData\Local\Temp\ccqtrITI.s 			page 47


 2584 097b 09       		.uleb128 0x9
 2585 097c 04       		.byte	0x4
 2586 097d 72040000 		.4byte	0x472
 2587 0981 23       		.uleb128 0x23
 2588 0982 01       		.byte	0x1
 2589 0983 4F010000 		.4byte	.LASF116
 2590 0987 01       		.byte	0x1
 2591 0988 C9       		.byte	0xc9
 2592 0989 01       		.byte	0x1
 2593 098a 00000000 		.4byte	.LFB67
 2594 098e 34000000 		.4byte	.LFE67
 2595 0992 26020000 		.4byte	.LLST11
 2596 0996 E0090000 		.4byte	0x9e0
 2597 099a 1C       		.uleb128 0x1c
 2598 099b 13030000 		.4byte	.LASF118
 2599 099f 01       		.byte	0x1
 2600 09a0 C9       		.byte	0xc9
 2601 09a1 E0090000 		.4byte	0x9e0
 2602 09a5 46020000 		.4byte	.LLST12
 2603 09a9 1E       		.uleb128 0x1e
 2604 09aa 06000000 		.4byte	.LBB22
 2605 09ae 0C000000 		.4byte	.LBE22
 2606 09b2 C6090000 		.4byte	0x9c6
 2607 09b6 1F       		.uleb128 0x1f
 2608 09b7 746D7000 		.ascii	"tmp\000"
 2609 09bb 01       		.byte	0x1
 2610 09bc CD       		.byte	0xcd
 2611 09bd 86000000 		.4byte	0x86
 2612 09c1 64020000 		.4byte	.LLST13
 2613 09c5 00       		.byte	0x0
 2614 09c6 22       		.uleb128 0x22
 2615 09c7 26000000 		.4byte	.LBB23
 2616 09cb 2C000000 		.4byte	.LBE23
 2617 09cf 1F       		.uleb128 0x1f
 2618 09d0 746D7000 		.ascii	"tmp\000"
 2619 09d4 01       		.byte	0x1
 2620 09d5 D2       		.byte	0xd2
 2621 09d6 86000000 		.4byte	0x86
 2622 09da 77020000 		.4byte	.LLST14
 2623 09de 00       		.byte	0x0
 2624 09df 00       		.byte	0x0
 2625 09e0 09       		.uleb128 0x9
 2626 09e1 04       		.byte	0x4
 2627 09e2 29000000 		.4byte	0x29
 2628 09e6 23       		.uleb128 0x23
 2629 09e7 01       		.byte	0x1
 2630 09e8 B0040000 		.4byte	.LASF119
 2631 09ec 01       		.byte	0x1
 2632 09ed D6       		.byte	0xd6
 2633 09ee 01       		.byte	0x1
 2634 09ef 00000000 		.4byte	.LFB68
 2635 09f3 24000000 		.4byte	.LFE68
 2636 09f7 8A020000 		.4byte	.LLST15
 2637 09fb 410A0000 		.4byte	0xa41
 2638 09ff 1C       		.uleb128 0x1c
 2639 0a00 06020000 		.4byte	.LASF120
 2640 0a04 01       		.byte	0x1
ARM GAS  C:\Users\z80\AppData\Local\Temp\ccqtrITI.s 			page 48


 2641 0a05 D6       		.byte	0xd6
 2642 0a06 29000000 		.4byte	0x29
 2643 0a0a AA020000 		.4byte	.LLST16
 2644 0a0e 27       		.uleb128 0x27
 2645 0a0f 38000000 		.4byte	.Ldebug_ranges0+0x38
 2646 0a13 270A0000 		.4byte	0xa27
 2647 0a17 1F       		.uleb128 0x1f
 2648 0a18 746D7000 		.ascii	"tmp\000"
 2649 0a1c 01       		.byte	0x1
 2650 0a1d D8       		.byte	0xd8
 2651 0a1e 86000000 		.4byte	0x86
 2652 0a22 C8020000 		.4byte	.LLST17
 2653 0a26 00       		.byte	0x0
 2654 0a27 22       		.uleb128 0x22
 2655 0a28 1C000000 		.4byte	.LBB26
 2656 0a2c 22000000 		.4byte	.LBE26
 2657 0a30 1F       		.uleb128 0x1f
 2658 0a31 746D7000 		.ascii	"tmp\000"
 2659 0a35 01       		.byte	0x1
 2660 0a36 DA       		.byte	0xda
 2661 0a37 86000000 		.4byte	0x86
 2662 0a3b DB020000 		.4byte	.LLST18
 2663 0a3f 00       		.byte	0x0
 2664 0a40 00       		.byte	0x0
 2665 0a41 23       		.uleb128 0x23
 2666 0a42 01       		.byte	0x1
 2667 0a43 C5000000 		.4byte	.LASF121
 2668 0a47 01       		.byte	0x1
 2669 0a48 DD       		.byte	0xdd
 2670 0a49 01       		.byte	0x1
 2671 0a4a 00000000 		.4byte	.LFB69
 2672 0a4e 24000000 		.4byte	.LFE69
 2673 0a52 EE020000 		.4byte	.LLST19
 2674 0a56 9C0A0000 		.4byte	0xa9c
 2675 0a5a 1C       		.uleb128 0x1c
 2676 0a5b FD010000 		.4byte	.LASF122
 2677 0a5f 01       		.byte	0x1
 2678 0a60 DD       		.byte	0xdd
 2679 0a61 86000000 		.4byte	0x86
 2680 0a65 0E030000 		.4byte	.LLST20
 2681 0a69 27       		.uleb128 0x27
 2682 0a6a 50000000 		.4byte	.Ldebug_ranges0+0x50
 2683 0a6e 820A0000 		.4byte	0xa82
 2684 0a72 1F       		.uleb128 0x1f
 2685 0a73 746D7000 		.ascii	"tmp\000"
 2686 0a77 01       		.byte	0x1
 2687 0a78 DF       		.byte	0xdf
 2688 0a79 86000000 		.4byte	0x86
 2689 0a7d 2C030000 		.4byte	.LLST21
 2690 0a81 00       		.byte	0x0
 2691 0a82 22       		.uleb128 0x22
 2692 0a83 1C000000 		.4byte	.LBB29
 2693 0a87 22000000 		.4byte	.LBE29
 2694 0a8b 1F       		.uleb128 0x1f
 2695 0a8c 746D7000 		.ascii	"tmp\000"
 2696 0a90 01       		.byte	0x1
 2697 0a91 E1       		.byte	0xe1
ARM GAS  C:\Users\z80\AppData\Local\Temp\ccqtrITI.s 			page 49


 2698 0a92 86000000 		.4byte	0x86
 2699 0a96 3F030000 		.4byte	.LLST22
 2700 0a9a 00       		.byte	0x0
 2701 0a9b 00       		.byte	0x0
 2702 0a9c 26       		.uleb128 0x26
 2703 0a9d 01       		.byte	0x1
 2704 0a9e B6010000 		.4byte	.LASF124
 2705 0aa2 01       		.byte	0x1
 2706 0aa3 E4       		.byte	0xe4
 2707 0aa4 01       		.byte	0x1
 2708 0aa5 7B090000 		.4byte	0x97b
 2709 0aa9 00000000 		.4byte	.LFB70
 2710 0aad 0A000000 		.4byte	.LFE70
 2711 0ab1 02       		.byte	0x2
 2712 0ab2 7D       		.byte	0x7d
 2713 0ab3 00       		.sleb128 0
 2714 0ab4 28       		.uleb128 0x28
 2715 0ab5 01       		.byte	0x1
 2716 0ab6 62020000 		.4byte	.LASF125
 2717 0aba 01       		.byte	0x1
 2718 0abb EC       		.byte	0xec
 2719 0abc 01       		.byte	0x1
 2720 0abd 00000000 		.4byte	.LFB71
 2721 0ac1 16000000 		.4byte	.LFE71
 2722 0ac5 02       		.byte	0x2
 2723 0ac6 7D       		.byte	0x7d
 2724 0ac7 00       		.sleb128 0
 2725 0ac8 E70A0000 		.4byte	0xae7
 2726 0acc 29       		.uleb128 0x29
 2727 0acd C9050000 		.4byte	.LASF126
 2728 0ad1 01       		.byte	0x1
 2729 0ad2 EC       		.byte	0xec
 2730 0ad3 49000000 		.4byte	0x49
 2731 0ad7 01       		.byte	0x1
 2732 0ad8 50       		.byte	0x50
 2733 0ad9 29       		.uleb128 0x29
 2734 0ada 6A000000 		.4byte	.LASF127
 2735 0ade 01       		.byte	0x1
 2736 0adf EC       		.byte	0xec
 2737 0ae0 86000000 		.4byte	0x86
 2738 0ae4 01       		.byte	0x1
 2739 0ae5 51       		.byte	0x51
 2740 0ae6 00       		.byte	0x0
 2741 0ae7 23       		.uleb128 0x23
 2742 0ae8 01       		.byte	0x1
 2743 0ae9 46040000 		.4byte	.LASF128
 2744 0aed 01       		.byte	0x1
 2745 0aee F6       		.byte	0xf6
 2746 0aef 01       		.byte	0x1
 2747 0af0 00000000 		.4byte	.LFB72
 2748 0af4 68000000 		.4byte	.LFE72
 2749 0af8 52030000 		.4byte	.LLST23
 2750 0afc 2D0B0000 		.4byte	0xb2d
 2751 0b00 1C       		.uleb128 0x1c
 2752 0b01 EC020000 		.4byte	.LASF129
 2753 0b05 01       		.byte	0x1
 2754 0b06 F6       		.byte	0xf6
ARM GAS  C:\Users\z80\AppData\Local\Temp\ccqtrITI.s 			page 50


 2755 0b07 2D0B0000 		.4byte	0xb2d
 2756 0b0b 72030000 		.4byte	.LLST24
 2757 0b0f 2A       		.uleb128 0x2a
 2758 0b10 746F00   		.ascii	"to\000"
 2759 0b13 01       		.byte	0x1
 2760 0b14 F6       		.byte	0xf6
 2761 0b15 2D0B0000 		.4byte	0xb2d
 2762 0b19 85030000 		.4byte	.LLST25
 2763 0b1d 1C       		.uleb128 0x1c
 2764 0b1e 6A000000 		.4byte	.LASF127
 2765 0b22 01       		.byte	0x1
 2766 0b23 F6       		.byte	0xf6
 2767 0b24 86000000 		.4byte	0x86
 2768 0b28 98030000 		.4byte	.LLST26
 2769 0b2c 00       		.byte	0x0
 2770 0b2d 09       		.uleb128 0x9
 2771 0b2e 04       		.byte	0x4
 2772 0b2f 62000000 		.4byte	0x62
 2773 0b33 2B       		.uleb128 0x2b
 2774 0b34 B8000000 		.4byte	.LASF130
 2775 0b38 0F       		.byte	0xf
 2776 0b39 9404     		.2byte	0x494
 2777 0b3b 8D040000 		.4byte	0x48d
 2778 0b3f 01       		.byte	0x1
 2779 0b40 01       		.byte	0x1
 2780 0b41 2B       		.uleb128 0x2b
 2781 0b42 40040000 		.4byte	.LASF131
 2782 0b46 0E       		.byte	0xe
 2783 0b47 6701     		.2byte	0x167
 2784 0b49 39070000 		.4byte	0x739
 2785 0b4d 01       		.byte	0x1
 2786 0b4e 01       		.byte	0x1
 2787 0b4f 2C       		.uleb128 0x2c
 2788 0b50 4F040000 		.4byte	.LASF132
 2789 0b54 01       		.byte	0x1
 2790 0b55 0F       		.byte	0xf
 2791 0b56 72040000 		.4byte	0x472
 2792 0b5a 01       		.byte	0x1
 2793 0b5b 01       		.byte	0x1
 2794 0b5c 2D       		.uleb128 0x2d
 2795 0b5d 49000000 		.4byte	0x49
 2796 0b61 6D0B0000 		.4byte	0xb6d
 2797 0b65 2E       		.uleb128 0x2e
 2798 0b66 2C030000 		.4byte	0x32c
 2799 0b6a 3F01     		.2byte	0x13f
 2800 0b6c 00       		.byte	0x0
 2801 0b6d 2C       		.uleb128 0x2c
 2802 0b6e 2A000000 		.4byte	.LASF133
 2803 0b72 01       		.byte	0x1
 2804 0b73 10       		.byte	0x10
 2805 0b74 5C0B0000 		.4byte	0xb5c
 2806 0b78 01       		.byte	0x1
 2807 0b79 01       		.byte	0x1
 2808 0b7a 2C       		.uleb128 0x2c
 2809 0b7b 91050000 		.4byte	.LASF134
 2810 0b7f 01       		.byte	0x1
 2811 0b80 12       		.byte	0x12
ARM GAS  C:\Users\z80\AppData\Local\Temp\ccqtrITI.s 			page 51


 2812 0b81 72040000 		.4byte	0x472
 2813 0b85 01       		.byte	0x1
 2814 0b86 01       		.byte	0x1
 2815 0b87 2C       		.uleb128 0x2c
 2816 0b88 74030000 		.4byte	.LASF135
 2817 0b8c 01       		.byte	0x1
 2818 0b8d 13       		.byte	0x13
 2819 0b8e 5C0B0000 		.4byte	0xb5c
 2820 0b92 01       		.byte	0x1
 2821 0b93 01       		.byte	0x1
 2822 0b94 2C       		.uleb128 0x2c
 2823 0b95 5A010000 		.4byte	.LASF136
 2824 0b99 01       		.byte	0x1
 2825 0b9a 15       		.byte	0x15
 2826 0b9b 7D040000 		.4byte	0x47d
 2827 0b9f 01       		.byte	0x1
 2828 0ba0 01       		.byte	0x1
 2829 0ba1 2D       		.uleb128 0x2d
 2830 0ba2 49000000 		.4byte	0x49
 2831 0ba6 B10B0000 		.4byte	0xbb1
 2832 0baa 2F       		.uleb128 0x2f
 2833 0bab 2C030000 		.4byte	0x32c
 2834 0baf 01       		.byte	0x1
 2835 0bb0 00       		.byte	0x0
 2836 0bb1 2C       		.uleb128 0x2c
 2837 0bb2 08040000 		.4byte	.LASF137
 2838 0bb6 01       		.byte	0x1
 2839 0bb7 16       		.byte	0x16
 2840 0bb8 A10B0000 		.4byte	0xba1
 2841 0bbc 01       		.byte	0x1
 2842 0bbd 01       		.byte	0x1
 2843 0bbe 2D       		.uleb128 0x2d
 2844 0bbf 49000000 		.4byte	0x49
 2845 0bc3 CE0B0000 		.4byte	0xbce
 2846 0bc7 2F       		.uleb128 0x2f
 2847 0bc8 2C030000 		.4byte	0x32c
 2848 0bcc 03       		.byte	0x3
 2849 0bcd 00       		.byte	0x0
 2850 0bce 2C       		.uleb128 0x2c
 2851 0bcf 9A040000 		.4byte	.LASF138
 2852 0bd3 01       		.byte	0x1
 2853 0bd4 18       		.byte	0x18
 2854 0bd5 BE0B0000 		.4byte	0xbbe
 2855 0bd9 01       		.byte	0x1
 2856 0bda 01       		.byte	0x1
 2857 0bdb 30       		.uleb128 0x30
 2858 0bdc 95010000 		.4byte	.LASF139
 2859 0be0 01       		.byte	0x1
 2860 0be1 19       		.byte	0x19
 2861 0be2 29000000 		.4byte	0x29
 2862 0be6 05       		.byte	0x5
 2863 0be7 03       		.byte	0x3
 2864 0be8 00000000 		.4byte	adcIndex
 2865 0bec 2D       		.uleb128 0x2d
 2866 0bed 29000000 		.4byte	0x29
 2867 0bf1 FC0B0000 		.4byte	0xbfc
 2868 0bf5 2F       		.uleb128 0x2f
ARM GAS  C:\Users\z80\AppData\Local\Temp\ccqtrITI.s 			page 52


 2869 0bf6 2C030000 		.4byte	0x32c
 2870 0bfa 03       		.byte	0x3
 2871 0bfb 00       		.byte	0x0
 2872 0bfc 30       		.uleb128 0x30
 2873 0bfd E1040000 		.4byte	.LASF140
 2874 0c01 01       		.byte	0x1
 2875 0c02 1B       		.byte	0x1b
 2876 0c03 EC0B0000 		.4byte	0xbec
 2877 0c07 05       		.byte	0x5
 2878 0c08 03       		.byte	0x3
 2879 0c09 00000000 		.4byte	instantAdcData
 2880 0c0d 2C       		.uleb128 0x2c
 2881 0c0e 52000000 		.4byte	.LASF141
 2882 0c12 01       		.byte	0x1
 2883 0c13 1E       		.byte	0x1e
 2884 0c14 29000000 		.4byte	0x29
 2885 0c18 01       		.byte	0x1
 2886 0c19 01       		.byte	0x1
 2887 0c1a 2C       		.uleb128 0x2c
 2888 0c1b 6A000000 		.4byte	.LASF127
 2889 0c1f 01       		.byte	0x1
 2890 0c20 1F       		.byte	0x1f
 2891 0c21 29000000 		.4byte	0x29
 2892 0c25 01       		.byte	0x1
 2893 0c26 01       		.byte	0x1
 2894 0c27 2C       		.uleb128 0x2c
 2895 0c28 D2000000 		.4byte	.LASF142
 2896 0c2c 01       		.byte	0x1
 2897 0c2d 20       		.byte	0x20
 2898 0c2e 29000000 		.4byte	0x29
 2899 0c32 01       		.byte	0x1
 2900 0c33 01       		.byte	0x1
 2901 0c34 30       		.uleb128 0x30
 2902 0c35 20000000 		.4byte	.LASF143
 2903 0c39 01       		.byte	0x1
 2904 0c3a 29       		.byte	0x29
 2905 0c3b 38080000 		.4byte	0x838
 2906 0c3f 05       		.byte	0x5
 2907 0c40 03       		.byte	0x3
 2908 0c41 00000000 		.4byte	hs_spicfg
 2909 0c45 30       		.uleb128 0x30
 2910 0c46 CB020000 		.4byte	.LASF144
 2911 0c4a 01       		.byte	0x1
 2912 0c4b E9       		.byte	0xe9
 2913 0c4c 49000000 		.4byte	0x49
 2914 0c50 05       		.byte	0x5
 2915 0c51 03       		.byte	0x3
 2916 0c52 00000000 		.4byte	sweepSigs
 2917 0c56 30       		.uleb128 0x30
 2918 0c57 75040000 		.4byte	.LASF145
 2919 0c5b 01       		.byte	0x1
 2920 0c5c EA       		.byte	0xea
 2921 0c5d 86000000 		.4byte	0x86
 2922 0c61 05       		.byte	0x5
 2923 0c62 03       		.byte	0x3
 2924 0c63 00000000 		.4byte	sweepOscPeriod
 2925 0c67 2D       		.uleb128 0x2d
ARM GAS  C:\Users\z80\AppData\Local\Temp\ccqtrITI.s 			page 53


 2926 0c68 62000000 		.4byte	0x62
 2927 0c6c 770C0000 		.4byte	0xc77
 2928 0c70 2F       		.uleb128 0x2f
 2929 0c71 2C030000 		.4byte	0x32c
 2930 0c75 03       		.byte	0x3
 2931 0c76 00       		.byte	0x0
 2932 0c77 30       		.uleb128 0x30
 2933 0c78 77000000 		.4byte	.LASF146
 2934 0c7c 01       		.byte	0x1
 2935 0c7d F2       		.byte	0xf2
 2936 0c7e 670C0000 		.4byte	0xc67
 2937 0c82 05       		.byte	0x5
 2938 0c83 03       		.byte	0x3
 2939 0c84 00000000 		.4byte	sweepDacsFrom
 2940 0c88 30       		.uleb128 0x30
 2941 0c89 C0010000 		.4byte	.LASF147
 2942 0c8d 01       		.byte	0x1
 2943 0c8e F3       		.byte	0xf3
 2944 0c8f 670C0000 		.4byte	0xc67
 2945 0c93 05       		.byte	0x5
 2946 0c94 03       		.byte	0x3
 2947 0c95 00000000 		.4byte	sweepDacsTo
 2948 0c99 30       		.uleb128 0x30
 2949 0c9a 85000000 		.4byte	.LASF148
 2950 0c9e 01       		.byte	0x1
 2951 0c9f F4       		.byte	0xf4
 2952 0ca0 86000000 		.4byte	0x86
 2953 0ca4 05       		.byte	0x5
 2954 0ca5 03       		.byte	0x3
 2955 0ca6 00000000 		.4byte	sweepPeriod
 2956 0caa 2B       		.uleb128 0x2b
 2957 0cab B8000000 		.4byte	.LASF130
 2958 0caf 0F       		.byte	0xf
 2959 0cb0 9404     		.2byte	0x494
 2960 0cb2 8D040000 		.4byte	0x48d
 2961 0cb6 01       		.byte	0x1
 2962 0cb7 01       		.byte	0x1
 2963 0cb8 2B       		.uleb128 0x2b
 2964 0cb9 40040000 		.4byte	.LASF131
 2965 0cbd 0E       		.byte	0xe
 2966 0cbe 6701     		.2byte	0x167
 2967 0cc0 39070000 		.4byte	0x739
 2968 0cc4 01       		.byte	0x1
 2969 0cc5 01       		.byte	0x1
 2970 0cc6 31       		.uleb128 0x31
 2971 0cc7 4F040000 		.4byte	.LASF132
 2972 0ccb 01       		.byte	0x1
 2973 0ccc 0F       		.byte	0xf
 2974 0ccd 72040000 		.4byte	0x472
 2975 0cd1 01       		.byte	0x1
 2976 0cd2 05       		.byte	0x5
 2977 0cd3 03       		.byte	0x3
 2978 0cd4 00000000 		.4byte	adc_queue
 2979 0cd8 31       		.uleb128 0x31
 2980 0cd9 2A000000 		.4byte	.LASF133
 2981 0cdd 01       		.byte	0x1
 2982 0cde 10       		.byte	0x10
ARM GAS  C:\Users\z80\AppData\Local\Temp\ccqtrITI.s 			page 54


 2983 0cdf 5C0B0000 		.4byte	0xb5c
 2984 0ce3 01       		.byte	0x1
 2985 0ce4 05       		.byte	0x5
 2986 0ce5 03       		.byte	0x3
 2987 0ce6 00000000 		.4byte	adc_queue_buffer
 2988 0cea 31       		.uleb128 0x31
 2989 0ceb 91050000 		.4byte	.LASF134
 2990 0cef 01       		.byte	0x1
 2991 0cf0 12       		.byte	0x12
 2992 0cf1 72040000 		.4byte	0x472
 2993 0cf5 01       		.byte	0x1
 2994 0cf6 05       		.byte	0x5
 2995 0cf7 03       		.byte	0x3
 2996 0cf8 00000000 		.4byte	sweep_queue
 2997 0cfc 31       		.uleb128 0x31
 2998 0cfd 74030000 		.4byte	.LASF135
 2999 0d01 01       		.byte	0x1
 3000 0d02 13       		.byte	0x13
 3001 0d03 5C0B0000 		.4byte	0xb5c
 3002 0d07 01       		.byte	0x1
 3003 0d08 05       		.byte	0x5
 3004 0d09 03       		.byte	0x3
 3005 0d0a 00000000 		.4byte	sweep_queue_buffer
 3006 0d0e 31       		.uleb128 0x31
 3007 0d0f 5A010000 		.4byte	.LASF136
 3008 0d13 01       		.byte	0x1
 3009 0d14 15       		.byte	0x15
 3010 0d15 7D040000 		.4byte	0x47d
 3011 0d19 01       		.byte	0x1
 3012 0d1a 05       		.byte	0x5
 3013 0d1b 03       		.byte	0x3
 3014 0d1c 00000000 		.4byte	sweepCmdQueue
 3015 0d20 31       		.uleb128 0x31
 3016 0d21 08040000 		.4byte	.LASF137
 3017 0d25 01       		.byte	0x1
 3018 0d26 16       		.byte	0x16
 3019 0d27 A10B0000 		.4byte	0xba1
 3020 0d2b 01       		.byte	0x1
 3021 0d2c 05       		.byte	0x5
 3022 0d2d 03       		.byte	0x3
 3023 0d2e 00000000 		.4byte	sweepCmdBuffer
 3024 0d32 31       		.uleb128 0x31
 3025 0d33 9A040000 		.4byte	.LASF138
 3026 0d37 01       		.byte	0x1
 3027 0d38 18       		.byte	0x18
 3028 0d39 BE0B0000 		.4byte	0xbbe
 3029 0d3d 01       		.byte	0x1
 3030 0d3e 05       		.byte	0x5
 3031 0d3f 03       		.byte	0x3
 3032 0d40 00000000 		.4byte	adc_rx_buffer
 3033 0d44 31       		.uleb128 0x31
 3034 0d45 52000000 		.4byte	.LASF141
 3035 0d49 01       		.byte	0x1
 3036 0d4a 1E       		.byte	0x1e
 3037 0d4b 29000000 		.4byte	0x29
 3038 0d4f 01       		.byte	0x1
 3039 0d50 05       		.byte	0x5
ARM GAS  C:\Users\z80\AppData\Local\Temp\ccqtrITI.s 			page 55


 3040 0d51 03       		.byte	0x3
 3041 0d52 00000000 		.4byte	signalMask
 3042 0d56 31       		.uleb128 0x31
 3043 0d57 6A000000 		.4byte	.LASF127
 3044 0d5b 01       		.byte	0x1
 3045 0d5c 1F       		.byte	0x1f
 3046 0d5d 29000000 		.4byte	0x29
 3047 0d61 01       		.byte	0x1
 3048 0d62 05       		.byte	0x5
 3049 0d63 03       		.byte	0x3
 3050 0d64 00000000 		.4byte	period
 3051 0d68 31       		.uleb128 0x31
 3052 0d69 D2000000 		.4byte	.LASF142
 3053 0d6d 01       		.byte	0x1
 3054 0d6e 20       		.byte	0x20
 3055 0d6f 29000000 		.4byte	0x29
 3056 0d73 01       		.byte	0x1
 3057 0d74 05       		.byte	0x5
 3058 0d75 03       		.byte	0x3
 3059 0d76 00000000 		.4byte	elapsed
 3060 0d7a 00       		.byte	0x0
 3061              		.section	.debug_abbrev
 3062 0000 01       		.uleb128 0x1
 3063 0001 11       		.uleb128 0x11
 3064 0002 01       		.byte	0x1
 3065 0003 25       		.uleb128 0x25
 3066 0004 0E       		.uleb128 0xe
 3067 0005 13       		.uleb128 0x13
 3068 0006 0B       		.uleb128 0xb
 3069 0007 03       		.uleb128 0x3
 3070 0008 0E       		.uleb128 0xe
 3071 0009 1B       		.uleb128 0x1b
 3072 000a 0E       		.uleb128 0xe
 3073 000b 11       		.uleb128 0x11
 3074 000c 01       		.uleb128 0x1
 3075 000d 52       		.uleb128 0x52
 3076 000e 01       		.uleb128 0x1
 3077 000f 55       		.uleb128 0x55
 3078 0010 06       		.uleb128 0x6
 3079 0011 10       		.uleb128 0x10
 3080 0012 06       		.uleb128 0x6
 3081 0013 00       		.byte	0x0
 3082 0014 00       		.byte	0x0
 3083 0015 02       		.uleb128 0x2
 3084 0016 24       		.uleb128 0x24
 3085 0017 00       		.byte	0x0
 3086 0018 0B       		.uleb128 0xb
 3087 0019 0B       		.uleb128 0xb
 3088 001a 3E       		.uleb128 0x3e
 3089 001b 0B       		.uleb128 0xb
 3090 001c 03       		.uleb128 0x3
 3091 001d 08       		.uleb128 0x8
 3092 001e 00       		.byte	0x0
 3093 001f 00       		.byte	0x0
 3094 0020 03       		.uleb128 0x3
 3095 0021 16       		.uleb128 0x16
 3096 0022 00       		.byte	0x0
ARM GAS  C:\Users\z80\AppData\Local\Temp\ccqtrITI.s 			page 56


 3097 0023 03       		.uleb128 0x3
 3098 0024 0E       		.uleb128 0xe
 3099 0025 3A       		.uleb128 0x3a
 3100 0026 0B       		.uleb128 0xb
 3101 0027 3B       		.uleb128 0x3b
 3102 0028 0B       		.uleb128 0xb
 3103 0029 49       		.uleb128 0x49
 3104 002a 13       		.uleb128 0x13
 3105 002b 00       		.byte	0x0
 3106 002c 00       		.byte	0x0
 3107 002d 04       		.uleb128 0x4
 3108 002e 24       		.uleb128 0x24
 3109 002f 00       		.byte	0x0
 3110 0030 0B       		.uleb128 0xb
 3111 0031 0B       		.uleb128 0xb
 3112 0032 3E       		.uleb128 0x3e
 3113 0033 0B       		.uleb128 0xb
 3114 0034 03       		.uleb128 0x3
 3115 0035 0E       		.uleb128 0xe
 3116 0036 00       		.byte	0x0
 3117 0037 00       		.byte	0x0
 3118 0038 05       		.uleb128 0x5
 3119 0039 13       		.uleb128 0x13
 3120 003a 01       		.byte	0x1
 3121 003b 03       		.uleb128 0x3
 3122 003c 0E       		.uleb128 0xe
 3123 003d 0B       		.uleb128 0xb
 3124 003e 0B       		.uleb128 0xb
 3125 003f 3A       		.uleb128 0x3a
 3126 0040 0B       		.uleb128 0xb
 3127 0041 3B       		.uleb128 0x3b
 3128 0042 0B       		.uleb128 0xb
 3129 0043 01       		.uleb128 0x1
 3130 0044 13       		.uleb128 0x13
 3131 0045 00       		.byte	0x0
 3132 0046 00       		.byte	0x0
 3133 0047 06       		.uleb128 0x6
 3134 0048 0D       		.uleb128 0xd
 3135 0049 00       		.byte	0x0
 3136 004a 03       		.uleb128 0x3
 3137 004b 0E       		.uleb128 0xe
 3138 004c 3A       		.uleb128 0x3a
 3139 004d 0B       		.uleb128 0xb
 3140 004e 3B       		.uleb128 0x3b
 3141 004f 0B       		.uleb128 0xb
 3142 0050 49       		.uleb128 0x49
 3143 0051 13       		.uleb128 0x13
 3144 0052 38       		.uleb128 0x38
 3145 0053 0A       		.uleb128 0xa
 3146 0054 00       		.byte	0x0
 3147 0055 00       		.byte	0x0
 3148 0056 07       		.uleb128 0x7
 3149 0057 0D       		.uleb128 0xd
 3150 0058 00       		.byte	0x0
 3151 0059 03       		.uleb128 0x3
 3152 005a 08       		.uleb128 0x8
 3153 005b 3A       		.uleb128 0x3a
ARM GAS  C:\Users\z80\AppData\Local\Temp\ccqtrITI.s 			page 57


 3154 005c 0B       		.uleb128 0xb
 3155 005d 3B       		.uleb128 0x3b
 3156 005e 0B       		.uleb128 0xb
 3157 005f 49       		.uleb128 0x49
 3158 0060 13       		.uleb128 0x13
 3159 0061 38       		.uleb128 0x38
 3160 0062 0A       		.uleb128 0xa
 3161 0063 00       		.byte	0x0
 3162 0064 00       		.byte	0x0
 3163 0065 08       		.uleb128 0x8
 3164 0066 13       		.uleb128 0x13
 3165 0067 01       		.byte	0x1
 3166 0068 0B       		.uleb128 0xb
 3167 0069 0B       		.uleb128 0xb
 3168 006a 3A       		.uleb128 0x3a
 3169 006b 0B       		.uleb128 0xb
 3170 006c 3B       		.uleb128 0x3b
 3171 006d 0B       		.uleb128 0xb
 3172 006e 01       		.uleb128 0x1
 3173 006f 13       		.uleb128 0x13
 3174 0070 00       		.byte	0x0
 3175 0071 00       		.byte	0x0
 3176 0072 09       		.uleb128 0x9
 3177 0073 0F       		.uleb128 0xf
 3178 0074 00       		.byte	0x0
 3179 0075 0B       		.uleb128 0xb
 3180 0076 0B       		.uleb128 0xb
 3181 0077 49       		.uleb128 0x49
 3182 0078 13       		.uleb128 0x13
 3183 0079 00       		.byte	0x0
 3184 007a 00       		.byte	0x0
 3185 007b 0A       		.uleb128 0xa
 3186 007c 0F       		.uleb128 0xf
 3187 007d 00       		.byte	0x0
 3188 007e 0B       		.uleb128 0xb
 3189 007f 0B       		.uleb128 0xb
 3190 0080 00       		.byte	0x0
 3191 0081 00       		.byte	0x0
 3192 0082 0B       		.uleb128 0xb
 3193 0083 0D       		.uleb128 0xd
 3194 0084 00       		.byte	0x0
 3195 0085 03       		.uleb128 0x3
 3196 0086 08       		.uleb128 0x8
 3197 0087 3A       		.uleb128 0x3a
 3198 0088 0B       		.uleb128 0xb
 3199 0089 3B       		.uleb128 0x3b
 3200 008a 05       		.uleb128 0x5
 3201 008b 49       		.uleb128 0x49
 3202 008c 13       		.uleb128 0x13
 3203 008d 38       		.uleb128 0x38
 3204 008e 0A       		.uleb128 0xa
 3205 008f 00       		.byte	0x0
 3206 0090 00       		.byte	0x0
 3207 0091 0C       		.uleb128 0xc
 3208 0092 13       		.uleb128 0x13
 3209 0093 01       		.byte	0x1
 3210 0094 03       		.uleb128 0x3
ARM GAS  C:\Users\z80\AppData\Local\Temp\ccqtrITI.s 			page 58


 3211 0095 0E       		.uleb128 0xe
 3212 0096 0B       		.uleb128 0xb
 3213 0097 0B       		.uleb128 0xb
 3214 0098 3A       		.uleb128 0x3a
 3215 0099 0B       		.uleb128 0xb
 3216 009a 3B       		.uleb128 0x3b
 3217 009b 05       		.uleb128 0x5
 3218 009c 01       		.uleb128 0x1
 3219 009d 13       		.uleb128 0x13
 3220 009e 00       		.byte	0x0
 3221 009f 00       		.byte	0x0
 3222 00a0 0D       		.uleb128 0xd
 3223 00a1 35       		.uleb128 0x35
 3224 00a2 00       		.byte	0x0
 3225 00a3 49       		.uleb128 0x49
 3226 00a4 13       		.uleb128 0x13
 3227 00a5 00       		.byte	0x0
 3228 00a6 00       		.byte	0x0
 3229 00a7 0E       		.uleb128 0xe
 3230 00a8 24       		.uleb128 0x24
 3231 00a9 00       		.byte	0x0
 3232 00aa 0B       		.uleb128 0xb
 3233 00ab 0B       		.uleb128 0xb
 3234 00ac 3E       		.uleb128 0x3e
 3235 00ad 0B       		.uleb128 0xb
 3236 00ae 00       		.byte	0x0
 3237 00af 00       		.byte	0x0
 3238 00b0 0F       		.uleb128 0xf
 3239 00b1 17       		.uleb128 0x17
 3240 00b2 01       		.byte	0x1
 3241 00b3 0B       		.uleb128 0xb
 3242 00b4 0B       		.uleb128 0xb
 3243 00b5 3A       		.uleb128 0x3a
 3244 00b6 0B       		.uleb128 0xb
 3245 00b7 3B       		.uleb128 0x3b
 3246 00b8 0B       		.uleb128 0xb
 3247 00b9 01       		.uleb128 0x1
 3248 00ba 13       		.uleb128 0x13
 3249 00bb 00       		.byte	0x0
 3250 00bc 00       		.byte	0x0
 3251 00bd 10       		.uleb128 0x10
 3252 00be 0D       		.uleb128 0xd
 3253 00bf 00       		.byte	0x0
 3254 00c0 03       		.uleb128 0x3
 3255 00c1 0E       		.uleb128 0xe
 3256 00c2 3A       		.uleb128 0x3a
 3257 00c3 0B       		.uleb128 0xb
 3258 00c4 3B       		.uleb128 0x3b
 3259 00c5 0B       		.uleb128 0xb
 3260 00c6 49       		.uleb128 0x49
 3261 00c7 13       		.uleb128 0x13
 3262 00c8 00       		.byte	0x0
 3263 00c9 00       		.byte	0x0
 3264 00ca 11       		.uleb128 0x11
 3265 00cb 26       		.uleb128 0x26
 3266 00cc 00       		.byte	0x0
 3267 00cd 49       		.uleb128 0x49
ARM GAS  C:\Users\z80\AppData\Local\Temp\ccqtrITI.s 			page 59


 3268 00ce 13       		.uleb128 0x13
 3269 00cf 00       		.byte	0x0
 3270 00d0 00       		.byte	0x0
 3271 00d1 12       		.uleb128 0x12
 3272 00d2 15       		.uleb128 0x15
 3273 00d3 01       		.byte	0x1
 3274 00d4 27       		.uleb128 0x27
 3275 00d5 0C       		.uleb128 0xc
 3276 00d6 01       		.uleb128 0x1
 3277 00d7 13       		.uleb128 0x13
 3278 00d8 00       		.byte	0x0
 3279 00d9 00       		.byte	0x0
 3280 00da 13       		.uleb128 0x13
 3281 00db 05       		.uleb128 0x5
 3282 00dc 00       		.byte	0x0
 3283 00dd 49       		.uleb128 0x49
 3284 00de 13       		.uleb128 0x13
 3285 00df 00       		.byte	0x0
 3286 00e0 00       		.byte	0x0
 3287 00e1 14       		.uleb128 0x14
 3288 00e2 13       		.uleb128 0x13
 3289 00e3 01       		.byte	0x1
 3290 00e4 0B       		.uleb128 0xb
 3291 00e5 0B       		.uleb128 0xb
 3292 00e6 3A       		.uleb128 0x3a
 3293 00e7 0B       		.uleb128 0xb
 3294 00e8 3B       		.uleb128 0x3b
 3295 00e9 05       		.uleb128 0x5
 3296 00ea 01       		.uleb128 0x1
 3297 00eb 13       		.uleb128 0x13
 3298 00ec 00       		.byte	0x0
 3299 00ed 00       		.byte	0x0
 3300 00ee 15       		.uleb128 0x15
 3301 00ef 0D       		.uleb128 0xd
 3302 00f0 00       		.byte	0x0
 3303 00f1 03       		.uleb128 0x3
 3304 00f2 0E       		.uleb128 0xe
 3305 00f3 3A       		.uleb128 0x3a
 3306 00f4 0B       		.uleb128 0xb
 3307 00f5 3B       		.uleb128 0x3b
 3308 00f6 05       		.uleb128 0x5
 3309 00f7 49       		.uleb128 0x49
 3310 00f8 13       		.uleb128 0x13
 3311 00f9 38       		.uleb128 0x38
 3312 00fa 0A       		.uleb128 0xa
 3313 00fb 00       		.byte	0x0
 3314 00fc 00       		.byte	0x0
 3315 00fd 16       		.uleb128 0x16
 3316 00fe 16       		.uleb128 0x16
 3317 00ff 00       		.byte	0x0
 3318 0100 03       		.uleb128 0x3
 3319 0101 0E       		.uleb128 0xe
 3320 0102 3A       		.uleb128 0x3a
 3321 0103 0B       		.uleb128 0xb
 3322 0104 3B       		.uleb128 0x3b
 3323 0105 05       		.uleb128 0x5
 3324 0106 49       		.uleb128 0x49
ARM GAS  C:\Users\z80\AppData\Local\Temp\ccqtrITI.s 			page 60


 3325 0107 13       		.uleb128 0x13
 3326 0108 00       		.byte	0x0
 3327 0109 00       		.byte	0x0
 3328 010a 17       		.uleb128 0x17
 3329 010b 04       		.uleb128 0x4
 3330 010c 01       		.byte	0x1
 3331 010d 0B       		.uleb128 0xb
 3332 010e 0B       		.uleb128 0xb
 3333 010f 3A       		.uleb128 0x3a
 3334 0110 0B       		.uleb128 0xb
 3335 0111 3B       		.uleb128 0x3b
 3336 0112 0B       		.uleb128 0xb
 3337 0113 01       		.uleb128 0x1
 3338 0114 13       		.uleb128 0x13
 3339 0115 00       		.byte	0x0
 3340 0116 00       		.byte	0x0
 3341 0117 18       		.uleb128 0x18
 3342 0118 28       		.uleb128 0x28
 3343 0119 00       		.byte	0x0
 3344 011a 03       		.uleb128 0x3
 3345 011b 0E       		.uleb128 0xe
 3346 011c 1C       		.uleb128 0x1c
 3347 011d 0D       		.uleb128 0xd
 3348 011e 00       		.byte	0x0
 3349 011f 00       		.byte	0x0
 3350 0120 19       		.uleb128 0x19
 3351 0121 2E       		.uleb128 0x2e
 3352 0122 01       		.byte	0x1
 3353 0123 03       		.uleb128 0x3
 3354 0124 0E       		.uleb128 0xe
 3355 0125 3A       		.uleb128 0x3a
 3356 0126 0B       		.uleb128 0xb
 3357 0127 3B       		.uleb128 0x3b
 3358 0128 0B       		.uleb128 0xb
 3359 0129 27       		.uleb128 0x27
 3360 012a 0C       		.uleb128 0xc
 3361 012b 20       		.uleb128 0x20
 3362 012c 0B       		.uleb128 0xb
 3363 012d 01       		.uleb128 0x1
 3364 012e 13       		.uleb128 0x13
 3365 012f 00       		.byte	0x0
 3366 0130 00       		.byte	0x0
 3367 0131 1A       		.uleb128 0x1a
 3368 0132 05       		.uleb128 0x5
 3369 0133 00       		.byte	0x0
 3370 0134 03       		.uleb128 0x3
 3371 0135 0E       		.uleb128 0xe
 3372 0136 3A       		.uleb128 0x3a
 3373 0137 0B       		.uleb128 0xb
 3374 0138 3B       		.uleb128 0x3b
 3375 0139 0B       		.uleb128 0xb
 3376 013a 49       		.uleb128 0x49
 3377 013b 13       		.uleb128 0x13
 3378 013c 00       		.byte	0x0
 3379 013d 00       		.byte	0x0
 3380 013e 1B       		.uleb128 0x1b
 3381 013f 2E       		.uleb128 0x2e
ARM GAS  C:\Users\z80\AppData\Local\Temp\ccqtrITI.s 			page 61


 3382 0140 01       		.byte	0x1
 3383 0141 03       		.uleb128 0x3
 3384 0142 0E       		.uleb128 0xe
 3385 0143 3A       		.uleb128 0x3a
 3386 0144 0B       		.uleb128 0xb
 3387 0145 3B       		.uleb128 0x3b
 3388 0146 0B       		.uleb128 0xb
 3389 0147 27       		.uleb128 0x27
 3390 0148 0C       		.uleb128 0xc
 3391 0149 11       		.uleb128 0x11
 3392 014a 01       		.uleb128 0x1
 3393 014b 12       		.uleb128 0x12
 3394 014c 01       		.uleb128 0x1
 3395 014d 40       		.uleb128 0x40
 3396 014e 06       		.uleb128 0x6
 3397 014f 01       		.uleb128 0x1
 3398 0150 13       		.uleb128 0x13
 3399 0151 00       		.byte	0x0
 3400 0152 00       		.byte	0x0
 3401 0153 1C       		.uleb128 0x1c
 3402 0154 05       		.uleb128 0x5
 3403 0155 00       		.byte	0x0
 3404 0156 03       		.uleb128 0x3
 3405 0157 0E       		.uleb128 0xe
 3406 0158 3A       		.uleb128 0x3a
 3407 0159 0B       		.uleb128 0xb
 3408 015a 3B       		.uleb128 0x3b
 3409 015b 0B       		.uleb128 0xb
 3410 015c 49       		.uleb128 0x49
 3411 015d 13       		.uleb128 0x13
 3412 015e 02       		.uleb128 0x2
 3413 015f 06       		.uleb128 0x6
 3414 0160 00       		.byte	0x0
 3415 0161 00       		.byte	0x0
 3416 0162 1D       		.uleb128 0x1d
 3417 0163 34       		.uleb128 0x34
 3418 0164 00       		.byte	0x0
 3419 0165 03       		.uleb128 0x3
 3420 0166 0E       		.uleb128 0xe
 3421 0167 3A       		.uleb128 0x3a
 3422 0168 0B       		.uleb128 0xb
 3423 0169 3B       		.uleb128 0x3b
 3424 016a 0B       		.uleb128 0xb
 3425 016b 49       		.uleb128 0x49
 3426 016c 13       		.uleb128 0x13
 3427 016d 02       		.uleb128 0x2
 3428 016e 06       		.uleb128 0x6
 3429 016f 00       		.byte	0x0
 3430 0170 00       		.byte	0x0
 3431 0171 1E       		.uleb128 0x1e
 3432 0172 0B       		.uleb128 0xb
 3433 0173 01       		.byte	0x1
 3434 0174 11       		.uleb128 0x11
 3435 0175 01       		.uleb128 0x1
 3436 0176 12       		.uleb128 0x12
 3437 0177 01       		.uleb128 0x1
 3438 0178 01       		.uleb128 0x1
ARM GAS  C:\Users\z80\AppData\Local\Temp\ccqtrITI.s 			page 62


 3439 0179 13       		.uleb128 0x13
 3440 017a 00       		.byte	0x0
 3441 017b 00       		.byte	0x0
 3442 017c 1F       		.uleb128 0x1f
 3443 017d 34       		.uleb128 0x34
 3444 017e 00       		.byte	0x0
 3445 017f 03       		.uleb128 0x3
 3446 0180 08       		.uleb128 0x8
 3447 0181 3A       		.uleb128 0x3a
 3448 0182 0B       		.uleb128 0xb
 3449 0183 3B       		.uleb128 0x3b
 3450 0184 0B       		.uleb128 0xb
 3451 0185 49       		.uleb128 0x49
 3452 0186 13       		.uleb128 0x13
 3453 0187 02       		.uleb128 0x2
 3454 0188 06       		.uleb128 0x6
 3455 0189 00       		.byte	0x0
 3456 018a 00       		.byte	0x0
 3457 018b 20       		.uleb128 0x20
 3458 018c 1D       		.uleb128 0x1d
 3459 018d 01       		.byte	0x1
 3460 018e 31       		.uleb128 0x31
 3461 018f 13       		.uleb128 0x13
 3462 0190 52       		.uleb128 0x52
 3463 0191 01       		.uleb128 0x1
 3464 0192 55       		.uleb128 0x55
 3465 0193 06       		.uleb128 0x6
 3466 0194 58       		.uleb128 0x58
 3467 0195 0B       		.uleb128 0xb
 3468 0196 59       		.uleb128 0x59
 3469 0197 0B       		.uleb128 0xb
 3470 0198 01       		.uleb128 0x1
 3471 0199 13       		.uleb128 0x13
 3472 019a 00       		.byte	0x0
 3473 019b 00       		.byte	0x0
 3474 019c 21       		.uleb128 0x21
 3475 019d 05       		.uleb128 0x5
 3476 019e 00       		.byte	0x0
 3477 019f 31       		.uleb128 0x31
 3478 01a0 13       		.uleb128 0x13
 3479 01a1 02       		.uleb128 0x2
 3480 01a2 06       		.uleb128 0x6
 3481 01a3 00       		.byte	0x0
 3482 01a4 00       		.byte	0x0
 3483 01a5 22       		.uleb128 0x22
 3484 01a6 0B       		.uleb128 0xb
 3485 01a7 01       		.byte	0x1
 3486 01a8 11       		.uleb128 0x11
 3487 01a9 01       		.uleb128 0x1
 3488 01aa 12       		.uleb128 0x12
 3489 01ab 01       		.uleb128 0x1
 3490 01ac 00       		.byte	0x0
 3491 01ad 00       		.byte	0x0
 3492 01ae 23       		.uleb128 0x23
 3493 01af 2E       		.uleb128 0x2e
 3494 01b0 01       		.byte	0x1
 3495 01b1 3F       		.uleb128 0x3f
ARM GAS  C:\Users\z80\AppData\Local\Temp\ccqtrITI.s 			page 63


 3496 01b2 0C       		.uleb128 0xc
 3497 01b3 03       		.uleb128 0x3
 3498 01b4 0E       		.uleb128 0xe
 3499 01b5 3A       		.uleb128 0x3a
 3500 01b6 0B       		.uleb128 0xb
 3501 01b7 3B       		.uleb128 0x3b
 3502 01b8 0B       		.uleb128 0xb
 3503 01b9 27       		.uleb128 0x27
 3504 01ba 0C       		.uleb128 0xc
 3505 01bb 11       		.uleb128 0x11
 3506 01bc 01       		.uleb128 0x1
 3507 01bd 12       		.uleb128 0x12
 3508 01be 01       		.uleb128 0x1
 3509 01bf 40       		.uleb128 0x40
 3510 01c0 06       		.uleb128 0x6
 3511 01c1 01       		.uleb128 0x1
 3512 01c2 13       		.uleb128 0x13
 3513 01c3 00       		.byte	0x0
 3514 01c4 00       		.byte	0x0
 3515 01c5 24       		.uleb128 0x24
 3516 01c6 1D       		.uleb128 0x1d
 3517 01c7 01       		.byte	0x1
 3518 01c8 31       		.uleb128 0x31
 3519 01c9 13       		.uleb128 0x13
 3520 01ca 52       		.uleb128 0x52
 3521 01cb 01       		.uleb128 0x1
 3522 01cc 55       		.uleb128 0x55
 3523 01cd 06       		.uleb128 0x6
 3524 01ce 58       		.uleb128 0x58
 3525 01cf 0B       		.uleb128 0xb
 3526 01d0 59       		.uleb128 0x59
 3527 01d1 0B       		.uleb128 0xb
 3528 01d2 00       		.byte	0x0
 3529 01d3 00       		.byte	0x0
 3530 01d4 25       		.uleb128 0x25
 3531 01d5 2E       		.uleb128 0x2e
 3532 01d6 00       		.byte	0x0
 3533 01d7 3F       		.uleb128 0x3f
 3534 01d8 0C       		.uleb128 0xc
 3535 01d9 03       		.uleb128 0x3
 3536 01da 0E       		.uleb128 0xe
 3537 01db 3A       		.uleb128 0x3a
 3538 01dc 0B       		.uleb128 0xb
 3539 01dd 3B       		.uleb128 0x3b
 3540 01de 0B       		.uleb128 0xb
 3541 01df 27       		.uleb128 0x27
 3542 01e0 0C       		.uleb128 0xc
 3543 01e1 11       		.uleb128 0x11
 3544 01e2 01       		.uleb128 0x1
 3545 01e3 12       		.uleb128 0x12
 3546 01e4 01       		.uleb128 0x1
 3547 01e5 40       		.uleb128 0x40
 3548 01e6 06       		.uleb128 0x6
 3549 01e7 00       		.byte	0x0
 3550 01e8 00       		.byte	0x0
 3551 01e9 26       		.uleb128 0x26
 3552 01ea 2E       		.uleb128 0x2e
ARM GAS  C:\Users\z80\AppData\Local\Temp\ccqtrITI.s 			page 64


 3553 01eb 00       		.byte	0x0
 3554 01ec 3F       		.uleb128 0x3f
 3555 01ed 0C       		.uleb128 0xc
 3556 01ee 03       		.uleb128 0x3
 3557 01ef 0E       		.uleb128 0xe
 3558 01f0 3A       		.uleb128 0x3a
 3559 01f1 0B       		.uleb128 0xb
 3560 01f2 3B       		.uleb128 0x3b
 3561 01f3 0B       		.uleb128 0xb
 3562 01f4 27       		.uleb128 0x27
 3563 01f5 0C       		.uleb128 0xc
 3564 01f6 49       		.uleb128 0x49
 3565 01f7 13       		.uleb128 0x13
 3566 01f8 11       		.uleb128 0x11
 3567 01f9 01       		.uleb128 0x1
 3568 01fa 12       		.uleb128 0x12
 3569 01fb 01       		.uleb128 0x1
 3570 01fc 40       		.uleb128 0x40
 3571 01fd 0A       		.uleb128 0xa
 3572 01fe 00       		.byte	0x0
 3573 01ff 00       		.byte	0x0
 3574 0200 27       		.uleb128 0x27
 3575 0201 0B       		.uleb128 0xb
 3576 0202 01       		.byte	0x1
 3577 0203 55       		.uleb128 0x55
 3578 0204 06       		.uleb128 0x6
 3579 0205 01       		.uleb128 0x1
 3580 0206 13       		.uleb128 0x13
 3581 0207 00       		.byte	0x0
 3582 0208 00       		.byte	0x0
 3583 0209 28       		.uleb128 0x28
 3584 020a 2E       		.uleb128 0x2e
 3585 020b 01       		.byte	0x1
 3586 020c 3F       		.uleb128 0x3f
 3587 020d 0C       		.uleb128 0xc
 3588 020e 03       		.uleb128 0x3
 3589 020f 0E       		.uleb128 0xe
 3590 0210 3A       		.uleb128 0x3a
 3591 0211 0B       		.uleb128 0xb
 3592 0212 3B       		.uleb128 0x3b
 3593 0213 0B       		.uleb128 0xb
 3594 0214 27       		.uleb128 0x27
 3595 0215 0C       		.uleb128 0xc
 3596 0216 11       		.uleb128 0x11
 3597 0217 01       		.uleb128 0x1
 3598 0218 12       		.uleb128 0x12
 3599 0219 01       		.uleb128 0x1
 3600 021a 40       		.uleb128 0x40
 3601 021b 0A       		.uleb128 0xa
 3602 021c 01       		.uleb128 0x1
 3603 021d 13       		.uleb128 0x13
 3604 021e 00       		.byte	0x0
 3605 021f 00       		.byte	0x0
 3606 0220 29       		.uleb128 0x29
 3607 0221 05       		.uleb128 0x5
 3608 0222 00       		.byte	0x0
 3609 0223 03       		.uleb128 0x3
ARM GAS  C:\Users\z80\AppData\Local\Temp\ccqtrITI.s 			page 65


 3610 0224 0E       		.uleb128 0xe
 3611 0225 3A       		.uleb128 0x3a
 3612 0226 0B       		.uleb128 0xb
 3613 0227 3B       		.uleb128 0x3b
 3614 0228 0B       		.uleb128 0xb
 3615 0229 49       		.uleb128 0x49
 3616 022a 13       		.uleb128 0x13
 3617 022b 02       		.uleb128 0x2
 3618 022c 0A       		.uleb128 0xa
 3619 022d 00       		.byte	0x0
 3620 022e 00       		.byte	0x0
 3621 022f 2A       		.uleb128 0x2a
 3622 0230 05       		.uleb128 0x5
 3623 0231 00       		.byte	0x0
 3624 0232 03       		.uleb128 0x3
 3625 0233 08       		.uleb128 0x8
 3626 0234 3A       		.uleb128 0x3a
 3627 0235 0B       		.uleb128 0xb
 3628 0236 3B       		.uleb128 0x3b
 3629 0237 0B       		.uleb128 0xb
 3630 0238 49       		.uleb128 0x49
 3631 0239 13       		.uleb128 0x13
 3632 023a 02       		.uleb128 0x2
 3633 023b 06       		.uleb128 0x6
 3634 023c 00       		.byte	0x0
 3635 023d 00       		.byte	0x0
 3636 023e 2B       		.uleb128 0x2b
 3637 023f 34       		.uleb128 0x34
 3638 0240 00       		.byte	0x0
 3639 0241 03       		.uleb128 0x3
 3640 0242 0E       		.uleb128 0xe
 3641 0243 3A       		.uleb128 0x3a
 3642 0244 0B       		.uleb128 0xb
 3643 0245 3B       		.uleb128 0x3b
 3644 0246 05       		.uleb128 0x5
 3645 0247 49       		.uleb128 0x49
 3646 0248 13       		.uleb128 0x13
 3647 0249 3F       		.uleb128 0x3f
 3648 024a 0C       		.uleb128 0xc
 3649 024b 3C       		.uleb128 0x3c
 3650 024c 0C       		.uleb128 0xc
 3651 024d 00       		.byte	0x0
 3652 024e 00       		.byte	0x0
 3653 024f 2C       		.uleb128 0x2c
 3654 0250 34       		.uleb128 0x34
 3655 0251 00       		.byte	0x0
 3656 0252 03       		.uleb128 0x3
 3657 0253 0E       		.uleb128 0xe
 3658 0254 3A       		.uleb128 0x3a
 3659 0255 0B       		.uleb128 0xb
 3660 0256 3B       		.uleb128 0x3b
 3661 0257 0B       		.uleb128 0xb
 3662 0258 49       		.uleb128 0x49
 3663 0259 13       		.uleb128 0x13
 3664 025a 3F       		.uleb128 0x3f
 3665 025b 0C       		.uleb128 0xc
 3666 025c 3C       		.uleb128 0x3c
ARM GAS  C:\Users\z80\AppData\Local\Temp\ccqtrITI.s 			page 66


 3667 025d 0C       		.uleb128 0xc
 3668 025e 00       		.byte	0x0
 3669 025f 00       		.byte	0x0
 3670 0260 2D       		.uleb128 0x2d
 3671 0261 01       		.uleb128 0x1
 3672 0262 01       		.byte	0x1
 3673 0263 49       		.uleb128 0x49
 3674 0264 13       		.uleb128 0x13
 3675 0265 01       		.uleb128 0x1
 3676 0266 13       		.uleb128 0x13
 3677 0267 00       		.byte	0x0
 3678 0268 00       		.byte	0x0
 3679 0269 2E       		.uleb128 0x2e
 3680 026a 21       		.uleb128 0x21
 3681 026b 00       		.byte	0x0
 3682 026c 49       		.uleb128 0x49
 3683 026d 13       		.uleb128 0x13
 3684 026e 2F       		.uleb128 0x2f
 3685 026f 05       		.uleb128 0x5
 3686 0270 00       		.byte	0x0
 3687 0271 00       		.byte	0x0
 3688 0272 2F       		.uleb128 0x2f
 3689 0273 21       		.uleb128 0x21
 3690 0274 00       		.byte	0x0
 3691 0275 49       		.uleb128 0x49
 3692 0276 13       		.uleb128 0x13
 3693 0277 2F       		.uleb128 0x2f
 3694 0278 0B       		.uleb128 0xb
 3695 0279 00       		.byte	0x0
 3696 027a 00       		.byte	0x0
 3697 027b 30       		.uleb128 0x30
 3698 027c 34       		.uleb128 0x34
 3699 027d 00       		.byte	0x0
 3700 027e 03       		.uleb128 0x3
 3701 027f 0E       		.uleb128 0xe
 3702 0280 3A       		.uleb128 0x3a
 3703 0281 0B       		.uleb128 0xb
 3704 0282 3B       		.uleb128 0x3b
 3705 0283 0B       		.uleb128 0xb
 3706 0284 49       		.uleb128 0x49
 3707 0285 13       		.uleb128 0x13
 3708 0286 02       		.uleb128 0x2
 3709 0287 0A       		.uleb128 0xa
 3710 0288 00       		.byte	0x0
 3711 0289 00       		.byte	0x0
 3712 028a 31       		.uleb128 0x31
 3713 028b 34       		.uleb128 0x34
 3714 028c 00       		.byte	0x0
 3715 028d 03       		.uleb128 0x3
 3716 028e 0E       		.uleb128 0xe
 3717 028f 3A       		.uleb128 0x3a
 3718 0290 0B       		.uleb128 0xb
 3719 0291 3B       		.uleb128 0x3b
 3720 0292 0B       		.uleb128 0xb
 3721 0293 49       		.uleb128 0x49
 3722 0294 13       		.uleb128 0x13
 3723 0295 3F       		.uleb128 0x3f
ARM GAS  C:\Users\z80\AppData\Local\Temp\ccqtrITI.s 			page 67


 3724 0296 0C       		.uleb128 0xc
 3725 0297 02       		.uleb128 0x2
 3726 0298 0A       		.uleb128 0xa
 3727 0299 00       		.byte	0x0
 3728 029a 00       		.byte	0x0
 3729 029b 00       		.byte	0x0
 3730              		.section	.debug_pubnames,"",%progbits
 3731 0000 39010000 		.4byte	0x139
 3732 0004 0200     		.2byte	0x2
 3733 0006 00000000 		.4byte	.Ldebug_info0
 3734 000a 7B0D0000 		.4byte	0xd7b
 3735 000e 1B090000 		.4byte	0x91b
 3736 0012 696E6974 		.ascii	"initAdc\000"
 3736      41646300 
 3737 001a 4E090000 		.4byte	0x94e
 3738 001e 71756572 		.ascii	"queryAdcI\000"
 3738      79416463 
 3738      4900
 3739 0028 63090000 		.4byte	0x963
 3740 002c 61646351 		.ascii	"adcQueue\000"
 3740      75657565 
 3740      00
 3741 0035 81090000 		.4byte	0x981
 3742 0039 696E7374 		.ascii	"instantAdc\000"
 3742      616E7441 
 3742      646300
 3743 0044 E6090000 		.4byte	0x9e6
 3744 0048 7365744F 		.ascii	"setOscSignals\000"
 3744      73635369 
 3744      676E616C 
 3744      7300
 3745 0056 410A0000 		.4byte	0xa41
 3746 005a 7365744F 		.ascii	"setOscPeriod\000"
 3746      73635065 
 3746      72696F64 
 3746      00
 3747 0067 9C0A0000 		.4byte	0xa9c
 3748 006b 73776565 		.ascii	"sweepData\000"
 3748      70446174 
 3748      6100
 3749 0075 B40A0000 		.4byte	0xab4
 3750 0079 73657453 		.ascii	"setSweepOsc\000"
 3750      77656570 
 3750      4F736300 
 3751 0085 E70A0000 		.4byte	0xae7
 3752 0089 73657453 		.ascii	"setSweep\000"
 3752      77656570 
 3752      00
 3753 0092 C60C0000 		.4byte	0xcc6
 3754 0096 6164635F 		.ascii	"adc_queue\000"
 3754      71756575 
 3754      6500
 3755 00a0 D80C0000 		.4byte	0xcd8
 3756 00a4 6164635F 		.ascii	"adc_queue_buffer\000"
 3756      71756575 
 3756      655F6275 
 3756      66666572 
ARM GAS  C:\Users\z80\AppData\Local\Temp\ccqtrITI.s 			page 68


 3756      00
 3757 00b5 EA0C0000 		.4byte	0xcea
 3758 00b9 73776565 		.ascii	"sweep_queue\000"
 3758      705F7175 
 3758      65756500 
 3759 00c5 FC0C0000 		.4byte	0xcfc
 3760 00c9 73776565 		.ascii	"sweep_queue_buffer\000"
 3760      705F7175 
 3760      6575655F 
 3760      62756666 
 3760      657200
 3761 00dc 0E0D0000 		.4byte	0xd0e
 3762 00e0 73776565 		.ascii	"sweepCmdQueue\000"
 3762      70436D64 
 3762      51756575 
 3762      6500
 3763 00ee 200D0000 		.4byte	0xd20
 3764 00f2 73776565 		.ascii	"sweepCmdBuffer\000"
 3764      70436D64 
 3764      42756666 
 3764      657200
 3765 0101 320D0000 		.4byte	0xd32
 3766 0105 6164635F 		.ascii	"adc_rx_buffer\000"
 3766      72785F62 
 3766      75666665 
 3766      7200
 3767 0113 440D0000 		.4byte	0xd44
 3768 0117 7369676E 		.ascii	"signalMask\000"
 3768      616C4D61 
 3768      736B00
 3769 0122 560D0000 		.4byte	0xd56
 3770 0126 70657269 		.ascii	"period\000"
 3770      6F6400
 3771 012d 680D0000 		.4byte	0xd68
 3772 0131 656C6170 		.ascii	"elapsed\000"
 3772      73656400 
 3773 0139 00000000 		.4byte	0x0
 3774              		.section	.debug_pubtypes,"",%progbits
 3775 0000 2D020000 		.4byte	0x22d
 3776 0004 0200     		.2byte	0x2
 3777 0006 00000000 		.4byte	.Ldebug_info0
 3778 000a 7B0D0000 		.4byte	0xd7b
 3779 000e 30000000 		.4byte	0x30
 3780 0012 73697A65 		.ascii	"size_t\000"
 3780      5F7400
 3781 0019 49000000 		.4byte	0x49
 3782 001d 75696E74 		.ascii	"uint8_t\000"
 3782      385F7400 
 3783 0025 62000000 		.4byte	0x62
 3784 0029 75696E74 		.ascii	"uint16_t\000"
 3784      31365F74 
 3784      00
 3785 0032 74000000 		.4byte	0x74
 3786 0036 696E7433 		.ascii	"int32_t\000"
 3786      325F7400 
 3787 003e 86000000 		.4byte	0x86
 3788 0042 75696E74 		.ascii	"uint32_t\000"
ARM GAS  C:\Users\z80\AppData\Local\Temp\ccqtrITI.s 			page 69


 3788      33325F74 
 3788      00
 3789 004b 9F000000 		.4byte	0x9f
 3790 004f 75696E74 		.ascii	"uint64_t\000"
 3790      36345F74 
 3790      00
 3791 0058 B1000000 		.4byte	0xb1
 3792 005c 746D6F64 		.ascii	"tmode_t\000"
 3792      655F7400 
 3793 0064 BC000000 		.4byte	0xbc
 3794 0068 74737461 		.ascii	"tstate_t\000"
 3794      74655F74 
 3794      00
 3795 0071 C7000000 		.4byte	0xc7
 3796 0075 74707269 		.ascii	"tprio_t\000"
 3796      6F5F7400 
 3797 007d D2000000 		.4byte	0xd2
 3798 0081 6D73675F 		.ascii	"msg_t\000"
 3798      7400
 3799 0087 DD000000 		.4byte	0xdd
 3800 008b 6576656E 		.ascii	"eventmask_t\000"
 3800      746D6173 
 3800      6B5F7400 
 3801 0097 E8000000 		.4byte	0xe8
 3802 009b 73797374 		.ascii	"systime_t\000"
 3802      696D655F 
 3802      7400
 3803 00a5 F3000000 		.4byte	0xf3
 3804 00a9 54687265 		.ascii	"Thread\000"
 3804      616400
 3805 00b0 32020000 		.4byte	0x232
 3806 00b4 54687265 		.ascii	"ThreadsQueue\000"
 3806      61647351 
 3806      75657565 
 3806      00
 3807 00c1 54020000 		.4byte	0x254
 3808 00c5 54687265 		.ascii	"ThreadsList\000"
 3808      6164734C 
 3808      69737400 
 3809 00d1 5F020000 		.4byte	0x25f
 3810 00d5 72656761 		.ascii	"regarm_t\000"
 3810      726D5F74 
 3810      00
 3811 00de 6C020000 		.4byte	0x26c
 3812 00e2 73746B61 		.ascii	"stkalign_t\000"
 3812      6C69676E 
 3812      5F7400
 3813 00ed 77020000 		.4byte	0x277
 3814 00f1 696E7463 		.ascii	"intctx\000"
 3814      747800
 3815 00f8 04030000 		.4byte	0x304
 3816 00fc 636F6E74 		.ascii	"context\000"
 3816      65787400 
 3817 0104 34030000 		.4byte	0x334
 3818 0108 4D757465 		.ascii	"Mutex\000"
 3818      7800
 3819 010e 71030000 		.4byte	0x371
ARM GAS  C:\Users\z80\AppData\Local\Temp\ccqtrITI.s 			page 70


 3820 0112 4D757465 		.ascii	"Mutex\000"
 3820      7800
 3821 0118 FE000000 		.4byte	0xfe
 3822 011c 54687265 		.ascii	"Thread\000"
 3822      616400
 3823 0123 CF030000 		.4byte	0x3cf
 3824 0127 47656E65 		.ascii	"GenericQueue\000"
 3824      72696351 
 3824      75657565 
 3824      00
 3825 0134 49040000 		.4byte	0x449
 3826 0138 716E6F74 		.ascii	"qnotify_t\000"
 3826      6966795F 
 3826      7400
 3827 0142 DA030000 		.4byte	0x3da
 3828 0146 47656E65 		.ascii	"GenericQueue\000"
 3828      72696351 
 3828      75657565 
 3828      00
 3829 0153 72040000 		.4byte	0x472
 3830 0157 496E7075 		.ascii	"InputQueue\000"
 3830      74517565 
 3830      756500
 3831 0162 7D040000 		.4byte	0x47d
 3832 0166 4F757470 		.ascii	"OutputQueue\000"
 3832      75745175 
 3832      65756500 
 3833 0172 D8040000 		.4byte	0x4d8
 3834 0176 444D415F 		.ascii	"DMA_Channel_TypeDef\000"
 3834      4368616E 
 3834      6E656C5F 
 3834      54797065 
 3834      44656600 
 3835 018a 57050000 		.4byte	0x557
 3836 018e 4750494F 		.ascii	"GPIO_TypeDef\000"
 3836      5F547970 
 3836      65446566 
 3836      00
 3837 019b 79060000 		.4byte	0x679
 3838 019f 5350495F 		.ascii	"SPI_TypeDef\000"
 3838      54797065 
 3838      44656600 
 3839 01ab E0060000 		.4byte	0x6e0
 3840 01af 73746D33 		.ascii	"stm32_dma_stream_t\000"
 3840      325F646D 
 3840      615F7374 
 3840      7265616D 
 3840      5F7400
 3841 01c2 EB060000 		.4byte	0x6eb
 3842 01c6 696F706F 		.ascii	"ioportmask_t\000"
 3842      72746D61 
 3842      736B5F74 
 3842      00
 3843 01d3 F6060000 		.4byte	0x6f6
 3844 01d7 696F706F 		.ascii	"ioportid_t\000"
 3844      72746964 
 3844      5F7400
ARM GAS  C:\Users\z80\AppData\Local\Temp\ccqtrITI.s 			page 71


 3845 01e2 2E070000 		.4byte	0x72e
 3846 01e6 73706973 		.ascii	"spistate_t\000"
 3846      74617465 
 3846      5F7400
 3847 01f1 39070000 		.4byte	0x739
 3848 01f5 53504944 		.ascii	"SPIDriver\000"
 3848      72697665 
 3848      7200
 3849 01ff BC070000 		.4byte	0x7bc
 3850 0203 73706963 		.ascii	"spicallback_t\000"
 3850      616C6C62 
 3850      61636B5F 
 3850      7400
 3851 0211 26080000 		.4byte	0x826
 3852 0215 53504943 		.ascii	"SPIConfig\000"
 3852      6F6E6669 
 3852      6700
 3853 021f 45070000 		.4byte	0x745
 3854 0223 53504944 		.ascii	"SPIDriver\000"
 3854      72697665 
 3854      7200
 3855 022d 00000000 		.4byte	0x0
 3856              		.section	.debug_aranges,"",%progbits
 3857 0000 64000000 		.4byte	0x64
 3858 0004 0200     		.2byte	0x2
 3859 0006 00000000 		.4byte	.Ldebug_info0
 3860 000a 04       		.byte	0x4
 3861 000b 00       		.byte	0x0
 3862 000c 0000     		.2byte	0x0
 3863 000e 0000     		.2byte	0x0
 3864 0010 00000000 		.4byte	.LFB64
 3865 0014 80010000 		.4byte	.LFE64-.LFB64
 3866 0018 00000000 		.4byte	.LFB62
 3867 001c D0000000 		.4byte	.LFE62-.LFB62
 3868 0020 00000000 		.4byte	.LFB63
 3869 0024 24000000 		.4byte	.LFE63-.LFB63
 3870 0028 00000000 		.4byte	.LFB65
 3871 002c 0A000000 		.4byte	.LFE65-.LFB65
 3872 0030 00000000 		.4byte	.LFB67
 3873 0034 34000000 		.4byte	.LFE67-.LFB67
 3874 0038 00000000 		.4byte	.LFB68
 3875 003c 24000000 		.4byte	.LFE68-.LFB68
 3876 0040 00000000 		.4byte	.LFB69
 3877 0044 24000000 		.4byte	.LFE69-.LFB69
 3878 0048 00000000 		.4byte	.LFB70
 3879 004c 0A000000 		.4byte	.LFE70-.LFB70
 3880 0050 00000000 		.4byte	.LFB71
 3881 0054 16000000 		.4byte	.LFE71-.LFB71
 3882 0058 00000000 		.4byte	.LFB72
 3883 005c 68000000 		.4byte	.LFE72-.LFB72
 3884 0060 00000000 		.4byte	0x0
 3885 0064 00000000 		.4byte	0x0
 3886              		.section	.debug_ranges,"",%progbits
 3887              	.Ldebug_ranges0:
 3888 0000 1E000000 		.4byte	.LBB10
 3889 0004 22000000 		.4byte	.LBE10
 3890 0008 74000000 		.4byte	.LBB16
ARM GAS  C:\Users\z80\AppData\Local\Temp\ccqtrITI.s 			page 72


 3891 000c 94000000 		.4byte	.LBE16
 3892 0010 24000000 		.4byte	.LBB14
 3893 0014 44000000 		.4byte	.LBE14
 3894 0018 00000000 		.4byte	0x0
 3895 001c 00000000 		.4byte	0x0
 3896 0020 6C000000 		.4byte	.LBB18
 3897 0024 88000000 		.4byte	.LBE18
 3898 0028 92000000 		.4byte	.LBB21
 3899 002c D0000000 		.4byte	.LBE21
 3900 0030 00000000 		.4byte	0x0
 3901 0034 00000000 		.4byte	0x0
 3902 0038 02000000 		.4byte	.LBB24
 3903 003c 04000000 		.4byte	.LBE24
 3904 0040 06000000 		.4byte	.LBB25
 3905 0044 0A000000 		.4byte	.LBE25
 3906 0048 00000000 		.4byte	0x0
 3907 004c 00000000 		.4byte	0x0
 3908 0050 02000000 		.4byte	.LBB27
 3909 0054 04000000 		.4byte	.LBE27
 3910 0058 06000000 		.4byte	.LBB28
 3911 005c 0A000000 		.4byte	.LBE28
 3912 0060 00000000 		.4byte	0x0
 3913 0064 00000000 		.4byte	0x0
 3914 0068 00000000 		.4byte	.LFB64
 3915 006c 80010000 		.4byte	.LFE64
 3916 0070 00000000 		.4byte	.LFB62
 3917 0074 D0000000 		.4byte	.LFE62
 3918 0078 00000000 		.4byte	.LFB63
 3919 007c 24000000 		.4byte	.LFE63
 3920 0080 00000000 		.4byte	.LFB65
 3921 0084 0A000000 		.4byte	.LFE65
 3922 0088 00000000 		.4byte	.LFB67
 3923 008c 34000000 		.4byte	.LFE67
 3924 0090 00000000 		.4byte	.LFB68
 3925 0094 24000000 		.4byte	.LFE68
 3926 0098 00000000 		.4byte	.LFB69
 3927 009c 24000000 		.4byte	.LFE69
 3928 00a0 00000000 		.4byte	.LFB70
 3929 00a4 0A000000 		.4byte	.LFE70
 3930 00a8 00000000 		.4byte	.LFB71
 3931 00ac 16000000 		.4byte	.LFE71
 3932 00b0 00000000 		.4byte	.LFB72
 3933 00b4 68000000 		.4byte	.LFE72
 3934 00b8 00000000 		.4byte	0x0
 3935 00bc 00000000 		.4byte	0x0
 3936              		.section	.debug_str,"MS",%progbits,1
 3937              	.LASF104:
 3938 0000 646D6172 		.ascii	"dmarx\000"
 3938      7800
 3939              	.LASF2:
 3940 0006 73697A65 		.ascii	"size_t\000"
 3940      5F7400
 3941              	.LASF40:
 3942 000d 54687265 		.ascii	"ThreadsList\000"
 3942      6164734C 
 3942      69737400 
 3943              	.LASF49:
ARM GAS  C:\Users\z80\AppData\Local\Temp\ccqtrITI.s 			page 73


 3944 0019 7264796D 		.ascii	"rdymsg\000"
 3944      736700
 3945              	.LASF143:
 3946 0020 68735F73 		.ascii	"hs_spicfg\000"
 3946      70696366 
 3946      6700
 3947              	.LASF133:
 3948 002a 6164635F 		.ascii	"adc_queue_buffer\000"
 3948      71756575 
 3948      655F6275 
 3948      66666572 
 3948      00
 3949              	.LASF64:
 3950 003b 4F757470 		.ascii	"OutputQueue\000"
 3950      75745175 
 3950      65756500 
 3951              	.LASF98:
 3952 0047 5350495F 		.ascii	"SPI_ACTIVE\000"
 3952      41435449 
 3952      564500
 3953              	.LASF141:
 3954 0052 7369676E 		.ascii	"signalMask\000"
 3954      616C4D61 
 3954      736B00
 3955              	.LASF93:
 3956 005d 696F706F 		.ascii	"ioportmask_t\000"
 3956      72746D61 
 3956      736B5F74 
 3956      00
 3957              	.LASF127:
 3958 006a 70657269 		.ascii	"period\000"
 3958      6F6400
 3959              	.LASF111:
 3960 0071 73737061 		.ascii	"sspad\000"
 3960      6400
 3961              	.LASF146:
 3962 0077 73776565 		.ascii	"sweepDacsFrom\000"
 3962      70446163 
 3962      7346726F 
 3962      6D00
 3963              	.LASF148:
 3964 0085 73776565 		.ascii	"sweepPeriod\000"
 3964      70506572 
 3964      696F6400 
 3965              	.LASF76:
 3966 0091 43524350 		.ascii	"CRCPR\000"
 3966      5200
 3967              	.LASF50:
 3968 0097 65786974 		.ascii	"exitcode\000"
 3968      636F6465 
 3968      00
 3969              	.LASF91:
 3970 00a0 76656374 		.ascii	"vector\000"
 3970      6F7200
 3971              	.LASF101:
 3972 00a7 53504944 		.ascii	"SPIDriver\000"
 3972      72697665 
ARM GAS  C:\Users\z80\AppData\Local\Temp\ccqtrITI.s 			page 74


 3972      7200
 3973              	.LASF110:
 3974 00b1 7373706F 		.ascii	"ssport\000"
 3974      727400
 3975              	.LASF130:
 3976 00b8 49544D5F 		.ascii	"ITM_RxBuffer\000"
 3976      52784275 
 3976      66666572 
 3976      00
 3977              	.LASF121:
 3978 00c5 7365744F 		.ascii	"setOscPeriod\000"
 3978      73635065 
 3978      72696F64 
 3978      00
 3979              	.LASF142:
 3980 00d2 656C6170 		.ascii	"elapsed\000"
 3980      73656400 
 3981              	.LASF24:
 3982 00da 705F7072 		.ascii	"p_prio\000"
 3982      696F00
 3983              	.LASF123:
 3984 00e1 61646351 		.ascii	"adcQueue\000"
 3984      75657565 
 3984      00
 3985              	.LASF55:
 3986 00ea 715F7761 		.ascii	"q_waiting\000"
 3986      6974696E 
 3986      6700
 3987              	.LASF12:
 3988 00f4 6C6F6E67 		.ascii	"long long int\000"
 3988      206C6F6E 
 3988      6720696E 
 3988      7400
 3989              	.LASF1:
 3990 0102 7369676E 		.ascii	"signed char\000"
 3990      65642063 
 3990      68617200 
 3991              	.LASF150:
 3992 010e 2E2F7372 		.ascii	"./src/adc_ctrl.c\000"
 3992      632F6164 
 3992      635F6374 
 3992      726C2E63 
 3992      00
 3993              	.LASF96:
 3994 011f 5350495F 		.ascii	"SPI_STOP\000"
 3994      53544F50 
 3994      00
 3995              	.LASF82:
 3996 0128 49325343 		.ascii	"I2SCFGR\000"
 3996      46475200 
 3997              	.LASF14:
 3998 0130 6C6F6E67 		.ascii	"long long unsigned int\000"
 3998      206C6F6E 
 3998      6720756E 
 3998      7369676E 
 3998      65642069 
 3999              	.LASF46:
ARM GAS  C:\Users\z80\AppData\Local\Temp\ccqtrITI.s 			page 75


 4000 0147 6D5F7175 		.ascii	"m_queue\000"
 4000      65756500 
 4001              	.LASF116:
 4002 014f 696E7374 		.ascii	"instantAdc\000"
 4002      616E7441 
 4002      646300
 4003              	.LASF136:
 4004 015a 73776565 		.ascii	"sweepCmdQueue\000"
 4004      70436D64 
 4004      51756575 
 4004      6500
 4005              	.LASF151:
 4006 0168 433A5C70 		.ascii	"C:\\projects\\digitizer.git\\firmware\\digitizer\000"
 4006      726F6A65 
 4006      6374735C 
 4006      64696769 
 4006      74697A65 
 4007              	.LASF139:
 4008 0195 61646349 		.ascii	"adcIndex\000"
 4008      6E646578 
 4008      00
 4009              	.LASF102:
 4010 019e 73746174 		.ascii	"state\000"
 4010      6500
 4011              	.LASF9:
 4012 01a4 6C6F6E67 		.ascii	"long int\000"
 4012      20696E74 
 4012      00
 4013              	.LASF16:
 4014 01ad 74737461 		.ascii	"tstate_t\000"
 4014      74655F74 
 4014      00
 4015              	.LASF124:
 4016 01b6 73776565 		.ascii	"sweepData\000"
 4016      70446174 
 4016      6100
 4017              	.LASF147:
 4018 01c0 73776565 		.ascii	"sweepDacsTo\000"
 4018      70446163 
 4018      73546F00 
 4019              	.LASF57:
 4020 01cc 715F6275 		.ascii	"q_buffer\000"
 4020      66666572 
 4020      00
 4021              	.LASF59:
 4022 01d5 715F7772 		.ascii	"q_wrptr\000"
 4022      70747200 
 4023              	.LASF32:
 4024 01dd 705F7469 		.ascii	"p_time\000"
 4024      6D6500
 4025              	.LASF26:
 4026 01e4 705F6E65 		.ascii	"p_newer\000"
 4026      77657200 
 4027              	.LASF109:
 4028 01ec 656E645F 		.ascii	"end_cb\000"
 4028      636200
 4029              	.LASF106:
ARM GAS  C:\Users\z80\AppData\Local\Temp\ccqtrITI.s 			page 76


 4030 01f3 7278646D 		.ascii	"rxdmamode\000"
 4030      616D6F64 
 4030      6500
 4031              	.LASF122:
 4032 01fd 696E7465 		.ascii	"interval\000"
 4032      7276616C 
 4032      00
 4033              	.LASF120:
 4034 0206 6D61736B 		.ascii	"mask\000"
 4034      00
 4035              	.LASF41:
 4036 020b 72656761 		.ascii	"regarm_t\000"
 4036      726D5F74 
 4036      00
 4037              	.LASF90:
 4038 0214 73656C66 		.ascii	"selfindex\000"
 4038      696E6465 
 4038      7800
 4039              	.LASF108:
 4040 021e 73706963 		.ascii	"spicallback_t\000"
 4040      616C6C62 
 4040      61636B5F 
 4040      7400
 4041              	.LASF114:
 4042 022c 76616C75 		.ascii	"value\000"
 4042      6500
 4043              	.LASF155:
 4044 0232 71756572 		.ascii	"queryAdcI\000"
 4044      79416463 
 4044      4900
 4045              	.LASF154:
 4046 023c 6F6E5370 		.ascii	"onSpiComplete\000"
 4046      69436F6D 
 4046      706C6574 
 4046      6500
 4047              	.LASF29:
 4048 024a 705F7374 		.ascii	"p_stklimit\000"
 4048      6B6C696D 
 4048      697400
 4049              	.LASF0:
 4050 0255 756E7369 		.ascii	"unsigned int\000"
 4050      676E6564 
 4050      20696E74 
 4050      00
 4051              	.LASF125:
 4052 0262 73657453 		.ascii	"setSweepOsc\000"
 4052      77656570 
 4052      4F736300 
 4053              	.LASF6:
 4054 026e 75696E74 		.ascii	"uint16_t\000"
 4054      31365F74 
 4054      00
 4055              	.LASF66:
 4056 0277 43504152 		.ascii	"CPAR\000"
 4056      00
 4057              	.LASF34:
 4058 027c 705F6D73 		.ascii	"p_msgqueue\000"
ARM GAS  C:\Users\z80\AppData\Local\Temp\ccqtrITI.s 			page 77


 4058      67717565 
 4058      756500
 4059              	.LASF71:
 4060 0287 4750494F 		.ascii	"GPIO_TypeDef\000"
 4060      5F547970 
 4060      65446566 
 4060      00
 4061              	.LASF70:
 4062 0294 4C434B52 		.ascii	"LCKR\000"
 4062      00
 4063              	.LASF89:
 4064 0299 69736869 		.ascii	"ishift\000"
 4064      667400
 4065              	.LASF7:
 4066 02a0 73686F72 		.ascii	"short unsigned int\000"
 4066      7420756E 
 4066      7369676E 
 4066      65642069 
 4066      6E7400
 4067              	.LASF18:
 4068 02b3 6D73675F 		.ascii	"msg_t\000"
 4068      7400
 4069              	.LASF113:
 4070 02b9 70726576 		.ascii	"prevIndex\000"
 4070      496E6465 
 4070      7800
 4071              	.LASF15:
 4072 02c3 746D6F64 		.ascii	"tmode_t\000"
 4072      655F7400 
 4073              	.LASF144:
 4074 02cb 73776565 		.ascii	"sweepSigs\000"
 4074      70536967 
 4074      7300
 4075              	.LASF19:
 4076 02d5 6576656E 		.ascii	"eventmask_t\000"
 4076      746D6173 
 4076      6B5F7400 
 4077              	.LASF63:
 4078 02e1 496E7075 		.ascii	"InputQueue\000"
 4078      74517565 
 4078      756500
 4079              	.LASF129:
 4080 02ec 66726F6D 		.ascii	"from\000"
 4080      00
 4081              	.LASF62:
 4082 02f1 716E6F74 		.ascii	"qnotify_t\000"
 4082      6966795F 
 4082      7400
 4083              	.LASF54:
 4084 02fb 47656E65 		.ascii	"GenericQueue\000"
 4084      72696351 
 4084      75657565 
 4084      00
 4085              	.LASF42:
 4086 0308 73746B61 		.ascii	"stkalign_t\000"
 4086      6C69676E 
 4086      5F7400
ARM GAS  C:\Users\z80\AppData\Local\Temp\ccqtrITI.s 			page 78


 4087              	.LASF118:
 4088 0313 76616C73 		.ascii	"vals\000"
 4088      00
 4089              	.LASF21:
 4090 0318 54687265 		.ascii	"Thread\000"
 4090      616400
 4091              	.LASF115:
 4092 031f 696E6974 		.ascii	"initAdc\000"
 4092      41646300 
 4093              	.LASF84:
 4094 0327 49325350 		.ascii	"I2SPR\000"
 4094      5200
 4095              	.LASF56:
 4096 032d 715F636F 		.ascii	"q_counter\000"
 4096      756E7465 
 4096      7200
 4097              	.LASF45:
 4098 0337 4D757465 		.ascii	"Mutex\000"
 4098      7800
 4099              	.LASF13:
 4100 033d 75696E74 		.ascii	"uint64_t\000"
 4100      36345F74 
 4100      00
 4101              	.LASF27:
 4102 0346 705F6F6C 		.ascii	"p_older\000"
 4102      64657200 
 4103              	.LASF39:
 4104 034e 54687265 		.ascii	"ThreadsQueue\000"
 4104      61647351 
 4104      75657565 
 4104      00
 4105              	.LASF107:
 4106 035b 7478646D 		.ascii	"txdmamode\000"
 4106      616D6F64 
 4106      6500
 4107              	.LASF152:
 4108 0365 73656C65 		.ascii	"selectAdcIndex\000"
 4108      63744164 
 4108      63496E64 
 4108      657800
 4109              	.LASF135:
 4110 0374 73776565 		.ascii	"sweep_queue_buffer\000"
 4110      705F7175 
 4110      6575655F 
 4110      62756666 
 4110      657200
 4111              	.LASF68:
 4112 0387 444D415F 		.ascii	"DMA_Channel_TypeDef\000"
 4112      4368616E 
 4112      6E656C5F 
 4112      54797065 
 4112      44656600 
 4113              	.LASF105:
 4114 039b 646D6174 		.ascii	"dmatx\000"
 4114      7800
 4115              	.LASF72:
 4116 03a1 52455345 		.ascii	"RESERVED0\000"
ARM GAS  C:\Users\z80\AppData\Local\Temp\ccqtrITI.s 			page 79


 4116      52564544 
 4116      3000
 4117              	.LASF73:
 4118 03ab 52455345 		.ascii	"RESERVED1\000"
 4118      52564544 
 4118      3100
 4119              	.LASF74:
 4120 03b5 52455345 		.ascii	"RESERVED2\000"
 4120      52564544 
 4120      3200
 4121              	.LASF75:
 4122 03bf 52455345 		.ascii	"RESERVED3\000"
 4122      52564544 
 4122      3300
 4123              	.LASF77:
 4124 03c9 52455345 		.ascii	"RESERVED4\000"
 4124      52564544 
 4124      3400
 4125              	.LASF23:
 4126 03d3 705F7072 		.ascii	"p_prev\000"
 4126      657600
 4127              	.LASF81:
 4128 03da 52455345 		.ascii	"RESERVED6\000"
 4128      52564544 
 4128      3600
 4129              	.LASF83:
 4130 03e4 52455345 		.ascii	"RESERVED7\000"
 4130      52564544 
 4130      3700
 4131              	.LASF85:
 4132 03ee 52455345 		.ascii	"RESERVED8\000"
 4132      52564544 
 4132      3800
 4133              	.LASF17:
 4134 03f8 74707269 		.ascii	"tprio_t\000"
 4134      6F5F7400 
 4135              	.LASF60:
 4136 0400 715F7264 		.ascii	"q_rdptr\000"
 4136      70747200 
 4137              	.LASF137:
 4138 0408 73776565 		.ascii	"sweepCmdBuffer\000"
 4138      70436D64 
 4138      42756666 
 4138      657200
 4139              	.LASF8:
 4140 0417 696E7433 		.ascii	"int32_t\000"
 4140      325F7400 
 4141              	.LASF4:
 4142 041f 756E7369 		.ascii	"unsigned char\000"
 4142      676E6564 
 4142      20636861 
 4142      7200
 4143              	.LASF92:
 4144 042d 73746D33 		.ascii	"stm32_dma_stream_t\000"
 4144      325F646D 
 4144      615F7374 
 4144      7265616D 
ARM GAS  C:\Users\z80\AppData\Local\Temp\ccqtrITI.s 			page 80


 4144      5F7400
 4145              	.LASF131:
 4146 0440 53504944 		.ascii	"SPID1\000"
 4146      3100
 4147              	.LASF128:
 4148 0446 73657453 		.ascii	"setSweep\000"
 4148      77656570 
 4148      00
 4149              	.LASF132:
 4150 044f 6164635F 		.ascii	"adc_queue\000"
 4150      71756575 
 4150      6500
 4151              	.LASF37:
 4152 0459 705F6D74 		.ascii	"p_mtxlist\000"
 4152      786C6973 
 4152      7400
 4153              	.LASF5:
 4154 0463 73686F72 		.ascii	"short int\000"
 4154      7420696E 
 4154      7400
 4155              	.LASF30:
 4156 046d 705F7374 		.ascii	"p_state\000"
 4156      61746500 
 4157              	.LASF145:
 4158 0475 73776565 		.ascii	"sweepOscPeriod\000"
 4158      704F7363 
 4158      50657269 
 4158      6F6400
 4159              	.LASF52:
 4160 0484 65776D61 		.ascii	"ewmask\000"
 4160      736B00
 4161              	.LASF22:
 4162 048b 705F6E65 		.ascii	"p_next\000"
 4162      787400
 4163              	.LASF31:
 4164 0492 705F666C 		.ascii	"p_flags\000"
 4164      61677300 
 4165              	.LASF138:
 4166 049a 6164635F 		.ascii	"adc_rx_buffer\000"
 4166      72785F62 
 4166      75666665 
 4166      7200
 4167              	.LASF87:
 4168 04a8 6368616E 		.ascii	"channel\000"
 4168      6E656C00 
 4169              	.LASF119:
 4170 04b0 7365744F 		.ascii	"setOscSignals\000"
 4170      73635369 
 4170      676E616C 
 4170      7300
 4171              	.LASF36:
 4172 04be 705F6570 		.ascii	"p_epending\000"
 4172      656E6469 
 4172      6E6700
 4173              	.LASF88:
 4174 04c9 69666372 		.ascii	"ifcr\000"
 4174      00
ARM GAS  C:\Users\z80\AppData\Local\Temp\ccqtrITI.s 			page 81


 4175              	.LASF79:
 4176 04ce 52455345 		.ascii	"RESERVED5\000"
 4176      52564544 
 4176      3500
 4177              	.LASF10:
 4178 04d8 75696E74 		.ascii	"uint32_t\000"
 4178      33325F74 
 4178      00
 4179              	.LASF140:
 4180 04e1 696E7374 		.ascii	"instantAdcData\000"
 4180      616E7441 
 4180      64634461 
 4180      746100
 4181              	.LASF78:
 4182 04f0 52584352 		.ascii	"RXCRCR\000"
 4182      435200
 4183              	.LASF11:
 4184 04f7 6C6F6E67 		.ascii	"long unsigned int\000"
 4184      20756E73 
 4184      69676E65 
 4184      6420696E 
 4184      7400
 4185              	.LASF86:
 4186 0509 5350495F 		.ascii	"SPI_TypeDef\000"
 4186      54797065 
 4186      44656600 
 4187              	.LASF53:
 4188 0515 63686172 		.ascii	"char\000"
 4188      00
 4189              	.LASF99:
 4190 051a 5350495F 		.ascii	"SPI_COMPLETE\000"
 4190      434F4D50 
 4190      4C455445 
 4190      00
 4191              	.LASF103:
 4192 0527 636F6E66 		.ascii	"config\000"
 4192      696700
 4193              	.LASF80:
 4194 052e 54584352 		.ascii	"TXCRCR\000"
 4194      435200
 4195              	.LASF153:
 4196 0535 696E6465 		.ascii	"index\000"
 4196      7800
 4197              	.LASF100:
 4198 053b 73706973 		.ascii	"spistate_t\000"
 4198      74617465 
 4198      5F7400
 4199              	.LASF48:
 4200 0546 6D5F6E65 		.ascii	"m_next\000"
 4200      787400
 4201              	.LASF20:
 4202 054d 73797374 		.ascii	"systime_t\000"
 4202      696D655F 
 4202      7400
 4203              	.LASF38:
 4204 0557 705F7265 		.ascii	"p_realprio\000"
 4204      616C7072 
ARM GAS  C:\Users\z80\AppData\Local\Temp\ccqtrITI.s 			page 82


 4204      696F00
 4205              	.LASF94:
 4206 0562 696F706F 		.ascii	"ioportid_t\000"
 4206      72746964 
 4206      5F7400
 4207              	.LASF44:
 4208 056d 636F6E74 		.ascii	"context\000"
 4208      65787400 
 4209              	.LASF43:
 4210 0575 696E7463 		.ascii	"intctx\000"
 4210      747800
 4211              	.LASF97:
 4212 057c 5350495F 		.ascii	"SPI_READY\000"
 4212      52454144 
 4212      5900
 4213              	.LASF95:
 4214 0586 5350495F 		.ascii	"SPI_UNINIT\000"
 4214      554E494E 
 4214      495400
 4215              	.LASF134:
 4216 0591 73776565 		.ascii	"sweep_queue\000"
 4216      705F7175 
 4216      65756500 
 4217              	.LASF58:
 4218 059d 715F746F 		.ascii	"q_top\000"
 4218      7000
 4219              	.LASF69:
 4220 05a3 42535252 		.ascii	"BSRR\000"
 4220      00
 4221              	.LASF117:
 4222 05a8 73706964 		.ascii	"spid\000"
 4222      00
 4223              	.LASF65:
 4224 05ad 434E4454 		.ascii	"CNDTR\000"
 4224      5200
 4225              	.LASF67:
 4226 05b3 434D4152 		.ascii	"CMAR\000"
 4226      00
 4227              	.LASF61:
 4228 05b8 715F6E6F 		.ascii	"q_notify\000"
 4228      74696679 
 4228      00
 4229              	.LASF3:
 4230 05c1 75696E74 		.ascii	"uint8_t\000"
 4230      385F7400 
 4231              	.LASF126:
 4232 05c9 73696773 		.ascii	"sigs\000"
 4232      00
 4233              	.LASF149:
 4234 05ce 474E5520 		.ascii	"GNU C 4.5.0\000"
 4234      4320342E 
 4234      352E3000 
 4235              	.LASF51:
 4236 05da 77746F62 		.ascii	"wtobjp\000"
 4236      6A7000
 4237              	.LASF28:
 4238 05e1 705F6E61 		.ascii	"p_name\000"
ARM GAS  C:\Users\z80\AppData\Local\Temp\ccqtrITI.s 			page 83


 4238      6D6500
 4239              	.LASF112:
 4240 05e8 53504943 		.ascii	"SPIConfig\000"
 4240      6F6E6669 
 4240      6700
 4241              	.LASF35:
 4242 05f2 705F6D73 		.ascii	"p_msg\000"
 4242      6700
 4243              	.LASF47:
 4244 05f8 6D5F6F77 		.ascii	"m_owner\000"
 4244      6E657200 
 4245              	.LASF25:
 4246 0600 705F6374 		.ascii	"p_ctx\000"
 4246      7800
 4247              	.LASF33:
 4248 0606 705F7761 		.ascii	"p_waiting\000"
 4248      6974696E 
 4248      6700
 4249              		.ident	"GCC: (GNU) 4.5.0"
ARM GAS  C:\Users\z80\AppData\Local\Temp\ccqtrITI.s 			page 84


DEFINED SYMBOLS
                            *ABS*:00000000 adc_ctrl.c
C:\Users\z80\AppData\Local\Temp\ccqtrITI.s:24     .text.onSpiComplete:00000000 $t
C:\Users\z80\AppData\Local\Temp\ccqtrITI.s:29     .text.onSpiComplete:00000000 onSpiComplete
C:\Users\z80\AppData\Local\Temp\ccqtrITI.s:305    .text.onSpiComplete:00000160 $d
C:\Users\z80\AppData\Local\Temp\ccqtrITI.s:318    .text.initAdc:00000000 $t
C:\Users\z80\AppData\Local\Temp\ccqtrITI.s:324    .text.initAdc:00000000 initAdc
C:\Users\z80\AppData\Local\Temp\ccqtrITI.s:444    .text.initAdc:000000ac $d
C:\Users\z80\AppData\Local\Temp\ccqtrITI.s:459    .text.queryAdcI:00000000 $t
C:\Users\z80\AppData\Local\Temp\ccqtrITI.s:465    .text.queryAdcI:00000000 queryAdcI
C:\Users\z80\AppData\Local\Temp\ccqtrITI.s:901    .bss.adc_rx_buffer:00000000 .LANCHOR1
C:\Users\z80\AppData\Local\Temp\ccqtrITI.s:494    .text.adcQueue:00000000 $t
C:\Users\z80\AppData\Local\Temp\ccqtrITI.s:500    .text.adcQueue:00000000 adcQueue
C:\Users\z80\AppData\Local\Temp\ccqtrITI.s:863    .bss.adc_queue:00000000 .LANCHOR5
C:\Users\z80\AppData\Local\Temp\ccqtrITI.s:516    .text.instantAdc:00000000 $t
C:\Users\z80\AppData\Local\Temp\ccqtrITI.s:522    .text.instantAdc:00000000 instantAdc
C:\Users\z80\AppData\Local\Temp\ccqtrITI.s:580    .text.instantAdc:00000030 $d
C:\Users\z80\AppData\Local\Temp\ccqtrITI.s:585    .text.setOscSignals:00000000 $t
C:\Users\z80\AppData\Local\Temp\ccqtrITI.s:591    .text.setOscSignals:00000000 setOscSignals
C:\Users\z80\AppData\Local\Temp\ccqtrITI.s:922    .data.signalMask:00000000 .LANCHOR6
C:\Users\z80\AppData\Local\Temp\ccqtrITI.s:641    .text.setOscPeriod:00000000 $t
C:\Users\z80\AppData\Local\Temp\ccqtrITI.s:647    .text.setOscPeriod:00000000 setOscPeriod
C:\Users\z80\AppData\Local\Temp\ccqtrITI.s:936    .data.period:00000000 .LANCHOR4
C:\Users\z80\AppData\Local\Temp\ccqtrITI.s:697    .text.sweepData:00000000 $t
C:\Users\z80\AppData\Local\Temp\ccqtrITI.s:703    .text.sweepData:00000000 sweepData
C:\Users\z80\AppData\Local\Temp\ccqtrITI.s:915    .bss.sweep_queue:00000000 .LANCHOR8
C:\Users\z80\AppData\Local\Temp\ccqtrITI.s:719    .text.setSweepOsc:00000000 $t
C:\Users\z80\AppData\Local\Temp\ccqtrITI.s:725    .text.setSweepOsc:00000000 setSweepOsc
C:\Users\z80\AppData\Local\Temp\ccqtrITI.s:849    .data.sweepSigs:00000000 .LANCHOR13
C:\Users\z80\AppData\Local\Temp\ccqtrITI.s:894    .data.sweepOscPeriod:00000000 .LANCHOR14
C:\Users\z80\AppData\Local\Temp\ccqtrITI.s:751    .text.setSweep:00000000 $t
C:\Users\z80\AppData\Local\Temp\ccqtrITI.s:757    .text.setSweep:00000000 setSweep
C:\Users\z80\AppData\Local\Temp\ccqtrITI.s:836    .bss.sweepDacsFrom:00000000 .LANCHOR15
C:\Users\z80\AppData\Local\Temp\ccqtrITI.s:856    .bss.sweepDacsTo:00000000 .LANCHOR16
C:\Users\z80\AppData\Local\Temp\ccqtrITI.s:870    .bss.sweepCmdQueue:00000000 .LANCHOR10
C:\Users\z80\AppData\Local\Temp\ccqtrITI.s:877    .data.sweepPeriod:00000000 .LANCHOR17
C:\Users\z80\AppData\Local\Temp\ccqtrITI.s:925    .data.signalMask:00000000 signalMask
C:\Users\z80\AppData\Local\Temp\ccqtrITI.s:939    .data.period:00000000 period
C:\Users\z80\AppData\Local\Temp\ccqtrITI.s:956    .bss.elapsed:00000000 elapsed
C:\Users\z80\AppData\Local\Temp\ccqtrITI.s:866    .bss.adc_queue:00000000 adc_queue
C:\Users\z80\AppData\Local\Temp\ccqtrITI.s:963    .bss.adc_queue_buffer:00000000 adc_queue_buffer
C:\Users\z80\AppData\Local\Temp\ccqtrITI.s:918    .bss.sweep_queue:00000000 sweep_queue
C:\Users\z80\AppData\Local\Temp\ccqtrITI.s:846    .bss.sweep_queue_buffer:00000000 sweep_queue_buffer
C:\Users\z80\AppData\Local\Temp\ccqtrITI.s:873    .bss.sweepCmdQueue:00000000 sweepCmdQueue
C:\Users\z80\AppData\Local\Temp\ccqtrITI.s:911    .bss.sweepCmdBuffer:00000000 sweepCmdBuffer
C:\Users\z80\AppData\Local\Temp\ccqtrITI.s:904    .bss.adc_rx_buffer:00000000 adc_rx_buffer
C:\Users\z80\AppData\Local\Temp\ccqtrITI.s:835    .bss.sweepDacsFrom:00000000 $d
C:\Users\z80\AppData\Local\Temp\ccqtrITI.s:839    .bss.sweepDacsFrom:00000000 sweepDacsFrom
C:\Users\z80\AppData\Local\Temp\ccqtrITI.s:842    .bss.sweep_queue_buffer:00000000 $d
C:\Users\z80\AppData\Local\Temp\ccqtrITI.s:852    .data.sweepSigs:00000000 sweepSigs
C:\Users\z80\AppData\Local\Temp\ccqtrITI.s:855    .bss.sweepDacsTo:00000000 $d
C:\Users\z80\AppData\Local\Temp\ccqtrITI.s:859    .bss.sweepDacsTo:00000000 sweepDacsTo
C:\Users\z80\AppData\Local\Temp\ccqtrITI.s:862    .bss.adc_queue:00000000 $d
C:\Users\z80\AppData\Local\Temp\ccqtrITI.s:869    .bss.sweepCmdQueue:00000000 $d
C:\Users\z80\AppData\Local\Temp\ccqtrITI.s:876    .data.sweepPeriod:00000000 $d
C:\Users\z80\AppData\Local\Temp\ccqtrITI.s:880    .data.sweepPeriod:00000000 sweepPeriod
C:\Users\z80\AppData\Local\Temp\ccqtrITI.s:883    .data.instantAdcData:00000000 $d
ARM GAS  C:\Users\z80\AppData\Local\Temp\ccqtrITI.s 			page 85


C:\Users\z80\AppData\Local\Temp\ccqtrITI.s:887    .data.instantAdcData:00000000 instantAdcData
C:\Users\z80\AppData\Local\Temp\ccqtrITI.s:893    .data.sweepOscPeriod:00000000 $d
C:\Users\z80\AppData\Local\Temp\ccqtrITI.s:897    .data.sweepOscPeriod:00000000 sweepOscPeriod
C:\Users\z80\AppData\Local\Temp\ccqtrITI.s:900    .bss.adc_rx_buffer:00000000 $d
C:\Users\z80\AppData\Local\Temp\ccqtrITI.s:907    .bss.sweepCmdBuffer:00000000 $d
C:\Users\z80\AppData\Local\Temp\ccqtrITI.s:914    .bss.sweep_queue:00000000 $d
C:\Users\z80\AppData\Local\Temp\ccqtrITI.s:921    .data.signalMask:00000000 $d
C:\Users\z80\AppData\Local\Temp\ccqtrITI.s:928    .bss.adcIndex:00000000 $d
C:\Users\z80\AppData\Local\Temp\ccqtrITI.s:932    .bss.adcIndex:00000000 adcIndex
C:\Users\z80\AppData\Local\Temp\ccqtrITI.s:935    .data.period:00000000 $d
C:\Users\z80\AppData\Local\Temp\ccqtrITI.s:942    .rodata.hs_spicfg:00000000 $d
C:\Users\z80\AppData\Local\Temp\ccqtrITI.s:946    .rodata.hs_spicfg:00000000 hs_spicfg
C:\Users\z80\AppData\Local\Temp\ccqtrITI.s:952    .bss.elapsed:00000000 $d
C:\Users\z80\AppData\Local\Temp\ccqtrITI.s:959    .bss.adc_queue_buffer:00000000 $d
                     .debug_frame:00000010 $d
C:\Users\z80\AppData\Local\Temp\ccqtrITI.s:584    .text.instantAdc:00000034 $t

UNDEFINED SYMBOLS
dbg_check_lock_from_isr
spi_lld_unselect
dbg_check_unlock_from_isr
chIQPutI
SPID1
chIQInit
chOQInit
_pal_lld_setgroupmode
spiStart
spi_lld_select
spi_lld_receive
dbg_check_lock
dbg_check_unlock
chOQPutTimeout
