ARM GAS  C:\Users\z80\AppData\Local\Temp\ccmGcbDs.s 			page 1


   1              		.syntax unified
   2              		.cpu cortex-m3
   3              		.fpu softvfp
   4              		.eabi_attribute 20, 1
   5              		.eabi_attribute 21, 1
   6              		.eabi_attribute 23, 3
   7              		.eabi_attribute 24, 1
   8              		.eabi_attribute 25, 1
   9              		.eabi_attribute 26, 1
  10              		.eabi_attribute 30, 6
  11              		.eabi_attribute 18, 4
  12              		.thumb
  13              		.file	"adc_ctrl.c"
  14              		.section	.debug_abbrev,"",%progbits
  15              	.Ldebug_abbrev0:
  16              		.section	.debug_info,"",%progbits
  17              	.Ldebug_info0:
  18              		.section	.debug_line,"",%progbits
  19              	.Ldebug_line0:
  20 0000 A0030000 		.text
  20      02007C02 
  20      00000201 
  20      FB0E0D00 
  20      01010101 
  21              	.Ltext0:
  22              		.cfi_sections	.debug_frame
  23              		.global	adc_queue
  24              		.section	.bss.adc_queue,"aw",%nobits
  25              		.align	2
  26              		.type	adc_queue, %object
  27              		.size	adc_queue, 32
  28              	adc_queue:
  29 0000 00000000 		.space	32
  29      00000000 
  29      00000000 
  29      00000000 
  29      00000000 
  30              		.global	adc_queue_buffer
  31              		.section	.bss.adc_queue_buffer,"aw",%nobits
  32              		.align	2
  33              		.type	adc_queue_buffer, %object
  34              		.size	adc_queue_buffer, 320
  35              	adc_queue_buffer:
  36 0000 00000000 		.space	320
  36      00000000 
  36      00000000 
  36      00000000 
  36      00000000 
  37              		.global	sweep_queue
  38              		.section	.bss.sweep_queue,"aw",%nobits
  39              		.align	2
  40              		.type	sweep_queue, %object
  41              		.size	sweep_queue, 32
  42              	sweep_queue:
  43 0000 00000000 		.space	32
  43      00000000 
  43      00000000 
ARM GAS  C:\Users\z80\AppData\Local\Temp\ccmGcbDs.s 			page 2


  43      00000000 
  43      00000000 
  44              		.global	sweep_queue_buffer
  45              		.section	.bss.sweep_queue_buffer,"aw",%nobits
  46              		.align	2
  47              		.type	sweep_queue_buffer, %object
  48              		.size	sweep_queue_buffer, 320
  49              	sweep_queue_buffer:
  50 0000 00000000 		.space	320
  50      00000000 
  50      00000000 
  50      00000000 
  50      00000000 
  51              		.global	sweepCmdQueue
  52              		.section	.bss.sweepCmdQueue,"aw",%nobits
  53              		.align	2
  54              		.type	sweepCmdQueue, %object
  55              		.size	sweepCmdQueue, 32
  56              	sweepCmdQueue:
  57 0000 00000000 		.space	32
  57      00000000 
  57      00000000 
  57      00000000 
  57      00000000 
  58              		.global	sweepCmdBuffer
  59              		.section	.bss.sweepCmdBuffer,"aw",%nobits
  60              		.align	2
  61              		.type	sweepCmdBuffer, %object
  62              		.size	sweepCmdBuffer, 2
  63              	sweepCmdBuffer:
  64 0000 0000     		.space	2
  65              		.global	adc_rx_buffer
  66 0002 0000     		.section	.bss.adc_rx_buffer,"aw",%nobits
  67              		.align	2
  68              		.type	adc_rx_buffer, %object
  69              		.size	adc_rx_buffer, 4
  70              	adc_rx_buffer:
  71 0000 00000000 		.space	4
  72              		.section	.bss.adcIndex,"aw",%nobits
  73              		.align	2
  74              		.type	adcIndex, %object
  75              		.size	adcIndex, 4
  76              	adcIndex:
  77 0000 00000000 		.space	4
  78              		.section	.data.instantAdcData,"aw",%progbits
  79              		.align	2
  80              		.type	instantAdcData, %object
  81              		.size	instantAdcData, 16
  82              	instantAdcData:
  83 0000 FFFFFFFF 		.word	-1
  84 0004 FFFFFFFF 		.word	-1
  85 0008 FFFFFFFF 		.word	-1
  86 000c FFFFFFFF 		.word	-1
  87              		.global	signalMask
  88              		.section	.data.signalMask,"aw",%progbits
  89              		.align	2
  90              		.type	signalMask, %object
ARM GAS  C:\Users\z80\AppData\Local\Temp\ccmGcbDs.s 			page 3


  91              		.size	signalMask, 4
  92              	signalMask:
  93 0000 0F000000 		.word	15
  94              		.global	period
  95              		.section	.data.period,"aw",%progbits
  96              		.align	2
  97              		.type	period, %object
  98              		.size	period, 4
  99              	period:
 100 0000 19000000 		.word	25
 101              		.global	elapsed
 102              		.section	.bss.elapsed,"aw",%nobits
 103              		.align	2
 104              		.type	elapsed, %object
 105              		.size	elapsed, 4
 106              	elapsed:
 107 0000 00000000 		.space	4
 108              		.section	.rodata.hs_spicfg,"a",%progbits
 109              		.align	2
 110              		.type	hs_spicfg, %object
 111              		.size	hs_spicfg, 12
 112              	hs_spicfg:
 113 0000 00000000 		.word	onSpiComplete
 114 0004 00080140 		.word	1073809408
 115 0008 0400     		.short	4
 116 000a 1200     		.short	18
 117              		.section	.text.initAdc,"ax",%progbits
 118              		.align	2
 119              		.p2align 4,,15
 120              		.global	initAdc
 121              		.thumb
 122              		.thumb_func
 123              		.type	initAdc, %function
 124              	initAdc:
 125              	.LFB62:
 126              		.file 1 "./src/adc_ctrl.c"
 127              		.loc 1 51 0
 128              		.cfi_startproc
 129              		@ args = 0, pretend = 0, frame = 0
 130              		@ frame_needed = 0, uses_anonymous_args = 0
 131 0000 08B5     		push	{r3, lr}
 132              	.LCFI0:
 133              		.cfi_def_cfa_offset 8
 134              		.loc 1 52 0
 135 0002 40F20000 		movw	r0, #:lower16:adc_queue
 136 0006 C0F20000 		movt	r0, #:upper16:adc_queue
 137 000a 40F20001 		movw	r1, #:lower16:adc_queue_buffer
 138 000e C0F20001 		movt	r1, #:upper16:adc_queue_buffer
 139 0012 4FF4A072 		mov	r2, #320
 140 0016 4FF00003 		mov	r3, #0
 141              		.cfi_offset 14, -4
 142              		.cfi_offset 3, -8
 143 001a FFF7FEFF 		bl	chIQInit
 144              		.loc 1 53 0
 145 001e 40F20000 		movw	r0, #:lower16:sweep_queue
 146 0022 C0F20000 		movt	r0, #:upper16:sweep_queue
 147 0026 40F20001 		movw	r1, #:lower16:sweep_queue_buffer
ARM GAS  C:\Users\z80\AppData\Local\Temp\ccmGcbDs.s 			page 4


 148 002a C0F20001 		movt	r1, #:upper16:sweep_queue_buffer
 149 002e 4FF4A072 		mov	r2, #320
 150 0032 4FF00003 		mov	r3, #0
 151 0036 FFF7FEFF 		bl	chIQInit
 152              		.loc 1 54 0
 153 003a 40F20000 		movw	r0, #:lower16:sweepCmdQueue
 154 003e C0F20000 		movt	r0, #:upper16:sweepCmdQueue
 155 0042 40F20001 		movw	r1, #:lower16:sweepCmdBuffer
 156 0046 C0F20001 		movt	r1, #:upper16:sweepCmdBuffer
 157 004a 4FF00202 		mov	r2, #2
 158 004e 4FF00003 		mov	r3, #0
 159 0052 FFF7FEFF 		bl	chOQInit
 160              		.loc 1 56 0
 161 0056 4FF40060 		mov	r0, #2048
 162 005a C4F20100 		movt	r0, 16385
 163 005e 4FF00101 		mov	r1, #1
 164 0062 4FF00602 		mov	r2, #6
 165 0066 FFF7FEFF 		bl	_pal_lld_setgroupmode
 166              		.loc 1 57 0
 167 006a 4FF40060 		mov	r0, #2048
 168 006e C4F20100 		movt	r0, 16385
 169 0072 4FF00201 		mov	r1, #2
 170 0076 4FF00602 		mov	r2, #6
 171 007a FFF7FEFF 		bl	_pal_lld_setgroupmode
 172              		.loc 1 59 0
 173 007e 4FF40060 		mov	r0, #2048
 174 0082 C4F20100 		movt	r0, 16385
 175 0086 4FF02001 		mov	r1, #32
 176 008a 4FF01002 		mov	r2, #16
 177 008e FFF7FEFF 		bl	_pal_lld_setgroupmode
 178              		.loc 1 60 0
 179 0092 4FF40060 		mov	r0, #2048
 180 0096 C4F20100 		movt	r0, 16385
 181 009a 4FF04001 		mov	r1, #64
 182 009e 4FF01002 		mov	r2, #16
 183 00a2 FFF7FEFF 		bl	_pal_lld_setgroupmode
 184              		.loc 1 61 0
 185 00a6 4FF40060 		mov	r0, #2048
 186 00aa C4F20100 		movt	r0, 16385
 187 00ae 4FF01001 		mov	r1, #16
 188 00b2 4FF00602 		mov	r2, #6
 189 00b6 FFF7FEFF 		bl	_pal_lld_setgroupmode
 190              		.loc 1 62 0
 191 00ba 4FF40063 		mov	r3, #2048
 192 00be C4F20103 		movt	r3, 16385
 193 00c2 4FF01002 		mov	r2, #16
 194 00c6 1A61     		str	r2, [r3, #16]
 195              		.loc 1 64 0
 196 00c8 40F20003 		movw	r3, #:lower16:adcIndex
 197 00cc C0F20003 		movt	r3, #:upper16:adcIndex
 198 00d0 1B68     		ldr	r3, [r3, #0]
 199 00d2 1846     		mov	r0, r3
 200 00d4 FFF7FEFF 		bl	selectAdcIndex
 201              		.loc 1 66 0
 202 00d8 40F20000 		movw	r0, #:lower16:SPID1
 203 00dc C0F20000 		movt	r0, #:upper16:SPID1
 204 00e0 40F20001 		movw	r1, #:lower16:hs_spicfg
ARM GAS  C:\Users\z80\AppData\Local\Temp\ccmGcbDs.s 			page 5


 205 00e4 C0F20001 		movt	r1, #:upper16:hs_spicfg
 206 00e8 FFF7FEFF 		bl	spiStart
 207              		.loc 1 67 0
 208 00ec 08BD     		pop	{r3, pc}
 209              		.cfi_endproc
 210              	.LFE62:
 211              		.size	initAdc, .-initAdc
 212 00ee 00BF     		.section	.text.queryAdcI,"ax",%progbits
 213              		.align	2
 214              		.p2align 4,,15
 215              		.global	queryAdcI
 216              		.thumb
 217              		.thumb_func
 218              		.type	queryAdcI, %function
 219              	queryAdcI:
 220              	.LFB63:
 221              		.loc 1 70 0
 222              		.cfi_startproc
 223              		@ args = 0, pretend = 0, frame = 0
 224              		@ frame_needed = 0, uses_anonymous_args = 0
 225 0000 08B5     		push	{r3, lr}
 226              	.LCFI1:
 227              		.cfi_def_cfa_offset 8
 228              		.loc 1 71 0
 229 0002 40F20000 		movw	r0, #:lower16:SPID1
 230 0006 C0F20000 		movt	r0, #:upper16:SPID1
 231              		.cfi_offset 14, -4
 232              		.cfi_offset 3, -8
 233 000a FFF7FEFF 		bl	spi_lld_select
 234              		.loc 1 72 0
 235 000e 40F20003 		movw	r3, #:lower16:SPID1
 236 0012 C0F20003 		movt	r3, #:upper16:SPID1
 237 0016 4FF00302 		mov	r2, #3
 238 001a 1A70     		strb	r2, [r3, #0]
 239 001c 40F20000 		movw	r0, #:lower16:SPID1
 240 0020 C0F20000 		movt	r0, #:upper16:SPID1
 241 0024 4FF00301 		mov	r1, #3
 242 0028 40F20002 		movw	r2, #:lower16:adc_rx_buffer
 243 002c C0F20002 		movt	r2, #:upper16:adc_rx_buffer
 244 0030 FFF7FEFF 		bl	spi_lld_receive
 245              		.loc 1 76 0
 246 0034 08BD     		pop	{r3, pc}
 247              		.cfi_endproc
 248              	.LFE63:
 249              		.size	queryAdcI, .-queryAdcI
 250 0036 00BFAFF3 		.section	.text.onSpiComplete,"ax",%progbits
 250      0080AFF3 
 250      0080
 251              		.align	2
 252              		.p2align 4,,15
 253              		.thumb
 254              		.thumb_func
 255              		.type	onSpiComplete, %function
 256              	onSpiComplete:
 257              	.LFB64:
 258              		.loc 1 79 0
 259              		.cfi_startproc
ARM GAS  C:\Users\z80\AppData\Local\Temp\ccmGcbDs.s 			page 6


 260              		@ args = 0, pretend = 0, frame = 24
 261              		@ frame_needed = 0, uses_anonymous_args = 0
 262 0000 00B5     		push	{lr}
 263              	.LCFI2:
 264              		.cfi_def_cfa_offset 4
 265 0002 87B0     		sub	sp, sp, #28
 266              	.LCFI3:
 267              		.cfi_def_cfa_offset 32
 268 0004 0190     		str	r0, [sp, #4]
 269              	.LBB2:
 270              		.loc 1 81 0
 271 0006 4FF02003 		mov	r3, #32
 272              	@ 81 "./src/adc_ctrl.c" 1
 273 000a 83F31188 		msr     BASEPRI, r3
 274              	@ 0 "" 2
 275              		.thumb
 276              	.LBE2:
 277              		.cfi_offset 14, -4
 278 000e FFF7FEFF 		bl	dbg_check_lock_from_isr
 279              		.loc 1 83 0
 280 0012 40F20003 		movw	r3, #:lower16:adcIndex
 281 0016 C0F20003 		movt	r3, #:upper16:adcIndex
 282 001a 1B68     		ldr	r3, [r3, #0]
 283 001c 0593     		str	r3, [sp, #20]
 284              		.loc 1 84 0
 285 001e 40F20003 		movw	r3, #:lower16:adcIndex
 286 0022 C0F20003 		movt	r3, #:upper16:adcIndex
 287 0026 1B68     		ldr	r3, [r3, #0]
 288 0028 03F10102 		add	r2, r3, #1
 289 002c 4FEAE273 		asr	r3, r2, #31
 290 0030 4FEA9373 		lsr	r3, r3, #30
 291 0034 1A44     		add	r2, r2, r3
 292 0036 02F00302 		and	r2, r2, #3
 293 003a C3EB0203 		rsb	r3, r3, r2
 294 003e 1A46     		mov	r2, r3
 295 0040 40F20003 		movw	r3, #:lower16:adcIndex
 296 0044 C0F20003 		movt	r3, #:upper16:adcIndex
 297 0048 1A60     		str	r2, [r3, #0]
 298              		.loc 1 85 0
 299 004a 40F20003 		movw	r3, #:lower16:adcIndex
 300 004e C0F20003 		movt	r3, #:upper16:adcIndex
 301 0052 1B68     		ldr	r3, [r3, #0]
 302 0054 1846     		mov	r0, r3
 303 0056 FFF7FEFF 		bl	selectAdcIndex
 304              		.loc 1 87 0
 305 005a 40F20000 		movw	r0, #:lower16:SPID1
 306 005e C0F20000 		movt	r0, #:upper16:SPID1
 307 0062 FFF7FEFF 		bl	spi_lld_unselect
 308              		.loc 1 89 0
 309 0066 40F20003 		movw	r3, #:lower16:adc_rx_buffer
 310 006a C0F20003 		movt	r3, #:upper16:adc_rx_buffer
 311 006e 9B78     		ldrb	r3, [r3, #2]	@ zero_extendqisi2
 312 0070 1A46     		mov	r2, r3
 313              		.loc 1 90 0
 314 0072 40F20003 		movw	r3, #:lower16:adc_rx_buffer
 315 0076 C0F20003 		movt	r3, #:upper16:adc_rx_buffer
 316 007a 5B78     		ldrb	r3, [r3, #1]	@ zero_extendqisi2
ARM GAS  C:\Users\z80\AppData\Local\Temp\ccmGcbDs.s 			page 7


 317 007c 4FEA0323 		lsl	r3, r3, #8
 318              		.loc 1 89 0
 319 0080 1A44     		add	r2, r2, r3
 320              		.loc 1 91 0
 321 0082 40F20003 		movw	r3, #:lower16:adc_rx_buffer
 322 0086 C0F20003 		movt	r3, #:upper16:adc_rx_buffer
 323 008a 1B78     		ldrb	r3, [r3, #0]	@ zero_extendqisi2
 324 008c 4FEA0343 		lsl	r3, r3, #16
 325              		.loc 1 89 0
 326 0090 1344     		add	r3, r2, r3
 327 0092 0493     		str	r3, [sp, #16]
 328              		.loc 1 92 0
 329 0094 049B     		ldr	r3, [sp, #16]
 330 0096 4FEA6303 		asr	r3, r3, #1
 331 009a 4FEA0343 		lsl	r3, r3, #16
 332 009e 4FEA1343 		lsr	r3, r3, #16
 333 00a2 0493     		str	r3, [sp, #16]
 334              		.loc 1 93 0
 335 00a4 40F20003 		movw	r3, #:lower16:instantAdcData
 336 00a8 C0F20003 		movt	r3, #:upper16:instantAdcData
 337 00ac 059A     		ldr	r2, [sp, #20]
 338 00ae 0499     		ldr	r1, [sp, #16]
 339 00b0 43F82210 		str	r1, [r3, r2, lsl #2]
 340              		.loc 1 99 0
 341 00b4 059B     		ldr	r3, [sp, #20]
 342 00b6 032B     		cmp	r3, #3
 343 00b8 40F01F81 		bne	.L4
 344              		.loc 1 101 0
 345 00bc 40F20003 		movw	r3, #:lower16:elapsed
 346 00c0 C0F20003 		movt	r3, #:upper16:elapsed
 347 00c4 1B68     		ldr	r3, [r3, #0]
 348 00c6 03F10102 		add	r2, r3, #1
 349 00ca 40F20003 		movw	r3, #:lower16:elapsed
 350 00ce C0F20003 		movt	r3, #:upper16:elapsed
 351 00d2 1A60     		str	r2, [r3, #0]
 352              		.loc 1 102 0
 353 00d4 40F20003 		movw	r3, #:lower16:elapsed
 354 00d8 C0F20003 		movt	r3, #:upper16:elapsed
 355 00dc 1A68     		ldr	r2, [r3, #0]
 356 00de 40F20003 		movw	r3, #:lower16:period
 357 00e2 C0F20003 		movt	r3, #:upper16:period
 358 00e6 1B68     		ldr	r3, [r3, #0]
 359 00e8 9A42     		cmp	r2, r3
 360 00ea C0F20681 		blt	.L4
 361              		.loc 1 104 0
 362 00ee 40F20003 		movw	r3, #:lower16:elapsed
 363 00f2 C0F20003 		movt	r3, #:upper16:elapsed
 364 00f6 1A68     		ldr	r2, [r3, #0]
 365 00f8 40F20003 		movw	r3, #:lower16:period
 366 00fc C0F20003 		movt	r3, #:upper16:period
 367 0100 1B68     		ldr	r3, [r3, #0]
 368 0102 C3EB0202 		rsb	r2, r3, r2
 369 0106 40F20003 		movw	r3, #:lower16:elapsed
 370 010a C0F20003 		movt	r3, #:upper16:elapsed
 371 010e 1A60     		str	r2, [r3, #0]
 372              		.loc 1 105 0
 373 0110 40F20003 		movw	r3, #:lower16:adc_queue
ARM GAS  C:\Users\z80\AppData\Local\Temp\ccmGcbDs.s 			page 8


 374 0114 C0F20003 		movt	r3, #:upper16:adc_queue
 375 0118 1B69     		ldr	r3, [r3, #16]
 376 011a 1A46     		mov	r2, r3
 377 011c 40F20003 		movw	r3, #:lower16:adc_queue
 378 0120 C0F20003 		movt	r3, #:upper16:adc_queue
 379 0124 DB68     		ldr	r3, [r3, #12]
 380 0126 C3EB0203 		rsb	r3, r3, r2
 381 012a 1A46     		mov	r2, r3
 382 012c 40F20003 		movw	r3, #:lower16:adc_queue
 383 0130 C0F20003 		movt	r3, #:upper16:adc_queue
 384 0134 9B68     		ldr	r3, [r3, #8]
 385 0136 C3EB0203 		rsb	r3, r3, r2
 386 013a 0B2B     		cmp	r3, #11
 387 013c 40F2DD80 		bls	.L4
 388              	.LBB3:
 389              		.loc 1 112 0
 390 0140 40F20003 		movw	r3, #:lower16:signalMask
 391 0144 C0F20003 		movt	r3, #:upper16:signalMask
 392 0148 1B68     		ldr	r3, [r3, #0]
 393 014a 03F00103 		and	r3, r3, #1
 394 014e DBB2     		uxtb	r3, r3
 395 0150 002B     		cmp	r3, #0
 396 0152 2DD0     		beq	.L5
 397              		.loc 1 114 0
 398 0154 40F20003 		movw	r3, #:lower16:instantAdcData
 399 0158 C0F20003 		movt	r3, #:upper16:instantAdcData
 400 015c 1B68     		ldr	r3, [r3, #0]
 401 015e 0493     		str	r3, [sp, #16]
 402              		.loc 1 115 0
 403 0160 049B     		ldr	r3, [sp, #16]
 404 0162 8DF80F30 		strb	r3, [sp, #15]
 405              		.loc 1 116 0
 406 0166 9DF80F30 		ldrb	r3, [sp, #15]	@ zero_extendqisi2
 407 016a 40F20000 		movw	r0, #:lower16:adc_queue
 408 016e C0F20000 		movt	r0, #:upper16:adc_queue
 409 0172 1946     		mov	r1, r3
 410 0174 FFF7FEFF 		bl	chIQPutI
 411              		.loc 1 118 0
 412 0178 049B     		ldr	r3, [sp, #16]
 413 017a 4FEA2323 		asr	r3, r3, #8
 414 017e 8DF80F30 		strb	r3, [sp, #15]
 415              		.loc 1 119 0
 416 0182 9DF80F30 		ldrb	r3, [sp, #15]	@ zero_extendqisi2
 417 0186 40F20000 		movw	r0, #:lower16:adc_queue
 418 018a C0F20000 		movt	r0, #:upper16:adc_queue
 419 018e 1946     		mov	r1, r3
 420 0190 FFF7FEFF 		bl	chIQPutI
 421              		.loc 1 121 0
 422 0194 049B     		ldr	r3, [sp, #16]
 423 0196 4FEA2343 		asr	r3, r3, #16
 424 019a 8DF80F30 		strb	r3, [sp, #15]
 425              		.loc 1 122 0
 426 019e 9DF80F30 		ldrb	r3, [sp, #15]	@ zero_extendqisi2
 427 01a2 40F20000 		movw	r0, #:lower16:adc_queue
 428 01a6 C0F20000 		movt	r0, #:upper16:adc_queue
 429 01aa 1946     		mov	r1, r3
 430 01ac FFF7FEFF 		bl	chIQPutI
ARM GAS  C:\Users\z80\AppData\Local\Temp\ccmGcbDs.s 			page 9


 431              	.L5:
 432              		.loc 1 125 0
 433 01b0 40F20003 		movw	r3, #:lower16:signalMask
 434 01b4 C0F20003 		movt	r3, #:upper16:signalMask
 435 01b8 1B68     		ldr	r3, [r3, #0]
 436 01ba 03F00203 		and	r3, r3, #2
 437 01be 002B     		cmp	r3, #0
 438 01c0 2DD0     		beq	.L6
 439              		.loc 1 127 0
 440 01c2 40F20003 		movw	r3, #:lower16:instantAdcData
 441 01c6 C0F20003 		movt	r3, #:upper16:instantAdcData
 442 01ca 5B68     		ldr	r3, [r3, #4]
 443 01cc 0493     		str	r3, [sp, #16]
 444              		.loc 1 128 0
 445 01ce 049B     		ldr	r3, [sp, #16]
 446 01d0 8DF80F30 		strb	r3, [sp, #15]
 447              		.loc 1 129 0
 448 01d4 9DF80F30 		ldrb	r3, [sp, #15]	@ zero_extendqisi2
 449 01d8 40F20000 		movw	r0, #:lower16:adc_queue
 450 01dc C0F20000 		movt	r0, #:upper16:adc_queue
 451 01e0 1946     		mov	r1, r3
 452 01e2 FFF7FEFF 		bl	chIQPutI
 453              		.loc 1 131 0
 454 01e6 049B     		ldr	r3, [sp, #16]
 455 01e8 4FEA2323 		asr	r3, r3, #8
 456 01ec 8DF80F30 		strb	r3, [sp, #15]
 457              		.loc 1 132 0
 458 01f0 9DF80F30 		ldrb	r3, [sp, #15]	@ zero_extendqisi2
 459 01f4 40F20000 		movw	r0, #:lower16:adc_queue
 460 01f8 C0F20000 		movt	r0, #:upper16:adc_queue
 461 01fc 1946     		mov	r1, r3
 462 01fe FFF7FEFF 		bl	chIQPutI
 463              		.loc 1 134 0
 464 0202 049B     		ldr	r3, [sp, #16]
 465 0204 4FEA2343 		asr	r3, r3, #16
 466 0208 8DF80F30 		strb	r3, [sp, #15]
 467              		.loc 1 135 0
 468 020c 9DF80F30 		ldrb	r3, [sp, #15]	@ zero_extendqisi2
 469 0210 40F20000 		movw	r0, #:lower16:adc_queue
 470 0214 C0F20000 		movt	r0, #:upper16:adc_queue
 471 0218 1946     		mov	r1, r3
 472 021a FFF7FEFF 		bl	chIQPutI
 473              	.L6:
 474              		.loc 1 138 0
 475 021e 40F20003 		movw	r3, #:lower16:signalMask
 476 0222 C0F20003 		movt	r3, #:upper16:signalMask
 477 0226 1B68     		ldr	r3, [r3, #0]
 478 0228 03F00403 		and	r3, r3, #4
 479 022c 002B     		cmp	r3, #0
 480 022e 2DD0     		beq	.L7
 481              		.loc 1 140 0
 482 0230 40F20003 		movw	r3, #:lower16:instantAdcData
 483 0234 C0F20003 		movt	r3, #:upper16:instantAdcData
 484 0238 9B68     		ldr	r3, [r3, #8]
 485 023a 0493     		str	r3, [sp, #16]
 486              		.loc 1 141 0
 487 023c 049B     		ldr	r3, [sp, #16]
ARM GAS  C:\Users\z80\AppData\Local\Temp\ccmGcbDs.s 			page 10


 488 023e 8DF80F30 		strb	r3, [sp, #15]
 489              		.loc 1 142 0
 490 0242 9DF80F30 		ldrb	r3, [sp, #15]	@ zero_extendqisi2
 491 0246 40F20000 		movw	r0, #:lower16:adc_queue
 492 024a C0F20000 		movt	r0, #:upper16:adc_queue
 493 024e 1946     		mov	r1, r3
 494 0250 FFF7FEFF 		bl	chIQPutI
 495              		.loc 1 144 0
 496 0254 049B     		ldr	r3, [sp, #16]
 497 0256 4FEA2323 		asr	r3, r3, #8
 498 025a 8DF80F30 		strb	r3, [sp, #15]
 499              		.loc 1 145 0
 500 025e 9DF80F30 		ldrb	r3, [sp, #15]	@ zero_extendqisi2
 501 0262 40F20000 		movw	r0, #:lower16:adc_queue
 502 0266 C0F20000 		movt	r0, #:upper16:adc_queue
 503 026a 1946     		mov	r1, r3
 504 026c FFF7FEFF 		bl	chIQPutI
 505              		.loc 1 147 0
 506 0270 049B     		ldr	r3, [sp, #16]
 507 0272 4FEA2343 		asr	r3, r3, #16
 508 0276 8DF80F30 		strb	r3, [sp, #15]
 509              		.loc 1 148 0
 510 027a 9DF80F30 		ldrb	r3, [sp, #15]	@ zero_extendqisi2
 511 027e 40F20000 		movw	r0, #:lower16:adc_queue
 512 0282 C0F20000 		movt	r0, #:upper16:adc_queue
 513 0286 1946     		mov	r1, r3
 514 0288 FFF7FEFF 		bl	chIQPutI
 515              	.L7:
 516              		.loc 1 151 0
 517 028c 40F20003 		movw	r3, #:lower16:signalMask
 518 0290 C0F20003 		movt	r3, #:upper16:signalMask
 519 0294 1B68     		ldr	r3, [r3, #0]
 520 0296 03F00803 		and	r3, r3, #8
 521 029a 002B     		cmp	r3, #0
 522 029c 2DD0     		beq	.L4
 523              		.loc 1 153 0
 524 029e 40F20003 		movw	r3, #:lower16:instantAdcData
 525 02a2 C0F20003 		movt	r3, #:upper16:instantAdcData
 526 02a6 DB68     		ldr	r3, [r3, #12]
 527 02a8 0493     		str	r3, [sp, #16]
 528              		.loc 1 154 0
 529 02aa 049B     		ldr	r3, [sp, #16]
 530 02ac 8DF80F30 		strb	r3, [sp, #15]
 531              		.loc 1 155 0
 532 02b0 9DF80F30 		ldrb	r3, [sp, #15]	@ zero_extendqisi2
 533 02b4 40F20000 		movw	r0, #:lower16:adc_queue
 534 02b8 C0F20000 		movt	r0, #:upper16:adc_queue
 535 02bc 1946     		mov	r1, r3
 536 02be FFF7FEFF 		bl	chIQPutI
 537              		.loc 1 157 0
 538 02c2 049B     		ldr	r3, [sp, #16]
 539 02c4 4FEA2323 		asr	r3, r3, #8
 540 02c8 8DF80F30 		strb	r3, [sp, #15]
 541              		.loc 1 158 0
 542 02cc 9DF80F30 		ldrb	r3, [sp, #15]	@ zero_extendqisi2
 543 02d0 40F20000 		movw	r0, #:lower16:adc_queue
 544 02d4 C0F20000 		movt	r0, #:upper16:adc_queue
ARM GAS  C:\Users\z80\AppData\Local\Temp\ccmGcbDs.s 			page 11


 545 02d8 1946     		mov	r1, r3
 546 02da FFF7FEFF 		bl	chIQPutI
 547              		.loc 1 160 0
 548 02de 049B     		ldr	r3, [sp, #16]
 549 02e0 4FEA2343 		asr	r3, r3, #16
 550 02e4 8DF80F30 		strb	r3, [sp, #15]
 551              		.loc 1 161 0
 552 02e8 9DF80F30 		ldrb	r3, [sp, #15]	@ zero_extendqisi2
 553 02ec 40F20000 		movw	r0, #:lower16:adc_queue
 554 02f0 C0F20000 		movt	r0, #:upper16:adc_queue
 555 02f4 1946     		mov	r1, r3
 556 02f6 FFF7FEFF 		bl	chIQPutI
 557              	.L4:
 558              	.LBE3:
 559              		.loc 1 166 0
 560 02fa FFF7FEFF 		bl	dbg_check_unlock_from_isr
 561              	.LBB4:
 562 02fe 4FF00003 		mov	r3, #0
 563              	@ 166 "./src/adc_ctrl.c" 1
 564 0302 83F31188 		msr     BASEPRI, r3
 565              	@ 0 "" 2
 566              		.thumb
 567              	.LBE4:
 568              		.loc 1 167 0
 569 0306 07B0     		add	sp, sp, #28
 570 0308 00BD     		pop	{pc}
 571              		.cfi_endproc
 572              	.LFE64:
 573              		.size	onSpiComplete, .-onSpiComplete
 574 030a 00BFAFF3 		.section	.text.adcQueue,"ax",%progbits
 574      0080
 575              		.align	2
 576              		.p2align 4,,15
 577              		.global	adcQueue
 578              		.thumb
 579              		.thumb_func
 580              		.type	adcQueue, %function
 581              	adcQueue:
 582              	.LFB65:
 583              		.loc 1 170 0
 584              		.cfi_startproc
 585              		@ args = 0, pretend = 0, frame = 0
 586              		@ frame_needed = 0, uses_anonymous_args = 0
 587              		@ link register save eliminated.
 588              		.loc 1 171 0
 589 0000 40F20003 		movw	r3, #:lower16:adc_queue
 590 0004 C0F20003 		movt	r3, #:upper16:adc_queue
 591              		.loc 1 172 0
 592 0008 1846     		mov	r0, r3
 593 000a 7047     		bx	lr
 594              		.cfi_endproc
 595              	.LFE65:
 596              		.size	adcQueue, .-adcQueue
 597 000c AFF30080 		.section	.text.selectAdcIndex,"ax",%progbits
 598              		.align	2
 599              		.p2align 4,,15
 600              		.thumb
ARM GAS  C:\Users\z80\AppData\Local\Temp\ccmGcbDs.s 			page 12


 601              		.thumb_func
 602              		.type	selectAdcIndex, %function
 603              	selectAdcIndex:
 604              	.LFB66:
 605              		.loc 1 175 0
 606              		.cfi_startproc
 607              		@ args = 0, pretend = 0, frame = 8
 608              		@ frame_needed = 0, uses_anonymous_args = 0
 609              		@ link register save eliminated.
 610 0000 82B0     		sub	sp, sp, #8
 611              	.LCFI4:
 612              		.cfi_def_cfa_offset 8
 613 0002 0190     		str	r0, [sp, #4]
 614              		.loc 1 176 0
 615 0004 019B     		ldr	r3, [sp, #4]
 616 0006 03F00103 		and	r3, r3, #1
 617 000a DBB2     		uxtb	r3, r3
 618 000c 002B     		cmp	r3, #0
 619 000e 07D0     		beq	.L10
 620              		.loc 1 177 0
 621 0010 4FF40063 		mov	r3, #2048
 622 0014 C4F20103 		movt	r3, 16385
 623 0018 4FF00102 		mov	r2, #1
 624 001c 1A61     		str	r2, [r3, #16]
 625 001e 06E0     		b	.L11
 626              	.L10:
 627              		.loc 1 179 0
 628 0020 4FF40063 		mov	r3, #2048
 629 0024 C4F20103 		movt	r3, 16385
 630 0028 4FF00102 		mov	r2, #1
 631 002c 5A61     		str	r2, [r3, #20]
 632              	.L11:
 633              		.loc 1 181 0
 634 002e 019B     		ldr	r3, [sp, #4]
 635 0030 03F00203 		and	r3, r3, #2
 636 0034 002B     		cmp	r3, #0
 637 0036 07D0     		beq	.L12
 638              		.loc 1 182 0
 639 0038 4FF40063 		mov	r3, #2048
 640 003c C4F20103 		movt	r3, 16385
 641 0040 4FF00202 		mov	r2, #2
 642 0044 1A61     		str	r2, [r3, #16]
 643 0046 06E0     		b	.L9
 644              	.L12:
 645              		.loc 1 184 0
 646 0048 4FF40063 		mov	r3, #2048
 647 004c C4F20103 		movt	r3, 16385
 648 0050 4FF00202 		mov	r2, #2
 649 0054 5A61     		str	r2, [r3, #20]
 650              	.L9:
 651              		.loc 1 185 0
 652 0056 02B0     		add	sp, sp, #8
 653 0058 7047     		bx	lr
 654              		.cfi_endproc
 655              	.LFE66:
 656              		.size	selectAdcIndex, .-selectAdcIndex
 657 005a 00BFAFF3 		.section	.text.instantAdc,"ax",%progbits
ARM GAS  C:\Users\z80\AppData\Local\Temp\ccmGcbDs.s 			page 13


 657      0080
 658              		.align	2
 659              		.p2align 4,,15
 660              		.global	instantAdc
 661              		.thumb
 662              		.thumb_func
 663              		.type	instantAdc, %function
 664              	instantAdc:
 665              	.LFB67:
 666              		.loc 1 205 0
 667              		.cfi_startproc
 668              		@ args = 0, pretend = 0, frame = 8
 669              		@ frame_needed = 0, uses_anonymous_args = 0
 670 0000 00B5     		push	{lr}
 671              	.LCFI5:
 672              		.cfi_def_cfa_offset 4
 673 0002 83B0     		sub	sp, sp, #12
 674              	.LCFI6:
 675              		.cfi_def_cfa_offset 16
 676 0004 0190     		str	r0, [sp, #4]
 677              		.loc 1 206 0
 678 0006 019B     		ldr	r3, [sp, #4]
 679 0008 002B     		cmp	r3, #0
 680 000a 2DD0     		beq	.L14
 681              		.cfi_offset 14, -4
 682              	.LBB5:
 683              		.loc 1 208 0
 684 000c 4FF02003 		mov	r3, #32
 685              	@ 208 "./src/adc_ctrl.c" 1
 686 0010 83F31188 		msr     BASEPRI, r3
 687              	@ 0 "" 2
 688              		.thumb
 689              	.LBE5:
 690 0014 FFF7FEFF 		bl	dbg_check_lock
 691              		.loc 1 209 0
 692 0018 40F20003 		movw	r3, #:lower16:instantAdcData
 693 001c C0F20003 		movt	r3, #:upper16:instantAdcData
 694 0020 1A68     		ldr	r2, [r3, #0]
 695 0022 019B     		ldr	r3, [sp, #4]
 696 0024 1A60     		str	r2, [r3, #0]
 697              		.loc 1 210 0
 698 0026 019B     		ldr	r3, [sp, #4]
 699 0028 03F10402 		add	r2, r3, #4
 700 002c 40F20003 		movw	r3, #:lower16:instantAdcData
 701 0030 C0F20003 		movt	r3, #:upper16:instantAdcData
 702 0034 5B68     		ldr	r3, [r3, #4]
 703 0036 1360     		str	r3, [r2, #0]
 704              		.loc 1 211 0
 705 0038 019B     		ldr	r3, [sp, #4]
 706 003a 03F10802 		add	r2, r3, #8
 707 003e 40F20003 		movw	r3, #:lower16:instantAdcData
 708 0042 C0F20003 		movt	r3, #:upper16:instantAdcData
 709 0046 9B68     		ldr	r3, [r3, #8]
 710 0048 1360     		str	r3, [r2, #0]
 711              		.loc 1 212 0
 712 004a 019B     		ldr	r3, [sp, #4]
 713 004c 03F10C02 		add	r2, r3, #12
ARM GAS  C:\Users\z80\AppData\Local\Temp\ccmGcbDs.s 			page 14


 714 0050 40F20003 		movw	r3, #:lower16:instantAdcData
 715 0054 C0F20003 		movt	r3, #:upper16:instantAdcData
 716 0058 DB68     		ldr	r3, [r3, #12]
 717 005a 1360     		str	r3, [r2, #0]
 718              		.loc 1 213 0
 719 005c FFF7FEFF 		bl	dbg_check_unlock
 720              	.LBB6:
 721 0060 4FF00003 		mov	r3, #0
 722              	@ 213 "./src/adc_ctrl.c" 1
 723 0064 83F31188 		msr     BASEPRI, r3
 724              	@ 0 "" 2
 725              		.thumb
 726              	.L14:
 727              	.LBE6:
 728              		.loc 1 215 0
 729 0068 03B0     		add	sp, sp, #12
 730 006a 00BD     		pop	{pc}
 731              		.cfi_endproc
 732              	.LFE67:
 733              		.size	instantAdc, .-instantAdc
 734 006c AFF30080 		.section	.text.setOscSignals,"ax",%progbits
 735              		.align	2
 736              		.p2align 4,,15
 737              		.global	setOscSignals
 738              		.thumb
 739              		.thumb_func
 740              		.type	setOscSignals, %function
 741              	setOscSignals:
 742              	.LFB68:
 743              		.loc 1 218 0
 744              		.cfi_startproc
 745              		@ args = 0, pretend = 0, frame = 8
 746              		@ frame_needed = 0, uses_anonymous_args = 0
 747 0000 00B5     		push	{lr}
 748              	.LCFI7:
 749              		.cfi_def_cfa_offset 4
 750 0002 83B0     		sub	sp, sp, #12
 751              	.LCFI8:
 752              		.cfi_def_cfa_offset 16
 753 0004 0190     		str	r0, [sp, #4]
 754              	.LBB7:
 755              		.loc 1 219 0
 756 0006 4FF02003 		mov	r3, #32
 757              	@ 219 "./src/adc_ctrl.c" 1
 758 000a 83F31188 		msr     BASEPRI, r3
 759              	@ 0 "" 2
 760              		.thumb
 761              	.LBE7:
 762              		.cfi_offset 14, -4
 763 000e FFF7FEFF 		bl	dbg_check_lock
 764              		.loc 1 220 0
 765 0012 40F20003 		movw	r3, #:lower16:signalMask
 766 0016 C0F20003 		movt	r3, #:upper16:signalMask
 767 001a 019A     		ldr	r2, [sp, #4]
 768 001c 1A60     		str	r2, [r3, #0]
 769              		.loc 1 221 0
 770 001e FFF7FEFF 		bl	dbg_check_unlock
ARM GAS  C:\Users\z80\AppData\Local\Temp\ccmGcbDs.s 			page 15


 771              	.LBB8:
 772 0022 4FF00003 		mov	r3, #0
 773              	@ 221 "./src/adc_ctrl.c" 1
 774 0026 83F31188 		msr     BASEPRI, r3
 775              	@ 0 "" 2
 776              		.thumb
 777              	.LBE8:
 778              		.loc 1 222 0
 779 002a 03B0     		add	sp, sp, #12
 780 002c 00BD     		pop	{pc}
 781              		.cfi_endproc
 782              	.LFE68:
 783              		.size	setOscSignals, .-setOscSignals
 784 002e 00BF     		.section	.text.setOscPeriod,"ax",%progbits
 785              		.align	2
 786              		.p2align 4,,15
 787              		.global	setOscPeriod
 788              		.thumb
 789              		.thumb_func
 790              		.type	setOscPeriod, %function
 791              	setOscPeriod:
 792              	.LFB69:
 793              		.loc 1 225 0
 794              		.cfi_startproc
 795              		@ args = 0, pretend = 0, frame = 8
 796              		@ frame_needed = 0, uses_anonymous_args = 0
 797 0000 00B5     		push	{lr}
 798              	.LCFI9:
 799              		.cfi_def_cfa_offset 4
 800 0002 83B0     		sub	sp, sp, #12
 801              	.LCFI10:
 802              		.cfi_def_cfa_offset 16
 803 0004 0190     		str	r0, [sp, #4]
 804              	.LBB9:
 805              		.loc 1 226 0
 806 0006 4FF02003 		mov	r3, #32
 807              	@ 226 "./src/adc_ctrl.c" 1
 808 000a 83F31188 		msr     BASEPRI, r3
 809              	@ 0 "" 2
 810              		.thumb
 811              	.LBE9:
 812              		.cfi_offset 14, -4
 813 000e FFF7FEFF 		bl	dbg_check_lock
 814              		.loc 1 227 0
 815 0012 019A     		ldr	r2, [sp, #4]
 816 0014 40F20003 		movw	r3, #:lower16:period
 817 0018 C0F20003 		movt	r3, #:upper16:period
 818 001c 1A60     		str	r2, [r3, #0]
 819              		.loc 1 228 0
 820 001e FFF7FEFF 		bl	dbg_check_unlock
 821              	.LBB10:
 822 0022 4FF00003 		mov	r3, #0
 823              	@ 228 "./src/adc_ctrl.c" 1
 824 0026 83F31188 		msr     BASEPRI, r3
 825              	@ 0 "" 2
 826              		.thumb
 827              	.LBE10:
ARM GAS  C:\Users\z80\AppData\Local\Temp\ccmGcbDs.s 			page 16


 828              		.loc 1 229 0
 829 002a 03B0     		add	sp, sp, #12
 830 002c 00BD     		pop	{pc}
 831              		.cfi_endproc
 832              	.LFE69:
 833              		.size	setOscPeriod, .-setOscPeriod
 834 002e 00BF     		.section	.text.sweepData,"ax",%progbits
 835              		.align	2
 836              		.p2align 4,,15
 837              		.global	sweepData
 838              		.thumb
 839              		.thumb_func
 840              		.type	sweepData, %function
 841              	sweepData:
 842              	.LFB70:
 843              		.loc 1 232 0
 844              		.cfi_startproc
 845              		@ args = 0, pretend = 0, frame = 0
 846              		@ frame_needed = 0, uses_anonymous_args = 0
 847              		@ link register save eliminated.
 848              		.loc 1 233 0
 849 0000 40F20003 		movw	r3, #:lower16:sweep_queue
 850 0004 C0F20003 		movt	r3, #:upper16:sweep_queue
 851              		.loc 1 234 0
 852 0008 1846     		mov	r0, r3
 853 000a 7047     		bx	lr
 854              		.cfi_endproc
 855              	.LFE70:
 856              		.size	sweepData, .-sweepData
 857 000c AFF30080 		.section	.data.sweepSigs,"aw",%progbits
 858              		.type	sweepSigs, %object
 859              		.size	sweepSigs, 1
 860              	sweepSigs:
 861 0000 0F       		.byte	15
 862              		.section	.data.sweepOscPeriod,"aw",%progbits
 863              		.align	2
 864              		.type	sweepOscPeriod, %object
 865              		.size	sweepOscPeriod, 4
 866              	sweepOscPeriod:
 867 0000 401F0000 		.word	8000
 868              		.section	.text.setSweepOsc,"ax",%progbits
 869              		.align	2
 870              		.p2align 4,,15
 871              		.global	setSweepOsc
 872              		.thumb
 873              		.thumb_func
 874              		.type	setSweepOsc, %function
 875              	setSweepOsc:
 876              	.LFB71:
 877              		.loc 1 240 0
 878              		.cfi_startproc
 879              		@ args = 0, pretend = 0, frame = 8
 880              		@ frame_needed = 0, uses_anonymous_args = 0
 881              		@ link register save eliminated.
 882 0000 82B0     		sub	sp, sp, #8
 883              	.LCFI11:
 884              		.cfi_def_cfa_offset 8
ARM GAS  C:\Users\z80\AppData\Local\Temp\ccmGcbDs.s 			page 17


 885 0002 0346     		mov	r3, r0
 886 0004 0091     		str	r1, [sp, #0]
 887 0006 8DF80730 		strb	r3, [sp, #7]
 888              		.loc 1 241 0
 889 000a 40F20003 		movw	r3, #:lower16:sweepSigs
 890 000e C0F20003 		movt	r3, #:upper16:sweepSigs
 891 0012 9DF80720 		ldrb	r2, [sp, #7]
 892 0016 1A70     		strb	r2, [r3, #0]
 893              		.loc 1 242 0
 894 0018 40F20003 		movw	r3, #:lower16:sweepOscPeriod
 895 001c C0F20003 		movt	r3, #:upper16:sweepOscPeriod
 896 0020 009A     		ldr	r2, [sp, #0]
 897 0022 1A60     		str	r2, [r3, #0]
 898              		.loc 1 243 0
 899 0024 02B0     		add	sp, sp, #8
 900 0026 7047     		bx	lr
 901              		.cfi_endproc
 902              	.LFE71:
 903              		.size	setSweepOsc, .-setSweepOsc
 904 0028 AFF30080 		.section	.bss.sweepDacsFrom,"aw",%nobits
 904      AFF30080 
 905              		.align	2
 906              		.type	sweepDacsFrom, %object
 907              		.size	sweepDacsFrom, 8
 908              	sweepDacsFrom:
 909 0000 00000000 		.space	8
 909      00000000 
 910              		.section	.bss.sweepDacsTo,"aw",%nobits
 911              		.align	2
 912              		.type	sweepDacsTo, %object
 913              		.size	sweepDacsTo, 8
 914              	sweepDacsTo:
 915 0000 00000000 		.space	8
 915      00000000 
 916              		.section	.data.sweepPeriod,"aw",%progbits
 917              		.align	2
 918              		.type	sweepPeriod, %object
 919              		.size	sweepPeriod, 4
 920              	sweepPeriod:
 921 0000 00127A00 		.word	8000000
 922              		.section	.text.setSweep,"ax",%progbits
 923              		.align	2
 924              		.p2align 4,,15
 925              		.global	setSweep
 926              		.thumb
 927              		.thumb_func
 928              		.type	setSweep, %function
 929              	setSweep:
 930              	.LFB72:
 931              		.loc 1 250 0
 932              		.cfi_startproc
 933              		@ args = 0, pretend = 0, frame = 16
 934              		@ frame_needed = 0, uses_anonymous_args = 0
 935 0000 00B5     		push	{lr}
 936              	.LCFI12:
 937              		.cfi_def_cfa_offset 4
 938 0002 85B0     		sub	sp, sp, #20
ARM GAS  C:\Users\z80\AppData\Local\Temp\ccmGcbDs.s 			page 18


 939              	.LCFI13:
 940              		.cfi_def_cfa_offset 24
 941 0004 0390     		str	r0, [sp, #12]
 942 0006 0291     		str	r1, [sp, #8]
 943 0008 0192     		str	r2, [sp, #4]
 944              		.loc 1 251 0
 945 000a 039B     		ldr	r3, [sp, #12]
 946 000c 1A88     		ldrh	r2, [r3, #0]
 947 000e 40F20003 		movw	r3, #:lower16:sweepDacsFrom
 948 0012 C0F20003 		movt	r3, #:upper16:sweepDacsFrom
 949 0016 1A80     		strh	r2, [r3, #0]	@ movhi
 950              		.loc 1 252 0
 951 0018 039B     		ldr	r3, [sp, #12]
 952 001a 03F10203 		add	r3, r3, #2
 953 001e 1A88     		ldrh	r2, [r3, #0]
 954 0020 40F20003 		movw	r3, #:lower16:sweepDacsFrom
 955 0024 C0F20003 		movt	r3, #:upper16:sweepDacsFrom
 956 0028 5A80     		strh	r2, [r3, #2]	@ movhi
 957              		.loc 1 253 0
 958 002a 039B     		ldr	r3, [sp, #12]
 959 002c 03F10403 		add	r3, r3, #4
 960 0030 1A88     		ldrh	r2, [r3, #0]
 961 0032 40F20003 		movw	r3, #:lower16:sweepDacsFrom
 962 0036 C0F20003 		movt	r3, #:upper16:sweepDacsFrom
 963 003a 9A80     		strh	r2, [r3, #4]	@ movhi
 964              		.loc 1 254 0
 965 003c 039B     		ldr	r3, [sp, #12]
 966 003e 03F10603 		add	r3, r3, #6
 967 0042 1A88     		ldrh	r2, [r3, #0]
 968 0044 40F20003 		movw	r3, #:lower16:sweepDacsFrom
 969 0048 C0F20003 		movt	r3, #:upper16:sweepDacsFrom
 970 004c DA80     		strh	r2, [r3, #6]	@ movhi
 971              		.loc 1 256 0
 972 004e 029B     		ldr	r3, [sp, #8]
 973 0050 1A88     		ldrh	r2, [r3, #0]
 974 0052 40F20003 		movw	r3, #:lower16:sweepDacsTo
 975 0056 C0F20003 		movt	r3, #:upper16:sweepDacsTo
 976 005a 1A80     		strh	r2, [r3, #0]	@ movhi
 977              		.loc 1 257 0
 978 005c 029B     		ldr	r3, [sp, #8]
 979 005e 03F10203 		add	r3, r3, #2
 980 0062 1A88     		ldrh	r2, [r3, #0]
 981 0064 40F20003 		movw	r3, #:lower16:sweepDacsTo
 982 0068 C0F20003 		movt	r3, #:upper16:sweepDacsTo
 983 006c 5A80     		strh	r2, [r3, #2]	@ movhi
 984              		.loc 1 258 0
 985 006e 029B     		ldr	r3, [sp, #8]
 986 0070 03F10403 		add	r3, r3, #4
 987 0074 1A88     		ldrh	r2, [r3, #0]
 988 0076 40F20003 		movw	r3, #:lower16:sweepDacsTo
 989 007a C0F20003 		movt	r3, #:upper16:sweepDacsTo
 990 007e 9A80     		strh	r2, [r3, #4]	@ movhi
 991              		.loc 1 259 0
 992 0080 029B     		ldr	r3, [sp, #8]
 993 0082 03F10603 		add	r3, r3, #6
 994 0086 1A88     		ldrh	r2, [r3, #0]
 995 0088 40F20003 		movw	r3, #:lower16:sweepDacsTo
ARM GAS  C:\Users\z80\AppData\Local\Temp\ccmGcbDs.s 			page 19


 996 008c C0F20003 		movt	r3, #:upper16:sweepDacsTo
 997 0090 DA80     		strh	r2, [r3, #6]	@ movhi
 998              		.loc 1 261 0
 999 0092 40F20003 		movw	r3, #:lower16:sweepPeriod
 1000 0096 C0F20003 		movt	r3, #:upper16:sweepPeriod
 1001 009a 019A     		ldr	r2, [sp, #4]
 1002 009c 1A60     		str	r2, [r3, #0]
 1003              		.loc 1 263 0
 1004 009e 40F20000 		movw	r0, #:lower16:sweepCmdQueue
 1005 00a2 C0F20000 		movt	r0, #:upper16:sweepCmdQueue
 1006 00a6 4FF00101 		mov	r1, #1
 1007 00aa 4FF0FF32 		mov	r2, #-1
 1008              		.cfi_offset 14, -4
 1009 00ae FFF7FEFF 		bl	chOQPutTimeout
 1010              		.loc 1 264 0
 1011 00b2 05B0     		add	sp, sp, #20
 1012 00b4 00BD     		pop	{pc}
 1013              		.cfi_endproc
 1014              	.LFE72:
 1015              		.size	setSweep, .-setSweep
 1016 00b6 00BFAFF3 		.text
 1016      0080AFF3 
 1016      0080
 1017              	.Letext0:
 1018              		.section	.debug_loc,"",%progbits
 1019              	.Ldebug_loc0:
 1020              	.LLST0:
 1021 0000 00000000 		.4byte	.LFB62
 1022 0004 02000000 		.4byte	.LCFI0
 1023 0008 0200     		.2byte	0x2
 1024 000a 7D       		.byte	0x7d
 1025 000b 00       		.sleb128 0
 1026 000c 02000000 		.4byte	.LCFI0
 1027 0010 EE000000 		.4byte	.LFE62
 1028 0014 0200     		.2byte	0x2
 1029 0016 7D       		.byte	0x7d
 1030 0017 08       		.sleb128 8
 1031 0018 00000000 		.4byte	0x0
 1032 001c 00000000 		.4byte	0x0
 1033              	.LLST1:
 1034 0020 00000000 		.4byte	.LFB63
 1035 0024 02000000 		.4byte	.LCFI1
 1036 0028 0200     		.2byte	0x2
 1037 002a 7D       		.byte	0x7d
 1038 002b 00       		.sleb128 0
 1039 002c 02000000 		.4byte	.LCFI1
 1040 0030 36000000 		.4byte	.LFE63
 1041 0034 0200     		.2byte	0x2
 1042 0036 7D       		.byte	0x7d
 1043 0037 08       		.sleb128 8
 1044 0038 00000000 		.4byte	0x0
 1045 003c 00000000 		.4byte	0x0
 1046              	.LLST2:
 1047 0040 00000000 		.4byte	.LFB64
 1048 0044 02000000 		.4byte	.LCFI2
 1049 0048 0200     		.2byte	0x2
 1050 004a 7D       		.byte	0x7d
ARM GAS  C:\Users\z80\AppData\Local\Temp\ccmGcbDs.s 			page 20


 1051 004b 00       		.sleb128 0
 1052 004c 02000000 		.4byte	.LCFI2
 1053 0050 04000000 		.4byte	.LCFI3
 1054 0054 0200     		.2byte	0x2
 1055 0056 7D       		.byte	0x7d
 1056 0057 04       		.sleb128 4
 1057 0058 04000000 		.4byte	.LCFI3
 1058 005c 0A030000 		.4byte	.LFE64
 1059 0060 0200     		.2byte	0x2
 1060 0062 7D       		.byte	0x7d
 1061 0063 20       		.sleb128 32
 1062 0064 00000000 		.4byte	0x0
 1063 0068 00000000 		.4byte	0x0
 1064              	.LLST3:
 1065 006c 00000000 		.4byte	.LFB66
 1066 0070 02000000 		.4byte	.LCFI4
 1067 0074 0200     		.2byte	0x2
 1068 0076 7D       		.byte	0x7d
 1069 0077 00       		.sleb128 0
 1070 0078 02000000 		.4byte	.LCFI4
 1071 007c 5A000000 		.4byte	.LFE66
 1072 0080 0200     		.2byte	0x2
 1073 0082 7D       		.byte	0x7d
 1074 0083 08       		.sleb128 8
 1075 0084 00000000 		.4byte	0x0
 1076 0088 00000000 		.4byte	0x0
 1077              	.LLST4:
 1078 008c 00000000 		.4byte	.LFB67
 1079 0090 02000000 		.4byte	.LCFI5
 1080 0094 0200     		.2byte	0x2
 1081 0096 7D       		.byte	0x7d
 1082 0097 00       		.sleb128 0
 1083 0098 02000000 		.4byte	.LCFI5
 1084 009c 04000000 		.4byte	.LCFI6
 1085 00a0 0200     		.2byte	0x2
 1086 00a2 7D       		.byte	0x7d
 1087 00a3 04       		.sleb128 4
 1088 00a4 04000000 		.4byte	.LCFI6
 1089 00a8 6C000000 		.4byte	.LFE67
 1090 00ac 0200     		.2byte	0x2
 1091 00ae 7D       		.byte	0x7d
 1092 00af 10       		.sleb128 16
 1093 00b0 00000000 		.4byte	0x0
 1094 00b4 00000000 		.4byte	0x0
 1095              	.LLST5:
 1096 00b8 00000000 		.4byte	.LFB68
 1097 00bc 02000000 		.4byte	.LCFI7
 1098 00c0 0200     		.2byte	0x2
 1099 00c2 7D       		.byte	0x7d
 1100 00c3 00       		.sleb128 0
 1101 00c4 02000000 		.4byte	.LCFI7
 1102 00c8 04000000 		.4byte	.LCFI8
 1103 00cc 0200     		.2byte	0x2
 1104 00ce 7D       		.byte	0x7d
 1105 00cf 04       		.sleb128 4
 1106 00d0 04000000 		.4byte	.LCFI8
 1107 00d4 2E000000 		.4byte	.LFE68
ARM GAS  C:\Users\z80\AppData\Local\Temp\ccmGcbDs.s 			page 21


 1108 00d8 0200     		.2byte	0x2
 1109 00da 7D       		.byte	0x7d
 1110 00db 10       		.sleb128 16
 1111 00dc 00000000 		.4byte	0x0
 1112 00e0 00000000 		.4byte	0x0
 1113              	.LLST6:
 1114 00e4 00000000 		.4byte	.LFB69
 1115 00e8 02000000 		.4byte	.LCFI9
 1116 00ec 0200     		.2byte	0x2
 1117 00ee 7D       		.byte	0x7d
 1118 00ef 00       		.sleb128 0
 1119 00f0 02000000 		.4byte	.LCFI9
 1120 00f4 04000000 		.4byte	.LCFI10
 1121 00f8 0200     		.2byte	0x2
 1122 00fa 7D       		.byte	0x7d
 1123 00fb 04       		.sleb128 4
 1124 00fc 04000000 		.4byte	.LCFI10
 1125 0100 2E000000 		.4byte	.LFE69
 1126 0104 0200     		.2byte	0x2
 1127 0106 7D       		.byte	0x7d
 1128 0107 10       		.sleb128 16
 1129 0108 00000000 		.4byte	0x0
 1130 010c 00000000 		.4byte	0x0
 1131              	.LLST7:
 1132 0110 00000000 		.4byte	.LFB71
 1133 0114 02000000 		.4byte	.LCFI11
 1134 0118 0200     		.2byte	0x2
 1135 011a 7D       		.byte	0x7d
 1136 011b 00       		.sleb128 0
 1137 011c 02000000 		.4byte	.LCFI11
 1138 0120 28000000 		.4byte	.LFE71
 1139 0124 0200     		.2byte	0x2
 1140 0126 7D       		.byte	0x7d
 1141 0127 08       		.sleb128 8
 1142 0128 00000000 		.4byte	0x0
 1143 012c 00000000 		.4byte	0x0
 1144              	.LLST8:
 1145 0130 00000000 		.4byte	.LFB72
 1146 0134 02000000 		.4byte	.LCFI12
 1147 0138 0200     		.2byte	0x2
 1148 013a 7D       		.byte	0x7d
 1149 013b 00       		.sleb128 0
 1150 013c 02000000 		.4byte	.LCFI12
 1151 0140 04000000 		.4byte	.LCFI13
 1152 0144 0200     		.2byte	0x2
 1153 0146 7D       		.byte	0x7d
 1154 0147 04       		.sleb128 4
 1155 0148 04000000 		.4byte	.LCFI13
 1156 014c B6000000 		.4byte	.LFE72
 1157 0150 0200     		.2byte	0x2
 1158 0152 7D       		.byte	0x7d
 1159 0153 18       		.sleb128 24
 1160 0154 00000000 		.4byte	0x0
 1161 0158 00000000 		.4byte	0x0
 1162              		.file 2 "c:\\programs\\yagarto\\bin\\../lib/gcc/arm-none-eabi/4.5.0/include/stddef.h"
 1163              		.file 3 "c:/programs/yagarto/lib/gcc/../../arm-none-eabi/sys-include/stdint.h"
 1164              		.file 4 "../chibios_2.4.x/os/ports/GCC/ARMCMx/chtypes.h"
ARM GAS  C:\Users\z80\AppData\Local\Temp\ccmGcbDs.s 			page 22


 1165              		.file 5 "../chibios_2.4.x/os/kernel/include/chlists.h"
 1166              		.file 6 "../chibios_2.4.x/os/kernel/include/chthreads.h"
 1167              		.file 7 "../chibios_2.4.x/os/ports/GCC/ARMCMx/chcore_v7m.h"
 1168              		.file 8 "../chibios_2.4.x/os/kernel/include/chmtx.h"
 1169              		.file 9 "../chibios_2.4.x/os/kernel/include/chqueues.h"
 1170              		.file 10 "../chibios_2.4.x/os/hal/platforms/STM32F1xx/stm32f10x.h"
 1171              		.file 11 "../chibios_2.4.x/os/hal/platforms/STM32F1xx/stm32_dma.h"
 1172              		.file 12 "../chibios_2.4.x/os/hal/platforms/STM32/GPIOv1/pal_lld.h"
 1173              		.file 13 "../chibios_2.4.x/os/hal/include/spi.h"
 1174              		.file 14 "../chibios_2.4.x/os/hal/platforms/STM32/spi_lld.h"
 1175              		.file 15 "../chibios_2.4.x/os/ports/common/ARMCMx/CMSIS/include/core_cm3.h"
 1176              		.section	.debug_info
 1177 0000 3B0D0000 		.4byte	0xd3b
 1178 0004 0200     		.2byte	0x2
 1179 0006 00000000 		.4byte	.Ldebug_abbrev0
 1180 000a 04       		.byte	0x4
 1181 000b 01       		.uleb128 0x1
 1182 000c CE050000 		.4byte	.LASF153
 1183 0010 01       		.byte	0x1
 1184 0011 0E010000 		.4byte	.LASF154
 1185 0015 68010000 		.4byte	.LASF155
 1186 0019 00000000 		.4byte	0x0
 1187 001d 00000000 		.4byte	0x0
 1188 0021 00000000 		.4byte	.Ldebug_ranges0+0x0
 1189 0025 00000000 		.4byte	.Ldebug_line0
 1190 0029 02       		.uleb128 0x2
 1191 002a 04       		.byte	0x4
 1192 002b 05       		.byte	0x5
 1193 002c 696E7400 		.ascii	"int\000"
 1194 0030 03       		.uleb128 0x3
 1195 0031 06000000 		.4byte	.LASF2
 1196 0035 02       		.byte	0x2
 1197 0036 D3       		.byte	0xd3
 1198 0037 3B000000 		.4byte	0x3b
 1199 003b 04       		.uleb128 0x4
 1200 003c 04       		.byte	0x4
 1201 003d 07       		.byte	0x7
 1202 003e 55020000 		.4byte	.LASF0
 1203 0042 04       		.uleb128 0x4
 1204 0043 01       		.byte	0x1
 1205 0044 06       		.byte	0x6
 1206 0045 02010000 		.4byte	.LASF1
 1207 0049 03       		.uleb128 0x3
 1208 004a C1050000 		.4byte	.LASF3
 1209 004e 03       		.byte	0x3
 1210 004f 2A       		.byte	0x2a
 1211 0050 54000000 		.4byte	0x54
 1212 0054 04       		.uleb128 0x4
 1213 0055 01       		.byte	0x1
 1214 0056 08       		.byte	0x8
 1215 0057 1F040000 		.4byte	.LASF4
 1216 005b 04       		.uleb128 0x4
 1217 005c 02       		.byte	0x2
 1218 005d 05       		.byte	0x5
 1219 005e 63040000 		.4byte	.LASF5
 1220 0062 03       		.uleb128 0x3
 1221 0063 6E020000 		.4byte	.LASF6
ARM GAS  C:\Users\z80\AppData\Local\Temp\ccmGcbDs.s 			page 23


 1222 0067 03       		.byte	0x3
 1223 0068 36       		.byte	0x36
 1224 0069 6D000000 		.4byte	0x6d
 1225 006d 04       		.uleb128 0x4
 1226 006e 02       		.byte	0x2
 1227 006f 07       		.byte	0x7
 1228 0070 A0020000 		.4byte	.LASF7
 1229 0074 03       		.uleb128 0x3
 1230 0075 17040000 		.4byte	.LASF8
 1231 0079 03       		.byte	0x3
 1232 007a 4F       		.byte	0x4f
 1233 007b 7F000000 		.4byte	0x7f
 1234 007f 04       		.uleb128 0x4
 1235 0080 04       		.byte	0x4
 1236 0081 05       		.byte	0x5
 1237 0082 A4010000 		.4byte	.LASF9
 1238 0086 03       		.uleb128 0x3
 1239 0087 D8040000 		.4byte	.LASF10
 1240 008b 03       		.byte	0x3
 1241 008c 50       		.byte	0x50
 1242 008d 91000000 		.4byte	0x91
 1243 0091 04       		.uleb128 0x4
 1244 0092 04       		.byte	0x4
 1245 0093 07       		.byte	0x7
 1246 0094 F7040000 		.4byte	.LASF11
 1247 0098 04       		.uleb128 0x4
 1248 0099 08       		.byte	0x8
 1249 009a 05       		.byte	0x5
 1250 009b F4000000 		.4byte	.LASF12
 1251 009f 03       		.uleb128 0x3
 1252 00a0 3D030000 		.4byte	.LASF13
 1253 00a4 03       		.byte	0x3
 1254 00a5 78       		.byte	0x78
 1255 00a6 AA000000 		.4byte	0xaa
 1256 00aa 04       		.uleb128 0x4
 1257 00ab 08       		.byte	0x8
 1258 00ac 07       		.byte	0x7
 1259 00ad 30010000 		.4byte	.LASF14
 1260 00b1 03       		.uleb128 0x3
 1261 00b2 C3020000 		.4byte	.LASF15
 1262 00b6 04       		.byte	0x4
 1263 00b7 2F       		.byte	0x2f
 1264 00b8 49000000 		.4byte	0x49
 1265 00bc 03       		.uleb128 0x3
 1266 00bd AD010000 		.4byte	.LASF16
 1267 00c1 04       		.byte	0x4
 1268 00c2 30       		.byte	0x30
 1269 00c3 49000000 		.4byte	0x49
 1270 00c7 03       		.uleb128 0x3
 1271 00c8 F8030000 		.4byte	.LASF17
 1272 00cc 04       		.byte	0x4
 1273 00cd 32       		.byte	0x32
 1274 00ce 86000000 		.4byte	0x86
 1275 00d2 03       		.uleb128 0x3
 1276 00d3 B3020000 		.4byte	.LASF18
 1277 00d7 04       		.byte	0x4
 1278 00d8 33       		.byte	0x33
ARM GAS  C:\Users\z80\AppData\Local\Temp\ccmGcbDs.s 			page 24


 1279 00d9 74000000 		.4byte	0x74
 1280 00dd 03       		.uleb128 0x3
 1281 00de D5020000 		.4byte	.LASF19
 1282 00e2 04       		.byte	0x4
 1283 00e3 35       		.byte	0x35
 1284 00e4 86000000 		.4byte	0x86
 1285 00e8 03       		.uleb128 0x3
 1286 00e9 4D050000 		.4byte	.LASF20
 1287 00ed 04       		.byte	0x4
 1288 00ee 36       		.byte	0x36
 1289 00ef 86000000 		.4byte	0x86
 1290 00f3 03       		.uleb128 0x3
 1291 00f4 18030000 		.4byte	.LASF21
 1292 00f8 05       		.byte	0x5
 1293 00f9 2A       		.byte	0x2a
 1294 00fa FE000000 		.4byte	0xfe
 1295 00fe 05       		.uleb128 0x5
 1296 00ff 18030000 		.4byte	.LASF21
 1297 0103 48       		.byte	0x48
 1298 0104 06       		.byte	0x6
 1299 0105 5E       		.byte	0x5e
 1300 0106 07020000 		.4byte	0x207
 1301 010a 06       		.uleb128 0x6
 1302 010b 8B040000 		.4byte	.LASF22
 1303 010f 06       		.byte	0x6
 1304 0110 5F       		.byte	0x5f
 1305 0111 2C020000 		.4byte	0x22c
 1306 0115 02       		.byte	0x2
 1307 0116 23       		.byte	0x23
 1308 0117 00       		.uleb128 0x0
 1309 0118 06       		.uleb128 0x6
 1310 0119 D3030000 		.4byte	.LASF23
 1311 011d 06       		.byte	0x6
 1312 011e 61       		.byte	0x61
 1313 011f 2C020000 		.4byte	0x22c
 1314 0123 02       		.byte	0x2
 1315 0124 23       		.byte	0x23
 1316 0125 04       		.uleb128 0x4
 1317 0126 06       		.uleb128 0x6
 1318 0127 DA000000 		.4byte	.LASF24
 1319 012b 06       		.byte	0x6
 1320 012c 63       		.byte	0x63
 1321 012d C7000000 		.4byte	0xc7
 1322 0131 02       		.byte	0x2
 1323 0132 23       		.byte	0x23
 1324 0133 08       		.uleb128 0x8
 1325 0134 06       		.uleb128 0x6
 1326 0135 00060000 		.4byte	.LASF25
 1327 0139 06       		.byte	0x6
 1328 013a 64       		.byte	0x64
 1329 013b 04030000 		.4byte	0x304
 1330 013f 02       		.byte	0x2
 1331 0140 23       		.byte	0x23
 1332 0141 0C       		.uleb128 0xc
 1333 0142 06       		.uleb128 0x6
 1334 0143 E4010000 		.4byte	.LASF26
 1335 0147 06       		.byte	0x6
ARM GAS  C:\Users\z80\AppData\Local\Temp\ccmGcbDs.s 			page 25


 1336 0148 66       		.byte	0x66
 1337 0149 2C020000 		.4byte	0x22c
 1338 014d 02       		.byte	0x2
 1339 014e 23       		.byte	0x23
 1340 014f 10       		.uleb128 0x10
 1341 0150 06       		.uleb128 0x6
 1342 0151 46030000 		.4byte	.LASF27
 1343 0155 06       		.byte	0x6
 1344 0156 67       		.byte	0x67
 1345 0157 2C020000 		.4byte	0x22c
 1346 015b 02       		.byte	0x2
 1347 015c 23       		.byte	0x23
 1348 015d 14       		.uleb128 0x14
 1349 015e 06       		.uleb128 0x6
 1350 015f E1050000 		.4byte	.LASF28
 1351 0163 06       		.byte	0x6
 1352 0164 6E       		.byte	0x6e
 1353 0165 B1030000 		.4byte	0x3b1
 1354 0169 02       		.byte	0x2
 1355 016a 23       		.byte	0x23
 1356 016b 18       		.uleb128 0x18
 1357 016c 06       		.uleb128 0x6
 1358 016d 4A020000 		.4byte	.LASF29
 1359 0171 06       		.byte	0x6
 1360 0172 74       		.byte	0x74
 1361 0173 C3030000 		.4byte	0x3c3
 1362 0177 02       		.byte	0x2
 1363 0178 23       		.byte	0x23
 1364 0179 1C       		.uleb128 0x1c
 1365 017a 06       		.uleb128 0x6
 1366 017b 6D040000 		.4byte	.LASF30
 1367 017f 06       		.byte	0x6
 1368 0180 79       		.byte	0x79
 1369 0181 BC000000 		.4byte	0xbc
 1370 0185 02       		.byte	0x2
 1371 0186 23       		.byte	0x23
 1372 0187 20       		.uleb128 0x20
 1373 0188 06       		.uleb128 0x6
 1374 0189 92040000 		.4byte	.LASF31
 1375 018d 06       		.byte	0x6
 1376 018e 7D       		.byte	0x7d
 1377 018f B1000000 		.4byte	0xb1
 1378 0193 02       		.byte	0x2
 1379 0194 23       		.byte	0x23
 1380 0195 21       		.uleb128 0x21
 1381 0196 06       		.uleb128 0x6
 1382 0197 DD010000 		.4byte	.LASF32
 1383 019b 06       		.byte	0x6
 1384 019c 89       		.byte	0x89
 1385 019d 2F030000 		.4byte	0x32f
 1386 01a1 02       		.byte	0x2
 1387 01a2 23       		.byte	0x23
 1388 01a3 24       		.uleb128 0x24
 1389 01a4 07       		.uleb128 0x7
 1390 01a5 705F7500 		.ascii	"p_u\000"
 1391 01a9 06       		.byte	0x6
 1392 01aa AE       		.byte	0xae
ARM GAS  C:\Users\z80\AppData\Local\Temp\ccmGcbDs.s 			page 26


 1393 01ab 7C030000 		.4byte	0x37c
 1394 01af 02       		.byte	0x2
 1395 01b0 23       		.byte	0x23
 1396 01b1 28       		.uleb128 0x28
 1397 01b2 06       		.uleb128 0x6
 1398 01b3 06060000 		.4byte	.LASF33
 1399 01b7 06       		.byte	0x6
 1400 01b8 B3       		.byte	0xb3
 1401 01b9 54020000 		.4byte	0x254
 1402 01bd 02       		.byte	0x2
 1403 01be 23       		.byte	0x23
 1404 01bf 2C       		.uleb128 0x2c
 1405 01c0 06       		.uleb128 0x6
 1406 01c1 7C020000 		.4byte	.LASF34
 1407 01c5 06       		.byte	0x6
 1408 01c6 B9       		.byte	0xb9
 1409 01c7 32020000 		.4byte	0x232
 1410 01cb 02       		.byte	0x2
 1411 01cc 23       		.byte	0x23
 1412 01cd 30       		.uleb128 0x30
 1413 01ce 06       		.uleb128 0x6
 1414 01cf F2050000 		.4byte	.LASF35
 1415 01d3 06       		.byte	0x6
 1416 01d4 BD       		.byte	0xbd
 1417 01d5 D2000000 		.4byte	0xd2
 1418 01d9 02       		.byte	0x2
 1419 01da 23       		.byte	0x23
 1420 01db 38       		.uleb128 0x38
 1421 01dc 06       		.uleb128 0x6
 1422 01dd BE040000 		.4byte	.LASF36
 1423 01e1 06       		.byte	0x6
 1424 01e2 C3       		.byte	0xc3
 1425 01e3 DD000000 		.4byte	0xdd
 1426 01e7 02       		.byte	0x2
 1427 01e8 23       		.byte	0x23
 1428 01e9 3C       		.uleb128 0x3c
 1429 01ea 06       		.uleb128 0x6
 1430 01eb 59040000 		.4byte	.LASF37
 1431 01ef 06       		.byte	0x6
 1432 01f0 CA       		.byte	0xca
 1433 01f1 C9030000 		.4byte	0x3c9
 1434 01f5 02       		.byte	0x2
 1435 01f6 23       		.byte	0x23
 1436 01f7 40       		.uleb128 0x40
 1437 01f8 06       		.uleb128 0x6
 1438 01f9 57050000 		.4byte	.LASF38
 1439 01fd 06       		.byte	0x6
 1440 01fe CE       		.byte	0xce
 1441 01ff C7000000 		.4byte	0xc7
 1442 0203 02       		.byte	0x2
 1443 0204 23       		.byte	0x23
 1444 0205 44       		.uleb128 0x44
 1445 0206 00       		.byte	0x0
 1446 0207 08       		.uleb128 0x8
 1447 0208 08       		.byte	0x8
 1448 0209 05       		.byte	0x5
 1449 020a 61       		.byte	0x61
ARM GAS  C:\Users\z80\AppData\Local\Temp\ccmGcbDs.s 			page 27


 1450 020b 2C020000 		.4byte	0x22c
 1451 020f 06       		.uleb128 0x6
 1452 0210 8B040000 		.4byte	.LASF22
 1453 0214 05       		.byte	0x5
 1454 0215 62       		.byte	0x62
 1455 0216 2C020000 		.4byte	0x22c
 1456 021a 02       		.byte	0x2
 1457 021b 23       		.byte	0x23
 1458 021c 00       		.uleb128 0x0
 1459 021d 06       		.uleb128 0x6
 1460 021e D3030000 		.4byte	.LASF23
 1461 0222 05       		.byte	0x5
 1462 0223 64       		.byte	0x64
 1463 0224 2C020000 		.4byte	0x22c
 1464 0228 02       		.byte	0x2
 1465 0229 23       		.byte	0x23
 1466 022a 04       		.uleb128 0x4
 1467 022b 00       		.byte	0x0
 1468 022c 09       		.uleb128 0x9
 1469 022d 04       		.byte	0x4
 1470 022e F3000000 		.4byte	0xf3
 1471 0232 03       		.uleb128 0x3
 1472 0233 4E030000 		.4byte	.LASF39
 1473 0237 05       		.byte	0x5
 1474 0238 66       		.byte	0x66
 1475 0239 07020000 		.4byte	0x207
 1476 023d 08       		.uleb128 0x8
 1477 023e 04       		.byte	0x4
 1478 023f 05       		.byte	0x5
 1479 0240 6B       		.byte	0x6b
 1480 0241 54020000 		.4byte	0x254
 1481 0245 06       		.uleb128 0x6
 1482 0246 8B040000 		.4byte	.LASF22
 1483 024a 05       		.byte	0x5
 1484 024b 6D       		.byte	0x6d
 1485 024c 2C020000 		.4byte	0x22c
 1486 0250 02       		.byte	0x2
 1487 0251 23       		.byte	0x23
 1488 0252 00       		.uleb128 0x0
 1489 0253 00       		.byte	0x0
 1490 0254 03       		.uleb128 0x3
 1491 0255 0D000000 		.4byte	.LASF40
 1492 0259 05       		.byte	0x5
 1493 025a 70       		.byte	0x70
 1494 025b 3D020000 		.4byte	0x23d
 1495 025f 03       		.uleb128 0x3
 1496 0260 0B020000 		.4byte	.LASF41
 1497 0264 07       		.byte	0x7
 1498 0265 D7       		.byte	0xd7
 1499 0266 6A020000 		.4byte	0x26a
 1500 026a 0A       		.uleb128 0xa
 1501 026b 04       		.byte	0x4
 1502 026c 03       		.uleb128 0x3
 1503 026d 08030000 		.4byte	.LASF42
 1504 0271 07       		.byte	0x7
 1505 0272 DD       		.byte	0xdd
 1506 0273 9F000000 		.4byte	0x9f
ARM GAS  C:\Users\z80\AppData\Local\Temp\ccmGcbDs.s 			page 28


 1507 0277 05       		.uleb128 0x5
 1508 0278 75050000 		.4byte	.LASF43
 1509 027c 24       		.byte	0x24
 1510 027d 07       		.byte	0x7
 1511 027e FE       		.byte	0xfe
 1512 027f 04030000 		.4byte	0x304
 1513 0283 0B       		.uleb128 0xb
 1514 0284 723400   		.ascii	"r4\000"
 1515 0287 07       		.byte	0x7
 1516 0288 1101     		.2byte	0x111
 1517 028a 5F020000 		.4byte	0x25f
 1518 028e 02       		.byte	0x2
 1519 028f 23       		.byte	0x23
 1520 0290 00       		.uleb128 0x0
 1521 0291 0B       		.uleb128 0xb
 1522 0292 723500   		.ascii	"r5\000"
 1523 0295 07       		.byte	0x7
 1524 0296 1201     		.2byte	0x112
 1525 0298 5F020000 		.4byte	0x25f
 1526 029c 02       		.byte	0x2
 1527 029d 23       		.byte	0x23
 1528 029e 04       		.uleb128 0x4
 1529 029f 0B       		.uleb128 0xb
 1530 02a0 723600   		.ascii	"r6\000"
 1531 02a3 07       		.byte	0x7
 1532 02a4 1301     		.2byte	0x113
 1533 02a6 5F020000 		.4byte	0x25f
 1534 02aa 02       		.byte	0x2
 1535 02ab 23       		.byte	0x23
 1536 02ac 08       		.uleb128 0x8
 1537 02ad 0B       		.uleb128 0xb
 1538 02ae 723700   		.ascii	"r7\000"
 1539 02b1 07       		.byte	0x7
 1540 02b2 1401     		.2byte	0x114
 1541 02b4 5F020000 		.4byte	0x25f
 1542 02b8 02       		.byte	0x2
 1543 02b9 23       		.byte	0x23
 1544 02ba 0C       		.uleb128 0xc
 1545 02bb 0B       		.uleb128 0xb
 1546 02bc 723800   		.ascii	"r8\000"
 1547 02bf 07       		.byte	0x7
 1548 02c0 1501     		.2byte	0x115
 1549 02c2 5F020000 		.4byte	0x25f
 1550 02c6 02       		.byte	0x2
 1551 02c7 23       		.byte	0x23
 1552 02c8 10       		.uleb128 0x10
 1553 02c9 0B       		.uleb128 0xb
 1554 02ca 723900   		.ascii	"r9\000"
 1555 02cd 07       		.byte	0x7
 1556 02ce 1601     		.2byte	0x116
 1557 02d0 5F020000 		.4byte	0x25f
 1558 02d4 02       		.byte	0x2
 1559 02d5 23       		.byte	0x23
 1560 02d6 14       		.uleb128 0x14
 1561 02d7 0B       		.uleb128 0xb
 1562 02d8 72313000 		.ascii	"r10\000"
 1563 02dc 07       		.byte	0x7
ARM GAS  C:\Users\z80\AppData\Local\Temp\ccmGcbDs.s 			page 29


 1564 02dd 1701     		.2byte	0x117
 1565 02df 5F020000 		.4byte	0x25f
 1566 02e3 02       		.byte	0x2
 1567 02e4 23       		.byte	0x23
 1568 02e5 18       		.uleb128 0x18
 1569 02e6 0B       		.uleb128 0xb
 1570 02e7 72313100 		.ascii	"r11\000"
 1571 02eb 07       		.byte	0x7
 1572 02ec 1801     		.2byte	0x118
 1573 02ee 5F020000 		.4byte	0x25f
 1574 02f2 02       		.byte	0x2
 1575 02f3 23       		.byte	0x23
 1576 02f4 1C       		.uleb128 0x1c
 1577 02f5 0B       		.uleb128 0xb
 1578 02f6 6C7200   		.ascii	"lr\000"
 1579 02f9 07       		.byte	0x7
 1580 02fa 1901     		.2byte	0x119
 1581 02fc 5F020000 		.4byte	0x25f
 1582 0300 02       		.byte	0x2
 1583 0301 23       		.byte	0x23
 1584 0302 20       		.uleb128 0x20
 1585 0303 00       		.byte	0x0
 1586 0304 0C       		.uleb128 0xc
 1587 0305 6D050000 		.4byte	.LASF44
 1588 0309 04       		.byte	0x4
 1589 030a 07       		.byte	0x7
 1590 030b 2301     		.2byte	0x123
 1591 030d 21030000 		.4byte	0x321
 1592 0311 0B       		.uleb128 0xb
 1593 0312 72313300 		.ascii	"r13\000"
 1594 0316 07       		.byte	0x7
 1595 0317 2401     		.2byte	0x124
 1596 0319 21030000 		.4byte	0x321
 1597 031d 02       		.byte	0x2
 1598 031e 23       		.byte	0x23
 1599 031f 00       		.uleb128 0x0
 1600 0320 00       		.byte	0x0
 1601 0321 09       		.uleb128 0x9
 1602 0322 04       		.byte	0x4
 1603 0323 77020000 		.4byte	0x277
 1604 0327 0D       		.uleb128 0xd
 1605 0328 86000000 		.4byte	0x86
 1606 032c 0E       		.uleb128 0xe
 1607 032d 04       		.byte	0x4
 1608 032e 07       		.byte	0x7
 1609 032f 0D       		.uleb128 0xd
 1610 0330 E8000000 		.4byte	0xe8
 1611 0334 05       		.uleb128 0x5
 1612 0335 37030000 		.4byte	.LASF45
 1613 0339 10       		.byte	0x10
 1614 033a 08       		.byte	0x8
 1615 033b 2C       		.byte	0x2c
 1616 033c 6B030000 		.4byte	0x36b
 1617 0340 06       		.uleb128 0x6
 1618 0341 47010000 		.4byte	.LASF46
 1619 0345 08       		.byte	0x8
 1620 0346 2D       		.byte	0x2d
ARM GAS  C:\Users\z80\AppData\Local\Temp\ccmGcbDs.s 			page 30


 1621 0347 32020000 		.4byte	0x232
 1622 034b 02       		.byte	0x2
 1623 034c 23       		.byte	0x23
 1624 034d 00       		.uleb128 0x0
 1625 034e 06       		.uleb128 0x6
 1626 034f F8050000 		.4byte	.LASF47
 1627 0353 08       		.byte	0x8
 1628 0354 2F       		.byte	0x2f
 1629 0355 2C020000 		.4byte	0x22c
 1630 0359 02       		.byte	0x2
 1631 035a 23       		.byte	0x23
 1632 035b 08       		.uleb128 0x8
 1633 035c 06       		.uleb128 0x6
 1634 035d 46050000 		.4byte	.LASF48
 1635 0361 08       		.byte	0x8
 1636 0362 31       		.byte	0x31
 1637 0363 6B030000 		.4byte	0x36b
 1638 0367 02       		.byte	0x2
 1639 0368 23       		.byte	0x23
 1640 0369 0C       		.uleb128 0xc
 1641 036a 00       		.byte	0x0
 1642 036b 09       		.uleb128 0x9
 1643 036c 04       		.byte	0x4
 1644 036d 34030000 		.4byte	0x334
 1645 0371 03       		.uleb128 0x3
 1646 0372 37030000 		.4byte	.LASF45
 1647 0376 08       		.byte	0x8
 1648 0377 33       		.byte	0x33
 1649 0378 34030000 		.4byte	0x334
 1650 037c 0F       		.uleb128 0xf
 1651 037d 04       		.byte	0x4
 1652 037e 06       		.byte	0x6
 1653 037f 90       		.byte	0x90
 1654 0380 B1030000 		.4byte	0x3b1
 1655 0384 10       		.uleb128 0x10
 1656 0385 19000000 		.4byte	.LASF49
 1657 0389 06       		.byte	0x6
 1658 038a 97       		.byte	0x97
 1659 038b D2000000 		.4byte	0xd2
 1660 038f 10       		.uleb128 0x10
 1661 0390 97000000 		.4byte	.LASF50
 1662 0394 06       		.byte	0x6
 1663 0395 9E       		.byte	0x9e
 1664 0396 D2000000 		.4byte	0xd2
 1665 039a 10       		.uleb128 0x10
 1666 039b DA050000 		.4byte	.LASF51
 1667 039f 06       		.byte	0x6
 1668 03a0 A5       		.byte	0xa5
 1669 03a1 6A020000 		.4byte	0x26a
 1670 03a5 10       		.uleb128 0x10
 1671 03a6 84040000 		.4byte	.LASF52
 1672 03aa 06       		.byte	0x6
 1673 03ab AC       		.byte	0xac
 1674 03ac DD000000 		.4byte	0xdd
 1675 03b0 00       		.byte	0x0
 1676 03b1 09       		.uleb128 0x9
 1677 03b2 04       		.byte	0x4
ARM GAS  C:\Users\z80\AppData\Local\Temp\ccmGcbDs.s 			page 31


 1678 03b3 B7030000 		.4byte	0x3b7
 1679 03b7 11       		.uleb128 0x11
 1680 03b8 BC030000 		.4byte	0x3bc
 1681 03bc 04       		.uleb128 0x4
 1682 03bd 01       		.byte	0x1
 1683 03be 08       		.byte	0x8
 1684 03bf 15050000 		.4byte	.LASF53
 1685 03c3 09       		.uleb128 0x9
 1686 03c4 04       		.byte	0x4
 1687 03c5 6C020000 		.4byte	0x26c
 1688 03c9 09       		.uleb128 0x9
 1689 03ca 04       		.byte	0x4
 1690 03cb 71030000 		.4byte	0x371
 1691 03cf 03       		.uleb128 0x3
 1692 03d0 FB020000 		.4byte	.LASF54
 1693 03d4 09       		.byte	0x9
 1694 03d5 37       		.byte	0x37
 1695 03d6 DA030000 		.4byte	0x3da
 1696 03da 05       		.uleb128 0x5
 1697 03db FB020000 		.4byte	.LASF54
 1698 03df 20       		.byte	0x20
 1699 03e0 09       		.byte	0x9
 1700 03e1 45       		.byte	0x45
 1701 03e2 49040000 		.4byte	0x449
 1702 03e6 06       		.uleb128 0x6
 1703 03e7 EA000000 		.4byte	.LASF55
 1704 03eb 09       		.byte	0x9
 1705 03ec 46       		.byte	0x46
 1706 03ed 32020000 		.4byte	0x232
 1707 03f1 02       		.byte	0x2
 1708 03f2 23       		.byte	0x23
 1709 03f3 00       		.uleb128 0x0
 1710 03f4 06       		.uleb128 0x6
 1711 03f5 2D030000 		.4byte	.LASF56
 1712 03f9 09       		.byte	0x9
 1713 03fa 47       		.byte	0x47
 1714 03fb 30000000 		.4byte	0x30
 1715 03ff 02       		.byte	0x2
 1716 0400 23       		.byte	0x23
 1717 0401 08       		.uleb128 0x8
 1718 0402 06       		.uleb128 0x6
 1719 0403 CC010000 		.4byte	.LASF57
 1720 0407 09       		.byte	0x9
 1721 0408 48       		.byte	0x48
 1722 0409 6C040000 		.4byte	0x46c
 1723 040d 02       		.byte	0x2
 1724 040e 23       		.byte	0x23
 1725 040f 0C       		.uleb128 0xc
 1726 0410 06       		.uleb128 0x6
 1727 0411 9D050000 		.4byte	.LASF58
 1728 0415 09       		.byte	0x9
 1729 0416 49       		.byte	0x49
 1730 0417 6C040000 		.4byte	0x46c
 1731 041b 02       		.byte	0x2
 1732 041c 23       		.byte	0x23
 1733 041d 10       		.uleb128 0x10
 1734 041e 06       		.uleb128 0x6
ARM GAS  C:\Users\z80\AppData\Local\Temp\ccmGcbDs.s 			page 32


 1735 041f D5010000 		.4byte	.LASF59
 1736 0423 09       		.byte	0x9
 1737 0424 4B       		.byte	0x4b
 1738 0425 6C040000 		.4byte	0x46c
 1739 0429 02       		.byte	0x2
 1740 042a 23       		.byte	0x23
 1741 042b 14       		.uleb128 0x14
 1742 042c 06       		.uleb128 0x6
 1743 042d 00040000 		.4byte	.LASF60
 1744 0431 09       		.byte	0x9
 1745 0432 4C       		.byte	0x4c
 1746 0433 6C040000 		.4byte	0x46c
 1747 0437 02       		.byte	0x2
 1748 0438 23       		.byte	0x23
 1749 0439 18       		.uleb128 0x18
 1750 043a 06       		.uleb128 0x6
 1751 043b B8050000 		.4byte	.LASF61
 1752 043f 09       		.byte	0x9
 1753 0440 4D       		.byte	0x4d
 1754 0441 49040000 		.4byte	0x449
 1755 0445 02       		.byte	0x2
 1756 0446 23       		.byte	0x23
 1757 0447 1C       		.uleb128 0x1c
 1758 0448 00       		.byte	0x0
 1759 0449 03       		.uleb128 0x3
 1760 044a F1020000 		.4byte	.LASF62
 1761 044e 09       		.byte	0x9
 1762 044f 3A       		.byte	0x3a
 1763 0450 54040000 		.4byte	0x454
 1764 0454 09       		.uleb128 0x9
 1765 0455 04       		.byte	0x4
 1766 0456 5A040000 		.4byte	0x45a
 1767 045a 12       		.uleb128 0x12
 1768 045b 01       		.byte	0x1
 1769 045c 66040000 		.4byte	0x466
 1770 0460 13       		.uleb128 0x13
 1771 0461 66040000 		.4byte	0x466
 1772 0465 00       		.byte	0x0
 1773 0466 09       		.uleb128 0x9
 1774 0467 04       		.byte	0x4
 1775 0468 CF030000 		.4byte	0x3cf
 1776 046c 09       		.uleb128 0x9
 1777 046d 04       		.byte	0x4
 1778 046e 49000000 		.4byte	0x49
 1779 0472 03       		.uleb128 0x3
 1780 0473 E1020000 		.4byte	.LASF63
 1781 0477 09       		.byte	0x9
 1782 0478 76       		.byte	0x76
 1783 0479 CF030000 		.4byte	0x3cf
 1784 047d 03       		.uleb128 0x3
 1785 047e 3B000000 		.4byte	.LASF64
 1786 0482 09       		.byte	0x9
 1787 0483 E6       		.byte	0xe6
 1788 0484 CF030000 		.4byte	0x3cf
 1789 0488 0D       		.uleb128 0xd
 1790 0489 62000000 		.4byte	0x62
 1791 048d 0D       		.uleb128 0xd
ARM GAS  C:\Users\z80\AppData\Local\Temp\ccmGcbDs.s 			page 33


 1792 048e 74000000 		.4byte	0x74
 1793 0492 14       		.uleb128 0x14
 1794 0493 10       		.byte	0x10
 1795 0494 0A       		.byte	0xa
 1796 0495 2D03     		.2byte	0x32d
 1797 0497 D8040000 		.4byte	0x4d8
 1798 049b 0B       		.uleb128 0xb
 1799 049c 43435200 		.ascii	"CCR\000"
 1800 04a0 0A       		.byte	0xa
 1801 04a1 2F03     		.2byte	0x32f
 1802 04a3 27030000 		.4byte	0x327
 1803 04a7 02       		.byte	0x2
 1804 04a8 23       		.byte	0x23
 1805 04a9 00       		.uleb128 0x0
 1806 04aa 15       		.uleb128 0x15
 1807 04ab AD050000 		.4byte	.LASF65
 1808 04af 0A       		.byte	0xa
 1809 04b0 3003     		.2byte	0x330
 1810 04b2 27030000 		.4byte	0x327
 1811 04b6 02       		.byte	0x2
 1812 04b7 23       		.byte	0x23
 1813 04b8 04       		.uleb128 0x4
 1814 04b9 15       		.uleb128 0x15
 1815 04ba 77020000 		.4byte	.LASF66
 1816 04be 0A       		.byte	0xa
 1817 04bf 3103     		.2byte	0x331
 1818 04c1 27030000 		.4byte	0x327
 1819 04c5 02       		.byte	0x2
 1820 04c6 23       		.byte	0x23
 1821 04c7 08       		.uleb128 0x8
 1822 04c8 15       		.uleb128 0x15
 1823 04c9 B3050000 		.4byte	.LASF67
 1824 04cd 0A       		.byte	0xa
 1825 04ce 3203     		.2byte	0x332
 1826 04d0 27030000 		.4byte	0x327
 1827 04d4 02       		.byte	0x2
 1828 04d5 23       		.byte	0x23
 1829 04d6 0C       		.uleb128 0xc
 1830 04d7 00       		.byte	0x0
 1831 04d8 16       		.uleb128 0x16
 1832 04d9 87030000 		.4byte	.LASF68
 1833 04dd 0A       		.byte	0xa
 1834 04de 3303     		.2byte	0x333
 1835 04e0 92040000 		.4byte	0x492
 1836 04e4 14       		.uleb128 0x14
 1837 04e5 1C       		.byte	0x1c
 1838 04e6 0A       		.byte	0xa
 1839 04e7 F803     		.2byte	0x3f8
 1840 04e9 57050000 		.4byte	0x557
 1841 04ed 0B       		.uleb128 0xb
 1842 04ee 43524C00 		.ascii	"CRL\000"
 1843 04f2 0A       		.byte	0xa
 1844 04f3 FA03     		.2byte	0x3fa
 1845 04f5 27030000 		.4byte	0x327
 1846 04f9 02       		.byte	0x2
 1847 04fa 23       		.byte	0x23
 1848 04fb 00       		.uleb128 0x0
ARM GAS  C:\Users\z80\AppData\Local\Temp\ccmGcbDs.s 			page 34


 1849 04fc 0B       		.uleb128 0xb
 1850 04fd 43524800 		.ascii	"CRH\000"
 1851 0501 0A       		.byte	0xa
 1852 0502 FB03     		.2byte	0x3fb
 1853 0504 27030000 		.4byte	0x327
 1854 0508 02       		.byte	0x2
 1855 0509 23       		.byte	0x23
 1856 050a 04       		.uleb128 0x4
 1857 050b 0B       		.uleb128 0xb
 1858 050c 49445200 		.ascii	"IDR\000"
 1859 0510 0A       		.byte	0xa
 1860 0511 FC03     		.2byte	0x3fc
 1861 0513 27030000 		.4byte	0x327
 1862 0517 02       		.byte	0x2
 1863 0518 23       		.byte	0x23
 1864 0519 08       		.uleb128 0x8
 1865 051a 0B       		.uleb128 0xb
 1866 051b 4F445200 		.ascii	"ODR\000"
 1867 051f 0A       		.byte	0xa
 1868 0520 FD03     		.2byte	0x3fd
 1869 0522 27030000 		.4byte	0x327
 1870 0526 02       		.byte	0x2
 1871 0527 23       		.byte	0x23
 1872 0528 0C       		.uleb128 0xc
 1873 0529 15       		.uleb128 0x15
 1874 052a A3050000 		.4byte	.LASF69
 1875 052e 0A       		.byte	0xa
 1876 052f FE03     		.2byte	0x3fe
 1877 0531 27030000 		.4byte	0x327
 1878 0535 02       		.byte	0x2
 1879 0536 23       		.byte	0x23
 1880 0537 10       		.uleb128 0x10
 1881 0538 0B       		.uleb128 0xb
 1882 0539 42525200 		.ascii	"BRR\000"
 1883 053d 0A       		.byte	0xa
 1884 053e FF03     		.2byte	0x3ff
 1885 0540 27030000 		.4byte	0x327
 1886 0544 02       		.byte	0x2
 1887 0545 23       		.byte	0x23
 1888 0546 14       		.uleb128 0x14
 1889 0547 15       		.uleb128 0x15
 1890 0548 94020000 		.4byte	.LASF70
 1891 054c 0A       		.byte	0xa
 1892 054d 0004     		.2byte	0x400
 1893 054f 27030000 		.4byte	0x327
 1894 0553 02       		.byte	0x2
 1895 0554 23       		.byte	0x23
 1896 0555 18       		.uleb128 0x18
 1897 0556 00       		.byte	0x0
 1898 0557 16       		.uleb128 0x16
 1899 0558 87020000 		.4byte	.LASF71
 1900 055c 0A       		.byte	0xa
 1901 055d 0104     		.2byte	0x401
 1902 055f E4040000 		.4byte	0x4e4
 1903 0563 14       		.uleb128 0x14
 1904 0564 24       		.byte	0x24
 1905 0565 0A       		.byte	0xa
ARM GAS  C:\Users\z80\AppData\Local\Temp\ccmGcbDs.s 			page 35


 1906 0566 9704     		.2byte	0x497
 1907 0568 79060000 		.4byte	0x679
 1908 056c 0B       		.uleb128 0xb
 1909 056d 43523100 		.ascii	"CR1\000"
 1910 0571 0A       		.byte	0xa
 1911 0572 9904     		.2byte	0x499
 1912 0574 88040000 		.4byte	0x488
 1913 0578 02       		.byte	0x2
 1914 0579 23       		.byte	0x23
 1915 057a 00       		.uleb128 0x0
 1916 057b 15       		.uleb128 0x15
 1917 057c A1030000 		.4byte	.LASF72
 1918 0580 0A       		.byte	0xa
 1919 0581 9A04     		.2byte	0x49a
 1920 0583 62000000 		.4byte	0x62
 1921 0587 02       		.byte	0x2
 1922 0588 23       		.byte	0x23
 1923 0589 02       		.uleb128 0x2
 1924 058a 0B       		.uleb128 0xb
 1925 058b 43523200 		.ascii	"CR2\000"
 1926 058f 0A       		.byte	0xa
 1927 0590 9B04     		.2byte	0x49b
 1928 0592 88040000 		.4byte	0x488
 1929 0596 02       		.byte	0x2
 1930 0597 23       		.byte	0x23
 1931 0598 04       		.uleb128 0x4
 1932 0599 15       		.uleb128 0x15
 1933 059a AB030000 		.4byte	.LASF73
 1934 059e 0A       		.byte	0xa
 1935 059f 9C04     		.2byte	0x49c
 1936 05a1 62000000 		.4byte	0x62
 1937 05a5 02       		.byte	0x2
 1938 05a6 23       		.byte	0x23
 1939 05a7 06       		.uleb128 0x6
 1940 05a8 0B       		.uleb128 0xb
 1941 05a9 535200   		.ascii	"SR\000"
 1942 05ac 0A       		.byte	0xa
 1943 05ad 9D04     		.2byte	0x49d
 1944 05af 88040000 		.4byte	0x488
 1945 05b3 02       		.byte	0x2
 1946 05b4 23       		.byte	0x23
 1947 05b5 08       		.uleb128 0x8
 1948 05b6 15       		.uleb128 0x15
 1949 05b7 B5030000 		.4byte	.LASF74
 1950 05bb 0A       		.byte	0xa
 1951 05bc 9E04     		.2byte	0x49e
 1952 05be 62000000 		.4byte	0x62
 1953 05c2 02       		.byte	0x2
 1954 05c3 23       		.byte	0x23
 1955 05c4 0A       		.uleb128 0xa
 1956 05c5 0B       		.uleb128 0xb
 1957 05c6 445200   		.ascii	"DR\000"
 1958 05c9 0A       		.byte	0xa
 1959 05ca 9F04     		.2byte	0x49f
 1960 05cc 88040000 		.4byte	0x488
 1961 05d0 02       		.byte	0x2
 1962 05d1 23       		.byte	0x23
ARM GAS  C:\Users\z80\AppData\Local\Temp\ccmGcbDs.s 			page 36


 1963 05d2 0C       		.uleb128 0xc
 1964 05d3 15       		.uleb128 0x15
 1965 05d4 BF030000 		.4byte	.LASF75
 1966 05d8 0A       		.byte	0xa
 1967 05d9 A004     		.2byte	0x4a0
 1968 05db 62000000 		.4byte	0x62
 1969 05df 02       		.byte	0x2
 1970 05e0 23       		.byte	0x23
 1971 05e1 0E       		.uleb128 0xe
 1972 05e2 15       		.uleb128 0x15
 1973 05e3 91000000 		.4byte	.LASF76
 1974 05e7 0A       		.byte	0xa
 1975 05e8 A104     		.2byte	0x4a1
 1976 05ea 88040000 		.4byte	0x488
 1977 05ee 02       		.byte	0x2
 1978 05ef 23       		.byte	0x23
 1979 05f0 10       		.uleb128 0x10
 1980 05f1 15       		.uleb128 0x15
 1981 05f2 C9030000 		.4byte	.LASF77
 1982 05f6 0A       		.byte	0xa
 1983 05f7 A204     		.2byte	0x4a2
 1984 05f9 62000000 		.4byte	0x62
 1985 05fd 02       		.byte	0x2
 1986 05fe 23       		.byte	0x23
 1987 05ff 12       		.uleb128 0x12
 1988 0600 15       		.uleb128 0x15
 1989 0601 F0040000 		.4byte	.LASF78
 1990 0605 0A       		.byte	0xa
 1991 0606 A304     		.2byte	0x4a3
 1992 0608 88040000 		.4byte	0x488
 1993 060c 02       		.byte	0x2
 1994 060d 23       		.byte	0x23
 1995 060e 14       		.uleb128 0x14
 1996 060f 15       		.uleb128 0x15
 1997 0610 CE040000 		.4byte	.LASF79
 1998 0614 0A       		.byte	0xa
 1999 0615 A404     		.2byte	0x4a4
 2000 0617 62000000 		.4byte	0x62
 2001 061b 02       		.byte	0x2
 2002 061c 23       		.byte	0x23
 2003 061d 16       		.uleb128 0x16
 2004 061e 15       		.uleb128 0x15
 2005 061f 2E050000 		.4byte	.LASF80
 2006 0623 0A       		.byte	0xa
 2007 0624 A504     		.2byte	0x4a5
 2008 0626 88040000 		.4byte	0x488
 2009 062a 02       		.byte	0x2
 2010 062b 23       		.byte	0x23
 2011 062c 18       		.uleb128 0x18
 2012 062d 15       		.uleb128 0x15
 2013 062e DA030000 		.4byte	.LASF81
 2014 0632 0A       		.byte	0xa
 2015 0633 A604     		.2byte	0x4a6
 2016 0635 62000000 		.4byte	0x62
 2017 0639 02       		.byte	0x2
 2018 063a 23       		.byte	0x23
 2019 063b 1A       		.uleb128 0x1a
ARM GAS  C:\Users\z80\AppData\Local\Temp\ccmGcbDs.s 			page 37


 2020 063c 15       		.uleb128 0x15
 2021 063d 28010000 		.4byte	.LASF82
 2022 0641 0A       		.byte	0xa
 2023 0642 A704     		.2byte	0x4a7
 2024 0644 88040000 		.4byte	0x488
 2025 0648 02       		.byte	0x2
 2026 0649 23       		.byte	0x23
 2027 064a 1C       		.uleb128 0x1c
 2028 064b 15       		.uleb128 0x15
 2029 064c E4030000 		.4byte	.LASF83
 2030 0650 0A       		.byte	0xa
 2031 0651 A804     		.2byte	0x4a8
 2032 0653 62000000 		.4byte	0x62
 2033 0657 02       		.byte	0x2
 2034 0658 23       		.byte	0x23
 2035 0659 1E       		.uleb128 0x1e
 2036 065a 15       		.uleb128 0x15
 2037 065b 27030000 		.4byte	.LASF84
 2038 065f 0A       		.byte	0xa
 2039 0660 A904     		.2byte	0x4a9
 2040 0662 88040000 		.4byte	0x488
 2041 0666 02       		.byte	0x2
 2042 0667 23       		.byte	0x23
 2043 0668 20       		.uleb128 0x20
 2044 0669 15       		.uleb128 0x15
 2045 066a EE030000 		.4byte	.LASF85
 2046 066e 0A       		.byte	0xa
 2047 066f AA04     		.2byte	0x4aa
 2048 0671 62000000 		.4byte	0x62
 2049 0675 02       		.byte	0x2
 2050 0676 23       		.byte	0x23
 2051 0677 22       		.uleb128 0x22
 2052 0678 00       		.byte	0x0
 2053 0679 16       		.uleb128 0x16
 2054 067a 09050000 		.4byte	.LASF86
 2055 067e 0A       		.byte	0xa
 2056 067f AB04     		.2byte	0x4ab
 2057 0681 63050000 		.4byte	0x563
 2058 0685 08       		.uleb128 0x8
 2059 0686 0C       		.byte	0xc
 2060 0687 0B       		.byte	0xb
 2061 0688 C2       		.byte	0xc2
 2062 0689 D4060000 		.4byte	0x6d4
 2063 068d 06       		.uleb128 0x6
 2064 068e A8040000 		.4byte	.LASF87
 2065 0692 0B       		.byte	0xb
 2066 0693 C3       		.byte	0xc3
 2067 0694 D4060000 		.4byte	0x6d4
 2068 0698 02       		.byte	0x2
 2069 0699 23       		.byte	0x23
 2070 069a 00       		.uleb128 0x0
 2071 069b 06       		.uleb128 0x6
 2072 069c C9040000 		.4byte	.LASF88
 2073 06a0 0B       		.byte	0xb
 2074 06a1 C4       		.byte	0xc4
 2075 06a2 DA060000 		.4byte	0x6da
 2076 06a6 02       		.byte	0x2
ARM GAS  C:\Users\z80\AppData\Local\Temp\ccmGcbDs.s 			page 38


 2077 06a7 23       		.byte	0x23
 2078 06a8 04       		.uleb128 0x4
 2079 06a9 06       		.uleb128 0x6
 2080 06aa 99020000 		.4byte	.LASF89
 2081 06ae 0B       		.byte	0xb
 2082 06af C5       		.byte	0xc5
 2083 06b0 49000000 		.4byte	0x49
 2084 06b4 02       		.byte	0x2
 2085 06b5 23       		.byte	0x23
 2086 06b6 08       		.uleb128 0x8
 2087 06b7 06       		.uleb128 0x6
 2088 06b8 14020000 		.4byte	.LASF90
 2089 06bc 0B       		.byte	0xb
 2090 06bd C7       		.byte	0xc7
 2091 06be 49000000 		.4byte	0x49
 2092 06c2 02       		.byte	0x2
 2093 06c3 23       		.byte	0x23
 2094 06c4 09       		.uleb128 0x9
 2095 06c5 06       		.uleb128 0x6
 2096 06c6 A0000000 		.4byte	.LASF91
 2097 06ca 0B       		.byte	0xb
 2098 06cb C8       		.byte	0xc8
 2099 06cc 49000000 		.4byte	0x49
 2100 06d0 02       		.byte	0x2
 2101 06d1 23       		.byte	0x23
 2102 06d2 0A       		.uleb128 0xa
 2103 06d3 00       		.byte	0x0
 2104 06d4 09       		.uleb128 0x9
 2105 06d5 04       		.byte	0x4
 2106 06d6 D8040000 		.4byte	0x4d8
 2107 06da 09       		.uleb128 0x9
 2108 06db 04       		.byte	0x4
 2109 06dc 27030000 		.4byte	0x327
 2110 06e0 03       		.uleb128 0x3
 2111 06e1 2D040000 		.4byte	.LASF92
 2112 06e5 0B       		.byte	0xb
 2113 06e6 C9       		.byte	0xc9
 2114 06e7 85060000 		.4byte	0x685
 2115 06eb 03       		.uleb128 0x3
 2116 06ec 5D000000 		.4byte	.LASF93
 2117 06f0 0C       		.byte	0xc
 2118 06f1 78       		.byte	0x78
 2119 06f2 86000000 		.4byte	0x86
 2120 06f6 03       		.uleb128 0x3
 2121 06f7 62050000 		.4byte	.LASF94
 2122 06fb 0C       		.byte	0xc
 2123 06fc 85       		.byte	0x85
 2124 06fd 01070000 		.4byte	0x701
 2125 0701 09       		.uleb128 0x9
 2126 0702 04       		.byte	0x4
 2127 0703 57050000 		.4byte	0x557
 2128 0707 09       		.uleb128 0x9
 2129 0708 04       		.byte	0x4
 2130 0709 0D070000 		.4byte	0x70d
 2131 070d 11       		.uleb128 0x11
 2132 070e E0060000 		.4byte	0x6e0
 2133 0712 17       		.uleb128 0x17
ARM GAS  C:\Users\z80\AppData\Local\Temp\ccmGcbDs.s 			page 39


 2134 0713 01       		.byte	0x1
 2135 0714 0D       		.byte	0xd
 2136 0715 55       		.byte	0x55
 2137 0716 39070000 		.4byte	0x739
 2138 071a 18       		.uleb128 0x18
 2139 071b 86050000 		.4byte	.LASF95
 2140 071f 00       		.sleb128 0
 2141 0720 18       		.uleb128 0x18
 2142 0721 1F010000 		.4byte	.LASF96
 2143 0725 01       		.sleb128 1
 2144 0726 18       		.uleb128 0x18
 2145 0727 7C050000 		.4byte	.LASF97
 2146 072b 02       		.sleb128 2
 2147 072c 18       		.uleb128 0x18
 2148 072d 47000000 		.4byte	.LASF98
 2149 0731 03       		.sleb128 3
 2150 0732 18       		.uleb128 0x18
 2151 0733 1A050000 		.4byte	.LASF99
 2152 0737 04       		.sleb128 4
 2153 0738 00       		.byte	0x0
 2154 0739 03       		.uleb128 0x3
 2155 073a 3B050000 		.4byte	.LASF100
 2156 073e 0D       		.byte	0xd
 2157 073f 5B       		.byte	0x5b
 2158 0740 12070000 		.4byte	0x712
 2159 0744 16       		.uleb128 0x16
 2160 0745 A7000000 		.4byte	.LASF101
 2161 0749 0E       		.byte	0xe
 2162 074a 0701     		.2byte	0x107
 2163 074c 50070000 		.4byte	0x750
 2164 0750 0C       		.uleb128 0xc
 2165 0751 A7000000 		.4byte	.LASF101
 2166 0755 1C       		.byte	0x1c
 2167 0756 0E       		.byte	0xe
 2168 0757 2B01     		.2byte	0x12b
 2169 0759 C7070000 		.4byte	0x7c7
 2170 075d 15       		.uleb128 0x15
 2171 075e 9E010000 		.4byte	.LASF102
 2172 0762 0E       		.byte	0xe
 2173 0763 2F01     		.2byte	0x12f
 2174 0765 39070000 		.4byte	0x739
 2175 0769 02       		.byte	0x2
 2176 076a 23       		.byte	0x23
 2177 076b 00       		.uleb128 0x0
 2178 076c 15       		.uleb128 0x15
 2179 076d 27050000 		.4byte	.LASF103
 2180 0771 0E       		.byte	0xe
 2181 0772 3301     		.2byte	0x133
 2182 0774 3D080000 		.4byte	0x83d
 2183 0778 02       		.byte	0x2
 2184 0779 23       		.byte	0x23
 2185 077a 04       		.uleb128 0x4
 2186 077b 0B       		.uleb128 0xb
 2187 077c 73706900 		.ascii	"spi\000"
 2188 0780 0E       		.byte	0xe
 2189 0781 4B01     		.2byte	0x14b
 2190 0783 48080000 		.4byte	0x848
ARM GAS  C:\Users\z80\AppData\Local\Temp\ccmGcbDs.s 			page 40


 2191 0787 02       		.byte	0x2
 2192 0788 23       		.byte	0x23
 2193 0789 08       		.uleb128 0x8
 2194 078a 15       		.uleb128 0x15
 2195 078b 00000000 		.4byte	.LASF104
 2196 078f 0E       		.byte	0xe
 2197 0790 4F01     		.2byte	0x14f
 2198 0792 07070000 		.4byte	0x707
 2199 0796 02       		.byte	0x2
 2200 0797 23       		.byte	0x23
 2201 0798 0C       		.uleb128 0xc
 2202 0799 15       		.uleb128 0x15
 2203 079a 9B030000 		.4byte	.LASF105
 2204 079e 0E       		.byte	0xe
 2205 079f 5301     		.2byte	0x153
 2206 07a1 07070000 		.4byte	0x707
 2207 07a5 02       		.byte	0x2
 2208 07a6 23       		.byte	0x23
 2209 07a7 10       		.uleb128 0x10
 2210 07a8 15       		.uleb128 0x15
 2211 07a9 F3010000 		.4byte	.LASF106
 2212 07ad 0E       		.byte	0xe
 2213 07ae 5701     		.2byte	0x157
 2214 07b0 86000000 		.4byte	0x86
 2215 07b4 02       		.byte	0x2
 2216 07b5 23       		.byte	0x23
 2217 07b6 14       		.uleb128 0x14
 2218 07b7 15       		.uleb128 0x15
 2219 07b8 5B030000 		.4byte	.LASF107
 2220 07bc 0E       		.byte	0xe
 2221 07bd 5B01     		.2byte	0x15b
 2222 07bf 86000000 		.4byte	0x86
 2223 07c3 02       		.byte	0x2
 2224 07c4 23       		.byte	0x23
 2225 07c5 18       		.uleb128 0x18
 2226 07c6 00       		.byte	0x0
 2227 07c7 16       		.uleb128 0x16
 2228 07c8 1E020000 		.4byte	.LASF108
 2229 07cc 0E       		.byte	0xe
 2230 07cd 0F01     		.2byte	0x10f
 2231 07cf D3070000 		.4byte	0x7d3
 2232 07d3 09       		.uleb128 0x9
 2233 07d4 04       		.byte	0x4
 2234 07d5 D9070000 		.4byte	0x7d9
 2235 07d9 12       		.uleb128 0x12
 2236 07da 01       		.byte	0x1
 2237 07db E5070000 		.4byte	0x7e5
 2238 07df 13       		.uleb128 0x13
 2239 07e0 E5070000 		.4byte	0x7e5
 2240 07e4 00       		.byte	0x0
 2241 07e5 09       		.uleb128 0x9
 2242 07e6 04       		.byte	0x4
 2243 07e7 44070000 		.4byte	0x744
 2244 07eb 14       		.uleb128 0x14
 2245 07ec 0C       		.byte	0xc
 2246 07ed 0E       		.byte	0xe
 2247 07ee 1401     		.2byte	0x114
ARM GAS  C:\Users\z80\AppData\Local\Temp\ccmGcbDs.s 			page 41


 2248 07f0 31080000 		.4byte	0x831
 2249 07f4 15       		.uleb128 0x15
 2250 07f5 EC010000 		.4byte	.LASF109
 2251 07f9 0E       		.byte	0xe
 2252 07fa 1801     		.2byte	0x118
 2253 07fc C7070000 		.4byte	0x7c7
 2254 0800 02       		.byte	0x2
 2255 0801 23       		.byte	0x23
 2256 0802 00       		.uleb128 0x0
 2257 0803 15       		.uleb128 0x15
 2258 0804 B1000000 		.4byte	.LASF110
 2259 0808 0E       		.byte	0xe
 2260 0809 1D01     		.2byte	0x11d
 2261 080b F6060000 		.4byte	0x6f6
 2262 080f 02       		.byte	0x2
 2263 0810 23       		.byte	0x23
 2264 0811 04       		.uleb128 0x4
 2265 0812 15       		.uleb128 0x15
 2266 0813 71000000 		.4byte	.LASF111
 2267 0817 0E       		.byte	0xe
 2268 0818 2101     		.2byte	0x121
 2269 081a 62000000 		.4byte	0x62
 2270 081e 02       		.byte	0x2
 2271 081f 23       		.byte	0x23
 2272 0820 08       		.uleb128 0x8
 2273 0821 0B       		.uleb128 0xb
 2274 0822 63723100 		.ascii	"cr1\000"
 2275 0826 0E       		.byte	0xe
 2276 0827 2501     		.2byte	0x125
 2277 0829 62000000 		.4byte	0x62
 2278 082d 02       		.byte	0x2
 2279 082e 23       		.byte	0x23
 2280 082f 0A       		.uleb128 0xa
 2281 0830 00       		.byte	0x0
 2282 0831 16       		.uleb128 0x16
 2283 0832 E8050000 		.4byte	.LASF112
 2284 0836 0E       		.byte	0xe
 2285 0837 2601     		.2byte	0x126
 2286 0839 EB070000 		.4byte	0x7eb
 2287 083d 09       		.uleb128 0x9
 2288 083e 04       		.byte	0x4
 2289 083f 43080000 		.4byte	0x843
 2290 0843 11       		.uleb128 0x11
 2291 0844 31080000 		.4byte	0x831
 2292 0848 09       		.uleb128 0x9
 2293 0849 04       		.byte	0x4
 2294 084a 79060000 		.4byte	0x679
 2295 084e 19       		.uleb128 0x19
 2296 084f 01       		.byte	0x1
 2297 0850 1F030000 		.4byte	.LASF113
 2298 0854 01       		.byte	0x1
 2299 0855 32       		.byte	0x32
 2300 0856 01       		.byte	0x1
 2301 0857 00000000 		.4byte	.LFB62
 2302 085b EE000000 		.4byte	.LFE62
 2303 085f 00000000 		.4byte	.LLST0
 2304 0863 19       		.uleb128 0x19
ARM GAS  C:\Users\z80\AppData\Local\Temp\ccmGcbDs.s 			page 42


 2305 0864 01       		.byte	0x1
 2306 0865 32020000 		.4byte	.LASF114
 2307 0869 01       		.byte	0x1
 2308 086a 45       		.byte	0x45
 2309 086b 01       		.byte	0x1
 2310 086c 00000000 		.4byte	.LFB63
 2311 0870 36000000 		.4byte	.LFE63
 2312 0874 20000000 		.4byte	.LLST1
 2313 0878 1A       		.uleb128 0x1a
 2314 0879 3C020000 		.4byte	.LASF117
 2315 087d 01       		.byte	0x1
 2316 087e 4E       		.byte	0x4e
 2317 087f 01       		.byte	0x1
 2318 0880 00000000 		.4byte	.LFB64
 2319 0884 0A030000 		.4byte	.LFE64
 2320 0888 40000000 		.4byte	.LLST2
 2321 088c 07090000 		.4byte	0x907
 2322 0890 1B       		.uleb128 0x1b
 2323 0891 A8050000 		.4byte	.LASF119
 2324 0895 01       		.byte	0x1
 2325 0896 4E       		.byte	0x4e
 2326 0897 E5070000 		.4byte	0x7e5
 2327 089b 02       		.byte	0x2
 2328 089c 91       		.byte	0x91
 2329 089d 64       		.sleb128 -28
 2330 089e 1C       		.uleb128 0x1c
 2331 089f B9020000 		.4byte	.LASF115
 2332 08a3 01       		.byte	0x1
 2333 08a4 53       		.byte	0x53
 2334 08a5 29000000 		.4byte	0x29
 2335 08a9 02       		.byte	0x2
 2336 08aa 91       		.byte	0x91
 2337 08ab 74       		.sleb128 -12
 2338 08ac 1C       		.uleb128 0x1c
 2339 08ad 2C020000 		.4byte	.LASF116
 2340 08b1 01       		.byte	0x1
 2341 08b2 59       		.byte	0x59
 2342 08b3 29000000 		.4byte	0x29
 2343 08b7 02       		.byte	0x2
 2344 08b8 91       		.byte	0x91
 2345 08b9 70       		.sleb128 -16
 2346 08ba 1D       		.uleb128 0x1d
 2347 08bb 06000000 		.4byte	.LBB2
 2348 08bf 0E000000 		.4byte	.LBE2
 2349 08c3 D5080000 		.4byte	0x8d5
 2350 08c7 1E       		.uleb128 0x1e
 2351 08c8 746D7000 		.ascii	"tmp\000"
 2352 08cc 01       		.byte	0x1
 2353 08cd 51       		.byte	0x51
 2354 08ce 86000000 		.4byte	0x86
 2355 08d2 01       		.byte	0x1
 2356 08d3 53       		.byte	0x53
 2357 08d4 00       		.byte	0x0
 2358 08d5 1D       		.uleb128 0x1d
 2359 08d6 40010000 		.4byte	.LBB3
 2360 08da FA020000 		.4byte	.LBE3
 2361 08de EF080000 		.4byte	0x8ef
ARM GAS  C:\Users\z80\AppData\Local\Temp\ccmGcbDs.s 			page 43


 2362 08e2 1E       		.uleb128 0x1e
 2363 08e3 7600     		.ascii	"v\000"
 2364 08e5 01       		.byte	0x1
 2365 08e6 6F       		.byte	0x6f
 2366 08e7 49000000 		.4byte	0x49
 2367 08eb 02       		.byte	0x2
 2368 08ec 91       		.byte	0x91
 2369 08ed 6F       		.sleb128 -17
 2370 08ee 00       		.byte	0x0
 2371 08ef 1F       		.uleb128 0x1f
 2372 08f0 FE020000 		.4byte	.LBB4
 2373 08f4 06030000 		.4byte	.LBE4
 2374 08f8 1E       		.uleb128 0x1e
 2375 08f9 746D7000 		.ascii	"tmp\000"
 2376 08fd 01       		.byte	0x1
 2377 08fe A6       		.byte	0xa6
 2378 08ff 86000000 		.4byte	0x86
 2379 0903 01       		.byte	0x1
 2380 0904 53       		.byte	0x53
 2381 0905 00       		.byte	0x0
 2382 0906 00       		.byte	0x0
 2383 0907 20       		.uleb128 0x20
 2384 0908 01       		.byte	0x1
 2385 0909 E1000000 		.4byte	.LASF127
 2386 090d 01       		.byte	0x1
 2387 090e A9       		.byte	0xa9
 2388 090f 01       		.byte	0x1
 2389 0910 1F090000 		.4byte	0x91f
 2390 0914 00000000 		.4byte	.LFB65
 2391 0918 0C000000 		.4byte	.LFE65
 2392 091c 02       		.byte	0x2
 2393 091d 7D       		.byte	0x7d
 2394 091e 00       		.sleb128 0
 2395 091f 09       		.uleb128 0x9
 2396 0920 04       		.byte	0x4
 2397 0921 72040000 		.4byte	0x472
 2398 0925 1A       		.uleb128 0x1a
 2399 0926 65030000 		.4byte	.LASF118
 2400 092a 01       		.byte	0x1
 2401 092b AE       		.byte	0xae
 2402 092c 01       		.byte	0x1
 2403 092d 00000000 		.4byte	.LFB66
 2404 0931 5A000000 		.4byte	.LFE66
 2405 0935 6C000000 		.4byte	.LLST3
 2406 0939 4C090000 		.4byte	0x94c
 2407 093d 1B       		.uleb128 0x1b
 2408 093e 35050000 		.4byte	.LASF120
 2409 0942 01       		.byte	0x1
 2410 0943 AE       		.byte	0xae
 2411 0944 29000000 		.4byte	0x29
 2412 0948 02       		.byte	0x2
 2413 0949 91       		.byte	0x91
 2414 094a 7C       		.sleb128 -4
 2415 094b 00       		.byte	0x0
 2416 094c 21       		.uleb128 0x21
 2417 094d 01       		.byte	0x1
 2418 094e 4F010000 		.4byte	.LASF122
ARM GAS  C:\Users\z80\AppData\Local\Temp\ccmGcbDs.s 			page 44


 2419 0952 01       		.byte	0x1
 2420 0953 CC       		.byte	0xcc
 2421 0954 01       		.byte	0x1
 2422 0955 00000000 		.4byte	.LFB67
 2423 0959 6C000000 		.4byte	.LFE67
 2424 095d 8C000000 		.4byte	.LLST4
 2425 0961 A6090000 		.4byte	0x9a6
 2426 0965 1B       		.uleb128 0x1b
 2427 0966 13030000 		.4byte	.LASF121
 2428 096a 01       		.byte	0x1
 2429 096b CC       		.byte	0xcc
 2430 096c A6090000 		.4byte	0x9a6
 2431 0970 02       		.byte	0x2
 2432 0971 91       		.byte	0x91
 2433 0972 74       		.sleb128 -12
 2434 0973 1D       		.uleb128 0x1d
 2435 0974 0C000000 		.4byte	.LBB5
 2436 0978 14000000 		.4byte	.LBE5
 2437 097c 8E090000 		.4byte	0x98e
 2438 0980 1E       		.uleb128 0x1e
 2439 0981 746D7000 		.ascii	"tmp\000"
 2440 0985 01       		.byte	0x1
 2441 0986 D0       		.byte	0xd0
 2442 0987 86000000 		.4byte	0x86
 2443 098b 01       		.byte	0x1
 2444 098c 53       		.byte	0x53
 2445 098d 00       		.byte	0x0
 2446 098e 1F       		.uleb128 0x1f
 2447 098f 60000000 		.4byte	.LBB6
 2448 0993 68000000 		.4byte	.LBE6
 2449 0997 1E       		.uleb128 0x1e
 2450 0998 746D7000 		.ascii	"tmp\000"
 2451 099c 01       		.byte	0x1
 2452 099d D5       		.byte	0xd5
 2453 099e 86000000 		.4byte	0x86
 2454 09a2 01       		.byte	0x1
 2455 09a3 53       		.byte	0x53
 2456 09a4 00       		.byte	0x0
 2457 09a5 00       		.byte	0x0
 2458 09a6 09       		.uleb128 0x9
 2459 09a7 04       		.byte	0x4
 2460 09a8 29000000 		.4byte	0x29
 2461 09ac 21       		.uleb128 0x21
 2462 09ad 01       		.byte	0x1
 2463 09ae B0040000 		.4byte	.LASF123
 2464 09b2 01       		.byte	0x1
 2465 09b3 D9       		.byte	0xd9
 2466 09b4 01       		.byte	0x1
 2467 09b5 00000000 		.4byte	.LFB68
 2468 09b9 2E000000 		.4byte	.LFE68
 2469 09bd B8000000 		.4byte	.LLST5
 2470 09c1 060A0000 		.4byte	0xa06
 2471 09c5 1B       		.uleb128 0x1b
 2472 09c6 06020000 		.4byte	.LASF124
 2473 09ca 01       		.byte	0x1
 2474 09cb D9       		.byte	0xd9
 2475 09cc 29000000 		.4byte	0x29
ARM GAS  C:\Users\z80\AppData\Local\Temp\ccmGcbDs.s 			page 45


 2476 09d0 02       		.byte	0x2
 2477 09d1 91       		.byte	0x91
 2478 09d2 74       		.sleb128 -12
 2479 09d3 1D       		.uleb128 0x1d
 2480 09d4 06000000 		.4byte	.LBB7
 2481 09d8 0E000000 		.4byte	.LBE7
 2482 09dc EE090000 		.4byte	0x9ee
 2483 09e0 1E       		.uleb128 0x1e
 2484 09e1 746D7000 		.ascii	"tmp\000"
 2485 09e5 01       		.byte	0x1
 2486 09e6 DB       		.byte	0xdb
 2487 09e7 86000000 		.4byte	0x86
 2488 09eb 01       		.byte	0x1
 2489 09ec 53       		.byte	0x53
 2490 09ed 00       		.byte	0x0
 2491 09ee 1F       		.uleb128 0x1f
 2492 09ef 22000000 		.4byte	.LBB8
 2493 09f3 2A000000 		.4byte	.LBE8
 2494 09f7 1E       		.uleb128 0x1e
 2495 09f8 746D7000 		.ascii	"tmp\000"
 2496 09fc 01       		.byte	0x1
 2497 09fd DD       		.byte	0xdd
 2498 09fe 86000000 		.4byte	0x86
 2499 0a02 01       		.byte	0x1
 2500 0a03 53       		.byte	0x53
 2501 0a04 00       		.byte	0x0
 2502 0a05 00       		.byte	0x0
 2503 0a06 21       		.uleb128 0x21
 2504 0a07 01       		.byte	0x1
 2505 0a08 C5000000 		.4byte	.LASF125
 2506 0a0c 01       		.byte	0x1
 2507 0a0d E0       		.byte	0xe0
 2508 0a0e 01       		.byte	0x1
 2509 0a0f 00000000 		.4byte	.LFB69
 2510 0a13 2E000000 		.4byte	.LFE69
 2511 0a17 E4000000 		.4byte	.LLST6
 2512 0a1b 600A0000 		.4byte	0xa60
 2513 0a1f 1B       		.uleb128 0x1b
 2514 0a20 FD010000 		.4byte	.LASF126
 2515 0a24 01       		.byte	0x1
 2516 0a25 E0       		.byte	0xe0
 2517 0a26 86000000 		.4byte	0x86
 2518 0a2a 02       		.byte	0x2
 2519 0a2b 91       		.byte	0x91
 2520 0a2c 74       		.sleb128 -12
 2521 0a2d 1D       		.uleb128 0x1d
 2522 0a2e 06000000 		.4byte	.LBB9
 2523 0a32 0E000000 		.4byte	.LBE9
 2524 0a36 480A0000 		.4byte	0xa48
 2525 0a3a 1E       		.uleb128 0x1e
 2526 0a3b 746D7000 		.ascii	"tmp\000"
 2527 0a3f 01       		.byte	0x1
 2528 0a40 E2       		.byte	0xe2
 2529 0a41 86000000 		.4byte	0x86
 2530 0a45 01       		.byte	0x1
 2531 0a46 53       		.byte	0x53
 2532 0a47 00       		.byte	0x0
ARM GAS  C:\Users\z80\AppData\Local\Temp\ccmGcbDs.s 			page 46


 2533 0a48 1F       		.uleb128 0x1f
 2534 0a49 22000000 		.4byte	.LBB10
 2535 0a4d 2A000000 		.4byte	.LBE10
 2536 0a51 1E       		.uleb128 0x1e
 2537 0a52 746D7000 		.ascii	"tmp\000"
 2538 0a56 01       		.byte	0x1
 2539 0a57 E4       		.byte	0xe4
 2540 0a58 86000000 		.4byte	0x86
 2541 0a5c 01       		.byte	0x1
 2542 0a5d 53       		.byte	0x53
 2543 0a5e 00       		.byte	0x0
 2544 0a5f 00       		.byte	0x0
 2545 0a60 20       		.uleb128 0x20
 2546 0a61 01       		.byte	0x1
 2547 0a62 B6010000 		.4byte	.LASF128
 2548 0a66 01       		.byte	0x1
 2549 0a67 E7       		.byte	0xe7
 2550 0a68 01       		.byte	0x1
 2551 0a69 1F090000 		.4byte	0x91f
 2552 0a6d 00000000 		.4byte	.LFB70
 2553 0a71 0C000000 		.4byte	.LFE70
 2554 0a75 02       		.byte	0x2
 2555 0a76 7D       		.byte	0x7d
 2556 0a77 00       		.sleb128 0
 2557 0a78 21       		.uleb128 0x21
 2558 0a79 01       		.byte	0x1
 2559 0a7a 62020000 		.4byte	.LASF129
 2560 0a7e 01       		.byte	0x1
 2561 0a7f EF       		.byte	0xef
 2562 0a80 01       		.byte	0x1
 2563 0a81 00000000 		.4byte	.LFB71
 2564 0a85 28000000 		.4byte	.LFE71
 2565 0a89 10010000 		.4byte	.LLST7
 2566 0a8d AE0A0000 		.4byte	0xaae
 2567 0a91 1B       		.uleb128 0x1b
 2568 0a92 C9050000 		.4byte	.LASF130
 2569 0a96 01       		.byte	0x1
 2570 0a97 EF       		.byte	0xef
 2571 0a98 49000000 		.4byte	0x49
 2572 0a9c 02       		.byte	0x2
 2573 0a9d 91       		.byte	0x91
 2574 0a9e 7F       		.sleb128 -1
 2575 0a9f 1B       		.uleb128 0x1b
 2576 0aa0 6A000000 		.4byte	.LASF131
 2577 0aa4 01       		.byte	0x1
 2578 0aa5 EF       		.byte	0xef
 2579 0aa6 86000000 		.4byte	0x86
 2580 0aaa 02       		.byte	0x2
 2581 0aab 91       		.byte	0x91
 2582 0aac 78       		.sleb128 -8
 2583 0aad 00       		.byte	0x0
 2584 0aae 21       		.uleb128 0x21
 2585 0aaf 01       		.byte	0x1
 2586 0ab0 46040000 		.4byte	.LASF132
 2587 0ab4 01       		.byte	0x1
 2588 0ab5 F9       		.byte	0xf9
 2589 0ab6 01       		.byte	0x1
ARM GAS  C:\Users\z80\AppData\Local\Temp\ccmGcbDs.s 			page 47


 2590 0ab7 00000000 		.4byte	.LFB72
 2591 0abb B6000000 		.4byte	.LFE72
 2592 0abf 30010000 		.4byte	.LLST8
 2593 0ac3 F10A0000 		.4byte	0xaf1
 2594 0ac7 1B       		.uleb128 0x1b
 2595 0ac8 EC020000 		.4byte	.LASF133
 2596 0acc 01       		.byte	0x1
 2597 0acd F9       		.byte	0xf9
 2598 0ace F10A0000 		.4byte	0xaf1
 2599 0ad2 02       		.byte	0x2
 2600 0ad3 91       		.byte	0x91
 2601 0ad4 74       		.sleb128 -12
 2602 0ad5 22       		.uleb128 0x22
 2603 0ad6 746F00   		.ascii	"to\000"
 2604 0ad9 01       		.byte	0x1
 2605 0ada F9       		.byte	0xf9
 2606 0adb F10A0000 		.4byte	0xaf1
 2607 0adf 02       		.byte	0x2
 2608 0ae0 91       		.byte	0x91
 2609 0ae1 70       		.sleb128 -16
 2610 0ae2 1B       		.uleb128 0x1b
 2611 0ae3 6A000000 		.4byte	.LASF131
 2612 0ae7 01       		.byte	0x1
 2613 0ae8 F9       		.byte	0xf9
 2614 0ae9 86000000 		.4byte	0x86
 2615 0aed 02       		.byte	0x2
 2616 0aee 91       		.byte	0x91
 2617 0aef 6C       		.sleb128 -20
 2618 0af0 00       		.byte	0x0
 2619 0af1 09       		.uleb128 0x9
 2620 0af2 04       		.byte	0x4
 2621 0af3 62000000 		.4byte	0x62
 2622 0af7 23       		.uleb128 0x23
 2623 0af8 B8000000 		.4byte	.LASF134
 2624 0afc 0F       		.byte	0xf
 2625 0afd 9404     		.2byte	0x494
 2626 0aff 8D040000 		.4byte	0x48d
 2627 0b03 01       		.byte	0x1
 2628 0b04 01       		.byte	0x1
 2629 0b05 23       		.uleb128 0x23
 2630 0b06 40040000 		.4byte	.LASF135
 2631 0b0a 0E       		.byte	0xe
 2632 0b0b 6701     		.2byte	0x167
 2633 0b0d 44070000 		.4byte	0x744
 2634 0b11 01       		.byte	0x1
 2635 0b12 01       		.byte	0x1
 2636 0b13 24       		.uleb128 0x24
 2637 0b14 4F040000 		.4byte	.LASF136
 2638 0b18 01       		.byte	0x1
 2639 0b19 0F       		.byte	0xf
 2640 0b1a 72040000 		.4byte	0x472
 2641 0b1e 01       		.byte	0x1
 2642 0b1f 01       		.byte	0x1
 2643 0b20 25       		.uleb128 0x25
 2644 0b21 49000000 		.4byte	0x49
 2645 0b25 310B0000 		.4byte	0xb31
 2646 0b29 26       		.uleb128 0x26
ARM GAS  C:\Users\z80\AppData\Local\Temp\ccmGcbDs.s 			page 48


 2647 0b2a 2C030000 		.4byte	0x32c
 2648 0b2e 3F01     		.2byte	0x13f
 2649 0b30 00       		.byte	0x0
 2650 0b31 24       		.uleb128 0x24
 2651 0b32 2A000000 		.4byte	.LASF137
 2652 0b36 01       		.byte	0x1
 2653 0b37 10       		.byte	0x10
 2654 0b38 200B0000 		.4byte	0xb20
 2655 0b3c 01       		.byte	0x1
 2656 0b3d 01       		.byte	0x1
 2657 0b3e 24       		.uleb128 0x24
 2658 0b3f 91050000 		.4byte	.LASF138
 2659 0b43 01       		.byte	0x1
 2660 0b44 12       		.byte	0x12
 2661 0b45 72040000 		.4byte	0x472
 2662 0b49 01       		.byte	0x1
 2663 0b4a 01       		.byte	0x1
 2664 0b4b 24       		.uleb128 0x24
 2665 0b4c 74030000 		.4byte	.LASF139
 2666 0b50 01       		.byte	0x1
 2667 0b51 13       		.byte	0x13
 2668 0b52 200B0000 		.4byte	0xb20
 2669 0b56 01       		.byte	0x1
 2670 0b57 01       		.byte	0x1
 2671 0b58 24       		.uleb128 0x24
 2672 0b59 5A010000 		.4byte	.LASF140
 2673 0b5d 01       		.byte	0x1
 2674 0b5e 15       		.byte	0x15
 2675 0b5f 7D040000 		.4byte	0x47d
 2676 0b63 01       		.byte	0x1
 2677 0b64 01       		.byte	0x1
 2678 0b65 25       		.uleb128 0x25
 2679 0b66 49000000 		.4byte	0x49
 2680 0b6a 750B0000 		.4byte	0xb75
 2681 0b6e 27       		.uleb128 0x27
 2682 0b6f 2C030000 		.4byte	0x32c
 2683 0b73 01       		.byte	0x1
 2684 0b74 00       		.byte	0x0
 2685 0b75 24       		.uleb128 0x24
 2686 0b76 08040000 		.4byte	.LASF141
 2687 0b7a 01       		.byte	0x1
 2688 0b7b 16       		.byte	0x16
 2689 0b7c 650B0000 		.4byte	0xb65
 2690 0b80 01       		.byte	0x1
 2691 0b81 01       		.byte	0x1
 2692 0b82 25       		.uleb128 0x25
 2693 0b83 49000000 		.4byte	0x49
 2694 0b87 920B0000 		.4byte	0xb92
 2695 0b8b 27       		.uleb128 0x27
 2696 0b8c 2C030000 		.4byte	0x32c
 2697 0b90 03       		.byte	0x3
 2698 0b91 00       		.byte	0x0
 2699 0b92 24       		.uleb128 0x24
 2700 0b93 9A040000 		.4byte	.LASF142
 2701 0b97 01       		.byte	0x1
 2702 0b98 18       		.byte	0x18
 2703 0b99 820B0000 		.4byte	0xb82
ARM GAS  C:\Users\z80\AppData\Local\Temp\ccmGcbDs.s 			page 49


 2704 0b9d 01       		.byte	0x1
 2705 0b9e 01       		.byte	0x1
 2706 0b9f 1C       		.uleb128 0x1c
 2707 0ba0 95010000 		.4byte	.LASF143
 2708 0ba4 01       		.byte	0x1
 2709 0ba5 19       		.byte	0x19
 2710 0ba6 29000000 		.4byte	0x29
 2711 0baa 05       		.byte	0x5
 2712 0bab 03       		.byte	0x3
 2713 0bac 00000000 		.4byte	adcIndex
 2714 0bb0 25       		.uleb128 0x25
 2715 0bb1 29000000 		.4byte	0x29
 2716 0bb5 C00B0000 		.4byte	0xbc0
 2717 0bb9 27       		.uleb128 0x27
 2718 0bba 2C030000 		.4byte	0x32c
 2719 0bbe 03       		.byte	0x3
 2720 0bbf 00       		.byte	0x0
 2721 0bc0 1C       		.uleb128 0x1c
 2722 0bc1 E1040000 		.4byte	.LASF144
 2723 0bc5 01       		.byte	0x1
 2724 0bc6 1B       		.byte	0x1b
 2725 0bc7 B00B0000 		.4byte	0xbb0
 2726 0bcb 05       		.byte	0x5
 2727 0bcc 03       		.byte	0x3
 2728 0bcd 00000000 		.4byte	instantAdcData
 2729 0bd1 24       		.uleb128 0x24
 2730 0bd2 52000000 		.4byte	.LASF145
 2731 0bd6 01       		.byte	0x1
 2732 0bd7 1E       		.byte	0x1e
 2733 0bd8 29000000 		.4byte	0x29
 2734 0bdc 01       		.byte	0x1
 2735 0bdd 01       		.byte	0x1
 2736 0bde 24       		.uleb128 0x24
 2737 0bdf 6A000000 		.4byte	.LASF131
 2738 0be3 01       		.byte	0x1
 2739 0be4 1F       		.byte	0x1f
 2740 0be5 29000000 		.4byte	0x29
 2741 0be9 01       		.byte	0x1
 2742 0bea 01       		.byte	0x1
 2743 0beb 24       		.uleb128 0x24
 2744 0bec D2000000 		.4byte	.LASF146
 2745 0bf0 01       		.byte	0x1
 2746 0bf1 20       		.byte	0x20
 2747 0bf2 29000000 		.4byte	0x29
 2748 0bf6 01       		.byte	0x1
 2749 0bf7 01       		.byte	0x1
 2750 0bf8 1C       		.uleb128 0x1c
 2751 0bf9 20000000 		.4byte	.LASF147
 2752 0bfd 01       		.byte	0x1
 2753 0bfe 29       		.byte	0x29
 2754 0bff 43080000 		.4byte	0x843
 2755 0c03 05       		.byte	0x5
 2756 0c04 03       		.byte	0x3
 2757 0c05 00000000 		.4byte	hs_spicfg
 2758 0c09 1C       		.uleb128 0x1c
 2759 0c0a CB020000 		.4byte	.LASF148
 2760 0c0e 01       		.byte	0x1
ARM GAS  C:\Users\z80\AppData\Local\Temp\ccmGcbDs.s 			page 50


 2761 0c0f EC       		.byte	0xec
 2762 0c10 49000000 		.4byte	0x49
 2763 0c14 05       		.byte	0x5
 2764 0c15 03       		.byte	0x3
 2765 0c16 00000000 		.4byte	sweepSigs
 2766 0c1a 1C       		.uleb128 0x1c
 2767 0c1b 75040000 		.4byte	.LASF149
 2768 0c1f 01       		.byte	0x1
 2769 0c20 ED       		.byte	0xed
 2770 0c21 86000000 		.4byte	0x86
 2771 0c25 05       		.byte	0x5
 2772 0c26 03       		.byte	0x3
 2773 0c27 00000000 		.4byte	sweepOscPeriod
 2774 0c2b 25       		.uleb128 0x25
 2775 0c2c 62000000 		.4byte	0x62
 2776 0c30 3B0C0000 		.4byte	0xc3b
 2777 0c34 27       		.uleb128 0x27
 2778 0c35 2C030000 		.4byte	0x32c
 2779 0c39 03       		.byte	0x3
 2780 0c3a 00       		.byte	0x0
 2781 0c3b 1C       		.uleb128 0x1c
 2782 0c3c 77000000 		.4byte	.LASF150
 2783 0c40 01       		.byte	0x1
 2784 0c41 F5       		.byte	0xf5
 2785 0c42 2B0C0000 		.4byte	0xc2b
 2786 0c46 05       		.byte	0x5
 2787 0c47 03       		.byte	0x3
 2788 0c48 00000000 		.4byte	sweepDacsFrom
 2789 0c4c 1C       		.uleb128 0x1c
 2790 0c4d C0010000 		.4byte	.LASF151
 2791 0c51 01       		.byte	0x1
 2792 0c52 F6       		.byte	0xf6
 2793 0c53 2B0C0000 		.4byte	0xc2b
 2794 0c57 05       		.byte	0x5
 2795 0c58 03       		.byte	0x3
 2796 0c59 00000000 		.4byte	sweepDacsTo
 2797 0c5d 1C       		.uleb128 0x1c
 2798 0c5e 85000000 		.4byte	.LASF152
 2799 0c62 01       		.byte	0x1
 2800 0c63 F7       		.byte	0xf7
 2801 0c64 86000000 		.4byte	0x86
 2802 0c68 05       		.byte	0x5
 2803 0c69 03       		.byte	0x3
 2804 0c6a 00000000 		.4byte	sweepPeriod
 2805 0c6e 23       		.uleb128 0x23
 2806 0c6f B8000000 		.4byte	.LASF134
 2807 0c73 0F       		.byte	0xf
 2808 0c74 9404     		.2byte	0x494
 2809 0c76 8D040000 		.4byte	0x48d
 2810 0c7a 01       		.byte	0x1
 2811 0c7b 01       		.byte	0x1
 2812 0c7c 23       		.uleb128 0x23
 2813 0c7d 40040000 		.4byte	.LASF135
 2814 0c81 0E       		.byte	0xe
 2815 0c82 6701     		.2byte	0x167
 2816 0c84 44070000 		.4byte	0x744
 2817 0c88 01       		.byte	0x1
ARM GAS  C:\Users\z80\AppData\Local\Temp\ccmGcbDs.s 			page 51


 2818 0c89 01       		.byte	0x1
 2819 0c8a 28       		.uleb128 0x28
 2820 0c8b 4F040000 		.4byte	.LASF136
 2821 0c8f 01       		.byte	0x1
 2822 0c90 0F       		.byte	0xf
 2823 0c91 72040000 		.4byte	0x472
 2824 0c95 01       		.byte	0x1
 2825 0c96 05       		.byte	0x5
 2826 0c97 03       		.byte	0x3
 2827 0c98 00000000 		.4byte	adc_queue
 2828 0c9c 28       		.uleb128 0x28
 2829 0c9d 2A000000 		.4byte	.LASF137
 2830 0ca1 01       		.byte	0x1
 2831 0ca2 10       		.byte	0x10
 2832 0ca3 200B0000 		.4byte	0xb20
 2833 0ca7 01       		.byte	0x1
 2834 0ca8 05       		.byte	0x5
 2835 0ca9 03       		.byte	0x3
 2836 0caa 00000000 		.4byte	adc_queue_buffer
 2837 0cae 28       		.uleb128 0x28
 2838 0caf 91050000 		.4byte	.LASF138
 2839 0cb3 01       		.byte	0x1
 2840 0cb4 12       		.byte	0x12
 2841 0cb5 72040000 		.4byte	0x472
 2842 0cb9 01       		.byte	0x1
 2843 0cba 05       		.byte	0x5
 2844 0cbb 03       		.byte	0x3
 2845 0cbc 00000000 		.4byte	sweep_queue
 2846 0cc0 28       		.uleb128 0x28
 2847 0cc1 74030000 		.4byte	.LASF139
 2848 0cc5 01       		.byte	0x1
 2849 0cc6 13       		.byte	0x13
 2850 0cc7 200B0000 		.4byte	0xb20
 2851 0ccb 01       		.byte	0x1
 2852 0ccc 05       		.byte	0x5
 2853 0ccd 03       		.byte	0x3
 2854 0cce 00000000 		.4byte	sweep_queue_buffer
 2855 0cd2 28       		.uleb128 0x28
 2856 0cd3 5A010000 		.4byte	.LASF140
 2857 0cd7 01       		.byte	0x1
 2858 0cd8 15       		.byte	0x15
 2859 0cd9 7D040000 		.4byte	0x47d
 2860 0cdd 01       		.byte	0x1
 2861 0cde 05       		.byte	0x5
 2862 0cdf 03       		.byte	0x3
 2863 0ce0 00000000 		.4byte	sweepCmdQueue
 2864 0ce4 28       		.uleb128 0x28
 2865 0ce5 08040000 		.4byte	.LASF141
 2866 0ce9 01       		.byte	0x1
 2867 0cea 16       		.byte	0x16
 2868 0ceb 650B0000 		.4byte	0xb65
 2869 0cef 01       		.byte	0x1
 2870 0cf0 05       		.byte	0x5
 2871 0cf1 03       		.byte	0x3
 2872 0cf2 00000000 		.4byte	sweepCmdBuffer
 2873 0cf6 28       		.uleb128 0x28
 2874 0cf7 9A040000 		.4byte	.LASF142
ARM GAS  C:\Users\z80\AppData\Local\Temp\ccmGcbDs.s 			page 52


 2875 0cfb 01       		.byte	0x1
 2876 0cfc 18       		.byte	0x18
 2877 0cfd 820B0000 		.4byte	0xb82
 2878 0d01 01       		.byte	0x1
 2879 0d02 05       		.byte	0x5
 2880 0d03 03       		.byte	0x3
 2881 0d04 00000000 		.4byte	adc_rx_buffer
 2882 0d08 28       		.uleb128 0x28
 2883 0d09 52000000 		.4byte	.LASF145
 2884 0d0d 01       		.byte	0x1
 2885 0d0e 1E       		.byte	0x1e
 2886 0d0f 29000000 		.4byte	0x29
 2887 0d13 01       		.byte	0x1
 2888 0d14 05       		.byte	0x5
 2889 0d15 03       		.byte	0x3
 2890 0d16 00000000 		.4byte	signalMask
 2891 0d1a 28       		.uleb128 0x28
 2892 0d1b 6A000000 		.4byte	.LASF131
 2893 0d1f 01       		.byte	0x1
 2894 0d20 1F       		.byte	0x1f
 2895 0d21 29000000 		.4byte	0x29
 2896 0d25 01       		.byte	0x1
 2897 0d26 05       		.byte	0x5
 2898 0d27 03       		.byte	0x3
 2899 0d28 00000000 		.4byte	period
 2900 0d2c 28       		.uleb128 0x28
 2901 0d2d D2000000 		.4byte	.LASF146
 2902 0d31 01       		.byte	0x1
 2903 0d32 20       		.byte	0x20
 2904 0d33 29000000 		.4byte	0x29
 2905 0d37 01       		.byte	0x1
 2906 0d38 05       		.byte	0x5
 2907 0d39 03       		.byte	0x3
 2908 0d3a 00000000 		.4byte	elapsed
 2909 0d3e 00       		.byte	0x0
 2910              		.section	.debug_abbrev
 2911 0000 01       		.uleb128 0x1
 2912 0001 11       		.uleb128 0x11
 2913 0002 01       		.byte	0x1
 2914 0003 25       		.uleb128 0x25
 2915 0004 0E       		.uleb128 0xe
 2916 0005 13       		.uleb128 0x13
 2917 0006 0B       		.uleb128 0xb
 2918 0007 03       		.uleb128 0x3
 2919 0008 0E       		.uleb128 0xe
 2920 0009 1B       		.uleb128 0x1b
 2921 000a 0E       		.uleb128 0xe
 2922 000b 11       		.uleb128 0x11
 2923 000c 01       		.uleb128 0x1
 2924 000d 52       		.uleb128 0x52
 2925 000e 01       		.uleb128 0x1
 2926 000f 55       		.uleb128 0x55
 2927 0010 06       		.uleb128 0x6
 2928 0011 10       		.uleb128 0x10
 2929 0012 06       		.uleb128 0x6
 2930 0013 00       		.byte	0x0
 2931 0014 00       		.byte	0x0
ARM GAS  C:\Users\z80\AppData\Local\Temp\ccmGcbDs.s 			page 53


 2932 0015 02       		.uleb128 0x2
 2933 0016 24       		.uleb128 0x24
 2934 0017 00       		.byte	0x0
 2935 0018 0B       		.uleb128 0xb
 2936 0019 0B       		.uleb128 0xb
 2937 001a 3E       		.uleb128 0x3e
 2938 001b 0B       		.uleb128 0xb
 2939 001c 03       		.uleb128 0x3
 2940 001d 08       		.uleb128 0x8
 2941 001e 00       		.byte	0x0
 2942 001f 00       		.byte	0x0
 2943 0020 03       		.uleb128 0x3
 2944 0021 16       		.uleb128 0x16
 2945 0022 00       		.byte	0x0
 2946 0023 03       		.uleb128 0x3
 2947 0024 0E       		.uleb128 0xe
 2948 0025 3A       		.uleb128 0x3a
 2949 0026 0B       		.uleb128 0xb
 2950 0027 3B       		.uleb128 0x3b
 2951 0028 0B       		.uleb128 0xb
 2952 0029 49       		.uleb128 0x49
 2953 002a 13       		.uleb128 0x13
 2954 002b 00       		.byte	0x0
 2955 002c 00       		.byte	0x0
 2956 002d 04       		.uleb128 0x4
 2957 002e 24       		.uleb128 0x24
 2958 002f 00       		.byte	0x0
 2959 0030 0B       		.uleb128 0xb
 2960 0031 0B       		.uleb128 0xb
 2961 0032 3E       		.uleb128 0x3e
 2962 0033 0B       		.uleb128 0xb
 2963 0034 03       		.uleb128 0x3
 2964 0035 0E       		.uleb128 0xe
 2965 0036 00       		.byte	0x0
 2966 0037 00       		.byte	0x0
 2967 0038 05       		.uleb128 0x5
 2968 0039 13       		.uleb128 0x13
 2969 003a 01       		.byte	0x1
 2970 003b 03       		.uleb128 0x3
 2971 003c 0E       		.uleb128 0xe
 2972 003d 0B       		.uleb128 0xb
 2973 003e 0B       		.uleb128 0xb
 2974 003f 3A       		.uleb128 0x3a
 2975 0040 0B       		.uleb128 0xb
 2976 0041 3B       		.uleb128 0x3b
 2977 0042 0B       		.uleb128 0xb
 2978 0043 01       		.uleb128 0x1
 2979 0044 13       		.uleb128 0x13
 2980 0045 00       		.byte	0x0
 2981 0046 00       		.byte	0x0
 2982 0047 06       		.uleb128 0x6
 2983 0048 0D       		.uleb128 0xd
 2984 0049 00       		.byte	0x0
 2985 004a 03       		.uleb128 0x3
 2986 004b 0E       		.uleb128 0xe
 2987 004c 3A       		.uleb128 0x3a
 2988 004d 0B       		.uleb128 0xb
ARM GAS  C:\Users\z80\AppData\Local\Temp\ccmGcbDs.s 			page 54


 2989 004e 3B       		.uleb128 0x3b
 2990 004f 0B       		.uleb128 0xb
 2991 0050 49       		.uleb128 0x49
 2992 0051 13       		.uleb128 0x13
 2993 0052 38       		.uleb128 0x38
 2994 0053 0A       		.uleb128 0xa
 2995 0054 00       		.byte	0x0
 2996 0055 00       		.byte	0x0
 2997 0056 07       		.uleb128 0x7
 2998 0057 0D       		.uleb128 0xd
 2999 0058 00       		.byte	0x0
 3000 0059 03       		.uleb128 0x3
 3001 005a 08       		.uleb128 0x8
 3002 005b 3A       		.uleb128 0x3a
 3003 005c 0B       		.uleb128 0xb
 3004 005d 3B       		.uleb128 0x3b
 3005 005e 0B       		.uleb128 0xb
 3006 005f 49       		.uleb128 0x49
 3007 0060 13       		.uleb128 0x13
 3008 0061 38       		.uleb128 0x38
 3009 0062 0A       		.uleb128 0xa
 3010 0063 00       		.byte	0x0
 3011 0064 00       		.byte	0x0
 3012 0065 08       		.uleb128 0x8
 3013 0066 13       		.uleb128 0x13
 3014 0067 01       		.byte	0x1
 3015 0068 0B       		.uleb128 0xb
 3016 0069 0B       		.uleb128 0xb
 3017 006a 3A       		.uleb128 0x3a
 3018 006b 0B       		.uleb128 0xb
 3019 006c 3B       		.uleb128 0x3b
 3020 006d 0B       		.uleb128 0xb
 3021 006e 01       		.uleb128 0x1
 3022 006f 13       		.uleb128 0x13
 3023 0070 00       		.byte	0x0
 3024 0071 00       		.byte	0x0
 3025 0072 09       		.uleb128 0x9
 3026 0073 0F       		.uleb128 0xf
 3027 0074 00       		.byte	0x0
 3028 0075 0B       		.uleb128 0xb
 3029 0076 0B       		.uleb128 0xb
 3030 0077 49       		.uleb128 0x49
 3031 0078 13       		.uleb128 0x13
 3032 0079 00       		.byte	0x0
 3033 007a 00       		.byte	0x0
 3034 007b 0A       		.uleb128 0xa
 3035 007c 0F       		.uleb128 0xf
 3036 007d 00       		.byte	0x0
 3037 007e 0B       		.uleb128 0xb
 3038 007f 0B       		.uleb128 0xb
 3039 0080 00       		.byte	0x0
 3040 0081 00       		.byte	0x0
 3041 0082 0B       		.uleb128 0xb
 3042 0083 0D       		.uleb128 0xd
 3043 0084 00       		.byte	0x0
 3044 0085 03       		.uleb128 0x3
 3045 0086 08       		.uleb128 0x8
ARM GAS  C:\Users\z80\AppData\Local\Temp\ccmGcbDs.s 			page 55


 3046 0087 3A       		.uleb128 0x3a
 3047 0088 0B       		.uleb128 0xb
 3048 0089 3B       		.uleb128 0x3b
 3049 008a 05       		.uleb128 0x5
 3050 008b 49       		.uleb128 0x49
 3051 008c 13       		.uleb128 0x13
 3052 008d 38       		.uleb128 0x38
 3053 008e 0A       		.uleb128 0xa
 3054 008f 00       		.byte	0x0
 3055 0090 00       		.byte	0x0
 3056 0091 0C       		.uleb128 0xc
 3057 0092 13       		.uleb128 0x13
 3058 0093 01       		.byte	0x1
 3059 0094 03       		.uleb128 0x3
 3060 0095 0E       		.uleb128 0xe
 3061 0096 0B       		.uleb128 0xb
 3062 0097 0B       		.uleb128 0xb
 3063 0098 3A       		.uleb128 0x3a
 3064 0099 0B       		.uleb128 0xb
 3065 009a 3B       		.uleb128 0x3b
 3066 009b 05       		.uleb128 0x5
 3067 009c 01       		.uleb128 0x1
 3068 009d 13       		.uleb128 0x13
 3069 009e 00       		.byte	0x0
 3070 009f 00       		.byte	0x0
 3071 00a0 0D       		.uleb128 0xd
 3072 00a1 35       		.uleb128 0x35
 3073 00a2 00       		.byte	0x0
 3074 00a3 49       		.uleb128 0x49
 3075 00a4 13       		.uleb128 0x13
 3076 00a5 00       		.byte	0x0
 3077 00a6 00       		.byte	0x0
 3078 00a7 0E       		.uleb128 0xe
 3079 00a8 24       		.uleb128 0x24
 3080 00a9 00       		.byte	0x0
 3081 00aa 0B       		.uleb128 0xb
 3082 00ab 0B       		.uleb128 0xb
 3083 00ac 3E       		.uleb128 0x3e
 3084 00ad 0B       		.uleb128 0xb
 3085 00ae 00       		.byte	0x0
 3086 00af 00       		.byte	0x0
 3087 00b0 0F       		.uleb128 0xf
 3088 00b1 17       		.uleb128 0x17
 3089 00b2 01       		.byte	0x1
 3090 00b3 0B       		.uleb128 0xb
 3091 00b4 0B       		.uleb128 0xb
 3092 00b5 3A       		.uleb128 0x3a
 3093 00b6 0B       		.uleb128 0xb
 3094 00b7 3B       		.uleb128 0x3b
 3095 00b8 0B       		.uleb128 0xb
 3096 00b9 01       		.uleb128 0x1
 3097 00ba 13       		.uleb128 0x13
 3098 00bb 00       		.byte	0x0
 3099 00bc 00       		.byte	0x0
 3100 00bd 10       		.uleb128 0x10
 3101 00be 0D       		.uleb128 0xd
 3102 00bf 00       		.byte	0x0
ARM GAS  C:\Users\z80\AppData\Local\Temp\ccmGcbDs.s 			page 56


 3103 00c0 03       		.uleb128 0x3
 3104 00c1 0E       		.uleb128 0xe
 3105 00c2 3A       		.uleb128 0x3a
 3106 00c3 0B       		.uleb128 0xb
 3107 00c4 3B       		.uleb128 0x3b
 3108 00c5 0B       		.uleb128 0xb
 3109 00c6 49       		.uleb128 0x49
 3110 00c7 13       		.uleb128 0x13
 3111 00c8 00       		.byte	0x0
 3112 00c9 00       		.byte	0x0
 3113 00ca 11       		.uleb128 0x11
 3114 00cb 26       		.uleb128 0x26
 3115 00cc 00       		.byte	0x0
 3116 00cd 49       		.uleb128 0x49
 3117 00ce 13       		.uleb128 0x13
 3118 00cf 00       		.byte	0x0
 3119 00d0 00       		.byte	0x0
 3120 00d1 12       		.uleb128 0x12
 3121 00d2 15       		.uleb128 0x15
 3122 00d3 01       		.byte	0x1
 3123 00d4 27       		.uleb128 0x27
 3124 00d5 0C       		.uleb128 0xc
 3125 00d6 01       		.uleb128 0x1
 3126 00d7 13       		.uleb128 0x13
 3127 00d8 00       		.byte	0x0
 3128 00d9 00       		.byte	0x0
 3129 00da 13       		.uleb128 0x13
 3130 00db 05       		.uleb128 0x5
 3131 00dc 00       		.byte	0x0
 3132 00dd 49       		.uleb128 0x49
 3133 00de 13       		.uleb128 0x13
 3134 00df 00       		.byte	0x0
 3135 00e0 00       		.byte	0x0
 3136 00e1 14       		.uleb128 0x14
 3137 00e2 13       		.uleb128 0x13
 3138 00e3 01       		.byte	0x1
 3139 00e4 0B       		.uleb128 0xb
 3140 00e5 0B       		.uleb128 0xb
 3141 00e6 3A       		.uleb128 0x3a
 3142 00e7 0B       		.uleb128 0xb
 3143 00e8 3B       		.uleb128 0x3b
 3144 00e9 05       		.uleb128 0x5
 3145 00ea 01       		.uleb128 0x1
 3146 00eb 13       		.uleb128 0x13
 3147 00ec 00       		.byte	0x0
 3148 00ed 00       		.byte	0x0
 3149 00ee 15       		.uleb128 0x15
 3150 00ef 0D       		.uleb128 0xd
 3151 00f0 00       		.byte	0x0
 3152 00f1 03       		.uleb128 0x3
 3153 00f2 0E       		.uleb128 0xe
 3154 00f3 3A       		.uleb128 0x3a
 3155 00f4 0B       		.uleb128 0xb
 3156 00f5 3B       		.uleb128 0x3b
 3157 00f6 05       		.uleb128 0x5
 3158 00f7 49       		.uleb128 0x49
 3159 00f8 13       		.uleb128 0x13
ARM GAS  C:\Users\z80\AppData\Local\Temp\ccmGcbDs.s 			page 57


 3160 00f9 38       		.uleb128 0x38
 3161 00fa 0A       		.uleb128 0xa
 3162 00fb 00       		.byte	0x0
 3163 00fc 00       		.byte	0x0
 3164 00fd 16       		.uleb128 0x16
 3165 00fe 16       		.uleb128 0x16
 3166 00ff 00       		.byte	0x0
 3167 0100 03       		.uleb128 0x3
 3168 0101 0E       		.uleb128 0xe
 3169 0102 3A       		.uleb128 0x3a
 3170 0103 0B       		.uleb128 0xb
 3171 0104 3B       		.uleb128 0x3b
 3172 0105 05       		.uleb128 0x5
 3173 0106 49       		.uleb128 0x49
 3174 0107 13       		.uleb128 0x13
 3175 0108 00       		.byte	0x0
 3176 0109 00       		.byte	0x0
 3177 010a 17       		.uleb128 0x17
 3178 010b 04       		.uleb128 0x4
 3179 010c 01       		.byte	0x1
 3180 010d 0B       		.uleb128 0xb
 3181 010e 0B       		.uleb128 0xb
 3182 010f 3A       		.uleb128 0x3a
 3183 0110 0B       		.uleb128 0xb
 3184 0111 3B       		.uleb128 0x3b
 3185 0112 0B       		.uleb128 0xb
 3186 0113 01       		.uleb128 0x1
 3187 0114 13       		.uleb128 0x13
 3188 0115 00       		.byte	0x0
 3189 0116 00       		.byte	0x0
 3190 0117 18       		.uleb128 0x18
 3191 0118 28       		.uleb128 0x28
 3192 0119 00       		.byte	0x0
 3193 011a 03       		.uleb128 0x3
 3194 011b 0E       		.uleb128 0xe
 3195 011c 1C       		.uleb128 0x1c
 3196 011d 0D       		.uleb128 0xd
 3197 011e 00       		.byte	0x0
 3198 011f 00       		.byte	0x0
 3199 0120 19       		.uleb128 0x19
 3200 0121 2E       		.uleb128 0x2e
 3201 0122 00       		.byte	0x0
 3202 0123 3F       		.uleb128 0x3f
 3203 0124 0C       		.uleb128 0xc
 3204 0125 03       		.uleb128 0x3
 3205 0126 0E       		.uleb128 0xe
 3206 0127 3A       		.uleb128 0x3a
 3207 0128 0B       		.uleb128 0xb
 3208 0129 3B       		.uleb128 0x3b
 3209 012a 0B       		.uleb128 0xb
 3210 012b 27       		.uleb128 0x27
 3211 012c 0C       		.uleb128 0xc
 3212 012d 11       		.uleb128 0x11
 3213 012e 01       		.uleb128 0x1
 3214 012f 12       		.uleb128 0x12
 3215 0130 01       		.uleb128 0x1
 3216 0131 40       		.uleb128 0x40
ARM GAS  C:\Users\z80\AppData\Local\Temp\ccmGcbDs.s 			page 58


 3217 0132 06       		.uleb128 0x6
 3218 0133 00       		.byte	0x0
 3219 0134 00       		.byte	0x0
 3220 0135 1A       		.uleb128 0x1a
 3221 0136 2E       		.uleb128 0x2e
 3222 0137 01       		.byte	0x1
 3223 0138 03       		.uleb128 0x3
 3224 0139 0E       		.uleb128 0xe
 3225 013a 3A       		.uleb128 0x3a
 3226 013b 0B       		.uleb128 0xb
 3227 013c 3B       		.uleb128 0x3b
 3228 013d 0B       		.uleb128 0xb
 3229 013e 27       		.uleb128 0x27
 3230 013f 0C       		.uleb128 0xc
 3231 0140 11       		.uleb128 0x11
 3232 0141 01       		.uleb128 0x1
 3233 0142 12       		.uleb128 0x12
 3234 0143 01       		.uleb128 0x1
 3235 0144 40       		.uleb128 0x40
 3236 0145 06       		.uleb128 0x6
 3237 0146 01       		.uleb128 0x1
 3238 0147 13       		.uleb128 0x13
 3239 0148 00       		.byte	0x0
 3240 0149 00       		.byte	0x0
 3241 014a 1B       		.uleb128 0x1b
 3242 014b 05       		.uleb128 0x5
 3243 014c 00       		.byte	0x0
 3244 014d 03       		.uleb128 0x3
 3245 014e 0E       		.uleb128 0xe
 3246 014f 3A       		.uleb128 0x3a
 3247 0150 0B       		.uleb128 0xb
 3248 0151 3B       		.uleb128 0x3b
 3249 0152 0B       		.uleb128 0xb
 3250 0153 49       		.uleb128 0x49
 3251 0154 13       		.uleb128 0x13
 3252 0155 02       		.uleb128 0x2
 3253 0156 0A       		.uleb128 0xa
 3254 0157 00       		.byte	0x0
 3255 0158 00       		.byte	0x0
 3256 0159 1C       		.uleb128 0x1c
 3257 015a 34       		.uleb128 0x34
 3258 015b 00       		.byte	0x0
 3259 015c 03       		.uleb128 0x3
 3260 015d 0E       		.uleb128 0xe
 3261 015e 3A       		.uleb128 0x3a
 3262 015f 0B       		.uleb128 0xb
 3263 0160 3B       		.uleb128 0x3b
 3264 0161 0B       		.uleb128 0xb
 3265 0162 49       		.uleb128 0x49
 3266 0163 13       		.uleb128 0x13
 3267 0164 02       		.uleb128 0x2
 3268 0165 0A       		.uleb128 0xa
 3269 0166 00       		.byte	0x0
 3270 0167 00       		.byte	0x0
 3271 0168 1D       		.uleb128 0x1d
 3272 0169 0B       		.uleb128 0xb
 3273 016a 01       		.byte	0x1
ARM GAS  C:\Users\z80\AppData\Local\Temp\ccmGcbDs.s 			page 59


 3274 016b 11       		.uleb128 0x11
 3275 016c 01       		.uleb128 0x1
 3276 016d 12       		.uleb128 0x12
 3277 016e 01       		.uleb128 0x1
 3278 016f 01       		.uleb128 0x1
 3279 0170 13       		.uleb128 0x13
 3280 0171 00       		.byte	0x0
 3281 0172 00       		.byte	0x0
 3282 0173 1E       		.uleb128 0x1e
 3283 0174 34       		.uleb128 0x34
 3284 0175 00       		.byte	0x0
 3285 0176 03       		.uleb128 0x3
 3286 0177 08       		.uleb128 0x8
 3287 0178 3A       		.uleb128 0x3a
 3288 0179 0B       		.uleb128 0xb
 3289 017a 3B       		.uleb128 0x3b
 3290 017b 0B       		.uleb128 0xb
 3291 017c 49       		.uleb128 0x49
 3292 017d 13       		.uleb128 0x13
 3293 017e 02       		.uleb128 0x2
 3294 017f 0A       		.uleb128 0xa
 3295 0180 00       		.byte	0x0
 3296 0181 00       		.byte	0x0
 3297 0182 1F       		.uleb128 0x1f
 3298 0183 0B       		.uleb128 0xb
 3299 0184 01       		.byte	0x1
 3300 0185 11       		.uleb128 0x11
 3301 0186 01       		.uleb128 0x1
 3302 0187 12       		.uleb128 0x12
 3303 0188 01       		.uleb128 0x1
 3304 0189 00       		.byte	0x0
 3305 018a 00       		.byte	0x0
 3306 018b 20       		.uleb128 0x20
 3307 018c 2E       		.uleb128 0x2e
 3308 018d 00       		.byte	0x0
 3309 018e 3F       		.uleb128 0x3f
 3310 018f 0C       		.uleb128 0xc
 3311 0190 03       		.uleb128 0x3
 3312 0191 0E       		.uleb128 0xe
 3313 0192 3A       		.uleb128 0x3a
 3314 0193 0B       		.uleb128 0xb
 3315 0194 3B       		.uleb128 0x3b
 3316 0195 0B       		.uleb128 0xb
 3317 0196 27       		.uleb128 0x27
 3318 0197 0C       		.uleb128 0xc
 3319 0198 49       		.uleb128 0x49
 3320 0199 13       		.uleb128 0x13
 3321 019a 11       		.uleb128 0x11
 3322 019b 01       		.uleb128 0x1
 3323 019c 12       		.uleb128 0x12
 3324 019d 01       		.uleb128 0x1
 3325 019e 40       		.uleb128 0x40
 3326 019f 0A       		.uleb128 0xa
 3327 01a0 00       		.byte	0x0
 3328 01a1 00       		.byte	0x0
 3329 01a2 21       		.uleb128 0x21
 3330 01a3 2E       		.uleb128 0x2e
ARM GAS  C:\Users\z80\AppData\Local\Temp\ccmGcbDs.s 			page 60


 3331 01a4 01       		.byte	0x1
 3332 01a5 3F       		.uleb128 0x3f
 3333 01a6 0C       		.uleb128 0xc
 3334 01a7 03       		.uleb128 0x3
 3335 01a8 0E       		.uleb128 0xe
 3336 01a9 3A       		.uleb128 0x3a
 3337 01aa 0B       		.uleb128 0xb
 3338 01ab 3B       		.uleb128 0x3b
 3339 01ac 0B       		.uleb128 0xb
 3340 01ad 27       		.uleb128 0x27
 3341 01ae 0C       		.uleb128 0xc
 3342 01af 11       		.uleb128 0x11
 3343 01b0 01       		.uleb128 0x1
 3344 01b1 12       		.uleb128 0x12
 3345 01b2 01       		.uleb128 0x1
 3346 01b3 40       		.uleb128 0x40
 3347 01b4 06       		.uleb128 0x6
 3348 01b5 01       		.uleb128 0x1
 3349 01b6 13       		.uleb128 0x13
 3350 01b7 00       		.byte	0x0
 3351 01b8 00       		.byte	0x0
 3352 01b9 22       		.uleb128 0x22
 3353 01ba 05       		.uleb128 0x5
 3354 01bb 00       		.byte	0x0
 3355 01bc 03       		.uleb128 0x3
 3356 01bd 08       		.uleb128 0x8
 3357 01be 3A       		.uleb128 0x3a
 3358 01bf 0B       		.uleb128 0xb
 3359 01c0 3B       		.uleb128 0x3b
 3360 01c1 0B       		.uleb128 0xb
 3361 01c2 49       		.uleb128 0x49
 3362 01c3 13       		.uleb128 0x13
 3363 01c4 02       		.uleb128 0x2
 3364 01c5 0A       		.uleb128 0xa
 3365 01c6 00       		.byte	0x0
 3366 01c7 00       		.byte	0x0
 3367 01c8 23       		.uleb128 0x23
 3368 01c9 34       		.uleb128 0x34
 3369 01ca 00       		.byte	0x0
 3370 01cb 03       		.uleb128 0x3
 3371 01cc 0E       		.uleb128 0xe
 3372 01cd 3A       		.uleb128 0x3a
 3373 01ce 0B       		.uleb128 0xb
 3374 01cf 3B       		.uleb128 0x3b
 3375 01d0 05       		.uleb128 0x5
 3376 01d1 49       		.uleb128 0x49
 3377 01d2 13       		.uleb128 0x13
 3378 01d3 3F       		.uleb128 0x3f
 3379 01d4 0C       		.uleb128 0xc
 3380 01d5 3C       		.uleb128 0x3c
 3381 01d6 0C       		.uleb128 0xc
 3382 01d7 00       		.byte	0x0
 3383 01d8 00       		.byte	0x0
 3384 01d9 24       		.uleb128 0x24
 3385 01da 34       		.uleb128 0x34
 3386 01db 00       		.byte	0x0
 3387 01dc 03       		.uleb128 0x3
ARM GAS  C:\Users\z80\AppData\Local\Temp\ccmGcbDs.s 			page 61


 3388 01dd 0E       		.uleb128 0xe
 3389 01de 3A       		.uleb128 0x3a
 3390 01df 0B       		.uleb128 0xb
 3391 01e0 3B       		.uleb128 0x3b
 3392 01e1 0B       		.uleb128 0xb
 3393 01e2 49       		.uleb128 0x49
 3394 01e3 13       		.uleb128 0x13
 3395 01e4 3F       		.uleb128 0x3f
 3396 01e5 0C       		.uleb128 0xc
 3397 01e6 3C       		.uleb128 0x3c
 3398 01e7 0C       		.uleb128 0xc
 3399 01e8 00       		.byte	0x0
 3400 01e9 00       		.byte	0x0
 3401 01ea 25       		.uleb128 0x25
 3402 01eb 01       		.uleb128 0x1
 3403 01ec 01       		.byte	0x1
 3404 01ed 49       		.uleb128 0x49
 3405 01ee 13       		.uleb128 0x13
 3406 01ef 01       		.uleb128 0x1
 3407 01f0 13       		.uleb128 0x13
 3408 01f1 00       		.byte	0x0
 3409 01f2 00       		.byte	0x0
 3410 01f3 26       		.uleb128 0x26
 3411 01f4 21       		.uleb128 0x21
 3412 01f5 00       		.byte	0x0
 3413 01f6 49       		.uleb128 0x49
 3414 01f7 13       		.uleb128 0x13
 3415 01f8 2F       		.uleb128 0x2f
 3416 01f9 05       		.uleb128 0x5
 3417 01fa 00       		.byte	0x0
 3418 01fb 00       		.byte	0x0
 3419 01fc 27       		.uleb128 0x27
 3420 01fd 21       		.uleb128 0x21
 3421 01fe 00       		.byte	0x0
 3422 01ff 49       		.uleb128 0x49
 3423 0200 13       		.uleb128 0x13
 3424 0201 2F       		.uleb128 0x2f
 3425 0202 0B       		.uleb128 0xb
 3426 0203 00       		.byte	0x0
 3427 0204 00       		.byte	0x0
 3428 0205 28       		.uleb128 0x28
 3429 0206 34       		.uleb128 0x34
 3430 0207 00       		.byte	0x0
 3431 0208 03       		.uleb128 0x3
 3432 0209 0E       		.uleb128 0xe
 3433 020a 3A       		.uleb128 0x3a
 3434 020b 0B       		.uleb128 0xb
 3435 020c 3B       		.uleb128 0x3b
 3436 020d 0B       		.uleb128 0xb
 3437 020e 49       		.uleb128 0x49
 3438 020f 13       		.uleb128 0x13
 3439 0210 3F       		.uleb128 0x3f
 3440 0211 0C       		.uleb128 0xc
 3441 0212 02       		.uleb128 0x2
 3442 0213 0A       		.uleb128 0xa
 3443 0214 00       		.byte	0x0
 3444 0215 00       		.byte	0x0
ARM GAS  C:\Users\z80\AppData\Local\Temp\ccmGcbDs.s 			page 62


 3445 0216 00       		.byte	0x0
 3446              		.section	.debug_pubnames,"",%progbits
 3447 0000 39010000 		.4byte	0x139
 3448 0004 0200     		.2byte	0x2
 3449 0006 00000000 		.4byte	.Ldebug_info0
 3450 000a 3F0D0000 		.4byte	0xd3f
 3451 000e 4E080000 		.4byte	0x84e
 3452 0012 696E6974 		.ascii	"initAdc\000"
 3452      41646300 
 3453 001a 63080000 		.4byte	0x863
 3454 001e 71756572 		.ascii	"queryAdcI\000"
 3454      79416463 
 3454      4900
 3455 0028 07090000 		.4byte	0x907
 3456 002c 61646351 		.ascii	"adcQueue\000"
 3456      75657565 
 3456      00
 3457 0035 4C090000 		.4byte	0x94c
 3458 0039 696E7374 		.ascii	"instantAdc\000"
 3458      616E7441 
 3458      646300
 3459 0044 AC090000 		.4byte	0x9ac
 3460 0048 7365744F 		.ascii	"setOscSignals\000"
 3460      73635369 
 3460      676E616C 
 3460      7300
 3461 0056 060A0000 		.4byte	0xa06
 3462 005a 7365744F 		.ascii	"setOscPeriod\000"
 3462      73635065 
 3462      72696F64 
 3462      00
 3463 0067 600A0000 		.4byte	0xa60
 3464 006b 73776565 		.ascii	"sweepData\000"
 3464      70446174 
 3464      6100
 3465 0075 780A0000 		.4byte	0xa78
 3466 0079 73657453 		.ascii	"setSweepOsc\000"
 3466      77656570 
 3466      4F736300 
 3467 0085 AE0A0000 		.4byte	0xaae
 3468 0089 73657453 		.ascii	"setSweep\000"
 3468      77656570 
 3468      00
 3469 0092 8A0C0000 		.4byte	0xc8a
 3470 0096 6164635F 		.ascii	"adc_queue\000"
 3470      71756575 
 3470      6500
 3471 00a0 9C0C0000 		.4byte	0xc9c
 3472 00a4 6164635F 		.ascii	"adc_queue_buffer\000"
 3472      71756575 
 3472      655F6275 
 3472      66666572 
 3472      00
 3473 00b5 AE0C0000 		.4byte	0xcae
 3474 00b9 73776565 		.ascii	"sweep_queue\000"
 3474      705F7175 
 3474      65756500 
ARM GAS  C:\Users\z80\AppData\Local\Temp\ccmGcbDs.s 			page 63


 3475 00c5 C00C0000 		.4byte	0xcc0
 3476 00c9 73776565 		.ascii	"sweep_queue_buffer\000"
 3476      705F7175 
 3476      6575655F 
 3476      62756666 
 3476      657200
 3477 00dc D20C0000 		.4byte	0xcd2
 3478 00e0 73776565 		.ascii	"sweepCmdQueue\000"
 3478      70436D64 
 3478      51756575 
 3478      6500
 3479 00ee E40C0000 		.4byte	0xce4
 3480 00f2 73776565 		.ascii	"sweepCmdBuffer\000"
 3480      70436D64 
 3480      42756666 
 3480      657200
 3481 0101 F60C0000 		.4byte	0xcf6
 3482 0105 6164635F 		.ascii	"adc_rx_buffer\000"
 3482      72785F62 
 3482      75666665 
 3482      7200
 3483 0113 080D0000 		.4byte	0xd08
 3484 0117 7369676E 		.ascii	"signalMask\000"
 3484      616C4D61 
 3484      736B00
 3485 0122 1A0D0000 		.4byte	0xd1a
 3486 0126 70657269 		.ascii	"period\000"
 3486      6F6400
 3487 012d 2C0D0000 		.4byte	0xd2c
 3488 0131 656C6170 		.ascii	"elapsed\000"
 3488      73656400 
 3489 0139 00000000 		.4byte	0x0
 3490              		.section	.debug_pubtypes,"",%progbits
 3491 0000 2D020000 		.4byte	0x22d
 3492 0004 0200     		.2byte	0x2
 3493 0006 00000000 		.4byte	.Ldebug_info0
 3494 000a 3F0D0000 		.4byte	0xd3f
 3495 000e 30000000 		.4byte	0x30
 3496 0012 73697A65 		.ascii	"size_t\000"
 3496      5F7400
 3497 0019 49000000 		.4byte	0x49
 3498 001d 75696E74 		.ascii	"uint8_t\000"
 3498      385F7400 
 3499 0025 62000000 		.4byte	0x62
 3500 0029 75696E74 		.ascii	"uint16_t\000"
 3500      31365F74 
 3500      00
 3501 0032 74000000 		.4byte	0x74
 3502 0036 696E7433 		.ascii	"int32_t\000"
 3502      325F7400 
 3503 003e 86000000 		.4byte	0x86
 3504 0042 75696E74 		.ascii	"uint32_t\000"
 3504      33325F74 
 3504      00
 3505 004b 9F000000 		.4byte	0x9f
 3506 004f 75696E74 		.ascii	"uint64_t\000"
 3506      36345F74 
ARM GAS  C:\Users\z80\AppData\Local\Temp\ccmGcbDs.s 			page 64


 3506      00
 3507 0058 B1000000 		.4byte	0xb1
 3508 005c 746D6F64 		.ascii	"tmode_t\000"
 3508      655F7400 
 3509 0064 BC000000 		.4byte	0xbc
 3510 0068 74737461 		.ascii	"tstate_t\000"
 3510      74655F74 
 3510      00
 3511 0071 C7000000 		.4byte	0xc7
 3512 0075 74707269 		.ascii	"tprio_t\000"
 3512      6F5F7400 
 3513 007d D2000000 		.4byte	0xd2
 3514 0081 6D73675F 		.ascii	"msg_t\000"
 3514      7400
 3515 0087 DD000000 		.4byte	0xdd
 3516 008b 6576656E 		.ascii	"eventmask_t\000"
 3516      746D6173 
 3516      6B5F7400 
 3517 0097 E8000000 		.4byte	0xe8
 3518 009b 73797374 		.ascii	"systime_t\000"
 3518      696D655F 
 3518      7400
 3519 00a5 F3000000 		.4byte	0xf3
 3520 00a9 54687265 		.ascii	"Thread\000"
 3520      616400
 3521 00b0 32020000 		.4byte	0x232
 3522 00b4 54687265 		.ascii	"ThreadsQueue\000"
 3522      61647351 
 3522      75657565 
 3522      00
 3523 00c1 54020000 		.4byte	0x254
 3524 00c5 54687265 		.ascii	"ThreadsList\000"
 3524      6164734C 
 3524      69737400 
 3525 00d1 5F020000 		.4byte	0x25f
 3526 00d5 72656761 		.ascii	"regarm_t\000"
 3526      726D5F74 
 3526      00
 3527 00de 6C020000 		.4byte	0x26c
 3528 00e2 73746B61 		.ascii	"stkalign_t\000"
 3528      6C69676E 
 3528      5F7400
 3529 00ed 77020000 		.4byte	0x277
 3530 00f1 696E7463 		.ascii	"intctx\000"
 3530      747800
 3531 00f8 04030000 		.4byte	0x304
 3532 00fc 636F6E74 		.ascii	"context\000"
 3532      65787400 
 3533 0104 34030000 		.4byte	0x334
 3534 0108 4D757465 		.ascii	"Mutex\000"
 3534      7800
 3535 010e 71030000 		.4byte	0x371
 3536 0112 4D757465 		.ascii	"Mutex\000"
 3536      7800
 3537 0118 FE000000 		.4byte	0xfe
 3538 011c 54687265 		.ascii	"Thread\000"
 3538      616400
ARM GAS  C:\Users\z80\AppData\Local\Temp\ccmGcbDs.s 			page 65


 3539 0123 CF030000 		.4byte	0x3cf
 3540 0127 47656E65 		.ascii	"GenericQueue\000"
 3540      72696351 
 3540      75657565 
 3540      00
 3541 0134 49040000 		.4byte	0x449
 3542 0138 716E6F74 		.ascii	"qnotify_t\000"
 3542      6966795F 
 3542      7400
 3543 0142 DA030000 		.4byte	0x3da
 3544 0146 47656E65 		.ascii	"GenericQueue\000"
 3544      72696351 
 3544      75657565 
 3544      00
 3545 0153 72040000 		.4byte	0x472
 3546 0157 496E7075 		.ascii	"InputQueue\000"
 3546      74517565 
 3546      756500
 3547 0162 7D040000 		.4byte	0x47d
 3548 0166 4F757470 		.ascii	"OutputQueue\000"
 3548      75745175 
 3548      65756500 
 3549 0172 D8040000 		.4byte	0x4d8
 3550 0176 444D415F 		.ascii	"DMA_Channel_TypeDef\000"
 3550      4368616E 
 3550      6E656C5F 
 3550      54797065 
 3550      44656600 
 3551 018a 57050000 		.4byte	0x557
 3552 018e 4750494F 		.ascii	"GPIO_TypeDef\000"
 3552      5F547970 
 3552      65446566 
 3552      00
 3553 019b 79060000 		.4byte	0x679
 3554 019f 5350495F 		.ascii	"SPI_TypeDef\000"
 3554      54797065 
 3554      44656600 
 3555 01ab E0060000 		.4byte	0x6e0
 3556 01af 73746D33 		.ascii	"stm32_dma_stream_t\000"
 3556      325F646D 
 3556      615F7374 
 3556      7265616D 
 3556      5F7400
 3557 01c2 EB060000 		.4byte	0x6eb
 3558 01c6 696F706F 		.ascii	"ioportmask_t\000"
 3558      72746D61 
 3558      736B5F74 
 3558      00
 3559 01d3 F6060000 		.4byte	0x6f6
 3560 01d7 696F706F 		.ascii	"ioportid_t\000"
 3560      72746964 
 3560      5F7400
 3561 01e2 39070000 		.4byte	0x739
 3562 01e6 73706973 		.ascii	"spistate_t\000"
 3562      74617465 
 3562      5F7400
 3563 01f1 44070000 		.4byte	0x744
ARM GAS  C:\Users\z80\AppData\Local\Temp\ccmGcbDs.s 			page 66


 3564 01f5 53504944 		.ascii	"SPIDriver\000"
 3564      72697665 
 3564      7200
 3565 01ff C7070000 		.4byte	0x7c7
 3566 0203 73706963 		.ascii	"spicallback_t\000"
 3566      616C6C62 
 3566      61636B5F 
 3566      7400
 3567 0211 31080000 		.4byte	0x831
 3568 0215 53504943 		.ascii	"SPIConfig\000"
 3568      6F6E6669 
 3568      6700
 3569 021f 50070000 		.4byte	0x750
 3570 0223 53504944 		.ascii	"SPIDriver\000"
 3570      72697665 
 3570      7200
 3571 022d 00000000 		.4byte	0x0
 3572              		.section	.debug_aranges,"",%progbits
 3573 0000 6C000000 		.4byte	0x6c
 3574 0004 0200     		.2byte	0x2
 3575 0006 00000000 		.4byte	.Ldebug_info0
 3576 000a 04       		.byte	0x4
 3577 000b 00       		.byte	0x0
 3578 000c 0000     		.2byte	0x0
 3579 000e 0000     		.2byte	0x0
 3580 0010 00000000 		.4byte	.LFB62
 3581 0014 EE000000 		.4byte	.LFE62-.LFB62
 3582 0018 00000000 		.4byte	.LFB63
 3583 001c 36000000 		.4byte	.LFE63-.LFB63
 3584 0020 00000000 		.4byte	.LFB64
 3585 0024 0A030000 		.4byte	.LFE64-.LFB64
 3586 0028 00000000 		.4byte	.LFB65
 3587 002c 0C000000 		.4byte	.LFE65-.LFB65
 3588 0030 00000000 		.4byte	.LFB66
 3589 0034 5A000000 		.4byte	.LFE66-.LFB66
 3590 0038 00000000 		.4byte	.LFB67
 3591 003c 6C000000 		.4byte	.LFE67-.LFB67
 3592 0040 00000000 		.4byte	.LFB68
 3593 0044 2E000000 		.4byte	.LFE68-.LFB68
 3594 0048 00000000 		.4byte	.LFB69
 3595 004c 2E000000 		.4byte	.LFE69-.LFB69
 3596 0050 00000000 		.4byte	.LFB70
 3597 0054 0C000000 		.4byte	.LFE70-.LFB70
 3598 0058 00000000 		.4byte	.LFB71
 3599 005c 28000000 		.4byte	.LFE71-.LFB71
 3600 0060 00000000 		.4byte	.LFB72
 3601 0064 B6000000 		.4byte	.LFE72-.LFB72
 3602 0068 00000000 		.4byte	0x0
 3603 006c 00000000 		.4byte	0x0
 3604              		.section	.debug_ranges,"",%progbits
 3605              	.Ldebug_ranges0:
 3606 0000 00000000 		.4byte	.LFB62
 3607 0004 EE000000 		.4byte	.LFE62
 3608 0008 00000000 		.4byte	.LFB63
 3609 000c 36000000 		.4byte	.LFE63
 3610 0010 00000000 		.4byte	.LFB64
 3611 0014 0A030000 		.4byte	.LFE64
ARM GAS  C:\Users\z80\AppData\Local\Temp\ccmGcbDs.s 			page 67


 3612 0018 00000000 		.4byte	.LFB65
 3613 001c 0C000000 		.4byte	.LFE65
 3614 0020 00000000 		.4byte	.LFB66
 3615 0024 5A000000 		.4byte	.LFE66
 3616 0028 00000000 		.4byte	.LFB67
 3617 002c 6C000000 		.4byte	.LFE67
 3618 0030 00000000 		.4byte	.LFB68
 3619 0034 2E000000 		.4byte	.LFE68
 3620 0038 00000000 		.4byte	.LFB69
 3621 003c 2E000000 		.4byte	.LFE69
 3622 0040 00000000 		.4byte	.LFB70
 3623 0044 0C000000 		.4byte	.LFE70
 3624 0048 00000000 		.4byte	.LFB71
 3625 004c 28000000 		.4byte	.LFE71
 3626 0050 00000000 		.4byte	.LFB72
 3627 0054 B6000000 		.4byte	.LFE72
 3628 0058 00000000 		.4byte	0x0
 3629 005c 00000000 		.4byte	0x0
 3630              		.section	.debug_str,"MS",%progbits,1
 3631              	.LASF104:
 3632 0000 646D6172 		.ascii	"dmarx\000"
 3632      7800
 3633              	.LASF2:
 3634 0006 73697A65 		.ascii	"size_t\000"
 3634      5F7400
 3635              	.LASF40:
 3636 000d 54687265 		.ascii	"ThreadsList\000"
 3636      6164734C 
 3636      69737400 
 3637              	.LASF49:
 3638 0019 7264796D 		.ascii	"rdymsg\000"
 3638      736700
 3639              	.LASF147:
 3640 0020 68735F73 		.ascii	"hs_spicfg\000"
 3640      70696366 
 3640      6700
 3641              	.LASF137:
 3642 002a 6164635F 		.ascii	"adc_queue_buffer\000"
 3642      71756575 
 3642      655F6275 
 3642      66666572 
 3642      00
 3643              	.LASF64:
 3644 003b 4F757470 		.ascii	"OutputQueue\000"
 3644      75745175 
 3644      65756500 
 3645              	.LASF98:
 3646 0047 5350495F 		.ascii	"SPI_ACTIVE\000"
 3646      41435449 
 3646      564500
 3647              	.LASF145:
 3648 0052 7369676E 		.ascii	"signalMask\000"
 3648      616C4D61 
 3648      736B00
 3649              	.LASF93:
 3650 005d 696F706F 		.ascii	"ioportmask_t\000"
 3650      72746D61 
ARM GAS  C:\Users\z80\AppData\Local\Temp\ccmGcbDs.s 			page 68


 3650      736B5F74 
 3650      00
 3651              	.LASF131:
 3652 006a 70657269 		.ascii	"period\000"
 3652      6F6400
 3653              	.LASF111:
 3654 0071 73737061 		.ascii	"sspad\000"
 3654      6400
 3655              	.LASF150:
 3656 0077 73776565 		.ascii	"sweepDacsFrom\000"
 3656      70446163 
 3656      7346726F 
 3656      6D00
 3657              	.LASF152:
 3658 0085 73776565 		.ascii	"sweepPeriod\000"
 3658      70506572 
 3658      696F6400 
 3659              	.LASF76:
 3660 0091 43524350 		.ascii	"CRCPR\000"
 3660      5200
 3661              	.LASF50:
 3662 0097 65786974 		.ascii	"exitcode\000"
 3662      636F6465 
 3662      00
 3663              	.LASF91:
 3664 00a0 76656374 		.ascii	"vector\000"
 3664      6F7200
 3665              	.LASF101:
 3666 00a7 53504944 		.ascii	"SPIDriver\000"
 3666      72697665 
 3666      7200
 3667              	.LASF110:
 3668 00b1 7373706F 		.ascii	"ssport\000"
 3668      727400
 3669              	.LASF134:
 3670 00b8 49544D5F 		.ascii	"ITM_RxBuffer\000"
 3670      52784275 
 3670      66666572 
 3670      00
 3671              	.LASF125:
 3672 00c5 7365744F 		.ascii	"setOscPeriod\000"
 3672      73635065 
 3672      72696F64 
 3672      00
 3673              	.LASF146:
 3674 00d2 656C6170 		.ascii	"elapsed\000"
 3674      73656400 
 3675              	.LASF24:
 3676 00da 705F7072 		.ascii	"p_prio\000"
 3676      696F00
 3677              	.LASF127:
 3678 00e1 61646351 		.ascii	"adcQueue\000"
 3678      75657565 
 3678      00
 3679              	.LASF55:
 3680 00ea 715F7761 		.ascii	"q_waiting\000"
 3680      6974696E 
ARM GAS  C:\Users\z80\AppData\Local\Temp\ccmGcbDs.s 			page 69


 3680      6700
 3681              	.LASF12:
 3682 00f4 6C6F6E67 		.ascii	"long long int\000"
 3682      206C6F6E 
 3682      6720696E 
 3682      7400
 3683              	.LASF1:
 3684 0102 7369676E 		.ascii	"signed char\000"
 3684      65642063 
 3684      68617200 
 3685              	.LASF154:
 3686 010e 2E2F7372 		.ascii	"./src/adc_ctrl.c\000"
 3686      632F6164 
 3686      635F6374 
 3686      726C2E63 
 3686      00
 3687              	.LASF96:
 3688 011f 5350495F 		.ascii	"SPI_STOP\000"
 3688      53544F50 
 3688      00
 3689              	.LASF82:
 3690 0128 49325343 		.ascii	"I2SCFGR\000"
 3690      46475200 
 3691              	.LASF14:
 3692 0130 6C6F6E67 		.ascii	"long long unsigned int\000"
 3692      206C6F6E 
 3692      6720756E 
 3692      7369676E 
 3692      65642069 
 3693              	.LASF46:
 3694 0147 6D5F7175 		.ascii	"m_queue\000"
 3694      65756500 
 3695              	.LASF122:
 3696 014f 696E7374 		.ascii	"instantAdc\000"
 3696      616E7441 
 3696      646300
 3697              	.LASF140:
 3698 015a 73776565 		.ascii	"sweepCmdQueue\000"
 3698      70436D64 
 3698      51756575 
 3698      6500
 3699              	.LASF155:
 3700 0168 433A5C70 		.ascii	"C:\\projects\\digitizer.git\\firmware\\digitizer\000"
 3700      726F6A65 
 3700      6374735C 
 3700      64696769 
 3700      74697A65 
 3701              	.LASF143:
 3702 0195 61646349 		.ascii	"adcIndex\000"
 3702      6E646578 
 3702      00
 3703              	.LASF102:
 3704 019e 73746174 		.ascii	"state\000"
 3704      6500
 3705              	.LASF9:
 3706 01a4 6C6F6E67 		.ascii	"long int\000"
 3706      20696E74 
ARM GAS  C:\Users\z80\AppData\Local\Temp\ccmGcbDs.s 			page 70


 3706      00
 3707              	.LASF16:
 3708 01ad 74737461 		.ascii	"tstate_t\000"
 3708      74655F74 
 3708      00
 3709              	.LASF128:
 3710 01b6 73776565 		.ascii	"sweepData\000"
 3710      70446174 
 3710      6100
 3711              	.LASF151:
 3712 01c0 73776565 		.ascii	"sweepDacsTo\000"
 3712      70446163 
 3712      73546F00 
 3713              	.LASF57:
 3714 01cc 715F6275 		.ascii	"q_buffer\000"
 3714      66666572 
 3714      00
 3715              	.LASF59:
 3716 01d5 715F7772 		.ascii	"q_wrptr\000"
 3716      70747200 
 3717              	.LASF32:
 3718 01dd 705F7469 		.ascii	"p_time\000"
 3718      6D6500
 3719              	.LASF26:
 3720 01e4 705F6E65 		.ascii	"p_newer\000"
 3720      77657200 
 3721              	.LASF109:
 3722 01ec 656E645F 		.ascii	"end_cb\000"
 3722      636200
 3723              	.LASF106:
 3724 01f3 7278646D 		.ascii	"rxdmamode\000"
 3724      616D6F64 
 3724      6500
 3725              	.LASF126:
 3726 01fd 696E7465 		.ascii	"interval\000"
 3726      7276616C 
 3726      00
 3727              	.LASF124:
 3728 0206 6D61736B 		.ascii	"mask\000"
 3728      00
 3729              	.LASF41:
 3730 020b 72656761 		.ascii	"regarm_t\000"
 3730      726D5F74 
 3730      00
 3731              	.LASF90:
 3732 0214 73656C66 		.ascii	"selfindex\000"
 3732      696E6465 
 3732      7800
 3733              	.LASF108:
 3734 021e 73706963 		.ascii	"spicallback_t\000"
 3734      616C6C62 
 3734      61636B5F 
 3734      7400
 3735              	.LASF116:
 3736 022c 76616C75 		.ascii	"value\000"
 3736      6500
 3737              	.LASF114:
ARM GAS  C:\Users\z80\AppData\Local\Temp\ccmGcbDs.s 			page 71


 3738 0232 71756572 		.ascii	"queryAdcI\000"
 3738      79416463 
 3738      4900
 3739              	.LASF117:
 3740 023c 6F6E5370 		.ascii	"onSpiComplete\000"
 3740      69436F6D 
 3740      706C6574 
 3740      6500
 3741              	.LASF29:
 3742 024a 705F7374 		.ascii	"p_stklimit\000"
 3742      6B6C696D 
 3742      697400
 3743              	.LASF0:
 3744 0255 756E7369 		.ascii	"unsigned int\000"
 3744      676E6564 
 3744      20696E74 
 3744      00
 3745              	.LASF129:
 3746 0262 73657453 		.ascii	"setSweepOsc\000"
 3746      77656570 
 3746      4F736300 
 3747              	.LASF6:
 3748 026e 75696E74 		.ascii	"uint16_t\000"
 3748      31365F74 
 3748      00
 3749              	.LASF66:
 3750 0277 43504152 		.ascii	"CPAR\000"
 3750      00
 3751              	.LASF34:
 3752 027c 705F6D73 		.ascii	"p_msgqueue\000"
 3752      67717565 
 3752      756500
 3753              	.LASF71:
 3754 0287 4750494F 		.ascii	"GPIO_TypeDef\000"
 3754      5F547970 
 3754      65446566 
 3754      00
 3755              	.LASF70:
 3756 0294 4C434B52 		.ascii	"LCKR\000"
 3756      00
 3757              	.LASF89:
 3758 0299 69736869 		.ascii	"ishift\000"
 3758      667400
 3759              	.LASF7:
 3760 02a0 73686F72 		.ascii	"short unsigned int\000"
 3760      7420756E 
 3760      7369676E 
 3760      65642069 
 3760      6E7400
 3761              	.LASF18:
 3762 02b3 6D73675F 		.ascii	"msg_t\000"
 3762      7400
 3763              	.LASF115:
 3764 02b9 70726576 		.ascii	"prevIndex\000"
 3764      496E6465 
 3764      7800
 3765              	.LASF15:
ARM GAS  C:\Users\z80\AppData\Local\Temp\ccmGcbDs.s 			page 72


 3766 02c3 746D6F64 		.ascii	"tmode_t\000"
 3766      655F7400 
 3767              	.LASF148:
 3768 02cb 73776565 		.ascii	"sweepSigs\000"
 3768      70536967 
 3768      7300
 3769              	.LASF19:
 3770 02d5 6576656E 		.ascii	"eventmask_t\000"
 3770      746D6173 
 3770      6B5F7400 
 3771              	.LASF63:
 3772 02e1 496E7075 		.ascii	"InputQueue\000"
 3772      74517565 
 3772      756500
 3773              	.LASF133:
 3774 02ec 66726F6D 		.ascii	"from\000"
 3774      00
 3775              	.LASF62:
 3776 02f1 716E6F74 		.ascii	"qnotify_t\000"
 3776      6966795F 
 3776      7400
 3777              	.LASF54:
 3778 02fb 47656E65 		.ascii	"GenericQueue\000"
 3778      72696351 
 3778      75657565 
 3778      00
 3779              	.LASF42:
 3780 0308 73746B61 		.ascii	"stkalign_t\000"
 3780      6C69676E 
 3780      5F7400
 3781              	.LASF121:
 3782 0313 76616C73 		.ascii	"vals\000"
 3782      00
 3783              	.LASF21:
 3784 0318 54687265 		.ascii	"Thread\000"
 3784      616400
 3785              	.LASF113:
 3786 031f 696E6974 		.ascii	"initAdc\000"
 3786      41646300 
 3787              	.LASF84:
 3788 0327 49325350 		.ascii	"I2SPR\000"
 3788      5200
 3789              	.LASF56:
 3790 032d 715F636F 		.ascii	"q_counter\000"
 3790      756E7465 
 3790      7200
 3791              	.LASF45:
 3792 0337 4D757465 		.ascii	"Mutex\000"
 3792      7800
 3793              	.LASF13:
 3794 033d 75696E74 		.ascii	"uint64_t\000"
 3794      36345F74 
 3794      00
 3795              	.LASF27:
 3796 0346 705F6F6C 		.ascii	"p_older\000"
 3796      64657200 
 3797              	.LASF39:
ARM GAS  C:\Users\z80\AppData\Local\Temp\ccmGcbDs.s 			page 73


 3798 034e 54687265 		.ascii	"ThreadsQueue\000"
 3798      61647351 
 3798      75657565 
 3798      00
 3799              	.LASF107:
 3800 035b 7478646D 		.ascii	"txdmamode\000"
 3800      616D6F64 
 3800      6500
 3801              	.LASF118:
 3802 0365 73656C65 		.ascii	"selectAdcIndex\000"
 3802      63744164 
 3802      63496E64 
 3802      657800
 3803              	.LASF139:
 3804 0374 73776565 		.ascii	"sweep_queue_buffer\000"
 3804      705F7175 
 3804      6575655F 
 3804      62756666 
 3804      657200
 3805              	.LASF68:
 3806 0387 444D415F 		.ascii	"DMA_Channel_TypeDef\000"
 3806      4368616E 
 3806      6E656C5F 
 3806      54797065 
 3806      44656600 
 3807              	.LASF105:
 3808 039b 646D6174 		.ascii	"dmatx\000"
 3808      7800
 3809              	.LASF72:
 3810 03a1 52455345 		.ascii	"RESERVED0\000"
 3810      52564544 
 3810      3000
 3811              	.LASF73:
 3812 03ab 52455345 		.ascii	"RESERVED1\000"
 3812      52564544 
 3812      3100
 3813              	.LASF74:
 3814 03b5 52455345 		.ascii	"RESERVED2\000"
 3814      52564544 
 3814      3200
 3815              	.LASF75:
 3816 03bf 52455345 		.ascii	"RESERVED3\000"
 3816      52564544 
 3816      3300
 3817              	.LASF77:
 3818 03c9 52455345 		.ascii	"RESERVED4\000"
 3818      52564544 
 3818      3400
 3819              	.LASF23:
 3820 03d3 705F7072 		.ascii	"p_prev\000"
 3820      657600
 3821              	.LASF81:
 3822 03da 52455345 		.ascii	"RESERVED6\000"
 3822      52564544 
 3822      3600
 3823              	.LASF83:
 3824 03e4 52455345 		.ascii	"RESERVED7\000"
ARM GAS  C:\Users\z80\AppData\Local\Temp\ccmGcbDs.s 			page 74


 3824      52564544 
 3824      3700
 3825              	.LASF85:
 3826 03ee 52455345 		.ascii	"RESERVED8\000"
 3826      52564544 
 3826      3800
 3827              	.LASF17:
 3828 03f8 74707269 		.ascii	"tprio_t\000"
 3828      6F5F7400 
 3829              	.LASF60:
 3830 0400 715F7264 		.ascii	"q_rdptr\000"
 3830      70747200 
 3831              	.LASF141:
 3832 0408 73776565 		.ascii	"sweepCmdBuffer\000"
 3832      70436D64 
 3832      42756666 
 3832      657200
 3833              	.LASF8:
 3834 0417 696E7433 		.ascii	"int32_t\000"
 3834      325F7400 
 3835              	.LASF4:
 3836 041f 756E7369 		.ascii	"unsigned char\000"
 3836      676E6564 
 3836      20636861 
 3836      7200
 3837              	.LASF92:
 3838 042d 73746D33 		.ascii	"stm32_dma_stream_t\000"
 3838      325F646D 
 3838      615F7374 
 3838      7265616D 
 3838      5F7400
 3839              	.LASF135:
 3840 0440 53504944 		.ascii	"SPID1\000"
 3840      3100
 3841              	.LASF132:
 3842 0446 73657453 		.ascii	"setSweep\000"
 3842      77656570 
 3842      00
 3843              	.LASF136:
 3844 044f 6164635F 		.ascii	"adc_queue\000"
 3844      71756575 
 3844      6500
 3845              	.LASF37:
 3846 0459 705F6D74 		.ascii	"p_mtxlist\000"
 3846      786C6973 
 3846      7400
 3847              	.LASF5:
 3848 0463 73686F72 		.ascii	"short int\000"
 3848      7420696E 
 3848      7400
 3849              	.LASF30:
 3850 046d 705F7374 		.ascii	"p_state\000"
 3850      61746500 
 3851              	.LASF149:
 3852 0475 73776565 		.ascii	"sweepOscPeriod\000"
 3852      704F7363 
 3852      50657269 
ARM GAS  C:\Users\z80\AppData\Local\Temp\ccmGcbDs.s 			page 75


 3852      6F6400
 3853              	.LASF52:
 3854 0484 65776D61 		.ascii	"ewmask\000"
 3854      736B00
 3855              	.LASF22:
 3856 048b 705F6E65 		.ascii	"p_next\000"
 3856      787400
 3857              	.LASF31:
 3858 0492 705F666C 		.ascii	"p_flags\000"
 3858      61677300 
 3859              	.LASF142:
 3860 049a 6164635F 		.ascii	"adc_rx_buffer\000"
 3860      72785F62 
 3860      75666665 
 3860      7200
 3861              	.LASF87:
 3862 04a8 6368616E 		.ascii	"channel\000"
 3862      6E656C00 
 3863              	.LASF123:
 3864 04b0 7365744F 		.ascii	"setOscSignals\000"
 3864      73635369 
 3864      676E616C 
 3864      7300
 3865              	.LASF36:
 3866 04be 705F6570 		.ascii	"p_epending\000"
 3866      656E6469 
 3866      6E6700
 3867              	.LASF88:
 3868 04c9 69666372 		.ascii	"ifcr\000"
 3868      00
 3869              	.LASF79:
 3870 04ce 52455345 		.ascii	"RESERVED5\000"
 3870      52564544 
 3870      3500
 3871              	.LASF10:
 3872 04d8 75696E74 		.ascii	"uint32_t\000"
 3872      33325F74 
 3872      00
 3873              	.LASF144:
 3874 04e1 696E7374 		.ascii	"instantAdcData\000"
 3874      616E7441 
 3874      64634461 
 3874      746100
 3875              	.LASF78:
 3876 04f0 52584352 		.ascii	"RXCRCR\000"
 3876      435200
 3877              	.LASF11:
 3878 04f7 6C6F6E67 		.ascii	"long unsigned int\000"
 3878      20756E73 
 3878      69676E65 
 3878      6420696E 
 3878      7400
 3879              	.LASF86:
 3880 0509 5350495F 		.ascii	"SPI_TypeDef\000"
 3880      54797065 
 3880      44656600 
 3881              	.LASF53:
ARM GAS  C:\Users\z80\AppData\Local\Temp\ccmGcbDs.s 			page 76


 3882 0515 63686172 		.ascii	"char\000"
 3882      00
 3883              	.LASF99:
 3884 051a 5350495F 		.ascii	"SPI_COMPLETE\000"
 3884      434F4D50 
 3884      4C455445 
 3884      00
 3885              	.LASF103:
 3886 0527 636F6E66 		.ascii	"config\000"
 3886      696700
 3887              	.LASF80:
 3888 052e 54584352 		.ascii	"TXCRCR\000"
 3888      435200
 3889              	.LASF120:
 3890 0535 696E6465 		.ascii	"index\000"
 3890      7800
 3891              	.LASF100:
 3892 053b 73706973 		.ascii	"spistate_t\000"
 3892      74617465 
 3892      5F7400
 3893              	.LASF48:
 3894 0546 6D5F6E65 		.ascii	"m_next\000"
 3894      787400
 3895              	.LASF20:
 3896 054d 73797374 		.ascii	"systime_t\000"
 3896      696D655F 
 3896      7400
 3897              	.LASF38:
 3898 0557 705F7265 		.ascii	"p_realprio\000"
 3898      616C7072 
 3898      696F00
 3899              	.LASF94:
 3900 0562 696F706F 		.ascii	"ioportid_t\000"
 3900      72746964 
 3900      5F7400
 3901              	.LASF44:
 3902 056d 636F6E74 		.ascii	"context\000"
 3902      65787400 
 3903              	.LASF43:
 3904 0575 696E7463 		.ascii	"intctx\000"
 3904      747800
 3905              	.LASF97:
 3906 057c 5350495F 		.ascii	"SPI_READY\000"
 3906      52454144 
 3906      5900
 3907              	.LASF95:
 3908 0586 5350495F 		.ascii	"SPI_UNINIT\000"
 3908      554E494E 
 3908      495400
 3909              	.LASF138:
 3910 0591 73776565 		.ascii	"sweep_queue\000"
 3910      705F7175 
 3910      65756500 
 3911              	.LASF58:
 3912 059d 715F746F 		.ascii	"q_top\000"
 3912      7000
 3913              	.LASF69:
ARM GAS  C:\Users\z80\AppData\Local\Temp\ccmGcbDs.s 			page 77


 3914 05a3 42535252 		.ascii	"BSRR\000"
 3914      00
 3915              	.LASF119:
 3916 05a8 73706964 		.ascii	"spid\000"
 3916      00
 3917              	.LASF65:
 3918 05ad 434E4454 		.ascii	"CNDTR\000"
 3918      5200
 3919              	.LASF67:
 3920 05b3 434D4152 		.ascii	"CMAR\000"
 3920      00
 3921              	.LASF61:
 3922 05b8 715F6E6F 		.ascii	"q_notify\000"
 3922      74696679 
 3922      00
 3923              	.LASF3:
 3924 05c1 75696E74 		.ascii	"uint8_t\000"
 3924      385F7400 
 3925              	.LASF130:
 3926 05c9 73696773 		.ascii	"sigs\000"
 3926      00
 3927              	.LASF153:
 3928 05ce 474E5520 		.ascii	"GNU C 4.5.0\000"
 3928      4320342E 
 3928      352E3000 
 3929              	.LASF51:
 3930 05da 77746F62 		.ascii	"wtobjp\000"
 3930      6A7000
 3931              	.LASF28:
 3932 05e1 705F6E61 		.ascii	"p_name\000"
 3932      6D6500
 3933              	.LASF112:
 3934 05e8 53504943 		.ascii	"SPIConfig\000"
 3934      6F6E6669 
 3934      6700
 3935              	.LASF35:
 3936 05f2 705F6D73 		.ascii	"p_msg\000"
 3936      6700
 3937              	.LASF47:
 3938 05f8 6D5F6F77 		.ascii	"m_owner\000"
 3938      6E657200 
 3939              	.LASF25:
 3940 0600 705F6374 		.ascii	"p_ctx\000"
 3940      7800
 3941              	.LASF33:
 3942 0606 705F7761 		.ascii	"p_waiting\000"
 3942      6974696E 
 3942      6700
 3943              		.ident	"GCC: (GNU) 4.5.0"
ARM GAS  C:\Users\z80\AppData\Local\Temp\ccmGcbDs.s 			page 78


DEFINED SYMBOLS
                            *ABS*:00000000 adc_ctrl.c
C:\Users\z80\AppData\Local\Temp\ccmGcbDs.s:28     .bss.adc_queue:00000000 adc_queue
C:\Users\z80\AppData\Local\Temp\ccmGcbDs.s:25     .bss.adc_queue:00000000 $d
C:\Users\z80\AppData\Local\Temp\ccmGcbDs.s:35     .bss.adc_queue_buffer:00000000 adc_queue_buffer
C:\Users\z80\AppData\Local\Temp\ccmGcbDs.s:32     .bss.adc_queue_buffer:00000000 $d
C:\Users\z80\AppData\Local\Temp\ccmGcbDs.s:42     .bss.sweep_queue:00000000 sweep_queue
C:\Users\z80\AppData\Local\Temp\ccmGcbDs.s:39     .bss.sweep_queue:00000000 $d
C:\Users\z80\AppData\Local\Temp\ccmGcbDs.s:49     .bss.sweep_queue_buffer:00000000 sweep_queue_buffer
C:\Users\z80\AppData\Local\Temp\ccmGcbDs.s:46     .bss.sweep_queue_buffer:00000000 $d
C:\Users\z80\AppData\Local\Temp\ccmGcbDs.s:56     .bss.sweepCmdQueue:00000000 sweepCmdQueue
C:\Users\z80\AppData\Local\Temp\ccmGcbDs.s:53     .bss.sweepCmdQueue:00000000 $d
C:\Users\z80\AppData\Local\Temp\ccmGcbDs.s:63     .bss.sweepCmdBuffer:00000000 sweepCmdBuffer
C:\Users\z80\AppData\Local\Temp\ccmGcbDs.s:60     .bss.sweepCmdBuffer:00000000 $d
C:\Users\z80\AppData\Local\Temp\ccmGcbDs.s:70     .bss.adc_rx_buffer:00000000 adc_rx_buffer
C:\Users\z80\AppData\Local\Temp\ccmGcbDs.s:67     .bss.adc_rx_buffer:00000000 $d
C:\Users\z80\AppData\Local\Temp\ccmGcbDs.s:73     .bss.adcIndex:00000000 $d
C:\Users\z80\AppData\Local\Temp\ccmGcbDs.s:76     .bss.adcIndex:00000000 adcIndex
C:\Users\z80\AppData\Local\Temp\ccmGcbDs.s:79     .data.instantAdcData:00000000 $d
C:\Users\z80\AppData\Local\Temp\ccmGcbDs.s:82     .data.instantAdcData:00000000 instantAdcData
C:\Users\z80\AppData\Local\Temp\ccmGcbDs.s:92     .data.signalMask:00000000 signalMask
C:\Users\z80\AppData\Local\Temp\ccmGcbDs.s:89     .data.signalMask:00000000 $d
C:\Users\z80\AppData\Local\Temp\ccmGcbDs.s:99     .data.period:00000000 period
C:\Users\z80\AppData\Local\Temp\ccmGcbDs.s:96     .data.period:00000000 $d
C:\Users\z80\AppData\Local\Temp\ccmGcbDs.s:106    .bss.elapsed:00000000 elapsed
C:\Users\z80\AppData\Local\Temp\ccmGcbDs.s:103    .bss.elapsed:00000000 $d
C:\Users\z80\AppData\Local\Temp\ccmGcbDs.s:109    .rodata.hs_spicfg:00000000 $d
C:\Users\z80\AppData\Local\Temp\ccmGcbDs.s:112    .rodata.hs_spicfg:00000000 hs_spicfg
C:\Users\z80\AppData\Local\Temp\ccmGcbDs.s:256    .text.onSpiComplete:00000000 onSpiComplete
C:\Users\z80\AppData\Local\Temp\ccmGcbDs.s:118    .text.initAdc:00000000 $t
C:\Users\z80\AppData\Local\Temp\ccmGcbDs.s:124    .text.initAdc:00000000 initAdc
C:\Users\z80\AppData\Local\Temp\ccmGcbDs.s:603    .text.selectAdcIndex:00000000 selectAdcIndex
C:\Users\z80\AppData\Local\Temp\ccmGcbDs.s:213    .text.queryAdcI:00000000 $t
C:\Users\z80\AppData\Local\Temp\ccmGcbDs.s:219    .text.queryAdcI:00000000 queryAdcI
C:\Users\z80\AppData\Local\Temp\ccmGcbDs.s:251    .text.onSpiComplete:00000000 $t
C:\Users\z80\AppData\Local\Temp\ccmGcbDs.s:575    .text.adcQueue:00000000 $t
C:\Users\z80\AppData\Local\Temp\ccmGcbDs.s:581    .text.adcQueue:00000000 adcQueue
C:\Users\z80\AppData\Local\Temp\ccmGcbDs.s:598    .text.selectAdcIndex:00000000 $t
C:\Users\z80\AppData\Local\Temp\ccmGcbDs.s:658    .text.instantAdc:00000000 $t
C:\Users\z80\AppData\Local\Temp\ccmGcbDs.s:664    .text.instantAdc:00000000 instantAdc
C:\Users\z80\AppData\Local\Temp\ccmGcbDs.s:735    .text.setOscSignals:00000000 $t
C:\Users\z80\AppData\Local\Temp\ccmGcbDs.s:741    .text.setOscSignals:00000000 setOscSignals
C:\Users\z80\AppData\Local\Temp\ccmGcbDs.s:785    .text.setOscPeriod:00000000 $t
C:\Users\z80\AppData\Local\Temp\ccmGcbDs.s:791    .text.setOscPeriod:00000000 setOscPeriod
C:\Users\z80\AppData\Local\Temp\ccmGcbDs.s:835    .text.sweepData:00000000 $t
C:\Users\z80\AppData\Local\Temp\ccmGcbDs.s:841    .text.sweepData:00000000 sweepData
C:\Users\z80\AppData\Local\Temp\ccmGcbDs.s:860    .data.sweepSigs:00000000 sweepSigs
C:\Users\z80\AppData\Local\Temp\ccmGcbDs.s:863    .data.sweepOscPeriod:00000000 $d
C:\Users\z80\AppData\Local\Temp\ccmGcbDs.s:866    .data.sweepOscPeriod:00000000 sweepOscPeriod
C:\Users\z80\AppData\Local\Temp\ccmGcbDs.s:869    .text.setSweepOsc:00000000 $t
C:\Users\z80\AppData\Local\Temp\ccmGcbDs.s:875    .text.setSweepOsc:00000000 setSweepOsc
C:\Users\z80\AppData\Local\Temp\ccmGcbDs.s:905    .bss.sweepDacsFrom:00000000 $d
C:\Users\z80\AppData\Local\Temp\ccmGcbDs.s:908    .bss.sweepDacsFrom:00000000 sweepDacsFrom
C:\Users\z80\AppData\Local\Temp\ccmGcbDs.s:911    .bss.sweepDacsTo:00000000 $d
C:\Users\z80\AppData\Local\Temp\ccmGcbDs.s:914    .bss.sweepDacsTo:00000000 sweepDacsTo
C:\Users\z80\AppData\Local\Temp\ccmGcbDs.s:917    .data.sweepPeriod:00000000 $d
C:\Users\z80\AppData\Local\Temp\ccmGcbDs.s:920    .data.sweepPeriod:00000000 sweepPeriod
ARM GAS  C:\Users\z80\AppData\Local\Temp\ccmGcbDs.s 			page 79


C:\Users\z80\AppData\Local\Temp\ccmGcbDs.s:923    .text.setSweep:00000000 $t
C:\Users\z80\AppData\Local\Temp\ccmGcbDs.s:929    .text.setSweep:00000000 setSweep
                     .debug_frame:00000010 $d

UNDEFINED SYMBOLS
chIQInit
chOQInit
_pal_lld_setgroupmode
SPID1
spiStart
spi_lld_select
spi_lld_receive
dbg_check_lock_from_isr
spi_lld_unselect
chIQPutI
dbg_check_unlock_from_isr
dbg_check_lock
dbg_check_unlock
chOQPutTimeout
