ARM GAS  C:\Users\z80\AppData\Local\Temp\ccoVIiZT.s 			page 1


   1              		.syntax unified
   2              		.cpu cortex-m3
   3              		.fpu softvfp
   4              		.eabi_attribute 20, 1
   5              		.eabi_attribute 21, 1
   6              		.eabi_attribute 23, 3
   7              		.eabi_attribute 24, 1
   8              		.eabi_attribute 25, 1
   9              		.eabi_attribute 26, 1
  10              		.eabi_attribute 30, 6
  11              		.eabi_attribute 34, 1
  12              		.eabi_attribute 18, 4
  13              		.thumb
  14              		.file	"adc_ctrl.c"
  15              		.text
  16              	.Ltext0:
  17              		.cfi_sections	.debug_frame
  18              		.global	adc_queue
  19              		.section	.bss.adc_queue,"aw",%nobits
  20              		.align	2
  21              		.type	adc_queue, %object
  22              		.size	adc_queue, 32
  23              	adc_queue:
  24 0000 00000000 		.space	32
  24      00000000 
  24      00000000 
  24      00000000 
  24      00000000 
  25              		.global	adc_queue_buffer
  26              		.section	.bss.adc_queue_buffer,"aw",%nobits
  27              		.align	2
  28              		.type	adc_queue_buffer, %object
  29              		.size	adc_queue_buffer, 320
  30              	adc_queue_buffer:
  31 0000 00000000 		.space	320
  31      00000000 
  31      00000000 
  31      00000000 
  31      00000000 
  32              		.global	adc_rx_buffer
  33              		.section	.bss.adc_rx_buffer,"aw",%nobits
  34              		.align	2
  35              		.type	adc_rx_buffer, %object
  36              		.size	adc_rx_buffer, 4
  37              	adc_rx_buffer:
  38 0000 00000000 		.space	4
  39              		.section	.bss.adcIndex,"aw",%nobits
  40              		.align	2
  41              		.type	adcIndex, %object
  42              		.size	adcIndex, 4
  43              	adcIndex:
  44 0000 00000000 		.space	4
  45              		.section	.data.instantAdcData,"aw",%progbits
  46              		.align	2
  47              		.type	instantAdcData, %object
  48              		.size	instantAdcData, 16
  49              	instantAdcData:
ARM GAS  C:\Users\z80\AppData\Local\Temp\ccoVIiZT.s 			page 2


  50 0000 FFFFFFFF 		.word	-1
  51 0004 FFFFFFFF 		.word	-1
  52 0008 FFFFFFFF 		.word	-1
  53 000c FFFFFFFF 		.word	-1
  54              		.global	signalMask
  55              		.section	.data.signalMask,"aw",%progbits
  56              		.align	2
  57              		.type	signalMask, %object
  58              		.size	signalMask, 4
  59              	signalMask:
  60 0000 0F000000 		.word	15
  61              		.global	period
  62              		.section	.data.period,"aw",%progbits
  63              		.align	2
  64              		.type	period, %object
  65              		.size	period, 4
  66              	period:
  67 0000 05000000 		.word	5
  68              		.global	elapsed
  69              		.section	.bss.elapsed,"aw",%nobits
  70              		.align	2
  71              		.type	elapsed, %object
  72              		.size	elapsed, 4
  73              	elapsed:
  74 0000 00000000 		.space	4
  75              		.section	.rodata.hs_spicfg,"a",%progbits
  76              		.align	2
  77              		.type	hs_spicfg, %object
  78              		.size	hs_spicfg, 12
  79              	hs_spicfg:
  80 0000 00000000 		.word	onSpiComplete
  81 0004 00080140 		.word	1073809408
  82 0008 0400     		.short	4
  83 000a 1200     		.short	18
  84              		.section	.text.initAdc,"ax",%progbits
  85              		.align	2
  86              		.p2align 4,,15
  87              		.global	initAdc
  88              		.thumb
  89              		.thumb_func
  90              		.type	initAdc, %function
  91              	initAdc:
  92              	.LFB62:
  93              		.file 1 "./src/adc_ctrl.c"
  94              		.loc 1 45 0
  95              		.cfi_startproc
  96              		@ args = 0, pretend = 0, frame = 0
  97              		@ frame_needed = 0, uses_anonymous_args = 0
  98 0000 08B5     		push	{r3, lr}
  99              	.LCFI0:
 100              		.cfi_def_cfa_offset 8
 101              		.cfi_offset 14, -4
 102              		.cfi_offset 3, -8
 103              		.loc 1 46 0
 104 0002 4FF44060 		mov	r0, #3072
 105 0006 C4F20100 		movt	r0, 16385
 106 000a 4FF48071 		mov	r1, #256
ARM GAS  C:\Users\z80\AppData\Local\Temp\ccoVIiZT.s 			page 3


 107 000e 4FF00602 		mov	r2, #6
 108 0012 FFF7FEFF 		bl	_pal_lld_setgroupmode
 109              		.loc 1 48 0
 110 0016 40F20000 		movw	r0, #:lower16:adc_queue
 111 001a C0F20000 		movt	r0, #:upper16:adc_queue
 112 001e 40F20001 		movw	r1, #:lower16:adc_queue_buffer
 113 0022 C0F20001 		movt	r1, #:upper16:adc_queue_buffer
 114 0026 4FF4A072 		mov	r2, #320
 115 002a 4FF00003 		mov	r3, #0
 116 002e FFF7FEFF 		bl	chIQInit
 117              		.loc 1 50 0
 118 0032 4FF40060 		mov	r0, #2048
 119 0036 C4F20100 		movt	r0, 16385
 120 003a 4FF00101 		mov	r1, #1
 121 003e 4FF00602 		mov	r2, #6
 122 0042 FFF7FEFF 		bl	_pal_lld_setgroupmode
 123              		.loc 1 51 0
 124 0046 4FF40060 		mov	r0, #2048
 125 004a C4F20100 		movt	r0, 16385
 126 004e 4FF00201 		mov	r1, #2
 127 0052 4FF00602 		mov	r2, #6
 128 0056 FFF7FEFF 		bl	_pal_lld_setgroupmode
 129              		.loc 1 53 0
 130 005a 4FF40060 		mov	r0, #2048
 131 005e C4F20100 		movt	r0, 16385
 132 0062 4FF02001 		mov	r1, #32
 133 0066 4FF01002 		mov	r2, #16
 134 006a FFF7FEFF 		bl	_pal_lld_setgroupmode
 135              		.loc 1 54 0
 136 006e 4FF40060 		mov	r0, #2048
 137 0072 C4F20100 		movt	r0, 16385
 138 0076 4FF04001 		mov	r1, #64
 139 007a 4FF01002 		mov	r2, #16
 140 007e FFF7FEFF 		bl	_pal_lld_setgroupmode
 141              		.loc 1 55 0
 142 0082 4FF40060 		mov	r0, #2048
 143 0086 C4F20100 		movt	r0, 16385
 144 008a 4FF01001 		mov	r1, #16
 145 008e 4FF00602 		mov	r2, #6
 146 0092 FFF7FEFF 		bl	_pal_lld_setgroupmode
 147              		.loc 1 56 0
 148 0096 4FF40063 		mov	r3, #2048
 149 009a C4F20103 		movt	r3, 16385
 150 009e 4FF01002 		mov	r2, #16
 151 00a2 1A61     		str	r2, [r3, #16]
 152              		.loc 1 58 0
 153 00a4 40F20003 		movw	r3, #:lower16:adcIndex
 154 00a8 C0F20003 		movt	r3, #:upper16:adcIndex
 155 00ac 1B68     		ldr	r3, [r3, #0]
 156 00ae 1846     		mov	r0, r3
 157 00b0 FFF7FEFF 		bl	selectAdcIndex
 158              		.loc 1 60 0
 159 00b4 40F20000 		movw	r0, #:lower16:SPID1
 160 00b8 C0F20000 		movt	r0, #:upper16:SPID1
 161 00bc 40F20001 		movw	r1, #:lower16:hs_spicfg
 162 00c0 C0F20001 		movt	r1, #:upper16:hs_spicfg
 163 00c4 FFF7FEFF 		bl	spiStart
ARM GAS  C:\Users\z80\AppData\Local\Temp\ccoVIiZT.s 			page 4


 164              		.loc 1 61 0
 165 00c8 08BD     		pop	{r3, pc}
 166              		.cfi_endproc
 167              	.LFE62:
 168              		.size	initAdc, .-initAdc
 169 00ca 00BFAFF3 		.section	.text.queryAdcI,"ax",%progbits
 169      0080
 170              		.align	2
 171              		.p2align 4,,15
 172              		.global	queryAdcI
 173              		.thumb
 174              		.thumb_func
 175              		.type	queryAdcI, %function
 176              	queryAdcI:
 177              	.LFB63:
 178              		.loc 1 64 0
 179              		.cfi_startproc
 180              		@ args = 0, pretend = 0, frame = 0
 181              		@ frame_needed = 0, uses_anonymous_args = 0
 182 0000 08B5     		push	{r3, lr}
 183              	.LCFI1:
 184              		.cfi_def_cfa_offset 8
 185              		.cfi_offset 14, -4
 186              		.cfi_offset 3, -8
 187              		.loc 1 65 0
 188 0002 40F20000 		movw	r0, #:lower16:SPID1
 189 0006 C0F20000 		movt	r0, #:upper16:SPID1
 190 000a FFF7FEFF 		bl	spi_lld_select
 191              		.loc 1 66 0
 192 000e 40F20003 		movw	r3, #:lower16:SPID1
 193 0012 C0F20003 		movt	r3, #:upper16:SPID1
 194 0016 4FF00302 		mov	r2, #3
 195 001a 1A70     		strb	r2, [r3, #0]
 196 001c 40F20000 		movw	r0, #:lower16:SPID1
 197 0020 C0F20000 		movt	r0, #:upper16:SPID1
 198 0024 4FF00301 		mov	r1, #3
 199 0028 40F20002 		movw	r2, #:lower16:adc_rx_buffer
 200 002c C0F20002 		movt	r2, #:upper16:adc_rx_buffer
 201 0030 FFF7FEFF 		bl	spi_lld_receive
 202              		.loc 1 70 0
 203 0034 08BD     		pop	{r3, pc}
 204              		.cfi_endproc
 205              	.LFE63:
 206              		.size	queryAdcI, .-queryAdcI
 207 0036 00BFAFF3 		.section	.text.onSpiComplete,"ax",%progbits
 207      0080AFF3 
 207      0080
 208              		.align	2
 209              		.p2align 4,,15
 210              		.thumb
 211              		.thumb_func
 212              		.type	onSpiComplete, %function
 213              	onSpiComplete:
 214              	.LFB64:
 215              		.loc 1 73 0
 216              		.cfi_startproc
 217              		@ args = 0, pretend = 0, frame = 24
ARM GAS  C:\Users\z80\AppData\Local\Temp\ccoVIiZT.s 			page 5


 218              		@ frame_needed = 0, uses_anonymous_args = 0
 219 0000 00B5     		push	{lr}
 220              	.LCFI2:
 221              		.cfi_def_cfa_offset 4
 222              		.cfi_offset 14, -4
 223 0002 87B0     		sub	sp, sp, #28
 224              	.LCFI3:
 225              		.cfi_def_cfa_offset 32
 226 0004 0190     		str	r0, [sp, #4]
 227              		.loc 1 75 0
 228 0006 4FF44063 		mov	r3, #3072
 229 000a C4F20103 		movt	r3, 16385
 230 000e 4FF48072 		mov	r2, #256
 231 0012 1A61     		str	r2, [r3, #16]
 232              	.LBB2:
 233              		.loc 1 76 0
 234 0014 4FF02003 		mov	r3, #32
 235              	@ 76 "./src/adc_ctrl.c" 1
 236 0018 83F31188 		msr     BASEPRI, r3
 237              	@ 0 "" 2
 238              		.thumb
 239              	.LBE2:
 240 001c FFF7FEFF 		bl	dbg_check_lock_from_isr
 241              		.loc 1 78 0
 242 0020 40F20003 		movw	r3, #:lower16:adcIndex
 243 0024 C0F20003 		movt	r3, #:upper16:adcIndex
 244 0028 1B68     		ldr	r3, [r3, #0]
 245 002a 0593     		str	r3, [sp, #20]
 246              		.loc 1 79 0
 247 002c 40F20003 		movw	r3, #:lower16:adcIndex
 248 0030 C0F20003 		movt	r3, #:upper16:adcIndex
 249 0034 1B68     		ldr	r3, [r3, #0]
 250 0036 03F10102 		add	r2, r3, #1
 251 003a 4FEAE273 		asr	r3, r2, #31
 252 003e 4FEA9373 		lsr	r3, r3, #30
 253 0042 D218     		adds	r2, r2, r3
 254 0044 02F00302 		and	r2, r2, #3
 255 0048 D31A     		subs	r3, r2, r3
 256 004a 1A46     		mov	r2, r3
 257 004c 40F20003 		movw	r3, #:lower16:adcIndex
 258 0050 C0F20003 		movt	r3, #:upper16:adcIndex
 259 0054 1A60     		str	r2, [r3, #0]
 260              		.loc 1 80 0
 261 0056 40F20003 		movw	r3, #:lower16:adcIndex
 262 005a C0F20003 		movt	r3, #:upper16:adcIndex
 263 005e 1B68     		ldr	r3, [r3, #0]
 264 0060 1846     		mov	r0, r3
 265 0062 FFF7FEFF 		bl	selectAdcIndex
 266              		.loc 1 82 0
 267 0066 40F20000 		movw	r0, #:lower16:SPID1
 268 006a C0F20000 		movt	r0, #:upper16:SPID1
 269 006e FFF7FEFF 		bl	spi_lld_unselect
 270              		.loc 1 84 0
 271 0072 40F20003 		movw	r3, #:lower16:adc_rx_buffer
 272 0076 C0F20003 		movt	r3, #:upper16:adc_rx_buffer
 273 007a 9B78     		ldrb	r3, [r3, #2]	@ zero_extendqisi2
 274 007c 1A46     		mov	r2, r3
ARM GAS  C:\Users\z80\AppData\Local\Temp\ccoVIiZT.s 			page 6


 275              		.loc 1 85 0
 276 007e 40F20003 		movw	r3, #:lower16:adc_rx_buffer
 277 0082 C0F20003 		movt	r3, #:upper16:adc_rx_buffer
 278 0086 5B78     		ldrb	r3, [r3, #1]	@ zero_extendqisi2
 279 0088 4FEA0323 		lsl	r3, r3, #8
 280              		.loc 1 84 0
 281 008c D218     		adds	r2, r2, r3
 282              		.loc 1 86 0
 283 008e 40F20003 		movw	r3, #:lower16:adc_rx_buffer
 284 0092 C0F20003 		movt	r3, #:upper16:adc_rx_buffer
 285 0096 1B78     		ldrb	r3, [r3, #0]	@ zero_extendqisi2
 286 0098 4FEA0343 		lsl	r3, r3, #16
 287              		.loc 1 84 0
 288 009c D318     		adds	r3, r2, r3
 289 009e 0493     		str	r3, [sp, #16]
 290              		.loc 1 87 0
 291 00a0 049B     		ldr	r3, [sp, #16]
 292 00a2 4FEA6303 		asr	r3, r3, #1
 293 00a6 4FEA0343 		lsl	r3, r3, #16
 294 00aa 4FEA1343 		lsr	r3, r3, #16
 295 00ae 0493     		str	r3, [sp, #16]
 296              		.loc 1 89 0
 297 00b0 059B     		ldr	r3, [sp, #20]
 298 00b2 DBB2     		uxtb	r3, r3
 299 00b4 1846     		mov	r0, r3
 300 00b6 0499     		ldr	r1, [sp, #16]
 301 00b8 FFF7FEFF 		bl	filterAdc
 302              		.loc 1 96 0
 303 00bc 059B     		ldr	r3, [sp, #20]
 304 00be 032B     		cmp	r3, #3
 305 00c0 40F0F780 		bne	.L4
 306              		.loc 1 98 0
 307 00c4 40F20003 		movw	r3, #:lower16:elapsed
 308 00c8 C0F20003 		movt	r3, #:upper16:elapsed
 309 00cc 1B68     		ldr	r3, [r3, #0]
 310 00ce 03F10102 		add	r2, r3, #1
 311 00d2 40F20003 		movw	r3, #:lower16:elapsed
 312 00d6 C0F20003 		movt	r3, #:upper16:elapsed
 313 00da 1A60     		str	r2, [r3, #0]
 314              		.loc 1 99 0
 315 00dc 40F20003 		movw	r3, #:lower16:elapsed
 316 00e0 C0F20003 		movt	r3, #:upper16:elapsed
 317 00e4 1A68     		ldr	r2, [r3, #0]
 318 00e6 40F20003 		movw	r3, #:lower16:period
 319 00ea C0F20003 		movt	r3, #:upper16:period
 320 00ee 1B68     		ldr	r3, [r3, #0]
 321 00f0 9A42     		cmp	r2, r3
 322 00f2 C0F2DE80 		blt	.L4
 323              		.loc 1 101 0
 324 00f6 40F20003 		movw	r3, #:lower16:elapsed
 325 00fa C0F20003 		movt	r3, #:upper16:elapsed
 326 00fe 1A68     		ldr	r2, [r3, #0]
 327 0100 40F20003 		movw	r3, #:lower16:period
 328 0104 C0F20003 		movt	r3, #:upper16:period
 329 0108 1B68     		ldr	r3, [r3, #0]
 330 010a D21A     		subs	r2, r2, r3
 331 010c 40F20003 		movw	r3, #:lower16:elapsed
ARM GAS  C:\Users\z80\AppData\Local\Temp\ccoVIiZT.s 			page 7


 332 0110 C0F20003 		movt	r3, #:upper16:elapsed
 333 0114 1A60     		str	r2, [r3, #0]
 334              		.loc 1 102 0
 335 0116 40F20003 		movw	r3, #:lower16:adc_queue
 336 011a C0F20003 		movt	r3, #:upper16:adc_queue
 337 011e 1B69     		ldr	r3, [r3, #16]
 338 0120 1A46     		mov	r2, r3
 339 0122 40F20003 		movw	r3, #:lower16:adc_queue
 340 0126 C0F20003 		movt	r3, #:upper16:adc_queue
 341 012a DB68     		ldr	r3, [r3, #12]
 342 012c D31A     		subs	r3, r2, r3
 343 012e 1A46     		mov	r2, r3
 344 0130 40F20003 		movw	r3, #:lower16:adc_queue
 345 0134 C0F20003 		movt	r3, #:upper16:adc_queue
 346 0138 9B68     		ldr	r3, [r3, #8]
 347 013a D31A     		subs	r3, r2, r3
 348 013c 0B2B     		cmp	r3, #11
 349 013e 40F2B880 		bls	.L4
 350              	.LBB3:
 351              		.loc 1 110 0
 352 0142 40F20003 		movw	r3, #:lower16:instantAdcData
 353 0146 C0F20003 		movt	r3, #:upper16:instantAdcData
 354 014a 1B68     		ldr	r3, [r3, #0]
 355 014c 0493     		str	r3, [sp, #16]
 356              		.loc 1 111 0
 357 014e 049B     		ldr	r3, [sp, #16]
 358 0150 8DF80F30 		strb	r3, [sp, #15]
 359              		.loc 1 112 0
 360 0154 9DF80F30 		ldrb	r3, [sp, #15]	@ zero_extendqisi2
 361 0158 40F20000 		movw	r0, #:lower16:adc_queue
 362 015c C0F20000 		movt	r0, #:upper16:adc_queue
 363 0160 1946     		mov	r1, r3
 364 0162 FFF7FEFF 		bl	chIQPutI
 365              		.loc 1 114 0
 366 0166 049B     		ldr	r3, [sp, #16]
 367 0168 4FEA2323 		asr	r3, r3, #8
 368 016c 8DF80F30 		strb	r3, [sp, #15]
 369              		.loc 1 115 0
 370 0170 9DF80F30 		ldrb	r3, [sp, #15]	@ zero_extendqisi2
 371 0174 40F20000 		movw	r0, #:lower16:adc_queue
 372 0178 C0F20000 		movt	r0, #:upper16:adc_queue
 373 017c 1946     		mov	r1, r3
 374 017e FFF7FEFF 		bl	chIQPutI
 375              		.loc 1 117 0
 376 0182 049B     		ldr	r3, [sp, #16]
 377 0184 4FEA2343 		asr	r3, r3, #16
 378 0188 8DF80F30 		strb	r3, [sp, #15]
 379              		.loc 1 118 0
 380 018c 9DF80F30 		ldrb	r3, [sp, #15]	@ zero_extendqisi2
 381 0190 40F20000 		movw	r0, #:lower16:adc_queue
 382 0194 C0F20000 		movt	r0, #:upper16:adc_queue
 383 0198 1946     		mov	r1, r3
 384 019a FFF7FEFF 		bl	chIQPutI
 385              		.loc 1 122 0
 386 019e 40F20003 		movw	r3, #:lower16:instantAdcData
 387 01a2 C0F20003 		movt	r3, #:upper16:instantAdcData
 388 01a6 5B68     		ldr	r3, [r3, #4]
ARM GAS  C:\Users\z80\AppData\Local\Temp\ccoVIiZT.s 			page 8


 389 01a8 0493     		str	r3, [sp, #16]
 390              		.loc 1 123 0
 391 01aa 049B     		ldr	r3, [sp, #16]
 392 01ac 8DF80F30 		strb	r3, [sp, #15]
 393              		.loc 1 124 0
 394 01b0 9DF80F30 		ldrb	r3, [sp, #15]	@ zero_extendqisi2
 395 01b4 40F20000 		movw	r0, #:lower16:adc_queue
 396 01b8 C0F20000 		movt	r0, #:upper16:adc_queue
 397 01bc 1946     		mov	r1, r3
 398 01be FFF7FEFF 		bl	chIQPutI
 399              		.loc 1 126 0
 400 01c2 049B     		ldr	r3, [sp, #16]
 401 01c4 4FEA2323 		asr	r3, r3, #8
 402 01c8 8DF80F30 		strb	r3, [sp, #15]
 403              		.loc 1 127 0
 404 01cc 9DF80F30 		ldrb	r3, [sp, #15]	@ zero_extendqisi2
 405 01d0 40F20000 		movw	r0, #:lower16:adc_queue
 406 01d4 C0F20000 		movt	r0, #:upper16:adc_queue
 407 01d8 1946     		mov	r1, r3
 408 01da FFF7FEFF 		bl	chIQPutI
 409              		.loc 1 129 0
 410 01de 049B     		ldr	r3, [sp, #16]
 411 01e0 4FEA2343 		asr	r3, r3, #16
 412 01e4 8DF80F30 		strb	r3, [sp, #15]
 413              		.loc 1 130 0
 414 01e8 9DF80F30 		ldrb	r3, [sp, #15]	@ zero_extendqisi2
 415 01ec 40F20000 		movw	r0, #:lower16:adc_queue
 416 01f0 C0F20000 		movt	r0, #:upper16:adc_queue
 417 01f4 1946     		mov	r1, r3
 418 01f6 FFF7FEFF 		bl	chIQPutI
 419              		.loc 1 134 0
 420 01fa 40F20003 		movw	r3, #:lower16:instantAdcData
 421 01fe C0F20003 		movt	r3, #:upper16:instantAdcData
 422 0202 9B68     		ldr	r3, [r3, #8]
 423 0204 0493     		str	r3, [sp, #16]
 424              		.loc 1 135 0
 425 0206 049B     		ldr	r3, [sp, #16]
 426 0208 8DF80F30 		strb	r3, [sp, #15]
 427              		.loc 1 136 0
 428 020c 9DF80F30 		ldrb	r3, [sp, #15]	@ zero_extendqisi2
 429 0210 40F20000 		movw	r0, #:lower16:adc_queue
 430 0214 C0F20000 		movt	r0, #:upper16:adc_queue
 431 0218 1946     		mov	r1, r3
 432 021a FFF7FEFF 		bl	chIQPutI
 433              		.loc 1 138 0
 434 021e 049B     		ldr	r3, [sp, #16]
 435 0220 4FEA2323 		asr	r3, r3, #8
 436 0224 8DF80F30 		strb	r3, [sp, #15]
 437              		.loc 1 139 0
 438 0228 9DF80F30 		ldrb	r3, [sp, #15]	@ zero_extendqisi2
 439 022c 40F20000 		movw	r0, #:lower16:adc_queue
 440 0230 C0F20000 		movt	r0, #:upper16:adc_queue
 441 0234 1946     		mov	r1, r3
 442 0236 FFF7FEFF 		bl	chIQPutI
 443              		.loc 1 141 0
 444 023a 049B     		ldr	r3, [sp, #16]
 445 023c 4FEA2343 		asr	r3, r3, #16
ARM GAS  C:\Users\z80\AppData\Local\Temp\ccoVIiZT.s 			page 9


 446 0240 8DF80F30 		strb	r3, [sp, #15]
 447              		.loc 1 142 0
 448 0244 9DF80F30 		ldrb	r3, [sp, #15]	@ zero_extendqisi2
 449 0248 40F20000 		movw	r0, #:lower16:adc_queue
 450 024c C0F20000 		movt	r0, #:upper16:adc_queue
 451 0250 1946     		mov	r1, r3
 452 0252 FFF7FEFF 		bl	chIQPutI
 453              		.loc 1 146 0
 454 0256 40F20003 		movw	r3, #:lower16:instantAdcData
 455 025a C0F20003 		movt	r3, #:upper16:instantAdcData
 456 025e DB68     		ldr	r3, [r3, #12]
 457 0260 0493     		str	r3, [sp, #16]
 458              		.loc 1 147 0
 459 0262 049B     		ldr	r3, [sp, #16]
 460 0264 8DF80F30 		strb	r3, [sp, #15]
 461              		.loc 1 148 0
 462 0268 9DF80F30 		ldrb	r3, [sp, #15]	@ zero_extendqisi2
 463 026c 40F20000 		movw	r0, #:lower16:adc_queue
 464 0270 C0F20000 		movt	r0, #:upper16:adc_queue
 465 0274 1946     		mov	r1, r3
 466 0276 FFF7FEFF 		bl	chIQPutI
 467              		.loc 1 150 0
 468 027a 049B     		ldr	r3, [sp, #16]
 469 027c 4FEA2323 		asr	r3, r3, #8
 470 0280 8DF80F30 		strb	r3, [sp, #15]
 471              		.loc 1 151 0
 472 0284 9DF80F30 		ldrb	r3, [sp, #15]	@ zero_extendqisi2
 473 0288 40F20000 		movw	r0, #:lower16:adc_queue
 474 028c C0F20000 		movt	r0, #:upper16:adc_queue
 475 0290 1946     		mov	r1, r3
 476 0292 FFF7FEFF 		bl	chIQPutI
 477              		.loc 1 153 0
 478 0296 049B     		ldr	r3, [sp, #16]
 479 0298 4FEA2343 		asr	r3, r3, #16
 480 029c 8DF80F30 		strb	r3, [sp, #15]
 481              		.loc 1 154 0
 482 02a0 9DF80F30 		ldrb	r3, [sp, #15]	@ zero_extendqisi2
 483 02a4 40F20000 		movw	r0, #:lower16:adc_queue
 484 02a8 C0F20000 		movt	r0, #:upper16:adc_queue
 485 02ac 1946     		mov	r1, r3
 486 02ae FFF7FEFF 		bl	chIQPutI
 487              	.L4:
 488              	.LBE3:
 489              		.loc 1 158 0
 490 02b2 FFF7FEFF 		bl	dbg_check_unlock_from_isr
 491              	.LBB4:
 492 02b6 4FF00003 		mov	r3, #0
 493              	@ 158 "./src/adc_ctrl.c" 1
 494 02ba 83F31188 		msr     BASEPRI, r3
 495              	@ 0 "" 2
 496              		.thumb
 497              	.LBE4:
 498              		.loc 1 159 0
 499 02be 4FF44063 		mov	r3, #3072
 500 02c2 C4F20103 		movt	r3, 16385
 501 02c6 4FF48072 		mov	r2, #256
 502 02ca 5A61     		str	r2, [r3, #20]
ARM GAS  C:\Users\z80\AppData\Local\Temp\ccoVIiZT.s 			page 10


 503              		.loc 1 160 0
 504 02cc 07B0     		add	sp, sp, #28
 505 02ce 00BD     		pop	{pc}
 506              		.cfi_endproc
 507              	.LFE64:
 508              		.size	onSpiComplete, .-onSpiComplete
 509              		.section	.text.adcQueue,"ax",%progbits
 510              		.align	2
 511              		.p2align 4,,15
 512              		.global	adcQueue
 513              		.thumb
 514              		.thumb_func
 515              		.type	adcQueue, %function
 516              	adcQueue:
 517              	.LFB65:
 518              		.loc 1 163 0
 519              		.cfi_startproc
 520              		@ args = 0, pretend = 0, frame = 0
 521              		@ frame_needed = 0, uses_anonymous_args = 0
 522              		@ link register save eliminated.
 523              		.loc 1 164 0
 524 0000 40F20003 		movw	r3, #:lower16:adc_queue
 525 0004 C0F20003 		movt	r3, #:upper16:adc_queue
 526              		.loc 1 165 0
 527 0008 1846     		mov	r0, r3
 528 000a 7047     		bx	lr
 529              		.cfi_endproc
 530              	.LFE65:
 531              		.size	adcQueue, .-adcQueue
 532 000c AFF30080 		.section	.text.selectAdcIndex,"ax",%progbits
 533              		.align	2
 534              		.p2align 4,,15
 535              		.thumb
 536              		.thumb_func
 537              		.type	selectAdcIndex, %function
 538              	selectAdcIndex:
 539              	.LFB66:
 540              		.loc 1 168 0
 541              		.cfi_startproc
 542              		@ args = 0, pretend = 0, frame = 8
 543              		@ frame_needed = 0, uses_anonymous_args = 0
 544              		@ link register save eliminated.
 545 0000 82B0     		sub	sp, sp, #8
 546              	.LCFI4:
 547              		.cfi_def_cfa_offset 8
 548 0002 0190     		str	r0, [sp, #4]
 549              		.loc 1 169 0
 550 0004 019B     		ldr	r3, [sp, #4]
 551 0006 03F00103 		and	r3, r3, #1
 552 000a DBB2     		uxtb	r3, r3
 553 000c 002B     		cmp	r3, #0
 554 000e 07D0     		beq	.L7
 555              		.loc 1 170 0
 556 0010 4FF40063 		mov	r3, #2048
 557 0014 C4F20103 		movt	r3, 16385
 558 0018 4FF00102 		mov	r2, #1
 559 001c 1A61     		str	r2, [r3, #16]
ARM GAS  C:\Users\z80\AppData\Local\Temp\ccoVIiZT.s 			page 11


 560 001e 06E0     		b	.L8
 561              	.L7:
 562              		.loc 1 172 0
 563 0020 4FF40063 		mov	r3, #2048
 564 0024 C4F20103 		movt	r3, 16385
 565 0028 4FF00102 		mov	r2, #1
 566 002c 5A61     		str	r2, [r3, #20]
 567              	.L8:
 568              		.loc 1 174 0
 569 002e 019B     		ldr	r3, [sp, #4]
 570 0030 03F00203 		and	r3, r3, #2
 571 0034 002B     		cmp	r3, #0
 572 0036 07D0     		beq	.L9
 573              		.loc 1 175 0
 574 0038 4FF40063 		mov	r3, #2048
 575 003c C4F20103 		movt	r3, 16385
 576 0040 4FF00202 		mov	r2, #2
 577 0044 1A61     		str	r2, [r3, #16]
 578 0046 06E0     		b	.L6
 579              	.L9:
 580              		.loc 1 177 0
 581 0048 4FF40063 		mov	r3, #2048
 582 004c C4F20103 		movt	r3, 16385
 583 0050 4FF00202 		mov	r2, #2
 584 0054 5A61     		str	r2, [r3, #20]
 585              	.L6:
 586              		.loc 1 178 0
 587 0056 02B0     		add	sp, sp, #8
 588 0058 7047     		bx	lr
 589              		.cfi_endproc
 590              	.LFE66:
 591              		.size	selectAdcIndex, .-selectAdcIndex
 592 005a 00BFAFF3 		.section	.text.instantAdc,"ax",%progbits
 592      0080
 593              		.align	2
 594              		.p2align 4,,15
 595              		.global	instantAdc
 596              		.thumb
 597              		.thumb_func
 598              		.type	instantAdc, %function
 599              	instantAdc:
 600              	.LFB67:
 601              		.loc 1 198 0
 602              		.cfi_startproc
 603              		@ args = 0, pretend = 0, frame = 8
 604              		@ frame_needed = 0, uses_anonymous_args = 0
 605 0000 00B5     		push	{lr}
 606              	.LCFI5:
 607              		.cfi_def_cfa_offset 4
 608              		.cfi_offset 14, -4
 609 0002 83B0     		sub	sp, sp, #12
 610              	.LCFI6:
 611              		.cfi_def_cfa_offset 16
 612 0004 0190     		str	r0, [sp, #4]
 613              	.LBB5:
 614              		.loc 1 199 0
 615 0006 4FF02003 		mov	r3, #32
ARM GAS  C:\Users\z80\AppData\Local\Temp\ccoVIiZT.s 			page 12


 616              	@ 199 "./src/adc_ctrl.c" 1
 617 000a 83F31188 		msr     BASEPRI, r3
 618              	@ 0 "" 2
 619              		.thumb
 620              	.LBE5:
 621 000e FFF7FEFF 		bl	dbg_check_lock
 622              		.loc 1 200 0
 623 0012 0198     		ldr	r0, [sp, #4]
 624 0014 FFF7FEFF 		bl	instantAdcI
 625              		.loc 1 201 0
 626 0018 FFF7FEFF 		bl	dbg_check_unlock
 627              	.LBB6:
 628 001c 4FF00003 		mov	r3, #0
 629              	@ 201 "./src/adc_ctrl.c" 1
 630 0020 83F31188 		msr     BASEPRI, r3
 631              	@ 0 "" 2
 632              		.thumb
 633              	.LBE6:
 634              		.loc 1 202 0
 635 0024 03B0     		add	sp, sp, #12
 636 0026 00BD     		pop	{pc}
 637              		.cfi_endproc
 638              	.LFE67:
 639              		.size	instantAdc, .-instantAdc
 640 0028 AFF30080 		.section	.text.instantAdcI,"ax",%progbits
 640      AFF30080 
 641              		.align	2
 642              		.p2align 4,,15
 643              		.global	instantAdcI
 644              		.thumb
 645              		.thumb_func
 646              		.type	instantAdcI, %function
 647              	instantAdcI:
 648              	.LFB68:
 649              		.loc 1 205 0
 650              		.cfi_startproc
 651              		@ args = 0, pretend = 0, frame = 8
 652              		@ frame_needed = 0, uses_anonymous_args = 0
 653              		@ link register save eliminated.
 654 0000 82B0     		sub	sp, sp, #8
 655              	.LCFI7:
 656              		.cfi_def_cfa_offset 8
 657 0002 0190     		str	r0, [sp, #4]
 658              		.loc 1 206 0
 659 0004 019B     		ldr	r3, [sp, #4]
 660 0006 002B     		cmp	r3, #0
 661 0008 21D0     		beq	.L12
 662              		.loc 1 208 0
 663 000a 40F20003 		movw	r3, #:lower16:instantAdcData
 664 000e C0F20003 		movt	r3, #:upper16:instantAdcData
 665 0012 1A68     		ldr	r2, [r3, #0]
 666 0014 019B     		ldr	r3, [sp, #4]
 667 0016 1A60     		str	r2, [r3, #0]
 668              		.loc 1 209 0
 669 0018 019B     		ldr	r3, [sp, #4]
 670 001a 03F10402 		add	r2, r3, #4
 671 001e 40F20003 		movw	r3, #:lower16:instantAdcData
ARM GAS  C:\Users\z80\AppData\Local\Temp\ccoVIiZT.s 			page 13


 672 0022 C0F20003 		movt	r3, #:upper16:instantAdcData
 673 0026 5B68     		ldr	r3, [r3, #4]
 674 0028 1360     		str	r3, [r2, #0]
 675              		.loc 1 210 0
 676 002a 019B     		ldr	r3, [sp, #4]
 677 002c 03F10802 		add	r2, r3, #8
 678 0030 40F20003 		movw	r3, #:lower16:instantAdcData
 679 0034 C0F20003 		movt	r3, #:upper16:instantAdcData
 680 0038 9B68     		ldr	r3, [r3, #8]
 681 003a 1360     		str	r3, [r2, #0]
 682              		.loc 1 211 0
 683 003c 019B     		ldr	r3, [sp, #4]
 684 003e 03F10C02 		add	r2, r3, #12
 685 0042 40F20003 		movw	r3, #:lower16:instantAdcData
 686 0046 C0F20003 		movt	r3, #:upper16:instantAdcData
 687 004a DB68     		ldr	r3, [r3, #12]
 688 004c 1360     		str	r3, [r2, #0]
 689              	.L12:
 690              		.loc 1 213 0
 691 004e 02B0     		add	sp, sp, #8
 692 0050 7047     		bx	lr
 693              		.cfi_endproc
 694              	.LFE68:
 695              		.size	instantAdcI, .-instantAdcI
 696 0052 00BFAFF3 		.section	.text.setOscSignals,"ax",%progbits
 696      0080AFF3 
 696      0080AFF3 
 696      0080
 697              		.align	2
 698              		.p2align 4,,15
 699              		.global	setOscSignals
 700              		.thumb
 701              		.thumb_func
 702              		.type	setOscSignals, %function
 703              	setOscSignals:
 704              	.LFB69:
 705              		.loc 1 216 0
 706              		.cfi_startproc
 707              		@ args = 0, pretend = 0, frame = 8
 708              		@ frame_needed = 0, uses_anonymous_args = 0
 709 0000 00B5     		push	{lr}
 710              	.LCFI8:
 711              		.cfi_def_cfa_offset 4
 712              		.cfi_offset 14, -4
 713 0002 83B0     		sub	sp, sp, #12
 714              	.LCFI9:
 715              		.cfi_def_cfa_offset 16
 716 0004 0190     		str	r0, [sp, #4]
 717              	.LBB7:
 718              		.loc 1 217 0
 719 0006 4FF02003 		mov	r3, #32
 720              	@ 217 "./src/adc_ctrl.c" 1
 721 000a 83F31188 		msr     BASEPRI, r3
 722              	@ 0 "" 2
 723              		.thumb
 724              	.LBE7:
 725 000e FFF7FEFF 		bl	dbg_check_lock
ARM GAS  C:\Users\z80\AppData\Local\Temp\ccoVIiZT.s 			page 14


 726              		.loc 1 218 0
 727 0012 40F20003 		movw	r3, #:lower16:signalMask
 728 0016 C0F20003 		movt	r3, #:upper16:signalMask
 729 001a 019A     		ldr	r2, [sp, #4]
 730 001c 1A60     		str	r2, [r3, #0]
 731              		.loc 1 219 0
 732 001e FFF7FEFF 		bl	dbg_check_unlock
 733              	.LBB8:
 734 0022 4FF00003 		mov	r3, #0
 735              	@ 219 "./src/adc_ctrl.c" 1
 736 0026 83F31188 		msr     BASEPRI, r3
 737              	@ 0 "" 2
 738              		.thumb
 739              	.LBE8:
 740              		.loc 1 220 0
 741 002a 03B0     		add	sp, sp, #12
 742 002c 00BD     		pop	{pc}
 743              		.cfi_endproc
 744              	.LFE69:
 745              		.size	setOscSignals, .-setOscSignals
 746 002e 00BF     		.section	.text.setOscPeriod,"ax",%progbits
 747              		.align	2
 748              		.p2align 4,,15
 749              		.global	setOscPeriod
 750              		.thumb
 751              		.thumb_func
 752              		.type	setOscPeriod, %function
 753              	setOscPeriod:
 754              	.LFB70:
 755              		.loc 1 223 0
 756              		.cfi_startproc
 757              		@ args = 0, pretend = 0, frame = 8
 758              		@ frame_needed = 0, uses_anonymous_args = 0
 759 0000 00B5     		push	{lr}
 760              	.LCFI10:
 761              		.cfi_def_cfa_offset 4
 762              		.cfi_offset 14, -4
 763 0002 83B0     		sub	sp, sp, #12
 764              	.LCFI11:
 765              		.cfi_def_cfa_offset 16
 766 0004 0190     		str	r0, [sp, #4]
 767              	.LBB9:
 768              		.loc 1 224 0
 769 0006 4FF02003 		mov	r3, #32
 770              	@ 224 "./src/adc_ctrl.c" 1
 771 000a 83F31188 		msr     BASEPRI, r3
 772              	@ 0 "" 2
 773              		.thumb
 774              	.LBE9:
 775 000e FFF7FEFF 		bl	dbg_check_lock
 776              		.loc 1 225 0
 777 0012 019A     		ldr	r2, [sp, #4]
 778 0014 40F20003 		movw	r3, #:lower16:period
 779 0018 C0F20003 		movt	r3, #:upper16:period
 780 001c 1A60     		str	r2, [r3, #0]
 781              		.loc 1 226 0
 782 001e FFF7FEFF 		bl	dbg_check_unlock
ARM GAS  C:\Users\z80\AppData\Local\Temp\ccoVIiZT.s 			page 15


 783              	.LBB10:
 784 0022 4FF00003 		mov	r3, #0
 785              	@ 226 "./src/adc_ctrl.c" 1
 786 0026 83F31188 		msr     BASEPRI, r3
 787              	@ 0 "" 2
 788              		.thumb
 789              	.LBE10:
 790              		.loc 1 227 0
 791 002a 03B0     		add	sp, sp, #12
 792 002c 00BD     		pop	{pc}
 793              		.cfi_endproc
 794              	.LFE70:
 795              		.size	setOscPeriod, .-setOscPeriod
 796              		.global	adcRaw
 797 002e 00BF     		.section	.bss.adcRaw,"aw",%nobits
 798              		.align	2
 799              		.type	adcRaw, %object
 800              		.size	adcRaw, 80
 801              	adcRaw:
 802 0000 00000000 		.space	80
 802      00000000 
 802      00000000 
 802      00000000 
 802      00000000 
 803              		.global	adcFiltered
 804              		.section	.bss.adcFiltered,"aw",%nobits
 805              		.align	2
 806              		.type	adcFiltered, %object
 807              		.size	adcFiltered, 80
 808              	adcFiltered:
 809 0000 00000000 		.space	80
 809      00000000 
 809      00000000 
 809      00000000 
 809      00000000 
 810              		.global	adcPointer
 811              		.section	.bss.adcPointer,"aw",%nobits
 812              		.align	2
 813              		.type	adcPointer, %object
 814              		.size	adcPointer, 4
 815              	adcPointer:
 816 0000 00000000 		.space	4
 817              		.section	.text.filterAdc,"ax",%progbits
 818              		.align	2
 819              		.p2align 4,,15
 820              		.thumb
 821              		.thumb_func
 822              		.type	filterAdc, %function
 823              	filterAdc:
 824              	.LFB71:
 825              		.loc 1 236 0
 826              		.cfi_startproc
 827              		@ args = 0, pretend = 0, frame = 32
 828              		@ frame_needed = 0, uses_anonymous_args = 0
 829              		@ link register save eliminated.
 830 0000 88B0     		sub	sp, sp, #32
 831              	.LCFI12:
ARM GAS  C:\Users\z80\AppData\Local\Temp\ccoVIiZT.s 			page 16


 832              		.cfi_def_cfa_offset 32
 833 0002 0346     		mov	r3, r0
 834 0004 0091     		str	r1, [sp, #0]
 835 0006 8DF80730 		strb	r3, [sp, #7]
 836              		.loc 1 237 0
 837 000a 9DF80720 		ldrb	r2, [sp, #7]	@ zero_extendqisi2
 838 000e 1346     		mov	r3, r2
 839 0010 4FEA8303 		lsl	r3, r3, #2
 840 0014 9B18     		adds	r3, r3, r2
 841 0016 4FEA8303 		lsl	r3, r3, #2
 842 001a 1A46     		mov	r2, r3
 843 001c 40F20003 		movw	r3, #:lower16:adcRaw
 844 0020 C0F20003 		movt	r3, #:upper16:adcRaw
 845 0024 D318     		adds	r3, r2, r3
 846 0026 0693     		str	r3, [sp, #24]
 847              		.loc 1 238 0
 848 0028 9DF80720 		ldrb	r2, [sp, #7]	@ zero_extendqisi2
 849 002c 40F20003 		movw	r3, #:lower16:adcPointer
 850 0030 C0F20003 		movt	r3, #:upper16:adcPointer
 851 0034 D318     		adds	r3, r2, r3
 852 0036 0593     		str	r3, [sp, #20]
 853              		.loc 1 239 0
 854 0038 059B     		ldr	r3, [sp, #20]
 855 003a 1B78     		ldrb	r3, [r3, #0]	@ zero_extendqisi2
 856 003c 4FEA8303 		lsl	r3, r3, #2
 857 0040 069A     		ldr	r2, [sp, #24]
 858 0042 D318     		adds	r3, r2, r3
 859 0044 009A     		ldr	r2, [sp, #0]
 860 0046 1A60     		str	r2, [r3, #0]
 861              		.loc 1 240 0
 862 0048 059B     		ldr	r3, [sp, #20]
 863 004a 1B78     		ldrb	r3, [r3, #0]	@ zero_extendqisi2
 864 004c 03F10101 		add	r1, r3, #1
 865 0050 46F26763 		movw	r3, #26215
 866 0054 C6F26663 		movt	r3, 26214
 867 0058 83FB0123 		smull	r2, r3, r3, r1
 868 005c 4FEA6302 		asr	r2, r3, #1
 869 0060 4FEAE173 		asr	r3, r1, #31
 870 0064 D21A     		subs	r2, r2, r3
 871 0066 1346     		mov	r3, r2
 872 0068 4FEA8303 		lsl	r3, r3, #2
 873 006c 9B18     		adds	r3, r3, r2
 874 006e CA1A     		subs	r2, r1, r3
 875 0070 D2B2     		uxtb	r2, r2
 876 0072 059B     		ldr	r3, [sp, #20]
 877 0074 1A70     		strb	r2, [r3, #0]
 878              		.loc 1 242 0
 879 0076 9DF80720 		ldrb	r2, [sp, #7]	@ zero_extendqisi2
 880 007a 1346     		mov	r3, r2
 881 007c 4FEA8303 		lsl	r3, r3, #2
 882 0080 9B18     		adds	r3, r3, r2
 883 0082 4FEA8303 		lsl	r3, r3, #2
 884 0086 1A46     		mov	r2, r3
 885 0088 40F20003 		movw	r3, #:lower16:adcFiltered
 886 008c C0F20003 		movt	r3, #:upper16:adcFiltered
 887 0090 D318     		adds	r3, r2, r3
 888 0092 0493     		str	r3, [sp, #16]
ARM GAS  C:\Users\z80\AppData\Local\Temp\ccoVIiZT.s 			page 17


 889              		.loc 1 244 0
 890 0094 4FF00003 		mov	r3, #0
 891 0098 8DF81F30 		strb	r3, [sp, #31]
 892 009c 13E0     		b	.L17
 893              	.L18:
 894              		.loc 1 245 0 discriminator 2
 895 009e 9DF81F30 		ldrb	r3, [sp, #31]	@ zero_extendqisi2
 896 00a2 4FEA8303 		lsl	r3, r3, #2
 897 00a6 049A     		ldr	r2, [sp, #16]
 898 00a8 D318     		adds	r3, r2, r3
 899 00aa 9DF81F20 		ldrb	r2, [sp, #31]	@ zero_extendqisi2
 900 00ae 4FEA8202 		lsl	r2, r2, #2
 901 00b2 0699     		ldr	r1, [sp, #24]
 902 00b4 8A18     		adds	r2, r1, r2
 903 00b6 1268     		ldr	r2, [r2, #0]
 904 00b8 1A60     		str	r2, [r3, #0]
 905              		.loc 1 244 0 discriminator 2
 906 00ba 9DF81F30 		ldrb	r3, [sp, #31]
 907 00be 03F10103 		add	r3, r3, #1
 908 00c2 8DF81F30 		strb	r3, [sp, #31]
 909              	.L17:
 910              		.loc 1 244 0 is_stmt 0 discriminator 1
 911 00c6 9DF81F30 		ldrb	r3, [sp, #31]	@ zero_extendqisi2
 912 00ca 032B     		cmp	r3, #3
 913 00cc E7D9     		bls	.L18
 914              		.loc 1 246 0 is_stmt 1
 915 00ce 4FF00003 		mov	r3, #0
 916 00d2 8DF81F30 		strb	r3, [sp, #31]
 917 00d6 44E0     		b	.L19
 918              	.L23:
 919              		.loc 1 248 0
 920 00d8 9DF81F30 		ldrb	r3, [sp, #31]
 921 00dc 03F10103 		add	r3, r3, #1
 922 00e0 8DF81E30 		strb	r3, [sp, #30]
 923 00e4 33E0     		b	.L20
 924              	.L22:
 925              		.loc 1 250 0
 926 00e6 9DF81F30 		ldrb	r3, [sp, #31]	@ zero_extendqisi2
 927 00ea 4FEA8303 		lsl	r3, r3, #2
 928 00ee 049A     		ldr	r2, [sp, #16]
 929 00f0 D318     		adds	r3, r2, r3
 930 00f2 1A68     		ldr	r2, [r3, #0]
 931 00f4 9DF81E30 		ldrb	r3, [sp, #30]	@ zero_extendqisi2
 932 00f8 4FEA8303 		lsl	r3, r3, #2
 933 00fc 0499     		ldr	r1, [sp, #16]
 934 00fe CB18     		adds	r3, r1, r3
 935 0100 1B68     		ldr	r3, [r3, #0]
 936 0102 9A42     		cmp	r2, r3
 937 0104 1DDA     		bge	.L21
 938              	.LBB11:
 939              		.loc 1 252 0
 940 0106 9DF81F30 		ldrb	r3, [sp, #31]	@ zero_extendqisi2
 941 010a 4FEA8303 		lsl	r3, r3, #2
 942 010e 049A     		ldr	r2, [sp, #16]
 943 0110 D318     		adds	r3, r2, r3
 944 0112 1B68     		ldr	r3, [r3, #0]
 945 0114 0393     		str	r3, [sp, #12]
ARM GAS  C:\Users\z80\AppData\Local\Temp\ccoVIiZT.s 			page 18


 946              		.loc 1 253 0
 947 0116 9DF81F30 		ldrb	r3, [sp, #31]	@ zero_extendqisi2
 948 011a 4FEA8303 		lsl	r3, r3, #2
 949 011e 049A     		ldr	r2, [sp, #16]
 950 0120 D318     		adds	r3, r2, r3
 951 0122 9DF81E20 		ldrb	r2, [sp, #30]	@ zero_extendqisi2
 952 0126 4FEA8202 		lsl	r2, r2, #2
 953 012a 0499     		ldr	r1, [sp, #16]
 954 012c 8A18     		adds	r2, r1, r2
 955 012e 1268     		ldr	r2, [r2, #0]
 956 0130 1A60     		str	r2, [r3, #0]
 957              		.loc 1 254 0
 958 0132 9DF81E30 		ldrb	r3, [sp, #30]	@ zero_extendqisi2
 959 0136 4FEA8303 		lsl	r3, r3, #2
 960 013a 049A     		ldr	r2, [sp, #16]
 961 013c D318     		adds	r3, r2, r3
 962 013e 039A     		ldr	r2, [sp, #12]
 963 0140 1A60     		str	r2, [r3, #0]
 964              	.L21:
 965              	.LBE11:
 966              		.loc 1 248 0
 967 0142 9DF81E30 		ldrb	r3, [sp, #30]
 968 0146 03F10103 		add	r3, r3, #1
 969 014a 8DF81E30 		strb	r3, [sp, #30]
 970              	.L20:
 971              		.loc 1 248 0 is_stmt 0 discriminator 1
 972 014e 9DF81E30 		ldrb	r3, [sp, #30]	@ zero_extendqisi2
 973 0152 042B     		cmp	r3, #4
 974 0154 C7D9     		bls	.L22
 975              		.loc 1 246 0 is_stmt 1
 976 0156 9DF81F30 		ldrb	r3, [sp, #31]
 977 015a 03F10103 		add	r3, r3, #1
 978 015e 8DF81F30 		strb	r3, [sp, #31]
 979              	.L19:
 980              		.loc 1 246 0 is_stmt 0 discriminator 1
 981 0162 9DF81F30 		ldrb	r3, [sp, #31]	@ zero_extendqisi2
 982 0166 032B     		cmp	r3, #3
 983 0168 B6D9     		bls	.L23
 984              		.loc 1 258 0 is_stmt 1
 985 016a 9DF80720 		ldrb	r2, [sp, #7]	@ zero_extendqisi2
 986 016e 049B     		ldr	r3, [sp, #16]
 987 0170 9968     		ldr	r1, [r3, #8]
 988 0172 40F20003 		movw	r3, #:lower16:instantAdcData
 989 0176 C0F20003 		movt	r3, #:upper16:instantAdcData
 990 017a 43F82210 		str	r1, [r3, r2, lsl #2]
 991              		.loc 1 259 0
 992 017e 08B0     		add	sp, sp, #32
 993 0180 7047     		bx	lr
 994              		.cfi_endproc
 995              	.LFE71:
 996              		.size	filterAdc, .-filterAdc
 997 0182 00BFAFF3 		.text
 997      0080AFF3 
 997      0080AFF3 
 997      0080
 998              	.Letext0:
 999              		.file 2 "c:\\programs\\codesourcery\\2011.03-56\\bin\\../lib/gcc/arm-none-eabi/4.6.3/include/stdde
ARM GAS  C:\Users\z80\AppData\Local\Temp\ccoVIiZT.s 			page 19


 1000              		.file 3 "c:\\programs\\codesourcery\\2011.03-56\\bin\\../lib/gcc/arm-none-eabi/4.6.3/../../../../a
 1001              		.file 4 "../chibios_2.4.x/os/ports/GCC/ARMCMx/chtypes.h"
 1002              		.file 5 "../chibios_2.4.x/os/kernel/include/chlists.h"
 1003              		.file 6 "../chibios_2.4.x/os/kernel/include/chthreads.h"
 1004              		.file 7 "../chibios_2.4.x/os/ports/GCC/ARMCMx/chcore_v7m.h"
 1005              		.file 8 "../chibios_2.4.x/os/kernel/include/chmtx.h"
 1006              		.file 9 "../chibios_2.4.x/os/kernel/include/chqueues.h"
 1007              		.file 10 "../chibios_2.4.x/os/hal/platforms/STM32F1xx/stm32f10x.h"
 1008              		.file 11 "../chibios_2.4.x/os/hal/platforms/STM32F1xx/stm32_dma.h"
 1009              		.file 12 "../chibios_2.4.x/os/hal/platforms/STM32/GPIOv1/pal_lld.h"
 1010              		.file 13 "../chibios_2.4.x/os/hal/include/spi.h"
 1011              		.file 14 "../chibios_2.4.x/os/hal/platforms/STM32/spi_lld.h"
 1012              		.file 15 "../chibios_2.4.x/os/ports/common/ARMCMx/CMSIS/include/core_cm3.h"
 1013              		.section	.debug_info,"",%progbits
 1014              	.Ldebug_info0:
 1015 0000 3C0C0000 		.4byte	0xc3c
 1016 0004 0200     		.2byte	0x2
 1017 0006 00000000 		.4byte	.Ldebug_abbrev0
 1018 000a 04       		.byte	0x4
 1019 000b 01       		.uleb128 0x1
 1020 000c 82040000 		.4byte	.LASF143
 1021 0010 01       		.byte	0x1
 1022 0011 FF000000 		.4byte	.LASF144
 1023 0015 34010000 		.4byte	.LASF145
 1024 0019 00000000 		.4byte	0
 1025 001d 00000000 		.4byte	0
 1026 0021 00000000 		.4byte	.Ldebug_ranges0+0
 1027 0025 00000000 		.4byte	.Ldebug_line0
 1028 0029 02       		.uleb128 0x2
 1029 002a 04       		.byte	0x4
 1030 002b 05       		.byte	0x5
 1031 002c 696E7400 		.ascii	"int\000"
 1032 0030 03       		.uleb128 0x3
 1033 0031 06000000 		.4byte	.LASF2
 1034 0035 02       		.byte	0x2
 1035 0036 D4       		.byte	0xd4
 1036 0037 3B000000 		.4byte	0x3b
 1037 003b 04       		.uleb128 0x4
 1038 003c 04       		.byte	0x4
 1039 003d 07       		.byte	0x7
 1040 003e 16020000 		.4byte	.LASF0
 1041 0042 04       		.uleb128 0x4
 1042 0043 01       		.byte	0x1
 1043 0044 06       		.byte	0x6
 1044 0045 F3000000 		.4byte	.LASF1
 1045 0049 03       		.uleb128 0x3
 1046 004a 54050000 		.4byte	.LASF3
 1047 004e 03       		.byte	0x3
 1048 004f 2A       		.byte	0x2a
 1049 0050 54000000 		.4byte	0x54
 1050 0054 04       		.uleb128 0x4
 1051 0055 01       		.byte	0x1
 1052 0056 08       		.byte	0x8
 1053 0057 D1030000 		.4byte	.LASF4
 1054 005b 04       		.uleb128 0x4
 1055 005c 02       		.byte	0x2
 1056 005d 05       		.byte	0x5
ARM GAS  C:\Users\z80\AppData\Local\Temp\ccoVIiZT.s 			page 20


 1057 005e A0020000 		.4byte	.LASF5
 1058 0062 03       		.uleb128 0x3
 1059 0063 23020000 		.4byte	.LASF6
 1060 0067 03       		.byte	0x3
 1061 0068 36       		.byte	0x36
 1062 0069 6D000000 		.4byte	0x6d
 1063 006d 04       		.uleb128 0x4
 1064 006e 02       		.byte	0x2
 1065 006f 07       		.byte	0x7
 1066 0070 55020000 		.4byte	.LASF7
 1067 0074 03       		.uleb128 0x3
 1068 0075 C9030000 		.4byte	.LASF8
 1069 0079 03       		.byte	0x3
 1070 007a 4F       		.byte	0x4f
 1071 007b 7F000000 		.4byte	0x7f
 1072 007f 04       		.uleb128 0x4
 1073 0080 04       		.byte	0x4
 1074 0081 05       		.byte	0x5
 1075 0082 70010000 		.4byte	.LASF9
 1076 0086 03       		.uleb128 0x3
 1077 0087 63040000 		.4byte	.LASF10
 1078 008b 03       		.byte	0x3
 1079 008c 50       		.byte	0x50
 1080 008d 91000000 		.4byte	0x91
 1081 0091 04       		.uleb128 0x4
 1082 0092 04       		.byte	0x4
 1083 0093 07       		.byte	0x7
 1084 0094 8E040000 		.4byte	.LASF11
 1085 0098 04       		.uleb128 0x4
 1086 0099 08       		.byte	0x8
 1087 009a 05       		.byte	0x5
 1088 009b E5000000 		.4byte	.LASF12
 1089 009f 03       		.uleb128 0x3
 1090 00a0 F6020000 		.4byte	.LASF13
 1091 00a4 03       		.byte	0x3
 1092 00a5 78       		.byte	0x78
 1093 00a6 AA000000 		.4byte	0xaa
 1094 00aa 04       		.uleb128 0x4
 1095 00ab 08       		.byte	0x8
 1096 00ac 07       		.byte	0x7
 1097 00ad 5F000000 		.4byte	.LASF14
 1098 00b1 03       		.uleb128 0x3
 1099 00b2 80020000 		.4byte	.LASF15
 1100 00b6 04       		.byte	0x4
 1101 00b7 2F       		.byte	0x2f
 1102 00b8 49000000 		.4byte	0x49
 1103 00bc 03       		.uleb128 0x3
 1104 00bd 79010000 		.4byte	.LASF16
 1105 00c1 04       		.byte	0x4
 1106 00c2 30       		.byte	0x30
 1107 00c3 49000000 		.4byte	0x49
 1108 00c7 03       		.uleb128 0x3
 1109 00c8 B9030000 		.4byte	.LASF17
 1110 00cc 04       		.byte	0x4
 1111 00cd 32       		.byte	0x32
 1112 00ce 86000000 		.4byte	0x86
 1113 00d2 03       		.uleb128 0x3
ARM GAS  C:\Users\z80\AppData\Local\Temp\ccoVIiZT.s 			page 21


 1114 00d3 70020000 		.4byte	.LASF18
 1115 00d7 04       		.byte	0x4
 1116 00d8 33       		.byte	0x33
 1117 00d9 74000000 		.4byte	0x74
 1118 00dd 03       		.uleb128 0x3
 1119 00de 94020000 		.4byte	.LASF19
 1120 00e2 04       		.byte	0x4
 1121 00e3 35       		.byte	0x35
 1122 00e4 86000000 		.4byte	0x86
 1123 00e8 03       		.uleb128 0x3
 1124 00e9 E3040000 		.4byte	.LASF20
 1125 00ed 04       		.byte	0x4
 1126 00ee 36       		.byte	0x36
 1127 00ef 86000000 		.4byte	0x86
 1128 00f3 03       		.uleb128 0x3
 1129 00f4 D1020000 		.4byte	.LASF21
 1130 00f8 05       		.byte	0x5
 1131 00f9 2A       		.byte	0x2a
 1132 00fa FE000000 		.4byte	0xfe
 1133 00fe 05       		.uleb128 0x5
 1134 00ff D1020000 		.4byte	.LASF21
 1135 0103 48       		.byte	0x48
 1136 0104 06       		.byte	0x6
 1137 0105 5E       		.byte	0x5e
 1138 0106 07020000 		.4byte	0x207
 1139 010a 06       		.uleb128 0x6
 1140 010b 1B040000 		.4byte	.LASF22
 1141 010f 06       		.byte	0x6
 1142 0110 5F       		.byte	0x5f
 1143 0111 2C020000 		.4byte	0x22c
 1144 0115 02       		.byte	0x2
 1145 0116 23       		.byte	0x23
 1146 0117 00       		.uleb128 0
 1147 0118 06       		.uleb128 0x6
 1148 0119 94030000 		.4byte	.LASF23
 1149 011d 06       		.byte	0x6
 1150 011e 61       		.byte	0x61
 1151 011f 2C020000 		.4byte	0x22c
 1152 0123 02       		.byte	0x2
 1153 0124 23       		.byte	0x23
 1154 0125 04       		.uleb128 0x4
 1155 0126 06       		.uleb128 0x6
 1156 0127 CB000000 		.4byte	.LASF24
 1157 012b 06       		.byte	0x6
 1158 012c 63       		.byte	0x63
 1159 012d C7000000 		.4byte	0xc7
 1160 0131 02       		.byte	0x2
 1161 0132 23       		.byte	0x23
 1162 0133 08       		.uleb128 0x8
 1163 0134 06       		.uleb128 0x6
 1164 0135 8D050000 		.4byte	.LASF25
 1165 0139 06       		.byte	0x6
 1166 013a 64       		.byte	0x64
 1167 013b 04030000 		.4byte	0x304
 1168 013f 02       		.byte	0x2
 1169 0140 23       		.byte	0x23
 1170 0141 0C       		.uleb128 0xc
ARM GAS  C:\Users\z80\AppData\Local\Temp\ccoVIiZT.s 			page 22


 1171 0142 06       		.uleb128 0x6
 1172 0143 9A010000 		.4byte	.LASF26
 1173 0147 06       		.byte	0x6
 1174 0148 66       		.byte	0x66
 1175 0149 2C020000 		.4byte	0x22c
 1176 014d 02       		.byte	0x2
 1177 014e 23       		.byte	0x23
 1178 014f 10       		.uleb128 0x10
 1179 0150 06       		.uleb128 0x6
 1180 0151 FF020000 		.4byte	.LASF27
 1181 0155 06       		.byte	0x6
 1182 0156 67       		.byte	0x67
 1183 0157 2C020000 		.4byte	0x22c
 1184 015b 02       		.byte	0x2
 1185 015c 23       		.byte	0x23
 1186 015d 14       		.uleb128 0x14
 1187 015e 06       		.uleb128 0x6
 1188 015f 6E050000 		.4byte	.LASF28
 1189 0163 06       		.byte	0x6
 1190 0164 6E       		.byte	0x6e
 1191 0165 AE030000 		.4byte	0x3ae
 1192 0169 02       		.byte	0x2
 1193 016a 23       		.byte	0x23
 1194 016b 18       		.uleb128 0x18
 1195 016c 06       		.uleb128 0x6
 1196 016d 0B020000 		.4byte	.LASF29
 1197 0171 06       		.byte	0x6
 1198 0172 74       		.byte	0x74
 1199 0173 C0030000 		.4byte	0x3c0
 1200 0177 02       		.byte	0x2
 1201 0178 23       		.byte	0x23
 1202 0179 1C       		.uleb128 0x1c
 1203 017a 06       		.uleb128 0x6
 1204 017b 0C040000 		.4byte	.LASF30
 1205 017f 06       		.byte	0x6
 1206 0180 79       		.byte	0x79
 1207 0181 BC000000 		.4byte	0xbc
 1208 0185 02       		.byte	0x2
 1209 0186 23       		.byte	0x23
 1210 0187 20       		.uleb128 0x20
 1211 0188 06       		.uleb128 0x6
 1212 0189 22040000 		.4byte	.LASF31
 1213 018d 06       		.byte	0x6
 1214 018e 7D       		.byte	0x7d
 1215 018f B1000000 		.4byte	0xb1
 1216 0193 02       		.byte	0x2
 1217 0194 23       		.byte	0x23
 1218 0195 21       		.uleb128 0x21
 1219 0196 06       		.uleb128 0x6
 1220 0197 93010000 		.4byte	.LASF32
 1221 019b 06       		.byte	0x6
 1222 019c 89       		.byte	0x89
 1223 019d 2C030000 		.4byte	0x32c
 1224 01a1 02       		.byte	0x2
 1225 01a2 23       		.byte	0x23
 1226 01a3 24       		.uleb128 0x24
 1227 01a4 07       		.uleb128 0x7
ARM GAS  C:\Users\z80\AppData\Local\Temp\ccoVIiZT.s 			page 23


 1228 01a5 705F7500 		.ascii	"p_u\000"
 1229 01a9 06       		.byte	0x6
 1230 01aa AE       		.byte	0xae
 1231 01ab 79030000 		.4byte	0x379
 1232 01af 02       		.byte	0x2
 1233 01b0 23       		.byte	0x23
 1234 01b1 28       		.uleb128 0x28
 1235 01b2 06       		.uleb128 0x6
 1236 01b3 93050000 		.4byte	.LASF33
 1237 01b7 06       		.byte	0x6
 1238 01b8 B3       		.byte	0xb3
 1239 01b9 54020000 		.4byte	0x254
 1240 01bd 02       		.byte	0x2
 1241 01be 23       		.byte	0x23
 1242 01bf 2C       		.uleb128 0x2c
 1243 01c0 06       		.uleb128 0x6
 1244 01c1 31020000 		.4byte	.LASF34
 1245 01c5 06       		.byte	0x6
 1246 01c6 B9       		.byte	0xb9
 1247 01c7 32020000 		.4byte	0x232
 1248 01cb 02       		.byte	0x2
 1249 01cc 23       		.byte	0x23
 1250 01cd 30       		.uleb128 0x30
 1251 01ce 06       		.uleb128 0x6
 1252 01cf 7F050000 		.4byte	.LASF35
 1253 01d3 06       		.byte	0x6
 1254 01d4 BD       		.byte	0xbd
 1255 01d5 D2000000 		.4byte	0xd2
 1256 01d9 02       		.byte	0x2
 1257 01da 23       		.byte	0x23
 1258 01db 38       		.uleb128 0x38
 1259 01dc 06       		.uleb128 0x6
 1260 01dd 4E040000 		.4byte	.LASF36
 1261 01e1 06       		.byte	0x6
 1262 01e2 C3       		.byte	0xc3
 1263 01e3 DD000000 		.4byte	0xdd
 1264 01e7 02       		.byte	0x2
 1265 01e8 23       		.byte	0x23
 1266 01e9 3C       		.uleb128 0x3c
 1267 01ea 06       		.uleb128 0x6
 1268 01eb 02040000 		.4byte	.LASF37
 1269 01ef 06       		.byte	0x6
 1270 01f0 CA       		.byte	0xca
 1271 01f1 C6030000 		.4byte	0x3c6
 1272 01f5 02       		.byte	0x2
 1273 01f6 23       		.byte	0x23
 1274 01f7 40       		.uleb128 0x40
 1275 01f8 06       		.uleb128 0x6
 1276 01f9 ED040000 		.4byte	.LASF38
 1277 01fd 06       		.byte	0x6
 1278 01fe CE       		.byte	0xce
 1279 01ff C7000000 		.4byte	0xc7
 1280 0203 02       		.byte	0x2
 1281 0204 23       		.byte	0x23
 1282 0205 44       		.uleb128 0x44
 1283 0206 00       		.byte	0
 1284 0207 08       		.uleb128 0x8
ARM GAS  C:\Users\z80\AppData\Local\Temp\ccoVIiZT.s 			page 24


 1285 0208 08       		.byte	0x8
 1286 0209 05       		.byte	0x5
 1287 020a 61       		.byte	0x61
 1288 020b 2C020000 		.4byte	0x22c
 1289 020f 06       		.uleb128 0x6
 1290 0210 1B040000 		.4byte	.LASF22
 1291 0214 05       		.byte	0x5
 1292 0215 62       		.byte	0x62
 1293 0216 2C020000 		.4byte	0x22c
 1294 021a 02       		.byte	0x2
 1295 021b 23       		.byte	0x23
 1296 021c 00       		.uleb128 0
 1297 021d 06       		.uleb128 0x6
 1298 021e 94030000 		.4byte	.LASF23
 1299 0222 05       		.byte	0x5
 1300 0223 64       		.byte	0x64
 1301 0224 2C020000 		.4byte	0x22c
 1302 0228 02       		.byte	0x2
 1303 0229 23       		.byte	0x23
 1304 022a 04       		.uleb128 0x4
 1305 022b 00       		.byte	0
 1306 022c 09       		.uleb128 0x9
 1307 022d 04       		.byte	0x4
 1308 022e F3000000 		.4byte	0xf3
 1309 0232 03       		.uleb128 0x3
 1310 0233 11030000 		.4byte	.LASF39
 1311 0237 05       		.byte	0x5
 1312 0238 66       		.byte	0x66
 1313 0239 07020000 		.4byte	0x207
 1314 023d 08       		.uleb128 0x8
 1315 023e 04       		.byte	0x4
 1316 023f 05       		.byte	0x5
 1317 0240 6B       		.byte	0x6b
 1318 0241 54020000 		.4byte	0x254
 1319 0245 06       		.uleb128 0x6
 1320 0246 1B040000 		.4byte	.LASF22
 1321 024a 05       		.byte	0x5
 1322 024b 6D       		.byte	0x6d
 1323 024c 2C020000 		.4byte	0x22c
 1324 0250 02       		.byte	0x2
 1325 0251 23       		.byte	0x23
 1326 0252 00       		.uleb128 0
 1327 0253 00       		.byte	0
 1328 0254 03       		.uleb128 0x3
 1329 0255 88020000 		.4byte	.LASF40
 1330 0259 05       		.byte	0x5
 1331 025a 70       		.byte	0x70
 1332 025b 3D020000 		.4byte	0x23d
 1333 025f 03       		.uleb128 0x3
 1334 0260 CC010000 		.4byte	.LASF41
 1335 0264 07       		.byte	0x7
 1336 0265 D7       		.byte	0xd7
 1337 0266 6A020000 		.4byte	0x26a
 1338 026a 0A       		.uleb128 0xa
 1339 026b 04       		.byte	0x4
 1340 026c 03       		.uleb128 0x3
 1341 026d C1020000 		.4byte	.LASF42
ARM GAS  C:\Users\z80\AppData\Local\Temp\ccoVIiZT.s 			page 25


 1342 0271 07       		.byte	0x7
 1343 0272 DD       		.byte	0xdd
 1344 0273 9F000000 		.4byte	0x9f
 1345 0277 05       		.uleb128 0x5
 1346 0278 14050000 		.4byte	.LASF43
 1347 027c 24       		.byte	0x24
 1348 027d 07       		.byte	0x7
 1349 027e FE       		.byte	0xfe
 1350 027f 04030000 		.4byte	0x304
 1351 0283 0B       		.uleb128 0xb
 1352 0284 723400   		.ascii	"r4\000"
 1353 0287 07       		.byte	0x7
 1354 0288 1101     		.2byte	0x111
 1355 028a 5F020000 		.4byte	0x25f
 1356 028e 02       		.byte	0x2
 1357 028f 23       		.byte	0x23
 1358 0290 00       		.uleb128 0
 1359 0291 0B       		.uleb128 0xb
 1360 0292 723500   		.ascii	"r5\000"
 1361 0295 07       		.byte	0x7
 1362 0296 1201     		.2byte	0x112
 1363 0298 5F020000 		.4byte	0x25f
 1364 029c 02       		.byte	0x2
 1365 029d 23       		.byte	0x23
 1366 029e 04       		.uleb128 0x4
 1367 029f 0B       		.uleb128 0xb
 1368 02a0 723600   		.ascii	"r6\000"
 1369 02a3 07       		.byte	0x7
 1370 02a4 1301     		.2byte	0x113
 1371 02a6 5F020000 		.4byte	0x25f
 1372 02aa 02       		.byte	0x2
 1373 02ab 23       		.byte	0x23
 1374 02ac 08       		.uleb128 0x8
 1375 02ad 0B       		.uleb128 0xb
 1376 02ae 723700   		.ascii	"r7\000"
 1377 02b1 07       		.byte	0x7
 1378 02b2 1401     		.2byte	0x114
 1379 02b4 5F020000 		.4byte	0x25f
 1380 02b8 02       		.byte	0x2
 1381 02b9 23       		.byte	0x23
 1382 02ba 0C       		.uleb128 0xc
 1383 02bb 0B       		.uleb128 0xb
 1384 02bc 723800   		.ascii	"r8\000"
 1385 02bf 07       		.byte	0x7
 1386 02c0 1501     		.2byte	0x115
 1387 02c2 5F020000 		.4byte	0x25f
 1388 02c6 02       		.byte	0x2
 1389 02c7 23       		.byte	0x23
 1390 02c8 10       		.uleb128 0x10
 1391 02c9 0B       		.uleb128 0xb
 1392 02ca 723900   		.ascii	"r9\000"
 1393 02cd 07       		.byte	0x7
 1394 02ce 1601     		.2byte	0x116
 1395 02d0 5F020000 		.4byte	0x25f
 1396 02d4 02       		.byte	0x2
 1397 02d5 23       		.byte	0x23
 1398 02d6 14       		.uleb128 0x14
ARM GAS  C:\Users\z80\AppData\Local\Temp\ccoVIiZT.s 			page 26


 1399 02d7 0B       		.uleb128 0xb
 1400 02d8 72313000 		.ascii	"r10\000"
 1401 02dc 07       		.byte	0x7
 1402 02dd 1701     		.2byte	0x117
 1403 02df 5F020000 		.4byte	0x25f
 1404 02e3 02       		.byte	0x2
 1405 02e4 23       		.byte	0x23
 1406 02e5 18       		.uleb128 0x18
 1407 02e6 0B       		.uleb128 0xb
 1408 02e7 72313100 		.ascii	"r11\000"
 1409 02eb 07       		.byte	0x7
 1410 02ec 1801     		.2byte	0x118
 1411 02ee 5F020000 		.4byte	0x25f
 1412 02f2 02       		.byte	0x2
 1413 02f3 23       		.byte	0x23
 1414 02f4 1C       		.uleb128 0x1c
 1415 02f5 0B       		.uleb128 0xb
 1416 02f6 6C7200   		.ascii	"lr\000"
 1417 02f9 07       		.byte	0x7
 1418 02fa 1901     		.2byte	0x119
 1419 02fc 5F020000 		.4byte	0x25f
 1420 0300 02       		.byte	0x2
 1421 0301 23       		.byte	0x23
 1422 0302 20       		.uleb128 0x20
 1423 0303 00       		.byte	0
 1424 0304 0C       		.uleb128 0xc
 1425 0305 0C050000 		.4byte	.LASF44
 1426 0309 04       		.byte	0x4
 1427 030a 07       		.byte	0x7
 1428 030b 2301     		.2byte	0x123
 1429 030d 21030000 		.4byte	0x321
 1430 0311 0B       		.uleb128 0xb
 1431 0312 72313300 		.ascii	"r13\000"
 1432 0316 07       		.byte	0x7
 1433 0317 2401     		.2byte	0x124
 1434 0319 21030000 		.4byte	0x321
 1435 031d 02       		.byte	0x2
 1436 031e 23       		.byte	0x23
 1437 031f 00       		.uleb128 0
 1438 0320 00       		.byte	0
 1439 0321 09       		.uleb128 0x9
 1440 0322 04       		.byte	0x4
 1441 0323 77020000 		.4byte	0x277
 1442 0327 0D       		.uleb128 0xd
 1443 0328 86000000 		.4byte	0x86
 1444 032c 0D       		.uleb128 0xd
 1445 032d E8000000 		.4byte	0xe8
 1446 0331 05       		.uleb128 0x5
 1447 0332 F0020000 		.4byte	.LASF45
 1448 0336 10       		.byte	0x10
 1449 0337 08       		.byte	0x8
 1450 0338 2C       		.byte	0x2c
 1451 0339 68030000 		.4byte	0x368
 1452 033d 06       		.uleb128 0x6
 1453 033e 21010000 		.4byte	.LASF46
 1454 0342 08       		.byte	0x8
 1455 0343 2D       		.byte	0x2d
ARM GAS  C:\Users\z80\AppData\Local\Temp\ccoVIiZT.s 			page 27


 1456 0344 32020000 		.4byte	0x232
 1457 0348 02       		.byte	0x2
 1458 0349 23       		.byte	0x23
 1459 034a 00       		.uleb128 0
 1460 034b 06       		.uleb128 0x6
 1461 034c 85050000 		.4byte	.LASF47
 1462 0350 08       		.byte	0x8
 1463 0351 2F       		.byte	0x2f
 1464 0352 2C020000 		.4byte	0x22c
 1465 0356 02       		.byte	0x2
 1466 0357 23       		.byte	0x23
 1467 0358 08       		.uleb128 0x8
 1468 0359 06       		.uleb128 0x6
 1469 035a DC040000 		.4byte	.LASF48
 1470 035e 08       		.byte	0x8
 1471 035f 31       		.byte	0x31
 1472 0360 68030000 		.4byte	0x368
 1473 0364 02       		.byte	0x2
 1474 0365 23       		.byte	0x23
 1475 0366 0C       		.uleb128 0xc
 1476 0367 00       		.byte	0
 1477 0368 09       		.uleb128 0x9
 1478 0369 04       		.byte	0x4
 1479 036a 31030000 		.4byte	0x331
 1480 036e 03       		.uleb128 0x3
 1481 036f F0020000 		.4byte	.LASF45
 1482 0373 08       		.byte	0x8
 1483 0374 33       		.byte	0x33
 1484 0375 31030000 		.4byte	0x331
 1485 0379 0E       		.uleb128 0xe
 1486 037a 04       		.byte	0x4
 1487 037b 06       		.byte	0x6
 1488 037c 90       		.byte	0x90
 1489 037d AE030000 		.4byte	0x3ae
 1490 0381 0F       		.uleb128 0xf
 1491 0382 0D000000 		.4byte	.LASF49
 1492 0386 06       		.byte	0x6
 1493 0387 97       		.byte	0x97
 1494 0388 D2000000 		.4byte	0xd2
 1495 038c 0F       		.uleb128 0xf
 1496 038d 7C000000 		.4byte	.LASF50
 1497 0391 06       		.byte	0x6
 1498 0392 9E       		.byte	0x9e
 1499 0393 D2000000 		.4byte	0xd2
 1500 0397 0F       		.uleb128 0xf
 1501 0398 67050000 		.4byte	.LASF51
 1502 039c 06       		.byte	0x6
 1503 039d A5       		.byte	0xa5
 1504 039e 6A020000 		.4byte	0x26a
 1505 03a2 0F       		.uleb128 0xf
 1506 03a3 14040000 		.4byte	.LASF52
 1507 03a7 06       		.byte	0x6
 1508 03a8 AC       		.byte	0xac
 1509 03a9 DD000000 		.4byte	0xdd
 1510 03ad 00       		.byte	0
 1511 03ae 09       		.uleb128 0x9
 1512 03af 04       		.byte	0x4
ARM GAS  C:\Users\z80\AppData\Local\Temp\ccoVIiZT.s 			page 28


 1513 03b0 B4030000 		.4byte	0x3b4
 1514 03b4 10       		.uleb128 0x10
 1515 03b5 B9030000 		.4byte	0x3b9
 1516 03b9 04       		.uleb128 0x4
 1517 03ba 01       		.byte	0x1
 1518 03bb 08       		.byte	0x8
 1519 03bc AC040000 		.4byte	.LASF53
 1520 03c0 09       		.uleb128 0x9
 1521 03c1 04       		.byte	0x4
 1522 03c2 6C020000 		.4byte	0x26c
 1523 03c6 09       		.uleb128 0x9
 1524 03c7 04       		.byte	0x4
 1525 03c8 6E030000 		.4byte	0x36e
 1526 03cc 03       		.uleb128 0x3
 1527 03cd B4020000 		.4byte	.LASF54
 1528 03d1 09       		.byte	0x9
 1529 03d2 37       		.byte	0x37
 1530 03d3 D7030000 		.4byte	0x3d7
 1531 03d7 05       		.uleb128 0x5
 1532 03d8 B4020000 		.4byte	.LASF54
 1533 03dc 20       		.byte	0x20
 1534 03dd 09       		.byte	0x9
 1535 03de 45       		.byte	0x45
 1536 03df 46040000 		.4byte	0x446
 1537 03e3 06       		.uleb128 0x6
 1538 03e4 DB000000 		.4byte	.LASF55
 1539 03e8 09       		.byte	0x9
 1540 03e9 46       		.byte	0x46
 1541 03ea 32020000 		.4byte	0x232
 1542 03ee 02       		.byte	0x2
 1543 03ef 23       		.byte	0x23
 1544 03f0 00       		.uleb128 0
 1545 03f1 06       		.uleb128 0x6
 1546 03f2 E6020000 		.4byte	.LASF56
 1547 03f6 09       		.byte	0x9
 1548 03f7 47       		.byte	0x47
 1549 03f8 30000000 		.4byte	0x30
 1550 03fc 02       		.byte	0x2
 1551 03fd 23       		.byte	0x23
 1552 03fe 08       		.uleb128 0x8
 1553 03ff 06       		.uleb128 0x6
 1554 0400 82010000 		.4byte	.LASF57
 1555 0404 09       		.byte	0x9
 1556 0405 48       		.byte	0x48
 1557 0406 69040000 		.4byte	0x469
 1558 040a 02       		.byte	0x2
 1559 040b 23       		.byte	0x23
 1560 040c 0C       		.uleb128 0xc
 1561 040d 06       		.uleb128 0x6
 1562 040e 30050000 		.4byte	.LASF58
 1563 0412 09       		.byte	0x9
 1564 0413 49       		.byte	0x49
 1565 0414 69040000 		.4byte	0x469
 1566 0418 02       		.byte	0x2
 1567 0419 23       		.byte	0x23
 1568 041a 10       		.uleb128 0x10
 1569 041b 06       		.uleb128 0x6
ARM GAS  C:\Users\z80\AppData\Local\Temp\ccoVIiZT.s 			page 29


 1570 041c 8B010000 		.4byte	.LASF59
 1571 0420 09       		.byte	0x9
 1572 0421 4B       		.byte	0x4b
 1573 0422 69040000 		.4byte	0x469
 1574 0426 02       		.byte	0x2
 1575 0427 23       		.byte	0x23
 1576 0428 14       		.uleb128 0x14
 1577 0429 06       		.uleb128 0x6
 1578 042a C1030000 		.4byte	.LASF60
 1579 042e 09       		.byte	0x9
 1580 042f 4C       		.byte	0x4c
 1581 0430 69040000 		.4byte	0x469
 1582 0434 02       		.byte	0x2
 1583 0435 23       		.byte	0x23
 1584 0436 18       		.uleb128 0x18
 1585 0437 06       		.uleb128 0x6
 1586 0438 4B050000 		.4byte	.LASF61
 1587 043c 09       		.byte	0x9
 1588 043d 4D       		.byte	0x4d
 1589 043e 46040000 		.4byte	0x446
 1590 0442 02       		.byte	0x2
 1591 0443 23       		.byte	0x23
 1592 0444 1C       		.uleb128 0x1c
 1593 0445 00       		.byte	0
 1594 0446 03       		.uleb128 0x3
 1595 0447 AA020000 		.4byte	.LASF62
 1596 044b 09       		.byte	0x9
 1597 044c 3A       		.byte	0x3a
 1598 044d 51040000 		.4byte	0x451
 1599 0451 09       		.uleb128 0x9
 1600 0452 04       		.byte	0x4
 1601 0453 57040000 		.4byte	0x457
 1602 0457 11       		.uleb128 0x11
 1603 0458 01       		.byte	0x1
 1604 0459 63040000 		.4byte	0x463
 1605 045d 12       		.uleb128 0x12
 1606 045e 63040000 		.4byte	0x463
 1607 0462 00       		.byte	0
 1608 0463 09       		.uleb128 0x9
 1609 0464 04       		.byte	0x4
 1610 0465 CC030000 		.4byte	0x3cc
 1611 0469 09       		.uleb128 0x9
 1612 046a 04       		.byte	0x4
 1613 046b 49000000 		.4byte	0x49
 1614 046f 03       		.uleb128 0x3
 1615 0470 5C050000 		.4byte	.LASF63
 1616 0474 09       		.byte	0x9
 1617 0475 76       		.byte	0x76
 1618 0476 CC030000 		.4byte	0x3cc
 1619 047a 0D       		.uleb128 0xd
 1620 047b 62000000 		.4byte	0x62
 1621 047f 0D       		.uleb128 0xd
 1622 0480 74000000 		.4byte	0x74
 1623 0484 13       		.uleb128 0x13
 1624 0485 10       		.byte	0x10
 1625 0486 0A       		.byte	0xa
 1626 0487 2D03     		.2byte	0x32d
ARM GAS  C:\Users\z80\AppData\Local\Temp\ccoVIiZT.s 			page 30


 1627 0489 CA040000 		.4byte	0x4ca
 1628 048d 0B       		.uleb128 0xb
 1629 048e 43435200 		.ascii	"CCR\000"
 1630 0492 0A       		.byte	0xa
 1631 0493 2F03     		.2byte	0x32f
 1632 0495 27030000 		.4byte	0x327
 1633 0499 02       		.byte	0x2
 1634 049a 23       		.byte	0x23
 1635 049b 00       		.uleb128 0
 1636 049c 14       		.uleb128 0x14
 1637 049d 40050000 		.4byte	.LASF64
 1638 04a1 0A       		.byte	0xa
 1639 04a2 3003     		.2byte	0x330
 1640 04a4 27030000 		.4byte	0x327
 1641 04a8 02       		.byte	0x2
 1642 04a9 23       		.byte	0x23
 1643 04aa 04       		.uleb128 0x4
 1644 04ab 14       		.uleb128 0x14
 1645 04ac 2C020000 		.4byte	.LASF65
 1646 04b0 0A       		.byte	0xa
 1647 04b1 3103     		.2byte	0x331
 1648 04b3 27030000 		.4byte	0x327
 1649 04b7 02       		.byte	0x2
 1650 04b8 23       		.byte	0x23
 1651 04b9 08       		.uleb128 0x8
 1652 04ba 14       		.uleb128 0x14
 1653 04bb 46050000 		.4byte	.LASF66
 1654 04bf 0A       		.byte	0xa
 1655 04c0 3203     		.2byte	0x332
 1656 04c2 27030000 		.4byte	0x327
 1657 04c6 02       		.byte	0x2
 1658 04c7 23       		.byte	0x23
 1659 04c8 0C       		.uleb128 0xc
 1660 04c9 00       		.byte	0
 1661 04ca 15       		.uleb128 0x15
 1662 04cb 43030000 		.4byte	.LASF67
 1663 04cf 0A       		.byte	0xa
 1664 04d0 3303     		.2byte	0x333
 1665 04d2 84040000 		.4byte	0x484
 1666 04d6 13       		.uleb128 0x13
 1667 04d7 1C       		.byte	0x1c
 1668 04d8 0A       		.byte	0xa
 1669 04d9 F803     		.2byte	0x3f8
 1670 04db 49050000 		.4byte	0x549
 1671 04df 0B       		.uleb128 0xb
 1672 04e0 43524C00 		.ascii	"CRL\000"
 1673 04e4 0A       		.byte	0xa
 1674 04e5 FA03     		.2byte	0x3fa
 1675 04e7 27030000 		.4byte	0x327
 1676 04eb 02       		.byte	0x2
 1677 04ec 23       		.byte	0x23
 1678 04ed 00       		.uleb128 0
 1679 04ee 0B       		.uleb128 0xb
 1680 04ef 43524800 		.ascii	"CRH\000"
 1681 04f3 0A       		.byte	0xa
 1682 04f4 FB03     		.2byte	0x3fb
 1683 04f6 27030000 		.4byte	0x327
ARM GAS  C:\Users\z80\AppData\Local\Temp\ccoVIiZT.s 			page 31


 1684 04fa 02       		.byte	0x2
 1685 04fb 23       		.byte	0x23
 1686 04fc 04       		.uleb128 0x4
 1687 04fd 0B       		.uleb128 0xb
 1688 04fe 49445200 		.ascii	"IDR\000"
 1689 0502 0A       		.byte	0xa
 1690 0503 FC03     		.2byte	0x3fc
 1691 0505 27030000 		.4byte	0x327
 1692 0509 02       		.byte	0x2
 1693 050a 23       		.byte	0x23
 1694 050b 08       		.uleb128 0x8
 1695 050c 0B       		.uleb128 0xb
 1696 050d 4F445200 		.ascii	"ODR\000"
 1697 0511 0A       		.byte	0xa
 1698 0512 FD03     		.2byte	0x3fd
 1699 0514 27030000 		.4byte	0x327
 1700 0518 02       		.byte	0x2
 1701 0519 23       		.byte	0x23
 1702 051a 0C       		.uleb128 0xc
 1703 051b 14       		.uleb128 0x14
 1704 051c 36050000 		.4byte	.LASF68
 1705 0520 0A       		.byte	0xa
 1706 0521 FE03     		.2byte	0x3fe
 1707 0523 27030000 		.4byte	0x327
 1708 0527 02       		.byte	0x2
 1709 0528 23       		.byte	0x23
 1710 0529 10       		.uleb128 0x10
 1711 052a 0B       		.uleb128 0xb
 1712 052b 42525200 		.ascii	"BRR\000"
 1713 052f 0A       		.byte	0xa
 1714 0530 FF03     		.2byte	0x3ff
 1715 0532 27030000 		.4byte	0x327
 1716 0536 02       		.byte	0x2
 1717 0537 23       		.byte	0x23
 1718 0538 14       		.uleb128 0x14
 1719 0539 14       		.uleb128 0x14
 1720 053a 49020000 		.4byte	.LASF69
 1721 053e 0A       		.byte	0xa
 1722 053f 0004     		.2byte	0x400
 1723 0541 27030000 		.4byte	0x327
 1724 0545 02       		.byte	0x2
 1725 0546 23       		.byte	0x23
 1726 0547 18       		.uleb128 0x18
 1727 0548 00       		.byte	0
 1728 0549 15       		.uleb128 0x15
 1729 054a 3C020000 		.4byte	.LASF70
 1730 054e 0A       		.byte	0xa
 1731 054f 0104     		.2byte	0x401
 1732 0551 D6040000 		.4byte	0x4d6
 1733 0555 13       		.uleb128 0x13
 1734 0556 24       		.byte	0x24
 1735 0557 0A       		.byte	0xa
 1736 0558 9704     		.2byte	0x497
 1737 055a 6B060000 		.4byte	0x66b
 1738 055e 0B       		.uleb128 0xb
 1739 055f 43523100 		.ascii	"CR1\000"
 1740 0563 0A       		.byte	0xa
ARM GAS  C:\Users\z80\AppData\Local\Temp\ccoVIiZT.s 			page 32


 1741 0564 9904     		.2byte	0x499
 1742 0566 7A040000 		.4byte	0x47a
 1743 056a 02       		.byte	0x2
 1744 056b 23       		.byte	0x23
 1745 056c 00       		.uleb128 0
 1746 056d 14       		.uleb128 0x14
 1747 056e 62030000 		.4byte	.LASF71
 1748 0572 0A       		.byte	0xa
 1749 0573 9A04     		.2byte	0x49a
 1750 0575 62000000 		.4byte	0x62
 1751 0579 02       		.byte	0x2
 1752 057a 23       		.byte	0x23
 1753 057b 02       		.uleb128 0x2
 1754 057c 0B       		.uleb128 0xb
 1755 057d 43523200 		.ascii	"CR2\000"
 1756 0581 0A       		.byte	0xa
 1757 0582 9B04     		.2byte	0x49b
 1758 0584 7A040000 		.4byte	0x47a
 1759 0588 02       		.byte	0x2
 1760 0589 23       		.byte	0x23
 1761 058a 04       		.uleb128 0x4
 1762 058b 14       		.uleb128 0x14
 1763 058c 6C030000 		.4byte	.LASF72
 1764 0590 0A       		.byte	0xa
 1765 0591 9C04     		.2byte	0x49c
 1766 0593 62000000 		.4byte	0x62
 1767 0597 02       		.byte	0x2
 1768 0598 23       		.byte	0x23
 1769 0599 06       		.uleb128 0x6
 1770 059a 0B       		.uleb128 0xb
 1771 059b 535200   		.ascii	"SR\000"
 1772 059e 0A       		.byte	0xa
 1773 059f 9D04     		.2byte	0x49d
 1774 05a1 7A040000 		.4byte	0x47a
 1775 05a5 02       		.byte	0x2
 1776 05a6 23       		.byte	0x23
 1777 05a7 08       		.uleb128 0x8
 1778 05a8 14       		.uleb128 0x14
 1779 05a9 76030000 		.4byte	.LASF73
 1780 05ad 0A       		.byte	0xa
 1781 05ae 9E04     		.2byte	0x49e
 1782 05b0 62000000 		.4byte	0x62
 1783 05b4 02       		.byte	0x2
 1784 05b5 23       		.byte	0x23
 1785 05b6 0A       		.uleb128 0xa
 1786 05b7 0B       		.uleb128 0xb
 1787 05b8 445200   		.ascii	"DR\000"
 1788 05bb 0A       		.byte	0xa
 1789 05bc 9F04     		.2byte	0x49f
 1790 05be 7A040000 		.4byte	0x47a
 1791 05c2 02       		.byte	0x2
 1792 05c3 23       		.byte	0x23
 1793 05c4 0C       		.uleb128 0xc
 1794 05c5 14       		.uleb128 0x14
 1795 05c6 80030000 		.4byte	.LASF74
 1796 05ca 0A       		.byte	0xa
 1797 05cb A004     		.2byte	0x4a0
ARM GAS  C:\Users\z80\AppData\Local\Temp\ccoVIiZT.s 			page 33


 1798 05cd 62000000 		.4byte	0x62
 1799 05d1 02       		.byte	0x2
 1800 05d2 23       		.byte	0x23
 1801 05d3 0E       		.uleb128 0xe
 1802 05d4 14       		.uleb128 0x14
 1803 05d5 76000000 		.4byte	.LASF75
 1804 05d9 0A       		.byte	0xa
 1805 05da A104     		.2byte	0x4a1
 1806 05dc 7A040000 		.4byte	0x47a
 1807 05e0 02       		.byte	0x2
 1808 05e1 23       		.byte	0x23
 1809 05e2 10       		.uleb128 0x10
 1810 05e3 14       		.uleb128 0x14
 1811 05e4 8A030000 		.4byte	.LASF76
 1812 05e8 0A       		.byte	0xa
 1813 05e9 A204     		.2byte	0x4a2
 1814 05eb 62000000 		.4byte	0x62
 1815 05ef 02       		.byte	0x2
 1816 05f0 23       		.byte	0x23
 1817 05f1 12       		.uleb128 0x12
 1818 05f2 14       		.uleb128 0x14
 1819 05f3 7B040000 		.4byte	.LASF77
 1820 05f7 0A       		.byte	0xa
 1821 05f8 A304     		.2byte	0x4a3
 1822 05fa 7A040000 		.4byte	0x47a
 1823 05fe 02       		.byte	0x2
 1824 05ff 23       		.byte	0x23
 1825 0600 14       		.uleb128 0x14
 1826 0601 14       		.uleb128 0x14
 1827 0602 59040000 		.4byte	.LASF78
 1828 0606 0A       		.byte	0xa
 1829 0607 A404     		.2byte	0x4a4
 1830 0609 62000000 		.4byte	0x62
 1831 060d 02       		.byte	0x2
 1832 060e 23       		.byte	0x23
 1833 060f 16       		.uleb128 0x16
 1834 0610 14       		.uleb128 0x14
 1835 0611 C4040000 		.4byte	.LASF79
 1836 0615 0A       		.byte	0xa
 1837 0616 A504     		.2byte	0x4a5
 1838 0618 7A040000 		.4byte	0x47a
 1839 061c 02       		.byte	0x2
 1840 061d 23       		.byte	0x23
 1841 061e 18       		.uleb128 0x18
 1842 061f 14       		.uleb128 0x14
 1843 0620 9B030000 		.4byte	.LASF80
 1844 0624 0A       		.byte	0xa
 1845 0625 A604     		.2byte	0x4a6
 1846 0627 62000000 		.4byte	0x62
 1847 062b 02       		.byte	0x2
 1848 062c 23       		.byte	0x23
 1849 062d 1A       		.uleb128 0x1a
 1850 062e 14       		.uleb128 0x14
 1851 062f 19010000 		.4byte	.LASF81
 1852 0633 0A       		.byte	0xa
 1853 0634 A704     		.2byte	0x4a7
 1854 0636 7A040000 		.4byte	0x47a
ARM GAS  C:\Users\z80\AppData\Local\Temp\ccoVIiZT.s 			page 34


 1855 063a 02       		.byte	0x2
 1856 063b 23       		.byte	0x23
 1857 063c 1C       		.uleb128 0x1c
 1858 063d 14       		.uleb128 0x14
 1859 063e A5030000 		.4byte	.LASF82
 1860 0642 0A       		.byte	0xa
 1861 0643 A804     		.2byte	0x4a8
 1862 0645 62000000 		.4byte	0x62
 1863 0649 02       		.byte	0x2
 1864 064a 23       		.byte	0x23
 1865 064b 1E       		.uleb128 0x1e
 1866 064c 14       		.uleb128 0x14
 1867 064d E0020000 		.4byte	.LASF83
 1868 0651 0A       		.byte	0xa
 1869 0652 A904     		.2byte	0x4a9
 1870 0654 7A040000 		.4byte	0x47a
 1871 0658 02       		.byte	0x2
 1872 0659 23       		.byte	0x23
 1873 065a 20       		.uleb128 0x20
 1874 065b 14       		.uleb128 0x14
 1875 065c AF030000 		.4byte	.LASF84
 1876 0660 0A       		.byte	0xa
 1877 0661 AA04     		.2byte	0x4aa
 1878 0663 62000000 		.4byte	0x62
 1879 0667 02       		.byte	0x2
 1880 0668 23       		.byte	0x23
 1881 0669 22       		.uleb128 0x22
 1882 066a 00       		.byte	0
 1883 066b 15       		.uleb128 0x15
 1884 066c A0040000 		.4byte	.LASF85
 1885 0670 0A       		.byte	0xa
 1886 0671 AB04     		.2byte	0x4ab
 1887 0673 55050000 		.4byte	0x555
 1888 0677 08       		.uleb128 0x8
 1889 0678 0C       		.byte	0xc
 1890 0679 0B       		.byte	0xb
 1891 067a C2       		.byte	0xc2
 1892 067b C6060000 		.4byte	0x6c6
 1893 067f 06       		.uleb128 0x6
 1894 0680 38040000 		.4byte	.LASF86
 1895 0684 0B       		.byte	0xb
 1896 0685 C3       		.byte	0xc3
 1897 0686 C6060000 		.4byte	0x6c6
 1898 068a 02       		.byte	0x2
 1899 068b 23       		.byte	0x23
 1900 068c 00       		.uleb128 0
 1901 068d 06       		.uleb128 0x6
 1902 068e 57030000 		.4byte	.LASF87
 1903 0692 0B       		.byte	0xb
 1904 0693 C4       		.byte	0xc4
 1905 0694 CC060000 		.4byte	0x6cc
 1906 0698 02       		.byte	0x2
 1907 0699 23       		.byte	0x23
 1908 069a 04       		.uleb128 0x4
 1909 069b 06       		.uleb128 0x6
 1910 069c 4E020000 		.4byte	.LASF88
 1911 06a0 0B       		.byte	0xb
ARM GAS  C:\Users\z80\AppData\Local\Temp\ccoVIiZT.s 			page 35


 1912 06a1 C5       		.byte	0xc5
 1913 06a2 49000000 		.4byte	0x49
 1914 06a6 02       		.byte	0x2
 1915 06a7 23       		.byte	0x23
 1916 06a8 08       		.uleb128 0x8
 1917 06a9 06       		.uleb128 0x6
 1918 06aa D5010000 		.4byte	.LASF89
 1919 06ae 0B       		.byte	0xb
 1920 06af C7       		.byte	0xc7
 1921 06b0 49000000 		.4byte	0x49
 1922 06b4 02       		.byte	0x2
 1923 06b5 23       		.byte	0x23
 1924 06b6 09       		.uleb128 0x9
 1925 06b7 06       		.uleb128 0x6
 1926 06b8 85000000 		.4byte	.LASF90
 1927 06bc 0B       		.byte	0xb
 1928 06bd C8       		.byte	0xc8
 1929 06be 49000000 		.4byte	0x49
 1930 06c2 02       		.byte	0x2
 1931 06c3 23       		.byte	0x23
 1932 06c4 0A       		.uleb128 0xa
 1933 06c5 00       		.byte	0
 1934 06c6 09       		.uleb128 0x9
 1935 06c7 04       		.byte	0x4
 1936 06c8 CA040000 		.4byte	0x4ca
 1937 06cc 09       		.uleb128 0x9
 1938 06cd 04       		.byte	0x4
 1939 06ce 27030000 		.4byte	0x327
 1940 06d2 03       		.uleb128 0x3
 1941 06d3 DF030000 		.4byte	.LASF91
 1942 06d7 0B       		.byte	0xb
 1943 06d8 C9       		.byte	0xc9
 1944 06d9 77060000 		.4byte	0x677
 1945 06dd 03       		.uleb128 0x3
 1946 06de 45000000 		.4byte	.LASF92
 1947 06e2 0C       		.byte	0xc
 1948 06e3 78       		.byte	0x78
 1949 06e4 86000000 		.4byte	0x86
 1950 06e8 03       		.uleb128 0x3
 1951 06e9 01050000 		.4byte	.LASF93
 1952 06ed 0C       		.byte	0xc
 1953 06ee 85       		.byte	0x85
 1954 06ef F3060000 		.4byte	0x6f3
 1955 06f3 09       		.uleb128 0x9
 1956 06f4 04       		.byte	0x4
 1957 06f5 49050000 		.4byte	0x549
 1958 06f9 09       		.uleb128 0x9
 1959 06fa 04       		.byte	0x4
 1960 06fb FF060000 		.4byte	0x6ff
 1961 06ff 10       		.uleb128 0x10
 1962 0700 D2060000 		.4byte	0x6d2
 1963 0704 16       		.uleb128 0x16
 1964 0705 01       		.byte	0x1
 1965 0706 0D       		.byte	0xd
 1966 0707 55       		.byte	0x55
 1967 0708 2B070000 		.4byte	0x72b
 1968 070c 17       		.uleb128 0x17
ARM GAS  C:\Users\z80\AppData\Local\Temp\ccoVIiZT.s 			page 36


 1969 070d 25050000 		.4byte	.LASF94
 1970 0711 00       		.sleb128 0
 1971 0712 17       		.uleb128 0x17
 1972 0713 10010000 		.4byte	.LASF95
 1973 0717 01       		.sleb128 1
 1974 0718 17       		.uleb128 0x17
 1975 0719 1B050000 		.4byte	.LASF96
 1976 071d 02       		.sleb128 2
 1977 071e 17       		.uleb128 0x17
 1978 071f 2F000000 		.4byte	.LASF97
 1979 0723 03       		.sleb128 3
 1980 0724 17       		.uleb128 0x17
 1981 0725 8C000000 		.4byte	.LASF98
 1982 0729 04       		.sleb128 4
 1983 072a 00       		.byte	0
 1984 072b 03       		.uleb128 0x3
 1985 072c D1040000 		.4byte	.LASF99
 1986 0730 0D       		.byte	0xd
 1987 0731 5B       		.byte	0x5b
 1988 0732 04070000 		.4byte	0x704
 1989 0736 15       		.uleb128 0x15
 1990 0737 99000000 		.4byte	.LASF100
 1991 073b 0E       		.byte	0xe
 1992 073c 0701     		.2byte	0x107
 1993 073e 42070000 		.4byte	0x742
 1994 0742 0C       		.uleb128 0xc
 1995 0743 99000000 		.4byte	.LASF100
 1996 0747 1C       		.byte	0x1c
 1997 0748 0E       		.byte	0xe
 1998 0749 2B01     		.2byte	0x12b
 1999 074b B9070000 		.4byte	0x7b9
 2000 074f 14       		.uleb128 0x14
 2001 0750 6A010000 		.4byte	.LASF101
 2002 0754 0E       		.byte	0xe
 2003 0755 2F01     		.2byte	0x12f
 2004 0757 2B070000 		.4byte	0x72b
 2005 075b 02       		.byte	0x2
 2006 075c 23       		.byte	0x23
 2007 075d 00       		.uleb128 0
 2008 075e 14       		.uleb128 0x14
 2009 075f BD040000 		.4byte	.LASF102
 2010 0763 0E       		.byte	0xe
 2011 0764 3301     		.2byte	0x133
 2012 0766 2F080000 		.4byte	0x82f
 2013 076a 02       		.byte	0x2
 2014 076b 23       		.byte	0x23
 2015 076c 04       		.uleb128 0x4
 2016 076d 0B       		.uleb128 0xb
 2017 076e 73706900 		.ascii	"spi\000"
 2018 0772 0E       		.byte	0xe
 2019 0773 4B01     		.2byte	0x14b
 2020 0775 3A080000 		.4byte	0x83a
 2021 0779 02       		.byte	0x2
 2022 077a 23       		.byte	0x23
 2023 077b 08       		.uleb128 0x8
 2024 077c 14       		.uleb128 0x14
 2025 077d 00000000 		.4byte	.LASF103
ARM GAS  C:\Users\z80\AppData\Local\Temp\ccoVIiZT.s 			page 37


 2026 0781 0E       		.byte	0xe
 2027 0782 4F01     		.2byte	0x14f
 2028 0784 F9060000 		.4byte	0x6f9
 2029 0788 02       		.byte	0x2
 2030 0789 23       		.byte	0x23
 2031 078a 0C       		.uleb128 0xc
 2032 078b 14       		.uleb128 0x14
 2033 078c 5C030000 		.4byte	.LASF104
 2034 0790 0E       		.byte	0xe
 2035 0791 5301     		.2byte	0x153
 2036 0793 F9060000 		.4byte	0x6f9
 2037 0797 02       		.byte	0x2
 2038 0798 23       		.byte	0x23
 2039 0799 10       		.uleb128 0x10
 2040 079a 14       		.uleb128 0x14
 2041 079b A9010000 		.4byte	.LASF105
 2042 079f 0E       		.byte	0xe
 2043 07a0 5701     		.2byte	0x157
 2044 07a2 86000000 		.4byte	0x86
 2045 07a6 02       		.byte	0x2
 2046 07a7 23       		.byte	0x23
 2047 07a8 14       		.uleb128 0x14
 2048 07a9 14       		.uleb128 0x14
 2049 07aa 1E030000 		.4byte	.LASF106
 2050 07ae 0E       		.byte	0xe
 2051 07af 5B01     		.2byte	0x15b
 2052 07b1 86000000 		.4byte	0x86
 2053 07b5 02       		.byte	0x2
 2054 07b6 23       		.byte	0x23
 2055 07b7 18       		.uleb128 0x18
 2056 07b8 00       		.byte	0
 2057 07b9 15       		.uleb128 0x15
 2058 07ba DF010000 		.4byte	.LASF107
 2059 07be 0E       		.byte	0xe
 2060 07bf 0F01     		.2byte	0x10f
 2061 07c1 C5070000 		.4byte	0x7c5
 2062 07c5 09       		.uleb128 0x9
 2063 07c6 04       		.byte	0x4
 2064 07c7 CB070000 		.4byte	0x7cb
 2065 07cb 11       		.uleb128 0x11
 2066 07cc 01       		.byte	0x1
 2067 07cd D7070000 		.4byte	0x7d7
 2068 07d1 12       		.uleb128 0x12
 2069 07d2 D7070000 		.4byte	0x7d7
 2070 07d6 00       		.byte	0
 2071 07d7 09       		.uleb128 0x9
 2072 07d8 04       		.byte	0x4
 2073 07d9 36070000 		.4byte	0x736
 2074 07dd 13       		.uleb128 0x13
 2075 07de 0C       		.byte	0xc
 2076 07df 0E       		.byte	0xe
 2077 07e0 1401     		.2byte	0x114
 2078 07e2 23080000 		.4byte	0x823
 2079 07e6 14       		.uleb128 0x14
 2080 07e7 A2010000 		.4byte	.LASF108
 2081 07eb 0E       		.byte	0xe
 2082 07ec 1801     		.2byte	0x118
ARM GAS  C:\Users\z80\AppData\Local\Temp\ccoVIiZT.s 			page 38


 2083 07ee B9070000 		.4byte	0x7b9
 2084 07f2 02       		.byte	0x2
 2085 07f3 23       		.byte	0x23
 2086 07f4 00       		.uleb128 0
 2087 07f5 14       		.uleb128 0x14
 2088 07f6 A3000000 		.4byte	.LASF109
 2089 07fa 0E       		.byte	0xe
 2090 07fb 1D01     		.2byte	0x11d
 2091 07fd E8060000 		.4byte	0x6e8
 2092 0801 02       		.byte	0x2
 2093 0802 23       		.byte	0x23
 2094 0803 04       		.uleb128 0x4
 2095 0804 14       		.uleb128 0x14
 2096 0805 59000000 		.4byte	.LASF110
 2097 0809 0E       		.byte	0xe
 2098 080a 2101     		.2byte	0x121
 2099 080c 62000000 		.4byte	0x62
 2100 0810 02       		.byte	0x2
 2101 0811 23       		.byte	0x23
 2102 0812 08       		.uleb128 0x8
 2103 0813 0B       		.uleb128 0xb
 2104 0814 63723100 		.ascii	"cr1\000"
 2105 0818 0E       		.byte	0xe
 2106 0819 2501     		.2byte	0x125
 2107 081b 62000000 		.4byte	0x62
 2108 081f 02       		.byte	0x2
 2109 0820 23       		.byte	0x23
 2110 0821 0A       		.uleb128 0xa
 2111 0822 00       		.byte	0
 2112 0823 15       		.uleb128 0x15
 2113 0824 75050000 		.4byte	.LASF111
 2114 0828 0E       		.byte	0xe
 2115 0829 2601     		.2byte	0x126
 2116 082b DD070000 		.4byte	0x7dd
 2117 082f 09       		.uleb128 0x9
 2118 0830 04       		.byte	0x4
 2119 0831 35080000 		.4byte	0x835
 2120 0835 10       		.uleb128 0x10
 2121 0836 23080000 		.4byte	0x823
 2122 083a 09       		.uleb128 0x9
 2123 083b 04       		.byte	0x4
 2124 083c 6B060000 		.4byte	0x66b
 2125 0840 18       		.uleb128 0x18
 2126 0841 01       		.byte	0x1
 2127 0842 D8020000 		.4byte	.LASF112
 2128 0846 01       		.byte	0x1
 2129 0847 2C       		.byte	0x2c
 2130 0848 01       		.byte	0x1
 2131 0849 00000000 		.4byte	.LFB62
 2132 084d CA000000 		.4byte	.LFE62
 2133 0851 00000000 		.4byte	.LLST0
 2134 0855 18       		.uleb128 0x18
 2135 0856 01       		.byte	0x1
 2136 0857 F3010000 		.4byte	.LASF113
 2137 085b 01       		.byte	0x1
 2138 085c 3F       		.byte	0x3f
 2139 085d 01       		.byte	0x1
ARM GAS  C:\Users\z80\AppData\Local\Temp\ccoVIiZT.s 			page 39


 2140 085e 00000000 		.4byte	.LFB63
 2141 0862 36000000 		.4byte	.LFE63
 2142 0866 20000000 		.4byte	.LLST1
 2143 086a 19       		.uleb128 0x19
 2144 086b FD010000 		.4byte	.LASF116
 2145 086f 01       		.byte	0x1
 2146 0870 48       		.byte	0x48
 2147 0871 01       		.byte	0x1
 2148 0872 00000000 		.4byte	.LFB64
 2149 0876 D0020000 		.4byte	.LFE64
 2150 087a 40000000 		.4byte	.LLST2
 2151 087e F9080000 		.4byte	0x8f9
 2152 0882 1A       		.uleb128 0x1a
 2153 0883 3B050000 		.4byte	.LASF118
 2154 0887 01       		.byte	0x1
 2155 0888 48       		.byte	0x48
 2156 0889 D7070000 		.4byte	0x7d7
 2157 088d 02       		.byte	0x2
 2158 088e 91       		.byte	0x91
 2159 088f 64       		.sleb128 -28
 2160 0890 1B       		.uleb128 0x1b
 2161 0891 76020000 		.4byte	.LASF114
 2162 0895 01       		.byte	0x1
 2163 0896 4E       		.byte	0x4e
 2164 0897 29000000 		.4byte	0x29
 2165 089b 02       		.byte	0x2
 2166 089c 91       		.byte	0x91
 2167 089d 74       		.sleb128 -12
 2168 089e 1B       		.uleb128 0x1b
 2169 089f ED010000 		.4byte	.LASF115
 2170 08a3 01       		.byte	0x1
 2171 08a4 54       		.byte	0x54
 2172 08a5 29000000 		.4byte	0x29
 2173 08a9 02       		.byte	0x2
 2174 08aa 91       		.byte	0x91
 2175 08ab 70       		.sleb128 -16
 2176 08ac 1C       		.uleb128 0x1c
 2177 08ad 14000000 		.4byte	.LBB2
 2178 08b1 1C000000 		.4byte	.LBE2
 2179 08b5 C7080000 		.4byte	0x8c7
 2180 08b9 1D       		.uleb128 0x1d
 2181 08ba 746D7000 		.ascii	"tmp\000"
 2182 08be 01       		.byte	0x1
 2183 08bf 4C       		.byte	0x4c
 2184 08c0 86000000 		.4byte	0x86
 2185 08c4 01       		.byte	0x1
 2186 08c5 53       		.byte	0x53
 2187 08c6 00       		.byte	0
 2188 08c7 1C       		.uleb128 0x1c
 2189 08c8 42010000 		.4byte	.LBB3
 2190 08cc B2020000 		.4byte	.LBE3
 2191 08d0 E1080000 		.4byte	0x8e1
 2192 08d4 1D       		.uleb128 0x1d
 2193 08d5 7600     		.ascii	"v\000"
 2194 08d7 01       		.byte	0x1
 2195 08d8 6C       		.byte	0x6c
 2196 08d9 49000000 		.4byte	0x49
ARM GAS  C:\Users\z80\AppData\Local\Temp\ccoVIiZT.s 			page 40


 2197 08dd 02       		.byte	0x2
 2198 08de 91       		.byte	0x91
 2199 08df 6F       		.sleb128 -17
 2200 08e0 00       		.byte	0
 2201 08e1 1E       		.uleb128 0x1e
 2202 08e2 B6020000 		.4byte	.LBB4
 2203 08e6 BE020000 		.4byte	.LBE4
 2204 08ea 1D       		.uleb128 0x1d
 2205 08eb 746D7000 		.ascii	"tmp\000"
 2206 08ef 01       		.byte	0x1
 2207 08f0 9E       		.byte	0x9e
 2208 08f1 86000000 		.4byte	0x86
 2209 08f5 01       		.byte	0x1
 2210 08f6 53       		.byte	0x53
 2211 08f7 00       		.byte	0
 2212 08f8 00       		.byte	0
 2213 08f9 1F       		.uleb128 0x1f
 2214 08fa 01       		.byte	0x1
 2215 08fb D2000000 		.4byte	.LASF146
 2216 08ff 01       		.byte	0x1
 2217 0900 A2       		.byte	0xa2
 2218 0901 01       		.byte	0x1
 2219 0902 11090000 		.4byte	0x911
 2220 0906 00000000 		.4byte	.LFB65
 2221 090a 0C000000 		.4byte	.LFE65
 2222 090e 02       		.byte	0x2
 2223 090f 7D       		.byte	0x7d
 2224 0910 00       		.sleb128 0
 2225 0911 09       		.uleb128 0x9
 2226 0912 04       		.byte	0x4
 2227 0913 6F040000 		.4byte	0x46f
 2228 0917 19       		.uleb128 0x19
 2229 0918 28030000 		.4byte	.LASF117
 2230 091c 01       		.byte	0x1
 2231 091d A7       		.byte	0xa7
 2232 091e 01       		.byte	0x1
 2233 091f 00000000 		.4byte	.LFB66
 2234 0923 5A000000 		.4byte	.LFE66
 2235 0927 6C000000 		.4byte	.LLST3
 2236 092b 3E090000 		.4byte	0x93e
 2237 092f 1A       		.uleb128 0x1a
 2238 0930 CB040000 		.4byte	.LASF119
 2239 0934 01       		.byte	0x1
 2240 0935 A7       		.byte	0xa7
 2241 0936 29000000 		.4byte	0x29
 2242 093a 02       		.byte	0x2
 2243 093b 91       		.byte	0x91
 2244 093c 7C       		.sleb128 -4
 2245 093d 00       		.byte	0
 2246 093e 20       		.uleb128 0x20
 2247 093f 01       		.byte	0x1
 2248 0940 29010000 		.4byte	.LASF121
 2249 0944 01       		.byte	0x1
 2250 0945 C5       		.byte	0xc5
 2251 0946 01       		.byte	0x1
 2252 0947 00000000 		.4byte	.LFB67
 2253 094b 28000000 		.4byte	.LFE67
ARM GAS  C:\Users\z80\AppData\Local\Temp\ccoVIiZT.s 			page 41


 2254 094f 8C000000 		.4byte	.LLST4
 2255 0953 98090000 		.4byte	0x998
 2256 0957 1A       		.uleb128 0x1a
 2257 0958 CC020000 		.4byte	.LASF120
 2258 095c 01       		.byte	0x1
 2259 095d C5       		.byte	0xc5
 2260 095e 98090000 		.4byte	0x998
 2261 0962 02       		.byte	0x2
 2262 0963 91       		.byte	0x91
 2263 0964 74       		.sleb128 -12
 2264 0965 1C       		.uleb128 0x1c
 2265 0966 06000000 		.4byte	.LBB5
 2266 096a 0E000000 		.4byte	.LBE5
 2267 096e 80090000 		.4byte	0x980
 2268 0972 1D       		.uleb128 0x1d
 2269 0973 746D7000 		.ascii	"tmp\000"
 2270 0977 01       		.byte	0x1
 2271 0978 C7       		.byte	0xc7
 2272 0979 86000000 		.4byte	0x86
 2273 097d 01       		.byte	0x1
 2274 097e 53       		.byte	0x53
 2275 097f 00       		.byte	0
 2276 0980 1E       		.uleb128 0x1e
 2277 0981 1C000000 		.4byte	.LBB6
 2278 0985 24000000 		.4byte	.LBE6
 2279 0989 1D       		.uleb128 0x1d
 2280 098a 746D7000 		.ascii	"tmp\000"
 2281 098e 01       		.byte	0x1
 2282 098f C9       		.byte	0xc9
 2283 0990 86000000 		.4byte	0x86
 2284 0994 01       		.byte	0x1
 2285 0995 53       		.byte	0x53
 2286 0996 00       		.byte	0
 2287 0997 00       		.byte	0
 2288 0998 09       		.uleb128 0x9
 2289 0999 04       		.byte	0x4
 2290 099a 29000000 		.4byte	0x29
 2291 099e 20       		.uleb128 0x20
 2292 099f 01       		.byte	0x1
 2293 09a0 37030000 		.4byte	.LASF122
 2294 09a4 01       		.byte	0x1
 2295 09a5 CC       		.byte	0xcc
 2296 09a6 01       		.byte	0x1
 2297 09a7 00000000 		.4byte	.LFB68
 2298 09ab 52000000 		.4byte	.LFE68
 2299 09af B8000000 		.4byte	.LLST5
 2300 09b3 C6090000 		.4byte	0x9c6
 2301 09b7 1A       		.uleb128 0x1a
 2302 09b8 CC020000 		.4byte	.LASF120
 2303 09bc 01       		.byte	0x1
 2304 09bd CC       		.byte	0xcc
 2305 09be 98090000 		.4byte	0x998
 2306 09c2 02       		.byte	0x2
 2307 09c3 91       		.byte	0x91
 2308 09c4 7C       		.sleb128 -4
 2309 09c5 00       		.byte	0
 2310 09c6 20       		.uleb128 0x20
ARM GAS  C:\Users\z80\AppData\Local\Temp\ccoVIiZT.s 			page 42


 2311 09c7 01       		.byte	0x1
 2312 09c8 40040000 		.4byte	.LASF123
 2313 09cc 01       		.byte	0x1
 2314 09cd D7       		.byte	0xd7
 2315 09ce 01       		.byte	0x1
 2316 09cf 00000000 		.4byte	.LFB69
 2317 09d3 2E000000 		.4byte	.LFE69
 2318 09d7 D8000000 		.4byte	.LLST6
 2319 09db 200A0000 		.4byte	0xa20
 2320 09df 1A       		.uleb128 0x1a
 2321 09e0 C7010000 		.4byte	.LASF124
 2322 09e4 01       		.byte	0x1
 2323 09e5 D7       		.byte	0xd7
 2324 09e6 29000000 		.4byte	0x29
 2325 09ea 02       		.byte	0x2
 2326 09eb 91       		.byte	0x91
 2327 09ec 74       		.sleb128 -12
 2328 09ed 1C       		.uleb128 0x1c
 2329 09ee 06000000 		.4byte	.LBB7
 2330 09f2 0E000000 		.4byte	.LBE7
 2331 09f6 080A0000 		.4byte	0xa08
 2332 09fa 1D       		.uleb128 0x1d
 2333 09fb 746D7000 		.ascii	"tmp\000"
 2334 09ff 01       		.byte	0x1
 2335 0a00 D9       		.byte	0xd9
 2336 0a01 86000000 		.4byte	0x86
 2337 0a05 01       		.byte	0x1
 2338 0a06 53       		.byte	0x53
 2339 0a07 00       		.byte	0
 2340 0a08 1E       		.uleb128 0x1e
 2341 0a09 22000000 		.4byte	.LBB8
 2342 0a0d 2A000000 		.4byte	.LBE8
 2343 0a11 1D       		.uleb128 0x1d
 2344 0a12 746D7000 		.ascii	"tmp\000"
 2345 0a16 01       		.byte	0x1
 2346 0a17 DB       		.byte	0xdb
 2347 0a18 86000000 		.4byte	0x86
 2348 0a1c 01       		.byte	0x1
 2349 0a1d 53       		.byte	0x53
 2350 0a1e 00       		.byte	0
 2351 0a1f 00       		.byte	0
 2352 0a20 20       		.uleb128 0x20
 2353 0a21 01       		.byte	0x1
 2354 0a22 BE000000 		.4byte	.LASF125
 2355 0a26 01       		.byte	0x1
 2356 0a27 DE       		.byte	0xde
 2357 0a28 01       		.byte	0x1
 2358 0a29 00000000 		.4byte	.LFB70
 2359 0a2d 2E000000 		.4byte	.LFE70
 2360 0a31 04010000 		.4byte	.LLST7
 2361 0a35 7A0A0000 		.4byte	0xa7a
 2362 0a39 1A       		.uleb128 0x1a
 2363 0a3a B3010000 		.4byte	.LASF126
 2364 0a3e 01       		.byte	0x1
 2365 0a3f DE       		.byte	0xde
 2366 0a40 86000000 		.4byte	0x86
 2367 0a44 02       		.byte	0x2
ARM GAS  C:\Users\z80\AppData\Local\Temp\ccoVIiZT.s 			page 43


 2368 0a45 91       		.byte	0x91
 2369 0a46 74       		.sleb128 -12
 2370 0a47 1C       		.uleb128 0x1c
 2371 0a48 06000000 		.4byte	.LBB9
 2372 0a4c 0E000000 		.4byte	.LBE9
 2373 0a50 620A0000 		.4byte	0xa62
 2374 0a54 1D       		.uleb128 0x1d
 2375 0a55 746D7000 		.ascii	"tmp\000"
 2376 0a59 01       		.byte	0x1
 2377 0a5a E0       		.byte	0xe0
 2378 0a5b 86000000 		.4byte	0x86
 2379 0a5f 01       		.byte	0x1
 2380 0a60 53       		.byte	0x53
 2381 0a61 00       		.byte	0
 2382 0a62 1E       		.uleb128 0x1e
 2383 0a63 22000000 		.4byte	.LBB10
 2384 0a67 2A000000 		.4byte	.LBE10
 2385 0a6b 1D       		.uleb128 0x1d
 2386 0a6c 746D7000 		.ascii	"tmp\000"
 2387 0a70 01       		.byte	0x1
 2388 0a71 E2       		.byte	0xe2
 2389 0a72 86000000 		.4byte	0x86
 2390 0a76 01       		.byte	0x1
 2391 0a77 53       		.byte	0x53
 2392 0a78 00       		.byte	0
 2393 0a79 00       		.byte	0
 2394 0a7a 19       		.uleb128 0x19
 2395 0a7b 07030000 		.4byte	.LASF127
 2396 0a7f 01       		.byte	0x1
 2397 0a80 EB       		.byte	0xeb
 2398 0a81 01       		.byte	0x1
 2399 0a82 00000000 		.4byte	.LFB71
 2400 0a86 82010000 		.4byte	.LFE71
 2401 0a8a 30010000 		.4byte	.LLST8
 2402 0a8e 070B0000 		.4byte	0xb07
 2403 0a92 1A       		.uleb128 0x1a
 2404 0a93 CB040000 		.4byte	.LASF119
 2405 0a97 01       		.byte	0x1
 2406 0a98 EB       		.byte	0xeb
 2407 0a99 49000000 		.4byte	0x49
 2408 0a9d 02       		.byte	0x2
 2409 0a9e 91       		.byte	0x91
 2410 0a9f 67       		.sleb128 -25
 2411 0aa0 1A       		.uleb128 0x1a
 2412 0aa1 ED010000 		.4byte	.LASF115
 2413 0aa5 01       		.byte	0x1
 2414 0aa6 EB       		.byte	0xeb
 2415 0aa7 29000000 		.4byte	0x29
 2416 0aab 02       		.byte	0x2
 2417 0aac 91       		.byte	0x91
 2418 0aad 60       		.sleb128 -32
 2419 0aae 1D       		.uleb128 0x1d
 2420 0aaf 72617700 		.ascii	"raw\000"
 2421 0ab3 01       		.byte	0x1
 2422 0ab4 ED       		.byte	0xed
 2423 0ab5 98090000 		.4byte	0x998
 2424 0ab9 02       		.byte	0x2
ARM GAS  C:\Users\z80\AppData\Local\Temp\ccoVIiZT.s 			page 44


 2425 0aba 91       		.byte	0x91
 2426 0abb 78       		.sleb128 -8
 2427 0abc 1D       		.uleb128 0x1d
 2428 0abd 70747200 		.ascii	"ptr\000"
 2429 0ac1 01       		.byte	0x1
 2430 0ac2 EE       		.byte	0xee
 2431 0ac3 69040000 		.4byte	0x469
 2432 0ac7 02       		.byte	0x2
 2433 0ac8 91       		.byte	0x91
 2434 0ac9 74       		.sleb128 -12
 2435 0aca 1B       		.uleb128 0x1b
 2436 0acb F8040000 		.4byte	.LASF128
 2437 0acf 01       		.byte	0x1
 2438 0ad0 F2       		.byte	0xf2
 2439 0ad1 98090000 		.4byte	0x998
 2440 0ad5 02       		.byte	0x2
 2441 0ad6 91       		.byte	0x91
 2442 0ad7 70       		.sleb128 -16
 2443 0ad8 1D       		.uleb128 0x1d
 2444 0ad9 6900     		.ascii	"i\000"
 2445 0adb 01       		.byte	0x1
 2446 0adc F3       		.byte	0xf3
 2447 0add 49000000 		.4byte	0x49
 2448 0ae1 02       		.byte	0x2
 2449 0ae2 91       		.byte	0x91
 2450 0ae3 7F       		.sleb128 -1
 2451 0ae4 1D       		.uleb128 0x1d
 2452 0ae5 6A00     		.ascii	"j\000"
 2453 0ae7 01       		.byte	0x1
 2454 0ae8 F3       		.byte	0xf3
 2455 0ae9 49000000 		.4byte	0x49
 2456 0aed 02       		.byte	0x2
 2457 0aee 91       		.byte	0x91
 2458 0aef 7E       		.sleb128 -2
 2459 0af0 1E       		.uleb128 0x1e
 2460 0af1 06010000 		.4byte	.LBB11
 2461 0af5 42010000 		.4byte	.LBE11
 2462 0af9 1D       		.uleb128 0x1d
 2463 0afa 6100     		.ascii	"a\000"
 2464 0afc 01       		.byte	0x1
 2465 0afd FC       		.byte	0xfc
 2466 0afe 29000000 		.4byte	0x29
 2467 0b02 02       		.byte	0x2
 2468 0b03 91       		.byte	0x91
 2469 0b04 6C       		.sleb128 -20
 2470 0b05 00       		.byte	0
 2471 0b06 00       		.byte	0
 2472 0b07 1B       		.uleb128 0x1b
 2473 0b08 61010000 		.4byte	.LASF129
 2474 0b0c 01       		.byte	0x1
 2475 0b0d 12       		.byte	0x12
 2476 0b0e 29000000 		.4byte	0x29
 2477 0b12 05       		.byte	0x5
 2478 0b13 03       		.byte	0x3
 2479 0b14 00000000 		.4byte	adcIndex
 2480 0b18 21       		.uleb128 0x21
 2481 0b19 29000000 		.4byte	0x29
ARM GAS  C:\Users\z80\AppData\Local\Temp\ccoVIiZT.s 			page 45


 2482 0b1d 280B0000 		.4byte	0xb28
 2483 0b21 22       		.uleb128 0x22
 2484 0b22 3B000000 		.4byte	0x3b
 2485 0b26 03       		.byte	0x3
 2486 0b27 00       		.byte	0
 2487 0b28 1B       		.uleb128 0x1b
 2488 0b29 6C040000 		.4byte	.LASF130
 2489 0b2d 01       		.byte	0x1
 2490 0b2e 14       		.byte	0x14
 2491 0b2f 180B0000 		.4byte	0xb18
 2492 0b33 05       		.byte	0x5
 2493 0b34 03       		.byte	0x3
 2494 0b35 00000000 		.4byte	instantAdcData
 2495 0b39 1B       		.uleb128 0x1b
 2496 0b3a 14000000 		.4byte	.LASF131
 2497 0b3e 01       		.byte	0x1
 2498 0b3f 23       		.byte	0x23
 2499 0b40 35080000 		.4byte	0x835
 2500 0b44 05       		.byte	0x5
 2501 0b45 03       		.byte	0x3
 2502 0b46 00000000 		.4byte	hs_spicfg
 2503 0b4a 23       		.uleb128 0x23
 2504 0b4b B1000000 		.4byte	.LASF132
 2505 0b4f 0F       		.byte	0xf
 2506 0b50 9404     		.2byte	0x494
 2507 0b52 7F040000 		.4byte	0x47f
 2508 0b56 01       		.byte	0x1
 2509 0b57 01       		.byte	0x1
 2510 0b58 23       		.uleb128 0x23
 2511 0b59 F2030000 		.4byte	.LASF133
 2512 0b5d 0E       		.byte	0xe
 2513 0b5e 6701     		.2byte	0x167
 2514 0b60 36070000 		.4byte	0x736
 2515 0b64 01       		.byte	0x1
 2516 0b65 01       		.byte	0x1
 2517 0b66 24       		.uleb128 0x24
 2518 0b67 F8030000 		.4byte	.LASF134
 2519 0b6b 01       		.byte	0x1
 2520 0b6c 0E       		.byte	0xe
 2521 0b6d 6F040000 		.4byte	0x46f
 2522 0b71 01       		.byte	0x1
 2523 0b72 05       		.byte	0x5
 2524 0b73 03       		.byte	0x3
 2525 0b74 00000000 		.4byte	adc_queue
 2526 0b78 21       		.uleb128 0x21
 2527 0b79 49000000 		.4byte	0x49
 2528 0b7d 890B0000 		.4byte	0xb89
 2529 0b81 25       		.uleb128 0x25
 2530 0b82 3B000000 		.4byte	0x3b
 2531 0b86 3F01     		.2byte	0x13f
 2532 0b88 00       		.byte	0
 2533 0b89 24       		.uleb128 0x24
 2534 0b8a 1E000000 		.4byte	.LASF135
 2535 0b8e 01       		.byte	0x1
 2536 0b8f 0F       		.byte	0xf
 2537 0b90 780B0000 		.4byte	0xb78
 2538 0b94 01       		.byte	0x1
ARM GAS  C:\Users\z80\AppData\Local\Temp\ccoVIiZT.s 			page 46


 2539 0b95 05       		.byte	0x5
 2540 0b96 03       		.byte	0x3
 2541 0b97 00000000 		.4byte	adc_queue_buffer
 2542 0b9b 21       		.uleb128 0x21
 2543 0b9c 49000000 		.4byte	0x49
 2544 0ba0 AB0B0000 		.4byte	0xbab
 2545 0ba4 22       		.uleb128 0x22
 2546 0ba5 3B000000 		.4byte	0x3b
 2547 0ba9 03       		.byte	0x3
 2548 0baa 00       		.byte	0
 2549 0bab 24       		.uleb128 0x24
 2550 0bac 2A040000 		.4byte	.LASF136
 2551 0bb0 01       		.byte	0x1
 2552 0bb1 11       		.byte	0x11
 2553 0bb2 9B0B0000 		.4byte	0xb9b
 2554 0bb6 01       		.byte	0x1
 2555 0bb7 05       		.byte	0x5
 2556 0bb8 03       		.byte	0x3
 2557 0bb9 00000000 		.4byte	adc_rx_buffer
 2558 0bbd 24       		.uleb128 0x24
 2559 0bbe 3A000000 		.4byte	.LASF137
 2560 0bc2 01       		.byte	0x1
 2561 0bc3 17       		.byte	0x17
 2562 0bc4 29000000 		.4byte	0x29
 2563 0bc8 01       		.byte	0x1
 2564 0bc9 05       		.byte	0x5
 2565 0bca 03       		.byte	0x3
 2566 0bcb 00000000 		.4byte	signalMask
 2567 0bcf 24       		.uleb128 0x24
 2568 0bd0 52000000 		.4byte	.LASF138
 2569 0bd4 01       		.byte	0x1
 2570 0bd5 18       		.byte	0x18
 2571 0bd6 29000000 		.4byte	0x29
 2572 0bda 01       		.byte	0x1
 2573 0bdb 05       		.byte	0x5
 2574 0bdc 03       		.byte	0x3
 2575 0bdd 00000000 		.4byte	period
 2576 0be1 24       		.uleb128 0x24
 2577 0be2 68020000 		.4byte	.LASF139
 2578 0be6 01       		.byte	0x1
 2579 0be7 19       		.byte	0x19
 2580 0be8 29000000 		.4byte	0x29
 2581 0bec 01       		.byte	0x1
 2582 0bed 05       		.byte	0x5
 2583 0bee 03       		.byte	0x3
 2584 0bef 00000000 		.4byte	elapsed
 2585 0bf3 21       		.uleb128 0x21
 2586 0bf4 29000000 		.4byte	0x29
 2587 0bf8 090C0000 		.4byte	0xc09
 2588 0bfc 22       		.uleb128 0x22
 2589 0bfd 3B000000 		.4byte	0x3b
 2590 0c01 03       		.byte	0x3
 2591 0c02 22       		.uleb128 0x22
 2592 0c03 3B000000 		.4byte	0x3b
 2593 0c07 04       		.byte	0x4
 2594 0c08 00       		.byte	0
 2595 0c09 24       		.uleb128 0x24
ARM GAS  C:\Users\z80\AppData\Local\Temp\ccoVIiZT.s 			page 47


 2596 0c0a AA000000 		.4byte	.LASF140
 2597 0c0e 01       		.byte	0x1
 2598 0c0f E8       		.byte	0xe8
 2599 0c10 F30B0000 		.4byte	0xbf3
 2600 0c14 01       		.byte	0x1
 2601 0c15 05       		.byte	0x5
 2602 0c16 03       		.byte	0x3
 2603 0c17 00000000 		.4byte	adcRaw
 2604 0c1b 24       		.uleb128 0x24
 2605 0c1c B1040000 		.4byte	.LASF141
 2606 0c20 01       		.byte	0x1
 2607 0c21 E9       		.byte	0xe9
 2608 0c22 F30B0000 		.4byte	0xbf3
 2609 0c26 01       		.byte	0x1
 2610 0c27 05       		.byte	0x5
 2611 0c28 03       		.byte	0x3
 2612 0c29 00000000 		.4byte	adcFiltered
 2613 0c2d 24       		.uleb128 0x24
 2614 0c2e BC010000 		.4byte	.LASF142
 2615 0c32 01       		.byte	0x1
 2616 0c33 EA       		.byte	0xea
 2617 0c34 9B0B0000 		.4byte	0xb9b
 2618 0c38 01       		.byte	0x1
 2619 0c39 05       		.byte	0x5
 2620 0c3a 03       		.byte	0x3
 2621 0c3b 00000000 		.4byte	adcPointer
 2622 0c3f 00       		.byte	0
 2623              		.section	.debug_abbrev,"",%progbits
 2624              	.Ldebug_abbrev0:
 2625 0000 01       		.uleb128 0x1
 2626 0001 11       		.uleb128 0x11
 2627 0002 01       		.byte	0x1
 2628 0003 25       		.uleb128 0x25
 2629 0004 0E       		.uleb128 0xe
 2630 0005 13       		.uleb128 0x13
 2631 0006 0B       		.uleb128 0xb
 2632 0007 03       		.uleb128 0x3
 2633 0008 0E       		.uleb128 0xe
 2634 0009 1B       		.uleb128 0x1b
 2635 000a 0E       		.uleb128 0xe
 2636 000b 11       		.uleb128 0x11
 2637 000c 01       		.uleb128 0x1
 2638 000d 52       		.uleb128 0x52
 2639 000e 01       		.uleb128 0x1
 2640 000f 55       		.uleb128 0x55
 2641 0010 06       		.uleb128 0x6
 2642 0011 10       		.uleb128 0x10
 2643 0012 06       		.uleb128 0x6
 2644 0013 00       		.byte	0
 2645 0014 00       		.byte	0
 2646 0015 02       		.uleb128 0x2
 2647 0016 24       		.uleb128 0x24
 2648 0017 00       		.byte	0
 2649 0018 0B       		.uleb128 0xb
 2650 0019 0B       		.uleb128 0xb
 2651 001a 3E       		.uleb128 0x3e
 2652 001b 0B       		.uleb128 0xb
ARM GAS  C:\Users\z80\AppData\Local\Temp\ccoVIiZT.s 			page 48


 2653 001c 03       		.uleb128 0x3
 2654 001d 08       		.uleb128 0x8
 2655 001e 00       		.byte	0
 2656 001f 00       		.byte	0
 2657 0020 03       		.uleb128 0x3
 2658 0021 16       		.uleb128 0x16
 2659 0022 00       		.byte	0
 2660 0023 03       		.uleb128 0x3
 2661 0024 0E       		.uleb128 0xe
 2662 0025 3A       		.uleb128 0x3a
 2663 0026 0B       		.uleb128 0xb
 2664 0027 3B       		.uleb128 0x3b
 2665 0028 0B       		.uleb128 0xb
 2666 0029 49       		.uleb128 0x49
 2667 002a 13       		.uleb128 0x13
 2668 002b 00       		.byte	0
 2669 002c 00       		.byte	0
 2670 002d 04       		.uleb128 0x4
 2671 002e 24       		.uleb128 0x24
 2672 002f 00       		.byte	0
 2673 0030 0B       		.uleb128 0xb
 2674 0031 0B       		.uleb128 0xb
 2675 0032 3E       		.uleb128 0x3e
 2676 0033 0B       		.uleb128 0xb
 2677 0034 03       		.uleb128 0x3
 2678 0035 0E       		.uleb128 0xe
 2679 0036 00       		.byte	0
 2680 0037 00       		.byte	0
 2681 0038 05       		.uleb128 0x5
 2682 0039 13       		.uleb128 0x13
 2683 003a 01       		.byte	0x1
 2684 003b 03       		.uleb128 0x3
 2685 003c 0E       		.uleb128 0xe
 2686 003d 0B       		.uleb128 0xb
 2687 003e 0B       		.uleb128 0xb
 2688 003f 3A       		.uleb128 0x3a
 2689 0040 0B       		.uleb128 0xb
 2690 0041 3B       		.uleb128 0x3b
 2691 0042 0B       		.uleb128 0xb
 2692 0043 01       		.uleb128 0x1
 2693 0044 13       		.uleb128 0x13
 2694 0045 00       		.byte	0
 2695 0046 00       		.byte	0
 2696 0047 06       		.uleb128 0x6
 2697 0048 0D       		.uleb128 0xd
 2698 0049 00       		.byte	0
 2699 004a 03       		.uleb128 0x3
 2700 004b 0E       		.uleb128 0xe
 2701 004c 3A       		.uleb128 0x3a
 2702 004d 0B       		.uleb128 0xb
 2703 004e 3B       		.uleb128 0x3b
 2704 004f 0B       		.uleb128 0xb
 2705 0050 49       		.uleb128 0x49
 2706 0051 13       		.uleb128 0x13
 2707 0052 38       		.uleb128 0x38
 2708 0053 0A       		.uleb128 0xa
 2709 0054 00       		.byte	0
ARM GAS  C:\Users\z80\AppData\Local\Temp\ccoVIiZT.s 			page 49


 2710 0055 00       		.byte	0
 2711 0056 07       		.uleb128 0x7
 2712 0057 0D       		.uleb128 0xd
 2713 0058 00       		.byte	0
 2714 0059 03       		.uleb128 0x3
 2715 005a 08       		.uleb128 0x8
 2716 005b 3A       		.uleb128 0x3a
 2717 005c 0B       		.uleb128 0xb
 2718 005d 3B       		.uleb128 0x3b
 2719 005e 0B       		.uleb128 0xb
 2720 005f 49       		.uleb128 0x49
 2721 0060 13       		.uleb128 0x13
 2722 0061 38       		.uleb128 0x38
 2723 0062 0A       		.uleb128 0xa
 2724 0063 00       		.byte	0
 2725 0064 00       		.byte	0
 2726 0065 08       		.uleb128 0x8
 2727 0066 13       		.uleb128 0x13
 2728 0067 01       		.byte	0x1
 2729 0068 0B       		.uleb128 0xb
 2730 0069 0B       		.uleb128 0xb
 2731 006a 3A       		.uleb128 0x3a
 2732 006b 0B       		.uleb128 0xb
 2733 006c 3B       		.uleb128 0x3b
 2734 006d 0B       		.uleb128 0xb
 2735 006e 01       		.uleb128 0x1
 2736 006f 13       		.uleb128 0x13
 2737 0070 00       		.byte	0
 2738 0071 00       		.byte	0
 2739 0072 09       		.uleb128 0x9
 2740 0073 0F       		.uleb128 0xf
 2741 0074 00       		.byte	0
 2742 0075 0B       		.uleb128 0xb
 2743 0076 0B       		.uleb128 0xb
 2744 0077 49       		.uleb128 0x49
 2745 0078 13       		.uleb128 0x13
 2746 0079 00       		.byte	0
 2747 007a 00       		.byte	0
 2748 007b 0A       		.uleb128 0xa
 2749 007c 0F       		.uleb128 0xf
 2750 007d 00       		.byte	0
 2751 007e 0B       		.uleb128 0xb
 2752 007f 0B       		.uleb128 0xb
 2753 0080 00       		.byte	0
 2754 0081 00       		.byte	0
 2755 0082 0B       		.uleb128 0xb
 2756 0083 0D       		.uleb128 0xd
 2757 0084 00       		.byte	0
 2758 0085 03       		.uleb128 0x3
 2759 0086 08       		.uleb128 0x8
 2760 0087 3A       		.uleb128 0x3a
 2761 0088 0B       		.uleb128 0xb
 2762 0089 3B       		.uleb128 0x3b
 2763 008a 05       		.uleb128 0x5
 2764 008b 49       		.uleb128 0x49
 2765 008c 13       		.uleb128 0x13
 2766 008d 38       		.uleb128 0x38
ARM GAS  C:\Users\z80\AppData\Local\Temp\ccoVIiZT.s 			page 50


 2767 008e 0A       		.uleb128 0xa
 2768 008f 00       		.byte	0
 2769 0090 00       		.byte	0
 2770 0091 0C       		.uleb128 0xc
 2771 0092 13       		.uleb128 0x13
 2772 0093 01       		.byte	0x1
 2773 0094 03       		.uleb128 0x3
 2774 0095 0E       		.uleb128 0xe
 2775 0096 0B       		.uleb128 0xb
 2776 0097 0B       		.uleb128 0xb
 2777 0098 3A       		.uleb128 0x3a
 2778 0099 0B       		.uleb128 0xb
 2779 009a 3B       		.uleb128 0x3b
 2780 009b 05       		.uleb128 0x5
 2781 009c 01       		.uleb128 0x1
 2782 009d 13       		.uleb128 0x13
 2783 009e 00       		.byte	0
 2784 009f 00       		.byte	0
 2785 00a0 0D       		.uleb128 0xd
 2786 00a1 35       		.uleb128 0x35
 2787 00a2 00       		.byte	0
 2788 00a3 49       		.uleb128 0x49
 2789 00a4 13       		.uleb128 0x13
 2790 00a5 00       		.byte	0
 2791 00a6 00       		.byte	0
 2792 00a7 0E       		.uleb128 0xe
 2793 00a8 17       		.uleb128 0x17
 2794 00a9 01       		.byte	0x1
 2795 00aa 0B       		.uleb128 0xb
 2796 00ab 0B       		.uleb128 0xb
 2797 00ac 3A       		.uleb128 0x3a
 2798 00ad 0B       		.uleb128 0xb
 2799 00ae 3B       		.uleb128 0x3b
 2800 00af 0B       		.uleb128 0xb
 2801 00b0 01       		.uleb128 0x1
 2802 00b1 13       		.uleb128 0x13
 2803 00b2 00       		.byte	0
 2804 00b3 00       		.byte	0
 2805 00b4 0F       		.uleb128 0xf
 2806 00b5 0D       		.uleb128 0xd
 2807 00b6 00       		.byte	0
 2808 00b7 03       		.uleb128 0x3
 2809 00b8 0E       		.uleb128 0xe
 2810 00b9 3A       		.uleb128 0x3a
 2811 00ba 0B       		.uleb128 0xb
 2812 00bb 3B       		.uleb128 0x3b
 2813 00bc 0B       		.uleb128 0xb
 2814 00bd 49       		.uleb128 0x49
 2815 00be 13       		.uleb128 0x13
 2816 00bf 00       		.byte	0
 2817 00c0 00       		.byte	0
 2818 00c1 10       		.uleb128 0x10
 2819 00c2 26       		.uleb128 0x26
 2820 00c3 00       		.byte	0
 2821 00c4 49       		.uleb128 0x49
 2822 00c5 13       		.uleb128 0x13
 2823 00c6 00       		.byte	0
ARM GAS  C:\Users\z80\AppData\Local\Temp\ccoVIiZT.s 			page 51


 2824 00c7 00       		.byte	0
 2825 00c8 11       		.uleb128 0x11
 2826 00c9 15       		.uleb128 0x15
 2827 00ca 01       		.byte	0x1
 2828 00cb 27       		.uleb128 0x27
 2829 00cc 0C       		.uleb128 0xc
 2830 00cd 01       		.uleb128 0x1
 2831 00ce 13       		.uleb128 0x13
 2832 00cf 00       		.byte	0
 2833 00d0 00       		.byte	0
 2834 00d1 12       		.uleb128 0x12
 2835 00d2 05       		.uleb128 0x5
 2836 00d3 00       		.byte	0
 2837 00d4 49       		.uleb128 0x49
 2838 00d5 13       		.uleb128 0x13
 2839 00d6 00       		.byte	0
 2840 00d7 00       		.byte	0
 2841 00d8 13       		.uleb128 0x13
 2842 00d9 13       		.uleb128 0x13
 2843 00da 01       		.byte	0x1
 2844 00db 0B       		.uleb128 0xb
 2845 00dc 0B       		.uleb128 0xb
 2846 00dd 3A       		.uleb128 0x3a
 2847 00de 0B       		.uleb128 0xb
 2848 00df 3B       		.uleb128 0x3b
 2849 00e0 05       		.uleb128 0x5
 2850 00e1 01       		.uleb128 0x1
 2851 00e2 13       		.uleb128 0x13
 2852 00e3 00       		.byte	0
 2853 00e4 00       		.byte	0
 2854 00e5 14       		.uleb128 0x14
 2855 00e6 0D       		.uleb128 0xd
 2856 00e7 00       		.byte	0
 2857 00e8 03       		.uleb128 0x3
 2858 00e9 0E       		.uleb128 0xe
 2859 00ea 3A       		.uleb128 0x3a
 2860 00eb 0B       		.uleb128 0xb
 2861 00ec 3B       		.uleb128 0x3b
 2862 00ed 05       		.uleb128 0x5
 2863 00ee 49       		.uleb128 0x49
 2864 00ef 13       		.uleb128 0x13
 2865 00f0 38       		.uleb128 0x38
 2866 00f1 0A       		.uleb128 0xa
 2867 00f2 00       		.byte	0
 2868 00f3 00       		.byte	0
 2869 00f4 15       		.uleb128 0x15
 2870 00f5 16       		.uleb128 0x16
 2871 00f6 00       		.byte	0
 2872 00f7 03       		.uleb128 0x3
 2873 00f8 0E       		.uleb128 0xe
 2874 00f9 3A       		.uleb128 0x3a
 2875 00fa 0B       		.uleb128 0xb
 2876 00fb 3B       		.uleb128 0x3b
 2877 00fc 05       		.uleb128 0x5
 2878 00fd 49       		.uleb128 0x49
 2879 00fe 13       		.uleb128 0x13
 2880 00ff 00       		.byte	0
ARM GAS  C:\Users\z80\AppData\Local\Temp\ccoVIiZT.s 			page 52


 2881 0100 00       		.byte	0
 2882 0101 16       		.uleb128 0x16
 2883 0102 04       		.uleb128 0x4
 2884 0103 01       		.byte	0x1
 2885 0104 0B       		.uleb128 0xb
 2886 0105 0B       		.uleb128 0xb
 2887 0106 3A       		.uleb128 0x3a
 2888 0107 0B       		.uleb128 0xb
 2889 0108 3B       		.uleb128 0x3b
 2890 0109 0B       		.uleb128 0xb
 2891 010a 01       		.uleb128 0x1
 2892 010b 13       		.uleb128 0x13
 2893 010c 00       		.byte	0
 2894 010d 00       		.byte	0
 2895 010e 17       		.uleb128 0x17
 2896 010f 28       		.uleb128 0x28
 2897 0110 00       		.byte	0
 2898 0111 03       		.uleb128 0x3
 2899 0112 0E       		.uleb128 0xe
 2900 0113 1C       		.uleb128 0x1c
 2901 0114 0D       		.uleb128 0xd
 2902 0115 00       		.byte	0
 2903 0116 00       		.byte	0
 2904 0117 18       		.uleb128 0x18
 2905 0118 2E       		.uleb128 0x2e
 2906 0119 00       		.byte	0
 2907 011a 3F       		.uleb128 0x3f
 2908 011b 0C       		.uleb128 0xc
 2909 011c 03       		.uleb128 0x3
 2910 011d 0E       		.uleb128 0xe
 2911 011e 3A       		.uleb128 0x3a
 2912 011f 0B       		.uleb128 0xb
 2913 0120 3B       		.uleb128 0x3b
 2914 0121 0B       		.uleb128 0xb
 2915 0122 27       		.uleb128 0x27
 2916 0123 0C       		.uleb128 0xc
 2917 0124 11       		.uleb128 0x11
 2918 0125 01       		.uleb128 0x1
 2919 0126 12       		.uleb128 0x12
 2920 0127 01       		.uleb128 0x1
 2921 0128 40       		.uleb128 0x40
 2922 0129 06       		.uleb128 0x6
 2923 012a 00       		.byte	0
 2924 012b 00       		.byte	0
 2925 012c 19       		.uleb128 0x19
 2926 012d 2E       		.uleb128 0x2e
 2927 012e 01       		.byte	0x1
 2928 012f 03       		.uleb128 0x3
 2929 0130 0E       		.uleb128 0xe
 2930 0131 3A       		.uleb128 0x3a
 2931 0132 0B       		.uleb128 0xb
 2932 0133 3B       		.uleb128 0x3b
 2933 0134 0B       		.uleb128 0xb
 2934 0135 27       		.uleb128 0x27
 2935 0136 0C       		.uleb128 0xc
 2936 0137 11       		.uleb128 0x11
 2937 0138 01       		.uleb128 0x1
ARM GAS  C:\Users\z80\AppData\Local\Temp\ccoVIiZT.s 			page 53


 2938 0139 12       		.uleb128 0x12
 2939 013a 01       		.uleb128 0x1
 2940 013b 40       		.uleb128 0x40
 2941 013c 06       		.uleb128 0x6
 2942 013d 01       		.uleb128 0x1
 2943 013e 13       		.uleb128 0x13
 2944 013f 00       		.byte	0
 2945 0140 00       		.byte	0
 2946 0141 1A       		.uleb128 0x1a
 2947 0142 05       		.uleb128 0x5
 2948 0143 00       		.byte	0
 2949 0144 03       		.uleb128 0x3
 2950 0145 0E       		.uleb128 0xe
 2951 0146 3A       		.uleb128 0x3a
 2952 0147 0B       		.uleb128 0xb
 2953 0148 3B       		.uleb128 0x3b
 2954 0149 0B       		.uleb128 0xb
 2955 014a 49       		.uleb128 0x49
 2956 014b 13       		.uleb128 0x13
 2957 014c 02       		.uleb128 0x2
 2958 014d 0A       		.uleb128 0xa
 2959 014e 00       		.byte	0
 2960 014f 00       		.byte	0
 2961 0150 1B       		.uleb128 0x1b
 2962 0151 34       		.uleb128 0x34
 2963 0152 00       		.byte	0
 2964 0153 03       		.uleb128 0x3
 2965 0154 0E       		.uleb128 0xe
 2966 0155 3A       		.uleb128 0x3a
 2967 0156 0B       		.uleb128 0xb
 2968 0157 3B       		.uleb128 0x3b
 2969 0158 0B       		.uleb128 0xb
 2970 0159 49       		.uleb128 0x49
 2971 015a 13       		.uleb128 0x13
 2972 015b 02       		.uleb128 0x2
 2973 015c 0A       		.uleb128 0xa
 2974 015d 00       		.byte	0
 2975 015e 00       		.byte	0
 2976 015f 1C       		.uleb128 0x1c
 2977 0160 0B       		.uleb128 0xb
 2978 0161 01       		.byte	0x1
 2979 0162 11       		.uleb128 0x11
 2980 0163 01       		.uleb128 0x1
 2981 0164 12       		.uleb128 0x12
 2982 0165 01       		.uleb128 0x1
 2983 0166 01       		.uleb128 0x1
 2984 0167 13       		.uleb128 0x13
 2985 0168 00       		.byte	0
 2986 0169 00       		.byte	0
 2987 016a 1D       		.uleb128 0x1d
 2988 016b 34       		.uleb128 0x34
 2989 016c 00       		.byte	0
 2990 016d 03       		.uleb128 0x3
 2991 016e 08       		.uleb128 0x8
 2992 016f 3A       		.uleb128 0x3a
 2993 0170 0B       		.uleb128 0xb
 2994 0171 3B       		.uleb128 0x3b
ARM GAS  C:\Users\z80\AppData\Local\Temp\ccoVIiZT.s 			page 54


 2995 0172 0B       		.uleb128 0xb
 2996 0173 49       		.uleb128 0x49
 2997 0174 13       		.uleb128 0x13
 2998 0175 02       		.uleb128 0x2
 2999 0176 0A       		.uleb128 0xa
 3000 0177 00       		.byte	0
 3001 0178 00       		.byte	0
 3002 0179 1E       		.uleb128 0x1e
 3003 017a 0B       		.uleb128 0xb
 3004 017b 01       		.byte	0x1
 3005 017c 11       		.uleb128 0x11
 3006 017d 01       		.uleb128 0x1
 3007 017e 12       		.uleb128 0x12
 3008 017f 01       		.uleb128 0x1
 3009 0180 00       		.byte	0
 3010 0181 00       		.byte	0
 3011 0182 1F       		.uleb128 0x1f
 3012 0183 2E       		.uleb128 0x2e
 3013 0184 00       		.byte	0
 3014 0185 3F       		.uleb128 0x3f
 3015 0186 0C       		.uleb128 0xc
 3016 0187 03       		.uleb128 0x3
 3017 0188 0E       		.uleb128 0xe
 3018 0189 3A       		.uleb128 0x3a
 3019 018a 0B       		.uleb128 0xb
 3020 018b 3B       		.uleb128 0x3b
 3021 018c 0B       		.uleb128 0xb
 3022 018d 27       		.uleb128 0x27
 3023 018e 0C       		.uleb128 0xc
 3024 018f 49       		.uleb128 0x49
 3025 0190 13       		.uleb128 0x13
 3026 0191 11       		.uleb128 0x11
 3027 0192 01       		.uleb128 0x1
 3028 0193 12       		.uleb128 0x12
 3029 0194 01       		.uleb128 0x1
 3030 0195 40       		.uleb128 0x40
 3031 0196 0A       		.uleb128 0xa
 3032 0197 00       		.byte	0
 3033 0198 00       		.byte	0
 3034 0199 20       		.uleb128 0x20
 3035 019a 2E       		.uleb128 0x2e
 3036 019b 01       		.byte	0x1
 3037 019c 3F       		.uleb128 0x3f
 3038 019d 0C       		.uleb128 0xc
 3039 019e 03       		.uleb128 0x3
 3040 019f 0E       		.uleb128 0xe
 3041 01a0 3A       		.uleb128 0x3a
 3042 01a1 0B       		.uleb128 0xb
 3043 01a2 3B       		.uleb128 0x3b
 3044 01a3 0B       		.uleb128 0xb
 3045 01a4 27       		.uleb128 0x27
 3046 01a5 0C       		.uleb128 0xc
 3047 01a6 11       		.uleb128 0x11
 3048 01a7 01       		.uleb128 0x1
 3049 01a8 12       		.uleb128 0x12
 3050 01a9 01       		.uleb128 0x1
 3051 01aa 40       		.uleb128 0x40
ARM GAS  C:\Users\z80\AppData\Local\Temp\ccoVIiZT.s 			page 55


 3052 01ab 06       		.uleb128 0x6
 3053 01ac 01       		.uleb128 0x1
 3054 01ad 13       		.uleb128 0x13
 3055 01ae 00       		.byte	0
 3056 01af 00       		.byte	0
 3057 01b0 21       		.uleb128 0x21
 3058 01b1 01       		.uleb128 0x1
 3059 01b2 01       		.byte	0x1
 3060 01b3 49       		.uleb128 0x49
 3061 01b4 13       		.uleb128 0x13
 3062 01b5 01       		.uleb128 0x1
 3063 01b6 13       		.uleb128 0x13
 3064 01b7 00       		.byte	0
 3065 01b8 00       		.byte	0
 3066 01b9 22       		.uleb128 0x22
 3067 01ba 21       		.uleb128 0x21
 3068 01bb 00       		.byte	0
 3069 01bc 49       		.uleb128 0x49
 3070 01bd 13       		.uleb128 0x13
 3071 01be 2F       		.uleb128 0x2f
 3072 01bf 0B       		.uleb128 0xb
 3073 01c0 00       		.byte	0
 3074 01c1 00       		.byte	0
 3075 01c2 23       		.uleb128 0x23
 3076 01c3 34       		.uleb128 0x34
 3077 01c4 00       		.byte	0
 3078 01c5 03       		.uleb128 0x3
 3079 01c6 0E       		.uleb128 0xe
 3080 01c7 3A       		.uleb128 0x3a
 3081 01c8 0B       		.uleb128 0xb
 3082 01c9 3B       		.uleb128 0x3b
 3083 01ca 05       		.uleb128 0x5
 3084 01cb 49       		.uleb128 0x49
 3085 01cc 13       		.uleb128 0x13
 3086 01cd 3F       		.uleb128 0x3f
 3087 01ce 0C       		.uleb128 0xc
 3088 01cf 3C       		.uleb128 0x3c
 3089 01d0 0C       		.uleb128 0xc
 3090 01d1 00       		.byte	0
 3091 01d2 00       		.byte	0
 3092 01d3 24       		.uleb128 0x24
 3093 01d4 34       		.uleb128 0x34
 3094 01d5 00       		.byte	0
 3095 01d6 03       		.uleb128 0x3
 3096 01d7 0E       		.uleb128 0xe
 3097 01d8 3A       		.uleb128 0x3a
 3098 01d9 0B       		.uleb128 0xb
 3099 01da 3B       		.uleb128 0x3b
 3100 01db 0B       		.uleb128 0xb
 3101 01dc 49       		.uleb128 0x49
 3102 01dd 13       		.uleb128 0x13
 3103 01de 3F       		.uleb128 0x3f
 3104 01df 0C       		.uleb128 0xc
 3105 01e0 02       		.uleb128 0x2
 3106 01e1 0A       		.uleb128 0xa
 3107 01e2 00       		.byte	0
 3108 01e3 00       		.byte	0
ARM GAS  C:\Users\z80\AppData\Local\Temp\ccoVIiZT.s 			page 56


 3109 01e4 25       		.uleb128 0x25
 3110 01e5 21       		.uleb128 0x21
 3111 01e6 00       		.byte	0
 3112 01e7 49       		.uleb128 0x49
 3113 01e8 13       		.uleb128 0x13
 3114 01e9 2F       		.uleb128 0x2f
 3115 01ea 05       		.uleb128 0x5
 3116 01eb 00       		.byte	0
 3117 01ec 00       		.byte	0
 3118 01ed 00       		.byte	0
 3119              		.section	.debug_loc,"",%progbits
 3120              	.Ldebug_loc0:
 3121              	.LLST0:
 3122 0000 00000000 		.4byte	.LFB62
 3123 0004 02000000 		.4byte	.LCFI0
 3124 0008 0200     		.2byte	0x2
 3125 000a 7D       		.byte	0x7d
 3126 000b 00       		.sleb128 0
 3127 000c 02000000 		.4byte	.LCFI0
 3128 0010 CA000000 		.4byte	.LFE62
 3129 0014 0200     		.2byte	0x2
 3130 0016 7D       		.byte	0x7d
 3131 0017 08       		.sleb128 8
 3132 0018 00000000 		.4byte	0
 3133 001c 00000000 		.4byte	0
 3134              	.LLST1:
 3135 0020 00000000 		.4byte	.LFB63
 3136 0024 02000000 		.4byte	.LCFI1
 3137 0028 0200     		.2byte	0x2
 3138 002a 7D       		.byte	0x7d
 3139 002b 00       		.sleb128 0
 3140 002c 02000000 		.4byte	.LCFI1
 3141 0030 36000000 		.4byte	.LFE63
 3142 0034 0200     		.2byte	0x2
 3143 0036 7D       		.byte	0x7d
 3144 0037 08       		.sleb128 8
 3145 0038 00000000 		.4byte	0
 3146 003c 00000000 		.4byte	0
 3147              	.LLST2:
 3148 0040 00000000 		.4byte	.LFB64
 3149 0044 02000000 		.4byte	.LCFI2
 3150 0048 0200     		.2byte	0x2
 3151 004a 7D       		.byte	0x7d
 3152 004b 00       		.sleb128 0
 3153 004c 02000000 		.4byte	.LCFI2
 3154 0050 04000000 		.4byte	.LCFI3
 3155 0054 0200     		.2byte	0x2
 3156 0056 7D       		.byte	0x7d
 3157 0057 04       		.sleb128 4
 3158 0058 04000000 		.4byte	.LCFI3
 3159 005c D0020000 		.4byte	.LFE64
 3160 0060 0200     		.2byte	0x2
 3161 0062 7D       		.byte	0x7d
 3162 0063 20       		.sleb128 32
 3163 0064 00000000 		.4byte	0
 3164 0068 00000000 		.4byte	0
 3165              	.LLST3:
ARM GAS  C:\Users\z80\AppData\Local\Temp\ccoVIiZT.s 			page 57


 3166 006c 00000000 		.4byte	.LFB66
 3167 0070 02000000 		.4byte	.LCFI4
 3168 0074 0200     		.2byte	0x2
 3169 0076 7D       		.byte	0x7d
 3170 0077 00       		.sleb128 0
 3171 0078 02000000 		.4byte	.LCFI4
 3172 007c 5A000000 		.4byte	.LFE66
 3173 0080 0200     		.2byte	0x2
 3174 0082 7D       		.byte	0x7d
 3175 0083 08       		.sleb128 8
 3176 0084 00000000 		.4byte	0
 3177 0088 00000000 		.4byte	0
 3178              	.LLST4:
 3179 008c 00000000 		.4byte	.LFB67
 3180 0090 02000000 		.4byte	.LCFI5
 3181 0094 0200     		.2byte	0x2
 3182 0096 7D       		.byte	0x7d
 3183 0097 00       		.sleb128 0
 3184 0098 02000000 		.4byte	.LCFI5
 3185 009c 04000000 		.4byte	.LCFI6
 3186 00a0 0200     		.2byte	0x2
 3187 00a2 7D       		.byte	0x7d
 3188 00a3 04       		.sleb128 4
 3189 00a4 04000000 		.4byte	.LCFI6
 3190 00a8 28000000 		.4byte	.LFE67
 3191 00ac 0200     		.2byte	0x2
 3192 00ae 7D       		.byte	0x7d
 3193 00af 10       		.sleb128 16
 3194 00b0 00000000 		.4byte	0
 3195 00b4 00000000 		.4byte	0
 3196              	.LLST5:
 3197 00b8 00000000 		.4byte	.LFB68
 3198 00bc 02000000 		.4byte	.LCFI7
 3199 00c0 0200     		.2byte	0x2
 3200 00c2 7D       		.byte	0x7d
 3201 00c3 00       		.sleb128 0
 3202 00c4 02000000 		.4byte	.LCFI7
 3203 00c8 52000000 		.4byte	.LFE68
 3204 00cc 0200     		.2byte	0x2
 3205 00ce 7D       		.byte	0x7d
 3206 00cf 08       		.sleb128 8
 3207 00d0 00000000 		.4byte	0
 3208 00d4 00000000 		.4byte	0
 3209              	.LLST6:
 3210 00d8 00000000 		.4byte	.LFB69
 3211 00dc 02000000 		.4byte	.LCFI8
 3212 00e0 0200     		.2byte	0x2
 3213 00e2 7D       		.byte	0x7d
 3214 00e3 00       		.sleb128 0
 3215 00e4 02000000 		.4byte	.LCFI8
 3216 00e8 04000000 		.4byte	.LCFI9
 3217 00ec 0200     		.2byte	0x2
 3218 00ee 7D       		.byte	0x7d
 3219 00ef 04       		.sleb128 4
 3220 00f0 04000000 		.4byte	.LCFI9
 3221 00f4 2E000000 		.4byte	.LFE69
 3222 00f8 0200     		.2byte	0x2
ARM GAS  C:\Users\z80\AppData\Local\Temp\ccoVIiZT.s 			page 58


 3223 00fa 7D       		.byte	0x7d
 3224 00fb 10       		.sleb128 16
 3225 00fc 00000000 		.4byte	0
 3226 0100 00000000 		.4byte	0
 3227              	.LLST7:
 3228 0104 00000000 		.4byte	.LFB70
 3229 0108 02000000 		.4byte	.LCFI10
 3230 010c 0200     		.2byte	0x2
 3231 010e 7D       		.byte	0x7d
 3232 010f 00       		.sleb128 0
 3233 0110 02000000 		.4byte	.LCFI10
 3234 0114 04000000 		.4byte	.LCFI11
 3235 0118 0200     		.2byte	0x2
 3236 011a 7D       		.byte	0x7d
 3237 011b 04       		.sleb128 4
 3238 011c 04000000 		.4byte	.LCFI11
 3239 0120 2E000000 		.4byte	.LFE70
 3240 0124 0200     		.2byte	0x2
 3241 0126 7D       		.byte	0x7d
 3242 0127 10       		.sleb128 16
 3243 0128 00000000 		.4byte	0
 3244 012c 00000000 		.4byte	0
 3245              	.LLST8:
 3246 0130 00000000 		.4byte	.LFB71
 3247 0134 02000000 		.4byte	.LCFI12
 3248 0138 0200     		.2byte	0x2
 3249 013a 7D       		.byte	0x7d
 3250 013b 00       		.sleb128 0
 3251 013c 02000000 		.4byte	.LCFI12
 3252 0140 82010000 		.4byte	.LFE71
 3253 0144 0200     		.2byte	0x2
 3254 0146 7D       		.byte	0x7d
 3255 0147 20       		.sleb128 32
 3256 0148 00000000 		.4byte	0
 3257 014c 00000000 		.4byte	0
 3258              		.section	.debug_aranges,"",%progbits
 3259 0000 64000000 		.4byte	0x64
 3260 0004 0200     		.2byte	0x2
 3261 0006 00000000 		.4byte	.Ldebug_info0
 3262 000a 04       		.byte	0x4
 3263 000b 00       		.byte	0
 3264 000c 0000     		.2byte	0
 3265 000e 0000     		.2byte	0
 3266 0010 00000000 		.4byte	.LFB62
 3267 0014 CA000000 		.4byte	.LFE62-.LFB62
 3268 0018 00000000 		.4byte	.LFB63
 3269 001c 36000000 		.4byte	.LFE63-.LFB63
 3270 0020 00000000 		.4byte	.LFB64
 3271 0024 D0020000 		.4byte	.LFE64-.LFB64
 3272 0028 00000000 		.4byte	.LFB65
 3273 002c 0C000000 		.4byte	.LFE65-.LFB65
 3274 0030 00000000 		.4byte	.LFB66
 3275 0034 5A000000 		.4byte	.LFE66-.LFB66
 3276 0038 00000000 		.4byte	.LFB67
 3277 003c 28000000 		.4byte	.LFE67-.LFB67
 3278 0040 00000000 		.4byte	.LFB68
 3279 0044 52000000 		.4byte	.LFE68-.LFB68
ARM GAS  C:\Users\z80\AppData\Local\Temp\ccoVIiZT.s 			page 59


 3280 0048 00000000 		.4byte	.LFB69
 3281 004c 2E000000 		.4byte	.LFE69-.LFB69
 3282 0050 00000000 		.4byte	.LFB70
 3283 0054 2E000000 		.4byte	.LFE70-.LFB70
 3284 0058 00000000 		.4byte	.LFB71
 3285 005c 82010000 		.4byte	.LFE71-.LFB71
 3286 0060 00000000 		.4byte	0
 3287 0064 00000000 		.4byte	0
 3288              		.section	.debug_ranges,"",%progbits
 3289              	.Ldebug_ranges0:
 3290 0000 00000000 		.4byte	.LFB62
 3291 0004 CA000000 		.4byte	.LFE62
 3292 0008 00000000 		.4byte	.LFB63
 3293 000c 36000000 		.4byte	.LFE63
 3294 0010 00000000 		.4byte	.LFB64
 3295 0014 D0020000 		.4byte	.LFE64
 3296 0018 00000000 		.4byte	.LFB65
 3297 001c 0C000000 		.4byte	.LFE65
 3298 0020 00000000 		.4byte	.LFB66
 3299 0024 5A000000 		.4byte	.LFE66
 3300 0028 00000000 		.4byte	.LFB67
 3301 002c 28000000 		.4byte	.LFE67
 3302 0030 00000000 		.4byte	.LFB68
 3303 0034 52000000 		.4byte	.LFE68
 3304 0038 00000000 		.4byte	.LFB69
 3305 003c 2E000000 		.4byte	.LFE69
 3306 0040 00000000 		.4byte	.LFB70
 3307 0044 2E000000 		.4byte	.LFE70
 3308 0048 00000000 		.4byte	.LFB71
 3309 004c 82010000 		.4byte	.LFE71
 3310 0050 00000000 		.4byte	0
 3311 0054 00000000 		.4byte	0
 3312              		.section	.debug_line,"",%progbits
 3313              	.Ldebug_line0:
 3314 0000 EE030000 		.section	.debug_str,"MS",%progbits,1
 3314      0200B902 
 3314      00000201 
 3314      FB0E0D00 
 3314      01010101 
 3315              	.LASF103:
 3316 0000 646D6172 		.ascii	"dmarx\000"
 3316      7800
 3317              	.LASF2:
 3318 0006 73697A65 		.ascii	"size_t\000"
 3318      5F7400
 3319              	.LASF49:
 3320 000d 7264796D 		.ascii	"rdymsg\000"
 3320      736700
 3321              	.LASF131:
 3322 0014 68735F73 		.ascii	"hs_spicfg\000"
 3322      70696366 
 3322      6700
 3323              	.LASF135:
 3324 001e 6164635F 		.ascii	"adc_queue_buffer\000"
 3324      71756575 
 3324      655F6275 
 3324      66666572 
ARM GAS  C:\Users\z80\AppData\Local\Temp\ccoVIiZT.s 			page 60


 3324      00
 3325              	.LASF97:
 3326 002f 5350495F 		.ascii	"SPI_ACTIVE\000"
 3326      41435449 
 3326      564500
 3327              	.LASF137:
 3328 003a 7369676E 		.ascii	"signalMask\000"
 3328      616C4D61 
 3328      736B00
 3329              	.LASF92:
 3330 0045 696F706F 		.ascii	"ioportmask_t\000"
 3330      72746D61 
 3330      736B5F74 
 3330      00
 3331              	.LASF138:
 3332 0052 70657269 		.ascii	"period\000"
 3332      6F6400
 3333              	.LASF110:
 3334 0059 73737061 		.ascii	"sspad\000"
 3334      6400
 3335              	.LASF14:
 3336 005f 6C6F6E67 		.ascii	"long long unsigned int\000"
 3336      206C6F6E 
 3336      6720756E 
 3336      7369676E 
 3336      65642069 
 3337              	.LASF75:
 3338 0076 43524350 		.ascii	"CRCPR\000"
 3338      5200
 3339              	.LASF50:
 3340 007c 65786974 		.ascii	"exitcode\000"
 3340      636F6465 
 3340      00
 3341              	.LASF90:
 3342 0085 76656374 		.ascii	"vector\000"
 3342      6F7200
 3343              	.LASF98:
 3344 008c 5350495F 		.ascii	"SPI_COMPLETE\000"
 3344      434F4D50 
 3344      4C455445 
 3344      00
 3345              	.LASF100:
 3346 0099 53504944 		.ascii	"SPIDriver\000"
 3346      72697665 
 3346      7200
 3347              	.LASF109:
 3348 00a3 7373706F 		.ascii	"ssport\000"
 3348      727400
 3349              	.LASF140:
 3350 00aa 61646352 		.ascii	"adcRaw\000"
 3350      617700
 3351              	.LASF132:
 3352 00b1 49544D5F 		.ascii	"ITM_RxBuffer\000"
 3352      52784275 
 3352      66666572 
 3352      00
 3353              	.LASF125:
ARM GAS  C:\Users\z80\AppData\Local\Temp\ccoVIiZT.s 			page 61


 3354 00be 7365744F 		.ascii	"setOscPeriod\000"
 3354      73635065 
 3354      72696F64 
 3354      00
 3355              	.LASF24:
 3356 00cb 705F7072 		.ascii	"p_prio\000"
 3356      696F00
 3357              	.LASF146:
 3358 00d2 61646351 		.ascii	"adcQueue\000"
 3358      75657565 
 3358      00
 3359              	.LASF55:
 3360 00db 715F7761 		.ascii	"q_waiting\000"
 3360      6974696E 
 3360      6700
 3361              	.LASF12:
 3362 00e5 6C6F6E67 		.ascii	"long long int\000"
 3362      206C6F6E 
 3362      6720696E 
 3362      7400
 3363              	.LASF1:
 3364 00f3 7369676E 		.ascii	"signed char\000"
 3364      65642063 
 3364      68617200 
 3365              	.LASF144:
 3366 00ff 2E2F7372 		.ascii	"./src/adc_ctrl.c\000"
 3366      632F6164 
 3366      635F6374 
 3366      726C2E63 
 3366      00
 3367              	.LASF95:
 3368 0110 5350495F 		.ascii	"SPI_STOP\000"
 3368      53544F50 
 3368      00
 3369              	.LASF81:
 3370 0119 49325343 		.ascii	"I2SCFGR\000"
 3370      46475200 
 3371              	.LASF46:
 3372 0121 6D5F7175 		.ascii	"m_queue\000"
 3372      65756500 
 3373              	.LASF121:
 3374 0129 696E7374 		.ascii	"instantAdc\000"
 3374      616E7441 
 3374      646300
 3375              	.LASF145:
 3376 0134 433A5C70 		.ascii	"C:\\projects\\digitizer.git\\firmware\\digitizer\000"
 3376      726F6A65 
 3376      6374735C 
 3376      64696769 
 3376      74697A65 
 3377              	.LASF129:
 3378 0161 61646349 		.ascii	"adcIndex\000"
 3378      6E646578 
 3378      00
 3379              	.LASF101:
 3380 016a 73746174 		.ascii	"state\000"
 3380      6500
ARM GAS  C:\Users\z80\AppData\Local\Temp\ccoVIiZT.s 			page 62


 3381              	.LASF9:
 3382 0170 6C6F6E67 		.ascii	"long int\000"
 3382      20696E74 
 3382      00
 3383              	.LASF16:
 3384 0179 74737461 		.ascii	"tstate_t\000"
 3384      74655F74 
 3384      00
 3385              	.LASF57:
 3386 0182 715F6275 		.ascii	"q_buffer\000"
 3386      66666572 
 3386      00
 3387              	.LASF59:
 3388 018b 715F7772 		.ascii	"q_wrptr\000"
 3388      70747200 
 3389              	.LASF32:
 3390 0193 705F7469 		.ascii	"p_time\000"
 3390      6D6500
 3391              	.LASF26:
 3392 019a 705F6E65 		.ascii	"p_newer\000"
 3392      77657200 
 3393              	.LASF108:
 3394 01a2 656E645F 		.ascii	"end_cb\000"
 3394      636200
 3395              	.LASF105:
 3396 01a9 7278646D 		.ascii	"rxdmamode\000"
 3396      616D6F64 
 3396      6500
 3397              	.LASF126:
 3398 01b3 696E7465 		.ascii	"interval\000"
 3398      7276616C 
 3398      00
 3399              	.LASF142:
 3400 01bc 61646350 		.ascii	"adcPointer\000"
 3400      6F696E74 
 3400      657200
 3401              	.LASF124:
 3402 01c7 6D61736B 		.ascii	"mask\000"
 3402      00
 3403              	.LASF41:
 3404 01cc 72656761 		.ascii	"regarm_t\000"
 3404      726D5F74 
 3404      00
 3405              	.LASF89:
 3406 01d5 73656C66 		.ascii	"selfindex\000"
 3406      696E6465 
 3406      7800
 3407              	.LASF107:
 3408 01df 73706963 		.ascii	"spicallback_t\000"
 3408      616C6C62 
 3408      61636B5F 
 3408      7400
 3409              	.LASF115:
 3410 01ed 76616C75 		.ascii	"value\000"
 3410      6500
 3411              	.LASF113:
 3412 01f3 71756572 		.ascii	"queryAdcI\000"
ARM GAS  C:\Users\z80\AppData\Local\Temp\ccoVIiZT.s 			page 63


 3412      79416463 
 3412      4900
 3413              	.LASF116:
 3414 01fd 6F6E5370 		.ascii	"onSpiComplete\000"
 3414      69436F6D 
 3414      706C6574 
 3414      6500
 3415              	.LASF29:
 3416 020b 705F7374 		.ascii	"p_stklimit\000"
 3416      6B6C696D 
 3416      697400
 3417              	.LASF0:
 3418 0216 756E7369 		.ascii	"unsigned int\000"
 3418      676E6564 
 3418      20696E74 
 3418      00
 3419              	.LASF6:
 3420 0223 75696E74 		.ascii	"uint16_t\000"
 3420      31365F74 
 3420      00
 3421              	.LASF65:
 3422 022c 43504152 		.ascii	"CPAR\000"
 3422      00
 3423              	.LASF34:
 3424 0231 705F6D73 		.ascii	"p_msgqueue\000"
 3424      67717565 
 3424      756500
 3425              	.LASF70:
 3426 023c 4750494F 		.ascii	"GPIO_TypeDef\000"
 3426      5F547970 
 3426      65446566 
 3426      00
 3427              	.LASF69:
 3428 0249 4C434B52 		.ascii	"LCKR\000"
 3428      00
 3429              	.LASF88:
 3430 024e 69736869 		.ascii	"ishift\000"
 3430      667400
 3431              	.LASF7:
 3432 0255 73686F72 		.ascii	"short unsigned int\000"
 3432      7420756E 
 3432      7369676E 
 3432      65642069 
 3432      6E7400
 3433              	.LASF139:
 3434 0268 656C6170 		.ascii	"elapsed\000"
 3434      73656400 
 3435              	.LASF18:
 3436 0270 6D73675F 		.ascii	"msg_t\000"
 3436      7400
 3437              	.LASF114:
 3438 0276 70726576 		.ascii	"prevIndex\000"
 3438      496E6465 
 3438      7800
 3439              	.LASF15:
 3440 0280 746D6F64 		.ascii	"tmode_t\000"
 3440      655F7400 
ARM GAS  C:\Users\z80\AppData\Local\Temp\ccoVIiZT.s 			page 64


 3441              	.LASF40:
 3442 0288 54687265 		.ascii	"ThreadsList\000"
 3442      6164734C 
 3442      69737400 
 3443              	.LASF19:
 3444 0294 6576656E 		.ascii	"eventmask_t\000"
 3444      746D6173 
 3444      6B5F7400 
 3445              	.LASF5:
 3446 02a0 73686F72 		.ascii	"short int\000"
 3446      7420696E 
 3446      7400
 3447              	.LASF62:
 3448 02aa 716E6F74 		.ascii	"qnotify_t\000"
 3448      6966795F 
 3448      7400
 3449              	.LASF54:
 3450 02b4 47656E65 		.ascii	"GenericQueue\000"
 3450      72696351 
 3450      75657565 
 3450      00
 3451              	.LASF42:
 3452 02c1 73746B61 		.ascii	"stkalign_t\000"
 3452      6C69676E 
 3452      5F7400
 3453              	.LASF120:
 3454 02cc 76616C73 		.ascii	"vals\000"
 3454      00
 3455              	.LASF21:
 3456 02d1 54687265 		.ascii	"Thread\000"
 3456      616400
 3457              	.LASF112:
 3458 02d8 696E6974 		.ascii	"initAdc\000"
 3458      41646300 
 3459              	.LASF83:
 3460 02e0 49325350 		.ascii	"I2SPR\000"
 3460      5200
 3461              	.LASF56:
 3462 02e6 715F636F 		.ascii	"q_counter\000"
 3462      756E7465 
 3462      7200
 3463              	.LASF45:
 3464 02f0 4D757465 		.ascii	"Mutex\000"
 3464      7800
 3465              	.LASF13:
 3466 02f6 75696E74 		.ascii	"uint64_t\000"
 3466      36345F74 
 3466      00
 3467              	.LASF27:
 3468 02ff 705F6F6C 		.ascii	"p_older\000"
 3468      64657200 
 3469              	.LASF127:
 3470 0307 66696C74 		.ascii	"filterAdc\000"
 3470      65724164 
 3470      6300
 3471              	.LASF39:
 3472 0311 54687265 		.ascii	"ThreadsQueue\000"
ARM GAS  C:\Users\z80\AppData\Local\Temp\ccoVIiZT.s 			page 65


 3472      61647351 
 3472      75657565 
 3472      00
 3473              	.LASF106:
 3474 031e 7478646D 		.ascii	"txdmamode\000"
 3474      616D6F64 
 3474      6500
 3475              	.LASF117:
 3476 0328 73656C65 		.ascii	"selectAdcIndex\000"
 3476      63744164 
 3476      63496E64 
 3476      657800
 3477              	.LASF122:
 3478 0337 696E7374 		.ascii	"instantAdcI\000"
 3478      616E7441 
 3478      64634900 
 3479              	.LASF67:
 3480 0343 444D415F 		.ascii	"DMA_Channel_TypeDef\000"
 3480      4368616E 
 3480      6E656C5F 
 3480      54797065 
 3480      44656600 
 3481              	.LASF87:
 3482 0357 69666372 		.ascii	"ifcr\000"
 3482      00
 3483              	.LASF104:
 3484 035c 646D6174 		.ascii	"dmatx\000"
 3484      7800
 3485              	.LASF71:
 3486 0362 52455345 		.ascii	"RESERVED0\000"
 3486      52564544 
 3486      3000
 3487              	.LASF72:
 3488 036c 52455345 		.ascii	"RESERVED1\000"
 3488      52564544 
 3488      3100
 3489              	.LASF73:
 3490 0376 52455345 		.ascii	"RESERVED2\000"
 3490      52564544 
 3490      3200
 3491              	.LASF74:
 3492 0380 52455345 		.ascii	"RESERVED3\000"
 3492      52564544 
 3492      3300
 3493              	.LASF76:
 3494 038a 52455345 		.ascii	"RESERVED4\000"
 3494      52564544 
 3494      3400
 3495              	.LASF23:
 3496 0394 705F7072 		.ascii	"p_prev\000"
 3496      657600
 3497              	.LASF80:
 3498 039b 52455345 		.ascii	"RESERVED6\000"
 3498      52564544 
 3498      3600
 3499              	.LASF82:
 3500 03a5 52455345 		.ascii	"RESERVED7\000"
ARM GAS  C:\Users\z80\AppData\Local\Temp\ccoVIiZT.s 			page 66


 3500      52564544 
 3500      3700
 3501              	.LASF84:
 3502 03af 52455345 		.ascii	"RESERVED8\000"
 3502      52564544 
 3502      3800
 3503              	.LASF17:
 3504 03b9 74707269 		.ascii	"tprio_t\000"
 3504      6F5F7400 
 3505              	.LASF60:
 3506 03c1 715F7264 		.ascii	"q_rdptr\000"
 3506      70747200 
 3507              	.LASF8:
 3508 03c9 696E7433 		.ascii	"int32_t\000"
 3508      325F7400 
 3509              	.LASF4:
 3510 03d1 756E7369 		.ascii	"unsigned char\000"
 3510      676E6564 
 3510      20636861 
 3510      7200
 3511              	.LASF91:
 3512 03df 73746D33 		.ascii	"stm32_dma_stream_t\000"
 3512      325F646D 
 3512      615F7374 
 3512      7265616D 
 3512      5F7400
 3513              	.LASF133:
 3514 03f2 53504944 		.ascii	"SPID1\000"
 3514      3100
 3515              	.LASF134:
 3516 03f8 6164635F 		.ascii	"adc_queue\000"
 3516      71756575 
 3516      6500
 3517              	.LASF37:
 3518 0402 705F6D74 		.ascii	"p_mtxlist\000"
 3518      786C6973 
 3518      7400
 3519              	.LASF30:
 3520 040c 705F7374 		.ascii	"p_state\000"
 3520      61746500 
 3521              	.LASF52:
 3522 0414 65776D61 		.ascii	"ewmask\000"
 3522      736B00
 3523              	.LASF22:
 3524 041b 705F6E65 		.ascii	"p_next\000"
 3524      787400
 3525              	.LASF31:
 3526 0422 705F666C 		.ascii	"p_flags\000"
 3526      61677300 
 3527              	.LASF136:
 3528 042a 6164635F 		.ascii	"adc_rx_buffer\000"
 3528      72785F62 
 3528      75666665 
 3528      7200
 3529              	.LASF86:
 3530 0438 6368616E 		.ascii	"channel\000"
 3530      6E656C00 
ARM GAS  C:\Users\z80\AppData\Local\Temp\ccoVIiZT.s 			page 67


 3531              	.LASF123:
 3532 0440 7365744F 		.ascii	"setOscSignals\000"
 3532      73635369 
 3532      676E616C 
 3532      7300
 3533              	.LASF36:
 3534 044e 705F6570 		.ascii	"p_epending\000"
 3534      656E6469 
 3534      6E6700
 3535              	.LASF78:
 3536 0459 52455345 		.ascii	"RESERVED5\000"
 3536      52564544 
 3536      3500
 3537              	.LASF10:
 3538 0463 75696E74 		.ascii	"uint32_t\000"
 3538      33325F74 
 3538      00
 3539              	.LASF130:
 3540 046c 696E7374 		.ascii	"instantAdcData\000"
 3540      616E7441 
 3540      64634461 
 3540      746100
 3541              	.LASF77:
 3542 047b 52584352 		.ascii	"RXCRCR\000"
 3542      435200
 3543              	.LASF143:
 3544 0482 474E5520 		.ascii	"GNU C 4.6.3\000"
 3544      4320342E 
 3544      362E3300 
 3545              	.LASF11:
 3546 048e 6C6F6E67 		.ascii	"long unsigned int\000"
 3546      20756E73 
 3546      69676E65 
 3546      6420696E 
 3546      7400
 3547              	.LASF85:
 3548 04a0 5350495F 		.ascii	"SPI_TypeDef\000"
 3548      54797065 
 3548      44656600 
 3549              	.LASF53:
 3550 04ac 63686172 		.ascii	"char\000"
 3550      00
 3551              	.LASF141:
 3552 04b1 61646346 		.ascii	"adcFiltered\000"
 3552      696C7465 
 3552      72656400 
 3553              	.LASF102:
 3554 04bd 636F6E66 		.ascii	"config\000"
 3554      696700
 3555              	.LASF79:
 3556 04c4 54584352 		.ascii	"TXCRCR\000"
 3556      435200
 3557              	.LASF119:
 3558 04cb 696E6465 		.ascii	"index\000"
 3558      7800
 3559              	.LASF99:
 3560 04d1 73706973 		.ascii	"spistate_t\000"
ARM GAS  C:\Users\z80\AppData\Local\Temp\ccoVIiZT.s 			page 68


 3560      74617465 
 3560      5F7400
 3561              	.LASF48:
 3562 04dc 6D5F6E65 		.ascii	"m_next\000"
 3562      787400
 3563              	.LASF20:
 3564 04e3 73797374 		.ascii	"systime_t\000"
 3564      696D655F 
 3564      7400
 3565              	.LASF38:
 3566 04ed 705F7265 		.ascii	"p_realprio\000"
 3566      616C7072 
 3566      696F00
 3567              	.LASF128:
 3568 04f8 66696C74 		.ascii	"filtered\000"
 3568      65726564 
 3568      00
 3569              	.LASF93:
 3570 0501 696F706F 		.ascii	"ioportid_t\000"
 3570      72746964 
 3570      5F7400
 3571              	.LASF44:
 3572 050c 636F6E74 		.ascii	"context\000"
 3572      65787400 
 3573              	.LASF43:
 3574 0514 696E7463 		.ascii	"intctx\000"
 3574      747800
 3575              	.LASF96:
 3576 051b 5350495F 		.ascii	"SPI_READY\000"
 3576      52454144 
 3576      5900
 3577              	.LASF94:
 3578 0525 5350495F 		.ascii	"SPI_UNINIT\000"
 3578      554E494E 
 3578      495400
 3579              	.LASF58:
 3580 0530 715F746F 		.ascii	"q_top\000"
 3580      7000
 3581              	.LASF68:
 3582 0536 42535252 		.ascii	"BSRR\000"
 3582      00
 3583              	.LASF118:
 3584 053b 73706964 		.ascii	"spid\000"
 3584      00
 3585              	.LASF64:
 3586 0540 434E4454 		.ascii	"CNDTR\000"
 3586      5200
 3587              	.LASF66:
 3588 0546 434D4152 		.ascii	"CMAR\000"
 3588      00
 3589              	.LASF61:
 3590 054b 715F6E6F 		.ascii	"q_notify\000"
 3590      74696679 
 3590      00
 3591              	.LASF3:
 3592 0554 75696E74 		.ascii	"uint8_t\000"
 3592      385F7400 
ARM GAS  C:\Users\z80\AppData\Local\Temp\ccoVIiZT.s 			page 69


 3593              	.LASF63:
 3594 055c 496E7075 		.ascii	"InputQueue\000"
 3594      74517565 
 3594      756500
 3595              	.LASF51:
 3596 0567 77746F62 		.ascii	"wtobjp\000"
 3596      6A7000
 3597              	.LASF28:
 3598 056e 705F6E61 		.ascii	"p_name\000"
 3598      6D6500
 3599              	.LASF111:
 3600 0575 53504943 		.ascii	"SPIConfig\000"
 3600      6F6E6669 
 3600      6700
 3601              	.LASF35:
 3602 057f 705F6D73 		.ascii	"p_msg\000"
 3602      6700
 3603              	.LASF47:
 3604 0585 6D5F6F77 		.ascii	"m_owner\000"
 3604      6E657200 
 3605              	.LASF25:
 3606 058d 705F6374 		.ascii	"p_ctx\000"
 3606      7800
 3607              	.LASF33:
 3608 0593 705F7761 		.ascii	"p_waiting\000"
 3608      6974696E 
 3608      6700
 3609              		.ident	"GCC: (Sourcery CodeBench Lite 2012.03-56) 4.6.3"
ARM GAS  C:\Users\z80\AppData\Local\Temp\ccoVIiZT.s 			page 70


DEFINED SYMBOLS
                            *ABS*:00000000 adc_ctrl.c
C:\Users\z80\AppData\Local\Temp\ccoVIiZT.s:23     .bss.adc_queue:00000000 adc_queue
C:\Users\z80\AppData\Local\Temp\ccoVIiZT.s:20     .bss.adc_queue:00000000 $d
C:\Users\z80\AppData\Local\Temp\ccoVIiZT.s:30     .bss.adc_queue_buffer:00000000 adc_queue_buffer
C:\Users\z80\AppData\Local\Temp\ccoVIiZT.s:27     .bss.adc_queue_buffer:00000000 $d
C:\Users\z80\AppData\Local\Temp\ccoVIiZT.s:37     .bss.adc_rx_buffer:00000000 adc_rx_buffer
C:\Users\z80\AppData\Local\Temp\ccoVIiZT.s:34     .bss.adc_rx_buffer:00000000 $d
C:\Users\z80\AppData\Local\Temp\ccoVIiZT.s:40     .bss.adcIndex:00000000 $d
C:\Users\z80\AppData\Local\Temp\ccoVIiZT.s:43     .bss.adcIndex:00000000 adcIndex
C:\Users\z80\AppData\Local\Temp\ccoVIiZT.s:46     .data.instantAdcData:00000000 $d
C:\Users\z80\AppData\Local\Temp\ccoVIiZT.s:49     .data.instantAdcData:00000000 instantAdcData
C:\Users\z80\AppData\Local\Temp\ccoVIiZT.s:59     .data.signalMask:00000000 signalMask
C:\Users\z80\AppData\Local\Temp\ccoVIiZT.s:56     .data.signalMask:00000000 $d
C:\Users\z80\AppData\Local\Temp\ccoVIiZT.s:66     .data.period:00000000 period
C:\Users\z80\AppData\Local\Temp\ccoVIiZT.s:63     .data.period:00000000 $d
C:\Users\z80\AppData\Local\Temp\ccoVIiZT.s:73     .bss.elapsed:00000000 elapsed
C:\Users\z80\AppData\Local\Temp\ccoVIiZT.s:70     .bss.elapsed:00000000 $d
C:\Users\z80\AppData\Local\Temp\ccoVIiZT.s:76     .rodata.hs_spicfg:00000000 $d
C:\Users\z80\AppData\Local\Temp\ccoVIiZT.s:79     .rodata.hs_spicfg:00000000 hs_spicfg
C:\Users\z80\AppData\Local\Temp\ccoVIiZT.s:213    .text.onSpiComplete:00000000 onSpiComplete
C:\Users\z80\AppData\Local\Temp\ccoVIiZT.s:85     .text.initAdc:00000000 $t
C:\Users\z80\AppData\Local\Temp\ccoVIiZT.s:91     .text.initAdc:00000000 initAdc
C:\Users\z80\AppData\Local\Temp\ccoVIiZT.s:538    .text.selectAdcIndex:00000000 selectAdcIndex
C:\Users\z80\AppData\Local\Temp\ccoVIiZT.s:170    .text.queryAdcI:00000000 $t
C:\Users\z80\AppData\Local\Temp\ccoVIiZT.s:176    .text.queryAdcI:00000000 queryAdcI
C:\Users\z80\AppData\Local\Temp\ccoVIiZT.s:208    .text.onSpiComplete:00000000 $t
C:\Users\z80\AppData\Local\Temp\ccoVIiZT.s:823    .text.filterAdc:00000000 filterAdc
C:\Users\z80\AppData\Local\Temp\ccoVIiZT.s:510    .text.adcQueue:00000000 $t
C:\Users\z80\AppData\Local\Temp\ccoVIiZT.s:516    .text.adcQueue:00000000 adcQueue
C:\Users\z80\AppData\Local\Temp\ccoVIiZT.s:533    .text.selectAdcIndex:00000000 $t
C:\Users\z80\AppData\Local\Temp\ccoVIiZT.s:593    .text.instantAdc:00000000 $t
C:\Users\z80\AppData\Local\Temp\ccoVIiZT.s:599    .text.instantAdc:00000000 instantAdc
C:\Users\z80\AppData\Local\Temp\ccoVIiZT.s:647    .text.instantAdcI:00000000 instantAdcI
C:\Users\z80\AppData\Local\Temp\ccoVIiZT.s:641    .text.instantAdcI:00000000 $t
C:\Users\z80\AppData\Local\Temp\ccoVIiZT.s:697    .text.setOscSignals:00000000 $t
C:\Users\z80\AppData\Local\Temp\ccoVIiZT.s:703    .text.setOscSignals:00000000 setOscSignals
C:\Users\z80\AppData\Local\Temp\ccoVIiZT.s:747    .text.setOscPeriod:00000000 $t
C:\Users\z80\AppData\Local\Temp\ccoVIiZT.s:753    .text.setOscPeriod:00000000 setOscPeriod
C:\Users\z80\AppData\Local\Temp\ccoVIiZT.s:801    .bss.adcRaw:00000000 adcRaw
C:\Users\z80\AppData\Local\Temp\ccoVIiZT.s:798    .bss.adcRaw:00000000 $d
C:\Users\z80\AppData\Local\Temp\ccoVIiZT.s:808    .bss.adcFiltered:00000000 adcFiltered
C:\Users\z80\AppData\Local\Temp\ccoVIiZT.s:805    .bss.adcFiltered:00000000 $d
C:\Users\z80\AppData\Local\Temp\ccoVIiZT.s:815    .bss.adcPointer:00000000 adcPointer
C:\Users\z80\AppData\Local\Temp\ccoVIiZT.s:812    .bss.adcPointer:00000000 $d
C:\Users\z80\AppData\Local\Temp\ccoVIiZT.s:818    .text.filterAdc:00000000 $t
                     .debug_frame:00000010 $d

UNDEFINED SYMBOLS
_pal_lld_setgroupmode
chIQInit
SPID1
spiStart
spi_lld_select
spi_lld_receive
dbg_check_lock_from_isr
spi_lld_unselect
ARM GAS  C:\Users\z80\AppData\Local\Temp\ccoVIiZT.s 			page 71


chIQPutI
dbg_check_unlock_from_isr
dbg_check_lock
dbg_check_unlock
