ARM GAS  C:\Users\z80\AppData\Local\Temp\cc0Tlqmx.s 			page 1


   1              		.syntax unified
   2              		.cpu cortex-m3
   3              		.fpu softvfp
   4              		.eabi_attribute 20, 1
   5              		.eabi_attribute 21, 1
   6              		.eabi_attribute 23, 3
   7              		.eabi_attribute 24, 1
   8              		.eabi_attribute 25, 1
   9              		.eabi_attribute 26, 1
  10              		.eabi_attribute 30, 2
  11              		.eabi_attribute 18, 4
  12              		.thumb
  13              		.file	"adc_ctrl.c"
  14              		.section	.debug_abbrev,"",%progbits
  15              	.Ldebug_abbrev0:
  16              		.section	.debug_info,"",%progbits
  17              	.Ldebug_info0:
  18              		.section	.debug_line,"",%progbits
  19              	.Ldebug_line0:
  20 0000 00030000 		.text
  20      02007C02 
  20      00000201 
  20      FB0E0D00 
  20      01010101 
  21              	.Ltext0:
  22              		.cfi_sections	.debug_frame
  23              		.section	.text.onSpiComplete,"ax",%progbits
  24              		.align	2
  25              		.p2align 4,,15
  26              		.thumb
  27              		.thumb_func
  28              		.type	onSpiComplete, %function
  29              	onSpiComplete:
  30              	.LFB64:
  31              		.file 1 "./src/adc_ctrl.c"
  32              		.loc 1 57 0
  33              		.cfi_startproc
  34              		@ args = 0, pretend = 0, frame = 0
  35              		@ frame_needed = 0, uses_anonymous_args = 0
  36              	.LVL0:
  37 0000 38B5     		push	{r3, r4, r5, lr}
  38              	.LCFI0:
  39              		.cfi_def_cfa_offset 16
  40              	.LBB2:
  41              		.loc 1 59 0
  42 0002 2023     		movs	r3, #32
  43              		.cfi_offset 14, -4
  44              		.cfi_offset 5, -8
  45              		.cfi_offset 4, -12
  46              		.cfi_offset 3, -16
  47              	.LVL1:
  48              	@ 59 "./src/adc_ctrl.c" 1
  49 0004 83F31188 		msr     BASEPRI, r3
  50              	@ 0 "" 2
  51              	.LVL2:
  52              		.thumb
  53              	.LBE2:
ARM GAS  C:\Users\z80\AppData\Local\Temp\cc0Tlqmx.s 			page 2


  54              		.loc 1 61 0
  55 0008 0F4C     		ldr	r4, .L4
  56              		.loc 1 59 0
  57 000a FFF7FEFF 		bl	dbg_check_lock_from_isr
  58              	.LVL3:
  59              		.loc 1 60 0
  60 000e 0F48     		ldr	r0, .L4+4
  61 0010 FFF7FEFF 		bl	spi_lld_unselect
  62              		.loc 1 61 0
  63 0014 2169     		ldr	r1, [r4, #16]
  64 0016 E368     		ldr	r3, [r4, #12]
  65 0018 A268     		ldr	r2, [r4, #8]
  66 001a CB1A     		subs	r3, r1, r3
  67 001c 9B1A     		subs	r3, r3, r2
  68 001e 022B     		cmp	r3, #2
  69 0020 0CD9     		bls	.L2
  70              		.loc 1 66 0
  71 0022 0B4D     		ldr	r5, .L4+8
  72 0024 2046     		mov	r0, r4
  73 0026 2978     		ldrb	r1, [r5, #0]	@ zero_extendqisi2
  74 0028 FFF7FEFF 		bl	chIQPutI
  75              		.loc 1 67 0
  76 002c 6978     		ldrb	r1, [r5, #1]	@ zero_extendqisi2
  77 002e 2046     		mov	r0, r4
  78 0030 FFF7FEFF 		bl	chIQPutI
  79              		.loc 1 68 0
  80 0034 A978     		ldrb	r1, [r5, #2]	@ zero_extendqisi2
  81 0036 2046     		mov	r0, r4
  82 0038 FFF7FEFF 		bl	chIQPutI
  83              	.L2:
  84              		.loc 1 70 0
  85 003c FFF7FEFF 		bl	dbg_check_unlock_from_isr
  86              	.LBB3:
  87 0040 0023     		movs	r3, #0
  88              	.LVL4:
  89              	@ 70 "./src/adc_ctrl.c" 1
  90 0042 83F31188 		msr     BASEPRI, r3
  91              	@ 0 "" 2
  92              	.LVL5:
  93              		.thumb
  94              	.LBE3:
  95              		.loc 1 71 0
  96 0046 38BD     		pop	{r3, r4, r5, pc}
  97              	.L5:
  98              		.align	2
  99              	.L4:
 100 0048 00000000 		.word	.LANCHOR0
 101 004c 00000000 		.word	SPID1
 102 0050 00000000 		.word	.LANCHOR1
 103              		.cfi_endproc
 104              	.LFE64:
 105              		.size	onSpiComplete, .-onSpiComplete
 106 0054 AFF30080 		.section	.text.initAdc,"ax",%progbits
 106      AFF30080 
 106      AFF30080 
 107              		.align	2
 108              		.p2align 4,,15
ARM GAS  C:\Users\z80\AppData\Local\Temp\cc0Tlqmx.s 			page 3


 109              		.global	initAdc
 110              		.thumb
 111              		.thumb_func
 112              		.type	initAdc, %function
 113              	initAdc:
 114              	.LFB62:
 115              		.loc 1 33 0
 116              		.cfi_startproc
 117              		@ args = 0, pretend = 0, frame = 0
 118              		@ frame_needed = 0, uses_anonymous_args = 0
 119 0000 10B5     		push	{r4, lr}
 120              	.LCFI1:
 121              		.cfi_def_cfa_offset 8
 122              		.loc 1 34 0
 123 0002 40F20000 		movw	r0, #:lower16:.LANCHOR0
 124 0006 40F20001 		movw	r1, #:lower16:.LANCHOR2
 125              		.loc 1 36 0
 126 000a 4FF40064 		mov	r4, #2048
 127              		.cfi_offset 14, -4
 128              		.cfi_offset 4, -8
 129              		.loc 1 34 0
 130 000e 0023     		movs	r3, #0
 131              		.loc 1 36 0
 132 0010 C4F20104 		movt	r4, 16385
 133              		.loc 1 34 0
 134 0014 1822     		movs	r2, #24
 135 0016 C0F20000 		movt	r0, #:upper16:.LANCHOR0
 136 001a C0F20001 		movt	r1, #:upper16:.LANCHOR2
 137 001e FFF7FEFF 		bl	chIQInit
 138              		.loc 1 36 0
 139 0022 0121     		movs	r1, #1
 140 0024 0622     		movs	r2, #6
 141 0026 2046     		mov	r0, r4
 142 0028 FFF7FEFF 		bl	_pal_lld_setgroupmode
 143              		.loc 1 37 0
 144 002c 2046     		mov	r0, r4
 145 002e 0221     		movs	r1, #2
 146 0030 0622     		movs	r2, #6
 147 0032 FFF7FEFF 		bl	_pal_lld_setgroupmode
 148              		.loc 1 39 0
 149 0036 2046     		mov	r0, r4
 150 0038 2021     		movs	r1, #32
 151 003a 1022     		movs	r2, #16
 152 003c FFF7FEFF 		bl	_pal_lld_setgroupmode
 153              		.loc 1 40 0
 154 0040 2046     		mov	r0, r4
 155 0042 4021     		movs	r1, #64
 156 0044 1022     		movs	r2, #16
 157 0046 FFF7FEFF 		bl	_pal_lld_setgroupmode
 158              		.loc 1 41 0
 159 004a 2046     		mov	r0, r4
 160 004c 8021     		movs	r1, #128
 161 004e 1022     		movs	r2, #16
 162 0050 FFF7FEFF 		bl	_pal_lld_setgroupmode
 163              		.loc 1 42 0
 164 0054 2046     		mov	r0, r4
 165 0056 1021     		movs	r1, #16
ARM GAS  C:\Users\z80\AppData\Local\Temp\cc0Tlqmx.s 			page 4


 166 0058 0622     		movs	r2, #6
 167 005a FFF7FEFF 		bl	_pal_lld_setgroupmode
 168              		.loc 1 43 0
 169 005e 1023     		movs	r3, #16
 170              		.loc 1 45 0
 171 0060 40F20000 		movw	r0, #:lower16:SPID1
 172 0064 40F20001 		movw	r1, #:lower16:.LANCHOR3
 173 0068 C0F20001 		movt	r1, #:upper16:.LANCHOR3
 174 006c C0F20000 		movt	r0, #:upper16:SPID1
 175              		.loc 1 43 0
 176 0070 2361     		str	r3, [r4, #16]
 177              		.loc 1 45 0
 178 0072 FFF7FEFF 		bl	spiStart
 179              		.loc 1 46 0
 180 0076 10BD     		pop	{r4, pc}
 181              		.cfi_endproc
 182              	.LFE62:
 183              		.size	initAdc, .-initAdc
 184 0078 AFF30080 		.section	.text.queryAdcI,"ax",%progbits
 184      AFF30080 
 185              		.align	2
 186              		.p2align 4,,15
 187              		.global	queryAdcI
 188              		.thumb
 189              		.thumb_func
 190              		.type	queryAdcI, %function
 191              	queryAdcI:
 192              	.LFB63:
 193              		.loc 1 49 0
 194              		.cfi_startproc
 195              		@ args = 0, pretend = 0, frame = 0
 196              		@ frame_needed = 0, uses_anonymous_args = 0
 197 0000 10B5     		push	{r4, lr}
 198              	.LCFI2:
 199              		.cfi_def_cfa_offset 8
 200              	.LBB4:
 201              		.loc 1 50 0
 202 0002 2023     		movs	r3, #32
 203              	.LVL6:
 204              	@ 50 "./src/adc_ctrl.c" 1
 205 0004 83F31188 		msr     BASEPRI, r3
 206              	@ 0 "" 2
 207              	.LVL7:
 208              		.thumb
 209              	.LBE4:
 210              		.loc 1 51 0
 211 0008 40F20004 		movw	r4, #:lower16:SPID1
 212              		.cfi_offset 14, -4
 213              		.cfi_offset 4, -8
 214 000c C0F20004 		movt	r4, #:upper16:SPID1
 215              		.loc 1 50 0
 216 0010 FFF7FEFF 		bl	dbg_check_lock_from_isr
 217              	.LVL8:
 218              		.loc 1 51 0
 219 0014 2046     		mov	r0, r4
 220 0016 FFF7FEFF 		bl	spi_lld_select
 221              		.loc 1 52 0
ARM GAS  C:\Users\z80\AppData\Local\Temp\cc0Tlqmx.s 			page 5


 222 001a 0323     		movs	r3, #3
 223 001c 40F20002 		movw	r2, #:lower16:.LANCHOR1
 224 0020 1946     		mov	r1, r3
 225 0022 C0F20002 		movt	r2, #:upper16:.LANCHOR1
 226 0026 2046     		mov	r0, r4
 227 0028 2370     		strb	r3, [r4, #0]
 228 002a FFF7FEFF 		bl	spi_lld_receive
 229              		.loc 1 53 0
 230 002e FFF7FEFF 		bl	dbg_check_unlock_from_isr
 231              	.LBB5:
 232 0032 0023     		movs	r3, #0
 233              	.LVL9:
 234              	@ 53 "./src/adc_ctrl.c" 1
 235 0034 83F31188 		msr     BASEPRI, r3
 236              	@ 0 "" 2
 237              	.LVL10:
 238              		.thumb
 239              	.LBE5:
 240              		.loc 1 54 0
 241 0038 10BD     		pop	{r4, pc}
 242              		.cfi_endproc
 243              	.LFE63:
 244              		.size	queryAdcI, .-queryAdcI
 245 003a 00BFAFF3 		.section	.text.adcQueue,"ax",%progbits
 245      0080
 246              		.align	2
 247              		.p2align 4,,15
 248              		.global	adcQueue
 249              		.thumb
 250              		.thumb_func
 251              		.type	adcQueue, %function
 252              	adcQueue:
 253              	.LFB65:
 254              		.loc 1 74 0
 255              		.cfi_startproc
 256              		@ args = 0, pretend = 0, frame = 0
 257              		@ frame_needed = 0, uses_anonymous_args = 0
 258              		@ link register save eliminated.
 259              		.loc 1 75 0
 260 0000 40F20000 		movw	r0, #:lower16:.LANCHOR0
 261 0004 C0F20000 		movt	r0, #:upper16:.LANCHOR0
 262              		.loc 1 76 0
 263 0008 7047     		bx	lr
 264              		.cfi_endproc
 265              	.LFE65:
 266              		.size	adcQueue, .-adcQueue
 267 000a 00BFAFF3 		.section	.text.selectAdc,"ax",%progbits
 267      0080
 268              		.align	2
 269              		.p2align 4,,15
 270              		.global	selectAdc
 271              		.thumb
 272              		.thumb_func
 273              		.type	selectAdc, %function
 274              	selectAdc:
 275              	.LFB66:
 276              		.loc 1 79 0
ARM GAS  C:\Users\z80\AppData\Local\Temp\cc0Tlqmx.s 			page 6


 277              		.cfi_startproc
 278              		@ args = 0, pretend = 0, frame = 0
 279              		@ frame_needed = 0, uses_anonymous_args = 0
 280              		@ link register save eliminated.
 281              	.LVL11:
 282              		.loc 1 80 0
 283 0000 10F0010F 		tst	r0, #1
 284 0004 0FD0     		beq	.L10
 285              		.loc 1 81 0
 286 0006 4FF40063 		mov	r3, #2048
 287 000a 0122     		movs	r2, #1
 288 000c C4F20103 		movt	r3, 16385
 289              		.loc 1 85 0
 290 0010 10F0020F 		tst	r0, #2
 291              		.loc 1 81 0
 292 0014 1A61     		str	r2, [r3, #16]
 293              		.loc 1 85 0
 294 0016 0FD1     		bne	.L14
 295              	.L12:
 296              		.loc 1 88 0
 297 0018 4FF40063 		mov	r3, #2048
 298 001c C4F20103 		movt	r3, 16385
 299 0020 0222     		movs	r2, #2
 300 0022 5A61     		str	r2, [r3, #20]
 301              	.L9:
 302              		.loc 1 89 0
 303 0024 7047     		bx	lr
 304              	.L10:
 305              		.loc 1 83 0
 306 0026 4FF40063 		mov	r3, #2048
 307 002a 0122     		movs	r2, #1
 308 002c C4F20103 		movt	r3, 16385
 309              		.loc 1 85 0
 310 0030 10F0020F 		tst	r0, #2
 311              		.loc 1 83 0
 312 0034 5A61     		str	r2, [r3, #20]
 313              		.loc 1 85 0
 314 0036 EFD0     		beq	.L12
 315              	.L14:
 316              		.loc 1 86 0
 317 0038 4FF40063 		mov	r3, #2048
 318 003c C4F20103 		movt	r3, 16385
 319 0040 0222     		movs	r2, #2
 320 0042 1A61     		str	r2, [r3, #16]
 321 0044 EEE7     		b	.L9
 322              		.cfi_endproc
 323              	.LFE66:
 324              		.size	selectAdc, .-selectAdc
 325              		.global	adc_queue
 326              		.global	adc_queue_buffer
 327              		.global	adc_rx_buffer
 328 0046 00BFAFF3 		.section	.bss.adc_queue,"aw",%nobits
 328      0080AFF3 
 328      0080
 329              		.align	2
 330              		.set	.LANCHOR0,. + 0
 331              		.type	adc_queue, %object
ARM GAS  C:\Users\z80\AppData\Local\Temp\cc0Tlqmx.s 			page 7


 332              		.size	adc_queue, 32
 333              	adc_queue:
 334 0000 00000000 		.space	32
 334      00000000 
 334      00000000 
 334      00000000 
 334      00000000 
 335              		.section	.rodata.hs_spicfg,"a",%progbits
 336              		.align	2
 337              		.set	.LANCHOR3,. + 0
 338              		.type	hs_spicfg, %object
 339              		.size	hs_spicfg, 12
 340              	hs_spicfg:
 341 0000 00000000 		.word	onSpiComplete
 342 0004 00080140 		.word	1073809408
 343 0008 0400     		.short	4
 344 000a 0000     		.short	0
 345              		.section	.bss.adc_rx_buffer,"aw",%nobits
 346              		.align	2
 347              		.set	.LANCHOR1,. + 0
 348              		.type	adc_rx_buffer, %object
 349              		.size	adc_rx_buffer, 3
 350              	adc_rx_buffer:
 351 0000 000000   		.space	3
 352 0003 00       		.section	.bss.adc_queue_buffer,"aw",%nobits
 353              		.align	2
 354              		.set	.LANCHOR2,. + 0
 355              		.type	adc_queue_buffer, %object
 356              		.size	adc_queue_buffer, 24
 357              	adc_queue_buffer:
 358 0000 00000000 		.space	24
 358      00000000 
 358      00000000 
 358      00000000 
 358      00000000 
 359              		.text
 360              	.Letext0:
 361              		.section	.debug_loc,"",%progbits
 362              	.Ldebug_loc0:
 363              	.LLST0:
 364 0000 00000000 		.4byte	.LFB64
 365 0004 02000000 		.4byte	.LCFI0
 366 0008 0200     		.2byte	0x2
 367 000a 7D       		.byte	0x7d
 368 000b 00       		.sleb128 0
 369 000c 02000000 		.4byte	.LCFI0
 370 0010 54000000 		.4byte	.LFE64
 371 0014 0200     		.2byte	0x2
 372 0016 7D       		.byte	0x7d
 373 0017 10       		.sleb128 16
 374 0018 00000000 		.4byte	0x0
 375 001c 00000000 		.4byte	0x0
 376              	.LLST1:
 377 0020 00000000 		.4byte	.LVL0
 378 0024 0D000000 		.4byte	.LVL3-1
 379 0028 0100     		.2byte	0x1
 380 002a 50       		.byte	0x50
ARM GAS  C:\Users\z80\AppData\Local\Temp\cc0Tlqmx.s 			page 8


 381 002b 00000000 		.4byte	0x0
 382 002f 00000000 		.4byte	0x0
 383              	.LLST2:
 384 0033 08000000 		.4byte	.LVL2
 385 0037 0D000000 		.4byte	.LVL3-1
 386 003b 0100     		.2byte	0x1
 387 003d 53       		.byte	0x53
 388 003e 00000000 		.4byte	0x0
 389 0042 00000000 		.4byte	0x0
 390              	.LLST3:
 391 0046 46000000 		.4byte	.LVL5
 392 004a 54000000 		.4byte	.LFE64
 393 004e 0100     		.2byte	0x1
 394 0050 53       		.byte	0x53
 395 0051 00000000 		.4byte	0x0
 396 0055 00000000 		.4byte	0x0
 397              	.LLST4:
 398 0059 00000000 		.4byte	.LFB62
 399 005d 02000000 		.4byte	.LCFI1
 400 0061 0200     		.2byte	0x2
 401 0063 7D       		.byte	0x7d
 402 0064 00       		.sleb128 0
 403 0065 02000000 		.4byte	.LCFI1
 404 0069 78000000 		.4byte	.LFE62
 405 006d 0200     		.2byte	0x2
 406 006f 7D       		.byte	0x7d
 407 0070 08       		.sleb128 8
 408 0071 00000000 		.4byte	0x0
 409 0075 00000000 		.4byte	0x0
 410              	.LLST5:
 411 0079 00000000 		.4byte	.LFB63
 412 007d 02000000 		.4byte	.LCFI2
 413 0081 0200     		.2byte	0x2
 414 0083 7D       		.byte	0x7d
 415 0084 00       		.sleb128 0
 416 0085 02000000 		.4byte	.LCFI2
 417 0089 3A000000 		.4byte	.LFE63
 418 008d 0200     		.2byte	0x2
 419 008f 7D       		.byte	0x7d
 420 0090 08       		.sleb128 8
 421 0091 00000000 		.4byte	0x0
 422 0095 00000000 		.4byte	0x0
 423              	.LLST6:
 424 0099 08000000 		.4byte	.LVL7
 425 009d 13000000 		.4byte	.LVL8-1
 426 00a1 0100     		.2byte	0x1
 427 00a3 53       		.byte	0x53
 428 00a4 00000000 		.4byte	0x0
 429 00a8 00000000 		.4byte	0x0
 430              	.LLST7:
 431 00ac 38000000 		.4byte	.LVL10
 432 00b0 3A000000 		.4byte	.LFE63
 433 00b4 0100     		.2byte	0x1
 434 00b6 53       		.byte	0x53
 435 00b7 00000000 		.4byte	0x0
 436 00bb 00000000 		.4byte	0x0
 437              		.file 2 "c:\\programs\\yagarto\\bin\\../lib/gcc/arm-none-eabi/4.5.0/include/stddef.h"
ARM GAS  C:\Users\z80\AppData\Local\Temp\cc0Tlqmx.s 			page 9


 438              		.file 3 "c:/programs/yagarto/lib/gcc/../../arm-none-eabi/sys-include/stdint.h"
 439              		.file 4 "../chibios_2.4.x/os/ports/GCC/ARMCMx/chtypes.h"
 440              		.file 5 "../chibios_2.4.x/os/kernel/include/chlists.h"
 441              		.file 6 "../chibios_2.4.x/os/kernel/include/chthreads.h"
 442              		.file 7 "../chibios_2.4.x/os/ports/GCC/ARMCMx/chcore_v7m.h"
 443              		.file 8 "../chibios_2.4.x/os/kernel/include/chmtx.h"
 444              		.file 9 "../chibios_2.4.x/os/kernel/include/chqueues.h"
 445              		.file 10 "../chibios_2.4.x/os/hal/platforms/STM32F1xx/stm32f10x.h"
 446              		.file 11 "../chibios_2.4.x/os/hal/platforms/STM32F1xx/stm32_dma.h"
 447              		.file 12 "../chibios_2.4.x/os/hal/platforms/STM32/GPIOv1/pal_lld.h"
 448              		.file 13 "../chibios_2.4.x/os/hal/include/spi.h"
 449              		.file 14 "../chibios_2.4.x/os/hal/platforms/STM32/spi_lld.h"
 450              		.file 15 "../chibios_2.4.x/os/ports/common/ARMCMx/CMSIS/include/core_cm3.h"
 451              		.section	.debug_info
 452 0000 2B0A0000 		.4byte	0xa2b
 453 0004 0200     		.2byte	0x2
 454 0006 00000000 		.4byte	.Ldebug_abbrev0
 455 000a 04       		.byte	0x4
 456 000b 01       		.uleb128 0x1
 457 000c A1040000 		.4byte	.LASF124
 458 0010 01       		.byte	0x1
 459 0011 CC000000 		.4byte	.LASF125
 460 0015 F6000000 		.4byte	.LASF126
 461 0019 00000000 		.4byte	0x0
 462 001d 00000000 		.4byte	0x0
 463 0021 00000000 		.4byte	.Ldebug_ranges0+0x0
 464 0025 00000000 		.4byte	.Ldebug_line0
 465 0029 02       		.uleb128 0x2
 466 002a 04       		.byte	0x4
 467 002b 05       		.byte	0x5
 468 002c 696E7400 		.ascii	"int\000"
 469 0030 03       		.uleb128 0x3
 470 0031 06000000 		.4byte	.LASF2
 471 0035 02       		.byte	0x2
 472 0036 D3       		.byte	0xd3
 473 0037 3B000000 		.4byte	0x3b
 474 003b 04       		.uleb128 0x4
 475 003c 04       		.byte	0x4
 476 003d 07       		.byte	0x7
 477 003e BD010000 		.4byte	.LASF0
 478 0042 04       		.uleb128 0x4
 479 0043 01       		.byte	0x1
 480 0044 06       		.byte	0x6
 481 0045 C0000000 		.4byte	.LASF1
 482 0049 03       		.uleb128 0x3
 483 004a 99040000 		.4byte	.LASF3
 484 004e 03       		.byte	0x3
 485 004f 2A       		.byte	0x2a
 486 0050 54000000 		.4byte	0x54
 487 0054 04       		.uleb128 0x4
 488 0055 01       		.byte	0x1
 489 0056 08       		.byte	0x8
 490 0057 3F030000 		.4byte	.LASF4
 491 005b 04       		.uleb128 0x4
 492 005c 02       		.byte	0x2
 493 005d 05       		.byte	0x5
 494 005e 7A030000 		.4byte	.LASF5
ARM GAS  C:\Users\z80\AppData\Local\Temp\cc0Tlqmx.s 			page 10


 495 0062 03       		.uleb128 0x3
 496 0063 CA010000 		.4byte	.LASF6
 497 0067 03       		.byte	0x3
 498 0068 36       		.byte	0x36
 499 0069 6D000000 		.4byte	0x6d
 500 006d 04       		.uleb128 0x4
 501 006e 02       		.byte	0x2
 502 006f 07       		.byte	0x7
 503 0070 FC010000 		.4byte	.LASF7
 504 0074 03       		.uleb128 0x3
 505 0075 37030000 		.4byte	.LASF8
 506 0079 03       		.byte	0x3
 507 007a 4F       		.byte	0x4f
 508 007b 7F000000 		.4byte	0x7f
 509 007f 04       		.uleb128 0x4
 510 0080 04       		.byte	0x4
 511 0081 05       		.byte	0x5
 512 0082 29010000 		.4byte	.LASF9
 513 0086 03       		.uleb128 0x3
 514 0087 D2030000 		.4byte	.LASF10
 515 008b 03       		.byte	0x3
 516 008c 50       		.byte	0x50
 517 008d 91000000 		.4byte	0x91
 518 0091 04       		.uleb128 0x4
 519 0092 04       		.byte	0x4
 520 0093 07       		.byte	0x7
 521 0094 E2030000 		.4byte	.LASF11
 522 0098 04       		.uleb128 0x4
 523 0099 08       		.byte	0x8
 524 009a 05       		.byte	0x5
 525 009b B2000000 		.4byte	.LASF12
 526 009f 03       		.uleb128 0x3
 527 00a0 87020000 		.4byte	.LASF13
 528 00a4 03       		.byte	0x3
 529 00a5 78       		.byte	0x78
 530 00a6 AA000000 		.4byte	0xaa
 531 00aa 04       		.uleb128 0x4
 532 00ab 08       		.byte	0x8
 533 00ac 07       		.byte	0x7
 534 00ad 4D000000 		.4byte	.LASF14
 535 00b1 03       		.uleb128 0x3
 536 00b2 15020000 		.4byte	.LASF15
 537 00b6 04       		.byte	0x4
 538 00b7 2F       		.byte	0x2f
 539 00b8 49000000 		.4byte	0x49
 540 00bc 03       		.uleb128 0x3
 541 00bd 32010000 		.4byte	.LASF16
 542 00c1 04       		.byte	0x4
 543 00c2 30       		.byte	0x30
 544 00c3 49000000 		.4byte	0x49
 545 00c7 03       		.uleb128 0x3
 546 00c8 21030000 		.4byte	.LASF17
 547 00cc 04       		.byte	0x4
 548 00cd 32       		.byte	0x32
 549 00ce 86000000 		.4byte	0x86
 550 00d2 03       		.uleb128 0x3
 551 00d3 0F020000 		.4byte	.LASF18
ARM GAS  C:\Users\z80\AppData\Local\Temp\cc0Tlqmx.s 			page 11


 552 00d7 04       		.byte	0x4
 553 00d8 33       		.byte	0x33
 554 00d9 74000000 		.4byte	0x74
 555 00dd 03       		.uleb128 0x3
 556 00de 29020000 		.4byte	.LASF19
 557 00e2 04       		.byte	0x4
 558 00e3 35       		.byte	0x35
 559 00e4 86000000 		.4byte	0x86
 560 00e8 03       		.uleb128 0x3
 561 00e9 31040000 		.4byte	.LASF20
 562 00ed 04       		.byte	0x4
 563 00ee 36       		.byte	0x36
 564 00ef 86000000 		.4byte	0x86
 565 00f3 03       		.uleb128 0x3
 566 00f4 62020000 		.4byte	.LASF21
 567 00f8 05       		.byte	0x5
 568 00f9 2A       		.byte	0x2a
 569 00fa FE000000 		.4byte	0xfe
 570 00fe 05       		.uleb128 0x5
 571 00ff 62020000 		.4byte	.LASF21
 572 0103 48       		.byte	0x48
 573 0104 06       		.byte	0x6
 574 0105 5E       		.byte	0x5e
 575 0106 07020000 		.4byte	0x207
 576 010a 06       		.uleb128 0x6
 577 010b 93030000 		.4byte	.LASF22
 578 010f 06       		.byte	0x6
 579 0110 5F       		.byte	0x5f
 580 0111 2C020000 		.4byte	0x22c
 581 0115 02       		.byte	0x2
 582 0116 23       		.byte	0x23
 583 0117 00       		.uleb128 0x0
 584 0118 06       		.uleb128 0x6
 585 0119 FC020000 		.4byte	.LASF23
 586 011d 06       		.byte	0x6
 587 011e 61       		.byte	0x61
 588 011f 2C020000 		.4byte	0x22c
 589 0123 02       		.byte	0x2
 590 0124 23       		.byte	0x23
 591 0125 04       		.uleb128 0x4
 592 0126 06       		.uleb128 0x6
 593 0127 98000000 		.4byte	.LASF24
 594 012b 06       		.byte	0x6
 595 012c 63       		.byte	0x63
 596 012d C7000000 		.4byte	0xc7
 597 0131 02       		.byte	0x2
 598 0132 23       		.byte	0x23
 599 0133 08       		.uleb128 0x8
 600 0134 06       		.uleb128 0x6
 601 0135 D3040000 		.4byte	.LASF25
 602 0139 06       		.byte	0x6
 603 013a 64       		.byte	0x64
 604 013b 04030000 		.4byte	0x304
 605 013f 02       		.byte	0x2
 606 0140 23       		.byte	0x23
 607 0141 0C       		.uleb128 0xc
 608 0142 06       		.uleb128 0x6
ARM GAS  C:\Users\z80\AppData\Local\Temp\cc0Tlqmx.s 			page 12


 609 0143 5A010000 		.4byte	.LASF26
 610 0147 06       		.byte	0x6
 611 0148 66       		.byte	0x66
 612 0149 2C020000 		.4byte	0x22c
 613 014d 02       		.byte	0x2
 614 014e 23       		.byte	0x23
 615 014f 10       		.uleb128 0x10
 616 0150 06       		.uleb128 0x6
 617 0151 90020000 		.4byte	.LASF27
 618 0155 06       		.byte	0x6
 619 0156 67       		.byte	0x67
 620 0157 2C020000 		.4byte	0x22c
 621 015b 02       		.byte	0x2
 622 015c 23       		.byte	0x23
 623 015d 14       		.uleb128 0x14
 624 015e 06       		.uleb128 0x6
 625 015f B4040000 		.4byte	.LASF28
 626 0163 06       		.byte	0x6
 627 0164 6E       		.byte	0x6e
 628 0165 B1030000 		.4byte	0x3b1
 629 0169 02       		.byte	0x2
 630 016a 23       		.byte	0x23
 631 016b 18       		.uleb128 0x18
 632 016c 06       		.uleb128 0x6
 633 016d B2010000 		.4byte	.LASF29
 634 0171 06       		.byte	0x6
 635 0172 74       		.byte	0x74
 636 0173 C3030000 		.4byte	0x3c3
 637 0177 02       		.byte	0x2
 638 0178 23       		.byte	0x23
 639 0179 1C       		.uleb128 0x1c
 640 017a 06       		.uleb128 0x6
 641 017b 84030000 		.4byte	.LASF30
 642 017f 06       		.byte	0x6
 643 0180 79       		.byte	0x79
 644 0181 BC000000 		.4byte	0xbc
 645 0185 02       		.byte	0x2
 646 0186 23       		.byte	0x23
 647 0187 20       		.uleb128 0x20
 648 0188 06       		.uleb128 0x6
 649 0189 9A030000 		.4byte	.LASF31
 650 018d 06       		.byte	0x6
 651 018e 7D       		.byte	0x7d
 652 018f B1000000 		.4byte	0xb1
 653 0193 02       		.byte	0x2
 654 0194 23       		.byte	0x23
 655 0195 21       		.uleb128 0x21
 656 0196 06       		.uleb128 0x6
 657 0197 53010000 		.4byte	.LASF32
 658 019b 06       		.byte	0x6
 659 019c 89       		.byte	0x89
 660 019d 2F030000 		.4byte	0x32f
 661 01a1 02       		.byte	0x2
 662 01a2 23       		.byte	0x23
 663 01a3 24       		.uleb128 0x24
 664 01a4 07       		.uleb128 0x7
 665 01a5 705F7500 		.ascii	"p_u\000"
ARM GAS  C:\Users\z80\AppData\Local\Temp\cc0Tlqmx.s 			page 13


 666 01a9 06       		.byte	0x6
 667 01aa AE       		.byte	0xae
 668 01ab 7C030000 		.4byte	0x37c
 669 01af 02       		.byte	0x2
 670 01b0 23       		.byte	0x23
 671 01b1 28       		.uleb128 0x28
 672 01b2 06       		.uleb128 0x6
 673 01b3 D9040000 		.4byte	.LASF33
 674 01b7 06       		.byte	0x6
 675 01b8 B3       		.byte	0xb3
 676 01b9 54020000 		.4byte	0x254
 677 01bd 02       		.byte	0x2
 678 01be 23       		.byte	0x23
 679 01bf 2C       		.uleb128 0x2c
 680 01c0 06       		.uleb128 0x6
 681 01c1 D8010000 		.4byte	.LASF34
 682 01c5 06       		.byte	0x6
 683 01c6 B9       		.byte	0xb9
 684 01c7 32020000 		.4byte	0x232
 685 01cb 02       		.byte	0x2
 686 01cc 23       		.byte	0x23
 687 01cd 30       		.uleb128 0x30
 688 01ce 06       		.uleb128 0x6
 689 01cf C5040000 		.4byte	.LASF35
 690 01d3 06       		.byte	0x6
 691 01d4 BD       		.byte	0xbd
 692 01d5 D2000000 		.4byte	0xd2
 693 01d9 02       		.byte	0x2
 694 01da 23       		.byte	0x23
 695 01db 38       		.uleb128 0x38
 696 01dc 06       		.uleb128 0x6
 697 01dd B8030000 		.4byte	.LASF36
 698 01e1 06       		.byte	0x6
 699 01e2 C3       		.byte	0xc3
 700 01e3 DD000000 		.4byte	0xdd
 701 01e7 02       		.byte	0x2
 702 01e8 23       		.byte	0x23
 703 01e9 3C       		.uleb128 0x3c
 704 01ea 06       		.uleb128 0x6
 705 01eb 70030000 		.4byte	.LASF37
 706 01ef 06       		.byte	0x6
 707 01f0 CA       		.byte	0xca
 708 01f1 C9030000 		.4byte	0x3c9
 709 01f5 02       		.byte	0x2
 710 01f6 23       		.byte	0x23
 711 01f7 40       		.uleb128 0x40
 712 01f8 06       		.uleb128 0x6
 713 01f9 3B040000 		.4byte	.LASF38
 714 01fd 06       		.byte	0x6
 715 01fe CE       		.byte	0xce
 716 01ff C7000000 		.4byte	0xc7
 717 0203 02       		.byte	0x2
 718 0204 23       		.byte	0x23
 719 0205 44       		.uleb128 0x44
 720 0206 00       		.byte	0x0
 721 0207 08       		.uleb128 0x8
 722 0208 08       		.byte	0x8
ARM GAS  C:\Users\z80\AppData\Local\Temp\cc0Tlqmx.s 			page 14


 723 0209 05       		.byte	0x5
 724 020a 61       		.byte	0x61
 725 020b 2C020000 		.4byte	0x22c
 726 020f 06       		.uleb128 0x6
 727 0210 93030000 		.4byte	.LASF22
 728 0214 05       		.byte	0x5
 729 0215 62       		.byte	0x62
 730 0216 2C020000 		.4byte	0x22c
 731 021a 02       		.byte	0x2
 732 021b 23       		.byte	0x23
 733 021c 00       		.uleb128 0x0
 734 021d 06       		.uleb128 0x6
 735 021e FC020000 		.4byte	.LASF23
 736 0222 05       		.byte	0x5
 737 0223 64       		.byte	0x64
 738 0224 2C020000 		.4byte	0x22c
 739 0228 02       		.byte	0x2
 740 0229 23       		.byte	0x23
 741 022a 04       		.uleb128 0x4
 742 022b 00       		.byte	0x0
 743 022c 09       		.uleb128 0x9
 744 022d 04       		.byte	0x4
 745 022e F3000000 		.4byte	0xf3
 746 0232 03       		.uleb128 0x3
 747 0233 98020000 		.4byte	.LASF39
 748 0237 05       		.byte	0x5
 749 0238 66       		.byte	0x66
 750 0239 07020000 		.4byte	0x207
 751 023d 08       		.uleb128 0x8
 752 023e 04       		.byte	0x4
 753 023f 05       		.byte	0x5
 754 0240 6B       		.byte	0x6b
 755 0241 54020000 		.4byte	0x254
 756 0245 06       		.uleb128 0x6
 757 0246 93030000 		.4byte	.LASF22
 758 024a 05       		.byte	0x5
 759 024b 6D       		.byte	0x6d
 760 024c 2C020000 		.4byte	0x22c
 761 0250 02       		.byte	0x2
 762 0251 23       		.byte	0x23
 763 0252 00       		.uleb128 0x0
 764 0253 00       		.byte	0x0
 765 0254 03       		.uleb128 0x3
 766 0255 1D020000 		.4byte	.LASF40
 767 0259 05       		.byte	0x5
 768 025a 70       		.byte	0x70
 769 025b 3D020000 		.4byte	0x23d
 770 025f 03       		.uleb128 0x3
 771 0260 79010000 		.4byte	.LASF41
 772 0264 07       		.byte	0x7
 773 0265 D7       		.byte	0xd7
 774 0266 6A020000 		.4byte	0x26a
 775 026a 0A       		.uleb128 0xa
 776 026b 04       		.byte	0x4
 777 026c 03       		.uleb128 0x3
 778 026d 57020000 		.4byte	.LASF42
 779 0271 07       		.byte	0x7
ARM GAS  C:\Users\z80\AppData\Local\Temp\cc0Tlqmx.s 			page 15


 780 0272 DD       		.byte	0xdd
 781 0273 9F000000 		.4byte	0x9f
 782 0277 05       		.uleb128 0x5
 783 0278 59040000 		.4byte	.LASF43
 784 027c 24       		.byte	0x24
 785 027d 07       		.byte	0x7
 786 027e FE       		.byte	0xfe
 787 027f 04030000 		.4byte	0x304
 788 0283 0B       		.uleb128 0xb
 789 0284 723400   		.ascii	"r4\000"
 790 0287 07       		.byte	0x7
 791 0288 1101     		.2byte	0x111
 792 028a 5F020000 		.4byte	0x25f
 793 028e 02       		.byte	0x2
 794 028f 23       		.byte	0x23
 795 0290 00       		.uleb128 0x0
 796 0291 0B       		.uleb128 0xb
 797 0292 723500   		.ascii	"r5\000"
 798 0295 07       		.byte	0x7
 799 0296 1201     		.2byte	0x112
 800 0298 5F020000 		.4byte	0x25f
 801 029c 02       		.byte	0x2
 802 029d 23       		.byte	0x23
 803 029e 04       		.uleb128 0x4
 804 029f 0B       		.uleb128 0xb
 805 02a0 723600   		.ascii	"r6\000"
 806 02a3 07       		.byte	0x7
 807 02a4 1301     		.2byte	0x113
 808 02a6 5F020000 		.4byte	0x25f
 809 02aa 02       		.byte	0x2
 810 02ab 23       		.byte	0x23
 811 02ac 08       		.uleb128 0x8
 812 02ad 0B       		.uleb128 0xb
 813 02ae 723700   		.ascii	"r7\000"
 814 02b1 07       		.byte	0x7
 815 02b2 1401     		.2byte	0x114
 816 02b4 5F020000 		.4byte	0x25f
 817 02b8 02       		.byte	0x2
 818 02b9 23       		.byte	0x23
 819 02ba 0C       		.uleb128 0xc
 820 02bb 0B       		.uleb128 0xb
 821 02bc 723800   		.ascii	"r8\000"
 822 02bf 07       		.byte	0x7
 823 02c0 1501     		.2byte	0x115
 824 02c2 5F020000 		.4byte	0x25f
 825 02c6 02       		.byte	0x2
 826 02c7 23       		.byte	0x23
 827 02c8 10       		.uleb128 0x10
 828 02c9 0B       		.uleb128 0xb
 829 02ca 723900   		.ascii	"r9\000"
 830 02cd 07       		.byte	0x7
 831 02ce 1601     		.2byte	0x116
 832 02d0 5F020000 		.4byte	0x25f
 833 02d4 02       		.byte	0x2
 834 02d5 23       		.byte	0x23
 835 02d6 14       		.uleb128 0x14
 836 02d7 0B       		.uleb128 0xb
ARM GAS  C:\Users\z80\AppData\Local\Temp\cc0Tlqmx.s 			page 16


 837 02d8 72313000 		.ascii	"r10\000"
 838 02dc 07       		.byte	0x7
 839 02dd 1701     		.2byte	0x117
 840 02df 5F020000 		.4byte	0x25f
 841 02e3 02       		.byte	0x2
 842 02e4 23       		.byte	0x23
 843 02e5 18       		.uleb128 0x18
 844 02e6 0B       		.uleb128 0xb
 845 02e7 72313100 		.ascii	"r11\000"
 846 02eb 07       		.byte	0x7
 847 02ec 1801     		.2byte	0x118
 848 02ee 5F020000 		.4byte	0x25f
 849 02f2 02       		.byte	0x2
 850 02f3 23       		.byte	0x23
 851 02f4 1C       		.uleb128 0x1c
 852 02f5 0B       		.uleb128 0xb
 853 02f6 6C7200   		.ascii	"lr\000"
 854 02f9 07       		.byte	0x7
 855 02fa 1901     		.2byte	0x119
 856 02fc 5F020000 		.4byte	0x25f
 857 0300 02       		.byte	0x2
 858 0301 23       		.byte	0x23
 859 0302 20       		.uleb128 0x20
 860 0303 00       		.byte	0x0
 861 0304 0C       		.uleb128 0xc
 862 0305 51040000 		.4byte	.LASF44
 863 0309 04       		.byte	0x4
 864 030a 07       		.byte	0x7
 865 030b 2301     		.2byte	0x123
 866 030d 21030000 		.4byte	0x321
 867 0311 0B       		.uleb128 0xb
 868 0312 72313300 		.ascii	"r13\000"
 869 0316 07       		.byte	0x7
 870 0317 2401     		.2byte	0x124
 871 0319 21030000 		.4byte	0x321
 872 031d 02       		.byte	0x2
 873 031e 23       		.byte	0x23
 874 031f 00       		.uleb128 0x0
 875 0320 00       		.byte	0x0
 876 0321 09       		.uleb128 0x9
 877 0322 04       		.byte	0x4
 878 0323 77020000 		.4byte	0x277
 879 0327 0D       		.uleb128 0xd
 880 0328 86000000 		.4byte	0x86
 881 032c 0E       		.uleb128 0xe
 882 032d 04       		.byte	0x4
 883 032e 07       		.byte	0x7
 884 032f 0D       		.uleb128 0xd
 885 0330 E8000000 		.4byte	0xe8
 886 0334 05       		.uleb128 0x5
 887 0335 81020000 		.4byte	.LASF45
 888 0339 10       		.byte	0x10
 889 033a 08       		.byte	0x8
 890 033b 2C       		.byte	0x2c
 891 033c 6B030000 		.4byte	0x36b
 892 0340 06       		.uleb128 0x6
 893 0341 EE000000 		.4byte	.LASF46
ARM GAS  C:\Users\z80\AppData\Local\Temp\cc0Tlqmx.s 			page 17


 894 0345 08       		.byte	0x8
 895 0346 2D       		.byte	0x2d
 896 0347 32020000 		.4byte	0x232
 897 034b 02       		.byte	0x2
 898 034c 23       		.byte	0x23
 899 034d 00       		.uleb128 0x0
 900 034e 06       		.uleb128 0x6
 901 034f CB040000 		.4byte	.LASF47
 902 0353 08       		.byte	0x8
 903 0354 2F       		.byte	0x2f
 904 0355 2C020000 		.4byte	0x22c
 905 0359 02       		.byte	0x2
 906 035a 23       		.byte	0x23
 907 035b 08       		.uleb128 0x8
 908 035c 06       		.uleb128 0x6
 909 035d 2A040000 		.4byte	.LASF48
 910 0361 08       		.byte	0x8
 911 0362 31       		.byte	0x31
 912 0363 6B030000 		.4byte	0x36b
 913 0367 02       		.byte	0x2
 914 0368 23       		.byte	0x23
 915 0369 0C       		.uleb128 0xc
 916 036a 00       		.byte	0x0
 917 036b 09       		.uleb128 0x9
 918 036c 04       		.byte	0x4
 919 036d 34030000 		.4byte	0x334
 920 0371 03       		.uleb128 0x3
 921 0372 81020000 		.4byte	.LASF45
 922 0376 08       		.byte	0x8
 923 0377 33       		.byte	0x33
 924 0378 34030000 		.4byte	0x334
 925 037c 0F       		.uleb128 0xf
 926 037d 04       		.byte	0x4
 927 037e 06       		.byte	0x6
 928 037f 90       		.byte	0x90
 929 0380 B1030000 		.4byte	0x3b1
 930 0384 10       		.uleb128 0x10
 931 0385 0D000000 		.4byte	.LASF49
 932 0389 06       		.byte	0x6
 933 038a 97       		.byte	0x97
 934 038b D2000000 		.4byte	0xd2
 935 038f 10       		.uleb128 0x10
 936 0390 6A000000 		.4byte	.LASF50
 937 0394 06       		.byte	0x6
 938 0395 9E       		.byte	0x9e
 939 0396 D2000000 		.4byte	0xd2
 940 039a 10       		.uleb128 0x10
 941 039b AD040000 		.4byte	.LASF51
 942 039f 06       		.byte	0x6
 943 03a0 A5       		.byte	0xa5
 944 03a1 6A020000 		.4byte	0x26a
 945 03a5 10       		.uleb128 0x10
 946 03a6 8C030000 		.4byte	.LASF52
 947 03aa 06       		.byte	0x6
 948 03ab AC       		.byte	0xac
 949 03ac DD000000 		.4byte	0xdd
 950 03b0 00       		.byte	0x0
ARM GAS  C:\Users\z80\AppData\Local\Temp\cc0Tlqmx.s 			page 18


 951 03b1 09       		.uleb128 0x9
 952 03b2 04       		.byte	0x4
 953 03b3 B7030000 		.4byte	0x3b7
 954 03b7 11       		.uleb128 0x11
 955 03b8 BC030000 		.4byte	0x3bc
 956 03bc 04       		.uleb128 0x4
 957 03bd 01       		.byte	0x1
 958 03be 08       		.byte	0x8
 959 03bf 00040000 		.4byte	.LASF53
 960 03c3 09       		.uleb128 0x9
 961 03c4 04       		.byte	0x4
 962 03c5 6C020000 		.4byte	0x26c
 963 03c9 09       		.uleb128 0x9
 964 03ca 04       		.byte	0x4
 965 03cb 71030000 		.4byte	0x371
 966 03cf 03       		.uleb128 0x3
 967 03d0 4A020000 		.4byte	.LASF54
 968 03d4 09       		.byte	0x9
 969 03d5 37       		.byte	0x37
 970 03d6 DA030000 		.4byte	0x3da
 971 03da 05       		.uleb128 0x5
 972 03db 4A020000 		.4byte	.LASF54
 973 03df 20       		.byte	0x20
 974 03e0 09       		.byte	0x9
 975 03e1 45       		.byte	0x45
 976 03e2 49040000 		.4byte	0x449
 977 03e6 06       		.uleb128 0x6
 978 03e7 A8000000 		.4byte	.LASF55
 979 03eb 09       		.byte	0x9
 980 03ec 46       		.byte	0x46
 981 03ed 32020000 		.4byte	0x232
 982 03f1 02       		.byte	0x2
 983 03f2 23       		.byte	0x23
 984 03f3 00       		.uleb128 0x0
 985 03f4 06       		.uleb128 0x6
 986 03f5 77020000 		.4byte	.LASF56
 987 03f9 09       		.byte	0x9
 988 03fa 47       		.byte	0x47
 989 03fb 30000000 		.4byte	0x30
 990 03ff 02       		.byte	0x2
 991 0400 23       		.byte	0x23
 992 0401 08       		.uleb128 0x8
 993 0402 06       		.uleb128 0x6
 994 0403 42010000 		.4byte	.LASF57
 995 0407 09       		.byte	0x9
 996 0408 48       		.byte	0x48
 997 0409 6C040000 		.4byte	0x46c
 998 040d 02       		.byte	0x2
 999 040e 23       		.byte	0x23
 1000 040f 0C       		.uleb128 0xc
 1001 0410 06       		.uleb128 0x6
 1002 0411 75040000 		.4byte	.LASF58
 1003 0415 09       		.byte	0x9
 1004 0416 49       		.byte	0x49
 1005 0417 6C040000 		.4byte	0x46c
 1006 041b 02       		.byte	0x2
 1007 041c 23       		.byte	0x23
ARM GAS  C:\Users\z80\AppData\Local\Temp\cc0Tlqmx.s 			page 19


 1008 041d 10       		.uleb128 0x10
 1009 041e 06       		.uleb128 0x6
 1010 041f 4B010000 		.4byte	.LASF59
 1011 0423 09       		.byte	0x9
 1012 0424 4B       		.byte	0x4b
 1013 0425 6C040000 		.4byte	0x46c
 1014 0429 02       		.byte	0x2
 1015 042a 23       		.byte	0x23
 1016 042b 14       		.uleb128 0x14
 1017 042c 06       		.uleb128 0x6
 1018 042d 29030000 		.4byte	.LASF60
 1019 0431 09       		.byte	0x9
 1020 0432 4C       		.byte	0x4c
 1021 0433 6C040000 		.4byte	0x46c
 1022 0437 02       		.byte	0x2
 1023 0438 23       		.byte	0x23
 1024 0439 18       		.uleb128 0x18
 1025 043a 06       		.uleb128 0x6
 1026 043b 90040000 		.4byte	.LASF61
 1027 043f 09       		.byte	0x9
 1028 0440 4D       		.byte	0x4d
 1029 0441 49040000 		.4byte	0x449
 1030 0445 02       		.byte	0x2
 1031 0446 23       		.byte	0x23
 1032 0447 1C       		.uleb128 0x1c
 1033 0448 00       		.byte	0x0
 1034 0449 03       		.uleb128 0x3
 1035 044a 40020000 		.4byte	.LASF62
 1036 044e 09       		.byte	0x9
 1037 044f 3A       		.byte	0x3a
 1038 0450 54040000 		.4byte	0x454
 1039 0454 09       		.uleb128 0x9
 1040 0455 04       		.byte	0x4
 1041 0456 5A040000 		.4byte	0x45a
 1042 045a 12       		.uleb128 0x12
 1043 045b 01       		.byte	0x1
 1044 045c 66040000 		.4byte	0x466
 1045 0460 13       		.uleb128 0x13
 1046 0461 66040000 		.4byte	0x466
 1047 0465 00       		.byte	0x0
 1048 0466 09       		.uleb128 0x9
 1049 0467 04       		.byte	0x4
 1050 0468 CF030000 		.4byte	0x3cf
 1051 046c 09       		.uleb128 0x9
 1052 046d 04       		.byte	0x4
 1053 046e 49000000 		.4byte	0x49
 1054 0472 03       		.uleb128 0x3
 1055 0473 35020000 		.4byte	.LASF63
 1056 0477 09       		.byte	0x9
 1057 0478 76       		.byte	0x76
 1058 0479 CF030000 		.4byte	0x3cf
 1059 047d 0D       		.uleb128 0xd
 1060 047e 62000000 		.4byte	0x62
 1061 0482 0D       		.uleb128 0xd
 1062 0483 74000000 		.4byte	0x74
 1063 0487 14       		.uleb128 0x14
 1064 0488 10       		.byte	0x10
ARM GAS  C:\Users\z80\AppData\Local\Temp\cc0Tlqmx.s 			page 20


 1065 0489 0A       		.byte	0xa
 1066 048a 2D03     		.2byte	0x32d
 1067 048c CD040000 		.4byte	0x4cd
 1068 0490 0B       		.uleb128 0xb
 1069 0491 43435200 		.ascii	"CCR\000"
 1070 0495 0A       		.byte	0xa
 1071 0496 2F03     		.2byte	0x32f
 1072 0498 27030000 		.4byte	0x327
 1073 049c 02       		.byte	0x2
 1074 049d 23       		.byte	0x23
 1075 049e 00       		.uleb128 0x0
 1076 049f 15       		.uleb128 0x15
 1077 04a0 85040000 		.4byte	.LASF64
 1078 04a4 0A       		.byte	0xa
 1079 04a5 3003     		.2byte	0x330
 1080 04a7 27030000 		.4byte	0x327
 1081 04ab 02       		.byte	0x2
 1082 04ac 23       		.byte	0x23
 1083 04ad 04       		.uleb128 0x4
 1084 04ae 15       		.uleb128 0x15
 1085 04af D3010000 		.4byte	.LASF65
 1086 04b3 0A       		.byte	0xa
 1087 04b4 3103     		.2byte	0x331
 1088 04b6 27030000 		.4byte	0x327
 1089 04ba 02       		.byte	0x2
 1090 04bb 23       		.byte	0x23
 1091 04bc 08       		.uleb128 0x8
 1092 04bd 15       		.uleb128 0x15
 1093 04be 8B040000 		.4byte	.LASF66
 1094 04c2 0A       		.byte	0xa
 1095 04c3 3203     		.2byte	0x332
 1096 04c5 27030000 		.4byte	0x327
 1097 04c9 02       		.byte	0x2
 1098 04ca 23       		.byte	0x23
 1099 04cb 0C       		.uleb128 0xc
 1100 04cc 00       		.byte	0x0
 1101 04cd 16       		.uleb128 0x16
 1102 04ce AF020000 		.4byte	.LASF67
 1103 04d2 0A       		.byte	0xa
 1104 04d3 3303     		.2byte	0x333
 1105 04d5 87040000 		.4byte	0x487
 1106 04d9 14       		.uleb128 0x14
 1107 04da 1C       		.byte	0x1c
 1108 04db 0A       		.byte	0xa
 1109 04dc F803     		.2byte	0x3f8
 1110 04de 4C050000 		.4byte	0x54c
 1111 04e2 0B       		.uleb128 0xb
 1112 04e3 43524C00 		.ascii	"CRL\000"
 1113 04e7 0A       		.byte	0xa
 1114 04e8 FA03     		.2byte	0x3fa
 1115 04ea 27030000 		.4byte	0x327
 1116 04ee 02       		.byte	0x2
 1117 04ef 23       		.byte	0x23
 1118 04f0 00       		.uleb128 0x0
 1119 04f1 0B       		.uleb128 0xb
 1120 04f2 43524800 		.ascii	"CRH\000"
 1121 04f6 0A       		.byte	0xa
ARM GAS  C:\Users\z80\AppData\Local\Temp\cc0Tlqmx.s 			page 21


 1122 04f7 FB03     		.2byte	0x3fb
 1123 04f9 27030000 		.4byte	0x327
 1124 04fd 02       		.byte	0x2
 1125 04fe 23       		.byte	0x23
 1126 04ff 04       		.uleb128 0x4
 1127 0500 0B       		.uleb128 0xb
 1128 0501 49445200 		.ascii	"IDR\000"
 1129 0505 0A       		.byte	0xa
 1130 0506 FC03     		.2byte	0x3fc
 1131 0508 27030000 		.4byte	0x327
 1132 050c 02       		.byte	0x2
 1133 050d 23       		.byte	0x23
 1134 050e 08       		.uleb128 0x8
 1135 050f 0B       		.uleb128 0xb
 1136 0510 4F445200 		.ascii	"ODR\000"
 1137 0514 0A       		.byte	0xa
 1138 0515 FD03     		.2byte	0x3fd
 1139 0517 27030000 		.4byte	0x327
 1140 051b 02       		.byte	0x2
 1141 051c 23       		.byte	0x23
 1142 051d 0C       		.uleb128 0xc
 1143 051e 15       		.uleb128 0x15
 1144 051f 7B040000 		.4byte	.LASF68
 1145 0523 0A       		.byte	0xa
 1146 0524 FE03     		.2byte	0x3fe
 1147 0526 27030000 		.4byte	0x327
 1148 052a 02       		.byte	0x2
 1149 052b 23       		.byte	0x23
 1150 052c 10       		.uleb128 0x10
 1151 052d 0B       		.uleb128 0xb
 1152 052e 42525200 		.ascii	"BRR\000"
 1153 0532 0A       		.byte	0xa
 1154 0533 FF03     		.2byte	0x3ff
 1155 0535 27030000 		.4byte	0x327
 1156 0539 02       		.byte	0x2
 1157 053a 23       		.byte	0x23
 1158 053b 14       		.uleb128 0x14
 1159 053c 15       		.uleb128 0x15
 1160 053d F0010000 		.4byte	.LASF69
 1161 0541 0A       		.byte	0xa
 1162 0542 0004     		.2byte	0x400
 1163 0544 27030000 		.4byte	0x327
 1164 0548 02       		.byte	0x2
 1165 0549 23       		.byte	0x23
 1166 054a 18       		.uleb128 0x18
 1167 054b 00       		.byte	0x0
 1168 054c 16       		.uleb128 0x16
 1169 054d E3010000 		.4byte	.LASF70
 1170 0551 0A       		.byte	0xa
 1171 0552 0104     		.2byte	0x401
 1172 0554 D9040000 		.4byte	0x4d9
 1173 0558 14       		.uleb128 0x14
 1174 0559 24       		.byte	0x24
 1175 055a 0A       		.byte	0xa
 1176 055b 9704     		.2byte	0x497
 1177 055d 6E060000 		.4byte	0x66e
 1178 0561 0B       		.uleb128 0xb
ARM GAS  C:\Users\z80\AppData\Local\Temp\cc0Tlqmx.s 			page 22


 1179 0562 43523100 		.ascii	"CR1\000"
 1180 0566 0A       		.byte	0xa
 1181 0567 9904     		.2byte	0x499
 1182 0569 7D040000 		.4byte	0x47d
 1183 056d 02       		.byte	0x2
 1184 056e 23       		.byte	0x23
 1185 056f 00       		.uleb128 0x0
 1186 0570 15       		.uleb128 0x15
 1187 0571 CA020000 		.4byte	.LASF71
 1188 0575 0A       		.byte	0xa
 1189 0576 9A04     		.2byte	0x49a
 1190 0578 62000000 		.4byte	0x62
 1191 057c 02       		.byte	0x2
 1192 057d 23       		.byte	0x23
 1193 057e 02       		.uleb128 0x2
 1194 057f 0B       		.uleb128 0xb
 1195 0580 43523200 		.ascii	"CR2\000"
 1196 0584 0A       		.byte	0xa
 1197 0585 9B04     		.2byte	0x49b
 1198 0587 7D040000 		.4byte	0x47d
 1199 058b 02       		.byte	0x2
 1200 058c 23       		.byte	0x23
 1201 058d 04       		.uleb128 0x4
 1202 058e 15       		.uleb128 0x15
 1203 058f D4020000 		.4byte	.LASF72
 1204 0593 0A       		.byte	0xa
 1205 0594 9C04     		.2byte	0x49c
 1206 0596 62000000 		.4byte	0x62
 1207 059a 02       		.byte	0x2
 1208 059b 23       		.byte	0x23
 1209 059c 06       		.uleb128 0x6
 1210 059d 0B       		.uleb128 0xb
 1211 059e 535200   		.ascii	"SR\000"
 1212 05a1 0A       		.byte	0xa
 1213 05a2 9D04     		.2byte	0x49d
 1214 05a4 7D040000 		.4byte	0x47d
 1215 05a8 02       		.byte	0x2
 1216 05a9 23       		.byte	0x23
 1217 05aa 08       		.uleb128 0x8
 1218 05ab 15       		.uleb128 0x15
 1219 05ac DE020000 		.4byte	.LASF73
 1220 05b0 0A       		.byte	0xa
 1221 05b1 9E04     		.2byte	0x49e
 1222 05b3 62000000 		.4byte	0x62
 1223 05b7 02       		.byte	0x2
 1224 05b8 23       		.byte	0x23
 1225 05b9 0A       		.uleb128 0xa
 1226 05ba 0B       		.uleb128 0xb
 1227 05bb 445200   		.ascii	"DR\000"
 1228 05be 0A       		.byte	0xa
 1229 05bf 9F04     		.2byte	0x49f
 1230 05c1 7D040000 		.4byte	0x47d
 1231 05c5 02       		.byte	0x2
 1232 05c6 23       		.byte	0x23
 1233 05c7 0C       		.uleb128 0xc
 1234 05c8 15       		.uleb128 0x15
 1235 05c9 E8020000 		.4byte	.LASF74
ARM GAS  C:\Users\z80\AppData\Local\Temp\cc0Tlqmx.s 			page 23


 1236 05cd 0A       		.byte	0xa
 1237 05ce A004     		.2byte	0x4a0
 1238 05d0 62000000 		.4byte	0x62
 1239 05d4 02       		.byte	0x2
 1240 05d5 23       		.byte	0x23
 1241 05d6 0E       		.uleb128 0xe
 1242 05d7 15       		.uleb128 0x15
 1243 05d8 64000000 		.4byte	.LASF75
 1244 05dc 0A       		.byte	0xa
 1245 05dd A104     		.2byte	0x4a1
 1246 05df 7D040000 		.4byte	0x47d
 1247 05e3 02       		.byte	0x2
 1248 05e4 23       		.byte	0x23
 1249 05e5 10       		.uleb128 0x10
 1250 05e6 15       		.uleb128 0x15
 1251 05e7 F2020000 		.4byte	.LASF76
 1252 05eb 0A       		.byte	0xa
 1253 05ec A204     		.2byte	0x4a2
 1254 05ee 62000000 		.4byte	0x62
 1255 05f2 02       		.byte	0x2
 1256 05f3 23       		.byte	0x23
 1257 05f4 12       		.uleb128 0x12
 1258 05f5 15       		.uleb128 0x15
 1259 05f6 DB030000 		.4byte	.LASF77
 1260 05fa 0A       		.byte	0xa
 1261 05fb A304     		.2byte	0x4a3
 1262 05fd 7D040000 		.4byte	0x47d
 1263 0601 02       		.byte	0x2
 1264 0602 23       		.byte	0x23
 1265 0603 14       		.uleb128 0x14
 1266 0604 15       		.uleb128 0x15
 1267 0605 C8030000 		.4byte	.LASF78
 1268 0609 0A       		.byte	0xa
 1269 060a A404     		.2byte	0x4a4
 1270 060c 62000000 		.4byte	0x62
 1271 0610 02       		.byte	0x2
 1272 0611 23       		.byte	0x23
 1273 0612 16       		.uleb128 0x16
 1274 0613 15       		.uleb128 0x15
 1275 0614 C3020000 		.4byte	.LASF79
 1276 0618 0A       		.byte	0xa
 1277 0619 A504     		.2byte	0x4a5
 1278 061b 7D040000 		.4byte	0x47d
 1279 061f 02       		.byte	0x2
 1280 0620 23       		.byte	0x23
 1281 0621 18       		.uleb128 0x18
 1282 0622 15       		.uleb128 0x15
 1283 0623 03030000 		.4byte	.LASF80
 1284 0627 0A       		.byte	0xa
 1285 0628 A604     		.2byte	0x4a6
 1286 062a 62000000 		.4byte	0x62
 1287 062e 02       		.byte	0x2
 1288 062f 23       		.byte	0x23
 1289 0630 1A       		.uleb128 0x1a
 1290 0631 15       		.uleb128 0x15
 1291 0632 E6000000 		.4byte	.LASF81
 1292 0636 0A       		.byte	0xa
ARM GAS  C:\Users\z80\AppData\Local\Temp\cc0Tlqmx.s 			page 24


 1293 0637 A704     		.2byte	0x4a7
 1294 0639 7D040000 		.4byte	0x47d
 1295 063d 02       		.byte	0x2
 1296 063e 23       		.byte	0x23
 1297 063f 1C       		.uleb128 0x1c
 1298 0640 15       		.uleb128 0x15
 1299 0641 0D030000 		.4byte	.LASF82
 1300 0645 0A       		.byte	0xa
 1301 0646 A804     		.2byte	0x4a8
 1302 0648 62000000 		.4byte	0x62
 1303 064c 02       		.byte	0x2
 1304 064d 23       		.byte	0x23
 1305 064e 1E       		.uleb128 0x1e
 1306 064f 15       		.uleb128 0x15
 1307 0650 71020000 		.4byte	.LASF83
 1308 0654 0A       		.byte	0xa
 1309 0655 A904     		.2byte	0x4a9
 1310 0657 7D040000 		.4byte	0x47d
 1311 065b 02       		.byte	0x2
 1312 065c 23       		.byte	0x23
 1313 065d 20       		.uleb128 0x20
 1314 065e 15       		.uleb128 0x15
 1315 065f 17030000 		.4byte	.LASF84
 1316 0663 0A       		.byte	0xa
 1317 0664 AA04     		.2byte	0x4aa
 1318 0666 62000000 		.4byte	0x62
 1319 066a 02       		.byte	0x2
 1320 066b 23       		.byte	0x23
 1321 066c 22       		.uleb128 0x22
 1322 066d 00       		.byte	0x0
 1323 066e 16       		.uleb128 0x16
 1324 066f F4030000 		.4byte	.LASF85
 1325 0673 0A       		.byte	0xa
 1326 0674 AB04     		.2byte	0x4ab
 1327 0676 58050000 		.4byte	0x558
 1328 067a 08       		.uleb128 0x8
 1329 067b 0C       		.byte	0xc
 1330 067c 0B       		.byte	0xb
 1331 067d C2       		.byte	0xc2
 1332 067e C9060000 		.4byte	0x6c9
 1333 0682 06       		.uleb128 0x6
 1334 0683 B0030000 		.4byte	.LASF86
 1335 0687 0B       		.byte	0xb
 1336 0688 C3       		.byte	0xc3
 1337 0689 C9060000 		.4byte	0x6c9
 1338 068d 02       		.byte	0x2
 1339 068e 23       		.byte	0x23
 1340 068f 00       		.uleb128 0x0
 1341 0690 06       		.uleb128 0x6
 1342 0691 C3030000 		.4byte	.LASF87
 1343 0695 0B       		.byte	0xb
 1344 0696 C4       		.byte	0xc4
 1345 0697 CF060000 		.4byte	0x6cf
 1346 069b 02       		.byte	0x2
 1347 069c 23       		.byte	0x23
 1348 069d 04       		.uleb128 0x4
 1349 069e 06       		.uleb128 0x6
ARM GAS  C:\Users\z80\AppData\Local\Temp\cc0Tlqmx.s 			page 25


 1350 069f F5010000 		.4byte	.LASF88
 1351 06a3 0B       		.byte	0xb
 1352 06a4 C5       		.byte	0xc5
 1353 06a5 49000000 		.4byte	0x49
 1354 06a9 02       		.byte	0x2
 1355 06aa 23       		.byte	0x23
 1356 06ab 08       		.uleb128 0x8
 1357 06ac 06       		.uleb128 0x6
 1358 06ad 82010000 		.4byte	.LASF89
 1359 06b1 0B       		.byte	0xb
 1360 06b2 C7       		.byte	0xc7
 1361 06b3 49000000 		.4byte	0x49
 1362 06b7 02       		.byte	0x2
 1363 06b8 23       		.byte	0x23
 1364 06b9 09       		.uleb128 0x9
 1365 06ba 06       		.uleb128 0x6
 1366 06bb 73000000 		.4byte	.LASF90
 1367 06bf 0B       		.byte	0xb
 1368 06c0 C8       		.byte	0xc8
 1369 06c1 49000000 		.4byte	0x49
 1370 06c5 02       		.byte	0x2
 1371 06c6 23       		.byte	0x23
 1372 06c7 0A       		.uleb128 0xa
 1373 06c8 00       		.byte	0x0
 1374 06c9 09       		.uleb128 0x9
 1375 06ca 04       		.byte	0x4
 1376 06cb CD040000 		.4byte	0x4cd
 1377 06cf 09       		.uleb128 0x9
 1378 06d0 04       		.byte	0x4
 1379 06d1 27030000 		.4byte	0x327
 1380 06d5 03       		.uleb128 0x3
 1381 06d6 4D030000 		.4byte	.LASF91
 1382 06da 0B       		.byte	0xb
 1383 06db C9       		.byte	0xc9
 1384 06dc 7A060000 		.4byte	0x67a
 1385 06e0 03       		.uleb128 0x3
 1386 06e1 3A000000 		.4byte	.LASF92
 1387 06e5 0C       		.byte	0xc
 1388 06e6 78       		.byte	0x78
 1389 06e7 86000000 		.4byte	0x86
 1390 06eb 03       		.uleb128 0x3
 1391 06ec 46040000 		.4byte	.LASF93
 1392 06f0 0C       		.byte	0xc
 1393 06f1 85       		.byte	0x85
 1394 06f2 F6060000 		.4byte	0x6f6
 1395 06f6 09       		.uleb128 0x9
 1396 06f7 04       		.byte	0x4
 1397 06f8 4C050000 		.4byte	0x54c
 1398 06fc 09       		.uleb128 0x9
 1399 06fd 04       		.byte	0x4
 1400 06fe 02070000 		.4byte	0x702
 1401 0702 11       		.uleb128 0x11
 1402 0703 D5060000 		.4byte	0x6d5
 1403 0707 17       		.uleb128 0x17
 1404 0708 01       		.byte	0x1
 1405 0709 0D       		.byte	0xd
 1406 070a 55       		.byte	0x55
ARM GAS  C:\Users\z80\AppData\Local\Temp\cc0Tlqmx.s 			page 26


 1407 070b 2E070000 		.4byte	0x72e
 1408 070f 18       		.uleb128 0x18
 1409 0710 6A040000 		.4byte	.LASF94
 1410 0714 00       		.sleb128 0
 1411 0715 18       		.uleb128 0x18
 1412 0716 DD000000 		.4byte	.LASF95
 1413 071a 01       		.sleb128 1
 1414 071b 18       		.uleb128 0x18
 1415 071c 60040000 		.4byte	.LASF96
 1416 0720 02       		.sleb128 2
 1417 0721 18       		.uleb128 0x18
 1418 0722 2F000000 		.4byte	.LASF97
 1419 0726 03       		.sleb128 3
 1420 0727 18       		.uleb128 0x18
 1421 0728 05040000 		.4byte	.LASF98
 1422 072c 04       		.sleb128 4
 1423 072d 00       		.byte	0x0
 1424 072e 03       		.uleb128 0x3
 1425 072f 1F040000 		.4byte	.LASF99
 1426 0733 0D       		.byte	0xd
 1427 0734 5B       		.byte	0x5b
 1428 0735 07070000 		.4byte	0x707
 1429 0739 16       		.uleb128 0x16
 1430 073a 7A000000 		.4byte	.LASF100
 1431 073e 0E       		.byte	0xe
 1432 073f 0701     		.2byte	0x107
 1433 0741 45070000 		.4byte	0x745
 1434 0745 0C       		.uleb128 0xc
 1435 0746 7A000000 		.4byte	.LASF100
 1436 074a 30       		.byte	0x30
 1437 074b 0E       		.byte	0xe
 1438 074c 2B01     		.2byte	0x12b
 1439 074e DA070000 		.4byte	0x7da
 1440 0752 15       		.uleb128 0x15
 1441 0753 23010000 		.4byte	.LASF101
 1442 0757 0E       		.byte	0xe
 1443 0758 2F01     		.2byte	0x12f
 1444 075a 2E070000 		.4byte	0x72e
 1445 075e 02       		.byte	0x2
 1446 075f 23       		.byte	0x23
 1447 0760 00       		.uleb128 0x0
 1448 0761 15       		.uleb128 0x15
 1449 0762 12040000 		.4byte	.LASF102
 1450 0766 0E       		.byte	0xe
 1451 0767 3301     		.2byte	0x133
 1452 0769 50080000 		.4byte	0x850
 1453 076d 02       		.byte	0x2
 1454 076e 23       		.byte	0x23
 1455 076f 04       		.uleb128 0x4
 1456 0770 15       		.uleb128 0x15
 1457 0771 3B010000 		.4byte	.LASF103
 1458 0775 0E       		.byte	0xe
 1459 0776 3801     		.2byte	0x138
 1460 0778 2C020000 		.4byte	0x22c
 1461 077c 02       		.byte	0x2
 1462 077d 23       		.byte	0x23
 1463 077e 08       		.uleb128 0x8
ARM GAS  C:\Users\z80\AppData\Local\Temp\cc0Tlqmx.s 			page 27


 1464 077f 15       		.uleb128 0x15
 1465 0780 31030000 		.4byte	.LASF104
 1466 0784 0E       		.byte	0xe
 1467 0785 3F01     		.2byte	0x13f
 1468 0787 71030000 		.4byte	0x371
 1469 078b 02       		.byte	0x2
 1470 078c 23       		.byte	0x23
 1471 078d 0C       		.uleb128 0xc
 1472 078e 0B       		.uleb128 0xb
 1473 078f 73706900 		.ascii	"spi\000"
 1474 0793 0E       		.byte	0xe
 1475 0794 4B01     		.2byte	0x14b
 1476 0796 5B080000 		.4byte	0x85b
 1477 079a 02       		.byte	0x2
 1478 079b 23       		.byte	0x23
 1479 079c 1C       		.uleb128 0x1c
 1480 079d 15       		.uleb128 0x15
 1481 079e 00000000 		.4byte	.LASF105
 1482 07a2 0E       		.byte	0xe
 1483 07a3 4F01     		.2byte	0x14f
 1484 07a5 FC060000 		.4byte	0x6fc
 1485 07a9 02       		.byte	0x2
 1486 07aa 23       		.byte	0x23
 1487 07ab 20       		.uleb128 0x20
 1488 07ac 15       		.uleb128 0x15
 1489 07ad 73010000 		.4byte	.LASF106
 1490 07b1 0E       		.byte	0xe
 1491 07b2 5301     		.2byte	0x153
 1492 07b4 FC060000 		.4byte	0x6fc
 1493 07b8 02       		.byte	0x2
 1494 07b9 23       		.byte	0x23
 1495 07ba 24       		.uleb128 0x24
 1496 07bb 15       		.uleb128 0x15
 1497 07bc 69010000 		.4byte	.LASF107
 1498 07c0 0E       		.byte	0xe
 1499 07c1 5701     		.2byte	0x157
 1500 07c3 86000000 		.4byte	0x86
 1501 07c7 02       		.byte	0x2
 1502 07c8 23       		.byte	0x23
 1503 07c9 28       		.uleb128 0x28
 1504 07ca 15       		.uleb128 0x15
 1505 07cb A5020000 		.4byte	.LASF108
 1506 07cf 0E       		.byte	0xe
 1507 07d0 5B01     		.2byte	0x15b
 1508 07d2 86000000 		.4byte	0x86
 1509 07d6 02       		.byte	0x2
 1510 07d7 23       		.byte	0x23
 1511 07d8 2C       		.uleb128 0x2c
 1512 07d9 00       		.byte	0x0
 1513 07da 16       		.uleb128 0x16
 1514 07db 8C010000 		.4byte	.LASF109
 1515 07df 0E       		.byte	0xe
 1516 07e0 0F01     		.2byte	0x10f
 1517 07e2 E6070000 		.4byte	0x7e6
 1518 07e6 09       		.uleb128 0x9
 1519 07e7 04       		.byte	0x4
 1520 07e8 EC070000 		.4byte	0x7ec
ARM GAS  C:\Users\z80\AppData\Local\Temp\cc0Tlqmx.s 			page 28


 1521 07ec 12       		.uleb128 0x12
 1522 07ed 01       		.byte	0x1
 1523 07ee F8070000 		.4byte	0x7f8
 1524 07f2 13       		.uleb128 0x13
 1525 07f3 F8070000 		.4byte	0x7f8
 1526 07f7 00       		.byte	0x0
 1527 07f8 09       		.uleb128 0x9
 1528 07f9 04       		.byte	0x4
 1529 07fa 39070000 		.4byte	0x739
 1530 07fe 14       		.uleb128 0x14
 1531 07ff 0C       		.byte	0xc
 1532 0800 0E       		.byte	0xe
 1533 0801 1401     		.2byte	0x114
 1534 0803 44080000 		.4byte	0x844
 1535 0807 15       		.uleb128 0x15
 1536 0808 62010000 		.4byte	.LASF110
 1537 080c 0E       		.byte	0xe
 1538 080d 1801     		.2byte	0x118
 1539 080f DA070000 		.4byte	0x7da
 1540 0813 02       		.byte	0x2
 1541 0814 23       		.byte	0x23
 1542 0815 00       		.uleb128 0x0
 1543 0816 15       		.uleb128 0x15
 1544 0817 84000000 		.4byte	.LASF111
 1545 081b 0E       		.byte	0xe
 1546 081c 1D01     		.2byte	0x11d
 1547 081e EB060000 		.4byte	0x6eb
 1548 0822 02       		.byte	0x2
 1549 0823 23       		.byte	0x23
 1550 0824 04       		.uleb128 0x4
 1551 0825 15       		.uleb128 0x15
 1552 0826 47000000 		.4byte	.LASF112
 1553 082a 0E       		.byte	0xe
 1554 082b 2101     		.2byte	0x121
 1555 082d 62000000 		.4byte	0x62
 1556 0831 02       		.byte	0x2
 1557 0832 23       		.byte	0x23
 1558 0833 08       		.uleb128 0x8
 1559 0834 0B       		.uleb128 0xb
 1560 0835 63723100 		.ascii	"cr1\000"
 1561 0839 0E       		.byte	0xe
 1562 083a 2501     		.2byte	0x125
 1563 083c 62000000 		.4byte	0x62
 1564 0840 02       		.byte	0x2
 1565 0841 23       		.byte	0x23
 1566 0842 0A       		.uleb128 0xa
 1567 0843 00       		.byte	0x0
 1568 0844 16       		.uleb128 0x16
 1569 0845 BB040000 		.4byte	.LASF113
 1570 0849 0E       		.byte	0xe
 1571 084a 2601     		.2byte	0x126
 1572 084c FE070000 		.4byte	0x7fe
 1573 0850 09       		.uleb128 0x9
 1574 0851 04       		.byte	0x4
 1575 0852 56080000 		.4byte	0x856
 1576 0856 11       		.uleb128 0x11
 1577 0857 44080000 		.4byte	0x844
ARM GAS  C:\Users\z80\AppData\Local\Temp\cc0Tlqmx.s 			page 29


 1578 085b 09       		.uleb128 0x9
 1579 085c 04       		.byte	0x4
 1580 085d 6E060000 		.4byte	0x66e
 1581 0861 19       		.uleb128 0x19
 1582 0862 A4010000 		.4byte	.LASF127
 1583 0866 01       		.byte	0x1
 1584 0867 38       		.byte	0x38
 1585 0868 01       		.byte	0x1
 1586 0869 00000000 		.4byte	.LFB64
 1587 086d 54000000 		.4byte	.LFE64
 1588 0871 00000000 		.4byte	.LLST0
 1589 0875 BF080000 		.4byte	0x8bf
 1590 0879 1A       		.uleb128 0x1a
 1591 087a 80040000 		.4byte	.LASF116
 1592 087e 01       		.byte	0x1
 1593 087f 38       		.byte	0x38
 1594 0880 F8070000 		.4byte	0x7f8
 1595 0884 20000000 		.4byte	.LLST1
 1596 0888 1B       		.uleb128 0x1b
 1597 0889 02000000 		.4byte	.LBB2
 1598 088d 08000000 		.4byte	.LBE2
 1599 0891 A5080000 		.4byte	0x8a5
 1600 0895 1C       		.uleb128 0x1c
 1601 0896 746D7000 		.ascii	"tmp\000"
 1602 089a 01       		.byte	0x1
 1603 089b 3B       		.byte	0x3b
 1604 089c 86000000 		.4byte	0x86
 1605 08a0 33000000 		.4byte	.LLST2
 1606 08a4 00       		.byte	0x0
 1607 08a5 1D       		.uleb128 0x1d
 1608 08a6 40000000 		.4byte	.LBB3
 1609 08aa 46000000 		.4byte	.LBE3
 1610 08ae 1C       		.uleb128 0x1c
 1611 08af 746D7000 		.ascii	"tmp\000"
 1612 08b3 01       		.byte	0x1
 1613 08b4 46       		.byte	0x46
 1614 08b5 86000000 		.4byte	0x86
 1615 08b9 46000000 		.4byte	.LLST3
 1616 08bd 00       		.byte	0x0
 1617 08be 00       		.byte	0x0
 1618 08bf 1E       		.uleb128 0x1e
 1619 08c0 01       		.byte	0x1
 1620 08c1 69020000 		.4byte	.LASF128
 1621 08c5 01       		.byte	0x1
 1622 08c6 20       		.byte	0x20
 1623 08c7 01       		.byte	0x1
 1624 08c8 00000000 		.4byte	.LFB62
 1625 08cc 78000000 		.4byte	.LFE62
 1626 08d0 59000000 		.4byte	.LLST4
 1627 08d4 1F       		.uleb128 0x1f
 1628 08d5 01       		.byte	0x1
 1629 08d6 9A010000 		.4byte	.LASF114
 1630 08da 01       		.byte	0x1
 1631 08db 30       		.byte	0x30
 1632 08dc 01       		.byte	0x1
 1633 08dd 00000000 		.4byte	.LFB63
 1634 08e1 3A000000 		.4byte	.LFE63
ARM GAS  C:\Users\z80\AppData\Local\Temp\cc0Tlqmx.s 			page 30


 1635 08e5 79000000 		.4byte	.LLST5
 1636 08e9 24090000 		.4byte	0x924
 1637 08ed 1B       		.uleb128 0x1b
 1638 08ee 02000000 		.4byte	.LBB4
 1639 08f2 08000000 		.4byte	.LBE4
 1640 08f6 0A090000 		.4byte	0x90a
 1641 08fa 1C       		.uleb128 0x1c
 1642 08fb 746D7000 		.ascii	"tmp\000"
 1643 08ff 01       		.byte	0x1
 1644 0900 32       		.byte	0x32
 1645 0901 86000000 		.4byte	0x86
 1646 0905 99000000 		.4byte	.LLST6
 1647 0909 00       		.byte	0x0
 1648 090a 1D       		.uleb128 0x1d
 1649 090b 32000000 		.4byte	.LBB5
 1650 090f 38000000 		.4byte	.LBE5
 1651 0913 1C       		.uleb128 0x1c
 1652 0914 746D7000 		.ascii	"tmp\000"
 1653 0918 01       		.byte	0x1
 1654 0919 35       		.byte	0x35
 1655 091a 86000000 		.4byte	0x86
 1656 091e AC000000 		.4byte	.LLST7
 1657 0922 00       		.byte	0x0
 1658 0923 00       		.byte	0x0
 1659 0924 20       		.uleb128 0x20
 1660 0925 01       		.byte	0x1
 1661 0926 9F000000 		.4byte	.LASF129
 1662 092a 01       		.byte	0x1
 1663 092b 49       		.byte	0x49
 1664 092c 01       		.byte	0x1
 1665 092d 3C090000 		.4byte	0x93c
 1666 0931 00000000 		.4byte	.LFB65
 1667 0935 0A000000 		.4byte	.LFE65
 1668 0939 02       		.byte	0x2
 1669 093a 7D       		.byte	0x7d
 1670 093b 00       		.sleb128 0
 1671 093c 09       		.uleb128 0x9
 1672 093d 04       		.byte	0x4
 1673 093e 72040000 		.4byte	0x472
 1674 0942 21       		.uleb128 0x21
 1675 0943 01       		.byte	0x1
 1676 0944 E3040000 		.4byte	.LASF115
 1677 0948 01       		.byte	0x1
 1678 0949 4E       		.byte	0x4e
 1679 094a 01       		.byte	0x1
 1680 094b 00000000 		.4byte	.LFB66
 1681 094f 46000000 		.4byte	.LFE66
 1682 0953 02       		.byte	0x2
 1683 0954 7D       		.byte	0x7d
 1684 0955 00       		.sleb128 0
 1685 0956 68090000 		.4byte	0x968
 1686 095a 22       		.uleb128 0x22
 1687 095b 19040000 		.4byte	.LASF117
 1688 095f 01       		.byte	0x1
 1689 0960 4E       		.byte	0x4e
 1690 0961 29000000 		.4byte	0x29
 1691 0965 01       		.byte	0x1
ARM GAS  C:\Users\z80\AppData\Local\Temp\cc0Tlqmx.s 			page 31


 1692 0966 50       		.byte	0x50
 1693 0967 00       		.byte	0x0
 1694 0968 23       		.uleb128 0x23
 1695 0969 8B000000 		.4byte	.LASF118
 1696 096d 0F       		.byte	0xf
 1697 096e 9404     		.2byte	0x494
 1698 0970 82040000 		.4byte	0x482
 1699 0974 01       		.byte	0x1
 1700 0975 01       		.byte	0x1
 1701 0976 23       		.uleb128 0x23
 1702 0977 60030000 		.4byte	.LASF119
 1703 097b 0E       		.byte	0xe
 1704 097c 6701     		.2byte	0x167
 1705 097e 39070000 		.4byte	0x739
 1706 0982 01       		.byte	0x1
 1707 0983 01       		.byte	0x1
 1708 0984 24       		.uleb128 0x24
 1709 0985 66030000 		.4byte	.LASF120
 1710 0989 01       		.byte	0x1
 1711 098a 0D       		.byte	0xd
 1712 098b 72040000 		.4byte	0x472
 1713 098f 01       		.byte	0x1
 1714 0990 01       		.byte	0x1
 1715 0991 25       		.uleb128 0x25
 1716 0992 49000000 		.4byte	0x49
 1717 0996 A1090000 		.4byte	0x9a1
 1718 099a 26       		.uleb128 0x26
 1719 099b 2C030000 		.4byte	0x32c
 1720 099f 17       		.byte	0x17
 1721 09a0 00       		.byte	0x0
 1722 09a1 24       		.uleb128 0x24
 1723 09a2 1E000000 		.4byte	.LASF121
 1724 09a6 01       		.byte	0x1
 1725 09a7 0E       		.byte	0xe
 1726 09a8 91090000 		.4byte	0x991
 1727 09ac 01       		.byte	0x1
 1728 09ad 01       		.byte	0x1
 1729 09ae 25       		.uleb128 0x25
 1730 09af 49000000 		.4byte	0x49
 1731 09b3 BE090000 		.4byte	0x9be
 1732 09b7 26       		.uleb128 0x26
 1733 09b8 2C030000 		.4byte	0x32c
 1734 09bc 02       		.byte	0x2
 1735 09bd 00       		.byte	0x0
 1736 09be 24       		.uleb128 0x24
 1737 09bf A2030000 		.4byte	.LASF122
 1738 09c3 01       		.byte	0x1
 1739 09c4 10       		.byte	0x10
 1740 09c5 AE090000 		.4byte	0x9ae
 1741 09c9 01       		.byte	0x1
 1742 09ca 01       		.byte	0x1
 1743 09cb 27       		.uleb128 0x27
 1744 09cc 14000000 		.4byte	.LASF123
 1745 09d0 01       		.byte	0x1
 1746 09d1 17       		.byte	0x17
 1747 09d2 56080000 		.4byte	0x856
 1748 09d6 05       		.byte	0x5
ARM GAS  C:\Users\z80\AppData\Local\Temp\cc0Tlqmx.s 			page 32


 1749 09d7 03       		.byte	0x3
 1750 09d8 00000000 		.4byte	hs_spicfg
 1751 09dc 23       		.uleb128 0x23
 1752 09dd 8B000000 		.4byte	.LASF118
 1753 09e1 0F       		.byte	0xf
 1754 09e2 9404     		.2byte	0x494
 1755 09e4 82040000 		.4byte	0x482
 1756 09e8 01       		.byte	0x1
 1757 09e9 01       		.byte	0x1
 1758 09ea 23       		.uleb128 0x23
 1759 09eb 60030000 		.4byte	.LASF119
 1760 09ef 0E       		.byte	0xe
 1761 09f0 6701     		.2byte	0x167
 1762 09f2 39070000 		.4byte	0x739
 1763 09f6 01       		.byte	0x1
 1764 09f7 01       		.byte	0x1
 1765 09f8 28       		.uleb128 0x28
 1766 09f9 66030000 		.4byte	.LASF120
 1767 09fd 01       		.byte	0x1
 1768 09fe 0D       		.byte	0xd
 1769 09ff 72040000 		.4byte	0x472
 1770 0a03 01       		.byte	0x1
 1771 0a04 05       		.byte	0x5
 1772 0a05 03       		.byte	0x3
 1773 0a06 00000000 		.4byte	adc_queue
 1774 0a0a 28       		.uleb128 0x28
 1775 0a0b 1E000000 		.4byte	.LASF121
 1776 0a0f 01       		.byte	0x1
 1777 0a10 0E       		.byte	0xe
 1778 0a11 91090000 		.4byte	0x991
 1779 0a15 01       		.byte	0x1
 1780 0a16 05       		.byte	0x5
 1781 0a17 03       		.byte	0x3
 1782 0a18 00000000 		.4byte	adc_queue_buffer
 1783 0a1c 28       		.uleb128 0x28
 1784 0a1d A2030000 		.4byte	.LASF122
 1785 0a21 01       		.byte	0x1
 1786 0a22 10       		.byte	0x10
 1787 0a23 AE090000 		.4byte	0x9ae
 1788 0a27 01       		.byte	0x1
 1789 0a28 05       		.byte	0x5
 1790 0a29 03       		.byte	0x3
 1791 0a2a 00000000 		.4byte	adc_rx_buffer
 1792 0a2e 00       		.byte	0x0
 1793              		.section	.debug_abbrev
 1794 0000 01       		.uleb128 0x1
 1795 0001 11       		.uleb128 0x11
 1796 0002 01       		.byte	0x1
 1797 0003 25       		.uleb128 0x25
 1798 0004 0E       		.uleb128 0xe
 1799 0005 13       		.uleb128 0x13
 1800 0006 0B       		.uleb128 0xb
 1801 0007 03       		.uleb128 0x3
 1802 0008 0E       		.uleb128 0xe
 1803 0009 1B       		.uleb128 0x1b
 1804 000a 0E       		.uleb128 0xe
 1805 000b 11       		.uleb128 0x11
ARM GAS  C:\Users\z80\AppData\Local\Temp\cc0Tlqmx.s 			page 33


 1806 000c 01       		.uleb128 0x1
 1807 000d 52       		.uleb128 0x52
 1808 000e 01       		.uleb128 0x1
 1809 000f 55       		.uleb128 0x55
 1810 0010 06       		.uleb128 0x6
 1811 0011 10       		.uleb128 0x10
 1812 0012 06       		.uleb128 0x6
 1813 0013 00       		.byte	0x0
 1814 0014 00       		.byte	0x0
 1815 0015 02       		.uleb128 0x2
 1816 0016 24       		.uleb128 0x24
 1817 0017 00       		.byte	0x0
 1818 0018 0B       		.uleb128 0xb
 1819 0019 0B       		.uleb128 0xb
 1820 001a 3E       		.uleb128 0x3e
 1821 001b 0B       		.uleb128 0xb
 1822 001c 03       		.uleb128 0x3
 1823 001d 08       		.uleb128 0x8
 1824 001e 00       		.byte	0x0
 1825 001f 00       		.byte	0x0
 1826 0020 03       		.uleb128 0x3
 1827 0021 16       		.uleb128 0x16
 1828 0022 00       		.byte	0x0
 1829 0023 03       		.uleb128 0x3
 1830 0024 0E       		.uleb128 0xe
 1831 0025 3A       		.uleb128 0x3a
 1832 0026 0B       		.uleb128 0xb
 1833 0027 3B       		.uleb128 0x3b
 1834 0028 0B       		.uleb128 0xb
 1835 0029 49       		.uleb128 0x49
 1836 002a 13       		.uleb128 0x13
 1837 002b 00       		.byte	0x0
 1838 002c 00       		.byte	0x0
 1839 002d 04       		.uleb128 0x4
 1840 002e 24       		.uleb128 0x24
 1841 002f 00       		.byte	0x0
 1842 0030 0B       		.uleb128 0xb
 1843 0031 0B       		.uleb128 0xb
 1844 0032 3E       		.uleb128 0x3e
 1845 0033 0B       		.uleb128 0xb
 1846 0034 03       		.uleb128 0x3
 1847 0035 0E       		.uleb128 0xe
 1848 0036 00       		.byte	0x0
 1849 0037 00       		.byte	0x0
 1850 0038 05       		.uleb128 0x5
 1851 0039 13       		.uleb128 0x13
 1852 003a 01       		.byte	0x1
 1853 003b 03       		.uleb128 0x3
 1854 003c 0E       		.uleb128 0xe
 1855 003d 0B       		.uleb128 0xb
 1856 003e 0B       		.uleb128 0xb
 1857 003f 3A       		.uleb128 0x3a
 1858 0040 0B       		.uleb128 0xb
 1859 0041 3B       		.uleb128 0x3b
 1860 0042 0B       		.uleb128 0xb
 1861 0043 01       		.uleb128 0x1
 1862 0044 13       		.uleb128 0x13
ARM GAS  C:\Users\z80\AppData\Local\Temp\cc0Tlqmx.s 			page 34


 1863 0045 00       		.byte	0x0
 1864 0046 00       		.byte	0x0
 1865 0047 06       		.uleb128 0x6
 1866 0048 0D       		.uleb128 0xd
 1867 0049 00       		.byte	0x0
 1868 004a 03       		.uleb128 0x3
 1869 004b 0E       		.uleb128 0xe
 1870 004c 3A       		.uleb128 0x3a
 1871 004d 0B       		.uleb128 0xb
 1872 004e 3B       		.uleb128 0x3b
 1873 004f 0B       		.uleb128 0xb
 1874 0050 49       		.uleb128 0x49
 1875 0051 13       		.uleb128 0x13
 1876 0052 38       		.uleb128 0x38
 1877 0053 0A       		.uleb128 0xa
 1878 0054 00       		.byte	0x0
 1879 0055 00       		.byte	0x0
 1880 0056 07       		.uleb128 0x7
 1881 0057 0D       		.uleb128 0xd
 1882 0058 00       		.byte	0x0
 1883 0059 03       		.uleb128 0x3
 1884 005a 08       		.uleb128 0x8
 1885 005b 3A       		.uleb128 0x3a
 1886 005c 0B       		.uleb128 0xb
 1887 005d 3B       		.uleb128 0x3b
 1888 005e 0B       		.uleb128 0xb
 1889 005f 49       		.uleb128 0x49
 1890 0060 13       		.uleb128 0x13
 1891 0061 38       		.uleb128 0x38
 1892 0062 0A       		.uleb128 0xa
 1893 0063 00       		.byte	0x0
 1894 0064 00       		.byte	0x0
 1895 0065 08       		.uleb128 0x8
 1896 0066 13       		.uleb128 0x13
 1897 0067 01       		.byte	0x1
 1898 0068 0B       		.uleb128 0xb
 1899 0069 0B       		.uleb128 0xb
 1900 006a 3A       		.uleb128 0x3a
 1901 006b 0B       		.uleb128 0xb
 1902 006c 3B       		.uleb128 0x3b
 1903 006d 0B       		.uleb128 0xb
 1904 006e 01       		.uleb128 0x1
 1905 006f 13       		.uleb128 0x13
 1906 0070 00       		.byte	0x0
 1907 0071 00       		.byte	0x0
 1908 0072 09       		.uleb128 0x9
 1909 0073 0F       		.uleb128 0xf
 1910 0074 00       		.byte	0x0
 1911 0075 0B       		.uleb128 0xb
 1912 0076 0B       		.uleb128 0xb
 1913 0077 49       		.uleb128 0x49
 1914 0078 13       		.uleb128 0x13
 1915 0079 00       		.byte	0x0
 1916 007a 00       		.byte	0x0
 1917 007b 0A       		.uleb128 0xa
 1918 007c 0F       		.uleb128 0xf
 1919 007d 00       		.byte	0x0
ARM GAS  C:\Users\z80\AppData\Local\Temp\cc0Tlqmx.s 			page 35


 1920 007e 0B       		.uleb128 0xb
 1921 007f 0B       		.uleb128 0xb
 1922 0080 00       		.byte	0x0
 1923 0081 00       		.byte	0x0
 1924 0082 0B       		.uleb128 0xb
 1925 0083 0D       		.uleb128 0xd
 1926 0084 00       		.byte	0x0
 1927 0085 03       		.uleb128 0x3
 1928 0086 08       		.uleb128 0x8
 1929 0087 3A       		.uleb128 0x3a
 1930 0088 0B       		.uleb128 0xb
 1931 0089 3B       		.uleb128 0x3b
 1932 008a 05       		.uleb128 0x5
 1933 008b 49       		.uleb128 0x49
 1934 008c 13       		.uleb128 0x13
 1935 008d 38       		.uleb128 0x38
 1936 008e 0A       		.uleb128 0xa
 1937 008f 00       		.byte	0x0
 1938 0090 00       		.byte	0x0
 1939 0091 0C       		.uleb128 0xc
 1940 0092 13       		.uleb128 0x13
 1941 0093 01       		.byte	0x1
 1942 0094 03       		.uleb128 0x3
 1943 0095 0E       		.uleb128 0xe
 1944 0096 0B       		.uleb128 0xb
 1945 0097 0B       		.uleb128 0xb
 1946 0098 3A       		.uleb128 0x3a
 1947 0099 0B       		.uleb128 0xb
 1948 009a 3B       		.uleb128 0x3b
 1949 009b 05       		.uleb128 0x5
 1950 009c 01       		.uleb128 0x1
 1951 009d 13       		.uleb128 0x13
 1952 009e 00       		.byte	0x0
 1953 009f 00       		.byte	0x0
 1954 00a0 0D       		.uleb128 0xd
 1955 00a1 35       		.uleb128 0x35
 1956 00a2 00       		.byte	0x0
 1957 00a3 49       		.uleb128 0x49
 1958 00a4 13       		.uleb128 0x13
 1959 00a5 00       		.byte	0x0
 1960 00a6 00       		.byte	0x0
 1961 00a7 0E       		.uleb128 0xe
 1962 00a8 24       		.uleb128 0x24
 1963 00a9 00       		.byte	0x0
 1964 00aa 0B       		.uleb128 0xb
 1965 00ab 0B       		.uleb128 0xb
 1966 00ac 3E       		.uleb128 0x3e
 1967 00ad 0B       		.uleb128 0xb
 1968 00ae 00       		.byte	0x0
 1969 00af 00       		.byte	0x0
 1970 00b0 0F       		.uleb128 0xf
 1971 00b1 17       		.uleb128 0x17
 1972 00b2 01       		.byte	0x1
 1973 00b3 0B       		.uleb128 0xb
 1974 00b4 0B       		.uleb128 0xb
 1975 00b5 3A       		.uleb128 0x3a
 1976 00b6 0B       		.uleb128 0xb
ARM GAS  C:\Users\z80\AppData\Local\Temp\cc0Tlqmx.s 			page 36


 1977 00b7 3B       		.uleb128 0x3b
 1978 00b8 0B       		.uleb128 0xb
 1979 00b9 01       		.uleb128 0x1
 1980 00ba 13       		.uleb128 0x13
 1981 00bb 00       		.byte	0x0
 1982 00bc 00       		.byte	0x0
 1983 00bd 10       		.uleb128 0x10
 1984 00be 0D       		.uleb128 0xd
 1985 00bf 00       		.byte	0x0
 1986 00c0 03       		.uleb128 0x3
 1987 00c1 0E       		.uleb128 0xe
 1988 00c2 3A       		.uleb128 0x3a
 1989 00c3 0B       		.uleb128 0xb
 1990 00c4 3B       		.uleb128 0x3b
 1991 00c5 0B       		.uleb128 0xb
 1992 00c6 49       		.uleb128 0x49
 1993 00c7 13       		.uleb128 0x13
 1994 00c8 00       		.byte	0x0
 1995 00c9 00       		.byte	0x0
 1996 00ca 11       		.uleb128 0x11
 1997 00cb 26       		.uleb128 0x26
 1998 00cc 00       		.byte	0x0
 1999 00cd 49       		.uleb128 0x49
 2000 00ce 13       		.uleb128 0x13
 2001 00cf 00       		.byte	0x0
 2002 00d0 00       		.byte	0x0
 2003 00d1 12       		.uleb128 0x12
 2004 00d2 15       		.uleb128 0x15
 2005 00d3 01       		.byte	0x1
 2006 00d4 27       		.uleb128 0x27
 2007 00d5 0C       		.uleb128 0xc
 2008 00d6 01       		.uleb128 0x1
 2009 00d7 13       		.uleb128 0x13
 2010 00d8 00       		.byte	0x0
 2011 00d9 00       		.byte	0x0
 2012 00da 13       		.uleb128 0x13
 2013 00db 05       		.uleb128 0x5
 2014 00dc 00       		.byte	0x0
 2015 00dd 49       		.uleb128 0x49
 2016 00de 13       		.uleb128 0x13
 2017 00df 00       		.byte	0x0
 2018 00e0 00       		.byte	0x0
 2019 00e1 14       		.uleb128 0x14
 2020 00e2 13       		.uleb128 0x13
 2021 00e3 01       		.byte	0x1
 2022 00e4 0B       		.uleb128 0xb
 2023 00e5 0B       		.uleb128 0xb
 2024 00e6 3A       		.uleb128 0x3a
 2025 00e7 0B       		.uleb128 0xb
 2026 00e8 3B       		.uleb128 0x3b
 2027 00e9 05       		.uleb128 0x5
 2028 00ea 01       		.uleb128 0x1
 2029 00eb 13       		.uleb128 0x13
 2030 00ec 00       		.byte	0x0
 2031 00ed 00       		.byte	0x0
 2032 00ee 15       		.uleb128 0x15
 2033 00ef 0D       		.uleb128 0xd
ARM GAS  C:\Users\z80\AppData\Local\Temp\cc0Tlqmx.s 			page 37


 2034 00f0 00       		.byte	0x0
 2035 00f1 03       		.uleb128 0x3
 2036 00f2 0E       		.uleb128 0xe
 2037 00f3 3A       		.uleb128 0x3a
 2038 00f4 0B       		.uleb128 0xb
 2039 00f5 3B       		.uleb128 0x3b
 2040 00f6 05       		.uleb128 0x5
 2041 00f7 49       		.uleb128 0x49
 2042 00f8 13       		.uleb128 0x13
 2043 00f9 38       		.uleb128 0x38
 2044 00fa 0A       		.uleb128 0xa
 2045 00fb 00       		.byte	0x0
 2046 00fc 00       		.byte	0x0
 2047 00fd 16       		.uleb128 0x16
 2048 00fe 16       		.uleb128 0x16
 2049 00ff 00       		.byte	0x0
 2050 0100 03       		.uleb128 0x3
 2051 0101 0E       		.uleb128 0xe
 2052 0102 3A       		.uleb128 0x3a
 2053 0103 0B       		.uleb128 0xb
 2054 0104 3B       		.uleb128 0x3b
 2055 0105 05       		.uleb128 0x5
 2056 0106 49       		.uleb128 0x49
 2057 0107 13       		.uleb128 0x13
 2058 0108 00       		.byte	0x0
 2059 0109 00       		.byte	0x0
 2060 010a 17       		.uleb128 0x17
 2061 010b 04       		.uleb128 0x4
 2062 010c 01       		.byte	0x1
 2063 010d 0B       		.uleb128 0xb
 2064 010e 0B       		.uleb128 0xb
 2065 010f 3A       		.uleb128 0x3a
 2066 0110 0B       		.uleb128 0xb
 2067 0111 3B       		.uleb128 0x3b
 2068 0112 0B       		.uleb128 0xb
 2069 0113 01       		.uleb128 0x1
 2070 0114 13       		.uleb128 0x13
 2071 0115 00       		.byte	0x0
 2072 0116 00       		.byte	0x0
 2073 0117 18       		.uleb128 0x18
 2074 0118 28       		.uleb128 0x28
 2075 0119 00       		.byte	0x0
 2076 011a 03       		.uleb128 0x3
 2077 011b 0E       		.uleb128 0xe
 2078 011c 1C       		.uleb128 0x1c
 2079 011d 0D       		.uleb128 0xd
 2080 011e 00       		.byte	0x0
 2081 011f 00       		.byte	0x0
 2082 0120 19       		.uleb128 0x19
 2083 0121 2E       		.uleb128 0x2e
 2084 0122 01       		.byte	0x1
 2085 0123 03       		.uleb128 0x3
 2086 0124 0E       		.uleb128 0xe
 2087 0125 3A       		.uleb128 0x3a
 2088 0126 0B       		.uleb128 0xb
 2089 0127 3B       		.uleb128 0x3b
 2090 0128 0B       		.uleb128 0xb
ARM GAS  C:\Users\z80\AppData\Local\Temp\cc0Tlqmx.s 			page 38


 2091 0129 27       		.uleb128 0x27
 2092 012a 0C       		.uleb128 0xc
 2093 012b 11       		.uleb128 0x11
 2094 012c 01       		.uleb128 0x1
 2095 012d 12       		.uleb128 0x12
 2096 012e 01       		.uleb128 0x1
 2097 012f 40       		.uleb128 0x40
 2098 0130 06       		.uleb128 0x6
 2099 0131 01       		.uleb128 0x1
 2100 0132 13       		.uleb128 0x13
 2101 0133 00       		.byte	0x0
 2102 0134 00       		.byte	0x0
 2103 0135 1A       		.uleb128 0x1a
 2104 0136 05       		.uleb128 0x5
 2105 0137 00       		.byte	0x0
 2106 0138 03       		.uleb128 0x3
 2107 0139 0E       		.uleb128 0xe
 2108 013a 3A       		.uleb128 0x3a
 2109 013b 0B       		.uleb128 0xb
 2110 013c 3B       		.uleb128 0x3b
 2111 013d 0B       		.uleb128 0xb
 2112 013e 49       		.uleb128 0x49
 2113 013f 13       		.uleb128 0x13
 2114 0140 02       		.uleb128 0x2
 2115 0141 06       		.uleb128 0x6
 2116 0142 00       		.byte	0x0
 2117 0143 00       		.byte	0x0
 2118 0144 1B       		.uleb128 0x1b
 2119 0145 0B       		.uleb128 0xb
 2120 0146 01       		.byte	0x1
 2121 0147 11       		.uleb128 0x11
 2122 0148 01       		.uleb128 0x1
 2123 0149 12       		.uleb128 0x12
 2124 014a 01       		.uleb128 0x1
 2125 014b 01       		.uleb128 0x1
 2126 014c 13       		.uleb128 0x13
 2127 014d 00       		.byte	0x0
 2128 014e 00       		.byte	0x0
 2129 014f 1C       		.uleb128 0x1c
 2130 0150 34       		.uleb128 0x34
 2131 0151 00       		.byte	0x0
 2132 0152 03       		.uleb128 0x3
 2133 0153 08       		.uleb128 0x8
 2134 0154 3A       		.uleb128 0x3a
 2135 0155 0B       		.uleb128 0xb
 2136 0156 3B       		.uleb128 0x3b
 2137 0157 0B       		.uleb128 0xb
 2138 0158 49       		.uleb128 0x49
 2139 0159 13       		.uleb128 0x13
 2140 015a 02       		.uleb128 0x2
 2141 015b 06       		.uleb128 0x6
 2142 015c 00       		.byte	0x0
 2143 015d 00       		.byte	0x0
 2144 015e 1D       		.uleb128 0x1d
 2145 015f 0B       		.uleb128 0xb
 2146 0160 01       		.byte	0x1
 2147 0161 11       		.uleb128 0x11
ARM GAS  C:\Users\z80\AppData\Local\Temp\cc0Tlqmx.s 			page 39


 2148 0162 01       		.uleb128 0x1
 2149 0163 12       		.uleb128 0x12
 2150 0164 01       		.uleb128 0x1
 2151 0165 00       		.byte	0x0
 2152 0166 00       		.byte	0x0
 2153 0167 1E       		.uleb128 0x1e
 2154 0168 2E       		.uleb128 0x2e
 2155 0169 00       		.byte	0x0
 2156 016a 3F       		.uleb128 0x3f
 2157 016b 0C       		.uleb128 0xc
 2158 016c 03       		.uleb128 0x3
 2159 016d 0E       		.uleb128 0xe
 2160 016e 3A       		.uleb128 0x3a
 2161 016f 0B       		.uleb128 0xb
 2162 0170 3B       		.uleb128 0x3b
 2163 0171 0B       		.uleb128 0xb
 2164 0172 27       		.uleb128 0x27
 2165 0173 0C       		.uleb128 0xc
 2166 0174 11       		.uleb128 0x11
 2167 0175 01       		.uleb128 0x1
 2168 0176 12       		.uleb128 0x12
 2169 0177 01       		.uleb128 0x1
 2170 0178 40       		.uleb128 0x40
 2171 0179 06       		.uleb128 0x6
 2172 017a 00       		.byte	0x0
 2173 017b 00       		.byte	0x0
 2174 017c 1F       		.uleb128 0x1f
 2175 017d 2E       		.uleb128 0x2e
 2176 017e 01       		.byte	0x1
 2177 017f 3F       		.uleb128 0x3f
 2178 0180 0C       		.uleb128 0xc
 2179 0181 03       		.uleb128 0x3
 2180 0182 0E       		.uleb128 0xe
 2181 0183 3A       		.uleb128 0x3a
 2182 0184 0B       		.uleb128 0xb
 2183 0185 3B       		.uleb128 0x3b
 2184 0186 0B       		.uleb128 0xb
 2185 0187 27       		.uleb128 0x27
 2186 0188 0C       		.uleb128 0xc
 2187 0189 11       		.uleb128 0x11
 2188 018a 01       		.uleb128 0x1
 2189 018b 12       		.uleb128 0x12
 2190 018c 01       		.uleb128 0x1
 2191 018d 40       		.uleb128 0x40
 2192 018e 06       		.uleb128 0x6
 2193 018f 01       		.uleb128 0x1
 2194 0190 13       		.uleb128 0x13
 2195 0191 00       		.byte	0x0
 2196 0192 00       		.byte	0x0
 2197 0193 20       		.uleb128 0x20
 2198 0194 2E       		.uleb128 0x2e
 2199 0195 00       		.byte	0x0
 2200 0196 3F       		.uleb128 0x3f
 2201 0197 0C       		.uleb128 0xc
 2202 0198 03       		.uleb128 0x3
 2203 0199 0E       		.uleb128 0xe
 2204 019a 3A       		.uleb128 0x3a
ARM GAS  C:\Users\z80\AppData\Local\Temp\cc0Tlqmx.s 			page 40


 2205 019b 0B       		.uleb128 0xb
 2206 019c 3B       		.uleb128 0x3b
 2207 019d 0B       		.uleb128 0xb
 2208 019e 27       		.uleb128 0x27
 2209 019f 0C       		.uleb128 0xc
 2210 01a0 49       		.uleb128 0x49
 2211 01a1 13       		.uleb128 0x13
 2212 01a2 11       		.uleb128 0x11
 2213 01a3 01       		.uleb128 0x1
 2214 01a4 12       		.uleb128 0x12
 2215 01a5 01       		.uleb128 0x1
 2216 01a6 40       		.uleb128 0x40
 2217 01a7 0A       		.uleb128 0xa
 2218 01a8 00       		.byte	0x0
 2219 01a9 00       		.byte	0x0
 2220 01aa 21       		.uleb128 0x21
 2221 01ab 2E       		.uleb128 0x2e
 2222 01ac 01       		.byte	0x1
 2223 01ad 3F       		.uleb128 0x3f
 2224 01ae 0C       		.uleb128 0xc
 2225 01af 03       		.uleb128 0x3
 2226 01b0 0E       		.uleb128 0xe
 2227 01b1 3A       		.uleb128 0x3a
 2228 01b2 0B       		.uleb128 0xb
 2229 01b3 3B       		.uleb128 0x3b
 2230 01b4 0B       		.uleb128 0xb
 2231 01b5 27       		.uleb128 0x27
 2232 01b6 0C       		.uleb128 0xc
 2233 01b7 11       		.uleb128 0x11
 2234 01b8 01       		.uleb128 0x1
 2235 01b9 12       		.uleb128 0x12
 2236 01ba 01       		.uleb128 0x1
 2237 01bb 40       		.uleb128 0x40
 2238 01bc 0A       		.uleb128 0xa
 2239 01bd 01       		.uleb128 0x1
 2240 01be 13       		.uleb128 0x13
 2241 01bf 00       		.byte	0x0
 2242 01c0 00       		.byte	0x0
 2243 01c1 22       		.uleb128 0x22
 2244 01c2 05       		.uleb128 0x5
 2245 01c3 00       		.byte	0x0
 2246 01c4 03       		.uleb128 0x3
 2247 01c5 0E       		.uleb128 0xe
 2248 01c6 3A       		.uleb128 0x3a
 2249 01c7 0B       		.uleb128 0xb
 2250 01c8 3B       		.uleb128 0x3b
 2251 01c9 0B       		.uleb128 0xb
 2252 01ca 49       		.uleb128 0x49
 2253 01cb 13       		.uleb128 0x13
 2254 01cc 02       		.uleb128 0x2
 2255 01cd 0A       		.uleb128 0xa
 2256 01ce 00       		.byte	0x0
 2257 01cf 00       		.byte	0x0
 2258 01d0 23       		.uleb128 0x23
 2259 01d1 34       		.uleb128 0x34
 2260 01d2 00       		.byte	0x0
 2261 01d3 03       		.uleb128 0x3
ARM GAS  C:\Users\z80\AppData\Local\Temp\cc0Tlqmx.s 			page 41


 2262 01d4 0E       		.uleb128 0xe
 2263 01d5 3A       		.uleb128 0x3a
 2264 01d6 0B       		.uleb128 0xb
 2265 01d7 3B       		.uleb128 0x3b
 2266 01d8 05       		.uleb128 0x5
 2267 01d9 49       		.uleb128 0x49
 2268 01da 13       		.uleb128 0x13
 2269 01db 3F       		.uleb128 0x3f
 2270 01dc 0C       		.uleb128 0xc
 2271 01dd 3C       		.uleb128 0x3c
 2272 01de 0C       		.uleb128 0xc
 2273 01df 00       		.byte	0x0
 2274 01e0 00       		.byte	0x0
 2275 01e1 24       		.uleb128 0x24
 2276 01e2 34       		.uleb128 0x34
 2277 01e3 00       		.byte	0x0
 2278 01e4 03       		.uleb128 0x3
 2279 01e5 0E       		.uleb128 0xe
 2280 01e6 3A       		.uleb128 0x3a
 2281 01e7 0B       		.uleb128 0xb
 2282 01e8 3B       		.uleb128 0x3b
 2283 01e9 0B       		.uleb128 0xb
 2284 01ea 49       		.uleb128 0x49
 2285 01eb 13       		.uleb128 0x13
 2286 01ec 3F       		.uleb128 0x3f
 2287 01ed 0C       		.uleb128 0xc
 2288 01ee 3C       		.uleb128 0x3c
 2289 01ef 0C       		.uleb128 0xc
 2290 01f0 00       		.byte	0x0
 2291 01f1 00       		.byte	0x0
 2292 01f2 25       		.uleb128 0x25
 2293 01f3 01       		.uleb128 0x1
 2294 01f4 01       		.byte	0x1
 2295 01f5 49       		.uleb128 0x49
 2296 01f6 13       		.uleb128 0x13
 2297 01f7 01       		.uleb128 0x1
 2298 01f8 13       		.uleb128 0x13
 2299 01f9 00       		.byte	0x0
 2300 01fa 00       		.byte	0x0
 2301 01fb 26       		.uleb128 0x26
 2302 01fc 21       		.uleb128 0x21
 2303 01fd 00       		.byte	0x0
 2304 01fe 49       		.uleb128 0x49
 2305 01ff 13       		.uleb128 0x13
 2306 0200 2F       		.uleb128 0x2f
 2307 0201 0B       		.uleb128 0xb
 2308 0202 00       		.byte	0x0
 2309 0203 00       		.byte	0x0
 2310 0204 27       		.uleb128 0x27
 2311 0205 34       		.uleb128 0x34
 2312 0206 00       		.byte	0x0
 2313 0207 03       		.uleb128 0x3
 2314 0208 0E       		.uleb128 0xe
 2315 0209 3A       		.uleb128 0x3a
 2316 020a 0B       		.uleb128 0xb
 2317 020b 3B       		.uleb128 0x3b
 2318 020c 0B       		.uleb128 0xb
ARM GAS  C:\Users\z80\AppData\Local\Temp\cc0Tlqmx.s 			page 42


 2319 020d 49       		.uleb128 0x49
 2320 020e 13       		.uleb128 0x13
 2321 020f 02       		.uleb128 0x2
 2322 0210 0A       		.uleb128 0xa
 2323 0211 00       		.byte	0x0
 2324 0212 00       		.byte	0x0
 2325 0213 28       		.uleb128 0x28
 2326 0214 34       		.uleb128 0x34
 2327 0215 00       		.byte	0x0
 2328 0216 03       		.uleb128 0x3
 2329 0217 0E       		.uleb128 0xe
 2330 0218 3A       		.uleb128 0x3a
 2331 0219 0B       		.uleb128 0xb
 2332 021a 3B       		.uleb128 0x3b
 2333 021b 0B       		.uleb128 0xb
 2334 021c 49       		.uleb128 0x49
 2335 021d 13       		.uleb128 0x13
 2336 021e 3F       		.uleb128 0x3f
 2337 021f 0C       		.uleb128 0xc
 2338 0220 02       		.uleb128 0x2
 2339 0221 0A       		.uleb128 0xa
 2340 0222 00       		.byte	0x0
 2341 0223 00       		.byte	0x0
 2342 0224 00       		.byte	0x0
 2343              		.section	.debug_pubnames,"",%progbits
 2344 0000 78000000 		.4byte	0x78
 2345 0004 0200     		.2byte	0x2
 2346 0006 00000000 		.4byte	.Ldebug_info0
 2347 000a 2F0A0000 		.4byte	0xa2f
 2348 000e BF080000 		.4byte	0x8bf
 2349 0012 696E6974 		.ascii	"initAdc\000"
 2349      41646300 
 2350 001a D4080000 		.4byte	0x8d4
 2351 001e 71756572 		.ascii	"queryAdcI\000"
 2351      79416463 
 2351      4900
 2352 0028 24090000 		.4byte	0x924
 2353 002c 61646351 		.ascii	"adcQueue\000"
 2353      75657565 
 2353      00
 2354 0035 42090000 		.4byte	0x942
 2355 0039 73656C65 		.ascii	"selectAdc\000"
 2355      63744164 
 2355      6300
 2356 0043 F8090000 		.4byte	0x9f8
 2357 0047 6164635F 		.ascii	"adc_queue\000"
 2357      71756575 
 2357      6500
 2358 0051 0A0A0000 		.4byte	0xa0a
 2359 0055 6164635F 		.ascii	"adc_queue_buffer\000"
 2359      71756575 
 2359      655F6275 
 2359      66666572 
 2359      00
 2360 0066 1C0A0000 		.4byte	0xa1c
 2361 006a 6164635F 		.ascii	"adc_rx_buffer\000"
 2361      72785F62 
ARM GAS  C:\Users\z80\AppData\Local\Temp\cc0Tlqmx.s 			page 43


 2361      75666665 
 2361      7200
 2362 0078 00000000 		.4byte	0x0
 2363              		.section	.debug_pubtypes,"",%progbits
 2364 0000 1D020000 		.4byte	0x21d
 2365 0004 0200     		.2byte	0x2
 2366 0006 00000000 		.4byte	.Ldebug_info0
 2367 000a 2F0A0000 		.4byte	0xa2f
 2368 000e 30000000 		.4byte	0x30
 2369 0012 73697A65 		.ascii	"size_t\000"
 2369      5F7400
 2370 0019 49000000 		.4byte	0x49
 2371 001d 75696E74 		.ascii	"uint8_t\000"
 2371      385F7400 
 2372 0025 62000000 		.4byte	0x62
 2373 0029 75696E74 		.ascii	"uint16_t\000"
 2373      31365F74 
 2373      00
 2374 0032 74000000 		.4byte	0x74
 2375 0036 696E7433 		.ascii	"int32_t\000"
 2375      325F7400 
 2376 003e 86000000 		.4byte	0x86
 2377 0042 75696E74 		.ascii	"uint32_t\000"
 2377      33325F74 
 2377      00
 2378 004b 9F000000 		.4byte	0x9f
 2379 004f 75696E74 		.ascii	"uint64_t\000"
 2379      36345F74 
 2379      00
 2380 0058 B1000000 		.4byte	0xb1
 2381 005c 746D6F64 		.ascii	"tmode_t\000"
 2381      655F7400 
 2382 0064 BC000000 		.4byte	0xbc
 2383 0068 74737461 		.ascii	"tstate_t\000"
 2383      74655F74 
 2383      00
 2384 0071 C7000000 		.4byte	0xc7
 2385 0075 74707269 		.ascii	"tprio_t\000"
 2385      6F5F7400 
 2386 007d D2000000 		.4byte	0xd2
 2387 0081 6D73675F 		.ascii	"msg_t\000"
 2387      7400
 2388 0087 DD000000 		.4byte	0xdd
 2389 008b 6576656E 		.ascii	"eventmask_t\000"
 2389      746D6173 
 2389      6B5F7400 
 2390 0097 E8000000 		.4byte	0xe8
 2391 009b 73797374 		.ascii	"systime_t\000"
 2391      696D655F 
 2391      7400
 2392 00a5 F3000000 		.4byte	0xf3
 2393 00a9 54687265 		.ascii	"Thread\000"
 2393      616400
 2394 00b0 32020000 		.4byte	0x232
 2395 00b4 54687265 		.ascii	"ThreadsQueue\000"
 2395      61647351 
 2395      75657565 
ARM GAS  C:\Users\z80\AppData\Local\Temp\cc0Tlqmx.s 			page 44


 2395      00
 2396 00c1 54020000 		.4byte	0x254
 2397 00c5 54687265 		.ascii	"ThreadsList\000"
 2397      6164734C 
 2397      69737400 
 2398 00d1 5F020000 		.4byte	0x25f
 2399 00d5 72656761 		.ascii	"regarm_t\000"
 2399      726D5F74 
 2399      00
 2400 00de 6C020000 		.4byte	0x26c
 2401 00e2 73746B61 		.ascii	"stkalign_t\000"
 2401      6C69676E 
 2401      5F7400
 2402 00ed 77020000 		.4byte	0x277
 2403 00f1 696E7463 		.ascii	"intctx\000"
 2403      747800
 2404 00f8 04030000 		.4byte	0x304
 2405 00fc 636F6E74 		.ascii	"context\000"
 2405      65787400 
 2406 0104 34030000 		.4byte	0x334
 2407 0108 4D757465 		.ascii	"Mutex\000"
 2407      7800
 2408 010e 71030000 		.4byte	0x371
 2409 0112 4D757465 		.ascii	"Mutex\000"
 2409      7800
 2410 0118 FE000000 		.4byte	0xfe
 2411 011c 54687265 		.ascii	"Thread\000"
 2411      616400
 2412 0123 CF030000 		.4byte	0x3cf
 2413 0127 47656E65 		.ascii	"GenericQueue\000"
 2413      72696351 
 2413      75657565 
 2413      00
 2414 0134 49040000 		.4byte	0x449
 2415 0138 716E6F74 		.ascii	"qnotify_t\000"
 2415      6966795F 
 2415      7400
 2416 0142 DA030000 		.4byte	0x3da
 2417 0146 47656E65 		.ascii	"GenericQueue\000"
 2417      72696351 
 2417      75657565 
 2417      00
 2418 0153 72040000 		.4byte	0x472
 2419 0157 496E7075 		.ascii	"InputQueue\000"
 2419      74517565 
 2419      756500
 2420 0162 CD040000 		.4byte	0x4cd
 2421 0166 444D415F 		.ascii	"DMA_Channel_TypeDef\000"
 2421      4368616E 
 2421      6E656C5F 
 2421      54797065 
 2421      44656600 
 2422 017a 4C050000 		.4byte	0x54c
 2423 017e 4750494F 		.ascii	"GPIO_TypeDef\000"
 2423      5F547970 
 2423      65446566 
 2423      00
ARM GAS  C:\Users\z80\AppData\Local\Temp\cc0Tlqmx.s 			page 45


 2424 018b 6E060000 		.4byte	0x66e
 2425 018f 5350495F 		.ascii	"SPI_TypeDef\000"
 2425      54797065 
 2425      44656600 
 2426 019b D5060000 		.4byte	0x6d5
 2427 019f 73746D33 		.ascii	"stm32_dma_stream_t\000"
 2427      325F646D 
 2427      615F7374 
 2427      7265616D 
 2427      5F7400
 2428 01b2 E0060000 		.4byte	0x6e0
 2429 01b6 696F706F 		.ascii	"ioportmask_t\000"
 2429      72746D61 
 2429      736B5F74 
 2429      00
 2430 01c3 EB060000 		.4byte	0x6eb
 2431 01c7 696F706F 		.ascii	"ioportid_t\000"
 2431      72746964 
 2431      5F7400
 2432 01d2 2E070000 		.4byte	0x72e
 2433 01d6 73706973 		.ascii	"spistate_t\000"
 2433      74617465 
 2433      5F7400
 2434 01e1 39070000 		.4byte	0x739
 2435 01e5 53504944 		.ascii	"SPIDriver\000"
 2435      72697665 
 2435      7200
 2436 01ef DA070000 		.4byte	0x7da
 2437 01f3 73706963 		.ascii	"spicallback_t\000"
 2437      616C6C62 
 2437      61636B5F 
 2437      7400
 2438 0201 44080000 		.4byte	0x844
 2439 0205 53504943 		.ascii	"SPIConfig\000"
 2439      6F6E6669 
 2439      6700
 2440 020f 45070000 		.4byte	0x745
 2441 0213 53504944 		.ascii	"SPIDriver\000"
 2441      72697665 
 2441      7200
 2442 021d 00000000 		.4byte	0x0
 2443              		.section	.debug_aranges,"",%progbits
 2444 0000 3C000000 		.4byte	0x3c
 2445 0004 0200     		.2byte	0x2
 2446 0006 00000000 		.4byte	.Ldebug_info0
 2447 000a 04       		.byte	0x4
 2448 000b 00       		.byte	0x0
 2449 000c 0000     		.2byte	0x0
 2450 000e 0000     		.2byte	0x0
 2451 0010 00000000 		.4byte	.LFB64
 2452 0014 54000000 		.4byte	.LFE64-.LFB64
 2453 0018 00000000 		.4byte	.LFB62
 2454 001c 78000000 		.4byte	.LFE62-.LFB62
 2455 0020 00000000 		.4byte	.LFB63
 2456 0024 3A000000 		.4byte	.LFE63-.LFB63
 2457 0028 00000000 		.4byte	.LFB65
 2458 002c 0A000000 		.4byte	.LFE65-.LFB65
ARM GAS  C:\Users\z80\AppData\Local\Temp\cc0Tlqmx.s 			page 46


 2459 0030 00000000 		.4byte	.LFB66
 2460 0034 46000000 		.4byte	.LFE66-.LFB66
 2461 0038 00000000 		.4byte	0x0
 2462 003c 00000000 		.4byte	0x0
 2463              		.section	.debug_ranges,"",%progbits
 2464              	.Ldebug_ranges0:
 2465 0000 00000000 		.4byte	.LFB64
 2466 0004 54000000 		.4byte	.LFE64
 2467 0008 00000000 		.4byte	.LFB62
 2468 000c 78000000 		.4byte	.LFE62
 2469 0010 00000000 		.4byte	.LFB63
 2470 0014 3A000000 		.4byte	.LFE63
 2471 0018 00000000 		.4byte	.LFB65
 2472 001c 0A000000 		.4byte	.LFE65
 2473 0020 00000000 		.4byte	.LFB66
 2474 0024 46000000 		.4byte	.LFE66
 2475 0028 00000000 		.4byte	0x0
 2476 002c 00000000 		.4byte	0x0
 2477              		.section	.debug_str,"MS",%progbits,1
 2478              	.LASF105:
 2479 0000 646D6172 		.ascii	"dmarx\000"
 2479      7800
 2480              	.LASF2:
 2481 0006 73697A65 		.ascii	"size_t\000"
 2481      5F7400
 2482              	.LASF49:
 2483 000d 7264796D 		.ascii	"rdymsg\000"
 2483      736700
 2484              	.LASF123:
 2485 0014 68735F73 		.ascii	"hs_spicfg\000"
 2485      70696366 
 2485      6700
 2486              	.LASF121:
 2487 001e 6164635F 		.ascii	"adc_queue_buffer\000"
 2487      71756575 
 2487      655F6275 
 2487      66666572 
 2487      00
 2488              	.LASF97:
 2489 002f 5350495F 		.ascii	"SPI_ACTIVE\000"
 2489      41435449 
 2489      564500
 2490              	.LASF92:
 2491 003a 696F706F 		.ascii	"ioportmask_t\000"
 2491      72746D61 
 2491      736B5F74 
 2491      00
 2492              	.LASF112:
 2493 0047 73737061 		.ascii	"sspad\000"
 2493      6400
 2494              	.LASF14:
 2495 004d 6C6F6E67 		.ascii	"long long unsigned int\000"
 2495      206C6F6E 
 2495      6720756E 
 2495      7369676E 
 2495      65642069 
 2496              	.LASF75:
ARM GAS  C:\Users\z80\AppData\Local\Temp\cc0Tlqmx.s 			page 47


 2497 0064 43524350 		.ascii	"CRCPR\000"
 2497      5200
 2498              	.LASF50:
 2499 006a 65786974 		.ascii	"exitcode\000"
 2499      636F6465 
 2499      00
 2500              	.LASF90:
 2501 0073 76656374 		.ascii	"vector\000"
 2501      6F7200
 2502              	.LASF100:
 2503 007a 53504944 		.ascii	"SPIDriver\000"
 2503      72697665 
 2503      7200
 2504              	.LASF111:
 2505 0084 7373706F 		.ascii	"ssport\000"
 2505      727400
 2506              	.LASF118:
 2507 008b 49544D5F 		.ascii	"ITM_RxBuffer\000"
 2507      52784275 
 2507      66666572 
 2507      00
 2508              	.LASF24:
 2509 0098 705F7072 		.ascii	"p_prio\000"
 2509      696F00
 2510              	.LASF129:
 2511 009f 61646351 		.ascii	"adcQueue\000"
 2511      75657565 
 2511      00
 2512              	.LASF55:
 2513 00a8 715F7761 		.ascii	"q_waiting\000"
 2513      6974696E 
 2513      6700
 2514              	.LASF12:
 2515 00b2 6C6F6E67 		.ascii	"long long int\000"
 2515      206C6F6E 
 2515      6720696E 
 2515      7400
 2516              	.LASF1:
 2517 00c0 7369676E 		.ascii	"signed char\000"
 2517      65642063 
 2517      68617200 
 2518              	.LASF125:
 2519 00cc 2E2F7372 		.ascii	"./src/adc_ctrl.c\000"
 2519      632F6164 
 2519      635F6374 
 2519      726C2E63 
 2519      00
 2520              	.LASF95:
 2521 00dd 5350495F 		.ascii	"SPI_STOP\000"
 2521      53544F50 
 2521      00
 2522              	.LASF81:
 2523 00e6 49325343 		.ascii	"I2SCFGR\000"
 2523      46475200 
 2524              	.LASF46:
 2525 00ee 6D5F7175 		.ascii	"m_queue\000"
 2525      65756500 
ARM GAS  C:\Users\z80\AppData\Local\Temp\cc0Tlqmx.s 			page 48


 2526              	.LASF126:
 2527 00f6 433A5C70 		.ascii	"C:\\projects\\digitizer.git\\firmware\\digitizer\000"
 2527      726F6A65 
 2527      6374735C 
 2527      64696769 
 2527      74697A65 
 2528              	.LASF101:
 2529 0123 73746174 		.ascii	"state\000"
 2529      6500
 2530              	.LASF9:
 2531 0129 6C6F6E67 		.ascii	"long int\000"
 2531      20696E74 
 2531      00
 2532              	.LASF16:
 2533 0132 74737461 		.ascii	"tstate_t\000"
 2533      74655F74 
 2533      00
 2534              	.LASF103:
 2535 013b 74687265 		.ascii	"thread\000"
 2535      616400
 2536              	.LASF57:
 2537 0142 715F6275 		.ascii	"q_buffer\000"
 2537      66666572 
 2537      00
 2538              	.LASF59:
 2539 014b 715F7772 		.ascii	"q_wrptr\000"
 2539      70747200 
 2540              	.LASF32:
 2541 0153 705F7469 		.ascii	"p_time\000"
 2541      6D6500
 2542              	.LASF26:
 2543 015a 705F6E65 		.ascii	"p_newer\000"
 2543      77657200 
 2544              	.LASF110:
 2545 0162 656E645F 		.ascii	"end_cb\000"
 2545      636200
 2546              	.LASF107:
 2547 0169 7278646D 		.ascii	"rxdmamode\000"
 2547      616D6F64 
 2547      6500
 2548              	.LASF106:
 2549 0173 646D6174 		.ascii	"dmatx\000"
 2549      7800
 2550              	.LASF41:
 2551 0179 72656761 		.ascii	"regarm_t\000"
 2551      726D5F74 
 2551      00
 2552              	.LASF89:
 2553 0182 73656C66 		.ascii	"selfindex\000"
 2553      696E6465 
 2553      7800
 2554              	.LASF109:
 2555 018c 73706963 		.ascii	"spicallback_t\000"
 2555      616C6C62 
 2555      61636B5F 
 2555      7400
 2556              	.LASF114:
ARM GAS  C:\Users\z80\AppData\Local\Temp\cc0Tlqmx.s 			page 49


 2557 019a 71756572 		.ascii	"queryAdcI\000"
 2557      79416463 
 2557      4900
 2558              	.LASF127:
 2559 01a4 6F6E5370 		.ascii	"onSpiComplete\000"
 2559      69436F6D 
 2559      706C6574 
 2559      6500
 2560              	.LASF29:
 2561 01b2 705F7374 		.ascii	"p_stklimit\000"
 2561      6B6C696D 
 2561      697400
 2562              	.LASF0:
 2563 01bd 756E7369 		.ascii	"unsigned int\000"
 2563      676E6564 
 2563      20696E74 
 2563      00
 2564              	.LASF6:
 2565 01ca 75696E74 		.ascii	"uint16_t\000"
 2565      31365F74 
 2565      00
 2566              	.LASF65:
 2567 01d3 43504152 		.ascii	"CPAR\000"
 2567      00
 2568              	.LASF34:
 2569 01d8 705F6D73 		.ascii	"p_msgqueue\000"
 2569      67717565 
 2569      756500
 2570              	.LASF70:
 2571 01e3 4750494F 		.ascii	"GPIO_TypeDef\000"
 2571      5F547970 
 2571      65446566 
 2571      00
 2572              	.LASF69:
 2573 01f0 4C434B52 		.ascii	"LCKR\000"
 2573      00
 2574              	.LASF88:
 2575 01f5 69736869 		.ascii	"ishift\000"
 2575      667400
 2576              	.LASF7:
 2577 01fc 73686F72 		.ascii	"short unsigned int\000"
 2577      7420756E 
 2577      7369676E 
 2577      65642069 
 2577      6E7400
 2578              	.LASF18:
 2579 020f 6D73675F 		.ascii	"msg_t\000"
 2579      7400
 2580              	.LASF15:
 2581 0215 746D6F64 		.ascii	"tmode_t\000"
 2581      655F7400 
 2582              	.LASF40:
 2583 021d 54687265 		.ascii	"ThreadsList\000"
 2583      6164734C 
 2583      69737400 
 2584              	.LASF19:
 2585 0229 6576656E 		.ascii	"eventmask_t\000"
ARM GAS  C:\Users\z80\AppData\Local\Temp\cc0Tlqmx.s 			page 50


 2585      746D6173 
 2585      6B5F7400 
 2586              	.LASF63:
 2587 0235 496E7075 		.ascii	"InputQueue\000"
 2587      74517565 
 2587      756500
 2588              	.LASF62:
 2589 0240 716E6F74 		.ascii	"qnotify_t\000"
 2589      6966795F 
 2589      7400
 2590              	.LASF54:
 2591 024a 47656E65 		.ascii	"GenericQueue\000"
 2591      72696351 
 2591      75657565 
 2591      00
 2592              	.LASF42:
 2593 0257 73746B61 		.ascii	"stkalign_t\000"
 2593      6C69676E 
 2593      5F7400
 2594              	.LASF21:
 2595 0262 54687265 		.ascii	"Thread\000"
 2595      616400
 2596              	.LASF128:
 2597 0269 696E6974 		.ascii	"initAdc\000"
 2597      41646300 
 2598              	.LASF83:
 2599 0271 49325350 		.ascii	"I2SPR\000"
 2599      5200
 2600              	.LASF56:
 2601 0277 715F636F 		.ascii	"q_counter\000"
 2601      756E7465 
 2601      7200
 2602              	.LASF45:
 2603 0281 4D757465 		.ascii	"Mutex\000"
 2603      7800
 2604              	.LASF13:
 2605 0287 75696E74 		.ascii	"uint64_t\000"
 2605      36345F74 
 2605      00
 2606              	.LASF27:
 2607 0290 705F6F6C 		.ascii	"p_older\000"
 2607      64657200 
 2608              	.LASF39:
 2609 0298 54687265 		.ascii	"ThreadsQueue\000"
 2609      61647351 
 2609      75657565 
 2609      00
 2610              	.LASF108:
 2611 02a5 7478646D 		.ascii	"txdmamode\000"
 2611      616D6F64 
 2611      6500
 2612              	.LASF67:
 2613 02af 444D415F 		.ascii	"DMA_Channel_TypeDef\000"
 2613      4368616E 
 2613      6E656C5F 
 2613      54797065 
 2613      44656600 
ARM GAS  C:\Users\z80\AppData\Local\Temp\cc0Tlqmx.s 			page 51


 2614              	.LASF79:
 2615 02c3 54584352 		.ascii	"TXCRCR\000"
 2615      435200
 2616              	.LASF71:
 2617 02ca 52455345 		.ascii	"RESERVED0\000"
 2617      52564544 
 2617      3000
 2618              	.LASF72:
 2619 02d4 52455345 		.ascii	"RESERVED1\000"
 2619      52564544 
 2619      3100
 2620              	.LASF73:
 2621 02de 52455345 		.ascii	"RESERVED2\000"
 2621      52564544 
 2621      3200
 2622              	.LASF74:
 2623 02e8 52455345 		.ascii	"RESERVED3\000"
 2623      52564544 
 2623      3300
 2624              	.LASF76:
 2625 02f2 52455345 		.ascii	"RESERVED4\000"
 2625      52564544 
 2625      3400
 2626              	.LASF23:
 2627 02fc 705F7072 		.ascii	"p_prev\000"
 2627      657600
 2628              	.LASF80:
 2629 0303 52455345 		.ascii	"RESERVED6\000"
 2629      52564544 
 2629      3600
 2630              	.LASF82:
 2631 030d 52455345 		.ascii	"RESERVED7\000"
 2631      52564544 
 2631      3700
 2632              	.LASF84:
 2633 0317 52455345 		.ascii	"RESERVED8\000"
 2633      52564544 
 2633      3800
 2634              	.LASF17:
 2635 0321 74707269 		.ascii	"tprio_t\000"
 2635      6F5F7400 
 2636              	.LASF60:
 2637 0329 715F7264 		.ascii	"q_rdptr\000"
 2637      70747200 
 2638              	.LASF104:
 2639 0331 6D757465 		.ascii	"mutex\000"
 2639      7800
 2640              	.LASF8:
 2641 0337 696E7433 		.ascii	"int32_t\000"
 2641      325F7400 
 2642              	.LASF4:
 2643 033f 756E7369 		.ascii	"unsigned char\000"
 2643      676E6564 
 2643      20636861 
 2643      7200
 2644              	.LASF91:
 2645 034d 73746D33 		.ascii	"stm32_dma_stream_t\000"
ARM GAS  C:\Users\z80\AppData\Local\Temp\cc0Tlqmx.s 			page 52


 2645      325F646D 
 2645      615F7374 
 2645      7265616D 
 2645      5F7400
 2646              	.LASF119:
 2647 0360 53504944 		.ascii	"SPID1\000"
 2647      3100
 2648              	.LASF120:
 2649 0366 6164635F 		.ascii	"adc_queue\000"
 2649      71756575 
 2649      6500
 2650              	.LASF37:
 2651 0370 705F6D74 		.ascii	"p_mtxlist\000"
 2651      786C6973 
 2651      7400
 2652              	.LASF5:
 2653 037a 73686F72 		.ascii	"short int\000"
 2653      7420696E 
 2653      7400
 2654              	.LASF30:
 2655 0384 705F7374 		.ascii	"p_state\000"
 2655      61746500 
 2656              	.LASF52:
 2657 038c 65776D61 		.ascii	"ewmask\000"
 2657      736B00
 2658              	.LASF22:
 2659 0393 705F6E65 		.ascii	"p_next\000"
 2659      787400
 2660              	.LASF31:
 2661 039a 705F666C 		.ascii	"p_flags\000"
 2661      61677300 
 2662              	.LASF122:
 2663 03a2 6164635F 		.ascii	"adc_rx_buffer\000"
 2663      72785F62 
 2663      75666665 
 2663      7200
 2664              	.LASF86:
 2665 03b0 6368616E 		.ascii	"channel\000"
 2665      6E656C00 
 2666              	.LASF36:
 2667 03b8 705F6570 		.ascii	"p_epending\000"
 2667      656E6469 
 2667      6E6700
 2668              	.LASF87:
 2669 03c3 69666372 		.ascii	"ifcr\000"
 2669      00
 2670              	.LASF78:
 2671 03c8 52455345 		.ascii	"RESERVED5\000"
 2671      52564544 
 2671      3500
 2672              	.LASF10:
 2673 03d2 75696E74 		.ascii	"uint32_t\000"
 2673      33325F74 
 2673      00
 2674              	.LASF77:
 2675 03db 52584352 		.ascii	"RXCRCR\000"
 2675      435200
ARM GAS  C:\Users\z80\AppData\Local\Temp\cc0Tlqmx.s 			page 53


 2676              	.LASF11:
 2677 03e2 6C6F6E67 		.ascii	"long unsigned int\000"
 2677      20756E73 
 2677      69676E65 
 2677      6420696E 
 2677      7400
 2678              	.LASF85:
 2679 03f4 5350495F 		.ascii	"SPI_TypeDef\000"
 2679      54797065 
 2679      44656600 
 2680              	.LASF53:
 2681 0400 63686172 		.ascii	"char\000"
 2681      00
 2682              	.LASF98:
 2683 0405 5350495F 		.ascii	"SPI_COMPLETE\000"
 2683      434F4D50 
 2683      4C455445 
 2683      00
 2684              	.LASF102:
 2685 0412 636F6E66 		.ascii	"config\000"
 2685      696700
 2686              	.LASF117:
 2687 0419 696E6465 		.ascii	"index\000"
 2687      7800
 2688              	.LASF99:
 2689 041f 73706973 		.ascii	"spistate_t\000"
 2689      74617465 
 2689      5F7400
 2690              	.LASF48:
 2691 042a 6D5F6E65 		.ascii	"m_next\000"
 2691      787400
 2692              	.LASF20:
 2693 0431 73797374 		.ascii	"systime_t\000"
 2693      696D655F 
 2693      7400
 2694              	.LASF38:
 2695 043b 705F7265 		.ascii	"p_realprio\000"
 2695      616C7072 
 2695      696F00
 2696              	.LASF93:
 2697 0446 696F706F 		.ascii	"ioportid_t\000"
 2697      72746964 
 2697      5F7400
 2698              	.LASF44:
 2699 0451 636F6E74 		.ascii	"context\000"
 2699      65787400 
 2700              	.LASF43:
 2701 0459 696E7463 		.ascii	"intctx\000"
 2701      747800
 2702              	.LASF96:
 2703 0460 5350495F 		.ascii	"SPI_READY\000"
 2703      52454144 
 2703      5900
 2704              	.LASF94:
 2705 046a 5350495F 		.ascii	"SPI_UNINIT\000"
 2705      554E494E 
 2705      495400
ARM GAS  C:\Users\z80\AppData\Local\Temp\cc0Tlqmx.s 			page 54


 2706              	.LASF58:
 2707 0475 715F746F 		.ascii	"q_top\000"
 2707      7000
 2708              	.LASF68:
 2709 047b 42535252 		.ascii	"BSRR\000"
 2709      00
 2710              	.LASF116:
 2711 0480 73706964 		.ascii	"spid\000"
 2711      00
 2712              	.LASF64:
 2713 0485 434E4454 		.ascii	"CNDTR\000"
 2713      5200
 2714              	.LASF66:
 2715 048b 434D4152 		.ascii	"CMAR\000"
 2715      00
 2716              	.LASF61:
 2717 0490 715F6E6F 		.ascii	"q_notify\000"
 2717      74696679 
 2717      00
 2718              	.LASF3:
 2719 0499 75696E74 		.ascii	"uint8_t\000"
 2719      385F7400 
 2720              	.LASF124:
 2721 04a1 474E5520 		.ascii	"GNU C 4.5.0\000"
 2721      4320342E 
 2721      352E3000 
 2722              	.LASF51:
 2723 04ad 77746F62 		.ascii	"wtobjp\000"
 2723      6A7000
 2724              	.LASF28:
 2725 04b4 705F6E61 		.ascii	"p_name\000"
 2725      6D6500
 2726              	.LASF113:
 2727 04bb 53504943 		.ascii	"SPIConfig\000"
 2727      6F6E6669 
 2727      6700
 2728              	.LASF35:
 2729 04c5 705F6D73 		.ascii	"p_msg\000"
 2729      6700
 2730              	.LASF47:
 2731 04cb 6D5F6F77 		.ascii	"m_owner\000"
 2731      6E657200 
 2732              	.LASF25:
 2733 04d3 705F6374 		.ascii	"p_ctx\000"
 2733      7800
 2734              	.LASF33:
 2735 04d9 705F7761 		.ascii	"p_waiting\000"
 2735      6974696E 
 2735      6700
 2736              	.LASF115:
 2737 04e3 73656C65 		.ascii	"selectAdc\000"
 2737      63744164 
 2737      6300
 2738              		.ident	"GCC: (GNU) 4.5.0"
ARM GAS  C:\Users\z80\AppData\Local\Temp\cc0Tlqmx.s 			page 55


DEFINED SYMBOLS
                            *ABS*:00000000 adc_ctrl.c
C:\Users\z80\AppData\Local\Temp\cc0Tlqmx.s:24     .text.onSpiComplete:00000000 $t
C:\Users\z80\AppData\Local\Temp\cc0Tlqmx.s:29     .text.onSpiComplete:00000000 onSpiComplete
C:\Users\z80\AppData\Local\Temp\cc0Tlqmx.s:100    .text.onSpiComplete:00000048 $d
C:\Users\z80\AppData\Local\Temp\cc0Tlqmx.s:107    .text.initAdc:00000000 $t
C:\Users\z80\AppData\Local\Temp\cc0Tlqmx.s:113    .text.initAdc:00000000 initAdc
C:\Users\z80\AppData\Local\Temp\cc0Tlqmx.s:330    .bss.adc_queue:00000000 .LANCHOR0
C:\Users\z80\AppData\Local\Temp\cc0Tlqmx.s:354    .bss.adc_queue_buffer:00000000 .LANCHOR2
C:\Users\z80\AppData\Local\Temp\cc0Tlqmx.s:337    .rodata.hs_spicfg:00000000 .LANCHOR3
C:\Users\z80\AppData\Local\Temp\cc0Tlqmx.s:185    .text.queryAdcI:00000000 $t
C:\Users\z80\AppData\Local\Temp\cc0Tlqmx.s:191    .text.queryAdcI:00000000 queryAdcI
C:\Users\z80\AppData\Local\Temp\cc0Tlqmx.s:347    .bss.adc_rx_buffer:00000000 .LANCHOR1
C:\Users\z80\AppData\Local\Temp\cc0Tlqmx.s:246    .text.adcQueue:00000000 $t
C:\Users\z80\AppData\Local\Temp\cc0Tlqmx.s:252    .text.adcQueue:00000000 adcQueue
C:\Users\z80\AppData\Local\Temp\cc0Tlqmx.s:268    .text.selectAdc:00000000 $t
C:\Users\z80\AppData\Local\Temp\cc0Tlqmx.s:274    .text.selectAdc:00000000 selectAdc
C:\Users\z80\AppData\Local\Temp\cc0Tlqmx.s:333    .bss.adc_queue:00000000 adc_queue
C:\Users\z80\AppData\Local\Temp\cc0Tlqmx.s:357    .bss.adc_queue_buffer:00000000 adc_queue_buffer
C:\Users\z80\AppData\Local\Temp\cc0Tlqmx.s:350    .bss.adc_rx_buffer:00000000 adc_rx_buffer
C:\Users\z80\AppData\Local\Temp\cc0Tlqmx.s:329    .bss.adc_queue:00000000 $d
C:\Users\z80\AppData\Local\Temp\cc0Tlqmx.s:336    .rodata.hs_spicfg:00000000 $d
C:\Users\z80\AppData\Local\Temp\cc0Tlqmx.s:340    .rodata.hs_spicfg:00000000 hs_spicfg
C:\Users\z80\AppData\Local\Temp\cc0Tlqmx.s:346    .bss.adc_rx_buffer:00000000 $d
C:\Users\z80\AppData\Local\Temp\cc0Tlqmx.s:353    .bss.adc_queue_buffer:00000000 $d
                     .debug_frame:00000010 $d
C:\Users\z80\AppData\Local\Temp\cc0Tlqmx.s:106    .text.onSpiComplete:00000054 $t

UNDEFINED SYMBOLS
dbg_check_lock_from_isr
spi_lld_unselect
chIQPutI
dbg_check_unlock_from_isr
SPID1
chIQInit
_pal_lld_setgroupmode
spiStart
spi_lld_select
spi_lld_receive
