ARM GAS  C:\Users\z80\AppData\Local\Temp\cctXg9Kf.s 			page 1


   1              		.syntax unified
   2              		.cpu cortex-m3
   3              		.fpu softvfp
   4              		.eabi_attribute 20, 1
   5              		.eabi_attribute 21, 1
   6              		.eabi_attribute 23, 3
   7              		.eabi_attribute 24, 1
   8              		.eabi_attribute 25, 1
   9              		.eabi_attribute 26, 1
  10              		.eabi_attribute 30, 2
  11              		.eabi_attribute 34, 1
  12              		.eabi_attribute 18, 4
  13              		.thumb
  14              		.file	"adc_ctrl.c"
  15              		.text
  16              	.Ltext0:
  17              		.cfi_sections	.debug_frame
  18              		.section	.text.onSpiComplete,"ax",%progbits
  19              		.align	2
  20              		.p2align 4,,15
  21              		.thumb
  22              		.thumb_func
  23              		.type	onSpiComplete, %function
  24              	onSpiComplete:
  25              	.LFB64:
  26              		.file 1 "./src/adc_ctrl.c"
  27              		.loc 1 73 0
  28              		.cfi_startproc
  29              		@ args = 0, pretend = 0, frame = 0
  30              		@ frame_needed = 0, uses_anonymous_args = 0
  31              	.LVL0:
  32 0000 2DE9F047 		push	{r4, r5, r6, r7, r8, r9, sl, lr}
  33              	.LCFI0:
  34              		.cfi_def_cfa_offset 32
  35              		.cfi_offset 14, -4
  36              		.cfi_offset 10, -8
  37              		.cfi_offset 9, -12
  38              		.cfi_offset 8, -16
  39              		.cfi_offset 7, -20
  40              		.cfi_offset 6, -24
  41              		.cfi_offset 5, -28
  42              		.cfi_offset 4, -32
  43              		.loc 1 75 0
  44 0004 4FF4406E 		mov	lr, #3072
  45 0008 C4F2010E 		movt	lr, 16385
  46 000c 4FF48075 		mov	r5, #256
  47 0010 CEF81050 		str	r5, [lr, #16]
  48              	.LBB21:
  49              		.loc 1 76 0
  50 0014 2023     		movs	r3, #32
  51              	.LVL1:
  52              	@ 76 "./src/adc_ctrl.c" 1
  53 0016 83F31188 		msr     BASEPRI, r3
  54              	@ 0 "" 2
  55              	.LVL2:
  56              		.thumb
  57              	.LBE21:
ARM GAS  C:\Users\z80\AppData\Local\Temp\cctXg9Kf.s 			page 2


  58              		.loc 1 78 0
  59 001a 40F2000A 		movw	sl, #:lower16:.LANCHOR0
  60 001e C0F2000A 		movt	sl, #:upper16:.LANCHOR0
  61              		.loc 1 76 0
  62 0022 FFF7FEFF 		bl	dbg_check_lock_from_isr
  63              	.LVL3:
  64              		.loc 1 78 0
  65 0026 DAF80050 		ldr	r5, [sl, #0]
  66              	.LVL4:
  67              	.LBB22:
  68              	.LBB23:
  69              		.loc 1 170 0
  70 002a 4FF40069 		mov	r9, #2048
  71              	.LBE23:
  72              	.LBE22:
  73              		.loc 1 79 0
  74 002e 6A1C     		adds	r2, r5, #1
  75 0030 D617     		asrs	r6, r2, #31
  76 0032 B70F     		lsrs	r7, r6, #30
  77 0034 D019     		adds	r0, r2, r7
  78 0036 00F00303 		and	r3, r0, #3
  79 003a DC1B     		subs	r4, r3, r7
  80              	.LBB27:
  81              	.LBB24:
  82              		.loc 1 170 0
  83 003c 0121     		movs	r1, #1
  84 003e C4F20109 		movt	r9, 16385
  85              		.loc 1 169 0
  86 0042 E007     		lsls	r0, r4, #31
  87              		.loc 1 175 0
  88 0044 4FF40066 		mov	r6, #2048
  89              	.LBE24:
  90              	.LBE27:
  91              		.loc 1 79 0
  92 0048 CAF80040 		str	r4, [sl, #0]
  93              	.LVL5:
  94              	.LBB28:
  95              	.LBB25:
  96              		.loc 1 175 0
  97 004c 4FF00202 		mov	r2, #2
  98              		.loc 1 170 0
  99 0050 4CBF     		ite	mi
 100 0052 C9F81010 		strmi	r1, [r9, #16]
 101              		.loc 1 172 0
 102 0056 C9F81410 		strpl	r1, [r9, #20]
 103              		.loc 1 175 0
 104 005a C4F20106 		movt	r6, 16385
 105              		.loc 1 174 0
 106 005e 14F0020F 		tst	r4, #2
 107              	.LBE25:
 108              	.LBE28:
 109              		.loc 1 82 0
 110 0062 40F20000 		movw	r0, #:lower16:SPID1
 111              	.LBB29:
 112              	.LBB26:
 113              		.loc 1 175 0
 114 0066 14BF     		ite	ne
ARM GAS  C:\Users\z80\AppData\Local\Temp\cctXg9Kf.s 			page 3


 115 0068 3261     		strne	r2, [r6, #16]
 116              		.loc 1 177 0
 117 006a 7261     		streq	r2, [r6, #20]
 118              	.LBE26:
 119              	.LBE29:
 120              		.loc 1 82 0
 121 006c C0F20000 		movt	r0, #:upper16:SPID1
 122 0070 FFF7FEFF 		bl	spi_lld_unselect
 123              	.LVL6:
 124              	.LBB30:
 125              	.LBB31:
 126              		.loc 1 239 0
 127 0074 40F20002 		movw	r2, #:lower16:.LANCHOR3
 128              	.LBE31:
 129              	.LBE30:
 130              		.loc 1 89 0
 131 0078 5FFA85FE 		uxtb	lr, r5
 132              	.LBB46:
 133              	.LBB37:
 134              		.loc 1 239 0
 135 007c C0F20002 		movt	r2, #:upper16:.LANCHOR3
 136              	.LBE37:
 137              	.LBE46:
 138              		.loc 1 84 0
 139 0080 40F20008 		movw	r8, #:lower16:.LANCHOR1
 140 0084 C0F20008 		movt	r8, #:upper16:.LANCHOR1
 141              	.LBB47:
 142              	.LBB38:
 143              		.loc 1 239 0
 144 0088 12F80E40 		ldrb	r4, [r2, lr]	@ zero_extendqisi2
 145              	.LVL7:
 146              	.LBE38:
 147              	.LBE47:
 148              		.loc 1 85 0
 149 008c 98F80100 		ldrb	r0, [r8, #1]	@ zero_extendqisi2
 150              	.LBB48:
 151              	.LBB39:
 152              		.loc 1 240 0
 153 0090 46F26767 		movw	r7, #26215
 154 0094 661C     		adds	r6, r4, #1
 155              	.LBE39:
 156              	.LBE48:
 157              		.loc 1 84 0
 158 0096 98F802C0 		ldrb	ip, [r8, #2]	@ zero_extendqisi2
 159              		.loc 1 86 0
 160 009a 98F80030 		ldrb	r3, [r8, #0]	@ zero_extendqisi2
 161              	.LBB49:
 162              	.LBB40:
 163              		.loc 1 240 0
 164 009e C6F26667 		movt	r7, 26214
 165              	.LBE40:
 166              	.LBE49:
 167              		.loc 1 85 0
 168 00a2 0102     		lsls	r1, r0, #8
 169              	.LBB50:
 170              	.LBB41:
 171              		.loc 1 240 0
ARM GAS  C:\Users\z80\AppData\Local\Temp\cctXg9Kf.s 			page 4


 172 00a4 87FB0607 		smull	r0, r7, r7, r6
 173              	.LBE41:
 174              	.LBE50:
 175              		.loc 1 84 0
 176 00a8 0CEB010A 		add	sl, ip, r1
 177              		.loc 1 86 0
 178 00ac 1B04     		lsls	r3, r3, #16
 179              	.LBB51:
 180              	.LBB42:
 181              		.loc 1 237 0
 182 00ae 0EEB8E00 		add	r0, lr, lr, lsl #2
 183 00b2 40F20001 		movw	r1, #:lower16:.LANCHOR2
 184 00b6 8000     		lsls	r0, r0, #2
 185              	.LBE42:
 186              	.LBE51:
 187              		.loc 1 84 0
 188 00b8 0AEB0309 		add	r9, sl, r3
 189              	.LVL8:
 190              	.LBB52:
 191              	.LBB43:
 192              		.loc 1 237 0
 193 00bc C0F20001 		movt	r1, #:upper16:.LANCHOR2
 194 00c0 0B18     		adds	r3, r1, r0
 195              	.LVL9:
 196              	.LBE43:
 197              	.LBE52:
 198              		.loc 1 87 0
 199 00c2 C9F34F08 		ubfx	r8, r9, #1, #16
 200              	.LBB53:
 201              	.LBB44:
 202              		.loc 1 239 0
 203 00c6 43F82480 		str	r8, [r3, r4, lsl #2]
 204              		.loc 1 240 0
 205 00ca 7F08     		lsrs	r7, r7, #1
 206              		.loc 1 242 0
 207 00cc 40F20004 		movw	r4, #:lower16:.LANCHOR4
 208 00d0 C0F20004 		movt	r4, #:upper16:.LANCHOR4
 209              		.loc 1 240 0
 210 00d4 07EB870A 		add	sl, r7, r7, lsl #2
 211              		.loc 1 245 0
 212 00d8 51F80090 		ldr	r9, [r1, r0]
 213 00dc DF68     		ldr	r7, [r3, #12]
 214 00de D3F80480 		ldr	r8, [r3, #4]
 215 00e2 D3F808C0 		ldr	ip, [r3, #8]
 216              		.loc 1 240 0
 217 00e6 CAEB0606 		rsb	r6, sl, r6
 218              		.loc 1 242 0
 219 00ea 2318     		adds	r3, r4, r0
 220              	.LVL10:
 221              		.loc 1 245 0
 222 00ec 0021     		movs	r1, #0
 223              	.LVL11:
 224 00ee 44F80090 		str	r9, [r4, r0]
 225              	.LVL12:
 226              		.loc 1 240 0
 227 00f2 02F80E60 		strb	r6, [r2, lr]
 228              		.loc 1 245 0
ARM GAS  C:\Users\z80\AppData\Local\Temp\cctXg9Kf.s 			page 5


 229 00f6 DF60     		str	r7, [r3, #12]
 230 00f8 C3F80480 		str	r8, [r3, #4]
 231              	.LVL13:
 232 00fc C3F808C0 		str	ip, [r3, #8]
 233              	.LVL14:
 234 0100 0F46     		mov	r7, r1
 235              	.LVL15:
 236              	.L8:
 237              		.loc 1 248 0
 238 0102 7C1C     		adds	r4, r7, #1
 239 0104 E7B2     		uxtb	r7, r4
 240              	.LVL16:
 241              		.loc 1 250 0
 242 0106 5A58     		ldr	r2, [r3, r1]
 243 0108 53F82700 		ldr	r0, [r3, r7, lsl #2]
 244 010c 07F00104 		and	r4, r7, #1
 245 0110 8242     		cmp	r2, r0
 246 0112 02DA     		bge	.L12
 247              	.LVL17:
 248              	.LBB32:
 249              		.loc 1 253 0
 250 0114 5850     		str	r0, [r3, r1]
 251              		.loc 1 254 0
 252 0116 43F82720 		str	r2, [r3, r7, lsl #2]
 253              	.LVL18:
 254              	.L12:
 255              	.LBE32:
 256              		.loc 1 248 0
 257 011a 7A1C     		adds	r2, r7, #1
 258 011c D2B2     		uxtb	r2, r2
 259 011e 042A     		cmp	r2, #4
 260 0120 23D8     		bhi	.L22
 261 0122 5CB1     		cbz	r4, .L7
 262              		.loc 1 250 0
 263 0124 53F82240 		ldr	r4, [r3, r2, lsl #2]
 264 0128 5858     		ldr	r0, [r3, r1]
 265 012a A042     		cmp	r0, r4
 266              	.LBB33:
 267              		.loc 1 253 0
 268 012c BCBF     		itt	lt
 269 012e 5C50     		strlt	r4, [r3, r1]
 270              		.loc 1 254 0
 271 0130 43F82200 		strlt	r0, [r3, r2, lsl #2]
 272              	.LBE33:
 273              		.loc 1 248 0
 274 0134 541C     		adds	r4, r2, #1
 275 0136 E2B2     		uxtb	r2, r4
 276 0138 042A     		cmp	r2, #4
 277 013a 16D8     		bhi	.L22
 278              	.LVL19:
 279              	.L7:
 280              		.loc 1 250 0
 281 013c 53F82260 		ldr	r6, [r3, r2, lsl #2]
 282 0140 5C58     		ldr	r4, [r3, r1]
 283              		.loc 1 248 0
 284 0142 501C     		adds	r0, r2, #1
 285              		.loc 1 250 0
ARM GAS  C:\Users\z80\AppData\Local\Temp\cctXg9Kf.s 			page 6


 286 0144 B442     		cmp	r4, r6
 287              	.LBB34:
 288              		.loc 1 253 0
 289 0146 B8BF     		it	lt
 290 0148 5E50     		strlt	r6, [r3, r1]
 291              	.LBE34:
 292              		.loc 1 248 0
 293 014a C0B2     		uxtb	r0, r0
 294              	.LVL20:
 295              	.LBB35:
 296              		.loc 1 254 0
 297 014c B8BF     		it	lt
 298 014e 43F82240 		strlt	r4, [r3, r2, lsl #2]
 299              	.LBE35:
 300              		.loc 1 250 0
 301 0152 5A58     		ldr	r2, [r3, r1]
 302 0154 53F82040 		ldr	r4, [r3, r0, lsl #2]
 303 0158 A242     		cmp	r2, r4
 304 015a 02DA     		bge	.L17
 305              	.LBB36:
 306              		.loc 1 253 0
 307 015c 5C50     		str	r4, [r3, r1]
 308              		.loc 1 254 0
 309 015e 43F82020 		str	r2, [r3, r0, lsl #2]
 310              	.L17:
 311              	.LBE36:
 312              		.loc 1 248 0
 313 0162 421C     		adds	r2, r0, #1
 314 0164 D2B2     		uxtb	r2, r2
 315 0166 042A     		cmp	r2, #4
 316 0168 E8D9     		bls	.L7
 317              	.LVL21:
 318              	.L22:
 319 016a 0431     		adds	r1, r1, #4
 320              		.loc 1 246 0
 321 016c 042F     		cmp	r7, #4
 322 016e C8D1     		bne	.L8
 323              		.loc 1 258 0
 324 0170 40F20004 		movw	r4, #:lower16:.LANCHOR5
 325 0174 9968     		ldr	r1, [r3, #8]
 326 0176 C0F20004 		movt	r4, #:upper16:.LANCHOR5
 327              	.LBE44:
 328              	.LBE53:
 329              		.loc 1 96 0
 330 017a 032D     		cmp	r5, #3
 331              	.LBB54:
 332              	.LBB45:
 333              		.loc 1 258 0
 334 017c 44F82E10 		str	r1, [r4, lr, lsl #2]
 335              	.LBE45:
 336              	.LBE54:
 337              		.loc 1 96 0
 338 0180 0DD0     		beq	.L24
 339              	.LVL22:
 340              	.L9:
 341              		.loc 1 158 0
 342 0182 FFF7FEFF 		bl	dbg_check_unlock_from_isr
ARM GAS  C:\Users\z80\AppData\Local\Temp\cctXg9Kf.s 			page 7


 343              	.LBB55:
 344 0186 0023     		movs	r3, #0
 345              	.LVL23:
 346              	@ 158 "./src/adc_ctrl.c" 1
 347 0188 83F31188 		msr     BASEPRI, r3
 348              	@ 0 "" 2
 349              	.LVL24:
 350              		.thumb
 351              	.LBE55:
 352              		.loc 1 159 0
 353 018c 4FF44063 		mov	r3, #3072
 354              	.LVL25:
 355 0190 C4F20103 		movt	r3, 16385
 356 0194 4FF48070 		mov	r0, #256
 357 0198 5861     		str	r0, [r3, #20]
 358              		.loc 1 160 0
 359 019a BDE8F087 		pop	{r4, r5, r6, r7, r8, r9, sl, pc}
 360              	.LVL26:
 361              	.L24:
 362              		.loc 1 98 0
 363 019e 40F20003 		movw	r3, #:lower16:.LANCHOR6
 364              	.LVL27:
 365 01a2 C0F20003 		movt	r3, #:upper16:.LANCHOR6
 366              		.loc 1 99 0
 367 01a6 40F2000C 		movw	ip, #:lower16:.LANCHOR7
 368              		.loc 1 98 0
 369 01aa 1868     		ldr	r0, [r3, #0]
 370              		.loc 1 99 0
 371 01ac C0F2000C 		movt	ip, #:upper16:.LANCHOR7
 372 01b0 DCF80010 		ldr	r1, [ip, #0]
 373              		.loc 1 98 0
 374 01b4 421C     		adds	r2, r0, #1
 375              		.loc 1 99 0
 376 01b6 8A42     		cmp	r2, r1
 377              		.loc 1 98 0
 378 01b8 1A60     		str	r2, [r3, #0]
 379              		.loc 1 99 0
 380 01ba E2DB     		blt	.L9
 381              		.loc 1 102 0
 382 01bc 40F20005 		movw	r5, #:lower16:.LANCHOR8
 383              	.LVL28:
 384 01c0 C0F20005 		movt	r5, #:upper16:.LANCHOR8
 385 01c4 05F10807 		add	r7, r5, #8
 386              	.LVL29:
 387 01c8 C1CF     		ldmia	r7, {r0, r6, r7}
 388 01ca BE1B     		subs	r6, r7, r6
 389              		.loc 1 101 0
 390 01cc 521A     		subs	r2, r2, r1
 391              		.loc 1 102 0
 392 01ce 311A     		subs	r1, r6, r0
 393 01d0 0B29     		cmp	r1, #11
 394              		.loc 1 101 0
 395 01d2 1A60     		str	r2, [r3, #0]
 396              		.loc 1 102 0
 397 01d4 D5D9     		bls	.L9
 398              	.LBB56:
 399              		.loc 1 110 0
ARM GAS  C:\Users\z80\AppData\Local\Temp\cctXg9Kf.s 			page 8


 400 01d6 2668     		ldr	r6, [r4, #0]
 401              	.LVL30:
 402              		.loc 1 112 0
 403 01d8 2846     		mov	r0, r5
 404 01da F1B2     		uxtb	r1, r6
 405 01dc FFF7FEFF 		bl	chIQPutI
 406              	.LVL31:
 407              		.loc 1 115 0
 408 01e0 C6F30721 		ubfx	r1, r6, #8, #8
 409 01e4 2846     		mov	r0, r5
 410 01e6 FFF7FEFF 		bl	chIQPutI
 411              	.LVL32:
 412              		.loc 1 118 0
 413 01ea C6F30741 		ubfx	r1, r6, #16, #8
 414 01ee 2846     		mov	r0, r5
 415 01f0 FFF7FEFF 		bl	chIQPutI
 416              		.loc 1 122 0
 417 01f4 6668     		ldr	r6, [r4, #4]
 418              	.LVL33:
 419              		.loc 1 124 0
 420 01f6 2846     		mov	r0, r5
 421 01f8 F1B2     		uxtb	r1, r6
 422 01fa FFF7FEFF 		bl	chIQPutI
 423              	.LVL34:
 424              		.loc 1 127 0
 425 01fe C6F30721 		ubfx	r1, r6, #8, #8
 426 0202 2846     		mov	r0, r5
 427 0204 FFF7FEFF 		bl	chIQPutI
 428              	.LVL35:
 429              		.loc 1 130 0
 430 0208 C6F30741 		ubfx	r1, r6, #16, #8
 431 020c 2846     		mov	r0, r5
 432 020e FFF7FEFF 		bl	chIQPutI
 433              		.loc 1 134 0
 434 0212 A668     		ldr	r6, [r4, #8]
 435              	.LVL36:
 436              		.loc 1 136 0
 437 0214 2846     		mov	r0, r5
 438 0216 F1B2     		uxtb	r1, r6
 439 0218 FFF7FEFF 		bl	chIQPutI
 440              	.LVL37:
 441              		.loc 1 139 0
 442 021c C6F30721 		ubfx	r1, r6, #8, #8
 443 0220 2846     		mov	r0, r5
 444 0222 FFF7FEFF 		bl	chIQPutI
 445              	.LVL38:
 446              		.loc 1 142 0
 447 0226 C6F30741 		ubfx	r1, r6, #16, #8
 448 022a 2846     		mov	r0, r5
 449 022c FFF7FEFF 		bl	chIQPutI
 450              		.loc 1 146 0
 451 0230 E468     		ldr	r4, [r4, #12]
 452              	.LVL39:
 453              		.loc 1 148 0
 454 0232 2846     		mov	r0, r5
 455 0234 E1B2     		uxtb	r1, r4
 456 0236 FFF7FEFF 		bl	chIQPutI
ARM GAS  C:\Users\z80\AppData\Local\Temp\cctXg9Kf.s 			page 9


 457              	.LVL40:
 458              		.loc 1 151 0
 459 023a C4F30721 		ubfx	r1, r4, #8, #8
 460 023e 2846     		mov	r0, r5
 461 0240 FFF7FEFF 		bl	chIQPutI
 462              	.LVL41:
 463              		.loc 1 154 0
 464 0244 2846     		mov	r0, r5
 465 0246 C4F30741 		ubfx	r1, r4, #16, #8
 466 024a FFF7FEFF 		bl	chIQPutI
 467 024e 98E7     		b	.L9
 468              	.LBE56:
 469              		.cfi_endproc
 470              	.LFE64:
 471              		.size	onSpiComplete, .-onSpiComplete
 472              		.section	.text.initAdc,"ax",%progbits
 473              		.align	2
 474              		.p2align 4,,15
 475              		.global	initAdc
 476              		.thumb
 477              		.thumb_func
 478              		.type	initAdc, %function
 479              	initAdc:
 480              	.LFB62:
 481              		.loc 1 45 0
 482              		.cfi_startproc
 483              		@ args = 0, pretend = 0, frame = 0
 484              		@ frame_needed = 0, uses_anonymous_args = 0
 485              		.loc 1 46 0
 486 0000 4FF44060 		mov	r0, #3072
 487              		.loc 1 45 0
 488 0004 10B5     		push	{r4, lr}
 489              	.LCFI1:
 490              		.cfi_def_cfa_offset 8
 491              		.cfi_offset 14, -4
 492              		.cfi_offset 4, -8
 493              		.loc 1 46 0
 494 0006 0622     		movs	r2, #6
 495 0008 C4F20100 		movt	r0, 16385
 496 000c 4FF48071 		mov	r1, #256
 497 0010 FFF7FEFF 		bl	_pal_lld_setgroupmode
 498              		.loc 1 50 0
 499 0014 4FF40064 		mov	r4, #2048
 500              		.loc 1 48 0
 501 0018 40F20000 		movw	r0, #:lower16:.LANCHOR8
 502 001c 40F20001 		movw	r1, #:lower16:.LANCHOR9
 503              		.loc 1 50 0
 504 0020 C4F20104 		movt	r4, 16385
 505              		.loc 1 48 0
 506 0024 0023     		movs	r3, #0
 507 0026 C0F20000 		movt	r0, #:upper16:.LANCHOR8
 508 002a C0F20001 		movt	r1, #:upper16:.LANCHOR9
 509 002e 4FF4A072 		mov	r2, #320
 510 0032 FFF7FEFF 		bl	chIQInit
 511              		.loc 1 50 0
 512 0036 0121     		movs	r1, #1
 513 0038 0622     		movs	r2, #6
ARM GAS  C:\Users\z80\AppData\Local\Temp\cctXg9Kf.s 			page 10


 514 003a 2046     		mov	r0, r4
 515 003c FFF7FEFF 		bl	_pal_lld_setgroupmode
 516              		.loc 1 51 0
 517 0040 2046     		mov	r0, r4
 518 0042 0221     		movs	r1, #2
 519 0044 0622     		movs	r2, #6
 520 0046 FFF7FEFF 		bl	_pal_lld_setgroupmode
 521              		.loc 1 53 0
 522 004a 2046     		mov	r0, r4
 523 004c 2021     		movs	r1, #32
 524 004e 1022     		movs	r2, #16
 525 0050 FFF7FEFF 		bl	_pal_lld_setgroupmode
 526              		.loc 1 54 0
 527 0054 2046     		mov	r0, r4
 528 0056 4021     		movs	r1, #64
 529 0058 1022     		movs	r2, #16
 530 005a FFF7FEFF 		bl	_pal_lld_setgroupmode
 531              		.loc 1 55 0
 532 005e 2046     		mov	r0, r4
 533 0060 1021     		movs	r1, #16
 534 0062 0622     		movs	r2, #6
 535 0064 FFF7FEFF 		bl	_pal_lld_setgroupmode
 536              		.loc 1 58 0
 537 0068 40F2000C 		movw	ip, #:lower16:.LANCHOR0
 538 006c C0F2000C 		movt	ip, #:upper16:.LANCHOR0
 539 0070 DCF80000 		ldr	r0, [ip, #0]
 540              	.LVL42:
 541              		.loc 1 56 0
 542 0074 1021     		movs	r1, #16
 543 0076 2161     		str	r1, [r4, #16]
 544              	.LBB57:
 545              	.LBB58:
 546              		.loc 1 170 0
 547 0078 0122     		movs	r2, #1
 548              		.loc 1 169 0
 549 007a C107     		lsls	r1, r0, #31
 550              		.loc 1 170 0
 551 007c 4CBF     		ite	mi
 552 007e 2261     		strmi	r2, [r4, #16]
 553              		.loc 1 172 0
 554 0080 6261     		strpl	r2, [r4, #20]
 555              		.loc 1 175 0
 556 0082 4FF40063 		mov	r3, #2048
 557              		.loc 1 174 0
 558 0086 10F0020F 		tst	r0, #2
 559              	.LBE58:
 560              	.LBE57:
 561              		.loc 1 60 0
 562 008a 40F20001 		movw	r1, #:lower16:.LANCHOR10
 563 008e 40F20000 		movw	r0, #:lower16:SPID1
 564              	.LBB61:
 565              	.LBB59:
 566              		.loc 1 175 0
 567 0092 C4F20103 		movt	r3, 16385
 568 0096 4FF00202 		mov	r2, #2
 569              	.LBE59:
 570              	.LBE61:
ARM GAS  C:\Users\z80\AppData\Local\Temp\cctXg9Kf.s 			page 11


 571              		.loc 1 60 0
 572 009a C0F20000 		movt	r0, #:upper16:SPID1
 573 009e C0F20001 		movt	r1, #:upper16:.LANCHOR10
 574              	.LBB62:
 575              	.LBB60:
 576              		.loc 1 175 0
 577 00a2 14BF     		ite	ne
 578 00a4 1A61     		strne	r2, [r3, #16]
 579              		.loc 1 177 0
 580 00a6 5A61     		streq	r2, [r3, #20]
 581              	.LBE60:
 582              	.LBE62:
 583              		.loc 1 61 0
 584 00a8 BDE81040 		pop	{r4, lr}
 585              		.loc 1 60 0
 586 00ac FFF7FEBF 		b	spiStart
 587              	.LVL43:
 588              		.cfi_endproc
 589              	.LFE62:
 590              		.size	initAdc, .-initAdc
 591              		.section	.text.queryAdcI,"ax",%progbits
 592              		.align	2
 593              		.p2align 4,,15
 594              		.global	queryAdcI
 595              		.thumb
 596              		.thumb_func
 597              		.type	queryAdcI, %function
 598              	queryAdcI:
 599              	.LFB63:
 600              		.loc 1 64 0
 601              		.cfi_startproc
 602              		@ args = 0, pretend = 0, frame = 0
 603              		@ frame_needed = 0, uses_anonymous_args = 0
 604 0000 10B5     		push	{r4, lr}
 605              	.LCFI2:
 606              		.cfi_def_cfa_offset 8
 607              		.cfi_offset 14, -4
 608              		.cfi_offset 4, -8
 609              		.loc 1 65 0
 610 0002 40F20004 		movw	r4, #:lower16:SPID1
 611 0006 C0F20004 		movt	r4, #:upper16:SPID1
 612 000a 2046     		mov	r0, r4
 613 000c FFF7FEFF 		bl	spi_lld_select
 614              		.loc 1 66 0
 615 0010 0323     		movs	r3, #3
 616 0012 40F20002 		movw	r2, #:lower16:.LANCHOR1
 617 0016 2046     		mov	r0, r4
 618 0018 1946     		mov	r1, r3
 619 001a C0F20002 		movt	r2, #:upper16:.LANCHOR1
 620 001e 2370     		strb	r3, [r4, #0]
 621              		.loc 1 70 0
 622 0020 BDE81040 		pop	{r4, lr}
 623              		.loc 1 66 0
 624 0024 FFF7FEBF 		b	spi_lld_receive
 625              		.cfi_endproc
 626              	.LFE63:
 627              		.size	queryAdcI, .-queryAdcI
ARM GAS  C:\Users\z80\AppData\Local\Temp\cctXg9Kf.s 			page 12


 628 0028 AFF30080 		.section	.text.adcQueue,"ax",%progbits
 628      AFF30080 
 629              		.align	2
 630              		.p2align 4,,15
 631              		.global	adcQueue
 632              		.thumb
 633              		.thumb_func
 634              		.type	adcQueue, %function
 635              	adcQueue:
 636              	.LFB65:
 637              		.loc 1 163 0
 638              		.cfi_startproc
 639              		@ args = 0, pretend = 0, frame = 0
 640              		@ frame_needed = 0, uses_anonymous_args = 0
 641              		@ link register save eliminated.
 642              		.loc 1 165 0
 643 0000 40F20000 		movw	r0, #:lower16:.LANCHOR8
 644 0004 C0F20000 		movt	r0, #:upper16:.LANCHOR8
 645 0008 7047     		bx	lr
 646              		.cfi_endproc
 647              	.LFE65:
 648              		.size	adcQueue, .-adcQueue
 649 000a 00BFAFF3 		.section	.text.instantAdc,"ax",%progbits
 649      0080
 650              		.align	2
 651              		.p2align 4,,15
 652              		.global	instantAdc
 653              		.thumb
 654              		.thumb_func
 655              		.type	instantAdc, %function
 656              	instantAdc:
 657              	.LFB67:
 658              		.loc 1 198 0
 659              		.cfi_startproc
 660              		@ args = 0, pretend = 0, frame = 0
 661              		@ frame_needed = 0, uses_anonymous_args = 0
 662              	.LVL44:
 663 0000 10B5     		push	{r4, lr}
 664              	.LCFI3:
 665              		.cfi_def_cfa_offset 8
 666              		.cfi_offset 14, -4
 667              		.cfi_offset 4, -8
 668              	.LBB63:
 669              		.loc 1 199 0
 670 0002 2023     		movs	r3, #32
 671              	.LVL45:
 672              	.LBE63:
 673              		.loc 1 198 0
 674 0004 0446     		mov	r4, r0
 675              	.LBB64:
 676              		.loc 1 199 0
 677              	@ 199 "./src/adc_ctrl.c" 1
 678 0006 83F31188 		msr     BASEPRI, r3
 679              	@ 0 "" 2
 680              	.LVL46:
 681              		.thumb
 682              	.LBE64:
ARM GAS  C:\Users\z80\AppData\Local\Temp\cctXg9Kf.s 			page 13


 683 000a FFF7FEFF 		bl	dbg_check_lock
 684              	.LVL47:
 685              	.LBB65:
 686              	.LBB66:
 687              		.loc 1 206 0
 688 000e 34B1     		cbz	r4, .L33
 689              		.loc 1 208 0
 690 0010 40F20003 		movw	r3, #:lower16:.LANCHOR5
 691 0014 C0F20003 		movt	r3, #:upper16:.LANCHOR5
 692              		.loc 1 211 0
 693 0018 0FCB     		ldmia	r3, {r0, r1, r2, r3}
 694 001a 84E80F00 		stmia	r4, {r0, r1, r2, r3}
 695              	.L33:
 696              	.LBE66:
 697              	.LBE65:
 698              		.loc 1 201 0
 699 001e FFF7FEFF 		bl	dbg_check_unlock
 700              	.LBB67:
 701 0022 0023     		movs	r3, #0
 702              	.LVL48:
 703              	@ 201 "./src/adc_ctrl.c" 1
 704 0024 83F31188 		msr     BASEPRI, r3
 705              	@ 0 "" 2
 706              	.LVL49:
 707              		.thumb
 708              	.LBE67:
 709              		.loc 1 202 0
 710 0028 10BD     		pop	{r4, pc}
 711              		.cfi_endproc
 712              	.LFE67:
 713              		.size	instantAdc, .-instantAdc
 714 002a 00BFAFF3 		.section	.text.instantAdcI,"ax",%progbits
 714      0080
 715              		.align	2
 716              		.p2align 4,,15
 717              		.global	instantAdcI
 718              		.thumb
 719              		.thumb_func
 720              		.type	instantAdcI, %function
 721              	instantAdcI:
 722              	.LFB68:
 723              		.loc 1 205 0
 724              		.cfi_startproc
 725              		@ args = 0, pretend = 0, frame = 0
 726              		@ frame_needed = 0, uses_anonymous_args = 0
 727              		@ link register save eliminated.
 728              	.LVL50:
 729 0000 10B4     		push	{r4}
 730              	.LCFI4:
 731              		.cfi_def_cfa_offset 4
 732              		.cfi_offset 4, -4
 733              		.loc 1 206 0
 734 0002 50B1     		cbz	r0, .L34
 735              		.loc 1 208 0
 736 0004 40F20003 		movw	r3, #:lower16:.LANCHOR5
 737 0008 C0F20003 		movt	r3, #:upper16:.LANCHOR5
 738 000c 1C68     		ldr	r4, [r3, #0]
ARM GAS  C:\Users\z80\AppData\Local\Temp\cctXg9Kf.s 			page 14


 739              		.loc 1 211 0
 740 000e 191D     		adds	r1, r3, #4
 741 0010 0EC9     		ldmia	r1, {r1, r2, r3}
 742              		.loc 1 208 0
 743 0012 0460     		str	r4, [r0, #0]
 744              		.loc 1 209 0
 745 0014 4160     		str	r1, [r0, #4]
 746              		.loc 1 210 0
 747 0016 8260     		str	r2, [r0, #8]
 748              		.loc 1 211 0
 749 0018 C360     		str	r3, [r0, #12]
 750              	.L34:
 751              		.loc 1 213 0
 752 001a 10BC     		pop	{r4}
 753 001c 7047     		bx	lr
 754              		.cfi_endproc
 755              	.LFE68:
 756              		.size	instantAdcI, .-instantAdcI
 757 001e 00BF     		.section	.text.setOscSignals,"ax",%progbits
 758              		.align	2
 759              		.p2align 4,,15
 760              		.global	setOscSignals
 761              		.thumb
 762              		.thumb_func
 763              		.type	setOscSignals, %function
 764              	setOscSignals:
 765              	.LFB69:
 766              		.loc 1 216 0
 767              		.cfi_startproc
 768              		@ args = 0, pretend = 0, frame = 0
 769              		@ frame_needed = 0, uses_anonymous_args = 0
 770              	.LVL51:
 771 0000 10B5     		push	{r4, lr}
 772              	.LCFI5:
 773              		.cfi_def_cfa_offset 8
 774              		.cfi_offset 14, -4
 775              		.cfi_offset 4, -8
 776              	.LBB68:
 777              		.loc 1 217 0
 778 0002 2023     		movs	r3, #32
 779              	.LVL52:
 780              	.LBE68:
 781              		.loc 1 216 0
 782 0004 0446     		mov	r4, r0
 783              	.LBB69:
 784              		.loc 1 217 0
 785              	@ 217 "./src/adc_ctrl.c" 1
 786 0006 83F31188 		msr     BASEPRI, r3
 787              	@ 0 "" 2
 788              	.LVL53:
 789              		.thumb
 790              	.LBE69:
 791 000a FFF7FEFF 		bl	dbg_check_lock
 792              	.LVL54:
 793              		.loc 1 218 0
 794 000e 40F20003 		movw	r3, #:lower16:.LANCHOR11
 795 0012 C0F20003 		movt	r3, #:upper16:.LANCHOR11
ARM GAS  C:\Users\z80\AppData\Local\Temp\cctXg9Kf.s 			page 15


 796 0016 1C60     		str	r4, [r3, #0]
 797              		.loc 1 219 0
 798 0018 FFF7FEFF 		bl	dbg_check_unlock
 799              	.LBB70:
 800 001c 0023     		movs	r3, #0
 801              	.LVL55:
 802              	@ 219 "./src/adc_ctrl.c" 1
 803 001e 83F31188 		msr     BASEPRI, r3
 804              	@ 0 "" 2
 805              	.LVL56:
 806              		.thumb
 807              	.LBE70:
 808              		.loc 1 220 0
 809 0022 10BD     		pop	{r4, pc}
 810              		.cfi_endproc
 811              	.LFE69:
 812              		.size	setOscSignals, .-setOscSignals
 813 0024 AFF30080 		.section	.text.setOscPeriod,"ax",%progbits
 813      AFF30080 
 813      AFF30080 
 814              		.align	2
 815              		.p2align 4,,15
 816              		.global	setOscPeriod
 817              		.thumb
 818              		.thumb_func
 819              		.type	setOscPeriod, %function
 820              	setOscPeriod:
 821              	.LFB70:
 822              		.loc 1 223 0
 823              		.cfi_startproc
 824              		@ args = 0, pretend = 0, frame = 0
 825              		@ frame_needed = 0, uses_anonymous_args = 0
 826              	.LVL57:
 827 0000 10B5     		push	{r4, lr}
 828              	.LCFI6:
 829              		.cfi_def_cfa_offset 8
 830              		.cfi_offset 14, -4
 831              		.cfi_offset 4, -8
 832              	.LBB71:
 833              		.loc 1 224 0
 834 0002 2023     		movs	r3, #32
 835              	.LVL58:
 836              	.LBE71:
 837              		.loc 1 223 0
 838 0004 0446     		mov	r4, r0
 839              	.LBB72:
 840              		.loc 1 224 0
 841              	@ 224 "./src/adc_ctrl.c" 1
 842 0006 83F31188 		msr     BASEPRI, r3
 843              	@ 0 "" 2
 844              	.LVL59:
 845              		.thumb
 846              	.LBE72:
 847 000a FFF7FEFF 		bl	dbg_check_lock
 848              	.LVL60:
 849              		.loc 1 225 0
 850 000e 40F20003 		movw	r3, #:lower16:.LANCHOR7
ARM GAS  C:\Users\z80\AppData\Local\Temp\cctXg9Kf.s 			page 16


 851 0012 C0F20003 		movt	r3, #:upper16:.LANCHOR7
 852 0016 1C60     		str	r4, [r3, #0]
 853              		.loc 1 226 0
 854 0018 FFF7FEFF 		bl	dbg_check_unlock
 855              	.LBB73:
 856 001c 0023     		movs	r3, #0
 857              	.LVL61:
 858              	@ 226 "./src/adc_ctrl.c" 1
 859 001e 83F31188 		msr     BASEPRI, r3
 860              	@ 0 "" 2
 861              	.LVL62:
 862              		.thumb
 863              	.LBE73:
 864              		.loc 1 227 0
 865 0022 10BD     		pop	{r4, pc}
 866              		.cfi_endproc
 867              	.LFE70:
 868              		.size	setOscPeriod, .-setOscPeriod
 869              		.global	adcPointer
 870              		.global	adcFiltered
 871              		.global	adcRaw
 872              		.global	elapsed
 873              		.global	period
 874              		.global	signalMask
 875              		.global	adc_rx_buffer
 876              		.global	adc_queue_buffer
 877              		.global	adc_queue
 878 0024 AFF30080 		.section	.bss.adcPointer,"aw",%nobits
 878      AFF30080 
 878      AFF30080 
 879              		.align	2
 880              		.set	.LANCHOR3,. + 0
 881              		.type	adcPointer, %object
 882              		.size	adcPointer, 4
 883              	adcPointer:
 884 0000 00000000 		.space	4
 885              		.section	.bss.adcFiltered,"aw",%nobits
 886              		.align	2
 887              		.set	.LANCHOR4,. + 0
 888              		.type	adcFiltered, %object
 889              		.size	adcFiltered, 80
 890              	adcFiltered:
 891 0000 00000000 		.space	80
 891      00000000 
 891      00000000 
 891      00000000 
 891      00000000 
 892              		.section	.bss.adc_queue,"aw",%nobits
 893              		.align	2
 894              		.set	.LANCHOR8,. + 0
 895              		.type	adc_queue, %object
 896              		.size	adc_queue, 32
 897              	adc_queue:
 898 0000 00000000 		.space	32
 898      00000000 
 898      00000000 
 898      00000000 
ARM GAS  C:\Users\z80\AppData\Local\Temp\cctXg9Kf.s 			page 17


 898      00000000 
 899              		.section	.bss.adcRaw,"aw",%nobits
 900              		.align	2
 901              		.set	.LANCHOR2,. + 0
 902              		.type	adcRaw, %object
 903              		.size	adcRaw, 80
 904              	adcRaw:
 905 0000 00000000 		.space	80
 905      00000000 
 905      00000000 
 905      00000000 
 905      00000000 
 906              		.section	.data.instantAdcData,"aw",%progbits
 907              		.align	2
 908              		.set	.LANCHOR5,. + 0
 909              		.type	instantAdcData, %object
 910              		.size	instantAdcData, 16
 911              	instantAdcData:
 912 0000 FFFFFFFF 		.word	-1
 913 0004 FFFFFFFF 		.word	-1
 914 0008 FFFFFFFF 		.word	-1
 915 000c FFFFFFFF 		.word	-1
 916              		.section	.bss.adc_rx_buffer,"aw",%nobits
 917              		.align	2
 918              		.set	.LANCHOR1,. + 0
 919              		.type	adc_rx_buffer, %object
 920              		.size	adc_rx_buffer, 4
 921              	adc_rx_buffer:
 922 0000 00000000 		.space	4
 923              		.section	.rodata.hs_spicfg,"a",%progbits
 924              		.align	2
 925              		.set	.LANCHOR10,. + 0
 926              		.type	hs_spicfg, %object
 927              		.size	hs_spicfg, 12
 928              	hs_spicfg:
 929 0000 00000000 		.word	onSpiComplete
 930 0004 00080140 		.word	1073809408
 931 0008 0400     		.short	4
 932 000a 1200     		.short	18
 933              		.section	.data.signalMask,"aw",%progbits
 934              		.align	2
 935              		.set	.LANCHOR11,. + 0
 936              		.type	signalMask, %object
 937              		.size	signalMask, 4
 938              	signalMask:
 939 0000 0F000000 		.word	15
 940              		.section	.bss.adcIndex,"aw",%nobits
 941              		.align	2
 942              		.set	.LANCHOR0,. + 0
 943              		.type	adcIndex, %object
 944              		.size	adcIndex, 4
 945              	adcIndex:
 946 0000 00000000 		.space	4
 947              		.section	.data.period,"aw",%progbits
 948              		.align	2
 949              		.set	.LANCHOR7,. + 0
 950              		.type	period, %object
ARM GAS  C:\Users\z80\AppData\Local\Temp\cctXg9Kf.s 			page 18


 951              		.size	period, 4
 952              	period:
 953 0000 05000000 		.word	5
 954              		.section	.bss.elapsed,"aw",%nobits
 955              		.align	2
 956              		.set	.LANCHOR6,. + 0
 957              		.type	elapsed, %object
 958              		.size	elapsed, 4
 959              	elapsed:
 960 0000 00000000 		.space	4
 961              		.section	.bss.adc_queue_buffer,"aw",%nobits
 962              		.align	2
 963              		.set	.LANCHOR9,. + 0
 964              		.type	adc_queue_buffer, %object
 965              		.size	adc_queue_buffer, 320
 966              	adc_queue_buffer:
 967 0000 00000000 		.space	320
 967      00000000 
 967      00000000 
 967      00000000 
 967      00000000 
 968              		.text
 969              	.Letext0:
 970              		.file 2 "c:\\programs\\codesourcery\\2011.03-56\\bin\\../lib/gcc/arm-none-eabi/4.6.3/include/stdde
 971              		.file 3 "c:\\programs\\codesourcery\\2011.03-56\\bin\\../lib/gcc/arm-none-eabi/4.6.3/../../../../a
 972              		.file 4 "../chibios_2.4.x/os/ports/GCC/ARMCMx/chtypes.h"
 973              		.file 5 "../chibios_2.4.x/os/kernel/include/chlists.h"
 974              		.file 6 "../chibios_2.4.x/os/kernel/include/chthreads.h"
 975              		.file 7 "../chibios_2.4.x/os/ports/GCC/ARMCMx/chcore_v7m.h"
 976              		.file 8 "../chibios_2.4.x/os/kernel/include/chmtx.h"
 977              		.file 9 "../chibios_2.4.x/os/kernel/include/chqueues.h"
 978              		.file 10 "../chibios_2.4.x/os/hal/platforms/STM32F1xx/stm32f10x.h"
 979              		.file 11 "../chibios_2.4.x/os/hal/platforms/STM32F1xx/stm32_dma.h"
 980              		.file 12 "../chibios_2.4.x/os/hal/platforms/STM32/GPIOv1/pal_lld.h"
 981              		.file 13 "../chibios_2.4.x/os/hal/include/spi.h"
 982              		.file 14 "../chibios_2.4.x/os/hal/platforms/STM32/spi_lld.h"
 983              		.file 15 "../chibios_2.4.x/os/ports/common/ARMCMx/CMSIS/include/core_cm3.h"
 984              		.section	.debug_info,"",%progbits
 985              	.Ldebug_info0:
 986 0000 DB0C0000 		.4byte	0xcdb
 987 0004 0200     		.2byte	0x2
 988 0006 00000000 		.4byte	.Ldebug_abbrev0
 989 000a 04       		.byte	0x4
 990 000b 01       		.uleb128 0x1
 991 000c 82040000 		.4byte	.LASF140
 992 0010 01       		.byte	0x1
 993 0011 FF000000 		.4byte	.LASF141
 994 0015 34010000 		.4byte	.LASF142
 995 0019 00000000 		.4byte	0
 996 001d 00000000 		.4byte	0
 997 0021 70010000 		.4byte	.Ldebug_ranges0+0x170
 998 0025 00000000 		.4byte	.Ldebug_line0
 999 0029 02       		.uleb128 0x2
 1000 002a 04       		.byte	0x4
 1001 002b 05       		.byte	0x5
 1002 002c 696E7400 		.ascii	"int\000"
 1003 0030 03       		.uleb128 0x3
ARM GAS  C:\Users\z80\AppData\Local\Temp\cctXg9Kf.s 			page 19


 1004 0031 06000000 		.4byte	.LASF2
 1005 0035 02       		.byte	0x2
 1006 0036 D4       		.byte	0xd4
 1007 0037 3B000000 		.4byte	0x3b
 1008 003b 04       		.uleb128 0x4
 1009 003c 04       		.byte	0x4
 1010 003d 07       		.byte	0x7
 1011 003e 16020000 		.4byte	.LASF0
 1012 0042 04       		.uleb128 0x4
 1013 0043 01       		.byte	0x1
 1014 0044 06       		.byte	0x6
 1015 0045 F3000000 		.4byte	.LASF1
 1016 0049 03       		.uleb128 0x3
 1017 004a 54050000 		.4byte	.LASF3
 1018 004e 03       		.byte	0x3
 1019 004f 2A       		.byte	0x2a
 1020 0050 54000000 		.4byte	0x54
 1021 0054 04       		.uleb128 0x4
 1022 0055 01       		.byte	0x1
 1023 0056 08       		.byte	0x8
 1024 0057 D1030000 		.4byte	.LASF4
 1025 005b 04       		.uleb128 0x4
 1026 005c 02       		.byte	0x2
 1027 005d 05       		.byte	0x5
 1028 005e A0020000 		.4byte	.LASF5
 1029 0062 03       		.uleb128 0x3
 1030 0063 23020000 		.4byte	.LASF6
 1031 0067 03       		.byte	0x3
 1032 0068 36       		.byte	0x36
 1033 0069 6D000000 		.4byte	0x6d
 1034 006d 04       		.uleb128 0x4
 1035 006e 02       		.byte	0x2
 1036 006f 07       		.byte	0x7
 1037 0070 55020000 		.4byte	.LASF7
 1038 0074 03       		.uleb128 0x3
 1039 0075 C9030000 		.4byte	.LASF8
 1040 0079 03       		.byte	0x3
 1041 007a 4F       		.byte	0x4f
 1042 007b 7F000000 		.4byte	0x7f
 1043 007f 04       		.uleb128 0x4
 1044 0080 04       		.byte	0x4
 1045 0081 05       		.byte	0x5
 1046 0082 70010000 		.4byte	.LASF9
 1047 0086 03       		.uleb128 0x3
 1048 0087 63040000 		.4byte	.LASF10
 1049 008b 03       		.byte	0x3
 1050 008c 50       		.byte	0x50
 1051 008d 91000000 		.4byte	0x91
 1052 0091 04       		.uleb128 0x4
 1053 0092 04       		.byte	0x4
 1054 0093 07       		.byte	0x7
 1055 0094 8E040000 		.4byte	.LASF11
 1056 0098 04       		.uleb128 0x4
 1057 0099 08       		.byte	0x8
 1058 009a 05       		.byte	0x5
 1059 009b E5000000 		.4byte	.LASF12
 1060 009f 03       		.uleb128 0x3
ARM GAS  C:\Users\z80\AppData\Local\Temp\cctXg9Kf.s 			page 20


 1061 00a0 F6020000 		.4byte	.LASF13
 1062 00a4 03       		.byte	0x3
 1063 00a5 78       		.byte	0x78
 1064 00a6 AA000000 		.4byte	0xaa
 1065 00aa 04       		.uleb128 0x4
 1066 00ab 08       		.byte	0x8
 1067 00ac 07       		.byte	0x7
 1068 00ad 5F000000 		.4byte	.LASF14
 1069 00b1 03       		.uleb128 0x3
 1070 00b2 80020000 		.4byte	.LASF15
 1071 00b6 04       		.byte	0x4
 1072 00b7 2F       		.byte	0x2f
 1073 00b8 49000000 		.4byte	0x49
 1074 00bc 03       		.uleb128 0x3
 1075 00bd 79010000 		.4byte	.LASF16
 1076 00c1 04       		.byte	0x4
 1077 00c2 30       		.byte	0x30
 1078 00c3 49000000 		.4byte	0x49
 1079 00c7 03       		.uleb128 0x3
 1080 00c8 B9030000 		.4byte	.LASF17
 1081 00cc 04       		.byte	0x4
 1082 00cd 32       		.byte	0x32
 1083 00ce 86000000 		.4byte	0x86
 1084 00d2 03       		.uleb128 0x3
 1085 00d3 70020000 		.4byte	.LASF18
 1086 00d7 04       		.byte	0x4
 1087 00d8 33       		.byte	0x33
 1088 00d9 74000000 		.4byte	0x74
 1089 00dd 03       		.uleb128 0x3
 1090 00de 94020000 		.4byte	.LASF19
 1091 00e2 04       		.byte	0x4
 1092 00e3 35       		.byte	0x35
 1093 00e4 86000000 		.4byte	0x86
 1094 00e8 03       		.uleb128 0x3
 1095 00e9 E3040000 		.4byte	.LASF20
 1096 00ed 04       		.byte	0x4
 1097 00ee 36       		.byte	0x36
 1098 00ef 86000000 		.4byte	0x86
 1099 00f3 03       		.uleb128 0x3
 1100 00f4 D1020000 		.4byte	.LASF21
 1101 00f8 05       		.byte	0x5
 1102 00f9 2A       		.byte	0x2a
 1103 00fa FE000000 		.4byte	0xfe
 1104 00fe 05       		.uleb128 0x5
 1105 00ff D1020000 		.4byte	.LASF21
 1106 0103 48       		.byte	0x48
 1107 0104 06       		.byte	0x6
 1108 0105 5E       		.byte	0x5e
 1109 0106 07020000 		.4byte	0x207
 1110 010a 06       		.uleb128 0x6
 1111 010b 1B040000 		.4byte	.LASF22
 1112 010f 06       		.byte	0x6
 1113 0110 5F       		.byte	0x5f
 1114 0111 2C020000 		.4byte	0x22c
 1115 0115 02       		.byte	0x2
 1116 0116 23       		.byte	0x23
 1117 0117 00       		.uleb128 0
ARM GAS  C:\Users\z80\AppData\Local\Temp\cctXg9Kf.s 			page 21


 1118 0118 06       		.uleb128 0x6
 1119 0119 94030000 		.4byte	.LASF23
 1120 011d 06       		.byte	0x6
 1121 011e 61       		.byte	0x61
 1122 011f 2C020000 		.4byte	0x22c
 1123 0123 02       		.byte	0x2
 1124 0124 23       		.byte	0x23
 1125 0125 04       		.uleb128 0x4
 1126 0126 06       		.uleb128 0x6
 1127 0127 CB000000 		.4byte	.LASF24
 1128 012b 06       		.byte	0x6
 1129 012c 63       		.byte	0x63
 1130 012d C7000000 		.4byte	0xc7
 1131 0131 02       		.byte	0x2
 1132 0132 23       		.byte	0x23
 1133 0133 08       		.uleb128 0x8
 1134 0134 06       		.uleb128 0x6
 1135 0135 8D050000 		.4byte	.LASF25
 1136 0139 06       		.byte	0x6
 1137 013a 64       		.byte	0x64
 1138 013b 04030000 		.4byte	0x304
 1139 013f 02       		.byte	0x2
 1140 0140 23       		.byte	0x23
 1141 0141 0C       		.uleb128 0xc
 1142 0142 06       		.uleb128 0x6
 1143 0143 9A010000 		.4byte	.LASF26
 1144 0147 06       		.byte	0x6
 1145 0148 66       		.byte	0x66
 1146 0149 2C020000 		.4byte	0x22c
 1147 014d 02       		.byte	0x2
 1148 014e 23       		.byte	0x23
 1149 014f 10       		.uleb128 0x10
 1150 0150 06       		.uleb128 0x6
 1151 0151 FF020000 		.4byte	.LASF27
 1152 0155 06       		.byte	0x6
 1153 0156 67       		.byte	0x67
 1154 0157 2C020000 		.4byte	0x22c
 1155 015b 02       		.byte	0x2
 1156 015c 23       		.byte	0x23
 1157 015d 14       		.uleb128 0x14
 1158 015e 06       		.uleb128 0x6
 1159 015f 6E050000 		.4byte	.LASF28
 1160 0163 06       		.byte	0x6
 1161 0164 6E       		.byte	0x6e
 1162 0165 AE030000 		.4byte	0x3ae
 1163 0169 02       		.byte	0x2
 1164 016a 23       		.byte	0x23
 1165 016b 18       		.uleb128 0x18
 1166 016c 06       		.uleb128 0x6
 1167 016d 0B020000 		.4byte	.LASF29
 1168 0171 06       		.byte	0x6
 1169 0172 74       		.byte	0x74
 1170 0173 C0030000 		.4byte	0x3c0
 1171 0177 02       		.byte	0x2
 1172 0178 23       		.byte	0x23
 1173 0179 1C       		.uleb128 0x1c
 1174 017a 06       		.uleb128 0x6
ARM GAS  C:\Users\z80\AppData\Local\Temp\cctXg9Kf.s 			page 22


 1175 017b 0C040000 		.4byte	.LASF30
 1176 017f 06       		.byte	0x6
 1177 0180 79       		.byte	0x79
 1178 0181 BC000000 		.4byte	0xbc
 1179 0185 02       		.byte	0x2
 1180 0186 23       		.byte	0x23
 1181 0187 20       		.uleb128 0x20
 1182 0188 06       		.uleb128 0x6
 1183 0189 22040000 		.4byte	.LASF31
 1184 018d 06       		.byte	0x6
 1185 018e 7D       		.byte	0x7d
 1186 018f B1000000 		.4byte	0xb1
 1187 0193 02       		.byte	0x2
 1188 0194 23       		.byte	0x23
 1189 0195 21       		.uleb128 0x21
 1190 0196 06       		.uleb128 0x6
 1191 0197 93010000 		.4byte	.LASF32
 1192 019b 06       		.byte	0x6
 1193 019c 89       		.byte	0x89
 1194 019d 2C030000 		.4byte	0x32c
 1195 01a1 02       		.byte	0x2
 1196 01a2 23       		.byte	0x23
 1197 01a3 24       		.uleb128 0x24
 1198 01a4 07       		.uleb128 0x7
 1199 01a5 705F7500 		.ascii	"p_u\000"
 1200 01a9 06       		.byte	0x6
 1201 01aa AE       		.byte	0xae
 1202 01ab 79030000 		.4byte	0x379
 1203 01af 02       		.byte	0x2
 1204 01b0 23       		.byte	0x23
 1205 01b1 28       		.uleb128 0x28
 1206 01b2 06       		.uleb128 0x6
 1207 01b3 93050000 		.4byte	.LASF33
 1208 01b7 06       		.byte	0x6
 1209 01b8 B3       		.byte	0xb3
 1210 01b9 54020000 		.4byte	0x254
 1211 01bd 02       		.byte	0x2
 1212 01be 23       		.byte	0x23
 1213 01bf 2C       		.uleb128 0x2c
 1214 01c0 06       		.uleb128 0x6
 1215 01c1 31020000 		.4byte	.LASF34
 1216 01c5 06       		.byte	0x6
 1217 01c6 B9       		.byte	0xb9
 1218 01c7 32020000 		.4byte	0x232
 1219 01cb 02       		.byte	0x2
 1220 01cc 23       		.byte	0x23
 1221 01cd 30       		.uleb128 0x30
 1222 01ce 06       		.uleb128 0x6
 1223 01cf 7F050000 		.4byte	.LASF35
 1224 01d3 06       		.byte	0x6
 1225 01d4 BD       		.byte	0xbd
 1226 01d5 D2000000 		.4byte	0xd2
 1227 01d9 02       		.byte	0x2
 1228 01da 23       		.byte	0x23
 1229 01db 38       		.uleb128 0x38
 1230 01dc 06       		.uleb128 0x6
 1231 01dd 4E040000 		.4byte	.LASF36
ARM GAS  C:\Users\z80\AppData\Local\Temp\cctXg9Kf.s 			page 23


 1232 01e1 06       		.byte	0x6
 1233 01e2 C3       		.byte	0xc3
 1234 01e3 DD000000 		.4byte	0xdd
 1235 01e7 02       		.byte	0x2
 1236 01e8 23       		.byte	0x23
 1237 01e9 3C       		.uleb128 0x3c
 1238 01ea 06       		.uleb128 0x6
 1239 01eb 02040000 		.4byte	.LASF37
 1240 01ef 06       		.byte	0x6
 1241 01f0 CA       		.byte	0xca
 1242 01f1 C6030000 		.4byte	0x3c6
 1243 01f5 02       		.byte	0x2
 1244 01f6 23       		.byte	0x23
 1245 01f7 40       		.uleb128 0x40
 1246 01f8 06       		.uleb128 0x6
 1247 01f9 ED040000 		.4byte	.LASF38
 1248 01fd 06       		.byte	0x6
 1249 01fe CE       		.byte	0xce
 1250 01ff C7000000 		.4byte	0xc7
 1251 0203 02       		.byte	0x2
 1252 0204 23       		.byte	0x23
 1253 0205 44       		.uleb128 0x44
 1254 0206 00       		.byte	0
 1255 0207 08       		.uleb128 0x8
 1256 0208 08       		.byte	0x8
 1257 0209 05       		.byte	0x5
 1258 020a 61       		.byte	0x61
 1259 020b 2C020000 		.4byte	0x22c
 1260 020f 06       		.uleb128 0x6
 1261 0210 1B040000 		.4byte	.LASF22
 1262 0214 05       		.byte	0x5
 1263 0215 62       		.byte	0x62
 1264 0216 2C020000 		.4byte	0x22c
 1265 021a 02       		.byte	0x2
 1266 021b 23       		.byte	0x23
 1267 021c 00       		.uleb128 0
 1268 021d 06       		.uleb128 0x6
 1269 021e 94030000 		.4byte	.LASF23
 1270 0222 05       		.byte	0x5
 1271 0223 64       		.byte	0x64
 1272 0224 2C020000 		.4byte	0x22c
 1273 0228 02       		.byte	0x2
 1274 0229 23       		.byte	0x23
 1275 022a 04       		.uleb128 0x4
 1276 022b 00       		.byte	0
 1277 022c 09       		.uleb128 0x9
 1278 022d 04       		.byte	0x4
 1279 022e F3000000 		.4byte	0xf3
 1280 0232 03       		.uleb128 0x3
 1281 0233 11030000 		.4byte	.LASF39
 1282 0237 05       		.byte	0x5
 1283 0238 66       		.byte	0x66
 1284 0239 07020000 		.4byte	0x207
 1285 023d 08       		.uleb128 0x8
 1286 023e 04       		.byte	0x4
 1287 023f 05       		.byte	0x5
 1288 0240 6B       		.byte	0x6b
ARM GAS  C:\Users\z80\AppData\Local\Temp\cctXg9Kf.s 			page 24


 1289 0241 54020000 		.4byte	0x254
 1290 0245 06       		.uleb128 0x6
 1291 0246 1B040000 		.4byte	.LASF22
 1292 024a 05       		.byte	0x5
 1293 024b 6D       		.byte	0x6d
 1294 024c 2C020000 		.4byte	0x22c
 1295 0250 02       		.byte	0x2
 1296 0251 23       		.byte	0x23
 1297 0252 00       		.uleb128 0
 1298 0253 00       		.byte	0
 1299 0254 03       		.uleb128 0x3
 1300 0255 88020000 		.4byte	.LASF40
 1301 0259 05       		.byte	0x5
 1302 025a 70       		.byte	0x70
 1303 025b 3D020000 		.4byte	0x23d
 1304 025f 03       		.uleb128 0x3
 1305 0260 CC010000 		.4byte	.LASF41
 1306 0264 07       		.byte	0x7
 1307 0265 D7       		.byte	0xd7
 1308 0266 6A020000 		.4byte	0x26a
 1309 026a 0A       		.uleb128 0xa
 1310 026b 04       		.byte	0x4
 1311 026c 03       		.uleb128 0x3
 1312 026d C1020000 		.4byte	.LASF42
 1313 0271 07       		.byte	0x7
 1314 0272 DD       		.byte	0xdd
 1315 0273 9F000000 		.4byte	0x9f
 1316 0277 05       		.uleb128 0x5
 1317 0278 14050000 		.4byte	.LASF43
 1318 027c 24       		.byte	0x24
 1319 027d 07       		.byte	0x7
 1320 027e FE       		.byte	0xfe
 1321 027f 04030000 		.4byte	0x304
 1322 0283 0B       		.uleb128 0xb
 1323 0284 723400   		.ascii	"r4\000"
 1324 0287 07       		.byte	0x7
 1325 0288 1101     		.2byte	0x111
 1326 028a 5F020000 		.4byte	0x25f
 1327 028e 02       		.byte	0x2
 1328 028f 23       		.byte	0x23
 1329 0290 00       		.uleb128 0
 1330 0291 0B       		.uleb128 0xb
 1331 0292 723500   		.ascii	"r5\000"
 1332 0295 07       		.byte	0x7
 1333 0296 1201     		.2byte	0x112
 1334 0298 5F020000 		.4byte	0x25f
 1335 029c 02       		.byte	0x2
 1336 029d 23       		.byte	0x23
 1337 029e 04       		.uleb128 0x4
 1338 029f 0B       		.uleb128 0xb
 1339 02a0 723600   		.ascii	"r6\000"
 1340 02a3 07       		.byte	0x7
 1341 02a4 1301     		.2byte	0x113
 1342 02a6 5F020000 		.4byte	0x25f
 1343 02aa 02       		.byte	0x2
 1344 02ab 23       		.byte	0x23
 1345 02ac 08       		.uleb128 0x8
ARM GAS  C:\Users\z80\AppData\Local\Temp\cctXg9Kf.s 			page 25


 1346 02ad 0B       		.uleb128 0xb
 1347 02ae 723700   		.ascii	"r7\000"
 1348 02b1 07       		.byte	0x7
 1349 02b2 1401     		.2byte	0x114
 1350 02b4 5F020000 		.4byte	0x25f
 1351 02b8 02       		.byte	0x2
 1352 02b9 23       		.byte	0x23
 1353 02ba 0C       		.uleb128 0xc
 1354 02bb 0B       		.uleb128 0xb
 1355 02bc 723800   		.ascii	"r8\000"
 1356 02bf 07       		.byte	0x7
 1357 02c0 1501     		.2byte	0x115
 1358 02c2 5F020000 		.4byte	0x25f
 1359 02c6 02       		.byte	0x2
 1360 02c7 23       		.byte	0x23
 1361 02c8 10       		.uleb128 0x10
 1362 02c9 0B       		.uleb128 0xb
 1363 02ca 723900   		.ascii	"r9\000"
 1364 02cd 07       		.byte	0x7
 1365 02ce 1601     		.2byte	0x116
 1366 02d0 5F020000 		.4byte	0x25f
 1367 02d4 02       		.byte	0x2
 1368 02d5 23       		.byte	0x23
 1369 02d6 14       		.uleb128 0x14
 1370 02d7 0B       		.uleb128 0xb
 1371 02d8 72313000 		.ascii	"r10\000"
 1372 02dc 07       		.byte	0x7
 1373 02dd 1701     		.2byte	0x117
 1374 02df 5F020000 		.4byte	0x25f
 1375 02e3 02       		.byte	0x2
 1376 02e4 23       		.byte	0x23
 1377 02e5 18       		.uleb128 0x18
 1378 02e6 0B       		.uleb128 0xb
 1379 02e7 72313100 		.ascii	"r11\000"
 1380 02eb 07       		.byte	0x7
 1381 02ec 1801     		.2byte	0x118
 1382 02ee 5F020000 		.4byte	0x25f
 1383 02f2 02       		.byte	0x2
 1384 02f3 23       		.byte	0x23
 1385 02f4 1C       		.uleb128 0x1c
 1386 02f5 0B       		.uleb128 0xb
 1387 02f6 6C7200   		.ascii	"lr\000"
 1388 02f9 07       		.byte	0x7
 1389 02fa 1901     		.2byte	0x119
 1390 02fc 5F020000 		.4byte	0x25f
 1391 0300 02       		.byte	0x2
 1392 0301 23       		.byte	0x23
 1393 0302 20       		.uleb128 0x20
 1394 0303 00       		.byte	0
 1395 0304 0C       		.uleb128 0xc
 1396 0305 0C050000 		.4byte	.LASF44
 1397 0309 04       		.byte	0x4
 1398 030a 07       		.byte	0x7
 1399 030b 2301     		.2byte	0x123
 1400 030d 21030000 		.4byte	0x321
 1401 0311 0B       		.uleb128 0xb
 1402 0312 72313300 		.ascii	"r13\000"
ARM GAS  C:\Users\z80\AppData\Local\Temp\cctXg9Kf.s 			page 26


 1403 0316 07       		.byte	0x7
 1404 0317 2401     		.2byte	0x124
 1405 0319 21030000 		.4byte	0x321
 1406 031d 02       		.byte	0x2
 1407 031e 23       		.byte	0x23
 1408 031f 00       		.uleb128 0
 1409 0320 00       		.byte	0
 1410 0321 09       		.uleb128 0x9
 1411 0322 04       		.byte	0x4
 1412 0323 77020000 		.4byte	0x277
 1413 0327 0D       		.uleb128 0xd
 1414 0328 86000000 		.4byte	0x86
 1415 032c 0D       		.uleb128 0xd
 1416 032d E8000000 		.4byte	0xe8
 1417 0331 05       		.uleb128 0x5
 1418 0332 F0020000 		.4byte	.LASF45
 1419 0336 10       		.byte	0x10
 1420 0337 08       		.byte	0x8
 1421 0338 2C       		.byte	0x2c
 1422 0339 68030000 		.4byte	0x368
 1423 033d 06       		.uleb128 0x6
 1424 033e 21010000 		.4byte	.LASF46
 1425 0342 08       		.byte	0x8
 1426 0343 2D       		.byte	0x2d
 1427 0344 32020000 		.4byte	0x232
 1428 0348 02       		.byte	0x2
 1429 0349 23       		.byte	0x23
 1430 034a 00       		.uleb128 0
 1431 034b 06       		.uleb128 0x6
 1432 034c 85050000 		.4byte	.LASF47
 1433 0350 08       		.byte	0x8
 1434 0351 2F       		.byte	0x2f
 1435 0352 2C020000 		.4byte	0x22c
 1436 0356 02       		.byte	0x2
 1437 0357 23       		.byte	0x23
 1438 0358 08       		.uleb128 0x8
 1439 0359 06       		.uleb128 0x6
 1440 035a DC040000 		.4byte	.LASF48
 1441 035e 08       		.byte	0x8
 1442 035f 31       		.byte	0x31
 1443 0360 68030000 		.4byte	0x368
 1444 0364 02       		.byte	0x2
 1445 0365 23       		.byte	0x23
 1446 0366 0C       		.uleb128 0xc
 1447 0367 00       		.byte	0
 1448 0368 09       		.uleb128 0x9
 1449 0369 04       		.byte	0x4
 1450 036a 31030000 		.4byte	0x331
 1451 036e 03       		.uleb128 0x3
 1452 036f F0020000 		.4byte	.LASF45
 1453 0373 08       		.byte	0x8
 1454 0374 33       		.byte	0x33
 1455 0375 31030000 		.4byte	0x331
 1456 0379 0E       		.uleb128 0xe
 1457 037a 04       		.byte	0x4
 1458 037b 06       		.byte	0x6
 1459 037c 90       		.byte	0x90
ARM GAS  C:\Users\z80\AppData\Local\Temp\cctXg9Kf.s 			page 27


 1460 037d AE030000 		.4byte	0x3ae
 1461 0381 0F       		.uleb128 0xf
 1462 0382 0D000000 		.4byte	.LASF49
 1463 0386 06       		.byte	0x6
 1464 0387 97       		.byte	0x97
 1465 0388 D2000000 		.4byte	0xd2
 1466 038c 0F       		.uleb128 0xf
 1467 038d 7C000000 		.4byte	.LASF50
 1468 0391 06       		.byte	0x6
 1469 0392 9E       		.byte	0x9e
 1470 0393 D2000000 		.4byte	0xd2
 1471 0397 0F       		.uleb128 0xf
 1472 0398 67050000 		.4byte	.LASF51
 1473 039c 06       		.byte	0x6
 1474 039d A5       		.byte	0xa5
 1475 039e 6A020000 		.4byte	0x26a
 1476 03a2 0F       		.uleb128 0xf
 1477 03a3 14040000 		.4byte	.LASF52
 1478 03a7 06       		.byte	0x6
 1479 03a8 AC       		.byte	0xac
 1480 03a9 DD000000 		.4byte	0xdd
 1481 03ad 00       		.byte	0
 1482 03ae 09       		.uleb128 0x9
 1483 03af 04       		.byte	0x4
 1484 03b0 B4030000 		.4byte	0x3b4
 1485 03b4 10       		.uleb128 0x10
 1486 03b5 B9030000 		.4byte	0x3b9
 1487 03b9 04       		.uleb128 0x4
 1488 03ba 01       		.byte	0x1
 1489 03bb 08       		.byte	0x8
 1490 03bc AC040000 		.4byte	.LASF53
 1491 03c0 09       		.uleb128 0x9
 1492 03c1 04       		.byte	0x4
 1493 03c2 6C020000 		.4byte	0x26c
 1494 03c6 09       		.uleb128 0x9
 1495 03c7 04       		.byte	0x4
 1496 03c8 6E030000 		.4byte	0x36e
 1497 03cc 03       		.uleb128 0x3
 1498 03cd B4020000 		.4byte	.LASF54
 1499 03d1 09       		.byte	0x9
 1500 03d2 37       		.byte	0x37
 1501 03d3 D7030000 		.4byte	0x3d7
 1502 03d7 05       		.uleb128 0x5
 1503 03d8 B4020000 		.4byte	.LASF54
 1504 03dc 20       		.byte	0x20
 1505 03dd 09       		.byte	0x9
 1506 03de 45       		.byte	0x45
 1507 03df 46040000 		.4byte	0x446
 1508 03e3 06       		.uleb128 0x6
 1509 03e4 DB000000 		.4byte	.LASF55
 1510 03e8 09       		.byte	0x9
 1511 03e9 46       		.byte	0x46
 1512 03ea 32020000 		.4byte	0x232
 1513 03ee 02       		.byte	0x2
 1514 03ef 23       		.byte	0x23
 1515 03f0 00       		.uleb128 0
 1516 03f1 06       		.uleb128 0x6
ARM GAS  C:\Users\z80\AppData\Local\Temp\cctXg9Kf.s 			page 28


 1517 03f2 E6020000 		.4byte	.LASF56
 1518 03f6 09       		.byte	0x9
 1519 03f7 47       		.byte	0x47
 1520 03f8 30000000 		.4byte	0x30
 1521 03fc 02       		.byte	0x2
 1522 03fd 23       		.byte	0x23
 1523 03fe 08       		.uleb128 0x8
 1524 03ff 06       		.uleb128 0x6
 1525 0400 82010000 		.4byte	.LASF57
 1526 0404 09       		.byte	0x9
 1527 0405 48       		.byte	0x48
 1528 0406 69040000 		.4byte	0x469
 1529 040a 02       		.byte	0x2
 1530 040b 23       		.byte	0x23
 1531 040c 0C       		.uleb128 0xc
 1532 040d 06       		.uleb128 0x6
 1533 040e 30050000 		.4byte	.LASF58
 1534 0412 09       		.byte	0x9
 1535 0413 49       		.byte	0x49
 1536 0414 69040000 		.4byte	0x469
 1537 0418 02       		.byte	0x2
 1538 0419 23       		.byte	0x23
 1539 041a 10       		.uleb128 0x10
 1540 041b 06       		.uleb128 0x6
 1541 041c 8B010000 		.4byte	.LASF59
 1542 0420 09       		.byte	0x9
 1543 0421 4B       		.byte	0x4b
 1544 0422 69040000 		.4byte	0x469
 1545 0426 02       		.byte	0x2
 1546 0427 23       		.byte	0x23
 1547 0428 14       		.uleb128 0x14
 1548 0429 06       		.uleb128 0x6
 1549 042a C1030000 		.4byte	.LASF60
 1550 042e 09       		.byte	0x9
 1551 042f 4C       		.byte	0x4c
 1552 0430 69040000 		.4byte	0x469
 1553 0434 02       		.byte	0x2
 1554 0435 23       		.byte	0x23
 1555 0436 18       		.uleb128 0x18
 1556 0437 06       		.uleb128 0x6
 1557 0438 4B050000 		.4byte	.LASF61
 1558 043c 09       		.byte	0x9
 1559 043d 4D       		.byte	0x4d
 1560 043e 46040000 		.4byte	0x446
 1561 0442 02       		.byte	0x2
 1562 0443 23       		.byte	0x23
 1563 0444 1C       		.uleb128 0x1c
 1564 0445 00       		.byte	0
 1565 0446 03       		.uleb128 0x3
 1566 0447 AA020000 		.4byte	.LASF62
 1567 044b 09       		.byte	0x9
 1568 044c 3A       		.byte	0x3a
 1569 044d 51040000 		.4byte	0x451
 1570 0451 09       		.uleb128 0x9
 1571 0452 04       		.byte	0x4
 1572 0453 57040000 		.4byte	0x457
 1573 0457 11       		.uleb128 0x11
ARM GAS  C:\Users\z80\AppData\Local\Temp\cctXg9Kf.s 			page 29


 1574 0458 01       		.byte	0x1
 1575 0459 63040000 		.4byte	0x463
 1576 045d 12       		.uleb128 0x12
 1577 045e 63040000 		.4byte	0x463
 1578 0462 00       		.byte	0
 1579 0463 09       		.uleb128 0x9
 1580 0464 04       		.byte	0x4
 1581 0465 CC030000 		.4byte	0x3cc
 1582 0469 09       		.uleb128 0x9
 1583 046a 04       		.byte	0x4
 1584 046b 49000000 		.4byte	0x49
 1585 046f 03       		.uleb128 0x3
 1586 0470 5C050000 		.4byte	.LASF63
 1587 0474 09       		.byte	0x9
 1588 0475 76       		.byte	0x76
 1589 0476 CC030000 		.4byte	0x3cc
 1590 047a 0D       		.uleb128 0xd
 1591 047b 62000000 		.4byte	0x62
 1592 047f 0D       		.uleb128 0xd
 1593 0480 74000000 		.4byte	0x74
 1594 0484 13       		.uleb128 0x13
 1595 0485 10       		.byte	0x10
 1596 0486 0A       		.byte	0xa
 1597 0487 2D03     		.2byte	0x32d
 1598 0489 CA040000 		.4byte	0x4ca
 1599 048d 0B       		.uleb128 0xb
 1600 048e 43435200 		.ascii	"CCR\000"
 1601 0492 0A       		.byte	0xa
 1602 0493 2F03     		.2byte	0x32f
 1603 0495 27030000 		.4byte	0x327
 1604 0499 02       		.byte	0x2
 1605 049a 23       		.byte	0x23
 1606 049b 00       		.uleb128 0
 1607 049c 14       		.uleb128 0x14
 1608 049d 40050000 		.4byte	.LASF64
 1609 04a1 0A       		.byte	0xa
 1610 04a2 3003     		.2byte	0x330
 1611 04a4 27030000 		.4byte	0x327
 1612 04a8 02       		.byte	0x2
 1613 04a9 23       		.byte	0x23
 1614 04aa 04       		.uleb128 0x4
 1615 04ab 14       		.uleb128 0x14
 1616 04ac 2C020000 		.4byte	.LASF65
 1617 04b0 0A       		.byte	0xa
 1618 04b1 3103     		.2byte	0x331
 1619 04b3 27030000 		.4byte	0x327
 1620 04b7 02       		.byte	0x2
 1621 04b8 23       		.byte	0x23
 1622 04b9 08       		.uleb128 0x8
 1623 04ba 14       		.uleb128 0x14
 1624 04bb 46050000 		.4byte	.LASF66
 1625 04bf 0A       		.byte	0xa
 1626 04c0 3203     		.2byte	0x332
 1627 04c2 27030000 		.4byte	0x327
 1628 04c6 02       		.byte	0x2
 1629 04c7 23       		.byte	0x23
 1630 04c8 0C       		.uleb128 0xc
ARM GAS  C:\Users\z80\AppData\Local\Temp\cctXg9Kf.s 			page 30


 1631 04c9 00       		.byte	0
 1632 04ca 15       		.uleb128 0x15
 1633 04cb 43030000 		.4byte	.LASF67
 1634 04cf 0A       		.byte	0xa
 1635 04d0 3303     		.2byte	0x333
 1636 04d2 84040000 		.4byte	0x484
 1637 04d6 13       		.uleb128 0x13
 1638 04d7 1C       		.byte	0x1c
 1639 04d8 0A       		.byte	0xa
 1640 04d9 F803     		.2byte	0x3f8
 1641 04db 49050000 		.4byte	0x549
 1642 04df 0B       		.uleb128 0xb
 1643 04e0 43524C00 		.ascii	"CRL\000"
 1644 04e4 0A       		.byte	0xa
 1645 04e5 FA03     		.2byte	0x3fa
 1646 04e7 27030000 		.4byte	0x327
 1647 04eb 02       		.byte	0x2
 1648 04ec 23       		.byte	0x23
 1649 04ed 00       		.uleb128 0
 1650 04ee 0B       		.uleb128 0xb
 1651 04ef 43524800 		.ascii	"CRH\000"
 1652 04f3 0A       		.byte	0xa
 1653 04f4 FB03     		.2byte	0x3fb
 1654 04f6 27030000 		.4byte	0x327
 1655 04fa 02       		.byte	0x2
 1656 04fb 23       		.byte	0x23
 1657 04fc 04       		.uleb128 0x4
 1658 04fd 0B       		.uleb128 0xb
 1659 04fe 49445200 		.ascii	"IDR\000"
 1660 0502 0A       		.byte	0xa
 1661 0503 FC03     		.2byte	0x3fc
 1662 0505 27030000 		.4byte	0x327
 1663 0509 02       		.byte	0x2
 1664 050a 23       		.byte	0x23
 1665 050b 08       		.uleb128 0x8
 1666 050c 0B       		.uleb128 0xb
 1667 050d 4F445200 		.ascii	"ODR\000"
 1668 0511 0A       		.byte	0xa
 1669 0512 FD03     		.2byte	0x3fd
 1670 0514 27030000 		.4byte	0x327
 1671 0518 02       		.byte	0x2
 1672 0519 23       		.byte	0x23
 1673 051a 0C       		.uleb128 0xc
 1674 051b 14       		.uleb128 0x14
 1675 051c 36050000 		.4byte	.LASF68
 1676 0520 0A       		.byte	0xa
 1677 0521 FE03     		.2byte	0x3fe
 1678 0523 27030000 		.4byte	0x327
 1679 0527 02       		.byte	0x2
 1680 0528 23       		.byte	0x23
 1681 0529 10       		.uleb128 0x10
 1682 052a 0B       		.uleb128 0xb
 1683 052b 42525200 		.ascii	"BRR\000"
 1684 052f 0A       		.byte	0xa
 1685 0530 FF03     		.2byte	0x3ff
 1686 0532 27030000 		.4byte	0x327
 1687 0536 02       		.byte	0x2
ARM GAS  C:\Users\z80\AppData\Local\Temp\cctXg9Kf.s 			page 31


 1688 0537 23       		.byte	0x23
 1689 0538 14       		.uleb128 0x14
 1690 0539 14       		.uleb128 0x14
 1691 053a 49020000 		.4byte	.LASF69
 1692 053e 0A       		.byte	0xa
 1693 053f 0004     		.2byte	0x400
 1694 0541 27030000 		.4byte	0x327
 1695 0545 02       		.byte	0x2
 1696 0546 23       		.byte	0x23
 1697 0547 18       		.uleb128 0x18
 1698 0548 00       		.byte	0
 1699 0549 15       		.uleb128 0x15
 1700 054a 3C020000 		.4byte	.LASF70
 1701 054e 0A       		.byte	0xa
 1702 054f 0104     		.2byte	0x401
 1703 0551 D6040000 		.4byte	0x4d6
 1704 0555 13       		.uleb128 0x13
 1705 0556 24       		.byte	0x24
 1706 0557 0A       		.byte	0xa
 1707 0558 9704     		.2byte	0x497
 1708 055a 6B060000 		.4byte	0x66b
 1709 055e 0B       		.uleb128 0xb
 1710 055f 43523100 		.ascii	"CR1\000"
 1711 0563 0A       		.byte	0xa
 1712 0564 9904     		.2byte	0x499
 1713 0566 7A040000 		.4byte	0x47a
 1714 056a 02       		.byte	0x2
 1715 056b 23       		.byte	0x23
 1716 056c 00       		.uleb128 0
 1717 056d 14       		.uleb128 0x14
 1718 056e 62030000 		.4byte	.LASF71
 1719 0572 0A       		.byte	0xa
 1720 0573 9A04     		.2byte	0x49a
 1721 0575 62000000 		.4byte	0x62
 1722 0579 02       		.byte	0x2
 1723 057a 23       		.byte	0x23
 1724 057b 02       		.uleb128 0x2
 1725 057c 0B       		.uleb128 0xb
 1726 057d 43523200 		.ascii	"CR2\000"
 1727 0581 0A       		.byte	0xa
 1728 0582 9B04     		.2byte	0x49b
 1729 0584 7A040000 		.4byte	0x47a
 1730 0588 02       		.byte	0x2
 1731 0589 23       		.byte	0x23
 1732 058a 04       		.uleb128 0x4
 1733 058b 14       		.uleb128 0x14
 1734 058c 6C030000 		.4byte	.LASF72
 1735 0590 0A       		.byte	0xa
 1736 0591 9C04     		.2byte	0x49c
 1737 0593 62000000 		.4byte	0x62
 1738 0597 02       		.byte	0x2
 1739 0598 23       		.byte	0x23
 1740 0599 06       		.uleb128 0x6
 1741 059a 0B       		.uleb128 0xb
 1742 059b 535200   		.ascii	"SR\000"
 1743 059e 0A       		.byte	0xa
 1744 059f 9D04     		.2byte	0x49d
ARM GAS  C:\Users\z80\AppData\Local\Temp\cctXg9Kf.s 			page 32


 1745 05a1 7A040000 		.4byte	0x47a
 1746 05a5 02       		.byte	0x2
 1747 05a6 23       		.byte	0x23
 1748 05a7 08       		.uleb128 0x8
 1749 05a8 14       		.uleb128 0x14
 1750 05a9 76030000 		.4byte	.LASF73
 1751 05ad 0A       		.byte	0xa
 1752 05ae 9E04     		.2byte	0x49e
 1753 05b0 62000000 		.4byte	0x62
 1754 05b4 02       		.byte	0x2
 1755 05b5 23       		.byte	0x23
 1756 05b6 0A       		.uleb128 0xa
 1757 05b7 0B       		.uleb128 0xb
 1758 05b8 445200   		.ascii	"DR\000"
 1759 05bb 0A       		.byte	0xa
 1760 05bc 9F04     		.2byte	0x49f
 1761 05be 7A040000 		.4byte	0x47a
 1762 05c2 02       		.byte	0x2
 1763 05c3 23       		.byte	0x23
 1764 05c4 0C       		.uleb128 0xc
 1765 05c5 14       		.uleb128 0x14
 1766 05c6 80030000 		.4byte	.LASF74
 1767 05ca 0A       		.byte	0xa
 1768 05cb A004     		.2byte	0x4a0
 1769 05cd 62000000 		.4byte	0x62
 1770 05d1 02       		.byte	0x2
 1771 05d2 23       		.byte	0x23
 1772 05d3 0E       		.uleb128 0xe
 1773 05d4 14       		.uleb128 0x14
 1774 05d5 76000000 		.4byte	.LASF75
 1775 05d9 0A       		.byte	0xa
 1776 05da A104     		.2byte	0x4a1
 1777 05dc 7A040000 		.4byte	0x47a
 1778 05e0 02       		.byte	0x2
 1779 05e1 23       		.byte	0x23
 1780 05e2 10       		.uleb128 0x10
 1781 05e3 14       		.uleb128 0x14
 1782 05e4 8A030000 		.4byte	.LASF76
 1783 05e8 0A       		.byte	0xa
 1784 05e9 A204     		.2byte	0x4a2
 1785 05eb 62000000 		.4byte	0x62
 1786 05ef 02       		.byte	0x2
 1787 05f0 23       		.byte	0x23
 1788 05f1 12       		.uleb128 0x12
 1789 05f2 14       		.uleb128 0x14
 1790 05f3 7B040000 		.4byte	.LASF77
 1791 05f7 0A       		.byte	0xa
 1792 05f8 A304     		.2byte	0x4a3
 1793 05fa 7A040000 		.4byte	0x47a
 1794 05fe 02       		.byte	0x2
 1795 05ff 23       		.byte	0x23
 1796 0600 14       		.uleb128 0x14
 1797 0601 14       		.uleb128 0x14
 1798 0602 59040000 		.4byte	.LASF78
 1799 0606 0A       		.byte	0xa
 1800 0607 A404     		.2byte	0x4a4
 1801 0609 62000000 		.4byte	0x62
ARM GAS  C:\Users\z80\AppData\Local\Temp\cctXg9Kf.s 			page 33


 1802 060d 02       		.byte	0x2
 1803 060e 23       		.byte	0x23
 1804 060f 16       		.uleb128 0x16
 1805 0610 14       		.uleb128 0x14
 1806 0611 C4040000 		.4byte	.LASF79
 1807 0615 0A       		.byte	0xa
 1808 0616 A504     		.2byte	0x4a5
 1809 0618 7A040000 		.4byte	0x47a
 1810 061c 02       		.byte	0x2
 1811 061d 23       		.byte	0x23
 1812 061e 18       		.uleb128 0x18
 1813 061f 14       		.uleb128 0x14
 1814 0620 9B030000 		.4byte	.LASF80
 1815 0624 0A       		.byte	0xa
 1816 0625 A604     		.2byte	0x4a6
 1817 0627 62000000 		.4byte	0x62
 1818 062b 02       		.byte	0x2
 1819 062c 23       		.byte	0x23
 1820 062d 1A       		.uleb128 0x1a
 1821 062e 14       		.uleb128 0x14
 1822 062f 19010000 		.4byte	.LASF81
 1823 0633 0A       		.byte	0xa
 1824 0634 A704     		.2byte	0x4a7
 1825 0636 7A040000 		.4byte	0x47a
 1826 063a 02       		.byte	0x2
 1827 063b 23       		.byte	0x23
 1828 063c 1C       		.uleb128 0x1c
 1829 063d 14       		.uleb128 0x14
 1830 063e A5030000 		.4byte	.LASF82
 1831 0642 0A       		.byte	0xa
 1832 0643 A804     		.2byte	0x4a8
 1833 0645 62000000 		.4byte	0x62
 1834 0649 02       		.byte	0x2
 1835 064a 23       		.byte	0x23
 1836 064b 1E       		.uleb128 0x1e
 1837 064c 14       		.uleb128 0x14
 1838 064d E0020000 		.4byte	.LASF83
 1839 0651 0A       		.byte	0xa
 1840 0652 A904     		.2byte	0x4a9
 1841 0654 7A040000 		.4byte	0x47a
 1842 0658 02       		.byte	0x2
 1843 0659 23       		.byte	0x23
 1844 065a 20       		.uleb128 0x20
 1845 065b 14       		.uleb128 0x14
 1846 065c AF030000 		.4byte	.LASF84
 1847 0660 0A       		.byte	0xa
 1848 0661 AA04     		.2byte	0x4aa
 1849 0663 62000000 		.4byte	0x62
 1850 0667 02       		.byte	0x2
 1851 0668 23       		.byte	0x23
 1852 0669 22       		.uleb128 0x22
 1853 066a 00       		.byte	0
 1854 066b 15       		.uleb128 0x15
 1855 066c A0040000 		.4byte	.LASF85
 1856 0670 0A       		.byte	0xa
 1857 0671 AB04     		.2byte	0x4ab
 1858 0673 55050000 		.4byte	0x555
ARM GAS  C:\Users\z80\AppData\Local\Temp\cctXg9Kf.s 			page 34


 1859 0677 08       		.uleb128 0x8
 1860 0678 0C       		.byte	0xc
 1861 0679 0B       		.byte	0xb
 1862 067a C2       		.byte	0xc2
 1863 067b C6060000 		.4byte	0x6c6
 1864 067f 06       		.uleb128 0x6
 1865 0680 38040000 		.4byte	.LASF86
 1866 0684 0B       		.byte	0xb
 1867 0685 C3       		.byte	0xc3
 1868 0686 C6060000 		.4byte	0x6c6
 1869 068a 02       		.byte	0x2
 1870 068b 23       		.byte	0x23
 1871 068c 00       		.uleb128 0
 1872 068d 06       		.uleb128 0x6
 1873 068e 57030000 		.4byte	.LASF87
 1874 0692 0B       		.byte	0xb
 1875 0693 C4       		.byte	0xc4
 1876 0694 CC060000 		.4byte	0x6cc
 1877 0698 02       		.byte	0x2
 1878 0699 23       		.byte	0x23
 1879 069a 04       		.uleb128 0x4
 1880 069b 06       		.uleb128 0x6
 1881 069c 4E020000 		.4byte	.LASF88
 1882 06a0 0B       		.byte	0xb
 1883 06a1 C5       		.byte	0xc5
 1884 06a2 49000000 		.4byte	0x49
 1885 06a6 02       		.byte	0x2
 1886 06a7 23       		.byte	0x23
 1887 06a8 08       		.uleb128 0x8
 1888 06a9 06       		.uleb128 0x6
 1889 06aa D5010000 		.4byte	.LASF89
 1890 06ae 0B       		.byte	0xb
 1891 06af C7       		.byte	0xc7
 1892 06b0 49000000 		.4byte	0x49
 1893 06b4 02       		.byte	0x2
 1894 06b5 23       		.byte	0x23
 1895 06b6 09       		.uleb128 0x9
 1896 06b7 06       		.uleb128 0x6
 1897 06b8 85000000 		.4byte	.LASF90
 1898 06bc 0B       		.byte	0xb
 1899 06bd C8       		.byte	0xc8
 1900 06be 49000000 		.4byte	0x49
 1901 06c2 02       		.byte	0x2
 1902 06c3 23       		.byte	0x23
 1903 06c4 0A       		.uleb128 0xa
 1904 06c5 00       		.byte	0
 1905 06c6 09       		.uleb128 0x9
 1906 06c7 04       		.byte	0x4
 1907 06c8 CA040000 		.4byte	0x4ca
 1908 06cc 09       		.uleb128 0x9
 1909 06cd 04       		.byte	0x4
 1910 06ce 27030000 		.4byte	0x327
 1911 06d2 03       		.uleb128 0x3
 1912 06d3 DF030000 		.4byte	.LASF91
 1913 06d7 0B       		.byte	0xb
 1914 06d8 C9       		.byte	0xc9
 1915 06d9 77060000 		.4byte	0x677
ARM GAS  C:\Users\z80\AppData\Local\Temp\cctXg9Kf.s 			page 35


 1916 06dd 03       		.uleb128 0x3
 1917 06de 45000000 		.4byte	.LASF92
 1918 06e2 0C       		.byte	0xc
 1919 06e3 78       		.byte	0x78
 1920 06e4 86000000 		.4byte	0x86
 1921 06e8 03       		.uleb128 0x3
 1922 06e9 01050000 		.4byte	.LASF93
 1923 06ed 0C       		.byte	0xc
 1924 06ee 85       		.byte	0x85
 1925 06ef F3060000 		.4byte	0x6f3
 1926 06f3 09       		.uleb128 0x9
 1927 06f4 04       		.byte	0x4
 1928 06f5 49050000 		.4byte	0x549
 1929 06f9 09       		.uleb128 0x9
 1930 06fa 04       		.byte	0x4
 1931 06fb FF060000 		.4byte	0x6ff
 1932 06ff 10       		.uleb128 0x10
 1933 0700 D2060000 		.4byte	0x6d2
 1934 0704 16       		.uleb128 0x16
 1935 0705 01       		.byte	0x1
 1936 0706 0D       		.byte	0xd
 1937 0707 55       		.byte	0x55
 1938 0708 2B070000 		.4byte	0x72b
 1939 070c 17       		.uleb128 0x17
 1940 070d 25050000 		.4byte	.LASF94
 1941 0711 00       		.sleb128 0
 1942 0712 17       		.uleb128 0x17
 1943 0713 10010000 		.4byte	.LASF95
 1944 0717 01       		.sleb128 1
 1945 0718 17       		.uleb128 0x17
 1946 0719 1B050000 		.4byte	.LASF96
 1947 071d 02       		.sleb128 2
 1948 071e 17       		.uleb128 0x17
 1949 071f 2F000000 		.4byte	.LASF97
 1950 0723 03       		.sleb128 3
 1951 0724 17       		.uleb128 0x17
 1952 0725 8C000000 		.4byte	.LASF98
 1953 0729 04       		.sleb128 4
 1954 072a 00       		.byte	0
 1955 072b 03       		.uleb128 0x3
 1956 072c D1040000 		.4byte	.LASF99
 1957 0730 0D       		.byte	0xd
 1958 0731 5B       		.byte	0x5b
 1959 0732 04070000 		.4byte	0x704
 1960 0736 15       		.uleb128 0x15
 1961 0737 99000000 		.4byte	.LASF100
 1962 073b 0E       		.byte	0xe
 1963 073c 0701     		.2byte	0x107
 1964 073e 42070000 		.4byte	0x742
 1965 0742 0C       		.uleb128 0xc
 1966 0743 99000000 		.4byte	.LASF100
 1967 0747 1C       		.byte	0x1c
 1968 0748 0E       		.byte	0xe
 1969 0749 2B01     		.2byte	0x12b
 1970 074b B9070000 		.4byte	0x7b9
 1971 074f 14       		.uleb128 0x14
 1972 0750 6A010000 		.4byte	.LASF101
ARM GAS  C:\Users\z80\AppData\Local\Temp\cctXg9Kf.s 			page 36


 1973 0754 0E       		.byte	0xe
 1974 0755 2F01     		.2byte	0x12f
 1975 0757 2B070000 		.4byte	0x72b
 1976 075b 02       		.byte	0x2
 1977 075c 23       		.byte	0x23
 1978 075d 00       		.uleb128 0
 1979 075e 14       		.uleb128 0x14
 1980 075f BD040000 		.4byte	.LASF102
 1981 0763 0E       		.byte	0xe
 1982 0764 3301     		.2byte	0x133
 1983 0766 2F080000 		.4byte	0x82f
 1984 076a 02       		.byte	0x2
 1985 076b 23       		.byte	0x23
 1986 076c 04       		.uleb128 0x4
 1987 076d 0B       		.uleb128 0xb
 1988 076e 73706900 		.ascii	"spi\000"
 1989 0772 0E       		.byte	0xe
 1990 0773 4B01     		.2byte	0x14b
 1991 0775 3A080000 		.4byte	0x83a
 1992 0779 02       		.byte	0x2
 1993 077a 23       		.byte	0x23
 1994 077b 08       		.uleb128 0x8
 1995 077c 14       		.uleb128 0x14
 1996 077d 00000000 		.4byte	.LASF103
 1997 0781 0E       		.byte	0xe
 1998 0782 4F01     		.2byte	0x14f
 1999 0784 F9060000 		.4byte	0x6f9
 2000 0788 02       		.byte	0x2
 2001 0789 23       		.byte	0x23
 2002 078a 0C       		.uleb128 0xc
 2003 078b 14       		.uleb128 0x14
 2004 078c 5C030000 		.4byte	.LASF104
 2005 0790 0E       		.byte	0xe
 2006 0791 5301     		.2byte	0x153
 2007 0793 F9060000 		.4byte	0x6f9
 2008 0797 02       		.byte	0x2
 2009 0798 23       		.byte	0x23
 2010 0799 10       		.uleb128 0x10
 2011 079a 14       		.uleb128 0x14
 2012 079b A9010000 		.4byte	.LASF105
 2013 079f 0E       		.byte	0xe
 2014 07a0 5701     		.2byte	0x157
 2015 07a2 86000000 		.4byte	0x86
 2016 07a6 02       		.byte	0x2
 2017 07a7 23       		.byte	0x23
 2018 07a8 14       		.uleb128 0x14
 2019 07a9 14       		.uleb128 0x14
 2020 07aa 1E030000 		.4byte	.LASF106
 2021 07ae 0E       		.byte	0xe
 2022 07af 5B01     		.2byte	0x15b
 2023 07b1 86000000 		.4byte	0x86
 2024 07b5 02       		.byte	0x2
 2025 07b6 23       		.byte	0x23
 2026 07b7 18       		.uleb128 0x18
 2027 07b8 00       		.byte	0
 2028 07b9 15       		.uleb128 0x15
 2029 07ba DF010000 		.4byte	.LASF107
ARM GAS  C:\Users\z80\AppData\Local\Temp\cctXg9Kf.s 			page 37


 2030 07be 0E       		.byte	0xe
 2031 07bf 0F01     		.2byte	0x10f
 2032 07c1 C5070000 		.4byte	0x7c5
 2033 07c5 09       		.uleb128 0x9
 2034 07c6 04       		.byte	0x4
 2035 07c7 CB070000 		.4byte	0x7cb
 2036 07cb 11       		.uleb128 0x11
 2037 07cc 01       		.byte	0x1
 2038 07cd D7070000 		.4byte	0x7d7
 2039 07d1 12       		.uleb128 0x12
 2040 07d2 D7070000 		.4byte	0x7d7
 2041 07d6 00       		.byte	0
 2042 07d7 09       		.uleb128 0x9
 2043 07d8 04       		.byte	0x4
 2044 07d9 36070000 		.4byte	0x736
 2045 07dd 13       		.uleb128 0x13
 2046 07de 0C       		.byte	0xc
 2047 07df 0E       		.byte	0xe
 2048 07e0 1401     		.2byte	0x114
 2049 07e2 23080000 		.4byte	0x823
 2050 07e6 14       		.uleb128 0x14
 2051 07e7 A2010000 		.4byte	.LASF108
 2052 07eb 0E       		.byte	0xe
 2053 07ec 1801     		.2byte	0x118
 2054 07ee B9070000 		.4byte	0x7b9
 2055 07f2 02       		.byte	0x2
 2056 07f3 23       		.byte	0x23
 2057 07f4 00       		.uleb128 0
 2058 07f5 14       		.uleb128 0x14
 2059 07f6 A3000000 		.4byte	.LASF109
 2060 07fa 0E       		.byte	0xe
 2061 07fb 1D01     		.2byte	0x11d
 2062 07fd E8060000 		.4byte	0x6e8
 2063 0801 02       		.byte	0x2
 2064 0802 23       		.byte	0x23
 2065 0803 04       		.uleb128 0x4
 2066 0804 14       		.uleb128 0x14
 2067 0805 59000000 		.4byte	.LASF110
 2068 0809 0E       		.byte	0xe
 2069 080a 2101     		.2byte	0x121
 2070 080c 62000000 		.4byte	0x62
 2071 0810 02       		.byte	0x2
 2072 0811 23       		.byte	0x23
 2073 0812 08       		.uleb128 0x8
 2074 0813 0B       		.uleb128 0xb
 2075 0814 63723100 		.ascii	"cr1\000"
 2076 0818 0E       		.byte	0xe
 2077 0819 2501     		.2byte	0x125
 2078 081b 62000000 		.4byte	0x62
 2079 081f 02       		.byte	0x2
 2080 0820 23       		.byte	0x23
 2081 0821 0A       		.uleb128 0xa
 2082 0822 00       		.byte	0
 2083 0823 15       		.uleb128 0x15
 2084 0824 75050000 		.4byte	.LASF111
 2085 0828 0E       		.byte	0xe
 2086 0829 2601     		.2byte	0x126
ARM GAS  C:\Users\z80\AppData\Local\Temp\cctXg9Kf.s 			page 38


 2087 082b DD070000 		.4byte	0x7dd
 2088 082f 09       		.uleb128 0x9
 2089 0830 04       		.byte	0x4
 2090 0831 35080000 		.4byte	0x835
 2091 0835 10       		.uleb128 0x10
 2092 0836 23080000 		.4byte	0x823
 2093 083a 09       		.uleb128 0x9
 2094 083b 04       		.byte	0x4
 2095 083c 6B060000 		.4byte	0x66b
 2096 0840 18       		.uleb128 0x18
 2097 0841 28030000 		.4byte	.LASF114
 2098 0845 01       		.byte	0x1
 2099 0846 A7       		.byte	0xa7
 2100 0847 01       		.byte	0x1
 2101 0848 01       		.byte	0x1
 2102 0849 59080000 		.4byte	0x859
 2103 084d 19       		.uleb128 0x19
 2104 084e CB040000 		.4byte	.LASF112
 2105 0852 01       		.byte	0x1
 2106 0853 A7       		.byte	0xa7
 2107 0854 29000000 		.4byte	0x29
 2108 0858 00       		.byte	0
 2109 0859 1A       		.uleb128 0x1a
 2110 085a 01       		.byte	0x1
 2111 085b 37030000 		.4byte	.LASF143
 2112 085f 01       		.byte	0x1
 2113 0860 CC       		.byte	0xcc
 2114 0861 01       		.byte	0x1
 2115 0862 01       		.byte	0x1
 2116 0863 73080000 		.4byte	0x873
 2117 0867 19       		.uleb128 0x19
 2118 0868 CC020000 		.4byte	.LASF113
 2119 086c 01       		.byte	0x1
 2120 086d CC       		.byte	0xcc
 2121 086e 73080000 		.4byte	0x873
 2122 0872 00       		.byte	0
 2123 0873 09       		.uleb128 0x9
 2124 0874 04       		.byte	0x4
 2125 0875 29000000 		.4byte	0x29
 2126 0879 18       		.uleb128 0x18
 2127 087a 07030000 		.4byte	.LASF115
 2128 087e 01       		.byte	0x1
 2129 087f EB       		.byte	0xeb
 2130 0880 01       		.byte	0x1
 2131 0881 01       		.byte	0x1
 2132 0882 DB080000 		.4byte	0x8db
 2133 0886 19       		.uleb128 0x19
 2134 0887 CB040000 		.4byte	.LASF112
 2135 088b 01       		.byte	0x1
 2136 088c EB       		.byte	0xeb
 2137 088d 49000000 		.4byte	0x49
 2138 0891 19       		.uleb128 0x19
 2139 0892 ED010000 		.4byte	.LASF116
 2140 0896 01       		.byte	0x1
 2141 0897 EB       		.byte	0xeb
 2142 0898 29000000 		.4byte	0x29
 2143 089c 1B       		.uleb128 0x1b
ARM GAS  C:\Users\z80\AppData\Local\Temp\cctXg9Kf.s 			page 39


 2144 089d 72617700 		.ascii	"raw\000"
 2145 08a1 01       		.byte	0x1
 2146 08a2 ED       		.byte	0xed
 2147 08a3 73080000 		.4byte	0x873
 2148 08a7 1B       		.uleb128 0x1b
 2149 08a8 70747200 		.ascii	"ptr\000"
 2150 08ac 01       		.byte	0x1
 2151 08ad EE       		.byte	0xee
 2152 08ae 69040000 		.4byte	0x469
 2153 08b2 1C       		.uleb128 0x1c
 2154 08b3 F8040000 		.4byte	.LASF117
 2155 08b7 01       		.byte	0x1
 2156 08b8 F2       		.byte	0xf2
 2157 08b9 73080000 		.4byte	0x873
 2158 08bd 1B       		.uleb128 0x1b
 2159 08be 6900     		.ascii	"i\000"
 2160 08c0 01       		.byte	0x1
 2161 08c1 F3       		.byte	0xf3
 2162 08c2 49000000 		.4byte	0x49
 2163 08c6 1B       		.uleb128 0x1b
 2164 08c7 6A00     		.ascii	"j\000"
 2165 08c9 01       		.byte	0x1
 2166 08ca F3       		.byte	0xf3
 2167 08cb 49000000 		.4byte	0x49
 2168 08cf 1D       		.uleb128 0x1d
 2169 08d0 1B       		.uleb128 0x1b
 2170 08d1 6100     		.ascii	"a\000"
 2171 08d3 01       		.byte	0x1
 2172 08d4 FC       		.byte	0xfc
 2173 08d5 29000000 		.4byte	0x29
 2174 08d9 00       		.byte	0
 2175 08da 00       		.byte	0
 2176 08db 1E       		.uleb128 0x1e
 2177 08dc FD010000 		.4byte	.LASF144
 2178 08e0 01       		.byte	0x1
 2179 08e1 48       		.byte	0x48
 2180 08e2 01       		.byte	0x1
 2181 08e3 00000000 		.4byte	.LFB64
 2182 08e7 50020000 		.4byte	.LFE64
 2183 08eb 00000000 		.4byte	.LLST0
 2184 08ef F7090000 		.4byte	0x9f7
 2185 08f3 1F       		.uleb128 0x1f
 2186 08f4 3B050000 		.4byte	.LASF121
 2187 08f8 01       		.byte	0x1
 2188 08f9 48       		.byte	0x48
 2189 08fa D7070000 		.4byte	0x7d7
 2190 08fe 20000000 		.4byte	.LLST1
 2191 0902 20       		.uleb128 0x20
 2192 0903 76020000 		.4byte	.LASF118
 2193 0907 01       		.byte	0x1
 2194 0908 4E       		.byte	0x4e
 2195 0909 29000000 		.4byte	0x29
 2196 090d 33000000 		.4byte	.LLST2
 2197 0911 20       		.uleb128 0x20
 2198 0912 ED010000 		.4byte	.LASF116
 2199 0916 01       		.byte	0x1
 2200 0917 54       		.byte	0x54
ARM GAS  C:\Users\z80\AppData\Local\Temp\cctXg9Kf.s 			page 40


 2201 0918 29000000 		.4byte	0x29
 2202 091c 60000000 		.4byte	.LLST3
 2203 0920 21       		.uleb128 0x21
 2204 0921 14000000 		.4byte	.LBB21
 2205 0925 1A000000 		.4byte	.LBE21
 2206 0929 3D090000 		.4byte	0x93d
 2207 092d 22       		.uleb128 0x22
 2208 092e 746D7000 		.ascii	"tmp\000"
 2209 0932 01       		.byte	0x1
 2210 0933 4C       		.byte	0x4c
 2211 0934 86000000 		.4byte	0x86
 2212 0938 72010000 		.4byte	.LLST4
 2213 093c 00       		.byte	0
 2214 093d 23       		.uleb128 0x23
 2215 093e 40080000 		.4byte	0x840
 2216 0942 2A000000 		.4byte	.LBB22
 2217 0946 00000000 		.4byte	.Ldebug_ranges0+0
 2218 094a 01       		.byte	0x1
 2219 094b 50       		.byte	0x50
 2220 094c 5A090000 		.4byte	0x95a
 2221 0950 24       		.uleb128 0x24
 2222 0951 4D080000 		.4byte	0x84d
 2223 0955 85010000 		.4byte	.LLST5
 2224 0959 00       		.byte	0
 2225 095a 23       		.uleb128 0x23
 2226 095b 79080000 		.4byte	0x879
 2227 095f 74000000 		.4byte	.LBB30
 2228 0963 28000000 		.4byte	.Ldebug_ranges0+0x28
 2229 0967 01       		.byte	0x1
 2230 0968 59       		.byte	0x59
 2231 0969 C2090000 		.4byte	0x9c2
 2232 096d 24       		.uleb128 0x24
 2233 096e 91080000 		.4byte	0x891
 2234 0972 98010000 		.4byte	.LLST6
 2235 0976 24       		.uleb128 0x24
 2236 0977 86080000 		.4byte	0x886
 2237 097b 10020000 		.4byte	.LLST7
 2238 097f 25       		.uleb128 0x25
 2239 0980 80000000 		.4byte	.Ldebug_ranges0+0x80
 2240 0984 26       		.uleb128 0x26
 2241 0985 9C080000 		.4byte	0x89c
 2242 0989 2E020000 		.4byte	.LLST8
 2243 098d 26       		.uleb128 0x26
 2244 098e A7080000 		.4byte	0x8a7
 2245 0992 64020000 		.4byte	.LLST9
 2246 0996 26       		.uleb128 0x26
 2247 0997 B2080000 		.4byte	0x8b2
 2248 099b 92020000 		.4byte	.LLST10
 2249 099f 26       		.uleb128 0x26
 2250 09a0 BD080000 		.4byte	0x8bd
 2251 09a4 B0020000 		.4byte	.LLST11
 2252 09a8 26       		.uleb128 0x26
 2253 09a9 C6080000 		.4byte	0x8c6
 2254 09ad FE020000 		.4byte	.LLST12
 2255 09b1 25       		.uleb128 0x25
 2256 09b2 D8000000 		.4byte	.Ldebug_ranges0+0xd8
 2257 09b6 26       		.uleb128 0x26
ARM GAS  C:\Users\z80\AppData\Local\Temp\cctXg9Kf.s 			page 41


 2258 09b7 D0080000 		.4byte	0x8d0
 2259 09bb 1C030000 		.4byte	.LLST13
 2260 09bf 00       		.byte	0
 2261 09c0 00       		.byte	0
 2262 09c1 00       		.byte	0
 2263 09c2 21       		.uleb128 0x21
 2264 09c3 86010000 		.4byte	.LBB55
 2265 09c7 8C010000 		.4byte	.LBE55
 2266 09cb DF090000 		.4byte	0x9df
 2267 09cf 22       		.uleb128 0x22
 2268 09d0 746D7000 		.ascii	"tmp\000"
 2269 09d4 01       		.byte	0x1
 2270 09d5 9E       		.byte	0x9e
 2271 09d6 86000000 		.4byte	0x86
 2272 09da 33030000 		.4byte	.LLST14
 2273 09de 00       		.byte	0
 2274 09df 27       		.uleb128 0x27
 2275 09e0 D6010000 		.4byte	.LBB56
 2276 09e4 50020000 		.4byte	.LBE56
 2277 09e8 22       		.uleb128 0x22
 2278 09e9 7600     		.ascii	"v\000"
 2279 09eb 01       		.byte	0x1
 2280 09ec 6C       		.byte	0x6c
 2281 09ed 49000000 		.4byte	0x49
 2282 09f1 46030000 		.4byte	.LLST15
 2283 09f5 00       		.byte	0
 2284 09f6 00       		.byte	0
 2285 09f7 28       		.uleb128 0x28
 2286 09f8 01       		.byte	0x1
 2287 09f9 D8020000 		.4byte	.LASF119
 2288 09fd 01       		.byte	0x1
 2289 09fe 2C       		.byte	0x2c
 2290 09ff 01       		.byte	0x1
 2291 0a00 00000000 		.4byte	.LFB62
 2292 0a04 B0000000 		.4byte	.LFE62
 2293 0a08 2E040000 		.4byte	.LLST16
 2294 0a0c 2A0A0000 		.4byte	0xa2a
 2295 0a10 29       		.uleb128 0x29
 2296 0a11 40080000 		.4byte	0x840
 2297 0a15 78000000 		.4byte	.LBB57
 2298 0a19 08010000 		.4byte	.Ldebug_ranges0+0x108
 2299 0a1d 01       		.byte	0x1
 2300 0a1e 3A       		.byte	0x3a
 2301 0a1f 24       		.uleb128 0x24
 2302 0a20 4D080000 		.4byte	0x84d
 2303 0a24 4E040000 		.4byte	.LLST17
 2304 0a28 00       		.byte	0
 2305 0a29 00       		.byte	0
 2306 0a2a 2A       		.uleb128 0x2a
 2307 0a2b 01       		.byte	0x1
 2308 0a2c F3010000 		.4byte	.LASF145
 2309 0a30 01       		.byte	0x1
 2310 0a31 3F       		.byte	0x3f
 2311 0a32 01       		.byte	0x1
 2312 0a33 00000000 		.4byte	.LFB63
 2313 0a37 28000000 		.4byte	.LFE63
 2314 0a3b 65040000 		.4byte	.LLST18
ARM GAS  C:\Users\z80\AppData\Local\Temp\cctXg9Kf.s 			page 42


 2315 0a3f 2B       		.uleb128 0x2b
 2316 0a40 01       		.byte	0x1
 2317 0a41 D2000000 		.4byte	.LASF146
 2318 0a45 01       		.byte	0x1
 2319 0a46 A2       		.byte	0xa2
 2320 0a47 01       		.byte	0x1
 2321 0a48 570A0000 		.4byte	0xa57
 2322 0a4c 00000000 		.4byte	.LFB65
 2323 0a50 0A000000 		.4byte	.LFE65
 2324 0a54 02       		.byte	0x2
 2325 0a55 7D       		.byte	0x7d
 2326 0a56 00       		.sleb128 0
 2327 0a57 09       		.uleb128 0x9
 2328 0a58 04       		.byte	0x4
 2329 0a59 6F040000 		.4byte	0x46f
 2330 0a5d 28       		.uleb128 0x28
 2331 0a5e 01       		.byte	0x1
 2332 0a5f 29010000 		.4byte	.LASF120
 2333 0a63 01       		.byte	0x1
 2334 0a64 C5       		.byte	0xc5
 2335 0a65 01       		.byte	0x1
 2336 0a66 00000000 		.4byte	.LFB67
 2337 0a6a 2A000000 		.4byte	.LFE67
 2338 0a6e 85040000 		.4byte	.LLST19
 2339 0a72 D30A0000 		.4byte	0xad3
 2340 0a76 1F       		.uleb128 0x1f
 2341 0a77 CC020000 		.4byte	.LASF113
 2342 0a7b 01       		.byte	0x1
 2343 0a7c C5       		.byte	0xc5
 2344 0a7d 73080000 		.4byte	0x873
 2345 0a81 A5040000 		.4byte	.LLST20
 2346 0a85 2C       		.uleb128 0x2c
 2347 0a86 28010000 		.4byte	.Ldebug_ranges0+0x128
 2348 0a8a 9E0A0000 		.4byte	0xa9e
 2349 0a8e 22       		.uleb128 0x22
 2350 0a8f 746D7000 		.ascii	"tmp\000"
 2351 0a93 01       		.byte	0x1
 2352 0a94 C7       		.byte	0xc7
 2353 0a95 86000000 		.4byte	0x86
 2354 0a99 C3040000 		.4byte	.LLST21
 2355 0a9d 00       		.byte	0
 2356 0a9e 2D       		.uleb128 0x2d
 2357 0a9f 59080000 		.4byte	0x859
 2358 0aa3 0E000000 		.4byte	.LBB65
 2359 0aa7 1E000000 		.4byte	.LBE65
 2360 0aab 01       		.byte	0x1
 2361 0aac C8       		.byte	0xc8
 2362 0aad B90A0000 		.4byte	0xab9
 2363 0ab1 2E       		.uleb128 0x2e
 2364 0ab2 67080000 		.4byte	0x867
 2365 0ab6 01       		.byte	0x1
 2366 0ab7 54       		.byte	0x54
 2367 0ab8 00       		.byte	0
 2368 0ab9 27       		.uleb128 0x27
 2369 0aba 22000000 		.4byte	.LBB67
 2370 0abe 28000000 		.4byte	.LBE67
 2371 0ac2 22       		.uleb128 0x22
ARM GAS  C:\Users\z80\AppData\Local\Temp\cctXg9Kf.s 			page 43


 2372 0ac3 746D7000 		.ascii	"tmp\000"
 2373 0ac7 01       		.byte	0x1
 2374 0ac8 C9       		.byte	0xc9
 2375 0ac9 86000000 		.4byte	0x86
 2376 0acd D6040000 		.4byte	.LLST22
 2377 0ad1 00       		.byte	0
 2378 0ad2 00       		.byte	0
 2379 0ad3 2F       		.uleb128 0x2f
 2380 0ad4 59080000 		.4byte	0x859
 2381 0ad8 00000000 		.4byte	.LFB68
 2382 0adc 1E000000 		.4byte	.LFE68
 2383 0ae0 E9040000 		.4byte	.LLST23
 2384 0ae4 F00A0000 		.4byte	0xaf0
 2385 0ae8 2E       		.uleb128 0x2e
 2386 0ae9 67080000 		.4byte	0x867
 2387 0aed 01       		.byte	0x1
 2388 0aee 50       		.byte	0x50
 2389 0aef 00       		.byte	0
 2390 0af0 28       		.uleb128 0x28
 2391 0af1 01       		.byte	0x1
 2392 0af2 40040000 		.4byte	.LASF122
 2393 0af6 01       		.byte	0x1
 2394 0af7 D7       		.byte	0xd7
 2395 0af8 01       		.byte	0x1
 2396 0af9 00000000 		.4byte	.LFB69
 2397 0afd 24000000 		.4byte	.LFE69
 2398 0b01 09050000 		.4byte	.LLST24
 2399 0b05 4B0B0000 		.4byte	0xb4b
 2400 0b09 1F       		.uleb128 0x1f
 2401 0b0a C7010000 		.4byte	.LASF123
 2402 0b0e 01       		.byte	0x1
 2403 0b0f D7       		.byte	0xd7
 2404 0b10 29000000 		.4byte	0x29
 2405 0b14 29050000 		.4byte	.LLST25
 2406 0b18 2C       		.uleb128 0x2c
 2407 0b19 40010000 		.4byte	.Ldebug_ranges0+0x140
 2408 0b1d 310B0000 		.4byte	0xb31
 2409 0b21 22       		.uleb128 0x22
 2410 0b22 746D7000 		.ascii	"tmp\000"
 2411 0b26 01       		.byte	0x1
 2412 0b27 D9       		.byte	0xd9
 2413 0b28 86000000 		.4byte	0x86
 2414 0b2c 47050000 		.4byte	.LLST26
 2415 0b30 00       		.byte	0
 2416 0b31 27       		.uleb128 0x27
 2417 0b32 1C000000 		.4byte	.LBB70
 2418 0b36 22000000 		.4byte	.LBE70
 2419 0b3a 22       		.uleb128 0x22
 2420 0b3b 746D7000 		.ascii	"tmp\000"
 2421 0b3f 01       		.byte	0x1
 2422 0b40 DB       		.byte	0xdb
 2423 0b41 86000000 		.4byte	0x86
 2424 0b45 5A050000 		.4byte	.LLST27
 2425 0b49 00       		.byte	0
 2426 0b4a 00       		.byte	0
 2427 0b4b 28       		.uleb128 0x28
 2428 0b4c 01       		.byte	0x1
ARM GAS  C:\Users\z80\AppData\Local\Temp\cctXg9Kf.s 			page 44


 2429 0b4d BE000000 		.4byte	.LASF124
 2430 0b51 01       		.byte	0x1
 2431 0b52 DE       		.byte	0xde
 2432 0b53 01       		.byte	0x1
 2433 0b54 00000000 		.4byte	.LFB70
 2434 0b58 24000000 		.4byte	.LFE70
 2435 0b5c 6D050000 		.4byte	.LLST28
 2436 0b60 A60B0000 		.4byte	0xba6
 2437 0b64 1F       		.uleb128 0x1f
 2438 0b65 B3010000 		.4byte	.LASF125
 2439 0b69 01       		.byte	0x1
 2440 0b6a DE       		.byte	0xde
 2441 0b6b 86000000 		.4byte	0x86
 2442 0b6f 8D050000 		.4byte	.LLST29
 2443 0b73 2C       		.uleb128 0x2c
 2444 0b74 58010000 		.4byte	.Ldebug_ranges0+0x158
 2445 0b78 8C0B0000 		.4byte	0xb8c
 2446 0b7c 22       		.uleb128 0x22
 2447 0b7d 746D7000 		.ascii	"tmp\000"
 2448 0b81 01       		.byte	0x1
 2449 0b82 E0       		.byte	0xe0
 2450 0b83 86000000 		.4byte	0x86
 2451 0b87 AB050000 		.4byte	.LLST30
 2452 0b8b 00       		.byte	0
 2453 0b8c 27       		.uleb128 0x27
 2454 0b8d 1C000000 		.4byte	.LBB73
 2455 0b91 22000000 		.4byte	.LBE73
 2456 0b95 22       		.uleb128 0x22
 2457 0b96 746D7000 		.ascii	"tmp\000"
 2458 0b9a 01       		.byte	0x1
 2459 0b9b E2       		.byte	0xe2
 2460 0b9c 86000000 		.4byte	0x86
 2461 0ba0 BE050000 		.4byte	.LLST31
 2462 0ba4 00       		.byte	0
 2463 0ba5 00       		.byte	0
 2464 0ba6 30       		.uleb128 0x30
 2465 0ba7 61010000 		.4byte	.LASF126
 2466 0bab 01       		.byte	0x1
 2467 0bac 12       		.byte	0x12
 2468 0bad 29000000 		.4byte	0x29
 2469 0bb1 05       		.byte	0x5
 2470 0bb2 03       		.byte	0x3
 2471 0bb3 00000000 		.4byte	adcIndex
 2472 0bb7 31       		.uleb128 0x31
 2473 0bb8 29000000 		.4byte	0x29
 2474 0bbc C70B0000 		.4byte	0xbc7
 2475 0bc0 32       		.uleb128 0x32
 2476 0bc1 3B000000 		.4byte	0x3b
 2477 0bc5 03       		.byte	0x3
 2478 0bc6 00       		.byte	0
 2479 0bc7 30       		.uleb128 0x30
 2480 0bc8 6C040000 		.4byte	.LASF127
 2481 0bcc 01       		.byte	0x1
 2482 0bcd 14       		.byte	0x14
 2483 0bce B70B0000 		.4byte	0xbb7
 2484 0bd2 05       		.byte	0x5
 2485 0bd3 03       		.byte	0x3
ARM GAS  C:\Users\z80\AppData\Local\Temp\cctXg9Kf.s 			page 45


 2486 0bd4 00000000 		.4byte	instantAdcData
 2487 0bd8 30       		.uleb128 0x30
 2488 0bd9 14000000 		.4byte	.LASF128
 2489 0bdd 01       		.byte	0x1
 2490 0bde 23       		.byte	0x23
 2491 0bdf 35080000 		.4byte	0x835
 2492 0be3 05       		.byte	0x5
 2493 0be4 03       		.byte	0x3
 2494 0be5 00000000 		.4byte	hs_spicfg
 2495 0be9 33       		.uleb128 0x33
 2496 0bea B1000000 		.4byte	.LASF129
 2497 0bee 0F       		.byte	0xf
 2498 0bef 9404     		.2byte	0x494
 2499 0bf1 7F040000 		.4byte	0x47f
 2500 0bf5 01       		.byte	0x1
 2501 0bf6 01       		.byte	0x1
 2502 0bf7 33       		.uleb128 0x33
 2503 0bf8 F2030000 		.4byte	.LASF130
 2504 0bfc 0E       		.byte	0xe
 2505 0bfd 6701     		.2byte	0x167
 2506 0bff 36070000 		.4byte	0x736
 2507 0c03 01       		.byte	0x1
 2508 0c04 01       		.byte	0x1
 2509 0c05 34       		.uleb128 0x34
 2510 0c06 F8030000 		.4byte	.LASF131
 2511 0c0a 01       		.byte	0x1
 2512 0c0b 0E       		.byte	0xe
 2513 0c0c 6F040000 		.4byte	0x46f
 2514 0c10 01       		.byte	0x1
 2515 0c11 05       		.byte	0x5
 2516 0c12 03       		.byte	0x3
 2517 0c13 00000000 		.4byte	adc_queue
 2518 0c17 31       		.uleb128 0x31
 2519 0c18 49000000 		.4byte	0x49
 2520 0c1c 280C0000 		.4byte	0xc28
 2521 0c20 35       		.uleb128 0x35
 2522 0c21 3B000000 		.4byte	0x3b
 2523 0c25 3F01     		.2byte	0x13f
 2524 0c27 00       		.byte	0
 2525 0c28 34       		.uleb128 0x34
 2526 0c29 1E000000 		.4byte	.LASF132
 2527 0c2d 01       		.byte	0x1
 2528 0c2e 0F       		.byte	0xf
 2529 0c2f 170C0000 		.4byte	0xc17
 2530 0c33 01       		.byte	0x1
 2531 0c34 05       		.byte	0x5
 2532 0c35 03       		.byte	0x3
 2533 0c36 00000000 		.4byte	adc_queue_buffer
 2534 0c3a 31       		.uleb128 0x31
 2535 0c3b 49000000 		.4byte	0x49
 2536 0c3f 4A0C0000 		.4byte	0xc4a
 2537 0c43 32       		.uleb128 0x32
 2538 0c44 3B000000 		.4byte	0x3b
 2539 0c48 03       		.byte	0x3
 2540 0c49 00       		.byte	0
 2541 0c4a 34       		.uleb128 0x34
 2542 0c4b 2A040000 		.4byte	.LASF133
ARM GAS  C:\Users\z80\AppData\Local\Temp\cctXg9Kf.s 			page 46


 2543 0c4f 01       		.byte	0x1
 2544 0c50 11       		.byte	0x11
 2545 0c51 3A0C0000 		.4byte	0xc3a
 2546 0c55 01       		.byte	0x1
 2547 0c56 05       		.byte	0x5
 2548 0c57 03       		.byte	0x3
 2549 0c58 00000000 		.4byte	adc_rx_buffer
 2550 0c5c 34       		.uleb128 0x34
 2551 0c5d 3A000000 		.4byte	.LASF134
 2552 0c61 01       		.byte	0x1
 2553 0c62 17       		.byte	0x17
 2554 0c63 29000000 		.4byte	0x29
 2555 0c67 01       		.byte	0x1
 2556 0c68 05       		.byte	0x5
 2557 0c69 03       		.byte	0x3
 2558 0c6a 00000000 		.4byte	signalMask
 2559 0c6e 34       		.uleb128 0x34
 2560 0c6f 52000000 		.4byte	.LASF135
 2561 0c73 01       		.byte	0x1
 2562 0c74 18       		.byte	0x18
 2563 0c75 29000000 		.4byte	0x29
 2564 0c79 01       		.byte	0x1
 2565 0c7a 05       		.byte	0x5
 2566 0c7b 03       		.byte	0x3
 2567 0c7c 00000000 		.4byte	period
 2568 0c80 34       		.uleb128 0x34
 2569 0c81 68020000 		.4byte	.LASF136
 2570 0c85 01       		.byte	0x1
 2571 0c86 19       		.byte	0x19
 2572 0c87 29000000 		.4byte	0x29
 2573 0c8b 01       		.byte	0x1
 2574 0c8c 05       		.byte	0x5
 2575 0c8d 03       		.byte	0x3
 2576 0c8e 00000000 		.4byte	elapsed
 2577 0c92 31       		.uleb128 0x31
 2578 0c93 29000000 		.4byte	0x29
 2579 0c97 A80C0000 		.4byte	0xca8
 2580 0c9b 32       		.uleb128 0x32
 2581 0c9c 3B000000 		.4byte	0x3b
 2582 0ca0 03       		.byte	0x3
 2583 0ca1 32       		.uleb128 0x32
 2584 0ca2 3B000000 		.4byte	0x3b
 2585 0ca6 04       		.byte	0x4
 2586 0ca7 00       		.byte	0
 2587 0ca8 34       		.uleb128 0x34
 2588 0ca9 AA000000 		.4byte	.LASF137
 2589 0cad 01       		.byte	0x1
 2590 0cae E8       		.byte	0xe8
 2591 0caf 920C0000 		.4byte	0xc92
 2592 0cb3 01       		.byte	0x1
 2593 0cb4 05       		.byte	0x5
 2594 0cb5 03       		.byte	0x3
 2595 0cb6 00000000 		.4byte	adcRaw
 2596 0cba 34       		.uleb128 0x34
 2597 0cbb B1040000 		.4byte	.LASF138
 2598 0cbf 01       		.byte	0x1
 2599 0cc0 E9       		.byte	0xe9
ARM GAS  C:\Users\z80\AppData\Local\Temp\cctXg9Kf.s 			page 47


 2600 0cc1 920C0000 		.4byte	0xc92
 2601 0cc5 01       		.byte	0x1
 2602 0cc6 05       		.byte	0x5
 2603 0cc7 03       		.byte	0x3
 2604 0cc8 00000000 		.4byte	adcFiltered
 2605 0ccc 34       		.uleb128 0x34
 2606 0ccd BC010000 		.4byte	.LASF139
 2607 0cd1 01       		.byte	0x1
 2608 0cd2 EA       		.byte	0xea
 2609 0cd3 3A0C0000 		.4byte	0xc3a
 2610 0cd7 01       		.byte	0x1
 2611 0cd8 05       		.byte	0x5
 2612 0cd9 03       		.byte	0x3
 2613 0cda 00000000 		.4byte	adcPointer
 2614 0cde 00       		.byte	0
 2615              		.section	.debug_abbrev,"",%progbits
 2616              	.Ldebug_abbrev0:
 2617 0000 01       		.uleb128 0x1
 2618 0001 11       		.uleb128 0x11
 2619 0002 01       		.byte	0x1
 2620 0003 25       		.uleb128 0x25
 2621 0004 0E       		.uleb128 0xe
 2622 0005 13       		.uleb128 0x13
 2623 0006 0B       		.uleb128 0xb
 2624 0007 03       		.uleb128 0x3
 2625 0008 0E       		.uleb128 0xe
 2626 0009 1B       		.uleb128 0x1b
 2627 000a 0E       		.uleb128 0xe
 2628 000b 11       		.uleb128 0x11
 2629 000c 01       		.uleb128 0x1
 2630 000d 52       		.uleb128 0x52
 2631 000e 01       		.uleb128 0x1
 2632 000f 55       		.uleb128 0x55
 2633 0010 06       		.uleb128 0x6
 2634 0011 10       		.uleb128 0x10
 2635 0012 06       		.uleb128 0x6
 2636 0013 00       		.byte	0
 2637 0014 00       		.byte	0
 2638 0015 02       		.uleb128 0x2
 2639 0016 24       		.uleb128 0x24
 2640 0017 00       		.byte	0
 2641 0018 0B       		.uleb128 0xb
 2642 0019 0B       		.uleb128 0xb
 2643 001a 3E       		.uleb128 0x3e
 2644 001b 0B       		.uleb128 0xb
 2645 001c 03       		.uleb128 0x3
 2646 001d 08       		.uleb128 0x8
 2647 001e 00       		.byte	0
 2648 001f 00       		.byte	0
 2649 0020 03       		.uleb128 0x3
 2650 0021 16       		.uleb128 0x16
 2651 0022 00       		.byte	0
 2652 0023 03       		.uleb128 0x3
 2653 0024 0E       		.uleb128 0xe
 2654 0025 3A       		.uleb128 0x3a
 2655 0026 0B       		.uleb128 0xb
 2656 0027 3B       		.uleb128 0x3b
ARM GAS  C:\Users\z80\AppData\Local\Temp\cctXg9Kf.s 			page 48


 2657 0028 0B       		.uleb128 0xb
 2658 0029 49       		.uleb128 0x49
 2659 002a 13       		.uleb128 0x13
 2660 002b 00       		.byte	0
 2661 002c 00       		.byte	0
 2662 002d 04       		.uleb128 0x4
 2663 002e 24       		.uleb128 0x24
 2664 002f 00       		.byte	0
 2665 0030 0B       		.uleb128 0xb
 2666 0031 0B       		.uleb128 0xb
 2667 0032 3E       		.uleb128 0x3e
 2668 0033 0B       		.uleb128 0xb
 2669 0034 03       		.uleb128 0x3
 2670 0035 0E       		.uleb128 0xe
 2671 0036 00       		.byte	0
 2672 0037 00       		.byte	0
 2673 0038 05       		.uleb128 0x5
 2674 0039 13       		.uleb128 0x13
 2675 003a 01       		.byte	0x1
 2676 003b 03       		.uleb128 0x3
 2677 003c 0E       		.uleb128 0xe
 2678 003d 0B       		.uleb128 0xb
 2679 003e 0B       		.uleb128 0xb
 2680 003f 3A       		.uleb128 0x3a
 2681 0040 0B       		.uleb128 0xb
 2682 0041 3B       		.uleb128 0x3b
 2683 0042 0B       		.uleb128 0xb
 2684 0043 01       		.uleb128 0x1
 2685 0044 13       		.uleb128 0x13
 2686 0045 00       		.byte	0
 2687 0046 00       		.byte	0
 2688 0047 06       		.uleb128 0x6
 2689 0048 0D       		.uleb128 0xd
 2690 0049 00       		.byte	0
 2691 004a 03       		.uleb128 0x3
 2692 004b 0E       		.uleb128 0xe
 2693 004c 3A       		.uleb128 0x3a
 2694 004d 0B       		.uleb128 0xb
 2695 004e 3B       		.uleb128 0x3b
 2696 004f 0B       		.uleb128 0xb
 2697 0050 49       		.uleb128 0x49
 2698 0051 13       		.uleb128 0x13
 2699 0052 38       		.uleb128 0x38
 2700 0053 0A       		.uleb128 0xa
 2701 0054 00       		.byte	0
 2702 0055 00       		.byte	0
 2703 0056 07       		.uleb128 0x7
 2704 0057 0D       		.uleb128 0xd
 2705 0058 00       		.byte	0
 2706 0059 03       		.uleb128 0x3
 2707 005a 08       		.uleb128 0x8
 2708 005b 3A       		.uleb128 0x3a
 2709 005c 0B       		.uleb128 0xb
 2710 005d 3B       		.uleb128 0x3b
 2711 005e 0B       		.uleb128 0xb
 2712 005f 49       		.uleb128 0x49
 2713 0060 13       		.uleb128 0x13
ARM GAS  C:\Users\z80\AppData\Local\Temp\cctXg9Kf.s 			page 49


 2714 0061 38       		.uleb128 0x38
 2715 0062 0A       		.uleb128 0xa
 2716 0063 00       		.byte	0
 2717 0064 00       		.byte	0
 2718 0065 08       		.uleb128 0x8
 2719 0066 13       		.uleb128 0x13
 2720 0067 01       		.byte	0x1
 2721 0068 0B       		.uleb128 0xb
 2722 0069 0B       		.uleb128 0xb
 2723 006a 3A       		.uleb128 0x3a
 2724 006b 0B       		.uleb128 0xb
 2725 006c 3B       		.uleb128 0x3b
 2726 006d 0B       		.uleb128 0xb
 2727 006e 01       		.uleb128 0x1
 2728 006f 13       		.uleb128 0x13
 2729 0070 00       		.byte	0
 2730 0071 00       		.byte	0
 2731 0072 09       		.uleb128 0x9
 2732 0073 0F       		.uleb128 0xf
 2733 0074 00       		.byte	0
 2734 0075 0B       		.uleb128 0xb
 2735 0076 0B       		.uleb128 0xb
 2736 0077 49       		.uleb128 0x49
 2737 0078 13       		.uleb128 0x13
 2738 0079 00       		.byte	0
 2739 007a 00       		.byte	0
 2740 007b 0A       		.uleb128 0xa
 2741 007c 0F       		.uleb128 0xf
 2742 007d 00       		.byte	0
 2743 007e 0B       		.uleb128 0xb
 2744 007f 0B       		.uleb128 0xb
 2745 0080 00       		.byte	0
 2746 0081 00       		.byte	0
 2747 0082 0B       		.uleb128 0xb
 2748 0083 0D       		.uleb128 0xd
 2749 0084 00       		.byte	0
 2750 0085 03       		.uleb128 0x3
 2751 0086 08       		.uleb128 0x8
 2752 0087 3A       		.uleb128 0x3a
 2753 0088 0B       		.uleb128 0xb
 2754 0089 3B       		.uleb128 0x3b
 2755 008a 05       		.uleb128 0x5
 2756 008b 49       		.uleb128 0x49
 2757 008c 13       		.uleb128 0x13
 2758 008d 38       		.uleb128 0x38
 2759 008e 0A       		.uleb128 0xa
 2760 008f 00       		.byte	0
 2761 0090 00       		.byte	0
 2762 0091 0C       		.uleb128 0xc
 2763 0092 13       		.uleb128 0x13
 2764 0093 01       		.byte	0x1
 2765 0094 03       		.uleb128 0x3
 2766 0095 0E       		.uleb128 0xe
 2767 0096 0B       		.uleb128 0xb
 2768 0097 0B       		.uleb128 0xb
 2769 0098 3A       		.uleb128 0x3a
 2770 0099 0B       		.uleb128 0xb
ARM GAS  C:\Users\z80\AppData\Local\Temp\cctXg9Kf.s 			page 50


 2771 009a 3B       		.uleb128 0x3b
 2772 009b 05       		.uleb128 0x5
 2773 009c 01       		.uleb128 0x1
 2774 009d 13       		.uleb128 0x13
 2775 009e 00       		.byte	0
 2776 009f 00       		.byte	0
 2777 00a0 0D       		.uleb128 0xd
 2778 00a1 35       		.uleb128 0x35
 2779 00a2 00       		.byte	0
 2780 00a3 49       		.uleb128 0x49
 2781 00a4 13       		.uleb128 0x13
 2782 00a5 00       		.byte	0
 2783 00a6 00       		.byte	0
 2784 00a7 0E       		.uleb128 0xe
 2785 00a8 17       		.uleb128 0x17
 2786 00a9 01       		.byte	0x1
 2787 00aa 0B       		.uleb128 0xb
 2788 00ab 0B       		.uleb128 0xb
 2789 00ac 3A       		.uleb128 0x3a
 2790 00ad 0B       		.uleb128 0xb
 2791 00ae 3B       		.uleb128 0x3b
 2792 00af 0B       		.uleb128 0xb
 2793 00b0 01       		.uleb128 0x1
 2794 00b1 13       		.uleb128 0x13
 2795 00b2 00       		.byte	0
 2796 00b3 00       		.byte	0
 2797 00b4 0F       		.uleb128 0xf
 2798 00b5 0D       		.uleb128 0xd
 2799 00b6 00       		.byte	0
 2800 00b7 03       		.uleb128 0x3
 2801 00b8 0E       		.uleb128 0xe
 2802 00b9 3A       		.uleb128 0x3a
 2803 00ba 0B       		.uleb128 0xb
 2804 00bb 3B       		.uleb128 0x3b
 2805 00bc 0B       		.uleb128 0xb
 2806 00bd 49       		.uleb128 0x49
 2807 00be 13       		.uleb128 0x13
 2808 00bf 00       		.byte	0
 2809 00c0 00       		.byte	0
 2810 00c1 10       		.uleb128 0x10
 2811 00c2 26       		.uleb128 0x26
 2812 00c3 00       		.byte	0
 2813 00c4 49       		.uleb128 0x49
 2814 00c5 13       		.uleb128 0x13
 2815 00c6 00       		.byte	0
 2816 00c7 00       		.byte	0
 2817 00c8 11       		.uleb128 0x11
 2818 00c9 15       		.uleb128 0x15
 2819 00ca 01       		.byte	0x1
 2820 00cb 27       		.uleb128 0x27
 2821 00cc 0C       		.uleb128 0xc
 2822 00cd 01       		.uleb128 0x1
 2823 00ce 13       		.uleb128 0x13
 2824 00cf 00       		.byte	0
 2825 00d0 00       		.byte	0
 2826 00d1 12       		.uleb128 0x12
 2827 00d2 05       		.uleb128 0x5
ARM GAS  C:\Users\z80\AppData\Local\Temp\cctXg9Kf.s 			page 51


 2828 00d3 00       		.byte	0
 2829 00d4 49       		.uleb128 0x49
 2830 00d5 13       		.uleb128 0x13
 2831 00d6 00       		.byte	0
 2832 00d7 00       		.byte	0
 2833 00d8 13       		.uleb128 0x13
 2834 00d9 13       		.uleb128 0x13
 2835 00da 01       		.byte	0x1
 2836 00db 0B       		.uleb128 0xb
 2837 00dc 0B       		.uleb128 0xb
 2838 00dd 3A       		.uleb128 0x3a
 2839 00de 0B       		.uleb128 0xb
 2840 00df 3B       		.uleb128 0x3b
 2841 00e0 05       		.uleb128 0x5
 2842 00e1 01       		.uleb128 0x1
 2843 00e2 13       		.uleb128 0x13
 2844 00e3 00       		.byte	0
 2845 00e4 00       		.byte	0
 2846 00e5 14       		.uleb128 0x14
 2847 00e6 0D       		.uleb128 0xd
 2848 00e7 00       		.byte	0
 2849 00e8 03       		.uleb128 0x3
 2850 00e9 0E       		.uleb128 0xe
 2851 00ea 3A       		.uleb128 0x3a
 2852 00eb 0B       		.uleb128 0xb
 2853 00ec 3B       		.uleb128 0x3b
 2854 00ed 05       		.uleb128 0x5
 2855 00ee 49       		.uleb128 0x49
 2856 00ef 13       		.uleb128 0x13
 2857 00f0 38       		.uleb128 0x38
 2858 00f1 0A       		.uleb128 0xa
 2859 00f2 00       		.byte	0
 2860 00f3 00       		.byte	0
 2861 00f4 15       		.uleb128 0x15
 2862 00f5 16       		.uleb128 0x16
 2863 00f6 00       		.byte	0
 2864 00f7 03       		.uleb128 0x3
 2865 00f8 0E       		.uleb128 0xe
 2866 00f9 3A       		.uleb128 0x3a
 2867 00fa 0B       		.uleb128 0xb
 2868 00fb 3B       		.uleb128 0x3b
 2869 00fc 05       		.uleb128 0x5
 2870 00fd 49       		.uleb128 0x49
 2871 00fe 13       		.uleb128 0x13
 2872 00ff 00       		.byte	0
 2873 0100 00       		.byte	0
 2874 0101 16       		.uleb128 0x16
 2875 0102 04       		.uleb128 0x4
 2876 0103 01       		.byte	0x1
 2877 0104 0B       		.uleb128 0xb
 2878 0105 0B       		.uleb128 0xb
 2879 0106 3A       		.uleb128 0x3a
 2880 0107 0B       		.uleb128 0xb
 2881 0108 3B       		.uleb128 0x3b
 2882 0109 0B       		.uleb128 0xb
 2883 010a 01       		.uleb128 0x1
 2884 010b 13       		.uleb128 0x13
ARM GAS  C:\Users\z80\AppData\Local\Temp\cctXg9Kf.s 			page 52


 2885 010c 00       		.byte	0
 2886 010d 00       		.byte	0
 2887 010e 17       		.uleb128 0x17
 2888 010f 28       		.uleb128 0x28
 2889 0110 00       		.byte	0
 2890 0111 03       		.uleb128 0x3
 2891 0112 0E       		.uleb128 0xe
 2892 0113 1C       		.uleb128 0x1c
 2893 0114 0D       		.uleb128 0xd
 2894 0115 00       		.byte	0
 2895 0116 00       		.byte	0
 2896 0117 18       		.uleb128 0x18
 2897 0118 2E       		.uleb128 0x2e
 2898 0119 01       		.byte	0x1
 2899 011a 03       		.uleb128 0x3
 2900 011b 0E       		.uleb128 0xe
 2901 011c 3A       		.uleb128 0x3a
 2902 011d 0B       		.uleb128 0xb
 2903 011e 3B       		.uleb128 0x3b
 2904 011f 0B       		.uleb128 0xb
 2905 0120 27       		.uleb128 0x27
 2906 0121 0C       		.uleb128 0xc
 2907 0122 20       		.uleb128 0x20
 2908 0123 0B       		.uleb128 0xb
 2909 0124 01       		.uleb128 0x1
 2910 0125 13       		.uleb128 0x13
 2911 0126 00       		.byte	0
 2912 0127 00       		.byte	0
 2913 0128 19       		.uleb128 0x19
 2914 0129 05       		.uleb128 0x5
 2915 012a 00       		.byte	0
 2916 012b 03       		.uleb128 0x3
 2917 012c 0E       		.uleb128 0xe
 2918 012d 3A       		.uleb128 0x3a
 2919 012e 0B       		.uleb128 0xb
 2920 012f 3B       		.uleb128 0x3b
 2921 0130 0B       		.uleb128 0xb
 2922 0131 49       		.uleb128 0x49
 2923 0132 13       		.uleb128 0x13
 2924 0133 00       		.byte	0
 2925 0134 00       		.byte	0
 2926 0135 1A       		.uleb128 0x1a
 2927 0136 2E       		.uleb128 0x2e
 2928 0137 01       		.byte	0x1
 2929 0138 3F       		.uleb128 0x3f
 2930 0139 0C       		.uleb128 0xc
 2931 013a 03       		.uleb128 0x3
 2932 013b 0E       		.uleb128 0xe
 2933 013c 3A       		.uleb128 0x3a
 2934 013d 0B       		.uleb128 0xb
 2935 013e 3B       		.uleb128 0x3b
 2936 013f 0B       		.uleb128 0xb
 2937 0140 27       		.uleb128 0x27
 2938 0141 0C       		.uleb128 0xc
 2939 0142 20       		.uleb128 0x20
 2940 0143 0B       		.uleb128 0xb
 2941 0144 01       		.uleb128 0x1
ARM GAS  C:\Users\z80\AppData\Local\Temp\cctXg9Kf.s 			page 53


 2942 0145 13       		.uleb128 0x13
 2943 0146 00       		.byte	0
 2944 0147 00       		.byte	0
 2945 0148 1B       		.uleb128 0x1b
 2946 0149 34       		.uleb128 0x34
 2947 014a 00       		.byte	0
 2948 014b 03       		.uleb128 0x3
 2949 014c 08       		.uleb128 0x8
 2950 014d 3A       		.uleb128 0x3a
 2951 014e 0B       		.uleb128 0xb
 2952 014f 3B       		.uleb128 0x3b
 2953 0150 0B       		.uleb128 0xb
 2954 0151 49       		.uleb128 0x49
 2955 0152 13       		.uleb128 0x13
 2956 0153 00       		.byte	0
 2957 0154 00       		.byte	0
 2958 0155 1C       		.uleb128 0x1c
 2959 0156 34       		.uleb128 0x34
 2960 0157 00       		.byte	0
 2961 0158 03       		.uleb128 0x3
 2962 0159 0E       		.uleb128 0xe
 2963 015a 3A       		.uleb128 0x3a
 2964 015b 0B       		.uleb128 0xb
 2965 015c 3B       		.uleb128 0x3b
 2966 015d 0B       		.uleb128 0xb
 2967 015e 49       		.uleb128 0x49
 2968 015f 13       		.uleb128 0x13
 2969 0160 00       		.byte	0
 2970 0161 00       		.byte	0
 2971 0162 1D       		.uleb128 0x1d
 2972 0163 0B       		.uleb128 0xb
 2973 0164 01       		.byte	0x1
 2974 0165 00       		.byte	0
 2975 0166 00       		.byte	0
 2976 0167 1E       		.uleb128 0x1e
 2977 0168 2E       		.uleb128 0x2e
 2978 0169 01       		.byte	0x1
 2979 016a 03       		.uleb128 0x3
 2980 016b 0E       		.uleb128 0xe
 2981 016c 3A       		.uleb128 0x3a
 2982 016d 0B       		.uleb128 0xb
 2983 016e 3B       		.uleb128 0x3b
 2984 016f 0B       		.uleb128 0xb
 2985 0170 27       		.uleb128 0x27
 2986 0171 0C       		.uleb128 0xc
 2987 0172 11       		.uleb128 0x11
 2988 0173 01       		.uleb128 0x1
 2989 0174 12       		.uleb128 0x12
 2990 0175 01       		.uleb128 0x1
 2991 0176 40       		.uleb128 0x40
 2992 0177 06       		.uleb128 0x6
 2993 0178 01       		.uleb128 0x1
 2994 0179 13       		.uleb128 0x13
 2995 017a 00       		.byte	0
 2996 017b 00       		.byte	0
 2997 017c 1F       		.uleb128 0x1f
 2998 017d 05       		.uleb128 0x5
ARM GAS  C:\Users\z80\AppData\Local\Temp\cctXg9Kf.s 			page 54


 2999 017e 00       		.byte	0
 3000 017f 03       		.uleb128 0x3
 3001 0180 0E       		.uleb128 0xe
 3002 0181 3A       		.uleb128 0x3a
 3003 0182 0B       		.uleb128 0xb
 3004 0183 3B       		.uleb128 0x3b
 3005 0184 0B       		.uleb128 0xb
 3006 0185 49       		.uleb128 0x49
 3007 0186 13       		.uleb128 0x13
 3008 0187 02       		.uleb128 0x2
 3009 0188 06       		.uleb128 0x6
 3010 0189 00       		.byte	0
 3011 018a 00       		.byte	0
 3012 018b 20       		.uleb128 0x20
 3013 018c 34       		.uleb128 0x34
 3014 018d 00       		.byte	0
 3015 018e 03       		.uleb128 0x3
 3016 018f 0E       		.uleb128 0xe
 3017 0190 3A       		.uleb128 0x3a
 3018 0191 0B       		.uleb128 0xb
 3019 0192 3B       		.uleb128 0x3b
 3020 0193 0B       		.uleb128 0xb
 3021 0194 49       		.uleb128 0x49
 3022 0195 13       		.uleb128 0x13
 3023 0196 02       		.uleb128 0x2
 3024 0197 06       		.uleb128 0x6
 3025 0198 00       		.byte	0
 3026 0199 00       		.byte	0
 3027 019a 21       		.uleb128 0x21
 3028 019b 0B       		.uleb128 0xb
 3029 019c 01       		.byte	0x1
 3030 019d 11       		.uleb128 0x11
 3031 019e 01       		.uleb128 0x1
 3032 019f 12       		.uleb128 0x12
 3033 01a0 01       		.uleb128 0x1
 3034 01a1 01       		.uleb128 0x1
 3035 01a2 13       		.uleb128 0x13
 3036 01a3 00       		.byte	0
 3037 01a4 00       		.byte	0
 3038 01a5 22       		.uleb128 0x22
 3039 01a6 34       		.uleb128 0x34
 3040 01a7 00       		.byte	0
 3041 01a8 03       		.uleb128 0x3
 3042 01a9 08       		.uleb128 0x8
 3043 01aa 3A       		.uleb128 0x3a
 3044 01ab 0B       		.uleb128 0xb
 3045 01ac 3B       		.uleb128 0x3b
 3046 01ad 0B       		.uleb128 0xb
 3047 01ae 49       		.uleb128 0x49
 3048 01af 13       		.uleb128 0x13
 3049 01b0 02       		.uleb128 0x2
 3050 01b1 06       		.uleb128 0x6
 3051 01b2 00       		.byte	0
 3052 01b3 00       		.byte	0
 3053 01b4 23       		.uleb128 0x23
 3054 01b5 1D       		.uleb128 0x1d
 3055 01b6 01       		.byte	0x1
ARM GAS  C:\Users\z80\AppData\Local\Temp\cctXg9Kf.s 			page 55


 3056 01b7 31       		.uleb128 0x31
 3057 01b8 13       		.uleb128 0x13
 3058 01b9 52       		.uleb128 0x52
 3059 01ba 01       		.uleb128 0x1
 3060 01bb 55       		.uleb128 0x55
 3061 01bc 06       		.uleb128 0x6
 3062 01bd 58       		.uleb128 0x58
 3063 01be 0B       		.uleb128 0xb
 3064 01bf 59       		.uleb128 0x59
 3065 01c0 0B       		.uleb128 0xb
 3066 01c1 01       		.uleb128 0x1
 3067 01c2 13       		.uleb128 0x13
 3068 01c3 00       		.byte	0
 3069 01c4 00       		.byte	0
 3070 01c5 24       		.uleb128 0x24
 3071 01c6 05       		.uleb128 0x5
 3072 01c7 00       		.byte	0
 3073 01c8 31       		.uleb128 0x31
 3074 01c9 13       		.uleb128 0x13
 3075 01ca 02       		.uleb128 0x2
 3076 01cb 06       		.uleb128 0x6
 3077 01cc 00       		.byte	0
 3078 01cd 00       		.byte	0
 3079 01ce 25       		.uleb128 0x25
 3080 01cf 0B       		.uleb128 0xb
 3081 01d0 01       		.byte	0x1
 3082 01d1 55       		.uleb128 0x55
 3083 01d2 06       		.uleb128 0x6
 3084 01d3 00       		.byte	0
 3085 01d4 00       		.byte	0
 3086 01d5 26       		.uleb128 0x26
 3087 01d6 34       		.uleb128 0x34
 3088 01d7 00       		.byte	0
 3089 01d8 31       		.uleb128 0x31
 3090 01d9 13       		.uleb128 0x13
 3091 01da 02       		.uleb128 0x2
 3092 01db 06       		.uleb128 0x6
 3093 01dc 00       		.byte	0
 3094 01dd 00       		.byte	0
 3095 01de 27       		.uleb128 0x27
 3096 01df 0B       		.uleb128 0xb
 3097 01e0 01       		.byte	0x1
 3098 01e1 11       		.uleb128 0x11
 3099 01e2 01       		.uleb128 0x1
 3100 01e3 12       		.uleb128 0x12
 3101 01e4 01       		.uleb128 0x1
 3102 01e5 00       		.byte	0
 3103 01e6 00       		.byte	0
 3104 01e7 28       		.uleb128 0x28
 3105 01e8 2E       		.uleb128 0x2e
 3106 01e9 01       		.byte	0x1
 3107 01ea 3F       		.uleb128 0x3f
 3108 01eb 0C       		.uleb128 0xc
 3109 01ec 03       		.uleb128 0x3
 3110 01ed 0E       		.uleb128 0xe
 3111 01ee 3A       		.uleb128 0x3a
 3112 01ef 0B       		.uleb128 0xb
ARM GAS  C:\Users\z80\AppData\Local\Temp\cctXg9Kf.s 			page 56


 3113 01f0 3B       		.uleb128 0x3b
 3114 01f1 0B       		.uleb128 0xb
 3115 01f2 27       		.uleb128 0x27
 3116 01f3 0C       		.uleb128 0xc
 3117 01f4 11       		.uleb128 0x11
 3118 01f5 01       		.uleb128 0x1
 3119 01f6 12       		.uleb128 0x12
 3120 01f7 01       		.uleb128 0x1
 3121 01f8 40       		.uleb128 0x40
 3122 01f9 06       		.uleb128 0x6
 3123 01fa 01       		.uleb128 0x1
 3124 01fb 13       		.uleb128 0x13
 3125 01fc 00       		.byte	0
 3126 01fd 00       		.byte	0
 3127 01fe 29       		.uleb128 0x29
 3128 01ff 1D       		.uleb128 0x1d
 3129 0200 01       		.byte	0x1
 3130 0201 31       		.uleb128 0x31
 3131 0202 13       		.uleb128 0x13
 3132 0203 52       		.uleb128 0x52
 3133 0204 01       		.uleb128 0x1
 3134 0205 55       		.uleb128 0x55
 3135 0206 06       		.uleb128 0x6
 3136 0207 58       		.uleb128 0x58
 3137 0208 0B       		.uleb128 0xb
 3138 0209 59       		.uleb128 0x59
 3139 020a 0B       		.uleb128 0xb
 3140 020b 00       		.byte	0
 3141 020c 00       		.byte	0
 3142 020d 2A       		.uleb128 0x2a
 3143 020e 2E       		.uleb128 0x2e
 3144 020f 00       		.byte	0
 3145 0210 3F       		.uleb128 0x3f
 3146 0211 0C       		.uleb128 0xc
 3147 0212 03       		.uleb128 0x3
 3148 0213 0E       		.uleb128 0xe
 3149 0214 3A       		.uleb128 0x3a
 3150 0215 0B       		.uleb128 0xb
 3151 0216 3B       		.uleb128 0x3b
 3152 0217 0B       		.uleb128 0xb
 3153 0218 27       		.uleb128 0x27
 3154 0219 0C       		.uleb128 0xc
 3155 021a 11       		.uleb128 0x11
 3156 021b 01       		.uleb128 0x1
 3157 021c 12       		.uleb128 0x12
 3158 021d 01       		.uleb128 0x1
 3159 021e 40       		.uleb128 0x40
 3160 021f 06       		.uleb128 0x6
 3161 0220 00       		.byte	0
 3162 0221 00       		.byte	0
 3163 0222 2B       		.uleb128 0x2b
 3164 0223 2E       		.uleb128 0x2e
 3165 0224 00       		.byte	0
 3166 0225 3F       		.uleb128 0x3f
 3167 0226 0C       		.uleb128 0xc
 3168 0227 03       		.uleb128 0x3
 3169 0228 0E       		.uleb128 0xe
ARM GAS  C:\Users\z80\AppData\Local\Temp\cctXg9Kf.s 			page 57


 3170 0229 3A       		.uleb128 0x3a
 3171 022a 0B       		.uleb128 0xb
 3172 022b 3B       		.uleb128 0x3b
 3173 022c 0B       		.uleb128 0xb
 3174 022d 27       		.uleb128 0x27
 3175 022e 0C       		.uleb128 0xc
 3176 022f 49       		.uleb128 0x49
 3177 0230 13       		.uleb128 0x13
 3178 0231 11       		.uleb128 0x11
 3179 0232 01       		.uleb128 0x1
 3180 0233 12       		.uleb128 0x12
 3181 0234 01       		.uleb128 0x1
 3182 0235 40       		.uleb128 0x40
 3183 0236 0A       		.uleb128 0xa
 3184 0237 00       		.byte	0
 3185 0238 00       		.byte	0
 3186 0239 2C       		.uleb128 0x2c
 3187 023a 0B       		.uleb128 0xb
 3188 023b 01       		.byte	0x1
 3189 023c 55       		.uleb128 0x55
 3190 023d 06       		.uleb128 0x6
 3191 023e 01       		.uleb128 0x1
 3192 023f 13       		.uleb128 0x13
 3193 0240 00       		.byte	0
 3194 0241 00       		.byte	0
 3195 0242 2D       		.uleb128 0x2d
 3196 0243 1D       		.uleb128 0x1d
 3197 0244 01       		.byte	0x1
 3198 0245 31       		.uleb128 0x31
 3199 0246 13       		.uleb128 0x13
 3200 0247 11       		.uleb128 0x11
 3201 0248 01       		.uleb128 0x1
 3202 0249 12       		.uleb128 0x12
 3203 024a 01       		.uleb128 0x1
 3204 024b 58       		.uleb128 0x58
 3205 024c 0B       		.uleb128 0xb
 3206 024d 59       		.uleb128 0x59
 3207 024e 0B       		.uleb128 0xb
 3208 024f 01       		.uleb128 0x1
 3209 0250 13       		.uleb128 0x13
 3210 0251 00       		.byte	0
 3211 0252 00       		.byte	0
 3212 0253 2E       		.uleb128 0x2e
 3213 0254 05       		.uleb128 0x5
 3214 0255 00       		.byte	0
 3215 0256 31       		.uleb128 0x31
 3216 0257 13       		.uleb128 0x13
 3217 0258 02       		.uleb128 0x2
 3218 0259 0A       		.uleb128 0xa
 3219 025a 00       		.byte	0
 3220 025b 00       		.byte	0
 3221 025c 2F       		.uleb128 0x2f
 3222 025d 2E       		.uleb128 0x2e
 3223 025e 01       		.byte	0x1
 3224 025f 31       		.uleb128 0x31
 3225 0260 13       		.uleb128 0x13
 3226 0261 11       		.uleb128 0x11
ARM GAS  C:\Users\z80\AppData\Local\Temp\cctXg9Kf.s 			page 58


 3227 0262 01       		.uleb128 0x1
 3228 0263 12       		.uleb128 0x12
 3229 0264 01       		.uleb128 0x1
 3230 0265 40       		.uleb128 0x40
 3231 0266 06       		.uleb128 0x6
 3232 0267 01       		.uleb128 0x1
 3233 0268 13       		.uleb128 0x13
 3234 0269 00       		.byte	0
 3235 026a 00       		.byte	0
 3236 026b 30       		.uleb128 0x30
 3237 026c 34       		.uleb128 0x34
 3238 026d 00       		.byte	0
 3239 026e 03       		.uleb128 0x3
 3240 026f 0E       		.uleb128 0xe
 3241 0270 3A       		.uleb128 0x3a
 3242 0271 0B       		.uleb128 0xb
 3243 0272 3B       		.uleb128 0x3b
 3244 0273 0B       		.uleb128 0xb
 3245 0274 49       		.uleb128 0x49
 3246 0275 13       		.uleb128 0x13
 3247 0276 02       		.uleb128 0x2
 3248 0277 0A       		.uleb128 0xa
 3249 0278 00       		.byte	0
 3250 0279 00       		.byte	0
 3251 027a 31       		.uleb128 0x31
 3252 027b 01       		.uleb128 0x1
 3253 027c 01       		.byte	0x1
 3254 027d 49       		.uleb128 0x49
 3255 027e 13       		.uleb128 0x13
 3256 027f 01       		.uleb128 0x1
 3257 0280 13       		.uleb128 0x13
 3258 0281 00       		.byte	0
 3259 0282 00       		.byte	0
 3260 0283 32       		.uleb128 0x32
 3261 0284 21       		.uleb128 0x21
 3262 0285 00       		.byte	0
 3263 0286 49       		.uleb128 0x49
 3264 0287 13       		.uleb128 0x13
 3265 0288 2F       		.uleb128 0x2f
 3266 0289 0B       		.uleb128 0xb
 3267 028a 00       		.byte	0
 3268 028b 00       		.byte	0
 3269 028c 33       		.uleb128 0x33
 3270 028d 34       		.uleb128 0x34
 3271 028e 00       		.byte	0
 3272 028f 03       		.uleb128 0x3
 3273 0290 0E       		.uleb128 0xe
 3274 0291 3A       		.uleb128 0x3a
 3275 0292 0B       		.uleb128 0xb
 3276 0293 3B       		.uleb128 0x3b
 3277 0294 05       		.uleb128 0x5
 3278 0295 49       		.uleb128 0x49
 3279 0296 13       		.uleb128 0x13
 3280 0297 3F       		.uleb128 0x3f
 3281 0298 0C       		.uleb128 0xc
 3282 0299 3C       		.uleb128 0x3c
 3283 029a 0C       		.uleb128 0xc
ARM GAS  C:\Users\z80\AppData\Local\Temp\cctXg9Kf.s 			page 59


 3284 029b 00       		.byte	0
 3285 029c 00       		.byte	0
 3286 029d 34       		.uleb128 0x34
 3287 029e 34       		.uleb128 0x34
 3288 029f 00       		.byte	0
 3289 02a0 03       		.uleb128 0x3
 3290 02a1 0E       		.uleb128 0xe
 3291 02a2 3A       		.uleb128 0x3a
 3292 02a3 0B       		.uleb128 0xb
 3293 02a4 3B       		.uleb128 0x3b
 3294 02a5 0B       		.uleb128 0xb
 3295 02a6 49       		.uleb128 0x49
 3296 02a7 13       		.uleb128 0x13
 3297 02a8 3F       		.uleb128 0x3f
 3298 02a9 0C       		.uleb128 0xc
 3299 02aa 02       		.uleb128 0x2
 3300 02ab 0A       		.uleb128 0xa
 3301 02ac 00       		.byte	0
 3302 02ad 00       		.byte	0
 3303 02ae 35       		.uleb128 0x35
 3304 02af 21       		.uleb128 0x21
 3305 02b0 00       		.byte	0
 3306 02b1 49       		.uleb128 0x49
 3307 02b2 13       		.uleb128 0x13
 3308 02b3 2F       		.uleb128 0x2f
 3309 02b4 05       		.uleb128 0x5
 3310 02b5 00       		.byte	0
 3311 02b6 00       		.byte	0
 3312 02b7 00       		.byte	0
 3313              		.section	.debug_loc,"",%progbits
 3314              	.Ldebug_loc0:
 3315              	.LLST0:
 3316 0000 00000000 		.4byte	.LFB64
 3317 0004 04000000 		.4byte	.LCFI0
 3318 0008 0200     		.2byte	0x2
 3319 000a 7D       		.byte	0x7d
 3320 000b 00       		.sleb128 0
 3321 000c 04000000 		.4byte	.LCFI0
 3322 0010 50020000 		.4byte	.LFE64
 3323 0014 0200     		.2byte	0x2
 3324 0016 7D       		.byte	0x7d
 3325 0017 20       		.sleb128 32
 3326 0018 00000000 		.4byte	0
 3327 001c 00000000 		.4byte	0
 3328              	.LLST1:
 3329 0020 00000000 		.4byte	.LVL0
 3330 0024 25000000 		.4byte	.LVL3-1
 3331 0028 0100     		.2byte	0x1
 3332 002a 50       		.byte	0x50
 3333 002b 00000000 		.4byte	0
 3334 002f 00000000 		.4byte	0
 3335              	.LLST2:
 3336 0033 2A000000 		.4byte	.LVL4
 3337 0037 73000000 		.4byte	.LVL6-1
 3338 003b 0500     		.2byte	0x5
 3339 003d 03       		.byte	0x3
 3340 003e 00000000 		.4byte	adcIndex
ARM GAS  C:\Users\z80\AppData\Local\Temp\cctXg9Kf.s 			page 60


 3341 0042 73000000 		.4byte	.LVL6-1
 3342 0046 82010000 		.4byte	.LVL22
 3343 004a 0100     		.2byte	0x1
 3344 004c 55       		.byte	0x55
 3345 004d 9E010000 		.4byte	.LVL26
 3346 0051 C0010000 		.4byte	.LVL28
 3347 0055 0100     		.2byte	0x1
 3348 0057 55       		.byte	0x55
 3349 0058 00000000 		.4byte	0
 3350 005c 00000000 		.4byte	0
 3351              	.LLST3:
 3352 0060 74000000 		.4byte	.LVL6
 3353 0064 BC000000 		.4byte	.LVL8
 3354 0068 2800     		.2byte	0x28
 3355 006a 03       		.byte	0x3
 3356 006b 01000000 		.4byte	adc_rx_buffer+1
 3357 006f 94       		.byte	0x94
 3358 0070 01       		.byte	0x1
 3359 0071 48       		.byte	0x48
 3360 0072 24       		.byte	0x24
 3361 0073 48       		.byte	0x48
 3362 0074 25       		.byte	0x25
 3363 0075 38       		.byte	0x38
 3364 0076 24       		.byte	0x24
 3365 0077 03       		.byte	0x3
 3366 0078 02000000 		.4byte	adc_rx_buffer+2
 3367 007c 94       		.byte	0x94
 3368 007d 01       		.byte	0x1
 3369 007e 48       		.byte	0x48
 3370 007f 24       		.byte	0x24
 3371 0080 48       		.byte	0x48
 3372 0081 25       		.byte	0x25
 3373 0082 22       		.byte	0x22
 3374 0083 03       		.byte	0x3
 3375 0084 00000000 		.4byte	adc_rx_buffer
 3376 0088 94       		.byte	0x94
 3377 0089 01       		.byte	0x1
 3378 008a 48       		.byte	0x48
 3379 008b 24       		.byte	0x24
 3380 008c 48       		.byte	0x48
 3381 008d 25       		.byte	0x25
 3382 008e 40       		.byte	0x40
 3383 008f 24       		.byte	0x24
 3384 0090 22       		.byte	0x22
 3385 0091 9F       		.byte	0x9f
 3386 0092 BC000000 		.4byte	.LVL8
 3387 0096 82010000 		.4byte	.LVL22
 3388 009a 2E00     		.2byte	0x2e
 3389 009c 03       		.byte	0x3
 3390 009d 01000000 		.4byte	adc_rx_buffer+1
 3391 00a1 94       		.byte	0x94
 3392 00a2 01       		.byte	0x1
 3393 00a3 48       		.byte	0x48
 3394 00a4 24       		.byte	0x24
 3395 00a5 48       		.byte	0x48
 3396 00a6 25       		.byte	0x25
 3397 00a7 38       		.byte	0x38
ARM GAS  C:\Users\z80\AppData\Local\Temp\cctXg9Kf.s 			page 61


 3398 00a8 24       		.byte	0x24
 3399 00a9 03       		.byte	0x3
 3400 00aa 02000000 		.4byte	adc_rx_buffer+2
 3401 00ae 94       		.byte	0x94
 3402 00af 01       		.byte	0x1
 3403 00b0 48       		.byte	0x48
 3404 00b1 24       		.byte	0x24
 3405 00b2 48       		.byte	0x48
 3406 00b3 25       		.byte	0x25
 3407 00b4 22       		.byte	0x22
 3408 00b5 03       		.byte	0x3
 3409 00b6 00000000 		.4byte	adc_rx_buffer
 3410 00ba 94       		.byte	0x94
 3411 00bb 01       		.byte	0x1
 3412 00bc 48       		.byte	0x48
 3413 00bd 24       		.byte	0x24
 3414 00be 48       		.byte	0x48
 3415 00bf 25       		.byte	0x25
 3416 00c0 40       		.byte	0x40
 3417 00c1 24       		.byte	0x24
 3418 00c2 22       		.byte	0x22
 3419 00c3 31       		.byte	0x31
 3420 00c4 25       		.byte	0x25
 3421 00c5 0A       		.byte	0xa
 3422 00c6 FFFF     		.2byte	0xffff
 3423 00c8 1A       		.byte	0x1a
 3424 00c9 9F       		.byte	0x9f
 3425 00ca 9E010000 		.4byte	.LVL26
 3426 00ce D8010000 		.4byte	.LVL30
 3427 00d2 2E00     		.2byte	0x2e
 3428 00d4 03       		.byte	0x3
 3429 00d5 01000000 		.4byte	adc_rx_buffer+1
 3430 00d9 94       		.byte	0x94
 3431 00da 01       		.byte	0x1
 3432 00db 48       		.byte	0x48
 3433 00dc 24       		.byte	0x24
 3434 00dd 48       		.byte	0x48
 3435 00de 25       		.byte	0x25
 3436 00df 38       		.byte	0x38
 3437 00e0 24       		.byte	0x24
 3438 00e1 03       		.byte	0x3
 3439 00e2 02000000 		.4byte	adc_rx_buffer+2
 3440 00e6 94       		.byte	0x94
 3441 00e7 01       		.byte	0x1
 3442 00e8 48       		.byte	0x48
 3443 00e9 24       		.byte	0x24
 3444 00ea 48       		.byte	0x48
 3445 00eb 25       		.byte	0x25
 3446 00ec 22       		.byte	0x22
 3447 00ed 03       		.byte	0x3
 3448 00ee 00000000 		.4byte	adc_rx_buffer
 3449 00f2 94       		.byte	0x94
 3450 00f3 01       		.byte	0x1
 3451 00f4 48       		.byte	0x48
 3452 00f5 24       		.byte	0x24
 3453 00f6 48       		.byte	0x48
 3454 00f7 25       		.byte	0x25
ARM GAS  C:\Users\z80\AppData\Local\Temp\cctXg9Kf.s 			page 62


 3455 00f8 40       		.byte	0x40
 3456 00f9 24       		.byte	0x24
 3457 00fa 22       		.byte	0x22
 3458 00fb 31       		.byte	0x31
 3459 00fc 25       		.byte	0x25
 3460 00fd 0A       		.byte	0xa
 3461 00fe FFFF     		.2byte	0xffff
 3462 0100 1A       		.byte	0x1a
 3463 0101 9F       		.byte	0x9f
 3464 0102 D8010000 		.4byte	.LVL30
 3465 0106 DF010000 		.4byte	.LVL31-1
 3466 010a 0500     		.2byte	0x5
 3467 010c 03       		.byte	0x3
 3468 010d 00000000 		.4byte	instantAdcData
 3469 0111 DF010000 		.4byte	.LVL31-1
 3470 0115 F6010000 		.4byte	.LVL33
 3471 0119 0100     		.2byte	0x1
 3472 011b 56       		.byte	0x56
 3473 011c F6010000 		.4byte	.LVL33
 3474 0120 FD010000 		.4byte	.LVL34-1
 3475 0124 0500     		.2byte	0x5
 3476 0126 03       		.byte	0x3
 3477 0127 04000000 		.4byte	instantAdcData+4
 3478 012b FD010000 		.4byte	.LVL34-1
 3479 012f 14020000 		.4byte	.LVL36
 3480 0133 0100     		.2byte	0x1
 3481 0135 56       		.byte	0x56
 3482 0136 14020000 		.4byte	.LVL36
 3483 013a 1B020000 		.4byte	.LVL37-1
 3484 013e 0500     		.2byte	0x5
 3485 0140 03       		.byte	0x3
 3486 0141 08000000 		.4byte	instantAdcData+8
 3487 0145 1B020000 		.4byte	.LVL37-1
 3488 0149 32020000 		.4byte	.LVL39
 3489 014d 0100     		.2byte	0x1
 3490 014f 56       		.byte	0x56
 3491 0150 32020000 		.4byte	.LVL39
 3492 0154 39020000 		.4byte	.LVL40-1
 3493 0158 0500     		.2byte	0x5
 3494 015a 03       		.byte	0x3
 3495 015b 0C000000 		.4byte	instantAdcData+12
 3496 015f 39020000 		.4byte	.LVL40-1
 3497 0163 50020000 		.4byte	.LFE64
 3498 0167 0100     		.2byte	0x1
 3499 0169 54       		.byte	0x54
 3500 016a 00000000 		.4byte	0
 3501 016e 00000000 		.4byte	0
 3502              	.LLST4:
 3503 0172 1A000000 		.4byte	.LVL2
 3504 0176 25000000 		.4byte	.LVL3-1
 3505 017a 0100     		.2byte	0x1
 3506 017c 53       		.byte	0x53
 3507 017d 00000000 		.4byte	0
 3508 0181 00000000 		.4byte	0
 3509              	.LLST5:
 3510 0185 4C000000 		.4byte	.LVL5
 3511 0189 8C000000 		.4byte	.LVL7
ARM GAS  C:\Users\z80\AppData\Local\Temp\cctXg9Kf.s 			page 63


 3512 018d 0100     		.2byte	0x1
 3513 018f 54       		.byte	0x54
 3514 0190 00000000 		.4byte	0
 3515 0194 00000000 		.4byte	0
 3516              	.LLST6:
 3517 0198 BC000000 		.4byte	.LVL8
 3518 019c 82010000 		.4byte	.LVL22
 3519 01a0 2E00     		.2byte	0x2e
 3520 01a2 03       		.byte	0x3
 3521 01a3 01000000 		.4byte	adc_rx_buffer+1
 3522 01a7 94       		.byte	0x94
 3523 01a8 01       		.byte	0x1
 3524 01a9 48       		.byte	0x48
 3525 01aa 24       		.byte	0x24
 3526 01ab 48       		.byte	0x48
 3527 01ac 25       		.byte	0x25
 3528 01ad 38       		.byte	0x38
 3529 01ae 24       		.byte	0x24
 3530 01af 03       		.byte	0x3
 3531 01b0 02000000 		.4byte	adc_rx_buffer+2
 3532 01b4 94       		.byte	0x94
 3533 01b5 01       		.byte	0x1
 3534 01b6 48       		.byte	0x48
 3535 01b7 24       		.byte	0x24
 3536 01b8 48       		.byte	0x48
 3537 01b9 25       		.byte	0x25
 3538 01ba 22       		.byte	0x22
 3539 01bb 03       		.byte	0x3
 3540 01bc 00000000 		.4byte	adc_rx_buffer
 3541 01c0 94       		.byte	0x94
 3542 01c1 01       		.byte	0x1
 3543 01c2 48       		.byte	0x48
 3544 01c3 24       		.byte	0x24
 3545 01c4 48       		.byte	0x48
 3546 01c5 25       		.byte	0x25
 3547 01c6 40       		.byte	0x40
 3548 01c7 24       		.byte	0x24
 3549 01c8 22       		.byte	0x22
 3550 01c9 31       		.byte	0x31
 3551 01ca 25       		.byte	0x25
 3552 01cb 0A       		.byte	0xa
 3553 01cc FFFF     		.2byte	0xffff
 3554 01ce 1A       		.byte	0x1a
 3555 01cf 9F       		.byte	0x9f
 3556 01d0 9E010000 		.4byte	.LVL26
 3557 01d4 DF010000 		.4byte	.LVL31-1
 3558 01d8 2E00     		.2byte	0x2e
 3559 01da 03       		.byte	0x3
 3560 01db 01000000 		.4byte	adc_rx_buffer+1
 3561 01df 94       		.byte	0x94
 3562 01e0 01       		.byte	0x1
 3563 01e1 48       		.byte	0x48
 3564 01e2 24       		.byte	0x24
 3565 01e3 48       		.byte	0x48
 3566 01e4 25       		.byte	0x25
 3567 01e5 38       		.byte	0x38
 3568 01e6 24       		.byte	0x24
ARM GAS  C:\Users\z80\AppData\Local\Temp\cctXg9Kf.s 			page 64


 3569 01e7 03       		.byte	0x3
 3570 01e8 02000000 		.4byte	adc_rx_buffer+2
 3571 01ec 94       		.byte	0x94
 3572 01ed 01       		.byte	0x1
 3573 01ee 48       		.byte	0x48
 3574 01ef 24       		.byte	0x24
 3575 01f0 48       		.byte	0x48
 3576 01f1 25       		.byte	0x25
 3577 01f2 22       		.byte	0x22
 3578 01f3 03       		.byte	0x3
 3579 01f4 00000000 		.4byte	adc_rx_buffer
 3580 01f8 94       		.byte	0x94
 3581 01f9 01       		.byte	0x1
 3582 01fa 48       		.byte	0x48
 3583 01fb 24       		.byte	0x24
 3584 01fc 48       		.byte	0x48
 3585 01fd 25       		.byte	0x25
 3586 01fe 40       		.byte	0x40
 3587 01ff 24       		.byte	0x24
 3588 0200 22       		.byte	0x22
 3589 0201 31       		.byte	0x31
 3590 0202 25       		.byte	0x25
 3591 0203 0A       		.byte	0xa
 3592 0204 FFFF     		.2byte	0xffff
 3593 0206 1A       		.byte	0x1a
 3594 0207 9F       		.byte	0x9f
 3595 0208 00000000 		.4byte	0
 3596 020c 00000000 		.4byte	0
 3597              	.LLST7:
 3598 0210 BC000000 		.4byte	.LVL8
 3599 0214 82010000 		.4byte	.LVL22
 3600 0218 0100     		.2byte	0x1
 3601 021a 5E       		.byte	0x5e
 3602 021b 9E010000 		.4byte	.LVL26
 3603 021f DF010000 		.4byte	.LVL31-1
 3604 0223 0100     		.2byte	0x1
 3605 0225 5E       		.byte	0x5e
 3606 0226 00000000 		.4byte	0
 3607 022a 00000000 		.4byte	0
 3608              	.LLST8:
 3609 022e C2000000 		.4byte	.LVL9
 3610 0232 EC000000 		.4byte	.LVL10
 3611 0236 0100     		.2byte	0x1
 3612 0238 53       		.byte	0x53
 3613 0239 EC000000 		.4byte	.LVL10
 3614 023d EE000000 		.4byte	.LVL11
 3615 0241 0600     		.2byte	0x6
 3616 0243 71       		.byte	0x71
 3617 0244 00       		.sleb128 0
 3618 0245 70       		.byte	0x70
 3619 0246 00       		.sleb128 0
 3620 0247 22       		.byte	0x22
 3621 0248 9F       		.byte	0x9f
 3622 0249 EE000000 		.4byte	.LVL11
 3623 024d 02010000 		.4byte	.LVL15
 3624 0251 0900     		.2byte	0x9
 3625 0253 70       		.byte	0x70
ARM GAS  C:\Users\z80\AppData\Local\Temp\cctXg9Kf.s 			page 65


 3626 0254 00       		.sleb128 0
 3627 0255 03       		.byte	0x3
 3628 0256 00000000 		.4byte	.LANCHOR2
 3629 025a 22       		.byte	0x22
 3630 025b 9F       		.byte	0x9f
 3631 025c 00000000 		.4byte	0
 3632 0260 00000000 		.4byte	0
 3633              	.LLST9:
 3634 0264 C2000000 		.4byte	.LVL9
 3635 0268 82010000 		.4byte	.LVL22
 3636 026c 0900     		.2byte	0x9
 3637 026e 7E       		.byte	0x7e
 3638 026f 00       		.sleb128 0
 3639 0270 03       		.byte	0x3
 3640 0271 00000000 		.4byte	adcPointer
 3641 0275 22       		.byte	0x22
 3642 0276 9F       		.byte	0x9f
 3643 0277 9E010000 		.4byte	.LVL26
 3644 027b DF010000 		.4byte	.LVL31-1
 3645 027f 0900     		.2byte	0x9
 3646 0281 7E       		.byte	0x7e
 3647 0282 00       		.sleb128 0
 3648 0283 03       		.byte	0x3
 3649 0284 00000000 		.4byte	adcPointer
 3650 0288 22       		.byte	0x22
 3651 0289 9F       		.byte	0x9f
 3652 028a 00000000 		.4byte	0
 3653 028e 00000000 		.4byte	0
 3654              	.LLST10:
 3655 0292 EC000000 		.4byte	.LVL10
 3656 0296 82010000 		.4byte	.LVL22
 3657 029a 0100     		.2byte	0x1
 3658 029c 53       		.byte	0x53
 3659 029d 9E010000 		.4byte	.LVL26
 3660 02a1 A2010000 		.4byte	.LVL27
 3661 02a5 0100     		.2byte	0x1
 3662 02a7 53       		.byte	0x53
 3663 02a8 00000000 		.4byte	0
 3664 02ac 00000000 		.4byte	0
 3665              	.LLST11:
 3666 02b0 EC000000 		.4byte	.LVL10
 3667 02b4 F2000000 		.4byte	.LVL12
 3668 02b8 0200     		.2byte	0x2
 3669 02ba 30       		.byte	0x30
 3670 02bb 9F       		.byte	0x9f
 3671 02bc F2000000 		.4byte	.LVL12
 3672 02c0 FC000000 		.4byte	.LVL13
 3673 02c4 0200     		.2byte	0x2
 3674 02c6 31       		.byte	0x31
 3675 02c7 9F       		.byte	0x9f
 3676 02c8 FC000000 		.4byte	.LVL13
 3677 02cc 00010000 		.4byte	.LVL14
 3678 02d0 0200     		.2byte	0x2
 3679 02d2 32       		.byte	0x32
 3680 02d3 9F       		.byte	0x9f
 3681 02d4 00010000 		.4byte	.LVL14
 3682 02d8 02010000 		.4byte	.LVL15
ARM GAS  C:\Users\z80\AppData\Local\Temp\cctXg9Kf.s 			page 66


 3683 02dc 0200     		.2byte	0x2
 3684 02de 34       		.byte	0x34
 3685 02df 9F       		.byte	0x9f
 3686 02e0 6A010000 		.4byte	.LVL21
 3687 02e4 82010000 		.4byte	.LVL22
 3688 02e8 0100     		.2byte	0x1
 3689 02ea 57       		.byte	0x57
 3690 02eb 9E010000 		.4byte	.LVL26
 3691 02ef C8010000 		.4byte	.LVL29
 3692 02f3 0100     		.2byte	0x1
 3693 02f5 57       		.byte	0x57
 3694 02f6 00000000 		.4byte	0
 3695 02fa 00000000 		.4byte	0
 3696              	.LLST12:
 3697 02fe 06010000 		.4byte	.LVL16
 3698 0302 3C010000 		.4byte	.LVL19
 3699 0306 0100     		.2byte	0x1
 3700 0308 57       		.byte	0x57
 3701 0309 4C010000 		.4byte	.LVL20
 3702 030d 6A010000 		.4byte	.LVL21
 3703 0311 0100     		.2byte	0x1
 3704 0313 57       		.byte	0x57
 3705 0314 00000000 		.4byte	0
 3706 0318 00000000 		.4byte	0
 3707              	.LLST13:
 3708 031c 14010000 		.4byte	.LVL17
 3709 0320 1A010000 		.4byte	.LVL18
 3710 0324 0500     		.2byte	0x5
 3711 0326 73       		.byte	0x73
 3712 0327 00       		.sleb128 0
 3713 0328 71       		.byte	0x71
 3714 0329 00       		.sleb128 0
 3715 032a 22       		.byte	0x22
 3716 032b 00000000 		.4byte	0
 3717 032f 00000000 		.4byte	0
 3718              	.LLST14:
 3719 0333 8C010000 		.4byte	.LVL24
 3720 0337 90010000 		.4byte	.LVL25
 3721 033b 0100     		.2byte	0x1
 3722 033d 53       		.byte	0x53
 3723 033e 00000000 		.4byte	0
 3724 0342 00000000 		.4byte	0
 3725              	.LLST15:
 3726 0346 D8010000 		.4byte	.LVL30
 3727 034a DF010000 		.4byte	.LVL31-1
 3728 034e 0500     		.2byte	0x5
 3729 0350 03       		.byte	0x3
 3730 0351 00000000 		.4byte	instantAdcData
 3731 0355 DF010000 		.4byte	.LVL31-1
 3732 0359 E0010000 		.4byte	.LVL31
 3733 035d 0100     		.2byte	0x1
 3734 035f 56       		.byte	0x56
 3735 0360 E0010000 		.4byte	.LVL31
 3736 0364 EA010000 		.4byte	.LVL32
 3737 0368 0500     		.2byte	0x5
 3738 036a 76       		.byte	0x76
 3739 036b 00       		.sleb128 0
ARM GAS  C:\Users\z80\AppData\Local\Temp\cctXg9Kf.s 			page 67


 3740 036c 38       		.byte	0x38
 3741 036d 26       		.byte	0x26
 3742 036e 9F       		.byte	0x9f
 3743 036f EA010000 		.4byte	.LVL32
 3744 0373 F6010000 		.4byte	.LVL33
 3745 0377 0500     		.2byte	0x5
 3746 0379 76       		.byte	0x76
 3747 037a 00       		.sleb128 0
 3748 037b 40       		.byte	0x40
 3749 037c 26       		.byte	0x26
 3750 037d 9F       		.byte	0x9f
 3751 037e F6010000 		.4byte	.LVL33
 3752 0382 FD010000 		.4byte	.LVL34-1
 3753 0386 0500     		.2byte	0x5
 3754 0388 03       		.byte	0x3
 3755 0389 04000000 		.4byte	instantAdcData+4
 3756 038d FD010000 		.4byte	.LVL34-1
 3757 0391 FE010000 		.4byte	.LVL34
 3758 0395 0100     		.2byte	0x1
 3759 0397 56       		.byte	0x56
 3760 0398 FE010000 		.4byte	.LVL34
 3761 039c 08020000 		.4byte	.LVL35
 3762 03a0 0500     		.2byte	0x5
 3763 03a2 76       		.byte	0x76
 3764 03a3 00       		.sleb128 0
 3765 03a4 38       		.byte	0x38
 3766 03a5 26       		.byte	0x26
 3767 03a6 9F       		.byte	0x9f
 3768 03a7 08020000 		.4byte	.LVL35
 3769 03ab 14020000 		.4byte	.LVL36
 3770 03af 0500     		.2byte	0x5
 3771 03b1 76       		.byte	0x76
 3772 03b2 00       		.sleb128 0
 3773 03b3 40       		.byte	0x40
 3774 03b4 26       		.byte	0x26
 3775 03b5 9F       		.byte	0x9f
 3776 03b6 14020000 		.4byte	.LVL36
 3777 03ba 1B020000 		.4byte	.LVL37-1
 3778 03be 0500     		.2byte	0x5
 3779 03c0 03       		.byte	0x3
 3780 03c1 08000000 		.4byte	instantAdcData+8
 3781 03c5 1B020000 		.4byte	.LVL37-1
 3782 03c9 1C020000 		.4byte	.LVL37
 3783 03cd 0100     		.2byte	0x1
 3784 03cf 56       		.byte	0x56
 3785 03d0 1C020000 		.4byte	.LVL37
 3786 03d4 26020000 		.4byte	.LVL38
 3787 03d8 0500     		.2byte	0x5
 3788 03da 76       		.byte	0x76
 3789 03db 00       		.sleb128 0
 3790 03dc 38       		.byte	0x38
 3791 03dd 26       		.byte	0x26
 3792 03de 9F       		.byte	0x9f
 3793 03df 26020000 		.4byte	.LVL38
 3794 03e3 32020000 		.4byte	.LVL39
 3795 03e7 0500     		.2byte	0x5
 3796 03e9 76       		.byte	0x76
ARM GAS  C:\Users\z80\AppData\Local\Temp\cctXg9Kf.s 			page 68


 3797 03ea 00       		.sleb128 0
 3798 03eb 40       		.byte	0x40
 3799 03ec 26       		.byte	0x26
 3800 03ed 9F       		.byte	0x9f
 3801 03ee 32020000 		.4byte	.LVL39
 3802 03f2 39020000 		.4byte	.LVL40-1
 3803 03f6 0500     		.2byte	0x5
 3804 03f8 03       		.byte	0x3
 3805 03f9 0C000000 		.4byte	instantAdcData+12
 3806 03fd 39020000 		.4byte	.LVL40-1
 3807 0401 3A020000 		.4byte	.LVL40
 3808 0405 0100     		.2byte	0x1
 3809 0407 54       		.byte	0x54
 3810 0408 3A020000 		.4byte	.LVL40
 3811 040c 44020000 		.4byte	.LVL41
 3812 0410 0500     		.2byte	0x5
 3813 0412 74       		.byte	0x74
 3814 0413 00       		.sleb128 0
 3815 0414 38       		.byte	0x38
 3816 0415 26       		.byte	0x26
 3817 0416 9F       		.byte	0x9f
 3818 0417 44020000 		.4byte	.LVL41
 3819 041b 50020000 		.4byte	.LFE64
 3820 041f 0500     		.2byte	0x5
 3821 0421 74       		.byte	0x74
 3822 0422 00       		.sleb128 0
 3823 0423 40       		.byte	0x40
 3824 0424 26       		.byte	0x26
 3825 0425 9F       		.byte	0x9f
 3826 0426 00000000 		.4byte	0
 3827 042a 00000000 		.4byte	0
 3828              	.LLST16:
 3829 042e 00000000 		.4byte	.LFB62
 3830 0432 06000000 		.4byte	.LCFI1
 3831 0436 0200     		.2byte	0x2
 3832 0438 7D       		.byte	0x7d
 3833 0439 00       		.sleb128 0
 3834 043a 06000000 		.4byte	.LCFI1
 3835 043e B0000000 		.4byte	.LFE62
 3836 0442 0200     		.2byte	0x2
 3837 0444 7D       		.byte	0x7d
 3838 0445 08       		.sleb128 8
 3839 0446 00000000 		.4byte	0
 3840 044a 00000000 		.4byte	0
 3841              	.LLST17:
 3842 044e 74000000 		.4byte	.LVL42
 3843 0452 AF000000 		.4byte	.LVL43-1
 3844 0456 0500     		.2byte	0x5
 3845 0458 03       		.byte	0x3
 3846 0459 00000000 		.4byte	adcIndex
 3847 045d 00000000 		.4byte	0
 3848 0461 00000000 		.4byte	0
 3849              	.LLST18:
 3850 0465 00000000 		.4byte	.LFB63
 3851 0469 02000000 		.4byte	.LCFI2
 3852 046d 0200     		.2byte	0x2
 3853 046f 7D       		.byte	0x7d
ARM GAS  C:\Users\z80\AppData\Local\Temp\cctXg9Kf.s 			page 69


 3854 0470 00       		.sleb128 0
 3855 0471 02000000 		.4byte	.LCFI2
 3856 0475 28000000 		.4byte	.LFE63
 3857 0479 0200     		.2byte	0x2
 3858 047b 7D       		.byte	0x7d
 3859 047c 08       		.sleb128 8
 3860 047d 00000000 		.4byte	0
 3861 0481 00000000 		.4byte	0
 3862              	.LLST19:
 3863 0485 00000000 		.4byte	.LFB67
 3864 0489 02000000 		.4byte	.LCFI3
 3865 048d 0200     		.2byte	0x2
 3866 048f 7D       		.byte	0x7d
 3867 0490 00       		.sleb128 0
 3868 0491 02000000 		.4byte	.LCFI3
 3869 0495 2A000000 		.4byte	.LFE67
 3870 0499 0200     		.2byte	0x2
 3871 049b 7D       		.byte	0x7d
 3872 049c 08       		.sleb128 8
 3873 049d 00000000 		.4byte	0
 3874 04a1 00000000 		.4byte	0
 3875              	.LLST20:
 3876 04a5 00000000 		.4byte	.LVL44
 3877 04a9 0D000000 		.4byte	.LVL47-1
 3878 04ad 0100     		.2byte	0x1
 3879 04af 50       		.byte	0x50
 3880 04b0 0D000000 		.4byte	.LVL47-1
 3881 04b4 2A000000 		.4byte	.LFE67
 3882 04b8 0100     		.2byte	0x1
 3883 04ba 54       		.byte	0x54
 3884 04bb 00000000 		.4byte	0
 3885 04bf 00000000 		.4byte	0
 3886              	.LLST21:
 3887 04c3 0A000000 		.4byte	.LVL46
 3888 04c7 0D000000 		.4byte	.LVL47-1
 3889 04cb 0100     		.2byte	0x1
 3890 04cd 53       		.byte	0x53
 3891 04ce 00000000 		.4byte	0
 3892 04d2 00000000 		.4byte	0
 3893              	.LLST22:
 3894 04d6 28000000 		.4byte	.LVL49
 3895 04da 2A000000 		.4byte	.LFE67
 3896 04de 0100     		.2byte	0x1
 3897 04e0 53       		.byte	0x53
 3898 04e1 00000000 		.4byte	0
 3899 04e5 00000000 		.4byte	0
 3900              	.LLST23:
 3901 04e9 00000000 		.4byte	.LFB68
 3902 04ed 02000000 		.4byte	.LCFI4
 3903 04f1 0200     		.2byte	0x2
 3904 04f3 7D       		.byte	0x7d
 3905 04f4 00       		.sleb128 0
 3906 04f5 02000000 		.4byte	.LCFI4
 3907 04f9 1E000000 		.4byte	.LFE68
 3908 04fd 0200     		.2byte	0x2
 3909 04ff 7D       		.byte	0x7d
 3910 0500 04       		.sleb128 4
ARM GAS  C:\Users\z80\AppData\Local\Temp\cctXg9Kf.s 			page 70


 3911 0501 00000000 		.4byte	0
 3912 0505 00000000 		.4byte	0
 3913              	.LLST24:
 3914 0509 00000000 		.4byte	.LFB69
 3915 050d 02000000 		.4byte	.LCFI5
 3916 0511 0200     		.2byte	0x2
 3917 0513 7D       		.byte	0x7d
 3918 0514 00       		.sleb128 0
 3919 0515 02000000 		.4byte	.LCFI5
 3920 0519 24000000 		.4byte	.LFE69
 3921 051d 0200     		.2byte	0x2
 3922 051f 7D       		.byte	0x7d
 3923 0520 08       		.sleb128 8
 3924 0521 00000000 		.4byte	0
 3925 0525 00000000 		.4byte	0
 3926              	.LLST25:
 3927 0529 00000000 		.4byte	.LVL51
 3928 052d 0D000000 		.4byte	.LVL54-1
 3929 0531 0100     		.2byte	0x1
 3930 0533 50       		.byte	0x50
 3931 0534 0D000000 		.4byte	.LVL54-1
 3932 0538 24000000 		.4byte	.LFE69
 3933 053c 0100     		.2byte	0x1
 3934 053e 54       		.byte	0x54
 3935 053f 00000000 		.4byte	0
 3936 0543 00000000 		.4byte	0
 3937              	.LLST26:
 3938 0547 0A000000 		.4byte	.LVL53
 3939 054b 0D000000 		.4byte	.LVL54-1
 3940 054f 0100     		.2byte	0x1
 3941 0551 53       		.byte	0x53
 3942 0552 00000000 		.4byte	0
 3943 0556 00000000 		.4byte	0
 3944              	.LLST27:
 3945 055a 22000000 		.4byte	.LVL56
 3946 055e 24000000 		.4byte	.LFE69
 3947 0562 0100     		.2byte	0x1
 3948 0564 53       		.byte	0x53
 3949 0565 00000000 		.4byte	0
 3950 0569 00000000 		.4byte	0
 3951              	.LLST28:
 3952 056d 00000000 		.4byte	.LFB70
 3953 0571 02000000 		.4byte	.LCFI6
 3954 0575 0200     		.2byte	0x2
 3955 0577 7D       		.byte	0x7d
 3956 0578 00       		.sleb128 0
 3957 0579 02000000 		.4byte	.LCFI6
 3958 057d 24000000 		.4byte	.LFE70
 3959 0581 0200     		.2byte	0x2
 3960 0583 7D       		.byte	0x7d
 3961 0584 08       		.sleb128 8
 3962 0585 00000000 		.4byte	0
 3963 0589 00000000 		.4byte	0
 3964              	.LLST29:
 3965 058d 00000000 		.4byte	.LVL57
 3966 0591 0D000000 		.4byte	.LVL60-1
 3967 0595 0100     		.2byte	0x1
ARM GAS  C:\Users\z80\AppData\Local\Temp\cctXg9Kf.s 			page 71


 3968 0597 50       		.byte	0x50
 3969 0598 0D000000 		.4byte	.LVL60-1
 3970 059c 24000000 		.4byte	.LFE70
 3971 05a0 0100     		.2byte	0x1
 3972 05a2 54       		.byte	0x54
 3973 05a3 00000000 		.4byte	0
 3974 05a7 00000000 		.4byte	0
 3975              	.LLST30:
 3976 05ab 0A000000 		.4byte	.LVL59
 3977 05af 0D000000 		.4byte	.LVL60-1
 3978 05b3 0100     		.2byte	0x1
 3979 05b5 53       		.byte	0x53
 3980 05b6 00000000 		.4byte	0
 3981 05ba 00000000 		.4byte	0
 3982              	.LLST31:
 3983 05be 22000000 		.4byte	.LVL62
 3984 05c2 24000000 		.4byte	.LFE70
 3985 05c6 0100     		.2byte	0x1
 3986 05c8 53       		.byte	0x53
 3987 05c9 00000000 		.4byte	0
 3988 05cd 00000000 		.4byte	0
 3989              		.section	.debug_aranges,"",%progbits
 3990 0000 54000000 		.4byte	0x54
 3991 0004 0200     		.2byte	0x2
 3992 0006 00000000 		.4byte	.Ldebug_info0
 3993 000a 04       		.byte	0x4
 3994 000b 00       		.byte	0
 3995 000c 0000     		.2byte	0
 3996 000e 0000     		.2byte	0
 3997 0010 00000000 		.4byte	.LFB64
 3998 0014 50020000 		.4byte	.LFE64-.LFB64
 3999 0018 00000000 		.4byte	.LFB62
 4000 001c B0000000 		.4byte	.LFE62-.LFB62
 4001 0020 00000000 		.4byte	.LFB63
 4002 0024 28000000 		.4byte	.LFE63-.LFB63
 4003 0028 00000000 		.4byte	.LFB65
 4004 002c 0A000000 		.4byte	.LFE65-.LFB65
 4005 0030 00000000 		.4byte	.LFB67
 4006 0034 2A000000 		.4byte	.LFE67-.LFB67
 4007 0038 00000000 		.4byte	.LFB68
 4008 003c 1E000000 		.4byte	.LFE68-.LFB68
 4009 0040 00000000 		.4byte	.LFB69
 4010 0044 24000000 		.4byte	.LFE69-.LFB69
 4011 0048 00000000 		.4byte	.LFB70
 4012 004c 24000000 		.4byte	.LFE70-.LFB70
 4013 0050 00000000 		.4byte	0
 4014 0054 00000000 		.4byte	0
 4015              		.section	.debug_ranges,"",%progbits
 4016              	.Ldebug_ranges0:
 4017 0000 2A000000 		.4byte	.LBB22
 4018 0004 2E000000 		.4byte	.LBE22
 4019 0008 3C000000 		.4byte	.LBB27
 4020 000c 48000000 		.4byte	.LBE27
 4021 0010 4C000000 		.4byte	.LBB28
 4022 0014 62000000 		.4byte	.LBE28
 4023 0018 66000000 		.4byte	.LBB29
 4024 001c 6C000000 		.4byte	.LBE29
ARM GAS  C:\Users\z80\AppData\Local\Temp\cctXg9Kf.s 			page 72


 4025 0020 00000000 		.4byte	0
 4026 0024 00000000 		.4byte	0
 4027 0028 74000000 		.4byte	.LBB30
 4028 002c 78000000 		.4byte	.LBE30
 4029 0030 7C000000 		.4byte	.LBB46
 4030 0034 80000000 		.4byte	.LBE46
 4031 0038 88000000 		.4byte	.LBB47
 4032 003c 8C000000 		.4byte	.LBE47
 4033 0040 90000000 		.4byte	.LBB48
 4034 0044 96000000 		.4byte	.LBE48
 4035 0048 9E000000 		.4byte	.LBB49
 4036 004c A2000000 		.4byte	.LBE49
 4037 0050 A4000000 		.4byte	.LBB50
 4038 0054 A8000000 		.4byte	.LBE50
 4039 0058 AE000000 		.4byte	.LBB51
 4040 005c B8000000 		.4byte	.LBE51
 4041 0060 BC000000 		.4byte	.LBB52
 4042 0064 C2000000 		.4byte	.LBE52
 4043 0068 C6000000 		.4byte	.LBB53
 4044 006c 7A010000 		.4byte	.LBE53
 4045 0070 7C010000 		.4byte	.LBB54
 4046 0074 80010000 		.4byte	.LBE54
 4047 0078 00000000 		.4byte	0
 4048 007c 00000000 		.4byte	0
 4049 0080 74000000 		.4byte	.LBB31
 4050 0084 78000000 		.4byte	.LBE31
 4051 0088 7C000000 		.4byte	.LBB37
 4052 008c 80000000 		.4byte	.LBE37
 4053 0090 88000000 		.4byte	.LBB38
 4054 0094 8C000000 		.4byte	.LBE38
 4055 0098 90000000 		.4byte	.LBB39
 4056 009c 96000000 		.4byte	.LBE39
 4057 00a0 9E000000 		.4byte	.LBB40
 4058 00a4 A2000000 		.4byte	.LBE40
 4059 00a8 A4000000 		.4byte	.LBB41
 4060 00ac A8000000 		.4byte	.LBE41
 4061 00b0 AE000000 		.4byte	.LBB42
 4062 00b4 B8000000 		.4byte	.LBE42
 4063 00b8 BC000000 		.4byte	.LBB43
 4064 00bc C2000000 		.4byte	.LBE43
 4065 00c0 C6000000 		.4byte	.LBB44
 4066 00c4 7A010000 		.4byte	.LBE44
 4067 00c8 7C010000 		.4byte	.LBB45
 4068 00cc 80010000 		.4byte	.LBE45
 4069 00d0 00000000 		.4byte	0
 4070 00d4 00000000 		.4byte	0
 4071 00d8 14010000 		.4byte	.LBB32
 4072 00dc 1A010000 		.4byte	.LBE32
 4073 00e0 2C010000 		.4byte	.LBB33
 4074 00e4 34010000 		.4byte	.LBE33
 4075 00e8 46010000 		.4byte	.LBB34
 4076 00ec 4A010000 		.4byte	.LBE34
 4077 00f0 4C010000 		.4byte	.LBB35
 4078 00f4 52010000 		.4byte	.LBE35
 4079 00f8 5C010000 		.4byte	.LBB36
 4080 00fc 62010000 		.4byte	.LBE36
 4081 0100 00000000 		.4byte	0
ARM GAS  C:\Users\z80\AppData\Local\Temp\cctXg9Kf.s 			page 73


 4082 0104 00000000 		.4byte	0
 4083 0108 78000000 		.4byte	.LBB57
 4084 010c 8A000000 		.4byte	.LBE57
 4085 0110 92000000 		.4byte	.LBB61
 4086 0114 9A000000 		.4byte	.LBE61
 4087 0118 A2000000 		.4byte	.LBB62
 4088 011c A8000000 		.4byte	.LBE62
 4089 0120 00000000 		.4byte	0
 4090 0124 00000000 		.4byte	0
 4091 0128 02000000 		.4byte	.LBB63
 4092 012c 04000000 		.4byte	.LBE63
 4093 0130 06000000 		.4byte	.LBB64
 4094 0134 0A000000 		.4byte	.LBE64
 4095 0138 00000000 		.4byte	0
 4096 013c 00000000 		.4byte	0
 4097 0140 02000000 		.4byte	.LBB68
 4098 0144 04000000 		.4byte	.LBE68
 4099 0148 06000000 		.4byte	.LBB69
 4100 014c 0A000000 		.4byte	.LBE69
 4101 0150 00000000 		.4byte	0
 4102 0154 00000000 		.4byte	0
 4103 0158 02000000 		.4byte	.LBB71
 4104 015c 04000000 		.4byte	.LBE71
 4105 0160 06000000 		.4byte	.LBB72
 4106 0164 0A000000 		.4byte	.LBE72
 4107 0168 00000000 		.4byte	0
 4108 016c 00000000 		.4byte	0
 4109 0170 00000000 		.4byte	.LFB64
 4110 0174 50020000 		.4byte	.LFE64
 4111 0178 00000000 		.4byte	.LFB62
 4112 017c B0000000 		.4byte	.LFE62
 4113 0180 00000000 		.4byte	.LFB63
 4114 0184 28000000 		.4byte	.LFE63
 4115 0188 00000000 		.4byte	.LFB65
 4116 018c 0A000000 		.4byte	.LFE65
 4117 0190 00000000 		.4byte	.LFB67
 4118 0194 2A000000 		.4byte	.LFE67
 4119 0198 00000000 		.4byte	.LFB68
 4120 019c 1E000000 		.4byte	.LFE68
 4121 01a0 00000000 		.4byte	.LFB69
 4122 01a4 24000000 		.4byte	.LFE69
 4123 01a8 00000000 		.4byte	.LFB70
 4124 01ac 24000000 		.4byte	.LFE70
 4125 01b0 00000000 		.4byte	0
 4126 01b4 00000000 		.4byte	0
 4127              		.section	.debug_line,"",%progbits
 4128              	.Ldebug_line0:
 4129 0000 55040000 		.section	.debug_str,"MS",%progbits,1
 4129      0200B902 
 4129      00000201 
 4129      FB0E0D00 
 4129      01010101 
 4130              	.LASF103:
 4131 0000 646D6172 		.ascii	"dmarx\000"
 4131      7800
 4132              	.LASF2:
 4133 0006 73697A65 		.ascii	"size_t\000"
ARM GAS  C:\Users\z80\AppData\Local\Temp\cctXg9Kf.s 			page 74


 4133      5F7400
 4134              	.LASF49:
 4135 000d 7264796D 		.ascii	"rdymsg\000"
 4135      736700
 4136              	.LASF128:
 4137 0014 68735F73 		.ascii	"hs_spicfg\000"
 4137      70696366 
 4137      6700
 4138              	.LASF132:
 4139 001e 6164635F 		.ascii	"adc_queue_buffer\000"
 4139      71756575 
 4139      655F6275 
 4139      66666572 
 4139      00
 4140              	.LASF97:
 4141 002f 5350495F 		.ascii	"SPI_ACTIVE\000"
 4141      41435449 
 4141      564500
 4142              	.LASF134:
 4143 003a 7369676E 		.ascii	"signalMask\000"
 4143      616C4D61 
 4143      736B00
 4144              	.LASF92:
 4145 0045 696F706F 		.ascii	"ioportmask_t\000"
 4145      72746D61 
 4145      736B5F74 
 4145      00
 4146              	.LASF135:
 4147 0052 70657269 		.ascii	"period\000"
 4147      6F6400
 4148              	.LASF110:
 4149 0059 73737061 		.ascii	"sspad\000"
 4149      6400
 4150              	.LASF14:
 4151 005f 6C6F6E67 		.ascii	"long long unsigned int\000"
 4151      206C6F6E 
 4151      6720756E 
 4151      7369676E 
 4151      65642069 
 4152              	.LASF75:
 4153 0076 43524350 		.ascii	"CRCPR\000"
 4153      5200
 4154              	.LASF50:
 4155 007c 65786974 		.ascii	"exitcode\000"
 4155      636F6465 
 4155      00
 4156              	.LASF90:
 4157 0085 76656374 		.ascii	"vector\000"
 4157      6F7200
 4158              	.LASF98:
 4159 008c 5350495F 		.ascii	"SPI_COMPLETE\000"
 4159      434F4D50 
 4159      4C455445 
 4159      00
 4160              	.LASF100:
 4161 0099 53504944 		.ascii	"SPIDriver\000"
 4161      72697665 
ARM GAS  C:\Users\z80\AppData\Local\Temp\cctXg9Kf.s 			page 75


 4161      7200
 4162              	.LASF109:
 4163 00a3 7373706F 		.ascii	"ssport\000"
 4163      727400
 4164              	.LASF137:
 4165 00aa 61646352 		.ascii	"adcRaw\000"
 4165      617700
 4166              	.LASF129:
 4167 00b1 49544D5F 		.ascii	"ITM_RxBuffer\000"
 4167      52784275 
 4167      66666572 
 4167      00
 4168              	.LASF124:
 4169 00be 7365744F 		.ascii	"setOscPeriod\000"
 4169      73635065 
 4169      72696F64 
 4169      00
 4170              	.LASF24:
 4171 00cb 705F7072 		.ascii	"p_prio\000"
 4171      696F00
 4172              	.LASF146:
 4173 00d2 61646351 		.ascii	"adcQueue\000"
 4173      75657565 
 4173      00
 4174              	.LASF55:
 4175 00db 715F7761 		.ascii	"q_waiting\000"
 4175      6974696E 
 4175      6700
 4176              	.LASF12:
 4177 00e5 6C6F6E67 		.ascii	"long long int\000"
 4177      206C6F6E 
 4177      6720696E 
 4177      7400
 4178              	.LASF1:
 4179 00f3 7369676E 		.ascii	"signed char\000"
 4179      65642063 
 4179      68617200 
 4180              	.LASF141:
 4181 00ff 2E2F7372 		.ascii	"./src/adc_ctrl.c\000"
 4181      632F6164 
 4181      635F6374 
 4181      726C2E63 
 4181      00
 4182              	.LASF95:
 4183 0110 5350495F 		.ascii	"SPI_STOP\000"
 4183      53544F50 
 4183      00
 4184              	.LASF81:
 4185 0119 49325343 		.ascii	"I2SCFGR\000"
 4185      46475200 
 4186              	.LASF46:
 4187 0121 6D5F7175 		.ascii	"m_queue\000"
 4187      65756500 
 4188              	.LASF120:
 4189 0129 696E7374 		.ascii	"instantAdc\000"
 4189      616E7441 
 4189      646300
ARM GAS  C:\Users\z80\AppData\Local\Temp\cctXg9Kf.s 			page 76


 4190              	.LASF142:
 4191 0134 433A5C70 		.ascii	"C:\\projects\\digitizer.git\\firmware\\digitizer\000"
 4191      726F6A65 
 4191      6374735C 
 4191      64696769 
 4191      74697A65 
 4192              	.LASF126:
 4193 0161 61646349 		.ascii	"adcIndex\000"
 4193      6E646578 
 4193      00
 4194              	.LASF101:
 4195 016a 73746174 		.ascii	"state\000"
 4195      6500
 4196              	.LASF9:
 4197 0170 6C6F6E67 		.ascii	"long int\000"
 4197      20696E74 
 4197      00
 4198              	.LASF16:
 4199 0179 74737461 		.ascii	"tstate_t\000"
 4199      74655F74 
 4199      00
 4200              	.LASF57:
 4201 0182 715F6275 		.ascii	"q_buffer\000"
 4201      66666572 
 4201      00
 4202              	.LASF59:
 4203 018b 715F7772 		.ascii	"q_wrptr\000"
 4203      70747200 
 4204              	.LASF32:
 4205 0193 705F7469 		.ascii	"p_time\000"
 4205      6D6500
 4206              	.LASF26:
 4207 019a 705F6E65 		.ascii	"p_newer\000"
 4207      77657200 
 4208              	.LASF108:
 4209 01a2 656E645F 		.ascii	"end_cb\000"
 4209      636200
 4210              	.LASF105:
 4211 01a9 7278646D 		.ascii	"rxdmamode\000"
 4211      616D6F64 
 4211      6500
 4212              	.LASF125:
 4213 01b3 696E7465 		.ascii	"interval\000"
 4213      7276616C 
 4213      00
 4214              	.LASF139:
 4215 01bc 61646350 		.ascii	"adcPointer\000"
 4215      6F696E74 
 4215      657200
 4216              	.LASF123:
 4217 01c7 6D61736B 		.ascii	"mask\000"
 4217      00
 4218              	.LASF41:
 4219 01cc 72656761 		.ascii	"regarm_t\000"
 4219      726D5F74 
 4219      00
 4220              	.LASF89:
ARM GAS  C:\Users\z80\AppData\Local\Temp\cctXg9Kf.s 			page 77


 4221 01d5 73656C66 		.ascii	"selfindex\000"
 4221      696E6465 
 4221      7800
 4222              	.LASF107:
 4223 01df 73706963 		.ascii	"spicallback_t\000"
 4223      616C6C62 
 4223      61636B5F 
 4223      7400
 4224              	.LASF116:
 4225 01ed 76616C75 		.ascii	"value\000"
 4225      6500
 4226              	.LASF145:
 4227 01f3 71756572 		.ascii	"queryAdcI\000"
 4227      79416463 
 4227      4900
 4228              	.LASF144:
 4229 01fd 6F6E5370 		.ascii	"onSpiComplete\000"
 4229      69436F6D 
 4229      706C6574 
 4229      6500
 4230              	.LASF29:
 4231 020b 705F7374 		.ascii	"p_stklimit\000"
 4231      6B6C696D 
 4231      697400
 4232              	.LASF0:
 4233 0216 756E7369 		.ascii	"unsigned int\000"
 4233      676E6564 
 4233      20696E74 
 4233      00
 4234              	.LASF6:
 4235 0223 75696E74 		.ascii	"uint16_t\000"
 4235      31365F74 
 4235      00
 4236              	.LASF65:
 4237 022c 43504152 		.ascii	"CPAR\000"
 4237      00
 4238              	.LASF34:
 4239 0231 705F6D73 		.ascii	"p_msgqueue\000"
 4239      67717565 
 4239      756500
 4240              	.LASF70:
 4241 023c 4750494F 		.ascii	"GPIO_TypeDef\000"
 4241      5F547970 
 4241      65446566 
 4241      00
 4242              	.LASF69:
 4243 0249 4C434B52 		.ascii	"LCKR\000"
 4243      00
 4244              	.LASF88:
 4245 024e 69736869 		.ascii	"ishift\000"
 4245      667400
 4246              	.LASF7:
 4247 0255 73686F72 		.ascii	"short unsigned int\000"
 4247      7420756E 
 4247      7369676E 
 4247      65642069 
 4247      6E7400
ARM GAS  C:\Users\z80\AppData\Local\Temp\cctXg9Kf.s 			page 78


 4248              	.LASF136:
 4249 0268 656C6170 		.ascii	"elapsed\000"
 4249      73656400 
 4250              	.LASF18:
 4251 0270 6D73675F 		.ascii	"msg_t\000"
 4251      7400
 4252              	.LASF118:
 4253 0276 70726576 		.ascii	"prevIndex\000"
 4253      496E6465 
 4253      7800
 4254              	.LASF15:
 4255 0280 746D6F64 		.ascii	"tmode_t\000"
 4255      655F7400 
 4256              	.LASF40:
 4257 0288 54687265 		.ascii	"ThreadsList\000"
 4257      6164734C 
 4257      69737400 
 4258              	.LASF19:
 4259 0294 6576656E 		.ascii	"eventmask_t\000"
 4259      746D6173 
 4259      6B5F7400 
 4260              	.LASF5:
 4261 02a0 73686F72 		.ascii	"short int\000"
 4261      7420696E 
 4261      7400
 4262              	.LASF62:
 4263 02aa 716E6F74 		.ascii	"qnotify_t\000"
 4263      6966795F 
 4263      7400
 4264              	.LASF54:
 4265 02b4 47656E65 		.ascii	"GenericQueue\000"
 4265      72696351 
 4265      75657565 
 4265      00
 4266              	.LASF42:
 4267 02c1 73746B61 		.ascii	"stkalign_t\000"
 4267      6C69676E 
 4267      5F7400
 4268              	.LASF113:
 4269 02cc 76616C73 		.ascii	"vals\000"
 4269      00
 4270              	.LASF21:
 4271 02d1 54687265 		.ascii	"Thread\000"
 4271      616400
 4272              	.LASF119:
 4273 02d8 696E6974 		.ascii	"initAdc\000"
 4273      41646300 
 4274              	.LASF83:
 4275 02e0 49325350 		.ascii	"I2SPR\000"
 4275      5200
 4276              	.LASF56:
 4277 02e6 715F636F 		.ascii	"q_counter\000"
 4277      756E7465 
 4277      7200
 4278              	.LASF45:
 4279 02f0 4D757465 		.ascii	"Mutex\000"
 4279      7800
ARM GAS  C:\Users\z80\AppData\Local\Temp\cctXg9Kf.s 			page 79


 4280              	.LASF13:
 4281 02f6 75696E74 		.ascii	"uint64_t\000"
 4281      36345F74 
 4281      00
 4282              	.LASF27:
 4283 02ff 705F6F6C 		.ascii	"p_older\000"
 4283      64657200 
 4284              	.LASF115:
 4285 0307 66696C74 		.ascii	"filterAdc\000"
 4285      65724164 
 4285      6300
 4286              	.LASF39:
 4287 0311 54687265 		.ascii	"ThreadsQueue\000"
 4287      61647351 
 4287      75657565 
 4287      00
 4288              	.LASF106:
 4289 031e 7478646D 		.ascii	"txdmamode\000"
 4289      616D6F64 
 4289      6500
 4290              	.LASF114:
 4291 0328 73656C65 		.ascii	"selectAdcIndex\000"
 4291      63744164 
 4291      63496E64 
 4291      657800
 4292              	.LASF143:
 4293 0337 696E7374 		.ascii	"instantAdcI\000"
 4293      616E7441 
 4293      64634900 
 4294              	.LASF67:
 4295 0343 444D415F 		.ascii	"DMA_Channel_TypeDef\000"
 4295      4368616E 
 4295      6E656C5F 
 4295      54797065 
 4295      44656600 
 4296              	.LASF87:
 4297 0357 69666372 		.ascii	"ifcr\000"
 4297      00
 4298              	.LASF104:
 4299 035c 646D6174 		.ascii	"dmatx\000"
 4299      7800
 4300              	.LASF71:
 4301 0362 52455345 		.ascii	"RESERVED0\000"
 4301      52564544 
 4301      3000
 4302              	.LASF72:
 4303 036c 52455345 		.ascii	"RESERVED1\000"
 4303      52564544 
 4303      3100
 4304              	.LASF73:
 4305 0376 52455345 		.ascii	"RESERVED2\000"
 4305      52564544 
 4305      3200
 4306              	.LASF74:
 4307 0380 52455345 		.ascii	"RESERVED3\000"
 4307      52564544 
 4307      3300
ARM GAS  C:\Users\z80\AppData\Local\Temp\cctXg9Kf.s 			page 80


 4308              	.LASF76:
 4309 038a 52455345 		.ascii	"RESERVED4\000"
 4309      52564544 
 4309      3400
 4310              	.LASF23:
 4311 0394 705F7072 		.ascii	"p_prev\000"
 4311      657600
 4312              	.LASF80:
 4313 039b 52455345 		.ascii	"RESERVED6\000"
 4313      52564544 
 4313      3600
 4314              	.LASF82:
 4315 03a5 52455345 		.ascii	"RESERVED7\000"
 4315      52564544 
 4315      3700
 4316              	.LASF84:
 4317 03af 52455345 		.ascii	"RESERVED8\000"
 4317      52564544 
 4317      3800
 4318              	.LASF17:
 4319 03b9 74707269 		.ascii	"tprio_t\000"
 4319      6F5F7400 
 4320              	.LASF60:
 4321 03c1 715F7264 		.ascii	"q_rdptr\000"
 4321      70747200 
 4322              	.LASF8:
 4323 03c9 696E7433 		.ascii	"int32_t\000"
 4323      325F7400 
 4324              	.LASF4:
 4325 03d1 756E7369 		.ascii	"unsigned char\000"
 4325      676E6564 
 4325      20636861 
 4325      7200
 4326              	.LASF91:
 4327 03df 73746D33 		.ascii	"stm32_dma_stream_t\000"
 4327      325F646D 
 4327      615F7374 
 4327      7265616D 
 4327      5F7400
 4328              	.LASF130:
 4329 03f2 53504944 		.ascii	"SPID1\000"
 4329      3100
 4330              	.LASF131:
 4331 03f8 6164635F 		.ascii	"adc_queue\000"
 4331      71756575 
 4331      6500
 4332              	.LASF37:
 4333 0402 705F6D74 		.ascii	"p_mtxlist\000"
 4333      786C6973 
 4333      7400
 4334              	.LASF30:
 4335 040c 705F7374 		.ascii	"p_state\000"
 4335      61746500 
 4336              	.LASF52:
 4337 0414 65776D61 		.ascii	"ewmask\000"
 4337      736B00
 4338              	.LASF22:
ARM GAS  C:\Users\z80\AppData\Local\Temp\cctXg9Kf.s 			page 81


 4339 041b 705F6E65 		.ascii	"p_next\000"
 4339      787400
 4340              	.LASF31:
 4341 0422 705F666C 		.ascii	"p_flags\000"
 4341      61677300 
 4342              	.LASF133:
 4343 042a 6164635F 		.ascii	"adc_rx_buffer\000"
 4343      72785F62 
 4343      75666665 
 4343      7200
 4344              	.LASF86:
 4345 0438 6368616E 		.ascii	"channel\000"
 4345      6E656C00 
 4346              	.LASF122:
 4347 0440 7365744F 		.ascii	"setOscSignals\000"
 4347      73635369 
 4347      676E616C 
 4347      7300
 4348              	.LASF36:
 4349 044e 705F6570 		.ascii	"p_epending\000"
 4349      656E6469 
 4349      6E6700
 4350              	.LASF78:
 4351 0459 52455345 		.ascii	"RESERVED5\000"
 4351      52564544 
 4351      3500
 4352              	.LASF10:
 4353 0463 75696E74 		.ascii	"uint32_t\000"
 4353      33325F74 
 4353      00
 4354              	.LASF127:
 4355 046c 696E7374 		.ascii	"instantAdcData\000"
 4355      616E7441 
 4355      64634461 
 4355      746100
 4356              	.LASF77:
 4357 047b 52584352 		.ascii	"RXCRCR\000"
 4357      435200
 4358              	.LASF140:
 4359 0482 474E5520 		.ascii	"GNU C 4.6.3\000"
 4359      4320342E 
 4359      362E3300 
 4360              	.LASF11:
 4361 048e 6C6F6E67 		.ascii	"long unsigned int\000"
 4361      20756E73 
 4361      69676E65 
 4361      6420696E 
 4361      7400
 4362              	.LASF85:
 4363 04a0 5350495F 		.ascii	"SPI_TypeDef\000"
 4363      54797065 
 4363      44656600 
 4364              	.LASF53:
 4365 04ac 63686172 		.ascii	"char\000"
 4365      00
 4366              	.LASF138:
 4367 04b1 61646346 		.ascii	"adcFiltered\000"
ARM GAS  C:\Users\z80\AppData\Local\Temp\cctXg9Kf.s 			page 82


 4367      696C7465 
 4367      72656400 
 4368              	.LASF102:
 4369 04bd 636F6E66 		.ascii	"config\000"
 4369      696700
 4370              	.LASF79:
 4371 04c4 54584352 		.ascii	"TXCRCR\000"
 4371      435200
 4372              	.LASF112:
 4373 04cb 696E6465 		.ascii	"index\000"
 4373      7800
 4374              	.LASF99:
 4375 04d1 73706973 		.ascii	"spistate_t\000"
 4375      74617465 
 4375      5F7400
 4376              	.LASF48:
 4377 04dc 6D5F6E65 		.ascii	"m_next\000"
 4377      787400
 4378              	.LASF20:
 4379 04e3 73797374 		.ascii	"systime_t\000"
 4379      696D655F 
 4379      7400
 4380              	.LASF38:
 4381 04ed 705F7265 		.ascii	"p_realprio\000"
 4381      616C7072 
 4381      696F00
 4382              	.LASF117:
 4383 04f8 66696C74 		.ascii	"filtered\000"
 4383      65726564 
 4383      00
 4384              	.LASF93:
 4385 0501 696F706F 		.ascii	"ioportid_t\000"
 4385      72746964 
 4385      5F7400
 4386              	.LASF44:
 4387 050c 636F6E74 		.ascii	"context\000"
 4387      65787400 
 4388              	.LASF43:
 4389 0514 696E7463 		.ascii	"intctx\000"
 4389      747800
 4390              	.LASF96:
 4391 051b 5350495F 		.ascii	"SPI_READY\000"
 4391      52454144 
 4391      5900
 4392              	.LASF94:
 4393 0525 5350495F 		.ascii	"SPI_UNINIT\000"
 4393      554E494E 
 4393      495400
 4394              	.LASF58:
 4395 0530 715F746F 		.ascii	"q_top\000"
 4395      7000
 4396              	.LASF68:
 4397 0536 42535252 		.ascii	"BSRR\000"
 4397      00
 4398              	.LASF121:
 4399 053b 73706964 		.ascii	"spid\000"
 4399      00
ARM GAS  C:\Users\z80\AppData\Local\Temp\cctXg9Kf.s 			page 83


 4400              	.LASF64:
 4401 0540 434E4454 		.ascii	"CNDTR\000"
 4401      5200
 4402              	.LASF66:
 4403 0546 434D4152 		.ascii	"CMAR\000"
 4403      00
 4404              	.LASF61:
 4405 054b 715F6E6F 		.ascii	"q_notify\000"
 4405      74696679 
 4405      00
 4406              	.LASF3:
 4407 0554 75696E74 		.ascii	"uint8_t\000"
 4407      385F7400 
 4408              	.LASF63:
 4409 055c 496E7075 		.ascii	"InputQueue\000"
 4409      74517565 
 4409      756500
 4410              	.LASF51:
 4411 0567 77746F62 		.ascii	"wtobjp\000"
 4411      6A7000
 4412              	.LASF28:
 4413 056e 705F6E61 		.ascii	"p_name\000"
 4413      6D6500
 4414              	.LASF111:
 4415 0575 53504943 		.ascii	"SPIConfig\000"
 4415      6F6E6669 
 4415      6700
 4416              	.LASF35:
 4417 057f 705F6D73 		.ascii	"p_msg\000"
 4417      6700
 4418              	.LASF47:
 4419 0585 6D5F6F77 		.ascii	"m_owner\000"
 4419      6E657200 
 4420              	.LASF25:
 4421 058d 705F6374 		.ascii	"p_ctx\000"
 4421      7800
 4422              	.LASF33:
 4423 0593 705F7761 		.ascii	"p_waiting\000"
 4423      6974696E 
 4423      6700
 4424              		.ident	"GCC: (Sourcery CodeBench Lite 2012.03-56) 4.6.3"
ARM GAS  C:\Users\z80\AppData\Local\Temp\cctXg9Kf.s 			page 84


DEFINED SYMBOLS
                            *ABS*:00000000 adc_ctrl.c
C:\Users\z80\AppData\Local\Temp\cctXg9Kf.s:19     .text.onSpiComplete:00000000 $t
C:\Users\z80\AppData\Local\Temp\cctXg9Kf.s:24     .text.onSpiComplete:00000000 onSpiComplete
C:\Users\z80\AppData\Local\Temp\cctXg9Kf.s:942    .bss.adcIndex:00000000 .LANCHOR0
C:\Users\z80\AppData\Local\Temp\cctXg9Kf.s:880    .bss.adcPointer:00000000 .LANCHOR3
C:\Users\z80\AppData\Local\Temp\cctXg9Kf.s:918    .bss.adc_rx_buffer:00000000 .LANCHOR1
C:\Users\z80\AppData\Local\Temp\cctXg9Kf.s:901    .bss.adcRaw:00000000 .LANCHOR2
C:\Users\z80\AppData\Local\Temp\cctXg9Kf.s:887    .bss.adcFiltered:00000000 .LANCHOR4
C:\Users\z80\AppData\Local\Temp\cctXg9Kf.s:908    .data.instantAdcData:00000000 .LANCHOR5
C:\Users\z80\AppData\Local\Temp\cctXg9Kf.s:956    .bss.elapsed:00000000 .LANCHOR6
C:\Users\z80\AppData\Local\Temp\cctXg9Kf.s:949    .data.period:00000000 .LANCHOR7
C:\Users\z80\AppData\Local\Temp\cctXg9Kf.s:894    .bss.adc_queue:00000000 .LANCHOR8
C:\Users\z80\AppData\Local\Temp\cctXg9Kf.s:473    .text.initAdc:00000000 $t
C:\Users\z80\AppData\Local\Temp\cctXg9Kf.s:479    .text.initAdc:00000000 initAdc
C:\Users\z80\AppData\Local\Temp\cctXg9Kf.s:963    .bss.adc_queue_buffer:00000000 .LANCHOR9
C:\Users\z80\AppData\Local\Temp\cctXg9Kf.s:925    .rodata.hs_spicfg:00000000 .LANCHOR10
C:\Users\z80\AppData\Local\Temp\cctXg9Kf.s:592    .text.queryAdcI:00000000 $t
C:\Users\z80\AppData\Local\Temp\cctXg9Kf.s:598    .text.queryAdcI:00000000 queryAdcI
C:\Users\z80\AppData\Local\Temp\cctXg9Kf.s:629    .text.adcQueue:00000000 $t
C:\Users\z80\AppData\Local\Temp\cctXg9Kf.s:635    .text.adcQueue:00000000 adcQueue
C:\Users\z80\AppData\Local\Temp\cctXg9Kf.s:650    .text.instantAdc:00000000 $t
C:\Users\z80\AppData\Local\Temp\cctXg9Kf.s:656    .text.instantAdc:00000000 instantAdc
C:\Users\z80\AppData\Local\Temp\cctXg9Kf.s:715    .text.instantAdcI:00000000 $t
C:\Users\z80\AppData\Local\Temp\cctXg9Kf.s:721    .text.instantAdcI:00000000 instantAdcI
C:\Users\z80\AppData\Local\Temp\cctXg9Kf.s:758    .text.setOscSignals:00000000 $t
C:\Users\z80\AppData\Local\Temp\cctXg9Kf.s:764    .text.setOscSignals:00000000 setOscSignals
C:\Users\z80\AppData\Local\Temp\cctXg9Kf.s:935    .data.signalMask:00000000 .LANCHOR11
C:\Users\z80\AppData\Local\Temp\cctXg9Kf.s:814    .text.setOscPeriod:00000000 $t
C:\Users\z80\AppData\Local\Temp\cctXg9Kf.s:820    .text.setOscPeriod:00000000 setOscPeriod
C:\Users\z80\AppData\Local\Temp\cctXg9Kf.s:883    .bss.adcPointer:00000000 adcPointer
C:\Users\z80\AppData\Local\Temp\cctXg9Kf.s:890    .bss.adcFiltered:00000000 adcFiltered
C:\Users\z80\AppData\Local\Temp\cctXg9Kf.s:904    .bss.adcRaw:00000000 adcRaw
C:\Users\z80\AppData\Local\Temp\cctXg9Kf.s:959    .bss.elapsed:00000000 elapsed
C:\Users\z80\AppData\Local\Temp\cctXg9Kf.s:952    .data.period:00000000 period
C:\Users\z80\AppData\Local\Temp\cctXg9Kf.s:938    .data.signalMask:00000000 signalMask
C:\Users\z80\AppData\Local\Temp\cctXg9Kf.s:921    .bss.adc_rx_buffer:00000000 adc_rx_buffer
C:\Users\z80\AppData\Local\Temp\cctXg9Kf.s:966    .bss.adc_queue_buffer:00000000 adc_queue_buffer
C:\Users\z80\AppData\Local\Temp\cctXg9Kf.s:897    .bss.adc_queue:00000000 adc_queue
C:\Users\z80\AppData\Local\Temp\cctXg9Kf.s:879    .bss.adcPointer:00000000 $d
C:\Users\z80\AppData\Local\Temp\cctXg9Kf.s:886    .bss.adcFiltered:00000000 $d
C:\Users\z80\AppData\Local\Temp\cctXg9Kf.s:893    .bss.adc_queue:00000000 $d
C:\Users\z80\AppData\Local\Temp\cctXg9Kf.s:900    .bss.adcRaw:00000000 $d
C:\Users\z80\AppData\Local\Temp\cctXg9Kf.s:907    .data.instantAdcData:00000000 $d
C:\Users\z80\AppData\Local\Temp\cctXg9Kf.s:911    .data.instantAdcData:00000000 instantAdcData
C:\Users\z80\AppData\Local\Temp\cctXg9Kf.s:917    .bss.adc_rx_buffer:00000000 $d
C:\Users\z80\AppData\Local\Temp\cctXg9Kf.s:924    .rodata.hs_spicfg:00000000 $d
C:\Users\z80\AppData\Local\Temp\cctXg9Kf.s:928    .rodata.hs_spicfg:00000000 hs_spicfg
C:\Users\z80\AppData\Local\Temp\cctXg9Kf.s:934    .data.signalMask:00000000 $d
C:\Users\z80\AppData\Local\Temp\cctXg9Kf.s:941    .bss.adcIndex:00000000 $d
C:\Users\z80\AppData\Local\Temp\cctXg9Kf.s:945    .bss.adcIndex:00000000 adcIndex
C:\Users\z80\AppData\Local\Temp\cctXg9Kf.s:948    .data.period:00000000 $d
C:\Users\z80\AppData\Local\Temp\cctXg9Kf.s:955    .bss.elapsed:00000000 $d
C:\Users\z80\AppData\Local\Temp\cctXg9Kf.s:962    .bss.adc_queue_buffer:00000000 $d
                     .debug_frame:00000010 $d

UNDEFINED SYMBOLS
ARM GAS  C:\Users\z80\AppData\Local\Temp\cctXg9Kf.s 			page 85


dbg_check_lock_from_isr
SPID1
spi_lld_unselect
dbg_check_unlock_from_isr
chIQPutI
_pal_lld_setgroupmode
chIQInit
spiStart
spi_lld_select
spi_lld_receive
dbg_check_lock
dbg_check_unlock
