ARM GAS  C:\Users\z80\AppData\Local\Temp\ccaGQhzI.s 			page 1


   1              		.syntax unified
   2              		.cpu cortex-m3
   3              		.fpu softvfp
   4              		.eabi_attribute 20, 1
   5              		.eabi_attribute 21, 1
   6              		.eabi_attribute 23, 3
   7              		.eabi_attribute 24, 1
   8              		.eabi_attribute 25, 1
   9              		.eabi_attribute 26, 1
  10              		.eabi_attribute 30, 2
  11              		.eabi_attribute 18, 4
  12              		.thumb
  13              		.file	"adc_ctrl.c"
  14              		.section	.debug_abbrev,"",%progbits
  15              	.Ldebug_abbrev0:
  16              		.section	.debug_info,"",%progbits
  17              	.Ldebug_info0:
  18              		.section	.debug_line,"",%progbits
  19              	.Ldebug_line0:
  20 0000 9D030000 		.text
  20      02008802 
  20      00000201 
  20      FB0E0D00 
  20      01010101 
  21              	.Ltext0:
  22              		.cfi_sections	.debug_frame
  23              		.section	.text.onSpiComplete,"ax",%progbits
  24              		.align	2
  25              		.p2align 4,,15
  26              		.thumb
  27              		.thumb_func
  28              		.type	onSpiComplete, %function
  29              	onSpiComplete:
  30              	.LFB64:
  31              		.file 1 "./src/adc_ctrl.c"
  32              		.loc 1 66 0
  33              		.cfi_startproc
  34              		@ args = 0, pretend = 0, frame = 0
  35              		@ frame_needed = 0, uses_anonymous_args = 0
  36              	.LVL0:
  37 0000 38B5     		push	{r3, r4, r5, lr}
  38              	.LCFI0:
  39              		.cfi_def_cfa_offset 16
  40              	.LBB8:
  41              		.loc 1 68 0
  42 0002 2023     		movs	r3, #32
  43              		.cfi_offset 14, -4
  44              		.cfi_offset 5, -8
  45              		.cfi_offset 4, -12
  46              		.cfi_offset 3, -16
  47              	.LVL1:
  48              	@ 68 "./src/adc_ctrl.c" 1
  49 0004 83F31188 		msr     BASEPRI, r3
  50              	@ 0 "" 2
  51              	.LVL2:
  52              		.thumb
  53              	.LBE8:
ARM GAS  C:\Users\z80\AppData\Local\Temp\ccaGQhzI.s 			page 2


  54              		.loc 1 70 0
  55 0008 274D     		ldr	r5, .L9
  56              		.loc 1 68 0
  57 000a FFF7FEFF 		bl	dbg_check_lock_from_isr
  58              	.LVL3:
  59              		.loc 1 70 0
  60 000e 2968     		ldr	r1, [r5, #0]
  61 0010 0131     		adds	r1, r1, #1
  62 0012 CA17     		asrs	r2, r1, #31
  63 0014 920F     		lsrs	r2, r2, #30
  64 0016 8B18     		adds	r3, r1, r2
  65 0018 03F00303 		and	r3, r3, #3
  66 001c 9B1A     		subs	r3, r3, r2
  67              	.LBB9:
  68              	.LBB11:
  69              		.loc 1 97 0
  70 001e 13F0010F 		tst	r3, #1
  71              	.LBE11:
  72              	.LBE9:
  73              		.loc 1 70 0
  74 0022 2B60     		str	r3, [r5, #0]
  75              	.LVL4:
  76              	.LBB13:
  77              	.LBB10:
  78              		.loc 1 97 0
  79 0024 30D0     		beq	.L2
  80              		.loc 1 98 0
  81 0026 4FF40062 		mov	r2, #2048
  82 002a 0121     		movs	r1, #1
  83 002c C4F20102 		movt	r2, 16385
  84              		.loc 1 102 0
  85 0030 13F0020F 		tst	r3, #2
  86              		.loc 1 98 0
  87 0034 1161     		str	r1, [r2, #16]
  88              		.loc 1 102 0
  89 0036 30D0     		beq	.L4
  90              	.L8:
  91              		.loc 1 103 0
  92 0038 4FF40063 		mov	r3, #2048
  93              	.LVL5:
  94 003c C4F20103 		movt	r3, 16385
  95 0040 0222     		movs	r2, #2
  96 0042 1A61     		str	r2, [r3, #16]
  97              	.L5:
  98              	.LBE10:
  99              	.LBE13:
 100              		.loc 1 75 0
 101 0044 194C     		ldr	r4, .L9+4
 102              		.loc 1 73 0
 103 0046 1A48     		ldr	r0, .L9+8
 104 0048 FFF7FEFF 		bl	spi_lld_unselect
 105              	.LVL6:
 106              		.loc 1 75 0
 107 004c 2169     		ldr	r1, [r4, #16]
 108 004e E368     		ldr	r3, [r4, #12]
 109 0050 A268     		ldr	r2, [r4, #8]
 110 0052 CB1A     		subs	r3, r1, r3
ARM GAS  C:\Users\z80\AppData\Local\Temp\ccaGQhzI.s 			page 3


 111 0054 9B1A     		subs	r3, r3, r2
 112 0056 032B     		cmp	r3, #3
 113 0058 10D9     		bls	.L6
 114              		.loc 1 81 0
 115 005a 2978     		ldrb	r1, [r5, #0]	@ zero_extendqisi2
 116              		.loc 1 83 0
 117 005c 154D     		ldr	r5, .L9+12
 118              		.loc 1 81 0
 119 005e 2046     		mov	r0, r4
 120 0060 FFF7FEFF 		bl	chIQPutI
 121              		.loc 1 83 0
 122 0064 2978     		ldrb	r1, [r5, #0]	@ zero_extendqisi2
 123 0066 2046     		mov	r0, r4
 124 0068 FFF7FEFF 		bl	chIQPutI
 125              		.loc 1 84 0
 126 006c 6978     		ldrb	r1, [r5, #1]	@ zero_extendqisi2
 127 006e 2046     		mov	r0, r4
 128 0070 FFF7FEFF 		bl	chIQPutI
 129              		.loc 1 85 0
 130 0074 A978     		ldrb	r1, [r5, #2]	@ zero_extendqisi2
 131 0076 2046     		mov	r0, r4
 132 0078 FFF7FEFF 		bl	chIQPutI
 133              	.L6:
 134              		.loc 1 87 0
 135 007c FFF7FEFF 		bl	dbg_check_unlock_from_isr
 136              	.LBB14:
 137 0080 0023     		movs	r3, #0
 138              	.LVL7:
 139              	@ 87 "./src/adc_ctrl.c" 1
 140 0082 83F31188 		msr     BASEPRI, r3
 141              	@ 0 "" 2
 142              	.LVL8:
 143              		.thumb
 144              	.LBE14:
 145              		.loc 1 88 0
 146 0086 38BD     		pop	{r3, r4, r5, pc}
 147              	.LVL9:
 148              	.L2:
 149              	.LBB15:
 150              	.LBB12:
 151              		.loc 1 100 0
 152 0088 4FF40062 		mov	r2, #2048
 153 008c 0121     		movs	r1, #1
 154 008e C4F20102 		movt	r2, 16385
 155              		.loc 1 102 0
 156 0092 13F0020F 		tst	r3, #2
 157              		.loc 1 100 0
 158 0096 5161     		str	r1, [r2, #20]
 159              		.loc 1 102 0
 160 0098 CED1     		bne	.L8
 161              	.L4:
 162              		.loc 1 105 0
 163 009a 4FF40063 		mov	r3, #2048
 164              	.LVL10:
 165 009e C4F20103 		movt	r3, 16385
 166 00a2 0222     		movs	r2, #2
 167 00a4 5A61     		str	r2, [r3, #20]
ARM GAS  C:\Users\z80\AppData\Local\Temp\ccaGQhzI.s 			page 4


 168 00a6 CDE7     		b	.L5
 169              	.L10:
 170              		.align	2
 171              	.L9:
 172 00a8 00000000 		.word	.LANCHOR0
 173 00ac 00000000 		.word	.LANCHOR1
 174 00b0 00000000 		.word	SPID1
 175 00b4 00000000 		.word	.LANCHOR2
 176              	.LBE12:
 177              	.LBE15:
 178              		.cfi_endproc
 179              	.LFE64:
 180              		.size	onSpiComplete, .-onSpiComplete
 181 00b8 AFF30080 		.section	.text.adcThread,"ax",%progbits
 181      AFF30080 
 182              		.align	2
 183              		.p2align 4,,15
 184              		.thumb
 185              		.thumb_func
 186              		.type	adcThread, %function
 187              	adcThread:
 188              	.LFB67:
 189              		.loc 1 127 0
 190              		.cfi_startproc
 191              		@ args = 0, pretend = 0, frame = 0
 192              		@ frame_needed = 0, uses_anonymous_args = 0
 193              	.LVL11:
 194 0000 F8B5     		push	{r3, r4, r5, r6, r7, lr}
 195              	.LCFI1:
 196              		.cfi_def_cfa_offset 24
 197              		.loc 1 129 0
 198 0002 164B     		ldr	r3, .L13
 199              		.cfi_offset 14, -4
 200              		.cfi_offset 7, -8
 201              		.cfi_offset 6, -12
 202              		.cfi_offset 5, -16
 203              		.cfi_offset 4, -20
 204              		.cfi_offset 3, -24
 205 0004 164A     		ldr	r2, .L13+4
 206 0006 DB69     		ldr	r3, [r3, #28]
 207 0008 164E     		ldr	r6, .L13+8
 208 000a 9A61     		str	r2, [r3, #24]
 209              	.LVL12:
 210              	.L12:
 211              	.LBB16:
 212              		.loc 1 133 0 discriminator 1
 213 000c 4FF0FF31 		mov	r1, #-1
 214 0010 1548     		ldr	r0, .L13+12
 215 0012 FFF7FEFF 		bl	chIQGetTimeout
 216              	.LVL13:
 217              		.loc 1 137 0 discriminator 1
 218 0016 4FF0FF31 		mov	r1, #-1
 219              		.loc 1 133 0 discriminator 1
 220 001a 0446     		mov	r4, r0
 221              	.LVL14:
 222              		.loc 1 137 0 discriminator 1
 223 001c 1248     		ldr	r0, .L13+12
ARM GAS  C:\Users\z80\AppData\Local\Temp\ccaGQhzI.s 			page 5


 224              	.LVL15:
 225 001e FFF7FEFF 		bl	chIQGetTimeout
 226              		.loc 1 139 0 discriminator 1
 227 0022 4FF0FF31 		mov	r1, #-1
 228              		.loc 1 137 0 discriminator 1
 229 0026 0546     		mov	r5, r0
 230              	.LVL16:
 231              		.loc 1 139 0 discriminator 1
 232 0028 0F48     		ldr	r0, .L13+12
 233              	.LVL17:
 234 002a FFF7FEFF 		bl	chIQGetTimeout
 235              		.loc 1 141 0 discriminator 1
 236 002e 4FF0FF31 		mov	r1, #-1
 237              		.loc 1 139 0 discriminator 1
 238 0032 0746     		mov	r7, r0
 239              	.LVL18:
 240              		.loc 1 141 0 discriminator 1
 241 0034 0C48     		ldr	r0, .L13+12
 242              	.LVL19:
 243 0036 FFF7FEFF 		bl	chIQGetTimeout
 244              	.LVL20:
 245              		.loc 1 142 0 discriminator 1
 246 003a 0004     		lsls	r0, r0, #16
 247              	.LVL21:
 248              		.loc 1 140 0 discriminator 1
 249 003c 00EB0727 		add	r7, r0, r7, lsl #8
 250              	.LVL22:
 251              	.LBB17:
 252              		.loc 1 143 0 discriminator 1
 253 0040 2023     		movs	r3, #32
 254              	.LVL23:
 255              	@ 143 "./src/adc_ctrl.c" 1
 256 0042 83F31188 		msr     BASEPRI, r3
 257              	@ 0 "" 2
 258              	.LVL24:
 259              		.thumb
 260              	.LBE17:
 261              		.loc 1 142 0 discriminator 1
 262 0046 7F19     		adds	r7, r7, r5
 263              	.LVL25:
 264              		.loc 1 143 0 discriminator 1
 265 0048 FFF7FEFF 		bl	dbg_check_lock
 266              	.LVL26:
 267              		.loc 1 144 0 discriminator 1
 268 004c 46F82470 		str	r7, [r6, r4, lsl #2]
 269              		.loc 1 145 0 discriminator 1
 270 0050 FFF7FEFF 		bl	dbg_check_unlock
 271              	.LBB18:
 272 0054 0023     		movs	r3, #0
 273              	@ 145 "./src/adc_ctrl.c" 1
 274 0056 83F31188 		msr     BASEPRI, r3
 275              	@ 0 "" 2
 276              	.LVL27:
 277              		.thumb
 278 005a D7E7     		b	.L12
 279              	.L14:
 280              		.align	2
ARM GAS  C:\Users\z80\AppData\Local\Temp\ccaGQhzI.s 			page 6


 281              	.L13:
 282 005c 00000000 		.word	rlist
 283 0060 00000000 		.word	.LC0
 284 0064 00000000 		.word	.LANCHOR3
 285 0068 00000000 		.word	.LANCHOR1
 286              	.LBE18:
 287              	.LBE16:
 288              		.cfi_endproc
 289              	.LFE67:
 290              		.size	adcThread, .-adcThread
 291 006c AFF30080 		.section	.text.initAdc,"ax",%progbits
 292              		.align	2
 293              		.p2align 4,,15
 294              		.global	initAdc
 295              		.thumb
 296              		.thumb_func
 297              		.type	initAdc, %function
 298              	initAdc:
 299              	.LFB62:
 300              		.loc 1 37 0
 301              		.cfi_startproc
 302              		@ args = 0, pretend = 0, frame = 0
 303              		@ frame_needed = 0, uses_anonymous_args = 0
 304 0000 10B5     		push	{r4, lr}
 305              	.LCFI2:
 306              		.cfi_def_cfa_offset 8
 307              		.loc 1 40 0
 308 0002 4FF40064 		mov	r4, #2048
 309              		.cfi_offset 14, -4
 310              		.cfi_offset 4, -8
 311              		.loc 1 38 0
 312 0006 0023     		movs	r3, #0
 313              		.loc 1 37 0
 314 0008 82B0     		sub	sp, sp, #8
 315              	.LCFI3:
 316              		.cfi_def_cfa_offset 16
 317              		.loc 1 40 0
 318 000a C4F20104 		movt	r4, 16385
 319              		.loc 1 38 0
 320 000e 2022     		movs	r2, #32
 321 0010 2748     		ldr	r0, .L21
 322 0012 2849     		ldr	r1, .L21+4
 323 0014 FFF7FEFF 		bl	chIQInit
 324              		.loc 1 40 0
 325 0018 0121     		movs	r1, #1
 326 001a 0622     		movs	r2, #6
 327 001c 2046     		mov	r0, r4
 328 001e FFF7FEFF 		bl	_pal_lld_setgroupmode
 329              		.loc 1 41 0
 330 0022 0221     		movs	r1, #2
 331 0024 0622     		movs	r2, #6
 332 0026 2046     		mov	r0, r4
 333 0028 FFF7FEFF 		bl	_pal_lld_setgroupmode
 334              		.loc 1 43 0
 335 002c 2021     		movs	r1, #32
 336 002e 1022     		movs	r2, #16
 337 0030 2046     		mov	r0, r4
ARM GAS  C:\Users\z80\AppData\Local\Temp\ccaGQhzI.s 			page 7


 338 0032 FFF7FEFF 		bl	_pal_lld_setgroupmode
 339              		.loc 1 44 0
 340 0036 4021     		movs	r1, #64
 341 0038 1022     		movs	r2, #16
 342 003a 2046     		mov	r0, r4
 343 003c FFF7FEFF 		bl	_pal_lld_setgroupmode
 344              		.loc 1 45 0
 345 0040 8021     		movs	r1, #128
 346 0042 1022     		movs	r2, #16
 347 0044 2046     		mov	r0, r4
 348 0046 FFF7FEFF 		bl	_pal_lld_setgroupmode
 349              		.loc 1 46 0
 350 004a 0622     		movs	r2, #6
 351 004c 1021     		movs	r1, #16
 352 004e 2046     		mov	r0, r4
 353 0050 FFF7FEFF 		bl	_pal_lld_setgroupmode
 354              		.loc 1 49 0
 355 0054 184B     		ldr	r3, .L21+8
 356              		.loc 1 47 0
 357 0056 1022     		movs	r2, #16
 358              		.loc 1 49 0
 359 0058 1B68     		ldr	r3, [r3, #0]
 360              	.LVL28:
 361              		.loc 1 47 0
 362 005a 2261     		str	r2, [r4, #16]
 363              	.LBB19:
 364              	.LBB20:
 365              		.loc 1 97 0
 366 005c 13F0010F 		tst	r3, #1
 367 0060 19D0     		beq	.L16
 368              		.loc 1 98 0
 369 0062 0122     		movs	r2, #1
 370              		.loc 1 102 0
 371 0064 13F0020F 		tst	r3, #2
 372              		.loc 1 98 0
 373 0068 2261     		str	r2, [r4, #16]
 374              		.loc 1 102 0
 375 006a 19D1     		bne	.L20
 376              	.L18:
 377              		.loc 1 105 0
 378 006c 4FF40063 		mov	r3, #2048
 379 0070 C4F20103 		movt	r3, 16385
 380 0074 0222     		movs	r2, #2
 381 0076 5A61     		str	r2, [r3, #20]
 382              	.L19:
 383              	.LBE20:
 384              	.LBE19:
 385              		.loc 1 51 0
 386 0078 1049     		ldr	r1, .L21+12
 387 007a 1148     		ldr	r0, .L21+16
 388 007c FFF7FEFF 		bl	spiStart
 389              	.LVL29:
 390              		.loc 1 54 0
 391 0080 0023     		movs	r3, #0
 392 0082 0093     		str	r3, [sp, #0]
 393 0084 4FF40B61 		mov	r1, #2224
 394 0088 4022     		movs	r2, #64
ARM GAS  C:\Users\z80\AppData\Local\Temp\ccaGQhzI.s 			page 8


 395 008a 0E4B     		ldr	r3, .L21+20
 396 008c 0E48     		ldr	r0, .L21+24
 397 008e FFF7FEFF 		bl	chThdCreateStatic
 398              		.loc 1 55 0
 399 0092 02B0     		add	sp, sp, #8
 400 0094 10BD     		pop	{r4, pc}
 401              	.LVL30:
 402              	.L16:
 403              	.LBB22:
 404              	.LBB21:
 405              		.loc 1 100 0
 406 0096 0122     		movs	r2, #1
 407              		.loc 1 102 0
 408 0098 13F0020F 		tst	r3, #2
 409              		.loc 1 100 0
 410 009c 6261     		str	r2, [r4, #20]
 411              		.loc 1 102 0
 412 009e E5D0     		beq	.L18
 413              	.L20:
 414              		.loc 1 103 0
 415 00a0 4FF40063 		mov	r3, #2048
 416              	.LVL31:
 417 00a4 C4F20103 		movt	r3, 16385
 418 00a8 0222     		movs	r2, #2
 419 00aa 1A61     		str	r2, [r3, #16]
 420 00ac E4E7     		b	.L19
 421              	.L22:
 422 00ae 00BF     		.align	2
 423              	.L21:
 424 00b0 00000000 		.word	.LANCHOR1
 425 00b4 00000000 		.word	.LANCHOR4
 426 00b8 00000000 		.word	.LANCHOR0
 427 00bc 00000000 		.word	.LANCHOR5
 428 00c0 00000000 		.word	SPID1
 429 00c4 00000000 		.word	adcThread
 430 00c8 00000000 		.word	.LANCHOR6
 431              	.LBE21:
 432              	.LBE22:
 433              		.cfi_endproc
 434              	.LFE62:
 435              		.size	initAdc, .-initAdc
 436 00cc AFF30080 		.section	.text.queryAdcI,"ax",%progbits
 437              		.align	2
 438              		.p2align 4,,15
 439              		.global	queryAdcI
 440              		.thumb
 441              		.thumb_func
 442              		.type	queryAdcI, %function
 443              	queryAdcI:
 444              	.LFB63:
 445              		.loc 1 58 0
 446              		.cfi_startproc
 447              		@ args = 0, pretend = 0, frame = 0
 448              		@ frame_needed = 0, uses_anonymous_args = 0
 449 0000 10B5     		push	{r4, lr}
 450              	.LCFI4:
 451              		.cfi_def_cfa_offset 8
ARM GAS  C:\Users\z80\AppData\Local\Temp\ccaGQhzI.s 			page 9


 452              	.LBB23:
 453              		.loc 1 59 0
 454 0002 2023     		movs	r3, #32
 455              	.LVL32:
 456              	@ 59 "./src/adc_ctrl.c" 1
 457 0004 83F31188 		msr     BASEPRI, r3
 458              	@ 0 "" 2
 459              	.LVL33:
 460              		.thumb
 461              	.LBE23:
 462              		.loc 1 60 0
 463 0008 40F20004 		movw	r4, #:lower16:SPID1
 464              		.cfi_offset 14, -4
 465              		.cfi_offset 4, -8
 466 000c C0F20004 		movt	r4, #:upper16:SPID1
 467              		.loc 1 59 0
 468 0010 FFF7FEFF 		bl	dbg_check_lock_from_isr
 469              	.LVL34:
 470              		.loc 1 60 0
 471 0014 2046     		mov	r0, r4
 472 0016 FFF7FEFF 		bl	spi_lld_select
 473              		.loc 1 61 0
 474 001a 0323     		movs	r3, #3
 475 001c 40F20002 		movw	r2, #:lower16:.LANCHOR2
 476 0020 1946     		mov	r1, r3
 477 0022 C0F20002 		movt	r2, #:upper16:.LANCHOR2
 478 0026 2046     		mov	r0, r4
 479 0028 2370     		strb	r3, [r4, #0]
 480 002a FFF7FEFF 		bl	spi_lld_receive
 481              		.loc 1 62 0
 482 002e FFF7FEFF 		bl	dbg_check_unlock_from_isr
 483              	.LBB24:
 484 0032 0023     		movs	r3, #0
 485              	.LVL35:
 486              	@ 62 "./src/adc_ctrl.c" 1
 487 0034 83F31188 		msr     BASEPRI, r3
 488              	@ 0 "" 2
 489              	.LVL36:
 490              		.thumb
 491              	.LBE24:
 492              		.loc 1 63 0
 493 0038 10BD     		pop	{r4, pc}
 494              		.cfi_endproc
 495              	.LFE63:
 496              		.size	queryAdcI, .-queryAdcI
 497 003a 00BFAFF3 		.section	.text.adcQueue,"ax",%progbits
 497      0080
 498              		.align	2
 499              		.p2align 4,,15
 500              		.global	adcQueue
 501              		.thumb
 502              		.thumb_func
 503              		.type	adcQueue, %function
 504              	adcQueue:
 505              	.LFB65:
 506              		.loc 1 91 0
 507              		.cfi_startproc
ARM GAS  C:\Users\z80\AppData\Local\Temp\ccaGQhzI.s 			page 10


 508              		@ args = 0, pretend = 0, frame = 0
 509              		@ frame_needed = 0, uses_anonymous_args = 0
 510              		@ link register save eliminated.
 511              		.loc 1 92 0
 512 0000 40F20000 		movw	r0, #:lower16:.LANCHOR1
 513 0004 C0F20000 		movt	r0, #:upper16:.LANCHOR1
 514              		.loc 1 93 0
 515 0008 7047     		bx	lr
 516              		.cfi_endproc
 517              	.LFE65:
 518              		.size	adcQueue, .-adcQueue
 519 000a 00BFAFF3 		.section	.text.instantAdc,"ax",%progbits
 519      0080
 520              		.align	2
 521              		.p2align 4,,15
 522              		.global	instantAdc
 523              		.thumb
 524              		.thumb_func
 525              		.type	instantAdc, %function
 526              	instantAdc:
 527              	.LFB68:
 528              		.loc 1 152 0
 529              		.cfi_startproc
 530              		@ args = 0, pretend = 0, frame = 0
 531              		@ frame_needed = 0, uses_anonymous_args = 0
 532              	.LVL37:
 533 0000 10B5     		push	{r4, lr}
 534              	.LCFI5:
 535              		.cfi_def_cfa_offset 8
 536              		.loc 1 152 0
 537 0002 0446     		mov	r4, r0
 538              		.cfi_offset 14, -4
 539              		.cfi_offset 4, -8
 540              		.loc 1 153 0
 541 0004 90B1     		cbz	r0, .L25
 542              	.LBB25:
 543              		.loc 1 155 0
 544 0006 2023     		movs	r3, #32
 545              	.LVL38:
 546              	@ 155 "./src/adc_ctrl.c" 1
 547 0008 83F31188 		msr     BASEPRI, r3
 548              	@ 0 "" 2
 549              	.LVL39:
 550              		.thumb
 551              	.LBE25:
 552 000c FFF7FEFF 		bl	dbg_check_lock
 553              	.LVL40:
 554              		.loc 1 156 0
 555 0010 074B     		ldr	r3, .L27
 556 0012 1A68     		ldr	r2, [r3, #0]
 557 0014 2260     		str	r2, [r4, #0]
 558              		.loc 1 157 0
 559 0016 5A68     		ldr	r2, [r3, #4]
 560 0018 6260     		str	r2, [r4, #4]
 561              		.loc 1 158 0
 562 001a 9A68     		ldr	r2, [r3, #8]
 563 001c A260     		str	r2, [r4, #8]
ARM GAS  C:\Users\z80\AppData\Local\Temp\ccaGQhzI.s 			page 11


 564              		.loc 1 159 0
 565 001e DB68     		ldr	r3, [r3, #12]
 566 0020 E360     		str	r3, [r4, #12]
 567              		.loc 1 160 0
 568 0022 FFF7FEFF 		bl	dbg_check_unlock
 569              	.LBB26:
 570 0026 0023     		movs	r3, #0
 571              	.LVL41:
 572              	@ 160 "./src/adc_ctrl.c" 1
 573 0028 83F31188 		msr     BASEPRI, r3
 574              	@ 0 "" 2
 575              	.LVL42:
 576              		.thumb
 577              	.L25:
 578              	.LBE26:
 579              		.loc 1 162 0
 580 002c 10BD     		pop	{r4, pc}
 581              	.L28:
 582 002e 00BF     		.align	2
 583              	.L27:
 584 0030 00000000 		.word	.LANCHOR3
 585              		.cfi_endproc
 586              	.LFE68:
 587              		.size	instantAdc, .-instantAdc
 588              		.global	adc_queue
 589              		.global	adc_queue_buffer
 590              		.global	adc_rx_buffer
 591 0034 AFF30080 		.section	.bss.adc_queue,"aw",%nobits
 591      AFF30080 
 591      AFF30080 
 592              		.align	2
 593              		.set	.LANCHOR1,. + 0
 594              		.type	adc_queue, %object
 595              		.size	adc_queue, 32
 596              	adc_queue:
 597 0000 00000000 		.space	32
 597      00000000 
 597      00000000 
 597      00000000 
 597      00000000 
 598              		.section	.data.instantAdcdata,"aw",%progbits
 599              		.align	2
 600              		.set	.LANCHOR3,. + 0
 601              		.type	instantAdcdata, %object
 602              		.size	instantAdcdata, 16
 603              	instantAdcdata:
 604 0000 FFFFFFFF 		.word	-1
 605 0004 FFFFFFFF 		.word	-1
 606 0008 FFFFFFFF 		.word	-1
 607 000c FFFFFFFF 		.word	-1
 608              		.section	.rodata.hs_spicfg,"a",%progbits
 609              		.align	2
 610              		.set	.LANCHOR5,. + 0
 611              		.type	hs_spicfg, %object
 612              		.size	hs_spicfg, 12
 613              	hs_spicfg:
 614 0000 00000000 		.word	onSpiComplete
ARM GAS  C:\Users\z80\AppData\Local\Temp\ccaGQhzI.s 			page 12


 615 0004 00080140 		.word	1073809408
 616 0008 0400     		.short	4
 617 000a 0000     		.short	0
 618              		.section	.rodata.str1.4,"aMS",%progbits,1
 619              		.align	2
 620              	.LC0:
 621 0000 6C6400   		.ascii	"ld\000"
 622 0003 00       		.section	.bss.adc_rx_buffer,"aw",%nobits
 623              		.align	2
 624              		.set	.LANCHOR2,. + 0
 625              		.type	adc_rx_buffer, %object
 626              		.size	adc_rx_buffer, 4
 627              	adc_rx_buffer:
 628 0000 00000000 		.space	4
 629              		.section	.bss.adcIndex,"aw",%nobits
 630              		.align	2
 631              		.set	.LANCHOR0,. + 0
 632              		.type	adcIndex, %object
 633              		.size	adcIndex, 4
 634              	adcIndex:
 635 0000 00000000 		.space	4
 636              		.section	.bss.waAdc,"aw",%nobits
 637              		.align	3
 638              		.set	.LANCHOR6,. + 0
 639              		.type	waAdc, %object
 640              		.size	waAdc, 2224
 641              	waAdc:
 642 0000 00000000 		.space	2224
 642      00000000 
 642      00000000 
 642      00000000 
 642      00000000 
 643              		.section	.bss.adc_queue_buffer,"aw",%nobits
 644              		.align	2
 645              		.set	.LANCHOR4,. + 0
 646              		.type	adc_queue_buffer, %object
 647              		.size	adc_queue_buffer, 32
 648              	adc_queue_buffer:
 649 0000 00000000 		.space	32
 649      00000000 
 649      00000000 
 649      00000000 
 649      00000000 
 650              		.text
 651              	.Letext0:
 652              		.section	.debug_loc,"",%progbits
 653              	.Ldebug_loc0:
 654              	.LLST0:
 655 0000 00000000 		.4byte	.LFB64
 656 0004 02000000 		.4byte	.LCFI0
 657 0008 0200     		.2byte	0x2
 658 000a 7D       		.byte	0x7d
 659 000b 00       		.sleb128 0
 660 000c 02000000 		.4byte	.LCFI0
 661 0010 B8000000 		.4byte	.LFE64
 662 0014 0200     		.2byte	0x2
 663 0016 7D       		.byte	0x7d
ARM GAS  C:\Users\z80\AppData\Local\Temp\ccaGQhzI.s 			page 13


 664 0017 10       		.sleb128 16
 665 0018 00000000 		.4byte	0x0
 666 001c 00000000 		.4byte	0x0
 667              	.LLST1:
 668 0020 00000000 		.4byte	.LVL0
 669 0024 0D000000 		.4byte	.LVL3-1
 670 0028 0100     		.2byte	0x1
 671 002a 50       		.byte	0x50
 672 002b 00000000 		.4byte	0x0
 673 002f 00000000 		.4byte	0x0
 674              	.LLST2:
 675 0033 08000000 		.4byte	.LVL2
 676 0037 0D000000 		.4byte	.LVL3-1
 677 003b 0100     		.2byte	0x1
 678 003d 53       		.byte	0x53
 679 003e 00000000 		.4byte	0x0
 680 0042 00000000 		.4byte	0x0
 681              	.LLST3:
 682 0046 24000000 		.4byte	.LVL4
 683 004a 3C000000 		.4byte	.LVL5
 684 004e 0100     		.2byte	0x1
 685 0050 53       		.byte	0x53
 686 0051 3C000000 		.4byte	.LVL5
 687 0055 4B000000 		.4byte	.LVL6-1
 688 0059 0500     		.2byte	0x5
 689 005b 03       		.byte	0x3
 690 005c 00000000 		.4byte	adcIndex
 691 0060 88000000 		.4byte	.LVL9
 692 0064 9E000000 		.4byte	.LVL10
 693 0068 0100     		.2byte	0x1
 694 006a 53       		.byte	0x53
 695 006b 9E000000 		.4byte	.LVL10
 696 006f B8000000 		.4byte	.LFE64
 697 0073 0500     		.2byte	0x5
 698 0075 03       		.byte	0x3
 699 0076 00000000 		.4byte	adcIndex
 700 007a 00000000 		.4byte	0x0
 701 007e 00000000 		.4byte	0x0
 702              	.LLST4:
 703 0082 86000000 		.4byte	.LVL8
 704 0086 88000000 		.4byte	.LVL9
 705 008a 0100     		.2byte	0x1
 706 008c 53       		.byte	0x53
 707 008d 00000000 		.4byte	0x0
 708 0091 00000000 		.4byte	0x0
 709              	.LLST5:
 710 0095 00000000 		.4byte	.LFB67
 711 0099 02000000 		.4byte	.LCFI1
 712 009d 0200     		.2byte	0x2
 713 009f 7D       		.byte	0x7d
 714 00a0 00       		.sleb128 0
 715 00a1 02000000 		.4byte	.LCFI1
 716 00a5 6C000000 		.4byte	.LFE67
 717 00a9 0200     		.2byte	0x2
 718 00ab 7D       		.byte	0x7d
 719 00ac 18       		.sleb128 24
 720 00ad 00000000 		.4byte	0x0
ARM GAS  C:\Users\z80\AppData\Local\Temp\ccaGQhzI.s 			page 14


 721 00b1 00000000 		.4byte	0x0
 722              	.LLST6:
 723 00b5 00000000 		.4byte	.LVL11
 724 00b9 0C000000 		.4byte	.LVL12
 725 00bd 0100     		.2byte	0x1
 726 00bf 50       		.byte	0x50
 727 00c0 00000000 		.4byte	0x0
 728 00c4 00000000 		.4byte	0x0
 729              	.LLST7:
 730 00c8 1C000000 		.4byte	.LVL14
 731 00cc 1E000000 		.4byte	.LVL15
 732 00d0 0100     		.2byte	0x1
 733 00d2 50       		.byte	0x50
 734 00d3 1E000000 		.4byte	.LVL15
 735 00d7 28000000 		.4byte	.LVL16
 736 00db 0100     		.2byte	0x1
 737 00dd 54       		.byte	0x54
 738 00de 28000000 		.4byte	.LVL16
 739 00e2 2A000000 		.4byte	.LVL17
 740 00e6 0100     		.2byte	0x1
 741 00e8 50       		.byte	0x50
 742 00e9 2A000000 		.4byte	.LVL17
 743 00ed 34000000 		.4byte	.LVL18
 744 00f1 0100     		.2byte	0x1
 745 00f3 55       		.byte	0x55
 746 00f4 34000000 		.4byte	.LVL18
 747 00f8 36000000 		.4byte	.LVL19
 748 00fc 0100     		.2byte	0x1
 749 00fe 50       		.byte	0x50
 750 00ff 36000000 		.4byte	.LVL19
 751 0103 3A000000 		.4byte	.LVL20
 752 0107 0100     		.2byte	0x1
 753 0109 57       		.byte	0x57
 754 010a 3A000000 		.4byte	.LVL20
 755 010e 3C000000 		.4byte	.LVL21
 756 0112 0100     		.2byte	0x1
 757 0114 50       		.byte	0x50
 758 0115 00000000 		.4byte	0x0
 759 0119 00000000 		.4byte	0x0
 760              	.LLST8:
 761 011d 1C000000 		.4byte	.LVL14
 762 0121 1E000000 		.4byte	.LVL15
 763 0125 0100     		.2byte	0x1
 764 0127 50       		.byte	0x50
 765 0128 1E000000 		.4byte	.LVL15
 766 012c 6C000000 		.4byte	.LFE67
 767 0130 0100     		.2byte	0x1
 768 0132 54       		.byte	0x54
 769 0133 00000000 		.4byte	0x0
 770 0137 00000000 		.4byte	0x0
 771              	.LLST9:
 772 013b 28000000 		.4byte	.LVL16
 773 013f 2A000000 		.4byte	.LVL17
 774 0143 0100     		.2byte	0x1
 775 0145 50       		.byte	0x50
 776 0146 2A000000 		.4byte	.LVL17
 777 014a 34000000 		.4byte	.LVL18
ARM GAS  C:\Users\z80\AppData\Local\Temp\ccaGQhzI.s 			page 15


 778 014e 0100     		.2byte	0x1
 779 0150 55       		.byte	0x55
 780 0151 34000000 		.4byte	.LVL18
 781 0155 36000000 		.4byte	.LVL19
 782 0159 0800     		.2byte	0x8
 783 015b 70       		.byte	0x70
 784 015c 00       		.sleb128 0
 785 015d 38       		.byte	0x38
 786 015e 24       		.byte	0x24
 787 015f 75       		.byte	0x75
 788 0160 00       		.sleb128 0
 789 0161 22       		.byte	0x22
 790 0162 9F       		.byte	0x9f
 791 0163 36000000 		.4byte	.LVL19
 792 0167 40000000 		.4byte	.LVL22
 793 016b 0800     		.2byte	0x8
 794 016d 77       		.byte	0x77
 795 016e 00       		.sleb128 0
 796 016f 38       		.byte	0x38
 797 0170 24       		.byte	0x24
 798 0171 75       		.byte	0x75
 799 0172 00       		.sleb128 0
 800 0173 22       		.byte	0x22
 801 0174 9F       		.byte	0x9f
 802 0175 40000000 		.4byte	.LVL22
 803 0179 48000000 		.4byte	.LVL25
 804 017d 0600     		.2byte	0x6
 805 017f 77       		.byte	0x77
 806 0180 00       		.sleb128 0
 807 0181 75       		.byte	0x75
 808 0182 00       		.sleb128 0
 809 0183 22       		.byte	0x22
 810 0184 9F       		.byte	0x9f
 811 0185 48000000 		.4byte	.LVL25
 812 0189 6C000000 		.4byte	.LFE67
 813 018d 0100     		.2byte	0x1
 814 018f 57       		.byte	0x57
 815 0190 00000000 		.4byte	0x0
 816 0194 00000000 		.4byte	0x0
 817              	.LLST10:
 818 0198 46000000 		.4byte	.LVL24
 819 019c 4B000000 		.4byte	.LVL26-1
 820 01a0 0100     		.2byte	0x1
 821 01a2 53       		.byte	0x53
 822 01a3 00000000 		.4byte	0x0
 823 01a7 00000000 		.4byte	0x0
 824              	.LLST11:
 825 01ab 0C000000 		.4byte	.LVL12
 826 01af 15000000 		.4byte	.LVL13-1
 827 01b3 0100     		.2byte	0x1
 828 01b5 53       		.byte	0x53
 829 01b6 5A000000 		.4byte	.LVL27
 830 01ba 6C000000 		.4byte	.LFE67
 831 01be 0100     		.2byte	0x1
 832 01c0 53       		.byte	0x53
 833 01c1 00000000 		.4byte	0x0
 834 01c5 00000000 		.4byte	0x0
ARM GAS  C:\Users\z80\AppData\Local\Temp\ccaGQhzI.s 			page 16


 835              	.LLST12:
 836 01c9 00000000 		.4byte	.LFB62
 837 01cd 02000000 		.4byte	.LCFI2
 838 01d1 0200     		.2byte	0x2
 839 01d3 7D       		.byte	0x7d
 840 01d4 00       		.sleb128 0
 841 01d5 02000000 		.4byte	.LCFI2
 842 01d9 0A000000 		.4byte	.LCFI3
 843 01dd 0200     		.2byte	0x2
 844 01df 7D       		.byte	0x7d
 845 01e0 08       		.sleb128 8
 846 01e1 0A000000 		.4byte	.LCFI3
 847 01e5 CC000000 		.4byte	.LFE62
 848 01e9 0200     		.2byte	0x2
 849 01eb 7D       		.byte	0x7d
 850 01ec 10       		.sleb128 16
 851 01ed 00000000 		.4byte	0x0
 852 01f1 00000000 		.4byte	0x0
 853              	.LLST13:
 854 01f5 5A000000 		.4byte	.LVL28
 855 01f9 7F000000 		.4byte	.LVL29-1
 856 01fd 0500     		.2byte	0x5
 857 01ff 03       		.byte	0x3
 858 0200 00000000 		.4byte	adcIndex
 859 0204 96000000 		.4byte	.LVL30
 860 0208 A4000000 		.4byte	.LVL31
 861 020c 0100     		.2byte	0x1
 862 020e 53       		.byte	0x53
 863 020f A4000000 		.4byte	.LVL31
 864 0213 CC000000 		.4byte	.LFE62
 865 0217 0500     		.2byte	0x5
 866 0219 03       		.byte	0x3
 867 021a 00000000 		.4byte	adcIndex
 868 021e 00000000 		.4byte	0x0
 869 0222 00000000 		.4byte	0x0
 870              	.LLST14:
 871 0226 00000000 		.4byte	.LFB63
 872 022a 02000000 		.4byte	.LCFI4
 873 022e 0200     		.2byte	0x2
 874 0230 7D       		.byte	0x7d
 875 0231 00       		.sleb128 0
 876 0232 02000000 		.4byte	.LCFI4
 877 0236 3A000000 		.4byte	.LFE63
 878 023a 0200     		.2byte	0x2
 879 023c 7D       		.byte	0x7d
 880 023d 08       		.sleb128 8
 881 023e 00000000 		.4byte	0x0
 882 0242 00000000 		.4byte	0x0
 883              	.LLST15:
 884 0246 08000000 		.4byte	.LVL33
 885 024a 13000000 		.4byte	.LVL34-1
 886 024e 0100     		.2byte	0x1
 887 0250 53       		.byte	0x53
 888 0251 00000000 		.4byte	0x0
 889 0255 00000000 		.4byte	0x0
 890              	.LLST16:
 891 0259 38000000 		.4byte	.LVL36
ARM GAS  C:\Users\z80\AppData\Local\Temp\ccaGQhzI.s 			page 17


 892 025d 3A000000 		.4byte	.LFE63
 893 0261 0100     		.2byte	0x1
 894 0263 53       		.byte	0x53
 895 0264 00000000 		.4byte	0x0
 896 0268 00000000 		.4byte	0x0
 897              	.LLST17:
 898 026c 00000000 		.4byte	.LFB68
 899 0270 02000000 		.4byte	.LCFI5
 900 0274 0200     		.2byte	0x2
 901 0276 7D       		.byte	0x7d
 902 0277 00       		.sleb128 0
 903 0278 02000000 		.4byte	.LCFI5
 904 027c 34000000 		.4byte	.LFE68
 905 0280 0200     		.2byte	0x2
 906 0282 7D       		.byte	0x7d
 907 0283 08       		.sleb128 8
 908 0284 00000000 		.4byte	0x0
 909 0288 00000000 		.4byte	0x0
 910              	.LLST18:
 911 028c 00000000 		.4byte	.LVL37
 912 0290 0F000000 		.4byte	.LVL40-1
 913 0294 0100     		.2byte	0x1
 914 0296 50       		.byte	0x50
 915 0297 0F000000 		.4byte	.LVL40-1
 916 029b 34000000 		.4byte	.LFE68
 917 029f 0100     		.2byte	0x1
 918 02a1 54       		.byte	0x54
 919 02a2 00000000 		.4byte	0x0
 920 02a6 00000000 		.4byte	0x0
 921              	.LLST19:
 922 02aa 0C000000 		.4byte	.LVL39
 923 02ae 0F000000 		.4byte	.LVL40-1
 924 02b2 0100     		.2byte	0x1
 925 02b4 53       		.byte	0x53
 926 02b5 00000000 		.4byte	0x0
 927 02b9 00000000 		.4byte	0x0
 928              	.LLST20:
 929 02bd 2C000000 		.4byte	.LVL42
 930 02c1 34000000 		.4byte	.LFE68
 931 02c5 0100     		.2byte	0x1
 932 02c7 53       		.byte	0x53
 933 02c8 00000000 		.4byte	0x0
 934 02cc 00000000 		.4byte	0x0
 935              		.file 2 "c:\\programs\\yagarto\\bin\\../lib/gcc/arm-none-eabi/4.5.0/include/stddef.h"
 936              		.file 3 "c:/programs/yagarto/lib/gcc/../../arm-none-eabi/sys-include/stdint.h"
 937              		.file 4 "../chibios_2.4.x/os/ports/GCC/ARMCMx/chtypes.h"
 938              		.file 5 "../chibios_2.4.x/os/kernel/include/chlists.h"
 939              		.file 6 "../chibios_2.4.x/os/kernel/include/chthreads.h"
 940              		.file 7 "../chibios_2.4.x/os/ports/GCC/ARMCMx/chcore_v7m.h"
 941              		.file 8 "../chibios_2.4.x/os/kernel/include/chschd.h"
 942              		.file 9 "../chibios_2.4.x/os/kernel/include/chmtx.h"
 943              		.file 10 "../chibios_2.4.x/os/kernel/include/chqueues.h"
 944              		.file 11 "../chibios_2.4.x/os/hal/platforms/STM32F1xx/stm32f10x.h"
 945              		.file 12 "../chibios_2.4.x/os/hal/platforms/STM32F1xx/stm32_dma.h"
 946              		.file 13 "../chibios_2.4.x/os/hal/platforms/STM32/GPIOv1/pal_lld.h"
 947              		.file 14 "../chibios_2.4.x/os/hal/include/spi.h"
 948              		.file 15 "../chibios_2.4.x/os/hal/platforms/STM32/spi_lld.h"
ARM GAS  C:\Users\z80\AppData\Local\Temp\ccaGQhzI.s 			page 18


 949              		.file 16 "../chibios_2.4.x/os/ports/common/ARMCMx/CMSIS/include/core_cm3.h"
 950              		.section	.debug_info
 951 0000 460C0000 		.4byte	0xc46
 952 0004 0200     		.2byte	0x2
 953 0006 00000000 		.4byte	.Ldebug_abbrev0
 954 000a 04       		.byte	0x4
 955 000b 01       		.uleb128 0x1
 956 000c 33050000 		.4byte	.LASF140
 957 0010 01       		.byte	0x1
 958 0011 CC000000 		.4byte	.LASF141
 959 0015 01010000 		.4byte	.LASF142
 960 0019 00000000 		.4byte	0x0
 961 001d 00000000 		.4byte	0x0
 962 0021 38000000 		.4byte	.Ldebug_ranges0+0x38
 963 0025 00000000 		.4byte	.Ldebug_line0
 964 0029 02       		.uleb128 0x2
 965 002a 04       		.byte	0x4
 966 002b 05       		.byte	0x5
 967 002c 696E7400 		.ascii	"int\000"
 968 0030 03       		.uleb128 0x3
 969 0031 06000000 		.4byte	.LASF2
 970 0035 02       		.byte	0x2
 971 0036 D3       		.byte	0xd3
 972 0037 3B000000 		.4byte	0x3b
 973 003b 04       		.uleb128 0x4
 974 003c 04       		.byte	0x4
 975 003d 07       		.byte	0x7
 976 003e F9010000 		.4byte	.LASF0
 977 0042 04       		.uleb128 0x4
 978 0043 01       		.byte	0x1
 979 0044 06       		.byte	0x6
 980 0045 C0000000 		.4byte	.LASF1
 981 0049 03       		.uleb128 0x3
 982 004a 2B050000 		.4byte	.LASF3
 983 004e 03       		.byte	0x3
 984 004f 2A       		.byte	0x2a
 985 0050 54000000 		.4byte	0x54
 986 0054 04       		.uleb128 0x4
 987 0055 01       		.byte	0x1
 988 0056 08       		.byte	0x8
 989 0057 B2030000 		.4byte	.LASF4
 990 005b 04       		.uleb128 0x4
 991 005c 02       		.byte	0x2
 992 005d 05       		.byte	0x5
 993 005e ED030000 		.4byte	.LASF5
 994 0062 03       		.uleb128 0x3
 995 0063 06020000 		.4byte	.LASF6
 996 0067 03       		.byte	0x3
 997 0068 36       		.byte	0x36
 998 0069 6D000000 		.4byte	0x6d
 999 006d 04       		.uleb128 0x4
 1000 006e 02       		.byte	0x2
 1001 006f 07       		.byte	0x7
 1002 0070 38020000 		.4byte	.LASF7
 1003 0074 03       		.uleb128 0x3
 1004 0075 AA030000 		.4byte	.LASF8
 1005 0079 03       		.byte	0x3
ARM GAS  C:\Users\z80\AppData\Local\Temp\ccaGQhzI.s 			page 19


 1006 007a 4F       		.byte	0x4f
 1007 007b 7F000000 		.4byte	0x7f
 1008 007f 04       		.uleb128 0x4
 1009 0080 04       		.byte	0x4
 1010 0081 05       		.byte	0x5
 1011 0082 3D010000 		.4byte	.LASF9
 1012 0086 03       		.uleb128 0x3
 1013 0087 4C040000 		.4byte	.LASF10
 1014 008b 03       		.byte	0x3
 1015 008c 50       		.byte	0x50
 1016 008d 91000000 		.4byte	0x91
 1017 0091 04       		.uleb128 0x4
 1018 0092 04       		.byte	0x4
 1019 0093 07       		.byte	0x7
 1020 0094 64040000 		.4byte	.LASF11
 1021 0098 04       		.uleb128 0x4
 1022 0099 08       		.byte	0x8
 1023 009a 05       		.byte	0x5
 1024 009b B2000000 		.4byte	.LASF12
 1025 009f 03       		.uleb128 0x3
 1026 00a0 C9020000 		.4byte	.LASF13
 1027 00a4 03       		.byte	0x3
 1028 00a5 78       		.byte	0x78
 1029 00a6 AA000000 		.4byte	0xaa
 1030 00aa 04       		.uleb128 0x4
 1031 00ab 08       		.byte	0x8
 1032 00ac 07       		.byte	0x7
 1033 00ad 4D000000 		.4byte	.LASF14
 1034 00b1 03       		.uleb128 0x3
 1035 00b2 51020000 		.4byte	.LASF15
 1036 00b6 04       		.byte	0x4
 1037 00b7 2F       		.byte	0x2f
 1038 00b8 49000000 		.4byte	0x49
 1039 00bc 03       		.uleb128 0x3
 1040 00bd 46010000 		.4byte	.LASF16
 1041 00c1 04       		.byte	0x4
 1042 00c2 30       		.byte	0x30
 1043 00c3 49000000 		.4byte	0x49
 1044 00c7 03       		.uleb128 0x3
 1045 00c8 94030000 		.4byte	.LASF17
 1046 00cc 04       		.byte	0x4
 1047 00cd 32       		.byte	0x32
 1048 00ce 86000000 		.4byte	0x86
 1049 00d2 03       		.uleb128 0x3
 1050 00d3 4B020000 		.4byte	.LASF18
 1051 00d7 04       		.byte	0x4
 1052 00d8 33       		.byte	0x33
 1053 00d9 74000000 		.4byte	0x74
 1054 00dd 03       		.uleb128 0x3
 1055 00de 65020000 		.4byte	.LASF19
 1056 00e2 04       		.byte	0x4
 1057 00e3 35       		.byte	0x35
 1058 00e4 86000000 		.4byte	0x86
 1059 00e8 03       		.uleb128 0x3
 1060 00e9 B3040000 		.4byte	.LASF20
 1061 00ed 04       		.byte	0x4
 1062 00ee 36       		.byte	0x36
ARM GAS  C:\Users\z80\AppData\Local\Temp\ccaGQhzI.s 			page 20


 1063 00ef 86000000 		.4byte	0x86
 1064 00f3 03       		.uleb128 0x3
 1065 00f4 DA010000 		.4byte	.LASF21
 1066 00f8 04       		.byte	0x4
 1067 00f9 37       		.byte	0x37
 1068 00fa 74000000 		.4byte	0x74
 1069 00fe 03       		.uleb128 0x3
 1070 00ff A4020000 		.4byte	.LASF22
 1071 0103 05       		.byte	0x5
 1072 0104 2A       		.byte	0x2a
 1073 0105 09010000 		.4byte	0x109
 1074 0109 05       		.uleb128 0x5
 1075 010a A4020000 		.4byte	.LASF22
 1076 010e 48       		.byte	0x48
 1077 010f 06       		.byte	0x6
 1078 0110 5E       		.byte	0x5e
 1079 0111 12020000 		.4byte	0x212
 1080 0115 06       		.uleb128 0x6
 1081 0116 0D040000 		.4byte	.LASF23
 1082 011a 06       		.byte	0x6
 1083 011b 5F       		.byte	0x5f
 1084 011c 37020000 		.4byte	0x237
 1085 0120 02       		.byte	0x2
 1086 0121 23       		.byte	0x23
 1087 0122 00       		.uleb128 0x0
 1088 0123 06       		.uleb128 0x6
 1089 0124 6F030000 		.4byte	.LASF24
 1090 0128 06       		.byte	0x6
 1091 0129 61       		.byte	0x61
 1092 012a 37020000 		.4byte	0x237
 1093 012e 02       		.byte	0x2
 1094 012f 23       		.byte	0x23
 1095 0130 04       		.uleb128 0x4
 1096 0131 06       		.uleb128 0x6
 1097 0132 98000000 		.4byte	.LASF25
 1098 0136 06       		.byte	0x6
 1099 0137 63       		.byte	0x63
 1100 0138 C7000000 		.4byte	0xc7
 1101 013c 02       		.byte	0x2
 1102 013d 23       		.byte	0x23
 1103 013e 08       		.uleb128 0x8
 1104 013f 06       		.uleb128 0x6
 1105 0140 6F050000 		.4byte	.LASF26
 1106 0144 06       		.byte	0x6
 1107 0145 64       		.byte	0x64
 1108 0146 0F030000 		.4byte	0x30f
 1109 014a 02       		.byte	0x2
 1110 014b 23       		.byte	0x23
 1111 014c 0C       		.uleb128 0xc
 1112 014d 06       		.uleb128 0x6
 1113 014e 7D010000 		.4byte	.LASF27
 1114 0152 06       		.byte	0x6
 1115 0153 66       		.byte	0x66
 1116 0154 37020000 		.4byte	0x237
 1117 0158 02       		.byte	0x2
 1118 0159 23       		.byte	0x23
 1119 015a 10       		.uleb128 0x10
ARM GAS  C:\Users\z80\AppData\Local\Temp\ccaGQhzI.s 			page 21


 1120 015b 06       		.uleb128 0x6
 1121 015c D2020000 		.4byte	.LASF28
 1122 0160 06       		.byte	0x6
 1123 0161 67       		.byte	0x67
 1124 0162 37020000 		.4byte	0x237
 1125 0166 02       		.byte	0x2
 1126 0167 23       		.byte	0x23
 1127 0168 14       		.uleb128 0x14
 1128 0169 06       		.uleb128 0x6
 1129 016a 46050000 		.4byte	.LASF29
 1130 016e 06       		.byte	0x6
 1131 016f 6E       		.byte	0x6e
 1132 0170 32040000 		.4byte	0x432
 1133 0174 02       		.byte	0x2
 1134 0175 23       		.byte	0x23
 1135 0176 18       		.uleb128 0x18
 1136 0177 06       		.uleb128 0x6
 1137 0178 EE010000 		.4byte	.LASF30
 1138 017c 06       		.byte	0x6
 1139 017d 74       		.byte	0x74
 1140 017e 44040000 		.4byte	0x444
 1141 0182 02       		.byte	0x2
 1142 0183 23       		.byte	0x23
 1143 0184 1C       		.uleb128 0x1c
 1144 0185 06       		.uleb128 0x6
 1145 0186 F7030000 		.4byte	.LASF31
 1146 018a 06       		.byte	0x6
 1147 018b 79       		.byte	0x79
 1148 018c BC000000 		.4byte	0xbc
 1149 0190 02       		.byte	0x2
 1150 0191 23       		.byte	0x23
 1151 0192 20       		.uleb128 0x20
 1152 0193 06       		.uleb128 0x6
 1153 0194 14040000 		.4byte	.LASF32
 1154 0198 06       		.byte	0x6
 1155 0199 7D       		.byte	0x7d
 1156 019a B1000000 		.4byte	0xb1
 1157 019e 02       		.byte	0x2
 1158 019f 23       		.byte	0x23
 1159 01a0 21       		.uleb128 0x21
 1160 01a1 06       		.uleb128 0x6
 1161 01a2 76010000 		.4byte	.LASF33
 1162 01a6 06       		.byte	0x6
 1163 01a7 89       		.byte	0x89
 1164 01a8 3A030000 		.4byte	0x33a
 1165 01ac 02       		.byte	0x2
 1166 01ad 23       		.byte	0x23
 1167 01ae 24       		.uleb128 0x24
 1168 01af 07       		.uleb128 0x7
 1169 01b0 705F7500 		.ascii	"p_u\000"
 1170 01b4 06       		.byte	0x6
 1171 01b5 AE       		.byte	0xae
 1172 01b6 FD030000 		.4byte	0x3fd
 1173 01ba 02       		.byte	0x2
 1174 01bb 23       		.byte	0x23
 1175 01bc 28       		.uleb128 0x28
 1176 01bd 06       		.uleb128 0x6
ARM GAS  C:\Users\z80\AppData\Local\Temp\ccaGQhzI.s 			page 22


 1177 01be 75050000 		.4byte	.LASF34
 1178 01c2 06       		.byte	0x6
 1179 01c3 B3       		.byte	0xb3
 1180 01c4 5F020000 		.4byte	0x25f
 1181 01c8 02       		.byte	0x2
 1182 01c9 23       		.byte	0x23
 1183 01ca 2C       		.uleb128 0x2c
 1184 01cb 06       		.uleb128 0x6
 1185 01cc 14020000 		.4byte	.LASF35
 1186 01d0 06       		.byte	0x6
 1187 01d1 B9       		.byte	0xb9
 1188 01d2 3D020000 		.4byte	0x23d
 1189 01d6 02       		.byte	0x2
 1190 01d7 23       		.byte	0x23
 1191 01d8 30       		.uleb128 0x30
 1192 01d9 06       		.uleb128 0x6
 1193 01da 57050000 		.4byte	.LASF36
 1194 01de 06       		.byte	0x6
 1195 01df BD       		.byte	0xbd
 1196 01e0 D2000000 		.4byte	0xd2
 1197 01e4 02       		.byte	0x2
 1198 01e5 23       		.byte	0x23
 1199 01e6 38       		.uleb128 0x38
 1200 01e7 06       		.uleb128 0x6
 1201 01e8 32040000 		.4byte	.LASF37
 1202 01ec 06       		.byte	0x6
 1203 01ed C3       		.byte	0xc3
 1204 01ee DD000000 		.4byte	0xdd
 1205 01f2 02       		.byte	0x2
 1206 01f3 23       		.byte	0x23
 1207 01f4 3C       		.uleb128 0x3c
 1208 01f5 06       		.uleb128 0x6
 1209 01f6 E3030000 		.4byte	.LASF38
 1210 01fa 06       		.byte	0x6
 1211 01fb CA       		.byte	0xca
 1212 01fc 4A040000 		.4byte	0x44a
 1213 0200 02       		.byte	0x2
 1214 0201 23       		.byte	0x23
 1215 0202 40       		.uleb128 0x40
 1216 0203 06       		.uleb128 0x6
 1217 0204 BD040000 		.4byte	.LASF39
 1218 0208 06       		.byte	0x6
 1219 0209 CE       		.byte	0xce
 1220 020a C7000000 		.4byte	0xc7
 1221 020e 02       		.byte	0x2
 1222 020f 23       		.byte	0x23
 1223 0210 44       		.uleb128 0x44
 1224 0211 00       		.byte	0x0
 1225 0212 08       		.uleb128 0x8
 1226 0213 08       		.byte	0x8
 1227 0214 05       		.byte	0x5
 1228 0215 61       		.byte	0x61
 1229 0216 37020000 		.4byte	0x237
 1230 021a 06       		.uleb128 0x6
 1231 021b 0D040000 		.4byte	.LASF23
 1232 021f 05       		.byte	0x5
 1233 0220 62       		.byte	0x62
ARM GAS  C:\Users\z80\AppData\Local\Temp\ccaGQhzI.s 			page 23


 1234 0221 37020000 		.4byte	0x237
 1235 0225 02       		.byte	0x2
 1236 0226 23       		.byte	0x23
 1237 0227 00       		.uleb128 0x0
 1238 0228 06       		.uleb128 0x6
 1239 0229 6F030000 		.4byte	.LASF24
 1240 022d 05       		.byte	0x5
 1241 022e 64       		.byte	0x64
 1242 022f 37020000 		.4byte	0x237
 1243 0233 02       		.byte	0x2
 1244 0234 23       		.byte	0x23
 1245 0235 04       		.uleb128 0x4
 1246 0236 00       		.byte	0x0
 1247 0237 09       		.uleb128 0x9
 1248 0238 04       		.byte	0x4
 1249 0239 FE000000 		.4byte	0xfe
 1250 023d 03       		.uleb128 0x3
 1251 023e E0020000 		.4byte	.LASF40
 1252 0242 05       		.byte	0x5
 1253 0243 66       		.byte	0x66
 1254 0244 12020000 		.4byte	0x212
 1255 0248 08       		.uleb128 0x8
 1256 0249 04       		.byte	0x4
 1257 024a 05       		.byte	0x5
 1258 024b 6B       		.byte	0x6b
 1259 024c 5F020000 		.4byte	0x25f
 1260 0250 06       		.uleb128 0x6
 1261 0251 0D040000 		.4byte	.LASF23
 1262 0255 05       		.byte	0x5
 1263 0256 6D       		.byte	0x6d
 1264 0257 37020000 		.4byte	0x237
 1265 025b 02       		.byte	0x2
 1266 025c 23       		.byte	0x23
 1267 025d 00       		.uleb128 0x0
 1268 025e 00       		.byte	0x0
 1269 025f 03       		.uleb128 0x3
 1270 0260 59020000 		.4byte	.LASF41
 1271 0264 05       		.byte	0x5
 1272 0265 70       		.byte	0x70
 1273 0266 48020000 		.4byte	0x248
 1274 026a 03       		.uleb128 0x3
 1275 026b A9010000 		.4byte	.LASF42
 1276 026f 07       		.byte	0x7
 1277 0270 D7       		.byte	0xd7
 1278 0271 75020000 		.4byte	0x275
 1279 0275 0A       		.uleb128 0xa
 1280 0276 04       		.byte	0x4
 1281 0277 03       		.uleb128 0x3
 1282 0278 93020000 		.4byte	.LASF43
 1283 027c 07       		.byte	0x7
 1284 027d DD       		.byte	0xdd
 1285 027e 9F000000 		.4byte	0x9f
 1286 0282 05       		.uleb128 0x5
 1287 0283 DB040000 		.4byte	.LASF44
 1288 0287 24       		.byte	0x24
 1289 0288 07       		.byte	0x7
 1290 0289 FE       		.byte	0xfe
ARM GAS  C:\Users\z80\AppData\Local\Temp\ccaGQhzI.s 			page 24


 1291 028a 0F030000 		.4byte	0x30f
 1292 028e 0B       		.uleb128 0xb
 1293 028f 723400   		.ascii	"r4\000"
 1294 0292 07       		.byte	0x7
 1295 0293 1101     		.2byte	0x111
 1296 0295 6A020000 		.4byte	0x26a
 1297 0299 02       		.byte	0x2
 1298 029a 23       		.byte	0x23
 1299 029b 00       		.uleb128 0x0
 1300 029c 0B       		.uleb128 0xb
 1301 029d 723500   		.ascii	"r5\000"
 1302 02a0 07       		.byte	0x7
 1303 02a1 1201     		.2byte	0x112
 1304 02a3 6A020000 		.4byte	0x26a
 1305 02a7 02       		.byte	0x2
 1306 02a8 23       		.byte	0x23
 1307 02a9 04       		.uleb128 0x4
 1308 02aa 0B       		.uleb128 0xb
 1309 02ab 723600   		.ascii	"r6\000"
 1310 02ae 07       		.byte	0x7
 1311 02af 1301     		.2byte	0x113
 1312 02b1 6A020000 		.4byte	0x26a
 1313 02b5 02       		.byte	0x2
 1314 02b6 23       		.byte	0x23
 1315 02b7 08       		.uleb128 0x8
 1316 02b8 0B       		.uleb128 0xb
 1317 02b9 723700   		.ascii	"r7\000"
 1318 02bc 07       		.byte	0x7
 1319 02bd 1401     		.2byte	0x114
 1320 02bf 6A020000 		.4byte	0x26a
 1321 02c3 02       		.byte	0x2
 1322 02c4 23       		.byte	0x23
 1323 02c5 0C       		.uleb128 0xc
 1324 02c6 0B       		.uleb128 0xb
 1325 02c7 723800   		.ascii	"r8\000"
 1326 02ca 07       		.byte	0x7
 1327 02cb 1501     		.2byte	0x115
 1328 02cd 6A020000 		.4byte	0x26a
 1329 02d1 02       		.byte	0x2
 1330 02d2 23       		.byte	0x23
 1331 02d3 10       		.uleb128 0x10
 1332 02d4 0B       		.uleb128 0xb
 1333 02d5 723900   		.ascii	"r9\000"
 1334 02d8 07       		.byte	0x7
 1335 02d9 1601     		.2byte	0x116
 1336 02db 6A020000 		.4byte	0x26a
 1337 02df 02       		.byte	0x2
 1338 02e0 23       		.byte	0x23
 1339 02e1 14       		.uleb128 0x14
 1340 02e2 0B       		.uleb128 0xb
 1341 02e3 72313000 		.ascii	"r10\000"
 1342 02e7 07       		.byte	0x7
 1343 02e8 1701     		.2byte	0x117
 1344 02ea 6A020000 		.4byte	0x26a
 1345 02ee 02       		.byte	0x2
 1346 02ef 23       		.byte	0x23
 1347 02f0 18       		.uleb128 0x18
ARM GAS  C:\Users\z80\AppData\Local\Temp\ccaGQhzI.s 			page 25


 1348 02f1 0B       		.uleb128 0xb
 1349 02f2 72313100 		.ascii	"r11\000"
 1350 02f6 07       		.byte	0x7
 1351 02f7 1801     		.2byte	0x118
 1352 02f9 6A020000 		.4byte	0x26a
 1353 02fd 02       		.byte	0x2
 1354 02fe 23       		.byte	0x23
 1355 02ff 1C       		.uleb128 0x1c
 1356 0300 0B       		.uleb128 0xb
 1357 0301 6C7200   		.ascii	"lr\000"
 1358 0304 07       		.byte	0x7
 1359 0305 1901     		.2byte	0x119
 1360 0307 6A020000 		.4byte	0x26a
 1361 030b 02       		.byte	0x2
 1362 030c 23       		.byte	0x23
 1363 030d 20       		.uleb128 0x20
 1364 030e 00       		.byte	0x0
 1365 030f 0C       		.uleb128 0xc
 1366 0310 D3040000 		.4byte	.LASF45
 1367 0314 04       		.byte	0x4
 1368 0315 07       		.byte	0x7
 1369 0316 2301     		.2byte	0x123
 1370 0318 2C030000 		.4byte	0x32c
 1371 031c 0B       		.uleb128 0xb
 1372 031d 72313300 		.ascii	"r13\000"
 1373 0321 07       		.byte	0x7
 1374 0322 2401     		.2byte	0x124
 1375 0324 2C030000 		.4byte	0x32c
 1376 0328 02       		.byte	0x2
 1377 0329 23       		.byte	0x23
 1378 032a 00       		.uleb128 0x0
 1379 032b 00       		.byte	0x0
 1380 032c 09       		.uleb128 0x9
 1381 032d 04       		.byte	0x4
 1382 032e 82020000 		.4byte	0x282
 1383 0332 0D       		.uleb128 0xd
 1384 0333 86000000 		.4byte	0x86
 1385 0337 0E       		.uleb128 0xe
 1386 0338 04       		.byte	0x4
 1387 0339 07       		.byte	0x7
 1388 033a 0D       		.uleb128 0xd
 1389 033b E8000000 		.4byte	0xe8
 1390 033f 08       		.uleb128 0x8
 1391 0340 20       		.byte	0x20
 1392 0341 08       		.byte	0x8
 1393 0342 5E       		.byte	0x5e
 1394 0343 AA030000 		.4byte	0x3aa
 1395 0347 06       		.uleb128 0x6
 1396 0348 55040000 		.4byte	.LASF46
 1397 034c 08       		.byte	0x8
 1398 034d 5F       		.byte	0x5f
 1399 034e 3D020000 		.4byte	0x23d
 1400 0352 02       		.byte	0x2
 1401 0353 23       		.byte	0x23
 1402 0354 00       		.uleb128 0x0
 1403 0355 06       		.uleb128 0x6
 1404 0356 FF030000 		.4byte	.LASF47
ARM GAS  C:\Users\z80\AppData\Local\Temp\ccaGQhzI.s 			page 26


 1405 035a 08       		.byte	0x8
 1406 035b 60       		.byte	0x60
 1407 035c C7000000 		.4byte	0xc7
 1408 0360 02       		.byte	0x2
 1409 0361 23       		.byte	0x23
 1410 0362 08       		.uleb128 0x8
 1411 0363 06       		.uleb128 0x6
 1412 0364 DA020000 		.4byte	.LASF48
 1413 0368 08       		.byte	0x8
 1414 0369 62       		.byte	0x62
 1415 036a 0F030000 		.4byte	0x30f
 1416 036e 02       		.byte	0x2
 1417 036f 23       		.byte	0x23
 1418 0370 0C       		.uleb128 0xc
 1419 0371 06       		.uleb128 0x6
 1420 0372 A1010000 		.4byte	.LASF49
 1421 0376 08       		.byte	0x8
 1422 0377 65       		.byte	0x65
 1423 0378 37020000 		.4byte	0x237
 1424 037c 02       		.byte	0x2
 1425 037d 23       		.byte	0x23
 1426 037e 10       		.uleb128 0x10
 1427 037f 06       		.uleb128 0x6
 1428 0380 10030000 		.4byte	.LASF50
 1429 0384 08       		.byte	0x8
 1430 0385 66       		.byte	0x66
 1431 0386 37020000 		.4byte	0x237
 1432 038a 02       		.byte	0x2
 1433 038b 23       		.byte	0x23
 1434 038c 14       		.uleb128 0x14
 1435 038d 06       		.uleb128 0x6
 1436 038e 5D050000 		.4byte	.LASF51
 1437 0392 08       		.byte	0x8
 1438 0393 6A       		.byte	0x6a
 1439 0394 F3000000 		.4byte	0xf3
 1440 0398 02       		.byte	0x2
 1441 0399 23       		.byte	0x23
 1442 039a 18       		.uleb128 0x18
 1443 039b 06       		.uleb128 0x6
 1444 039c 06030000 		.4byte	.LASF52
 1445 03a0 08       		.byte	0x8
 1446 03a1 6C       		.byte	0x6c
 1447 03a2 37020000 		.4byte	0x237
 1448 03a6 02       		.byte	0x2
 1449 03a7 23       		.byte	0x23
 1450 03a8 1C       		.uleb128 0x1c
 1451 03a9 00       		.byte	0x0
 1452 03aa 03       		.uleb128 0x3
 1453 03ab 02050000 		.4byte	.LASF53
 1454 03af 08       		.byte	0x8
 1455 03b0 6E       		.byte	0x6e
 1456 03b1 3F030000 		.4byte	0x33f
 1457 03b5 05       		.uleb128 0x5
 1458 03b6 C3020000 		.4byte	.LASF54
 1459 03ba 10       		.byte	0x10
 1460 03bb 09       		.byte	0x9
 1461 03bc 2C       		.byte	0x2c
ARM GAS  C:\Users\z80\AppData\Local\Temp\ccaGQhzI.s 			page 27


 1462 03bd EC030000 		.4byte	0x3ec
 1463 03c1 06       		.uleb128 0x6
 1464 03c2 EE000000 		.4byte	.LASF55
 1465 03c6 09       		.byte	0x9
 1466 03c7 2D       		.byte	0x2d
 1467 03c8 3D020000 		.4byte	0x23d
 1468 03cc 02       		.byte	0x2
 1469 03cd 23       		.byte	0x23
 1470 03ce 00       		.uleb128 0x0
 1471 03cf 06       		.uleb128 0x6
 1472 03d0 67050000 		.4byte	.LASF56
 1473 03d4 09       		.byte	0x9
 1474 03d5 2F       		.byte	0x2f
 1475 03d6 37020000 		.4byte	0x237
 1476 03da 02       		.byte	0x2
 1477 03db 23       		.byte	0x23
 1478 03dc 08       		.uleb128 0x8
 1479 03dd 06       		.uleb128 0x6
 1480 03de AC040000 		.4byte	.LASF57
 1481 03e2 09       		.byte	0x9
 1482 03e3 31       		.byte	0x31
 1483 03e4 EC030000 		.4byte	0x3ec
 1484 03e8 02       		.byte	0x2
 1485 03e9 23       		.byte	0x23
 1486 03ea 0C       		.uleb128 0xc
 1487 03eb 00       		.byte	0x0
 1488 03ec 09       		.uleb128 0x9
 1489 03ed 04       		.byte	0x4
 1490 03ee B5030000 		.4byte	0x3b5
 1491 03f2 03       		.uleb128 0x3
 1492 03f3 C3020000 		.4byte	.LASF54
 1493 03f7 09       		.byte	0x9
 1494 03f8 33       		.byte	0x33
 1495 03f9 B5030000 		.4byte	0x3b5
 1496 03fd 0F       		.uleb128 0xf
 1497 03fe 04       		.byte	0x4
 1498 03ff 06       		.byte	0x6
 1499 0400 90       		.byte	0x90
 1500 0401 32040000 		.4byte	0x432
 1501 0405 10       		.uleb128 0x10
 1502 0406 0D000000 		.4byte	.LASF58
 1503 040a 06       		.byte	0x6
 1504 040b 97       		.byte	0x97
 1505 040c D2000000 		.4byte	0xd2
 1506 0410 10       		.uleb128 0x10
 1507 0411 6A000000 		.4byte	.LASF59
 1508 0415 06       		.byte	0x6
 1509 0416 9E       		.byte	0x9e
 1510 0417 D2000000 		.4byte	0xd2
 1511 041b 10       		.uleb128 0x10
 1512 041c 3F050000 		.4byte	.LASF60
 1513 0420 06       		.byte	0x6
 1514 0421 A5       		.byte	0xa5
 1515 0422 75020000 		.4byte	0x275
 1516 0426 10       		.uleb128 0x10
 1517 0427 06040000 		.4byte	.LASF61
 1518 042b 06       		.byte	0x6
ARM GAS  C:\Users\z80\AppData\Local\Temp\ccaGQhzI.s 			page 28


 1519 042c AC       		.byte	0xac
 1520 042d DD000000 		.4byte	0xdd
 1521 0431 00       		.byte	0x0
 1522 0432 09       		.uleb128 0x9
 1523 0433 04       		.byte	0x4
 1524 0434 38040000 		.4byte	0x438
 1525 0438 11       		.uleb128 0x11
 1526 0439 3D040000 		.4byte	0x43d
 1527 043d 04       		.uleb128 0x4
 1528 043e 01       		.byte	0x1
 1529 043f 08       		.byte	0x8
 1530 0440 82040000 		.4byte	.LASF62
 1531 0444 09       		.uleb128 0x9
 1532 0445 04       		.byte	0x4
 1533 0446 77020000 		.4byte	0x277
 1534 044a 09       		.uleb128 0x9
 1535 044b 04       		.byte	0x4
 1536 044c F2030000 		.4byte	0x3f2
 1537 0450 03       		.uleb128 0x3
 1538 0451 86020000 		.4byte	.LASF63
 1539 0455 0A       		.byte	0xa
 1540 0456 37       		.byte	0x37
 1541 0457 5B040000 		.4byte	0x45b
 1542 045b 05       		.uleb128 0x5
 1543 045c 86020000 		.4byte	.LASF63
 1544 0460 20       		.byte	0x20
 1545 0461 0A       		.byte	0xa
 1546 0462 45       		.byte	0x45
 1547 0463 CA040000 		.4byte	0x4ca
 1548 0467 06       		.uleb128 0x6
 1549 0468 A8000000 		.4byte	.LASF64
 1550 046c 0A       		.byte	0xa
 1551 046d 46       		.byte	0x46
 1552 046e 3D020000 		.4byte	0x23d
 1553 0472 02       		.byte	0x2
 1554 0473 23       		.byte	0x23
 1555 0474 00       		.uleb128 0x0
 1556 0475 06       		.uleb128 0x6
 1557 0476 B9020000 		.4byte	.LASF65
 1558 047a 0A       		.byte	0xa
 1559 047b 47       		.byte	0x47
 1560 047c 30000000 		.4byte	0x30
 1561 0480 02       		.byte	0x2
 1562 0481 23       		.byte	0x23
 1563 0482 08       		.uleb128 0x8
 1564 0483 06       		.uleb128 0x6
 1565 0484 65010000 		.4byte	.LASF66
 1566 0488 0A       		.byte	0xa
 1567 0489 48       		.byte	0x48
 1568 048a ED040000 		.4byte	0x4ed
 1569 048e 02       		.byte	0x2
 1570 048f 23       		.byte	0x23
 1571 0490 0C       		.uleb128 0xc
 1572 0491 06       		.uleb128 0x6
 1573 0492 F7040000 		.4byte	.LASF67
 1574 0496 0A       		.byte	0xa
 1575 0497 49       		.byte	0x49
ARM GAS  C:\Users\z80\AppData\Local\Temp\ccaGQhzI.s 			page 29


 1576 0498 ED040000 		.4byte	0x4ed
 1577 049c 02       		.byte	0x2
 1578 049d 23       		.byte	0x23
 1579 049e 10       		.uleb128 0x10
 1580 049f 06       		.uleb128 0x6
 1581 04a0 6E010000 		.4byte	.LASF68
 1582 04a4 0A       		.byte	0xa
 1583 04a5 4B       		.byte	0x4b
 1584 04a6 ED040000 		.4byte	0x4ed
 1585 04aa 02       		.byte	0x2
 1586 04ab 23       		.byte	0x23
 1587 04ac 14       		.uleb128 0x14
 1588 04ad 06       		.uleb128 0x6
 1589 04ae 9C030000 		.4byte	.LASF69
 1590 04b2 0A       		.byte	0xa
 1591 04b3 4C       		.byte	0x4c
 1592 04b4 ED040000 		.4byte	0x4ed
 1593 04b8 02       		.byte	0x2
 1594 04b9 23       		.byte	0x23
 1595 04ba 18       		.uleb128 0x18
 1596 04bb 06       		.uleb128 0x6
 1597 04bc 1C050000 		.4byte	.LASF70
 1598 04c0 0A       		.byte	0xa
 1599 04c1 4D       		.byte	0x4d
 1600 04c2 CA040000 		.4byte	0x4ca
 1601 04c6 02       		.byte	0x2
 1602 04c7 23       		.byte	0x23
 1603 04c8 1C       		.uleb128 0x1c
 1604 04c9 00       		.byte	0x0
 1605 04ca 03       		.uleb128 0x3
 1606 04cb 7C020000 		.4byte	.LASF71
 1607 04cf 0A       		.byte	0xa
 1608 04d0 3A       		.byte	0x3a
 1609 04d1 D5040000 		.4byte	0x4d5
 1610 04d5 09       		.uleb128 0x9
 1611 04d6 04       		.byte	0x4
 1612 04d7 DB040000 		.4byte	0x4db
 1613 04db 12       		.uleb128 0x12
 1614 04dc 01       		.byte	0x1
 1615 04dd E7040000 		.4byte	0x4e7
 1616 04e1 13       		.uleb128 0x13
 1617 04e2 E7040000 		.4byte	0x4e7
 1618 04e6 00       		.byte	0x0
 1619 04e7 09       		.uleb128 0x9
 1620 04e8 04       		.byte	0x4
 1621 04e9 50040000 		.4byte	0x450
 1622 04ed 09       		.uleb128 0x9
 1623 04ee 04       		.byte	0x4
 1624 04ef 49000000 		.4byte	0x49
 1625 04f3 03       		.uleb128 0x3
 1626 04f4 71020000 		.4byte	.LASF72
 1627 04f8 0A       		.byte	0xa
 1628 04f9 76       		.byte	0x76
 1629 04fa 50040000 		.4byte	0x450
 1630 04fe 0D       		.uleb128 0xd
 1631 04ff 62000000 		.4byte	0x62
 1632 0503 0D       		.uleb128 0xd
ARM GAS  C:\Users\z80\AppData\Local\Temp\ccaGQhzI.s 			page 30


 1633 0504 74000000 		.4byte	0x74
 1634 0508 14       		.uleb128 0x14
 1635 0509 10       		.byte	0x10
 1636 050a 0B       		.byte	0xb
 1637 050b 2D03     		.2byte	0x32d
 1638 050d 4E050000 		.4byte	0x54e
 1639 0511 0B       		.uleb128 0xb
 1640 0512 43435200 		.ascii	"CCR\000"
 1641 0516 0B       		.byte	0xb
 1642 0517 2F03     		.2byte	0x32f
 1643 0519 32030000 		.4byte	0x332
 1644 051d 02       		.byte	0x2
 1645 051e 23       		.byte	0x23
 1646 051f 00       		.uleb128 0x0
 1647 0520 15       		.uleb128 0x15
 1648 0521 11050000 		.4byte	.LASF73
 1649 0525 0B       		.byte	0xb
 1650 0526 3003     		.2byte	0x330
 1651 0528 32030000 		.4byte	0x332
 1652 052c 02       		.byte	0x2
 1653 052d 23       		.byte	0x23
 1654 052e 04       		.uleb128 0x4
 1655 052f 15       		.uleb128 0x15
 1656 0530 0F020000 		.4byte	.LASF74
 1657 0534 0B       		.byte	0xb
 1658 0535 3103     		.2byte	0x331
 1659 0537 32030000 		.4byte	0x332
 1660 053b 02       		.byte	0x2
 1661 053c 23       		.byte	0x23
 1662 053d 08       		.uleb128 0x8
 1663 053e 15       		.uleb128 0x15
 1664 053f 17050000 		.4byte	.LASF75
 1665 0543 0B       		.byte	0xb
 1666 0544 3203     		.2byte	0x332
 1667 0546 32030000 		.4byte	0x332
 1668 054a 02       		.byte	0x2
 1669 054b 23       		.byte	0x23
 1670 054c 0C       		.uleb128 0xc
 1671 054d 00       		.byte	0x0
 1672 054e 16       		.uleb128 0x16
 1673 054f 22030000 		.4byte	.LASF76
 1674 0553 0B       		.byte	0xb
 1675 0554 3303     		.2byte	0x333
 1676 0556 08050000 		.4byte	0x508
 1677 055a 14       		.uleb128 0x14
 1678 055b 1C       		.byte	0x1c
 1679 055c 0B       		.byte	0xb
 1680 055d F803     		.2byte	0x3f8
 1681 055f CD050000 		.4byte	0x5cd
 1682 0563 0B       		.uleb128 0xb
 1683 0564 43524C00 		.ascii	"CRL\000"
 1684 0568 0B       		.byte	0xb
 1685 0569 FA03     		.2byte	0x3fa
 1686 056b 32030000 		.4byte	0x332
 1687 056f 02       		.byte	0x2
 1688 0570 23       		.byte	0x23
 1689 0571 00       		.uleb128 0x0
ARM GAS  C:\Users\z80\AppData\Local\Temp\ccaGQhzI.s 			page 31


 1690 0572 0B       		.uleb128 0xb
 1691 0573 43524800 		.ascii	"CRH\000"
 1692 0577 0B       		.byte	0xb
 1693 0578 FB03     		.2byte	0x3fb
 1694 057a 32030000 		.4byte	0x332
 1695 057e 02       		.byte	0x2
 1696 057f 23       		.byte	0x23
 1697 0580 04       		.uleb128 0x4
 1698 0581 0B       		.uleb128 0xb
 1699 0582 49445200 		.ascii	"IDR\000"
 1700 0586 0B       		.byte	0xb
 1701 0587 FC03     		.2byte	0x3fc
 1702 0589 32030000 		.4byte	0x332
 1703 058d 02       		.byte	0x2
 1704 058e 23       		.byte	0x23
 1705 058f 08       		.uleb128 0x8
 1706 0590 0B       		.uleb128 0xb
 1707 0591 4F445200 		.ascii	"ODR\000"
 1708 0595 0B       		.byte	0xb
 1709 0596 FD03     		.2byte	0x3fd
 1710 0598 32030000 		.4byte	0x332
 1711 059c 02       		.byte	0x2
 1712 059d 23       		.byte	0x23
 1713 059e 0C       		.uleb128 0xc
 1714 059f 15       		.uleb128 0x15
 1715 05a0 FD040000 		.4byte	.LASF77
 1716 05a4 0B       		.byte	0xb
 1717 05a5 FE03     		.2byte	0x3fe
 1718 05a7 32030000 		.4byte	0x332
 1719 05ab 02       		.byte	0x2
 1720 05ac 23       		.byte	0x23
 1721 05ad 10       		.uleb128 0x10
 1722 05ae 0B       		.uleb128 0xb
 1723 05af 42525200 		.ascii	"BRR\000"
 1724 05b3 0B       		.byte	0xb
 1725 05b4 FF03     		.2byte	0x3ff
 1726 05b6 32030000 		.4byte	0x332
 1727 05ba 02       		.byte	0x2
 1728 05bb 23       		.byte	0x23
 1729 05bc 14       		.uleb128 0x14
 1730 05bd 15       		.uleb128 0x15
 1731 05be 2C020000 		.4byte	.LASF78
 1732 05c2 0B       		.byte	0xb
 1733 05c3 0004     		.2byte	0x400
 1734 05c5 32030000 		.4byte	0x332
 1735 05c9 02       		.byte	0x2
 1736 05ca 23       		.byte	0x23
 1737 05cb 18       		.uleb128 0x18
 1738 05cc 00       		.byte	0x0
 1739 05cd 16       		.uleb128 0x16
 1740 05ce 1F020000 		.4byte	.LASF79
 1741 05d2 0B       		.byte	0xb
 1742 05d3 0104     		.2byte	0x401
 1743 05d5 5A050000 		.4byte	0x55a
 1744 05d9 14       		.uleb128 0x14
 1745 05da 24       		.byte	0x24
 1746 05db 0B       		.byte	0xb
ARM GAS  C:\Users\z80\AppData\Local\Temp\ccaGQhzI.s 			page 32


 1747 05dc 9704     		.2byte	0x497
 1748 05de EF060000 		.4byte	0x6ef
 1749 05e2 0B       		.uleb128 0xb
 1750 05e3 43523100 		.ascii	"CR1\000"
 1751 05e7 0B       		.byte	0xb
 1752 05e8 9904     		.2byte	0x499
 1753 05ea FE040000 		.4byte	0x4fe
 1754 05ee 02       		.byte	0x2
 1755 05ef 23       		.byte	0x23
 1756 05f0 00       		.uleb128 0x0
 1757 05f1 15       		.uleb128 0x15
 1758 05f2 3D030000 		.4byte	.LASF80
 1759 05f6 0B       		.byte	0xb
 1760 05f7 9A04     		.2byte	0x49a
 1761 05f9 62000000 		.4byte	0x62
 1762 05fd 02       		.byte	0x2
 1763 05fe 23       		.byte	0x23
 1764 05ff 02       		.uleb128 0x2
 1765 0600 0B       		.uleb128 0xb
 1766 0601 43523200 		.ascii	"CR2\000"
 1767 0605 0B       		.byte	0xb
 1768 0606 9B04     		.2byte	0x49b
 1769 0608 FE040000 		.4byte	0x4fe
 1770 060c 02       		.byte	0x2
 1771 060d 23       		.byte	0x23
 1772 060e 04       		.uleb128 0x4
 1773 060f 15       		.uleb128 0x15
 1774 0610 47030000 		.4byte	.LASF81
 1775 0614 0B       		.byte	0xb
 1776 0615 9C04     		.2byte	0x49c
 1777 0617 62000000 		.4byte	0x62
 1778 061b 02       		.byte	0x2
 1779 061c 23       		.byte	0x23
 1780 061d 06       		.uleb128 0x6
 1781 061e 0B       		.uleb128 0xb
 1782 061f 535200   		.ascii	"SR\000"
 1783 0622 0B       		.byte	0xb
 1784 0623 9D04     		.2byte	0x49d
 1785 0625 FE040000 		.4byte	0x4fe
 1786 0629 02       		.byte	0x2
 1787 062a 23       		.byte	0x23
 1788 062b 08       		.uleb128 0x8
 1789 062c 15       		.uleb128 0x15
 1790 062d 51030000 		.4byte	.LASF82
 1791 0631 0B       		.byte	0xb
 1792 0632 9E04     		.2byte	0x49e
 1793 0634 62000000 		.4byte	0x62
 1794 0638 02       		.byte	0x2
 1795 0639 23       		.byte	0x23
 1796 063a 0A       		.uleb128 0xa
 1797 063b 0B       		.uleb128 0xb
 1798 063c 445200   		.ascii	"DR\000"
 1799 063f 0B       		.byte	0xb
 1800 0640 9F04     		.2byte	0x49f
 1801 0642 FE040000 		.4byte	0x4fe
 1802 0646 02       		.byte	0x2
 1803 0647 23       		.byte	0x23
ARM GAS  C:\Users\z80\AppData\Local\Temp\ccaGQhzI.s 			page 33


 1804 0648 0C       		.uleb128 0xc
 1805 0649 15       		.uleb128 0x15
 1806 064a 5B030000 		.4byte	.LASF83
 1807 064e 0B       		.byte	0xb
 1808 064f A004     		.2byte	0x4a0
 1809 0651 62000000 		.4byte	0x62
 1810 0655 02       		.byte	0x2
 1811 0656 23       		.byte	0x23
 1812 0657 0E       		.uleb128 0xe
 1813 0658 15       		.uleb128 0x15
 1814 0659 64000000 		.4byte	.LASF84
 1815 065d 0B       		.byte	0xb
 1816 065e A104     		.2byte	0x4a1
 1817 0660 FE040000 		.4byte	0x4fe
 1818 0664 02       		.byte	0x2
 1819 0665 23       		.byte	0x23
 1820 0666 10       		.uleb128 0x10
 1821 0667 15       		.uleb128 0x15
 1822 0668 65030000 		.4byte	.LASF85
 1823 066c 0B       		.byte	0xb
 1824 066d A204     		.2byte	0x4a2
 1825 066f 62000000 		.4byte	0x62
 1826 0673 02       		.byte	0x2
 1827 0674 23       		.byte	0x23
 1828 0675 12       		.uleb128 0x12
 1829 0676 15       		.uleb128 0x15
 1830 0677 5D040000 		.4byte	.LASF86
 1831 067b 0B       		.byte	0xb
 1832 067c A304     		.2byte	0x4a3
 1833 067e FE040000 		.4byte	0x4fe
 1834 0682 02       		.byte	0x2
 1835 0683 23       		.byte	0x23
 1836 0684 14       		.uleb128 0x14
 1837 0685 15       		.uleb128 0x15
 1838 0686 42040000 		.4byte	.LASF87
 1839 068a 0B       		.byte	0xb
 1840 068b A404     		.2byte	0x4a4
 1841 068d 62000000 		.4byte	0x62
 1842 0691 02       		.byte	0x2
 1843 0692 23       		.byte	0x23
 1844 0693 16       		.uleb128 0x16
 1845 0694 15       		.uleb128 0x15
 1846 0695 36030000 		.4byte	.LASF88
 1847 0699 0B       		.byte	0xb
 1848 069a A504     		.2byte	0x4a5
 1849 069c FE040000 		.4byte	0x4fe
 1850 06a0 02       		.byte	0x2
 1851 06a1 23       		.byte	0x23
 1852 06a2 18       		.uleb128 0x18
 1853 06a3 15       		.uleb128 0x15
 1854 06a4 76030000 		.4byte	.LASF89
 1855 06a8 0B       		.byte	0xb
 1856 06a9 A604     		.2byte	0x4a6
 1857 06ab 62000000 		.4byte	0x62
 1858 06af 02       		.byte	0x2
 1859 06b0 23       		.byte	0x23
 1860 06b1 1A       		.uleb128 0x1a
ARM GAS  C:\Users\z80\AppData\Local\Temp\ccaGQhzI.s 			page 34


 1861 06b2 15       		.uleb128 0x15
 1862 06b3 E6000000 		.4byte	.LASF90
 1863 06b7 0B       		.byte	0xb
 1864 06b8 A704     		.2byte	0x4a7
 1865 06ba FE040000 		.4byte	0x4fe
 1866 06be 02       		.byte	0x2
 1867 06bf 23       		.byte	0x23
 1868 06c0 1C       		.uleb128 0x1c
 1869 06c1 15       		.uleb128 0x15
 1870 06c2 80030000 		.4byte	.LASF91
 1871 06c6 0B       		.byte	0xb
 1872 06c7 A804     		.2byte	0x4a8
 1873 06c9 62000000 		.4byte	0x62
 1874 06cd 02       		.byte	0x2
 1875 06ce 23       		.byte	0x23
 1876 06cf 1E       		.uleb128 0x1e
 1877 06d0 15       		.uleb128 0x15
 1878 06d1 B3020000 		.4byte	.LASF92
 1879 06d5 0B       		.byte	0xb
 1880 06d6 A904     		.2byte	0x4a9
 1881 06d8 FE040000 		.4byte	0x4fe
 1882 06dc 02       		.byte	0x2
 1883 06dd 23       		.byte	0x23
 1884 06de 20       		.uleb128 0x20
 1885 06df 15       		.uleb128 0x15
 1886 06e0 8A030000 		.4byte	.LASF93
 1887 06e4 0B       		.byte	0xb
 1888 06e5 AA04     		.2byte	0x4aa
 1889 06e7 62000000 		.4byte	0x62
 1890 06eb 02       		.byte	0x2
 1891 06ec 23       		.byte	0x23
 1892 06ed 22       		.uleb128 0x22
 1893 06ee 00       		.byte	0x0
 1894 06ef 16       		.uleb128 0x16
 1895 06f0 76040000 		.4byte	.LASF94
 1896 06f4 0B       		.byte	0xb
 1897 06f5 AB04     		.2byte	0x4ab
 1898 06f7 D9050000 		.4byte	0x5d9
 1899 06fb 08       		.uleb128 0x8
 1900 06fc 0C       		.byte	0xc
 1901 06fd 0C       		.byte	0xc
 1902 06fe C2       		.byte	0xc2
 1903 06ff 4A070000 		.4byte	0x74a
 1904 0703 06       		.uleb128 0x6
 1905 0704 2A040000 		.4byte	.LASF95
 1906 0708 0C       		.byte	0xc
 1907 0709 C3       		.byte	0xc3
 1908 070a 4A070000 		.4byte	0x74a
 1909 070e 02       		.byte	0x2
 1910 070f 23       		.byte	0x23
 1911 0710 00       		.uleb128 0x0
 1912 0711 06       		.uleb128 0x6
 1913 0712 3D040000 		.4byte	.LASF96
 1914 0716 0C       		.byte	0xc
 1915 0717 C4       		.byte	0xc4
 1916 0718 50070000 		.4byte	0x750
 1917 071c 02       		.byte	0x2
ARM GAS  C:\Users\z80\AppData\Local\Temp\ccaGQhzI.s 			page 35


 1918 071d 23       		.byte	0x23
 1919 071e 04       		.uleb128 0x4
 1920 071f 06       		.uleb128 0x6
 1921 0720 31020000 		.4byte	.LASF97
 1922 0724 0C       		.byte	0xc
 1923 0725 C5       		.byte	0xc5
 1924 0726 49000000 		.4byte	0x49
 1925 072a 02       		.byte	0x2
 1926 072b 23       		.byte	0x23
 1927 072c 08       		.uleb128 0x8
 1928 072d 06       		.uleb128 0x6
 1929 072e B2010000 		.4byte	.LASF98
 1930 0732 0C       		.byte	0xc
 1931 0733 C7       		.byte	0xc7
 1932 0734 49000000 		.4byte	0x49
 1933 0738 02       		.byte	0x2
 1934 0739 23       		.byte	0x23
 1935 073a 09       		.uleb128 0x9
 1936 073b 06       		.uleb128 0x6
 1937 073c 73000000 		.4byte	.LASF99
 1938 0740 0C       		.byte	0xc
 1939 0741 C8       		.byte	0xc8
 1940 0742 49000000 		.4byte	0x49
 1941 0746 02       		.byte	0x2
 1942 0747 23       		.byte	0x23
 1943 0748 0A       		.uleb128 0xa
 1944 0749 00       		.byte	0x0
 1945 074a 09       		.uleb128 0x9
 1946 074b 04       		.byte	0x4
 1947 074c 4E050000 		.4byte	0x54e
 1948 0750 09       		.uleb128 0x9
 1949 0751 04       		.byte	0x4
 1950 0752 32030000 		.4byte	0x332
 1951 0756 03       		.uleb128 0x3
 1952 0757 C0030000 		.4byte	.LASF100
 1953 075b 0C       		.byte	0xc
 1954 075c C9       		.byte	0xc9
 1955 075d FB060000 		.4byte	0x6fb
 1956 0761 03       		.uleb128 0x3
 1957 0762 3A000000 		.4byte	.LASF101
 1958 0766 0D       		.byte	0xd
 1959 0767 78       		.byte	0x78
 1960 0768 86000000 		.4byte	0x86
 1961 076c 03       		.uleb128 0x3
 1962 076d C8040000 		.4byte	.LASF102
 1963 0771 0D       		.byte	0xd
 1964 0772 85       		.byte	0x85
 1965 0773 77070000 		.4byte	0x777
 1966 0777 09       		.uleb128 0x9
 1967 0778 04       		.byte	0x4
 1968 0779 CD050000 		.4byte	0x5cd
 1969 077d 09       		.uleb128 0x9
 1970 077e 04       		.byte	0x4
 1971 077f 83070000 		.4byte	0x783
 1972 0783 11       		.uleb128 0x11
 1973 0784 56070000 		.4byte	0x756
 1974 0788 17       		.uleb128 0x17
ARM GAS  C:\Users\z80\AppData\Local\Temp\ccaGQhzI.s 			page 36


 1975 0789 01       		.byte	0x1
 1976 078a 0E       		.byte	0xe
 1977 078b 55       		.byte	0x55
 1978 078c AF070000 		.4byte	0x7af
 1979 0790 18       		.uleb128 0x18
 1980 0791 EC040000 		.4byte	.LASF103
 1981 0795 00       		.sleb128 0
 1982 0796 18       		.uleb128 0x18
 1983 0797 DD000000 		.4byte	.LASF104
 1984 079b 01       		.sleb128 1
 1985 079c 18       		.uleb128 0x18
 1986 079d E2040000 		.4byte	.LASF105
 1987 07a1 02       		.sleb128 2
 1988 07a2 18       		.uleb128 0x18
 1989 07a3 2F000000 		.4byte	.LASF106
 1990 07a7 03       		.sleb128 3
 1991 07a8 18       		.uleb128 0x18
 1992 07a9 87040000 		.4byte	.LASF107
 1993 07ad 04       		.sleb128 4
 1994 07ae 00       		.byte	0x0
 1995 07af 03       		.uleb128 0x3
 1996 07b0 A1040000 		.4byte	.LASF108
 1997 07b4 0E       		.byte	0xe
 1998 07b5 5B       		.byte	0x5b
 1999 07b6 88070000 		.4byte	0x788
 2000 07ba 16       		.uleb128 0x16
 2001 07bb 7A000000 		.4byte	.LASF109
 2002 07bf 0F       		.byte	0xf
 2003 07c0 0701     		.2byte	0x107
 2004 07c2 C6070000 		.4byte	0x7c6
 2005 07c6 0C       		.uleb128 0xc
 2006 07c7 7A000000 		.4byte	.LASF109
 2007 07cb 30       		.byte	0x30
 2008 07cc 0F       		.byte	0xf
 2009 07cd 2B01     		.2byte	0x12b
 2010 07cf 5B080000 		.4byte	0x85b
 2011 07d3 15       		.uleb128 0x15
 2012 07d4 37010000 		.4byte	.LASF110
 2013 07d8 0F       		.byte	0xf
 2014 07d9 2F01     		.2byte	0x12f
 2015 07db AF070000 		.4byte	0x7af
 2016 07df 02       		.byte	0x2
 2017 07e0 23       		.byte	0x23
 2018 07e1 00       		.uleb128 0x0
 2019 07e2 15       		.uleb128 0x15
 2020 07e3 94040000 		.4byte	.LASF111
 2021 07e7 0F       		.byte	0xf
 2022 07e8 3301     		.2byte	0x133
 2023 07ea D1080000 		.4byte	0x8d1
 2024 07ee 02       		.byte	0x2
 2025 07ef 23       		.byte	0x23
 2026 07f0 04       		.uleb128 0x4
 2027 07f1 15       		.uleb128 0x15
 2028 07f2 4F010000 		.4byte	.LASF112
 2029 07f6 0F       		.byte	0xf
 2030 07f7 3801     		.2byte	0x138
 2031 07f9 37020000 		.4byte	0x237
ARM GAS  C:\Users\z80\AppData\Local\Temp\ccaGQhzI.s 			page 37


 2032 07fd 02       		.byte	0x2
 2033 07fe 23       		.byte	0x23
 2034 07ff 08       		.uleb128 0x8
 2035 0800 15       		.uleb128 0x15
 2036 0801 A4030000 		.4byte	.LASF113
 2037 0805 0F       		.byte	0xf
 2038 0806 3F01     		.2byte	0x13f
 2039 0808 F2030000 		.4byte	0x3f2
 2040 080c 02       		.byte	0x2
 2041 080d 23       		.byte	0x23
 2042 080e 0C       		.uleb128 0xc
 2043 080f 0B       		.uleb128 0xb
 2044 0810 73706900 		.ascii	"spi\000"
 2045 0814 0F       		.byte	0xf
 2046 0815 4B01     		.2byte	0x14b
 2047 0817 DC080000 		.4byte	0x8dc
 2048 081b 02       		.byte	0x2
 2049 081c 23       		.byte	0x23
 2050 081d 1C       		.uleb128 0x1c
 2051 081e 15       		.uleb128 0x15
 2052 081f 00000000 		.4byte	.LASF114
 2053 0823 0F       		.byte	0xf
 2054 0824 4F01     		.2byte	0x14f
 2055 0826 7D070000 		.4byte	0x77d
 2056 082a 02       		.byte	0x2
 2057 082b 23       		.byte	0x23
 2058 082c 20       		.uleb128 0x20
 2059 082d 15       		.uleb128 0x15
 2060 082e 9B010000 		.4byte	.LASF115
 2061 0832 0F       		.byte	0xf
 2062 0833 5301     		.2byte	0x153
 2063 0835 7D070000 		.4byte	0x77d
 2064 0839 02       		.byte	0x2
 2065 083a 23       		.byte	0x23
 2066 083b 24       		.uleb128 0x24
 2067 083c 15       		.uleb128 0x15
 2068 083d 91010000 		.4byte	.LASF116
 2069 0841 0F       		.byte	0xf
 2070 0842 5701     		.2byte	0x157
 2071 0844 86000000 		.4byte	0x86
 2072 0848 02       		.byte	0x2
 2073 0849 23       		.byte	0x23
 2074 084a 28       		.uleb128 0x28
 2075 084b 15       		.uleb128 0x15
 2076 084c ED020000 		.4byte	.LASF117
 2077 0850 0F       		.byte	0xf
 2078 0851 5B01     		.2byte	0x15b
 2079 0853 86000000 		.4byte	0x86
 2080 0857 02       		.byte	0x2
 2081 0858 23       		.byte	0x23
 2082 0859 2C       		.uleb128 0x2c
 2083 085a 00       		.byte	0x0
 2084 085b 16       		.uleb128 0x16
 2085 085c BC010000 		.4byte	.LASF118
 2086 0860 0F       		.byte	0xf
 2087 0861 0F01     		.2byte	0x10f
 2088 0863 67080000 		.4byte	0x867
ARM GAS  C:\Users\z80\AppData\Local\Temp\ccaGQhzI.s 			page 38


 2089 0867 09       		.uleb128 0x9
 2090 0868 04       		.byte	0x4
 2091 0869 6D080000 		.4byte	0x86d
 2092 086d 12       		.uleb128 0x12
 2093 086e 01       		.byte	0x1
 2094 086f 79080000 		.4byte	0x879
 2095 0873 13       		.uleb128 0x13
 2096 0874 79080000 		.4byte	0x879
 2097 0878 00       		.byte	0x0
 2098 0879 09       		.uleb128 0x9
 2099 087a 04       		.byte	0x4
 2100 087b BA070000 		.4byte	0x7ba
 2101 087f 14       		.uleb128 0x14
 2102 0880 0C       		.byte	0xc
 2103 0881 0F       		.byte	0xf
 2104 0882 1401     		.2byte	0x114
 2105 0884 C5080000 		.4byte	0x8c5
 2106 0888 15       		.uleb128 0x15
 2107 0889 8A010000 		.4byte	.LASF119
 2108 088d 0F       		.byte	0xf
 2109 088e 1801     		.2byte	0x118
 2110 0890 5B080000 		.4byte	0x85b
 2111 0894 02       		.byte	0x2
 2112 0895 23       		.byte	0x23
 2113 0896 00       		.uleb128 0x0
 2114 0897 15       		.uleb128 0x15
 2115 0898 84000000 		.4byte	.LASF120
 2116 089c 0F       		.byte	0xf
 2117 089d 1D01     		.2byte	0x11d
 2118 089f 6C070000 		.4byte	0x76c
 2119 08a3 02       		.byte	0x2
 2120 08a4 23       		.byte	0x23
 2121 08a5 04       		.uleb128 0x4
 2122 08a6 15       		.uleb128 0x15
 2123 08a7 47000000 		.4byte	.LASF121
 2124 08ab 0F       		.byte	0xf
 2125 08ac 2101     		.2byte	0x121
 2126 08ae 62000000 		.4byte	0x62
 2127 08b2 02       		.byte	0x2
 2128 08b3 23       		.byte	0x23
 2129 08b4 08       		.uleb128 0x8
 2130 08b5 0B       		.uleb128 0xb
 2131 08b6 63723100 		.ascii	"cr1\000"
 2132 08ba 0F       		.byte	0xf
 2133 08bb 2501     		.2byte	0x125
 2134 08bd 62000000 		.4byte	0x62
 2135 08c1 02       		.byte	0x2
 2136 08c2 23       		.byte	0x23
 2137 08c3 0A       		.uleb128 0xa
 2138 08c4 00       		.byte	0x0
 2139 08c5 16       		.uleb128 0x16
 2140 08c6 4D050000 		.4byte	.LASF122
 2141 08ca 0F       		.byte	0xf
 2142 08cb 2601     		.2byte	0x126
 2143 08cd 7F080000 		.4byte	0x87f
 2144 08d1 09       		.uleb128 0x9
 2145 08d2 04       		.byte	0x4
ARM GAS  C:\Users\z80\AppData\Local\Temp\ccaGQhzI.s 			page 39


 2146 08d3 D7080000 		.4byte	0x8d7
 2147 08d7 11       		.uleb128 0x11
 2148 08d8 C5080000 		.4byte	0x8c5
 2149 08dc 09       		.uleb128 0x9
 2150 08dd 04       		.byte	0x4
 2151 08de EF060000 		.4byte	0x6ef
 2152 08e2 19       		.uleb128 0x19
 2153 08e3 F7020000 		.4byte	.LASF143
 2154 08e7 01       		.byte	0x1
 2155 08e8 5F       		.byte	0x5f
 2156 08e9 01       		.byte	0x1
 2157 08ea 01       		.byte	0x1
 2158 08eb FB080000 		.4byte	0x8fb
 2159 08ef 1A       		.uleb128 0x1a
 2160 08f0 9B040000 		.4byte	.LASF124
 2161 08f4 01       		.byte	0x1
 2162 08f5 5F       		.byte	0x5f
 2163 08f6 29000000 		.4byte	0x29
 2164 08fa 00       		.byte	0x0
 2165 08fb 1B       		.uleb128 0x1b
 2166 08fc E0010000 		.4byte	.LASF144
 2167 0900 01       		.byte	0x1
 2168 0901 41       		.byte	0x41
 2169 0902 01       		.byte	0x1
 2170 0903 00000000 		.4byte	.LFB64
 2171 0907 B8000000 		.4byte	.LFE64
 2172 090b 00000000 		.4byte	.LLST0
 2173 090f 76090000 		.4byte	0x976
 2174 0913 1C       		.uleb128 0x1c
 2175 0914 0C050000 		.4byte	.LASF123
 2176 0918 01       		.byte	0x1
 2177 0919 41       		.byte	0x41
 2178 091a 79080000 		.4byte	0x879
 2179 091e 20000000 		.4byte	.LLST1
 2180 0922 1D       		.uleb128 0x1d
 2181 0923 02000000 		.4byte	.LBB8
 2182 0927 08000000 		.4byte	.LBE8
 2183 092b 3F090000 		.4byte	0x93f
 2184 092f 1E       		.uleb128 0x1e
 2185 0930 746D7000 		.ascii	"tmp\000"
 2186 0934 01       		.byte	0x1
 2187 0935 44       		.byte	0x44
 2188 0936 86000000 		.4byte	0x86
 2189 093a 33000000 		.4byte	.LLST2
 2190 093e 00       		.byte	0x0
 2191 093f 1F       		.uleb128 0x1f
 2192 0940 E2080000 		.4byte	0x8e2
 2193 0944 1E000000 		.4byte	.LBB9
 2194 0948 00000000 		.4byte	.Ldebug_ranges0+0x0
 2195 094c 01       		.byte	0x1
 2196 094d 47       		.byte	0x47
 2197 094e 5C090000 		.4byte	0x95c
 2198 0952 20       		.uleb128 0x20
 2199 0953 EF080000 		.4byte	0x8ef
 2200 0957 46000000 		.4byte	.LLST3
 2201 095b 00       		.byte	0x0
 2202 095c 21       		.uleb128 0x21
ARM GAS  C:\Users\z80\AppData\Local\Temp\ccaGQhzI.s 			page 40


 2203 095d 80000000 		.4byte	.LBB14
 2204 0961 86000000 		.4byte	.LBE14
 2205 0965 1E       		.uleb128 0x1e
 2206 0966 746D7000 		.ascii	"tmp\000"
 2207 096a 01       		.byte	0x1
 2208 096b 57       		.byte	0x57
 2209 096c 86000000 		.4byte	0x86
 2210 0970 82000000 		.4byte	.LLST4
 2211 0974 00       		.byte	0x0
 2212 0975 00       		.byte	0x0
 2213 0976 22       		.uleb128 0x22
 2214 0977 18030000 		.4byte	.LASF145
 2215 097b 01       		.byte	0x1
 2216 097c 7E       		.byte	0x7e
 2217 097d 01       		.byte	0x1
 2218 097e D2000000 		.4byte	0xd2
 2219 0982 00000000 		.4byte	.LFB67
 2220 0986 6C000000 		.4byte	.LFE67
 2221 098a 95000000 		.4byte	.LLST5
 2222 098e 0F0A0000 		.4byte	0xa0f
 2223 0992 23       		.uleb128 0x23
 2224 0993 61726700 		.ascii	"arg\000"
 2225 0997 01       		.byte	0x1
 2226 0998 7E       		.byte	0x7e
 2227 0999 75020000 		.4byte	0x275
 2228 099d B5000000 		.4byte	.LLST6
 2229 09a1 21       		.uleb128 0x21
 2230 09a2 0C000000 		.4byte	.LBB16
 2231 09a6 6C000000 		.4byte	.LBE16
 2232 09aa 1E       		.uleb128 0x1e
 2233 09ab 6D736700 		.ascii	"msg\000"
 2234 09af 01       		.byte	0x1
 2235 09b0 85       		.byte	0x85
 2236 09b1 D2000000 		.4byte	0xd2
 2237 09b5 C8000000 		.4byte	.LLST7
 2238 09b9 24       		.uleb128 0x24
 2239 09ba 9B040000 		.4byte	.LASF124
 2240 09be 01       		.byte	0x1
 2241 09bf 86       		.byte	0x86
 2242 09c0 29000000 		.4byte	0x29
 2243 09c4 1D010000 		.4byte	.LLST8
 2244 09c8 24       		.uleb128 0x24
 2245 09c9 CA010000 		.4byte	.LASF125
 2246 09cd 01       		.byte	0x1
 2247 09ce 88       		.byte	0x88
 2248 09cf 29000000 		.4byte	0x29
 2249 09d3 3B010000 		.4byte	.LLST9
 2250 09d7 1D       		.uleb128 0x1d
 2251 09d8 40000000 		.4byte	.LBB17
 2252 09dc 46000000 		.4byte	.LBE17
 2253 09e0 F4090000 		.4byte	0x9f4
 2254 09e4 1E       		.uleb128 0x1e
 2255 09e5 746D7000 		.ascii	"tmp\000"
 2256 09e9 01       		.byte	0x1
 2257 09ea 8F       		.byte	0x8f
 2258 09eb 86000000 		.4byte	0x86
 2259 09ef 98010000 		.4byte	.LLST10
ARM GAS  C:\Users\z80\AppData\Local\Temp\ccaGQhzI.s 			page 41


 2260 09f3 00       		.byte	0x0
 2261 09f4 21       		.uleb128 0x21
 2262 09f5 54000000 		.4byte	.LBB18
 2263 09f9 6C000000 		.4byte	.LBE18
 2264 09fd 1E       		.uleb128 0x1e
 2265 09fe 746D7000 		.ascii	"tmp\000"
 2266 0a02 01       		.byte	0x1
 2267 0a03 91       		.byte	0x91
 2268 0a04 86000000 		.4byte	0x86
 2269 0a08 AB010000 		.4byte	.LLST11
 2270 0a0c 00       		.byte	0x0
 2271 0a0d 00       		.byte	0x0
 2272 0a0e 00       		.byte	0x0
 2273 0a0f 25       		.uleb128 0x25
 2274 0a10 01       		.byte	0x1
 2275 0a11 AB020000 		.4byte	.LASF126
 2276 0a15 01       		.byte	0x1
 2277 0a16 24       		.byte	0x24
 2278 0a17 01       		.byte	0x1
 2279 0a18 00000000 		.4byte	.LFB62
 2280 0a1c CC000000 		.4byte	.LFE62
 2281 0a20 C9010000 		.4byte	.LLST12
 2282 0a24 420A0000 		.4byte	0xa42
 2283 0a28 26       		.uleb128 0x26
 2284 0a29 E2080000 		.4byte	0x8e2
 2285 0a2d 5C000000 		.4byte	.LBB19
 2286 0a31 20000000 		.4byte	.Ldebug_ranges0+0x20
 2287 0a35 01       		.byte	0x1
 2288 0a36 31       		.byte	0x31
 2289 0a37 20       		.uleb128 0x20
 2290 0a38 EF080000 		.4byte	0x8ef
 2291 0a3c F5010000 		.4byte	.LLST13
 2292 0a40 00       		.byte	0x0
 2293 0a41 00       		.byte	0x0
 2294 0a42 25       		.uleb128 0x25
 2295 0a43 01       		.byte	0x1
 2296 0a44 D0010000 		.4byte	.LASF127
 2297 0a48 01       		.byte	0x1
 2298 0a49 39       		.byte	0x39
 2299 0a4a 01       		.byte	0x1
 2300 0a4b 00000000 		.4byte	.LFB63
 2301 0a4f 3A000000 		.4byte	.LFE63
 2302 0a53 26020000 		.4byte	.LLST14
 2303 0a57 920A0000 		.4byte	0xa92
 2304 0a5b 1D       		.uleb128 0x1d
 2305 0a5c 02000000 		.4byte	.LBB23
 2306 0a60 08000000 		.4byte	.LBE23
 2307 0a64 780A0000 		.4byte	0xa78
 2308 0a68 1E       		.uleb128 0x1e
 2309 0a69 746D7000 		.ascii	"tmp\000"
 2310 0a6d 01       		.byte	0x1
 2311 0a6e 3B       		.byte	0x3b
 2312 0a6f 86000000 		.4byte	0x86
 2313 0a73 46020000 		.4byte	.LLST15
 2314 0a77 00       		.byte	0x0
 2315 0a78 21       		.uleb128 0x21
 2316 0a79 32000000 		.4byte	.LBB24
ARM GAS  C:\Users\z80\AppData\Local\Temp\ccaGQhzI.s 			page 42


 2317 0a7d 38000000 		.4byte	.LBE24
 2318 0a81 1E       		.uleb128 0x1e
 2319 0a82 746D7000 		.ascii	"tmp\000"
 2320 0a86 01       		.byte	0x1
 2321 0a87 3E       		.byte	0x3e
 2322 0a88 86000000 		.4byte	0x86
 2323 0a8c 59020000 		.4byte	.LLST16
 2324 0a90 00       		.byte	0x0
 2325 0a91 00       		.byte	0x0
 2326 0a92 27       		.uleb128 0x27
 2327 0a93 01       		.byte	0x1
 2328 0a94 9F000000 		.4byte	.LASF146
 2329 0a98 01       		.byte	0x1
 2330 0a99 5A       		.byte	0x5a
 2331 0a9a 01       		.byte	0x1
 2332 0a9b AA0A0000 		.4byte	0xaaa
 2333 0a9f 00000000 		.4byte	.LFB65
 2334 0aa3 0A000000 		.4byte	.LFE65
 2335 0aa7 02       		.byte	0x2
 2336 0aa8 7D       		.byte	0x7d
 2337 0aa9 00       		.sleb128 0
 2338 0aaa 09       		.uleb128 0x9
 2339 0aab 04       		.byte	0x4
 2340 0aac F3040000 		.4byte	0x4f3
 2341 0ab0 25       		.uleb128 0x25
 2342 0ab1 01       		.byte	0x1
 2343 0ab2 F6000000 		.4byte	.LASF128
 2344 0ab6 01       		.byte	0x1
 2345 0ab7 97       		.byte	0x97
 2346 0ab8 01       		.byte	0x1
 2347 0ab9 00000000 		.4byte	.LFB68
 2348 0abd 34000000 		.4byte	.LFE68
 2349 0ac1 6C020000 		.4byte	.LLST17
 2350 0ac5 0F0B0000 		.4byte	0xb0f
 2351 0ac9 1C       		.uleb128 0x1c
 2352 0aca 85010000 		.4byte	.LASF129
 2353 0ace 01       		.byte	0x1
 2354 0acf 97       		.byte	0x97
 2355 0ad0 0F0B0000 		.4byte	0xb0f
 2356 0ad4 8C020000 		.4byte	.LLST18
 2357 0ad8 1D       		.uleb128 0x1d
 2358 0ad9 06000000 		.4byte	.LBB25
 2359 0add 0C000000 		.4byte	.LBE25
 2360 0ae1 F50A0000 		.4byte	0xaf5
 2361 0ae5 1E       		.uleb128 0x1e
 2362 0ae6 746D7000 		.ascii	"tmp\000"
 2363 0aea 01       		.byte	0x1
 2364 0aeb 9B       		.byte	0x9b
 2365 0aec 86000000 		.4byte	0x86
 2366 0af0 AA020000 		.4byte	.LLST19
 2367 0af4 00       		.byte	0x0
 2368 0af5 21       		.uleb128 0x21
 2369 0af6 26000000 		.4byte	.LBB26
 2370 0afa 2C000000 		.4byte	.LBE26
 2371 0afe 1E       		.uleb128 0x1e
 2372 0aff 746D7000 		.ascii	"tmp\000"
 2373 0b03 01       		.byte	0x1
ARM GAS  C:\Users\z80\AppData\Local\Temp\ccaGQhzI.s 			page 43


 2374 0b04 A0       		.byte	0xa0
 2375 0b05 86000000 		.4byte	0x86
 2376 0b09 BD020000 		.4byte	.LLST20
 2377 0b0d 00       		.byte	0x0
 2378 0b0e 00       		.byte	0x0
 2379 0b0f 09       		.uleb128 0x9
 2380 0b10 04       		.byte	0x4
 2381 0b11 29000000 		.4byte	0x29
 2382 0b15 28       		.uleb128 0x28
 2383 0b16 25050000 		.4byte	.LASF130
 2384 0b1a 08       		.byte	0x8
 2385 0b1b 72       		.byte	0x72
 2386 0b1c AA030000 		.4byte	0x3aa
 2387 0b20 01       		.byte	0x1
 2388 0b21 01       		.byte	0x1
 2389 0b22 29       		.uleb128 0x29
 2390 0b23 8B000000 		.4byte	.LASF131
 2391 0b27 10       		.byte	0x10
 2392 0b28 9404     		.2byte	0x494
 2393 0b2a 03050000 		.4byte	0x503
 2394 0b2e 01       		.byte	0x1
 2395 0b2f 01       		.byte	0x1
 2396 0b30 29       		.uleb128 0x29
 2397 0b31 D3030000 		.4byte	.LASF132
 2398 0b35 0F       		.byte	0xf
 2399 0b36 6701     		.2byte	0x167
 2400 0b38 BA070000 		.4byte	0x7ba
 2401 0b3c 01       		.byte	0x1
 2402 0b3d 01       		.byte	0x1
 2403 0b3e 28       		.uleb128 0x28
 2404 0b3f D9030000 		.4byte	.LASF133
 2405 0b43 01       		.byte	0x1
 2406 0b44 0D       		.byte	0xd
 2407 0b45 F3040000 		.4byte	0x4f3
 2408 0b49 01       		.byte	0x1
 2409 0b4a 01       		.byte	0x1
 2410 0b4b 2A       		.uleb128 0x2a
 2411 0b4c 49000000 		.4byte	0x49
 2412 0b50 5B0B0000 		.4byte	0xb5b
 2413 0b54 2B       		.uleb128 0x2b
 2414 0b55 37030000 		.4byte	0x337
 2415 0b59 1F       		.byte	0x1f
 2416 0b5a 00       		.byte	0x0
 2417 0b5b 28       		.uleb128 0x28
 2418 0b5c 1E000000 		.4byte	.LASF134
 2419 0b60 01       		.byte	0x1
 2420 0b61 0E       		.byte	0xe
 2421 0b62 4B0B0000 		.4byte	0xb4b
 2422 0b66 01       		.byte	0x1
 2423 0b67 01       		.byte	0x1
 2424 0b68 2A       		.uleb128 0x2a
 2425 0b69 49000000 		.4byte	0x49
 2426 0b6d 780B0000 		.4byte	0xb78
 2427 0b71 2B       		.uleb128 0x2b
 2428 0b72 37030000 		.4byte	0x337
 2429 0b76 03       		.byte	0x3
 2430 0b77 00       		.byte	0x0
ARM GAS  C:\Users\z80\AppData\Local\Temp\ccaGQhzI.s 			page 44


 2431 0b78 28       		.uleb128 0x28
 2432 0b79 1C040000 		.4byte	.LASF135
 2433 0b7d 01       		.byte	0x1
 2434 0b7e 10       		.byte	0x10
 2435 0b7f 680B0000 		.4byte	0xb68
 2436 0b83 01       		.byte	0x1
 2437 0b84 01       		.byte	0x1
 2438 0b85 2C       		.uleb128 0x2c
 2439 0b86 2E010000 		.4byte	.LASF136
 2440 0b8a 01       		.byte	0x1
 2441 0b8b 11       		.byte	0x11
 2442 0b8c 29000000 		.4byte	0x29
 2443 0b90 05       		.byte	0x5
 2444 0b91 03       		.byte	0x3
 2445 0b92 00000000 		.4byte	adcIndex
 2446 0b96 2A       		.uleb128 0x2a
 2447 0b97 77020000 		.4byte	0x277
 2448 0b9b A70B0000 		.4byte	0xba7
 2449 0b9f 2D       		.uleb128 0x2d
 2450 0ba0 37030000 		.4byte	0x337
 2451 0ba4 1501     		.2byte	0x115
 2452 0ba6 00       		.byte	0x0
 2453 0ba7 2C       		.uleb128 0x2c
 2454 0ba8 9E020000 		.4byte	.LASF137
 2455 0bac 01       		.byte	0x1
 2456 0bad 16       		.byte	0x16
 2457 0bae 960B0000 		.4byte	0xb96
 2458 0bb2 05       		.byte	0x5
 2459 0bb3 03       		.byte	0x3
 2460 0bb4 00000000 		.4byte	waAdc
 2461 0bb8 2C       		.uleb128 0x2c
 2462 0bb9 14000000 		.4byte	.LASF138
 2463 0bbd 01       		.byte	0x1
 2464 0bbe 1B       		.byte	0x1b
 2465 0bbf D7080000 		.4byte	0x8d7
 2466 0bc3 05       		.byte	0x5
 2467 0bc4 03       		.byte	0x3
 2468 0bc5 00000000 		.4byte	hs_spicfg
 2469 0bc9 2A       		.uleb128 0x2a
 2470 0bca 29000000 		.4byte	0x29
 2471 0bce D90B0000 		.4byte	0xbd9
 2472 0bd2 2B       		.uleb128 0x2b
 2473 0bd3 37030000 		.4byte	0x337
 2474 0bd7 03       		.byte	0x3
 2475 0bd8 00       		.byte	0x0
 2476 0bd9 2C       		.uleb128 0x2c
 2477 0bda 56010000 		.4byte	.LASF139
 2478 0bde 01       		.byte	0x1
 2479 0bdf 7D       		.byte	0x7d
 2480 0be0 C90B0000 		.4byte	0xbc9
 2481 0be4 05       		.byte	0x5
 2482 0be5 03       		.byte	0x3
 2483 0be6 00000000 		.4byte	instantAdcdata
 2484 0bea 28       		.uleb128 0x28
 2485 0beb 25050000 		.4byte	.LASF130
 2486 0bef 08       		.byte	0x8
 2487 0bf0 72       		.byte	0x72
ARM GAS  C:\Users\z80\AppData\Local\Temp\ccaGQhzI.s 			page 45


 2488 0bf1 AA030000 		.4byte	0x3aa
 2489 0bf5 01       		.byte	0x1
 2490 0bf6 01       		.byte	0x1
 2491 0bf7 29       		.uleb128 0x29
 2492 0bf8 8B000000 		.4byte	.LASF131
 2493 0bfc 10       		.byte	0x10
 2494 0bfd 9404     		.2byte	0x494
 2495 0bff 03050000 		.4byte	0x503
 2496 0c03 01       		.byte	0x1
 2497 0c04 01       		.byte	0x1
 2498 0c05 29       		.uleb128 0x29
 2499 0c06 D3030000 		.4byte	.LASF132
 2500 0c0a 0F       		.byte	0xf
 2501 0c0b 6701     		.2byte	0x167
 2502 0c0d BA070000 		.4byte	0x7ba
 2503 0c11 01       		.byte	0x1
 2504 0c12 01       		.byte	0x1
 2505 0c13 2E       		.uleb128 0x2e
 2506 0c14 D9030000 		.4byte	.LASF133
 2507 0c18 01       		.byte	0x1
 2508 0c19 0D       		.byte	0xd
 2509 0c1a F3040000 		.4byte	0x4f3
 2510 0c1e 01       		.byte	0x1
 2511 0c1f 05       		.byte	0x5
 2512 0c20 03       		.byte	0x3
 2513 0c21 00000000 		.4byte	adc_queue
 2514 0c25 2E       		.uleb128 0x2e
 2515 0c26 1E000000 		.4byte	.LASF134
 2516 0c2a 01       		.byte	0x1
 2517 0c2b 0E       		.byte	0xe
 2518 0c2c 4B0B0000 		.4byte	0xb4b
 2519 0c30 01       		.byte	0x1
 2520 0c31 05       		.byte	0x5
 2521 0c32 03       		.byte	0x3
 2522 0c33 00000000 		.4byte	adc_queue_buffer
 2523 0c37 2E       		.uleb128 0x2e
 2524 0c38 1C040000 		.4byte	.LASF135
 2525 0c3c 01       		.byte	0x1
 2526 0c3d 10       		.byte	0x10
 2527 0c3e 680B0000 		.4byte	0xb68
 2528 0c42 01       		.byte	0x1
 2529 0c43 05       		.byte	0x5
 2530 0c44 03       		.byte	0x3
 2531 0c45 00000000 		.4byte	adc_rx_buffer
 2532 0c49 00       		.byte	0x0
 2533              		.section	.debug_abbrev
 2534 0000 01       		.uleb128 0x1
 2535 0001 11       		.uleb128 0x11
 2536 0002 01       		.byte	0x1
 2537 0003 25       		.uleb128 0x25
 2538 0004 0E       		.uleb128 0xe
 2539 0005 13       		.uleb128 0x13
 2540 0006 0B       		.uleb128 0xb
 2541 0007 03       		.uleb128 0x3
 2542 0008 0E       		.uleb128 0xe
 2543 0009 1B       		.uleb128 0x1b
 2544 000a 0E       		.uleb128 0xe
ARM GAS  C:\Users\z80\AppData\Local\Temp\ccaGQhzI.s 			page 46


 2545 000b 11       		.uleb128 0x11
 2546 000c 01       		.uleb128 0x1
 2547 000d 52       		.uleb128 0x52
 2548 000e 01       		.uleb128 0x1
 2549 000f 55       		.uleb128 0x55
 2550 0010 06       		.uleb128 0x6
 2551 0011 10       		.uleb128 0x10
 2552 0012 06       		.uleb128 0x6
 2553 0013 00       		.byte	0x0
 2554 0014 00       		.byte	0x0
 2555 0015 02       		.uleb128 0x2
 2556 0016 24       		.uleb128 0x24
 2557 0017 00       		.byte	0x0
 2558 0018 0B       		.uleb128 0xb
 2559 0019 0B       		.uleb128 0xb
 2560 001a 3E       		.uleb128 0x3e
 2561 001b 0B       		.uleb128 0xb
 2562 001c 03       		.uleb128 0x3
 2563 001d 08       		.uleb128 0x8
 2564 001e 00       		.byte	0x0
 2565 001f 00       		.byte	0x0
 2566 0020 03       		.uleb128 0x3
 2567 0021 16       		.uleb128 0x16
 2568 0022 00       		.byte	0x0
 2569 0023 03       		.uleb128 0x3
 2570 0024 0E       		.uleb128 0xe
 2571 0025 3A       		.uleb128 0x3a
 2572 0026 0B       		.uleb128 0xb
 2573 0027 3B       		.uleb128 0x3b
 2574 0028 0B       		.uleb128 0xb
 2575 0029 49       		.uleb128 0x49
 2576 002a 13       		.uleb128 0x13
 2577 002b 00       		.byte	0x0
 2578 002c 00       		.byte	0x0
 2579 002d 04       		.uleb128 0x4
 2580 002e 24       		.uleb128 0x24
 2581 002f 00       		.byte	0x0
 2582 0030 0B       		.uleb128 0xb
 2583 0031 0B       		.uleb128 0xb
 2584 0032 3E       		.uleb128 0x3e
 2585 0033 0B       		.uleb128 0xb
 2586 0034 03       		.uleb128 0x3
 2587 0035 0E       		.uleb128 0xe
 2588 0036 00       		.byte	0x0
 2589 0037 00       		.byte	0x0
 2590 0038 05       		.uleb128 0x5
 2591 0039 13       		.uleb128 0x13
 2592 003a 01       		.byte	0x1
 2593 003b 03       		.uleb128 0x3
 2594 003c 0E       		.uleb128 0xe
 2595 003d 0B       		.uleb128 0xb
 2596 003e 0B       		.uleb128 0xb
 2597 003f 3A       		.uleb128 0x3a
 2598 0040 0B       		.uleb128 0xb
 2599 0041 3B       		.uleb128 0x3b
 2600 0042 0B       		.uleb128 0xb
 2601 0043 01       		.uleb128 0x1
ARM GAS  C:\Users\z80\AppData\Local\Temp\ccaGQhzI.s 			page 47


 2602 0044 13       		.uleb128 0x13
 2603 0045 00       		.byte	0x0
 2604 0046 00       		.byte	0x0
 2605 0047 06       		.uleb128 0x6
 2606 0048 0D       		.uleb128 0xd
 2607 0049 00       		.byte	0x0
 2608 004a 03       		.uleb128 0x3
 2609 004b 0E       		.uleb128 0xe
 2610 004c 3A       		.uleb128 0x3a
 2611 004d 0B       		.uleb128 0xb
 2612 004e 3B       		.uleb128 0x3b
 2613 004f 0B       		.uleb128 0xb
 2614 0050 49       		.uleb128 0x49
 2615 0051 13       		.uleb128 0x13
 2616 0052 38       		.uleb128 0x38
 2617 0053 0A       		.uleb128 0xa
 2618 0054 00       		.byte	0x0
 2619 0055 00       		.byte	0x0
 2620 0056 07       		.uleb128 0x7
 2621 0057 0D       		.uleb128 0xd
 2622 0058 00       		.byte	0x0
 2623 0059 03       		.uleb128 0x3
 2624 005a 08       		.uleb128 0x8
 2625 005b 3A       		.uleb128 0x3a
 2626 005c 0B       		.uleb128 0xb
 2627 005d 3B       		.uleb128 0x3b
 2628 005e 0B       		.uleb128 0xb
 2629 005f 49       		.uleb128 0x49
 2630 0060 13       		.uleb128 0x13
 2631 0061 38       		.uleb128 0x38
 2632 0062 0A       		.uleb128 0xa
 2633 0063 00       		.byte	0x0
 2634 0064 00       		.byte	0x0
 2635 0065 08       		.uleb128 0x8
 2636 0066 13       		.uleb128 0x13
 2637 0067 01       		.byte	0x1
 2638 0068 0B       		.uleb128 0xb
 2639 0069 0B       		.uleb128 0xb
 2640 006a 3A       		.uleb128 0x3a
 2641 006b 0B       		.uleb128 0xb
 2642 006c 3B       		.uleb128 0x3b
 2643 006d 0B       		.uleb128 0xb
 2644 006e 01       		.uleb128 0x1
 2645 006f 13       		.uleb128 0x13
 2646 0070 00       		.byte	0x0
 2647 0071 00       		.byte	0x0
 2648 0072 09       		.uleb128 0x9
 2649 0073 0F       		.uleb128 0xf
 2650 0074 00       		.byte	0x0
 2651 0075 0B       		.uleb128 0xb
 2652 0076 0B       		.uleb128 0xb
 2653 0077 49       		.uleb128 0x49
 2654 0078 13       		.uleb128 0x13
 2655 0079 00       		.byte	0x0
 2656 007a 00       		.byte	0x0
 2657 007b 0A       		.uleb128 0xa
 2658 007c 0F       		.uleb128 0xf
ARM GAS  C:\Users\z80\AppData\Local\Temp\ccaGQhzI.s 			page 48


 2659 007d 00       		.byte	0x0
 2660 007e 0B       		.uleb128 0xb
 2661 007f 0B       		.uleb128 0xb
 2662 0080 00       		.byte	0x0
 2663 0081 00       		.byte	0x0
 2664 0082 0B       		.uleb128 0xb
 2665 0083 0D       		.uleb128 0xd
 2666 0084 00       		.byte	0x0
 2667 0085 03       		.uleb128 0x3
 2668 0086 08       		.uleb128 0x8
 2669 0087 3A       		.uleb128 0x3a
 2670 0088 0B       		.uleb128 0xb
 2671 0089 3B       		.uleb128 0x3b
 2672 008a 05       		.uleb128 0x5
 2673 008b 49       		.uleb128 0x49
 2674 008c 13       		.uleb128 0x13
 2675 008d 38       		.uleb128 0x38
 2676 008e 0A       		.uleb128 0xa
 2677 008f 00       		.byte	0x0
 2678 0090 00       		.byte	0x0
 2679 0091 0C       		.uleb128 0xc
 2680 0092 13       		.uleb128 0x13
 2681 0093 01       		.byte	0x1
 2682 0094 03       		.uleb128 0x3
 2683 0095 0E       		.uleb128 0xe
 2684 0096 0B       		.uleb128 0xb
 2685 0097 0B       		.uleb128 0xb
 2686 0098 3A       		.uleb128 0x3a
 2687 0099 0B       		.uleb128 0xb
 2688 009a 3B       		.uleb128 0x3b
 2689 009b 05       		.uleb128 0x5
 2690 009c 01       		.uleb128 0x1
 2691 009d 13       		.uleb128 0x13
 2692 009e 00       		.byte	0x0
 2693 009f 00       		.byte	0x0
 2694 00a0 0D       		.uleb128 0xd
 2695 00a1 35       		.uleb128 0x35
 2696 00a2 00       		.byte	0x0
 2697 00a3 49       		.uleb128 0x49
 2698 00a4 13       		.uleb128 0x13
 2699 00a5 00       		.byte	0x0
 2700 00a6 00       		.byte	0x0
 2701 00a7 0E       		.uleb128 0xe
 2702 00a8 24       		.uleb128 0x24
 2703 00a9 00       		.byte	0x0
 2704 00aa 0B       		.uleb128 0xb
 2705 00ab 0B       		.uleb128 0xb
 2706 00ac 3E       		.uleb128 0x3e
 2707 00ad 0B       		.uleb128 0xb
 2708 00ae 00       		.byte	0x0
 2709 00af 00       		.byte	0x0
 2710 00b0 0F       		.uleb128 0xf
 2711 00b1 17       		.uleb128 0x17
 2712 00b2 01       		.byte	0x1
 2713 00b3 0B       		.uleb128 0xb
 2714 00b4 0B       		.uleb128 0xb
 2715 00b5 3A       		.uleb128 0x3a
ARM GAS  C:\Users\z80\AppData\Local\Temp\ccaGQhzI.s 			page 49


 2716 00b6 0B       		.uleb128 0xb
 2717 00b7 3B       		.uleb128 0x3b
 2718 00b8 0B       		.uleb128 0xb
 2719 00b9 01       		.uleb128 0x1
 2720 00ba 13       		.uleb128 0x13
 2721 00bb 00       		.byte	0x0
 2722 00bc 00       		.byte	0x0
 2723 00bd 10       		.uleb128 0x10
 2724 00be 0D       		.uleb128 0xd
 2725 00bf 00       		.byte	0x0
 2726 00c0 03       		.uleb128 0x3
 2727 00c1 0E       		.uleb128 0xe
 2728 00c2 3A       		.uleb128 0x3a
 2729 00c3 0B       		.uleb128 0xb
 2730 00c4 3B       		.uleb128 0x3b
 2731 00c5 0B       		.uleb128 0xb
 2732 00c6 49       		.uleb128 0x49
 2733 00c7 13       		.uleb128 0x13
 2734 00c8 00       		.byte	0x0
 2735 00c9 00       		.byte	0x0
 2736 00ca 11       		.uleb128 0x11
 2737 00cb 26       		.uleb128 0x26
 2738 00cc 00       		.byte	0x0
 2739 00cd 49       		.uleb128 0x49
 2740 00ce 13       		.uleb128 0x13
 2741 00cf 00       		.byte	0x0
 2742 00d0 00       		.byte	0x0
 2743 00d1 12       		.uleb128 0x12
 2744 00d2 15       		.uleb128 0x15
 2745 00d3 01       		.byte	0x1
 2746 00d4 27       		.uleb128 0x27
 2747 00d5 0C       		.uleb128 0xc
 2748 00d6 01       		.uleb128 0x1
 2749 00d7 13       		.uleb128 0x13
 2750 00d8 00       		.byte	0x0
 2751 00d9 00       		.byte	0x0
 2752 00da 13       		.uleb128 0x13
 2753 00db 05       		.uleb128 0x5
 2754 00dc 00       		.byte	0x0
 2755 00dd 49       		.uleb128 0x49
 2756 00de 13       		.uleb128 0x13
 2757 00df 00       		.byte	0x0
 2758 00e0 00       		.byte	0x0
 2759 00e1 14       		.uleb128 0x14
 2760 00e2 13       		.uleb128 0x13
 2761 00e3 01       		.byte	0x1
 2762 00e4 0B       		.uleb128 0xb
 2763 00e5 0B       		.uleb128 0xb
 2764 00e6 3A       		.uleb128 0x3a
 2765 00e7 0B       		.uleb128 0xb
 2766 00e8 3B       		.uleb128 0x3b
 2767 00e9 05       		.uleb128 0x5
 2768 00ea 01       		.uleb128 0x1
 2769 00eb 13       		.uleb128 0x13
 2770 00ec 00       		.byte	0x0
 2771 00ed 00       		.byte	0x0
 2772 00ee 15       		.uleb128 0x15
ARM GAS  C:\Users\z80\AppData\Local\Temp\ccaGQhzI.s 			page 50


 2773 00ef 0D       		.uleb128 0xd
 2774 00f0 00       		.byte	0x0
 2775 00f1 03       		.uleb128 0x3
 2776 00f2 0E       		.uleb128 0xe
 2777 00f3 3A       		.uleb128 0x3a
 2778 00f4 0B       		.uleb128 0xb
 2779 00f5 3B       		.uleb128 0x3b
 2780 00f6 05       		.uleb128 0x5
 2781 00f7 49       		.uleb128 0x49
 2782 00f8 13       		.uleb128 0x13
 2783 00f9 38       		.uleb128 0x38
 2784 00fa 0A       		.uleb128 0xa
 2785 00fb 00       		.byte	0x0
 2786 00fc 00       		.byte	0x0
 2787 00fd 16       		.uleb128 0x16
 2788 00fe 16       		.uleb128 0x16
 2789 00ff 00       		.byte	0x0
 2790 0100 03       		.uleb128 0x3
 2791 0101 0E       		.uleb128 0xe
 2792 0102 3A       		.uleb128 0x3a
 2793 0103 0B       		.uleb128 0xb
 2794 0104 3B       		.uleb128 0x3b
 2795 0105 05       		.uleb128 0x5
 2796 0106 49       		.uleb128 0x49
 2797 0107 13       		.uleb128 0x13
 2798 0108 00       		.byte	0x0
 2799 0109 00       		.byte	0x0
 2800 010a 17       		.uleb128 0x17
 2801 010b 04       		.uleb128 0x4
 2802 010c 01       		.byte	0x1
 2803 010d 0B       		.uleb128 0xb
 2804 010e 0B       		.uleb128 0xb
 2805 010f 3A       		.uleb128 0x3a
 2806 0110 0B       		.uleb128 0xb
 2807 0111 3B       		.uleb128 0x3b
 2808 0112 0B       		.uleb128 0xb
 2809 0113 01       		.uleb128 0x1
 2810 0114 13       		.uleb128 0x13
 2811 0115 00       		.byte	0x0
 2812 0116 00       		.byte	0x0
 2813 0117 18       		.uleb128 0x18
 2814 0118 28       		.uleb128 0x28
 2815 0119 00       		.byte	0x0
 2816 011a 03       		.uleb128 0x3
 2817 011b 0E       		.uleb128 0xe
 2818 011c 1C       		.uleb128 0x1c
 2819 011d 0D       		.uleb128 0xd
 2820 011e 00       		.byte	0x0
 2821 011f 00       		.byte	0x0
 2822 0120 19       		.uleb128 0x19
 2823 0121 2E       		.uleb128 0x2e
 2824 0122 01       		.byte	0x1
 2825 0123 03       		.uleb128 0x3
 2826 0124 0E       		.uleb128 0xe
 2827 0125 3A       		.uleb128 0x3a
 2828 0126 0B       		.uleb128 0xb
 2829 0127 3B       		.uleb128 0x3b
ARM GAS  C:\Users\z80\AppData\Local\Temp\ccaGQhzI.s 			page 51


 2830 0128 0B       		.uleb128 0xb
 2831 0129 27       		.uleb128 0x27
 2832 012a 0C       		.uleb128 0xc
 2833 012b 20       		.uleb128 0x20
 2834 012c 0B       		.uleb128 0xb
 2835 012d 01       		.uleb128 0x1
 2836 012e 13       		.uleb128 0x13
 2837 012f 00       		.byte	0x0
 2838 0130 00       		.byte	0x0
 2839 0131 1A       		.uleb128 0x1a
 2840 0132 05       		.uleb128 0x5
 2841 0133 00       		.byte	0x0
 2842 0134 03       		.uleb128 0x3
 2843 0135 0E       		.uleb128 0xe
 2844 0136 3A       		.uleb128 0x3a
 2845 0137 0B       		.uleb128 0xb
 2846 0138 3B       		.uleb128 0x3b
 2847 0139 0B       		.uleb128 0xb
 2848 013a 49       		.uleb128 0x49
 2849 013b 13       		.uleb128 0x13
 2850 013c 00       		.byte	0x0
 2851 013d 00       		.byte	0x0
 2852 013e 1B       		.uleb128 0x1b
 2853 013f 2E       		.uleb128 0x2e
 2854 0140 01       		.byte	0x1
 2855 0141 03       		.uleb128 0x3
 2856 0142 0E       		.uleb128 0xe
 2857 0143 3A       		.uleb128 0x3a
 2858 0144 0B       		.uleb128 0xb
 2859 0145 3B       		.uleb128 0x3b
 2860 0146 0B       		.uleb128 0xb
 2861 0147 27       		.uleb128 0x27
 2862 0148 0C       		.uleb128 0xc
 2863 0149 11       		.uleb128 0x11
 2864 014a 01       		.uleb128 0x1
 2865 014b 12       		.uleb128 0x12
 2866 014c 01       		.uleb128 0x1
 2867 014d 40       		.uleb128 0x40
 2868 014e 06       		.uleb128 0x6
 2869 014f 01       		.uleb128 0x1
 2870 0150 13       		.uleb128 0x13
 2871 0151 00       		.byte	0x0
 2872 0152 00       		.byte	0x0
 2873 0153 1C       		.uleb128 0x1c
 2874 0154 05       		.uleb128 0x5
 2875 0155 00       		.byte	0x0
 2876 0156 03       		.uleb128 0x3
 2877 0157 0E       		.uleb128 0xe
 2878 0158 3A       		.uleb128 0x3a
 2879 0159 0B       		.uleb128 0xb
 2880 015a 3B       		.uleb128 0x3b
 2881 015b 0B       		.uleb128 0xb
 2882 015c 49       		.uleb128 0x49
 2883 015d 13       		.uleb128 0x13
 2884 015e 02       		.uleb128 0x2
 2885 015f 06       		.uleb128 0x6
 2886 0160 00       		.byte	0x0
ARM GAS  C:\Users\z80\AppData\Local\Temp\ccaGQhzI.s 			page 52


 2887 0161 00       		.byte	0x0
 2888 0162 1D       		.uleb128 0x1d
 2889 0163 0B       		.uleb128 0xb
 2890 0164 01       		.byte	0x1
 2891 0165 11       		.uleb128 0x11
 2892 0166 01       		.uleb128 0x1
 2893 0167 12       		.uleb128 0x12
 2894 0168 01       		.uleb128 0x1
 2895 0169 01       		.uleb128 0x1
 2896 016a 13       		.uleb128 0x13
 2897 016b 00       		.byte	0x0
 2898 016c 00       		.byte	0x0
 2899 016d 1E       		.uleb128 0x1e
 2900 016e 34       		.uleb128 0x34
 2901 016f 00       		.byte	0x0
 2902 0170 03       		.uleb128 0x3
 2903 0171 08       		.uleb128 0x8
 2904 0172 3A       		.uleb128 0x3a
 2905 0173 0B       		.uleb128 0xb
 2906 0174 3B       		.uleb128 0x3b
 2907 0175 0B       		.uleb128 0xb
 2908 0176 49       		.uleb128 0x49
 2909 0177 13       		.uleb128 0x13
 2910 0178 02       		.uleb128 0x2
 2911 0179 06       		.uleb128 0x6
 2912 017a 00       		.byte	0x0
 2913 017b 00       		.byte	0x0
 2914 017c 1F       		.uleb128 0x1f
 2915 017d 1D       		.uleb128 0x1d
 2916 017e 01       		.byte	0x1
 2917 017f 31       		.uleb128 0x31
 2918 0180 13       		.uleb128 0x13
 2919 0181 52       		.uleb128 0x52
 2920 0182 01       		.uleb128 0x1
 2921 0183 55       		.uleb128 0x55
 2922 0184 06       		.uleb128 0x6
 2923 0185 58       		.uleb128 0x58
 2924 0186 0B       		.uleb128 0xb
 2925 0187 59       		.uleb128 0x59
 2926 0188 0B       		.uleb128 0xb
 2927 0189 01       		.uleb128 0x1
 2928 018a 13       		.uleb128 0x13
 2929 018b 00       		.byte	0x0
 2930 018c 00       		.byte	0x0
 2931 018d 20       		.uleb128 0x20
 2932 018e 05       		.uleb128 0x5
 2933 018f 00       		.byte	0x0
 2934 0190 31       		.uleb128 0x31
 2935 0191 13       		.uleb128 0x13
 2936 0192 02       		.uleb128 0x2
 2937 0193 06       		.uleb128 0x6
 2938 0194 00       		.byte	0x0
 2939 0195 00       		.byte	0x0
 2940 0196 21       		.uleb128 0x21
 2941 0197 0B       		.uleb128 0xb
 2942 0198 01       		.byte	0x1
 2943 0199 11       		.uleb128 0x11
ARM GAS  C:\Users\z80\AppData\Local\Temp\ccaGQhzI.s 			page 53


 2944 019a 01       		.uleb128 0x1
 2945 019b 12       		.uleb128 0x12
 2946 019c 01       		.uleb128 0x1
 2947 019d 00       		.byte	0x0
 2948 019e 00       		.byte	0x0
 2949 019f 22       		.uleb128 0x22
 2950 01a0 2E       		.uleb128 0x2e
 2951 01a1 01       		.byte	0x1
 2952 01a2 03       		.uleb128 0x3
 2953 01a3 0E       		.uleb128 0xe
 2954 01a4 3A       		.uleb128 0x3a
 2955 01a5 0B       		.uleb128 0xb
 2956 01a6 3B       		.uleb128 0x3b
 2957 01a7 0B       		.uleb128 0xb
 2958 01a8 27       		.uleb128 0x27
 2959 01a9 0C       		.uleb128 0xc
 2960 01aa 49       		.uleb128 0x49
 2961 01ab 13       		.uleb128 0x13
 2962 01ac 11       		.uleb128 0x11
 2963 01ad 01       		.uleb128 0x1
 2964 01ae 12       		.uleb128 0x12
 2965 01af 01       		.uleb128 0x1
 2966 01b0 40       		.uleb128 0x40
 2967 01b1 06       		.uleb128 0x6
 2968 01b2 01       		.uleb128 0x1
 2969 01b3 13       		.uleb128 0x13
 2970 01b4 00       		.byte	0x0
 2971 01b5 00       		.byte	0x0
 2972 01b6 23       		.uleb128 0x23
 2973 01b7 05       		.uleb128 0x5
 2974 01b8 00       		.byte	0x0
 2975 01b9 03       		.uleb128 0x3
 2976 01ba 08       		.uleb128 0x8
 2977 01bb 3A       		.uleb128 0x3a
 2978 01bc 0B       		.uleb128 0xb
 2979 01bd 3B       		.uleb128 0x3b
 2980 01be 0B       		.uleb128 0xb
 2981 01bf 49       		.uleb128 0x49
 2982 01c0 13       		.uleb128 0x13
 2983 01c1 02       		.uleb128 0x2
 2984 01c2 06       		.uleb128 0x6
 2985 01c3 00       		.byte	0x0
 2986 01c4 00       		.byte	0x0
 2987 01c5 24       		.uleb128 0x24
 2988 01c6 34       		.uleb128 0x34
 2989 01c7 00       		.byte	0x0
 2990 01c8 03       		.uleb128 0x3
 2991 01c9 0E       		.uleb128 0xe
 2992 01ca 3A       		.uleb128 0x3a
 2993 01cb 0B       		.uleb128 0xb
 2994 01cc 3B       		.uleb128 0x3b
 2995 01cd 0B       		.uleb128 0xb
 2996 01ce 49       		.uleb128 0x49
 2997 01cf 13       		.uleb128 0x13
 2998 01d0 02       		.uleb128 0x2
 2999 01d1 06       		.uleb128 0x6
 3000 01d2 00       		.byte	0x0
ARM GAS  C:\Users\z80\AppData\Local\Temp\ccaGQhzI.s 			page 54


 3001 01d3 00       		.byte	0x0
 3002 01d4 25       		.uleb128 0x25
 3003 01d5 2E       		.uleb128 0x2e
 3004 01d6 01       		.byte	0x1
 3005 01d7 3F       		.uleb128 0x3f
 3006 01d8 0C       		.uleb128 0xc
 3007 01d9 03       		.uleb128 0x3
 3008 01da 0E       		.uleb128 0xe
 3009 01db 3A       		.uleb128 0x3a
 3010 01dc 0B       		.uleb128 0xb
 3011 01dd 3B       		.uleb128 0x3b
 3012 01de 0B       		.uleb128 0xb
 3013 01df 27       		.uleb128 0x27
 3014 01e0 0C       		.uleb128 0xc
 3015 01e1 11       		.uleb128 0x11
 3016 01e2 01       		.uleb128 0x1
 3017 01e3 12       		.uleb128 0x12
 3018 01e4 01       		.uleb128 0x1
 3019 01e5 40       		.uleb128 0x40
 3020 01e6 06       		.uleb128 0x6
 3021 01e7 01       		.uleb128 0x1
 3022 01e8 13       		.uleb128 0x13
 3023 01e9 00       		.byte	0x0
 3024 01ea 00       		.byte	0x0
 3025 01eb 26       		.uleb128 0x26
 3026 01ec 1D       		.uleb128 0x1d
 3027 01ed 01       		.byte	0x1
 3028 01ee 31       		.uleb128 0x31
 3029 01ef 13       		.uleb128 0x13
 3030 01f0 52       		.uleb128 0x52
 3031 01f1 01       		.uleb128 0x1
 3032 01f2 55       		.uleb128 0x55
 3033 01f3 06       		.uleb128 0x6
 3034 01f4 58       		.uleb128 0x58
 3035 01f5 0B       		.uleb128 0xb
 3036 01f6 59       		.uleb128 0x59
 3037 01f7 0B       		.uleb128 0xb
 3038 01f8 00       		.byte	0x0
 3039 01f9 00       		.byte	0x0
 3040 01fa 27       		.uleb128 0x27
 3041 01fb 2E       		.uleb128 0x2e
 3042 01fc 00       		.byte	0x0
 3043 01fd 3F       		.uleb128 0x3f
 3044 01fe 0C       		.uleb128 0xc
 3045 01ff 03       		.uleb128 0x3
 3046 0200 0E       		.uleb128 0xe
 3047 0201 3A       		.uleb128 0x3a
 3048 0202 0B       		.uleb128 0xb
 3049 0203 3B       		.uleb128 0x3b
 3050 0204 0B       		.uleb128 0xb
 3051 0205 27       		.uleb128 0x27
 3052 0206 0C       		.uleb128 0xc
 3053 0207 49       		.uleb128 0x49
 3054 0208 13       		.uleb128 0x13
 3055 0209 11       		.uleb128 0x11
 3056 020a 01       		.uleb128 0x1
 3057 020b 12       		.uleb128 0x12
ARM GAS  C:\Users\z80\AppData\Local\Temp\ccaGQhzI.s 			page 55


 3058 020c 01       		.uleb128 0x1
 3059 020d 40       		.uleb128 0x40
 3060 020e 0A       		.uleb128 0xa
 3061 020f 00       		.byte	0x0
 3062 0210 00       		.byte	0x0
 3063 0211 28       		.uleb128 0x28
 3064 0212 34       		.uleb128 0x34
 3065 0213 00       		.byte	0x0
 3066 0214 03       		.uleb128 0x3
 3067 0215 0E       		.uleb128 0xe
 3068 0216 3A       		.uleb128 0x3a
 3069 0217 0B       		.uleb128 0xb
 3070 0218 3B       		.uleb128 0x3b
 3071 0219 0B       		.uleb128 0xb
 3072 021a 49       		.uleb128 0x49
 3073 021b 13       		.uleb128 0x13
 3074 021c 3F       		.uleb128 0x3f
 3075 021d 0C       		.uleb128 0xc
 3076 021e 3C       		.uleb128 0x3c
 3077 021f 0C       		.uleb128 0xc
 3078 0220 00       		.byte	0x0
 3079 0221 00       		.byte	0x0
 3080 0222 29       		.uleb128 0x29
 3081 0223 34       		.uleb128 0x34
 3082 0224 00       		.byte	0x0
 3083 0225 03       		.uleb128 0x3
 3084 0226 0E       		.uleb128 0xe
 3085 0227 3A       		.uleb128 0x3a
 3086 0228 0B       		.uleb128 0xb
 3087 0229 3B       		.uleb128 0x3b
 3088 022a 05       		.uleb128 0x5
 3089 022b 49       		.uleb128 0x49
 3090 022c 13       		.uleb128 0x13
 3091 022d 3F       		.uleb128 0x3f
 3092 022e 0C       		.uleb128 0xc
 3093 022f 3C       		.uleb128 0x3c
 3094 0230 0C       		.uleb128 0xc
 3095 0231 00       		.byte	0x0
 3096 0232 00       		.byte	0x0
 3097 0233 2A       		.uleb128 0x2a
 3098 0234 01       		.uleb128 0x1
 3099 0235 01       		.byte	0x1
 3100 0236 49       		.uleb128 0x49
 3101 0237 13       		.uleb128 0x13
 3102 0238 01       		.uleb128 0x1
 3103 0239 13       		.uleb128 0x13
 3104 023a 00       		.byte	0x0
 3105 023b 00       		.byte	0x0
 3106 023c 2B       		.uleb128 0x2b
 3107 023d 21       		.uleb128 0x21
 3108 023e 00       		.byte	0x0
 3109 023f 49       		.uleb128 0x49
 3110 0240 13       		.uleb128 0x13
 3111 0241 2F       		.uleb128 0x2f
 3112 0242 0B       		.uleb128 0xb
 3113 0243 00       		.byte	0x0
 3114 0244 00       		.byte	0x0
ARM GAS  C:\Users\z80\AppData\Local\Temp\ccaGQhzI.s 			page 56


 3115 0245 2C       		.uleb128 0x2c
 3116 0246 34       		.uleb128 0x34
 3117 0247 00       		.byte	0x0
 3118 0248 03       		.uleb128 0x3
 3119 0249 0E       		.uleb128 0xe
 3120 024a 3A       		.uleb128 0x3a
 3121 024b 0B       		.uleb128 0xb
 3122 024c 3B       		.uleb128 0x3b
 3123 024d 0B       		.uleb128 0xb
 3124 024e 49       		.uleb128 0x49
 3125 024f 13       		.uleb128 0x13
 3126 0250 02       		.uleb128 0x2
 3127 0251 0A       		.uleb128 0xa
 3128 0252 00       		.byte	0x0
 3129 0253 00       		.byte	0x0
 3130 0254 2D       		.uleb128 0x2d
 3131 0255 21       		.uleb128 0x21
 3132 0256 00       		.byte	0x0
 3133 0257 49       		.uleb128 0x49
 3134 0258 13       		.uleb128 0x13
 3135 0259 2F       		.uleb128 0x2f
 3136 025a 05       		.uleb128 0x5
 3137 025b 00       		.byte	0x0
 3138 025c 00       		.byte	0x0
 3139 025d 2E       		.uleb128 0x2e
 3140 025e 34       		.uleb128 0x34
 3141 025f 00       		.byte	0x0
 3142 0260 03       		.uleb128 0x3
 3143 0261 0E       		.uleb128 0xe
 3144 0262 3A       		.uleb128 0x3a
 3145 0263 0B       		.uleb128 0xb
 3146 0264 3B       		.uleb128 0x3b
 3147 0265 0B       		.uleb128 0xb
 3148 0266 49       		.uleb128 0x49
 3149 0267 13       		.uleb128 0x13
 3150 0268 3F       		.uleb128 0x3f
 3151 0269 0C       		.uleb128 0xc
 3152 026a 02       		.uleb128 0x2
 3153 026b 0A       		.uleb128 0xa
 3154 026c 00       		.byte	0x0
 3155 026d 00       		.byte	0x0
 3156 026e 00       		.byte	0x0
 3157              		.section	.debug_pubnames,"",%progbits
 3158 0000 79000000 		.4byte	0x79
 3159 0004 0200     		.2byte	0x2
 3160 0006 00000000 		.4byte	.Ldebug_info0
 3161 000a 4A0C0000 		.4byte	0xc4a
 3162 000e 0F0A0000 		.4byte	0xa0f
 3163 0012 696E6974 		.ascii	"initAdc\000"
 3163      41646300 
 3164 001a 420A0000 		.4byte	0xa42
 3165 001e 71756572 		.ascii	"queryAdcI\000"
 3165      79416463 
 3165      4900
 3166 0028 920A0000 		.4byte	0xa92
 3167 002c 61646351 		.ascii	"adcQueue\000"
 3167      75657565 
ARM GAS  C:\Users\z80\AppData\Local\Temp\ccaGQhzI.s 			page 57


 3167      00
 3168 0035 B00A0000 		.4byte	0xab0
 3169 0039 696E7374 		.ascii	"instantAdc\000"
 3169      616E7441 
 3169      646300
 3170 0044 130C0000 		.4byte	0xc13
 3171 0048 6164635F 		.ascii	"adc_queue\000"
 3171      71756575 
 3171      6500
 3172 0052 250C0000 		.4byte	0xc25
 3173 0056 6164635F 		.ascii	"adc_queue_buffer\000"
 3173      71756575 
 3173      655F6275 
 3173      66666572 
 3173      00
 3174 0067 370C0000 		.4byte	0xc37
 3175 006b 6164635F 		.ascii	"adc_rx_buffer\000"
 3175      72785F62 
 3175      75666665 
 3175      7200
 3176 0079 00000000 		.4byte	0x0
 3177              		.section	.debug_pubtypes,"",%progbits
 3178 0000 35020000 		.4byte	0x235
 3179 0004 0200     		.2byte	0x2
 3180 0006 00000000 		.4byte	.Ldebug_info0
 3181 000a 4A0C0000 		.4byte	0xc4a
 3182 000e 30000000 		.4byte	0x30
 3183 0012 73697A65 		.ascii	"size_t\000"
 3183      5F7400
 3184 0019 49000000 		.4byte	0x49
 3185 001d 75696E74 		.ascii	"uint8_t\000"
 3185      385F7400 
 3186 0025 62000000 		.4byte	0x62
 3187 0029 75696E74 		.ascii	"uint16_t\000"
 3187      31365F74 
 3187      00
 3188 0032 74000000 		.4byte	0x74
 3189 0036 696E7433 		.ascii	"int32_t\000"
 3189      325F7400 
 3190 003e 86000000 		.4byte	0x86
 3191 0042 75696E74 		.ascii	"uint32_t\000"
 3191      33325F74 
 3191      00
 3192 004b 9F000000 		.4byte	0x9f
 3193 004f 75696E74 		.ascii	"uint64_t\000"
 3193      36345F74 
 3193      00
 3194 0058 B1000000 		.4byte	0xb1
 3195 005c 746D6F64 		.ascii	"tmode_t\000"
 3195      655F7400 
 3196 0064 BC000000 		.4byte	0xbc
 3197 0068 74737461 		.ascii	"tstate_t\000"
 3197      74655F74 
 3197      00
 3198 0071 C7000000 		.4byte	0xc7
 3199 0075 74707269 		.ascii	"tprio_t\000"
 3199      6F5F7400 
ARM GAS  C:\Users\z80\AppData\Local\Temp\ccaGQhzI.s 			page 58


 3200 007d D2000000 		.4byte	0xd2
 3201 0081 6D73675F 		.ascii	"msg_t\000"
 3201      7400
 3202 0087 DD000000 		.4byte	0xdd
 3203 008b 6576656E 		.ascii	"eventmask_t\000"
 3203      746D6173 
 3203      6B5F7400 
 3204 0097 E8000000 		.4byte	0xe8
 3205 009b 73797374 		.ascii	"systime_t\000"
 3205      696D655F 
 3205      7400
 3206 00a5 F3000000 		.4byte	0xf3
 3207 00a9 636E745F 		.ascii	"cnt_t\000"
 3207      7400
 3208 00af FE000000 		.4byte	0xfe
 3209 00b3 54687265 		.ascii	"Thread\000"
 3209      616400
 3210 00ba 3D020000 		.4byte	0x23d
 3211 00be 54687265 		.ascii	"ThreadsQueue\000"
 3211      61647351 
 3211      75657565 
 3211      00
 3212 00cb 5F020000 		.4byte	0x25f
 3213 00cf 54687265 		.ascii	"ThreadsList\000"
 3213      6164734C 
 3213      69737400 
 3214 00db 6A020000 		.4byte	0x26a
 3215 00df 72656761 		.ascii	"regarm_t\000"
 3215      726D5F74 
 3215      00
 3216 00e8 77020000 		.4byte	0x277
 3217 00ec 73746B61 		.ascii	"stkalign_t\000"
 3217      6C69676E 
 3217      5F7400
 3218 00f7 82020000 		.4byte	0x282
 3219 00fb 696E7463 		.ascii	"intctx\000"
 3219      747800
 3220 0102 0F030000 		.4byte	0x30f
 3221 0106 636F6E74 		.ascii	"context\000"
 3221      65787400 
 3222 010e AA030000 		.4byte	0x3aa
 3223 0112 52656164 		.ascii	"ReadyList\000"
 3223      794C6973 
 3223      7400
 3224 011c B5030000 		.4byte	0x3b5
 3225 0120 4D757465 		.ascii	"Mutex\000"
 3225      7800
 3226 0126 F2030000 		.4byte	0x3f2
 3227 012a 4D757465 		.ascii	"Mutex\000"
 3227      7800
 3228 0130 09010000 		.4byte	0x109
 3229 0134 54687265 		.ascii	"Thread\000"
 3229      616400
 3230 013b 50040000 		.4byte	0x450
 3231 013f 47656E65 		.ascii	"GenericQueue\000"
 3231      72696351 
 3231      75657565 
ARM GAS  C:\Users\z80\AppData\Local\Temp\ccaGQhzI.s 			page 59


 3231      00
 3232 014c CA040000 		.4byte	0x4ca
 3233 0150 716E6F74 		.ascii	"qnotify_t\000"
 3233      6966795F 
 3233      7400
 3234 015a 5B040000 		.4byte	0x45b
 3235 015e 47656E65 		.ascii	"GenericQueue\000"
 3235      72696351 
 3235      75657565 
 3235      00
 3236 016b F3040000 		.4byte	0x4f3
 3237 016f 496E7075 		.ascii	"InputQueue\000"
 3237      74517565 
 3237      756500
 3238 017a 4E050000 		.4byte	0x54e
 3239 017e 444D415F 		.ascii	"DMA_Channel_TypeDef\000"
 3239      4368616E 
 3239      6E656C5F 
 3239      54797065 
 3239      44656600 
 3240 0192 CD050000 		.4byte	0x5cd
 3241 0196 4750494F 		.ascii	"GPIO_TypeDef\000"
 3241      5F547970 
 3241      65446566 
 3241      00
 3242 01a3 EF060000 		.4byte	0x6ef
 3243 01a7 5350495F 		.ascii	"SPI_TypeDef\000"
 3243      54797065 
 3243      44656600 
 3244 01b3 56070000 		.4byte	0x756
 3245 01b7 73746D33 		.ascii	"stm32_dma_stream_t\000"
 3245      325F646D 
 3245      615F7374 
 3245      7265616D 
 3245      5F7400
 3246 01ca 61070000 		.4byte	0x761
 3247 01ce 696F706F 		.ascii	"ioportmask_t\000"
 3247      72746D61 
 3247      736B5F74 
 3247      00
 3248 01db 6C070000 		.4byte	0x76c
 3249 01df 696F706F 		.ascii	"ioportid_t\000"
 3249      72746964 
 3249      5F7400
 3250 01ea AF070000 		.4byte	0x7af
 3251 01ee 73706973 		.ascii	"spistate_t\000"
 3251      74617465 
 3251      5F7400
 3252 01f9 BA070000 		.4byte	0x7ba
 3253 01fd 53504944 		.ascii	"SPIDriver\000"
 3253      72697665 
 3253      7200
 3254 0207 5B080000 		.4byte	0x85b
 3255 020b 73706963 		.ascii	"spicallback_t\000"
 3255      616C6C62 
 3255      61636B5F 
 3255      7400
ARM GAS  C:\Users\z80\AppData\Local\Temp\ccaGQhzI.s 			page 60


 3256 0219 C5080000 		.4byte	0x8c5
 3257 021d 53504943 		.ascii	"SPIConfig\000"
 3257      6F6E6669 
 3257      6700
 3258 0227 C6070000 		.4byte	0x7c6
 3259 022b 53504944 		.ascii	"SPIDriver\000"
 3259      72697665 
 3259      7200
 3260 0235 00000000 		.4byte	0x0
 3261              		.section	.debug_aranges,"",%progbits
 3262 0000 44000000 		.4byte	0x44
 3263 0004 0200     		.2byte	0x2
 3264 0006 00000000 		.4byte	.Ldebug_info0
 3265 000a 04       		.byte	0x4
 3266 000b 00       		.byte	0x0
 3267 000c 0000     		.2byte	0x0
 3268 000e 0000     		.2byte	0x0
 3269 0010 00000000 		.4byte	.LFB64
 3270 0014 B8000000 		.4byte	.LFE64-.LFB64
 3271 0018 00000000 		.4byte	.LFB67
 3272 001c 6C000000 		.4byte	.LFE67-.LFB67
 3273 0020 00000000 		.4byte	.LFB62
 3274 0024 CC000000 		.4byte	.LFE62-.LFB62
 3275 0028 00000000 		.4byte	.LFB63
 3276 002c 3A000000 		.4byte	.LFE63-.LFB63
 3277 0030 00000000 		.4byte	.LFB65
 3278 0034 0A000000 		.4byte	.LFE65-.LFB65
 3279 0038 00000000 		.4byte	.LFB68
 3280 003c 34000000 		.4byte	.LFE68-.LFB68
 3281 0040 00000000 		.4byte	0x0
 3282 0044 00000000 		.4byte	0x0
 3283              		.section	.debug_ranges,"",%progbits
 3284              	.Ldebug_ranges0:
 3285 0000 1E000000 		.4byte	.LBB9
 3286 0004 22000000 		.4byte	.LBE9
 3287 0008 88000000 		.4byte	.LBB15
 3288 000c B8000000 		.4byte	.LBE15
 3289 0010 24000000 		.4byte	.LBB13
 3290 0014 44000000 		.4byte	.LBE13
 3291 0018 00000000 		.4byte	0x0
 3292 001c 00000000 		.4byte	0x0
 3293 0020 5C000000 		.4byte	.LBB19
 3294 0024 78000000 		.4byte	.LBE19
 3295 0028 96000000 		.4byte	.LBB22
 3296 002c CC000000 		.4byte	.LBE22
 3297 0030 00000000 		.4byte	0x0
 3298 0034 00000000 		.4byte	0x0
 3299 0038 00000000 		.4byte	.LFB64
 3300 003c B8000000 		.4byte	.LFE64
 3301 0040 00000000 		.4byte	.LFB67
 3302 0044 6C000000 		.4byte	.LFE67
 3303 0048 00000000 		.4byte	.LFB62
 3304 004c CC000000 		.4byte	.LFE62
 3305 0050 00000000 		.4byte	.LFB63
 3306 0054 3A000000 		.4byte	.LFE63
 3307 0058 00000000 		.4byte	.LFB65
 3308 005c 0A000000 		.4byte	.LFE65
ARM GAS  C:\Users\z80\AppData\Local\Temp\ccaGQhzI.s 			page 61


 3309 0060 00000000 		.4byte	.LFB68
 3310 0064 34000000 		.4byte	.LFE68
 3311 0068 00000000 		.4byte	0x0
 3312 006c 00000000 		.4byte	0x0
 3313              		.section	.debug_str,"MS",%progbits,1
 3314              	.LASF114:
 3315 0000 646D6172 		.ascii	"dmarx\000"
 3315      7800
 3316              	.LASF2:
 3317 0006 73697A65 		.ascii	"size_t\000"
 3317      5F7400
 3318              	.LASF58:
 3319 000d 7264796D 		.ascii	"rdymsg\000"
 3319      736700
 3320              	.LASF138:
 3321 0014 68735F73 		.ascii	"hs_spicfg\000"
 3321      70696366 
 3321      6700
 3322              	.LASF134:
 3323 001e 6164635F 		.ascii	"adc_queue_buffer\000"
 3323      71756575 
 3323      655F6275 
 3323      66666572 
 3323      00
 3324              	.LASF106:
 3325 002f 5350495F 		.ascii	"SPI_ACTIVE\000"
 3325      41435449 
 3325      564500
 3326              	.LASF101:
 3327 003a 696F706F 		.ascii	"ioportmask_t\000"
 3327      72746D61 
 3327      736B5F74 
 3327      00
 3328              	.LASF121:
 3329 0047 73737061 		.ascii	"sspad\000"
 3329      6400
 3330              	.LASF14:
 3331 004d 6C6F6E67 		.ascii	"long long unsigned int\000"
 3331      206C6F6E 
 3331      6720756E 
 3331      7369676E 
 3331      65642069 
 3332              	.LASF84:
 3333 0064 43524350 		.ascii	"CRCPR\000"
 3333      5200
 3334              	.LASF59:
 3335 006a 65786974 		.ascii	"exitcode\000"
 3335      636F6465 
 3335      00
 3336              	.LASF99:
 3337 0073 76656374 		.ascii	"vector\000"
 3337      6F7200
 3338              	.LASF109:
 3339 007a 53504944 		.ascii	"SPIDriver\000"
 3339      72697665 
 3339      7200
 3340              	.LASF120:
ARM GAS  C:\Users\z80\AppData\Local\Temp\ccaGQhzI.s 			page 62


 3341 0084 7373706F 		.ascii	"ssport\000"
 3341      727400
 3342              	.LASF131:
 3343 008b 49544D5F 		.ascii	"ITM_RxBuffer\000"
 3343      52784275 
 3343      66666572 
 3343      00
 3344              	.LASF25:
 3345 0098 705F7072 		.ascii	"p_prio\000"
 3345      696F00
 3346              	.LASF146:
 3347 009f 61646351 		.ascii	"adcQueue\000"
 3347      75657565 
 3347      00
 3348              	.LASF64:
 3349 00a8 715F7761 		.ascii	"q_waiting\000"
 3349      6974696E 
 3349      6700
 3350              	.LASF12:
 3351 00b2 6C6F6E67 		.ascii	"long long int\000"
 3351      206C6F6E 
 3351      6720696E 
 3351      7400
 3352              	.LASF1:
 3353 00c0 7369676E 		.ascii	"signed char\000"
 3353      65642063 
 3353      68617200 
 3354              	.LASF141:
 3355 00cc 2E2F7372 		.ascii	"./src/adc_ctrl.c\000"
 3355      632F6164 
 3355      635F6374 
 3355      726C2E63 
 3355      00
 3356              	.LASF104:
 3357 00dd 5350495F 		.ascii	"SPI_STOP\000"
 3357      53544F50 
 3357      00
 3358              	.LASF90:
 3359 00e6 49325343 		.ascii	"I2SCFGR\000"
 3359      46475200 
 3360              	.LASF55:
 3361 00ee 6D5F7175 		.ascii	"m_queue\000"
 3361      65756500 
 3362              	.LASF128:
 3363 00f6 696E7374 		.ascii	"instantAdc\000"
 3363      616E7441 
 3363      646300
 3364              	.LASF142:
 3365 0101 433A5C70 		.ascii	"C:\\projects\\digitizer.git\\firmware\\digitizer\000"
 3365      726F6A65 
 3365      6374735C 
 3365      64696769 
 3365      74697A65 
 3366              	.LASF136:
 3367 012e 61646349 		.ascii	"adcIndex\000"
 3367      6E646578 
 3367      00
ARM GAS  C:\Users\z80\AppData\Local\Temp\ccaGQhzI.s 			page 63


 3368              	.LASF110:
 3369 0137 73746174 		.ascii	"state\000"
 3369      6500
 3370              	.LASF9:
 3371 013d 6C6F6E67 		.ascii	"long int\000"
 3371      20696E74 
 3371      00
 3372              	.LASF16:
 3373 0146 74737461 		.ascii	"tstate_t\000"
 3373      74655F74 
 3373      00
 3374              	.LASF112:
 3375 014f 74687265 		.ascii	"thread\000"
 3375      616400
 3376              	.LASF139:
 3377 0156 696E7374 		.ascii	"instantAdcdata\000"
 3377      616E7441 
 3377      64636461 
 3377      746100
 3378              	.LASF66:
 3379 0165 715F6275 		.ascii	"q_buffer\000"
 3379      66666572 
 3379      00
 3380              	.LASF68:
 3381 016e 715F7772 		.ascii	"q_wrptr\000"
 3381      70747200 
 3382              	.LASF33:
 3383 0176 705F7469 		.ascii	"p_time\000"
 3383      6D6500
 3384              	.LASF27:
 3385 017d 705F6E65 		.ascii	"p_newer\000"
 3385      77657200 
 3386              	.LASF129:
 3387 0185 76616C73 		.ascii	"vals\000"
 3387      00
 3388              	.LASF119:
 3389 018a 656E645F 		.ascii	"end_cb\000"
 3389      636200
 3390              	.LASF116:
 3391 0191 7278646D 		.ascii	"rxdmamode\000"
 3391      616D6F64 
 3391      6500
 3392              	.LASF115:
 3393 019b 646D6174 		.ascii	"dmatx\000"
 3393      7800
 3394              	.LASF49:
 3395 01a1 725F6E65 		.ascii	"r_newer\000"
 3395      77657200 
 3396              	.LASF42:
 3397 01a9 72656761 		.ascii	"regarm_t\000"
 3397      726D5F74 
 3397      00
 3398              	.LASF98:
 3399 01b2 73656C66 		.ascii	"selfindex\000"
 3399      696E6465 
 3399      7800
 3400              	.LASF118:
ARM GAS  C:\Users\z80\AppData\Local\Temp\ccaGQhzI.s 			page 64


 3401 01bc 73706963 		.ascii	"spicallback_t\000"
 3401      616C6C62 
 3401      61636B5F 
 3401      7400
 3402              	.LASF125:
 3403 01ca 76616C75 		.ascii	"value\000"
 3403      6500
 3404              	.LASF127:
 3405 01d0 71756572 		.ascii	"queryAdcI\000"
 3405      79416463 
 3405      4900
 3406              	.LASF21:
 3407 01da 636E745F 		.ascii	"cnt_t\000"
 3407      7400
 3408              	.LASF144:
 3409 01e0 6F6E5370 		.ascii	"onSpiComplete\000"
 3409      69436F6D 
 3409      706C6574 
 3409      6500
 3410              	.LASF30:
 3411 01ee 705F7374 		.ascii	"p_stklimit\000"
 3411      6B6C696D 
 3411      697400
 3412              	.LASF0:
 3413 01f9 756E7369 		.ascii	"unsigned int\000"
 3413      676E6564 
 3413      20696E74 
 3413      00
 3414              	.LASF6:
 3415 0206 75696E74 		.ascii	"uint16_t\000"
 3415      31365F74 
 3415      00
 3416              	.LASF74:
 3417 020f 43504152 		.ascii	"CPAR\000"
 3417      00
 3418              	.LASF35:
 3419 0214 705F6D73 		.ascii	"p_msgqueue\000"
 3419      67717565 
 3419      756500
 3420              	.LASF79:
 3421 021f 4750494F 		.ascii	"GPIO_TypeDef\000"
 3421      5F547970 
 3421      65446566 
 3421      00
 3422              	.LASF78:
 3423 022c 4C434B52 		.ascii	"LCKR\000"
 3423      00
 3424              	.LASF97:
 3425 0231 69736869 		.ascii	"ishift\000"
 3425      667400
 3426              	.LASF7:
 3427 0238 73686F72 		.ascii	"short unsigned int\000"
 3427      7420756E 
 3427      7369676E 
 3427      65642069 
 3427      6E7400
 3428              	.LASF18:
ARM GAS  C:\Users\z80\AppData\Local\Temp\ccaGQhzI.s 			page 65


 3429 024b 6D73675F 		.ascii	"msg_t\000"
 3429      7400
 3430              	.LASF15:
 3431 0251 746D6F64 		.ascii	"tmode_t\000"
 3431      655F7400 
 3432              	.LASF41:
 3433 0259 54687265 		.ascii	"ThreadsList\000"
 3433      6164734C 
 3433      69737400 
 3434              	.LASF19:
 3435 0265 6576656E 		.ascii	"eventmask_t\000"
 3435      746D6173 
 3435      6B5F7400 
 3436              	.LASF72:
 3437 0271 496E7075 		.ascii	"InputQueue\000"
 3437      74517565 
 3437      756500
 3438              	.LASF71:
 3439 027c 716E6F74 		.ascii	"qnotify_t\000"
 3439      6966795F 
 3439      7400
 3440              	.LASF63:
 3441 0286 47656E65 		.ascii	"GenericQueue\000"
 3441      72696351 
 3441      75657565 
 3441      00
 3442              	.LASF43:
 3443 0293 73746B61 		.ascii	"stkalign_t\000"
 3443      6C69676E 
 3443      5F7400
 3444              	.LASF137:
 3445 029e 77614164 		.ascii	"waAdc\000"
 3445      6300
 3446              	.LASF22:
 3447 02a4 54687265 		.ascii	"Thread\000"
 3447      616400
 3448              	.LASF126:
 3449 02ab 696E6974 		.ascii	"initAdc\000"
 3449      41646300 
 3450              	.LASF92:
 3451 02b3 49325350 		.ascii	"I2SPR\000"
 3451      5200
 3452              	.LASF65:
 3453 02b9 715F636F 		.ascii	"q_counter\000"
 3453      756E7465 
 3453      7200
 3454              	.LASF54:
 3455 02c3 4D757465 		.ascii	"Mutex\000"
 3455      7800
 3456              	.LASF13:
 3457 02c9 75696E74 		.ascii	"uint64_t\000"
 3457      36345F74 
 3457      00
 3458              	.LASF28:
 3459 02d2 705F6F6C 		.ascii	"p_older\000"
 3459      64657200 
 3460              	.LASF48:
ARM GAS  C:\Users\z80\AppData\Local\Temp\ccaGQhzI.s 			page 66


 3461 02da 725F6374 		.ascii	"r_ctx\000"
 3461      7800
 3462              	.LASF40:
 3463 02e0 54687265 		.ascii	"ThreadsQueue\000"
 3463      61647351 
 3463      75657565 
 3463      00
 3464              	.LASF117:
 3465 02ed 7478646D 		.ascii	"txdmamode\000"
 3465      616D6F64 
 3465      6500
 3466              	.LASF143:
 3467 02f7 73656C65 		.ascii	"selectAdcIndex\000"
 3467      63744164 
 3467      63496E64 
 3467      657800
 3468              	.LASF52:
 3469 0306 725F6375 		.ascii	"r_current\000"
 3469      7272656E 
 3469      7400
 3470              	.LASF50:
 3471 0310 725F6F6C 		.ascii	"r_older\000"
 3471      64657200 
 3472              	.LASF145:
 3473 0318 61646354 		.ascii	"adcThread\000"
 3473      68726561 
 3473      6400
 3474              	.LASF76:
 3475 0322 444D415F 		.ascii	"DMA_Channel_TypeDef\000"
 3475      4368616E 
 3475      6E656C5F 
 3475      54797065 
 3475      44656600 
 3476              	.LASF88:
 3477 0336 54584352 		.ascii	"TXCRCR\000"
 3477      435200
 3478              	.LASF80:
 3479 033d 52455345 		.ascii	"RESERVED0\000"
 3479      52564544 
 3479      3000
 3480              	.LASF81:
 3481 0347 52455345 		.ascii	"RESERVED1\000"
 3481      52564544 
 3481      3100
 3482              	.LASF82:
 3483 0351 52455345 		.ascii	"RESERVED2\000"
 3483      52564544 
 3483      3200
 3484              	.LASF83:
 3485 035b 52455345 		.ascii	"RESERVED3\000"
 3485      52564544 
 3485      3300
 3486              	.LASF85:
 3487 0365 52455345 		.ascii	"RESERVED4\000"
 3487      52564544 
 3487      3400
 3488              	.LASF24:
ARM GAS  C:\Users\z80\AppData\Local\Temp\ccaGQhzI.s 			page 67


 3489 036f 705F7072 		.ascii	"p_prev\000"
 3489      657600
 3490              	.LASF89:
 3491 0376 52455345 		.ascii	"RESERVED6\000"
 3491      52564544 
 3491      3600
 3492              	.LASF91:
 3493 0380 52455345 		.ascii	"RESERVED7\000"
 3493      52564544 
 3493      3700
 3494              	.LASF93:
 3495 038a 52455345 		.ascii	"RESERVED8\000"
 3495      52564544 
 3495      3800
 3496              	.LASF17:
 3497 0394 74707269 		.ascii	"tprio_t\000"
 3497      6F5F7400 
 3498              	.LASF69:
 3499 039c 715F7264 		.ascii	"q_rdptr\000"
 3499      70747200 
 3500              	.LASF113:
 3501 03a4 6D757465 		.ascii	"mutex\000"
 3501      7800
 3502              	.LASF8:
 3503 03aa 696E7433 		.ascii	"int32_t\000"
 3503      325F7400 
 3504              	.LASF4:
 3505 03b2 756E7369 		.ascii	"unsigned char\000"
 3505      676E6564 
 3505      20636861 
 3505      7200
 3506              	.LASF100:
 3507 03c0 73746D33 		.ascii	"stm32_dma_stream_t\000"
 3507      325F646D 
 3507      615F7374 
 3507      7265616D 
 3507      5F7400
 3508              	.LASF132:
 3509 03d3 53504944 		.ascii	"SPID1\000"
 3509      3100
 3510              	.LASF133:
 3511 03d9 6164635F 		.ascii	"adc_queue\000"
 3511      71756575 
 3511      6500
 3512              	.LASF38:
 3513 03e3 705F6D74 		.ascii	"p_mtxlist\000"
 3513      786C6973 
 3513      7400
 3514              	.LASF5:
 3515 03ed 73686F72 		.ascii	"short int\000"
 3515      7420696E 
 3515      7400
 3516              	.LASF31:
 3517 03f7 705F7374 		.ascii	"p_state\000"
 3517      61746500 
 3518              	.LASF47:
 3519 03ff 725F7072 		.ascii	"r_prio\000"
ARM GAS  C:\Users\z80\AppData\Local\Temp\ccaGQhzI.s 			page 68


 3519      696F00
 3520              	.LASF61:
 3521 0406 65776D61 		.ascii	"ewmask\000"
 3521      736B00
 3522              	.LASF23:
 3523 040d 705F6E65 		.ascii	"p_next\000"
 3523      787400
 3524              	.LASF32:
 3525 0414 705F666C 		.ascii	"p_flags\000"
 3525      61677300 
 3526              	.LASF135:
 3527 041c 6164635F 		.ascii	"adc_rx_buffer\000"
 3527      72785F62 
 3527      75666665 
 3527      7200
 3528              	.LASF95:
 3529 042a 6368616E 		.ascii	"channel\000"
 3529      6E656C00 
 3530              	.LASF37:
 3531 0432 705F6570 		.ascii	"p_epending\000"
 3531      656E6469 
 3531      6E6700
 3532              	.LASF96:
 3533 043d 69666372 		.ascii	"ifcr\000"
 3533      00
 3534              	.LASF87:
 3535 0442 52455345 		.ascii	"RESERVED5\000"
 3535      52564544 
 3535      3500
 3536              	.LASF10:
 3537 044c 75696E74 		.ascii	"uint32_t\000"
 3537      33325F74 
 3537      00
 3538              	.LASF46:
 3539 0455 725F7175 		.ascii	"r_queue\000"
 3539      65756500 
 3540              	.LASF86:
 3541 045d 52584352 		.ascii	"RXCRCR\000"
 3541      435200
 3542              	.LASF11:
 3543 0464 6C6F6E67 		.ascii	"long unsigned int\000"
 3543      20756E73 
 3543      69676E65 
 3543      6420696E 
 3543      7400
 3544              	.LASF94:
 3545 0476 5350495F 		.ascii	"SPI_TypeDef\000"
 3545      54797065 
 3545      44656600 
 3546              	.LASF62:
 3547 0482 63686172 		.ascii	"char\000"
 3547      00
 3548              	.LASF107:
 3549 0487 5350495F 		.ascii	"SPI_COMPLETE\000"
 3549      434F4D50 
 3549      4C455445 
 3549      00
ARM GAS  C:\Users\z80\AppData\Local\Temp\ccaGQhzI.s 			page 69


 3550              	.LASF111:
 3551 0494 636F6E66 		.ascii	"config\000"
 3551      696700
 3552              	.LASF124:
 3553 049b 696E6465 		.ascii	"index\000"
 3553      7800
 3554              	.LASF108:
 3555 04a1 73706973 		.ascii	"spistate_t\000"
 3555      74617465 
 3555      5F7400
 3556              	.LASF57:
 3557 04ac 6D5F6E65 		.ascii	"m_next\000"
 3557      787400
 3558              	.LASF20:
 3559 04b3 73797374 		.ascii	"systime_t\000"
 3559      696D655F 
 3559      7400
 3560              	.LASF39:
 3561 04bd 705F7265 		.ascii	"p_realprio\000"
 3561      616C7072 
 3561      696F00
 3562              	.LASF102:
 3563 04c8 696F706F 		.ascii	"ioportid_t\000"
 3563      72746964 
 3563      5F7400
 3564              	.LASF45:
 3565 04d3 636F6E74 		.ascii	"context\000"
 3565      65787400 
 3566              	.LASF44:
 3567 04db 696E7463 		.ascii	"intctx\000"
 3567      747800
 3568              	.LASF105:
 3569 04e2 5350495F 		.ascii	"SPI_READY\000"
 3569      52454144 
 3569      5900
 3570              	.LASF103:
 3571 04ec 5350495F 		.ascii	"SPI_UNINIT\000"
 3571      554E494E 
 3571      495400
 3572              	.LASF67:
 3573 04f7 715F746F 		.ascii	"q_top\000"
 3573      7000
 3574              	.LASF77:
 3575 04fd 42535252 		.ascii	"BSRR\000"
 3575      00
 3576              	.LASF53:
 3577 0502 52656164 		.ascii	"ReadyList\000"
 3577      794C6973 
 3577      7400
 3578              	.LASF123:
 3579 050c 73706964 		.ascii	"spid\000"
 3579      00
 3580              	.LASF73:
 3581 0511 434E4454 		.ascii	"CNDTR\000"
 3581      5200
 3582              	.LASF75:
 3583 0517 434D4152 		.ascii	"CMAR\000"
ARM GAS  C:\Users\z80\AppData\Local\Temp\ccaGQhzI.s 			page 70


 3583      00
 3584              	.LASF70:
 3585 051c 715F6E6F 		.ascii	"q_notify\000"
 3585      74696679 
 3585      00
 3586              	.LASF130:
 3587 0525 726C6973 		.ascii	"rlist\000"
 3587      7400
 3588              	.LASF3:
 3589 052b 75696E74 		.ascii	"uint8_t\000"
 3589      385F7400 
 3590              	.LASF140:
 3591 0533 474E5520 		.ascii	"GNU C 4.5.0\000"
 3591      4320342E 
 3591      352E3000 
 3592              	.LASF60:
 3593 053f 77746F62 		.ascii	"wtobjp\000"
 3593      6A7000
 3594              	.LASF29:
 3595 0546 705F6E61 		.ascii	"p_name\000"
 3595      6D6500
 3596              	.LASF122:
 3597 054d 53504943 		.ascii	"SPIConfig\000"
 3597      6F6E6669 
 3597      6700
 3598              	.LASF36:
 3599 0557 705F6D73 		.ascii	"p_msg\000"
 3599      6700
 3600              	.LASF51:
 3601 055d 725F7072 		.ascii	"r_preempt\000"
 3601      65656D70 
 3601      7400
 3602              	.LASF56:
 3603 0567 6D5F6F77 		.ascii	"m_owner\000"
 3603      6E657200 
 3604              	.LASF26:
 3605 056f 705F6374 		.ascii	"p_ctx\000"
 3605      7800
 3606              	.LASF34:
 3607 0575 705F7761 		.ascii	"p_waiting\000"
 3607      6974696E 
 3607      6700
 3608              		.ident	"GCC: (GNU) 4.5.0"
ARM GAS  C:\Users\z80\AppData\Local\Temp\ccaGQhzI.s 			page 71


DEFINED SYMBOLS
                            *ABS*:00000000 adc_ctrl.c
C:\Users\z80\AppData\Local\Temp\ccaGQhzI.s:24     .text.onSpiComplete:00000000 $t
C:\Users\z80\AppData\Local\Temp\ccaGQhzI.s:29     .text.onSpiComplete:00000000 onSpiComplete
C:\Users\z80\AppData\Local\Temp\ccaGQhzI.s:172    .text.onSpiComplete:000000a8 $d
C:\Users\z80\AppData\Local\Temp\ccaGQhzI.s:182    .text.adcThread:00000000 $t
C:\Users\z80\AppData\Local\Temp\ccaGQhzI.s:187    .text.adcThread:00000000 adcThread
C:\Users\z80\AppData\Local\Temp\ccaGQhzI.s:282    .text.adcThread:0000005c $d
C:\Users\z80\AppData\Local\Temp\ccaGQhzI.s:292    .text.initAdc:00000000 $t
C:\Users\z80\AppData\Local\Temp\ccaGQhzI.s:298    .text.initAdc:00000000 initAdc
C:\Users\z80\AppData\Local\Temp\ccaGQhzI.s:424    .text.initAdc:000000b0 $d
C:\Users\z80\AppData\Local\Temp\ccaGQhzI.s:437    .text.queryAdcI:00000000 $t
C:\Users\z80\AppData\Local\Temp\ccaGQhzI.s:443    .text.queryAdcI:00000000 queryAdcI
C:\Users\z80\AppData\Local\Temp\ccaGQhzI.s:624    .bss.adc_rx_buffer:00000000 .LANCHOR2
C:\Users\z80\AppData\Local\Temp\ccaGQhzI.s:498    .text.adcQueue:00000000 $t
C:\Users\z80\AppData\Local\Temp\ccaGQhzI.s:504    .text.adcQueue:00000000 adcQueue
C:\Users\z80\AppData\Local\Temp\ccaGQhzI.s:593    .bss.adc_queue:00000000 .LANCHOR1
C:\Users\z80\AppData\Local\Temp\ccaGQhzI.s:520    .text.instantAdc:00000000 $t
C:\Users\z80\AppData\Local\Temp\ccaGQhzI.s:526    .text.instantAdc:00000000 instantAdc
C:\Users\z80\AppData\Local\Temp\ccaGQhzI.s:584    .text.instantAdc:00000030 $d
C:\Users\z80\AppData\Local\Temp\ccaGQhzI.s:596    .bss.adc_queue:00000000 adc_queue
C:\Users\z80\AppData\Local\Temp\ccaGQhzI.s:648    .bss.adc_queue_buffer:00000000 adc_queue_buffer
C:\Users\z80\AppData\Local\Temp\ccaGQhzI.s:627    .bss.adc_rx_buffer:00000000 adc_rx_buffer
C:\Users\z80\AppData\Local\Temp\ccaGQhzI.s:592    .bss.adc_queue:00000000 $d
C:\Users\z80\AppData\Local\Temp\ccaGQhzI.s:599    .data.instantAdcdata:00000000 $d
C:\Users\z80\AppData\Local\Temp\ccaGQhzI.s:603    .data.instantAdcdata:00000000 instantAdcdata
C:\Users\z80\AppData\Local\Temp\ccaGQhzI.s:609    .rodata.hs_spicfg:00000000 $d
C:\Users\z80\AppData\Local\Temp\ccaGQhzI.s:613    .rodata.hs_spicfg:00000000 hs_spicfg
C:\Users\z80\AppData\Local\Temp\ccaGQhzI.s:619    .rodata.str1.4:00000000 $d
C:\Users\z80\AppData\Local\Temp\ccaGQhzI.s:623    .bss.adc_rx_buffer:00000000 $d
C:\Users\z80\AppData\Local\Temp\ccaGQhzI.s:630    .bss.adcIndex:00000000 $d
C:\Users\z80\AppData\Local\Temp\ccaGQhzI.s:634    .bss.adcIndex:00000000 adcIndex
C:\Users\z80\AppData\Local\Temp\ccaGQhzI.s:637    .bss.waAdc:00000000 $d
C:\Users\z80\AppData\Local\Temp\ccaGQhzI.s:641    .bss.waAdc:00000000 waAdc
C:\Users\z80\AppData\Local\Temp\ccaGQhzI.s:644    .bss.adc_queue_buffer:00000000 $d
                     .debug_frame:00000010 $d
C:\Users\z80\AppData\Local\Temp\ccaGQhzI.s:181    .text.onSpiComplete:000000b8 $t
C:\Users\z80\AppData\Local\Temp\ccaGQhzI.s:291    .text.adcThread:0000006c $t
C:\Users\z80\AppData\Local\Temp\ccaGQhzI.s:436    .text.initAdc:000000cc $t
C:\Users\z80\AppData\Local\Temp\ccaGQhzI.s:591    .text.instantAdc:00000034 $t

UNDEFINED SYMBOLS
dbg_check_lock_from_isr
spi_lld_unselect
chIQPutI
dbg_check_unlock_from_isr
SPID1
chIQGetTimeout
dbg_check_lock
dbg_check_unlock
rlist
chIQInit
_pal_lld_setgroupmode
spiStart
chThdCreateStatic
spi_lld_select
spi_lld_receive
ARM GAS  C:\Users\z80\AppData\Local\Temp\ccaGQhzI.s 			page 72


