ARM GAS  C:\Users\z80\AppData\Local\Temp\ccAfkxle.s 			page 1


   1              		.syntax unified
   2              		.cpu cortex-m3
   3              		.fpu softvfp
   4              		.eabi_attribute 20, 1
   5              		.eabi_attribute 21, 1
   6              		.eabi_attribute 23, 3
   7              		.eabi_attribute 24, 1
   8              		.eabi_attribute 25, 1
   9              		.eabi_attribute 26, 1
  10              		.eabi_attribute 30, 6
  11              		.eabi_attribute 34, 1
  12              		.eabi_attribute 18, 4
  13              		.thumb
  14              		.file	"chcond.c"
  15              		.text
  16              	.Ltext0:
  17              		.cfi_sections	.debug_frame
  18              		.section	.text.prio_insert,"ax",%progbits
  19              		.align	2
  20              		.p2align 4,,15
  21              		.thumb
  22              		.thumb_func
  23              		.type	prio_insert, %function
  24              	prio_insert:
  25              	.LFB0:
  26              		.file 1 "../chibios_2.4.x/os/kernel/include/chinline.h"
  27              		.loc 1 41 0
  28              		.cfi_startproc
  29              		@ args = 0, pretend = 0, frame = 16
  30              		@ frame_needed = 0, uses_anonymous_args = 0
  31              		@ link register save eliminated.
  32 0000 84B0     		sub	sp, sp, #16
  33              	.LCFI0:
  34              		.cfi_def_cfa_offset 16
  35 0002 0190     		str	r0, [sp, #4]
  36 0004 0091     		str	r1, [sp, #0]
  37              		.loc 1 43 0
  38 0006 009B     		ldr	r3, [sp, #0]
  39 0008 0393     		str	r3, [sp, #12]
  40              	.L3:
  41              		.loc 1 45 0 discriminator 1
  42 000a 039B     		ldr	r3, [sp, #12]
  43 000c 1B68     		ldr	r3, [r3, #0]
  44 000e 0393     		str	r3, [sp, #12]
  45              		.loc 1 46 0 discriminator 1
  46 0010 039A     		ldr	r2, [sp, #12]
  47 0012 009B     		ldr	r3, [sp, #0]
  48 0014 9A42     		cmp	r2, r3
  49 0016 05D0     		beq	.L2
  50 0018 039B     		ldr	r3, [sp, #12]
  51 001a 9A68     		ldr	r2, [r3, #8]
  52 001c 019B     		ldr	r3, [sp, #4]
  53 001e 9B68     		ldr	r3, [r3, #8]
  54 0020 9A42     		cmp	r2, r3
  55 0022 F2D2     		bcs	.L3
  56              	.L2:
  57              		.loc 1 47 0
ARM GAS  C:\Users\z80\AppData\Local\Temp\ccAfkxle.s 			page 2


  58 0024 019B     		ldr	r3, [sp, #4]
  59 0026 039A     		ldr	r2, [sp, #12]
  60 0028 1A60     		str	r2, [r3, #0]
  61              		.loc 1 48 0
  62 002a 039B     		ldr	r3, [sp, #12]
  63 002c 5A68     		ldr	r2, [r3, #4]
  64 002e 019B     		ldr	r3, [sp, #4]
  65 0030 5A60     		str	r2, [r3, #4]
  66              		.loc 1 49 0
  67 0032 019B     		ldr	r3, [sp, #4]
  68 0034 5B68     		ldr	r3, [r3, #4]
  69 0036 039A     		ldr	r2, [sp, #12]
  70 0038 0199     		ldr	r1, [sp, #4]
  71 003a 5160     		str	r1, [r2, #4]
  72 003c 039A     		ldr	r2, [sp, #12]
  73 003e 5268     		ldr	r2, [r2, #4]
  74 0040 1A60     		str	r2, [r3, #0]
  75              		.loc 1 50 0
  76 0042 04B0     		add	sp, sp, #16
  77 0044 7047     		bx	lr
  78              		.cfi_endproc
  79              	.LFE0:
  80              		.size	prio_insert, .-prio_insert
  81 0046 00BFAFF3 		.section	.text.fifo_remove,"ax",%progbits
  81      0080AFF3 
  81      0080
  82              		.align	2
  83              		.p2align 4,,15
  84              		.thumb
  85              		.thumb_func
  86              		.type	fifo_remove, %function
  87              	fifo_remove:
  88              	.LFB2:
  89              		.loc 1 59 0
  90              		.cfi_startproc
  91              		@ args = 0, pretend = 0, frame = 16
  92              		@ frame_needed = 0, uses_anonymous_args = 0
  93              		@ link register save eliminated.
  94 0000 84B0     		sub	sp, sp, #16
  95              	.LCFI1:
  96              		.cfi_def_cfa_offset 16
  97 0002 0190     		str	r0, [sp, #4]
  98              		.loc 1 60 0
  99 0004 019B     		ldr	r3, [sp, #4]
 100 0006 1B68     		ldr	r3, [r3, #0]
 101 0008 0393     		str	r3, [sp, #12]
 102              		.loc 1 62 0
 103 000a 039B     		ldr	r3, [sp, #12]
 104 000c 1A68     		ldr	r2, [r3, #0]
 105 000e 019B     		ldr	r3, [sp, #4]
 106 0010 1A60     		str	r2, [r3, #0]
 107 0012 019B     		ldr	r3, [sp, #4]
 108 0014 1B68     		ldr	r3, [r3, #0]
 109 0016 019A     		ldr	r2, [sp, #4]
 110 0018 5A60     		str	r2, [r3, #4]
 111              		.loc 1 63 0
 112 001a 039B     		ldr	r3, [sp, #12]
ARM GAS  C:\Users\z80\AppData\Local\Temp\ccAfkxle.s 			page 3


 113              		.loc 1 64 0
 114 001c 1846     		mov	r0, r3
 115 001e 04B0     		add	sp, sp, #16
 116 0020 7047     		bx	lr
 117              		.cfi_endproc
 118              	.LFE2:
 119              		.size	fifo_remove, .-fifo_remove
 120 0022 00BFAFF3 		.section	.rodata
 120      0080AFF3 
 120      0080AFF3 
 120      0080
 121              		.align	2
 122              	.LC0:
 123 0000 22636843 		.ascii	"\"chCondInit\"()\000"
 123      6F6E6449 
 123      6E697422 
 123      282900
 124              		.section	.text.chCondInit,"ax",%progbits
 125              		.align	2
 126              		.p2align 4,,15
 127              		.global	chCondInit
 128              		.thumb
 129              		.thumb_func
 130              		.type	chCondInit, %function
 131              	chCondInit:
 132              	.LFB7:
 133              		.file 2 "../chibios_2.4.x/os/kernel/src/chcond.c"
 134              		.loc 2 59 0
 135              		.cfi_startproc
 136              		@ args = 0, pretend = 0, frame = 8
 137              		@ frame_needed = 0, uses_anonymous_args = 0
 138 0000 00B5     		push	{lr}
 139              	.LCFI2:
 140              		.cfi_def_cfa_offset 4
 141              		.cfi_offset 14, -4
 142 0002 83B0     		sub	sp, sp, #12
 143              	.LCFI3:
 144              		.cfi_def_cfa_offset 16
 145 0004 0190     		str	r0, [sp, #4]
 146              		.loc 2 61 0
 147 0006 019B     		ldr	r3, [sp, #4]
 148 0008 002B     		cmp	r3, #0
 149 000a 05D1     		bne	.L6
 150              		.loc 2 61 0 is_stmt 0 discriminator 1
 151 000c 40F20000 		movw	r0, #:lower16:.LC0
 152 0010 C0F20000 		movt	r0, #:upper16:.LC0
 153 0014 FFF7FEFF 		bl	chDbgPanic
 154              	.L6:
 155              		.loc 2 63 0 is_stmt 1
 156 0018 019A     		ldr	r2, [sp, #4]
 157 001a 019B     		ldr	r3, [sp, #4]
 158 001c 5A60     		str	r2, [r3, #4]
 159 001e 019B     		ldr	r3, [sp, #4]
 160 0020 5A68     		ldr	r2, [r3, #4]
 161 0022 019B     		ldr	r3, [sp, #4]
 162 0024 1A60     		str	r2, [r3, #0]
 163              		.loc 2 64 0
ARM GAS  C:\Users\z80\AppData\Local\Temp\ccAfkxle.s 			page 4


 164 0026 03B0     		add	sp, sp, #12
 165 0028 00BD     		pop	{pc}
 166              		.cfi_endproc
 167              	.LFE7:
 168              		.size	chCondInit, .-chCondInit
 169 002a 00BFAFF3 		.section	.rodata
 169      0080
 170 000f 00       		.align	2
 171              	.LC1:
 172 0010 22636843 		.ascii	"\"chCondSignal\"()\000"
 172      6F6E6453 
 172      69676E61 
 172      6C222829 
 172      00
 173              		.section	.text.chCondSignal,"ax",%progbits
 174              		.align	2
 175              		.p2align 4,,15
 176              		.global	chCondSignal
 177              		.thumb
 178              		.thumb_func
 179              		.type	chCondSignal, %function
 180              	chCondSignal:
 181              	.LFB8:
 182              		.loc 2 73 0
 183              		.cfi_startproc
 184              		@ args = 0, pretend = 0, frame = 8
 185              		@ frame_needed = 0, uses_anonymous_args = 0
 186 0000 00B5     		push	{lr}
 187              	.LCFI4:
 188              		.cfi_def_cfa_offset 4
 189              		.cfi_offset 14, -4
 190 0002 83B0     		sub	sp, sp, #12
 191              	.LCFI5:
 192              		.cfi_def_cfa_offset 16
 193 0004 0190     		str	r0, [sp, #4]
 194              		.loc 2 75 0
 195 0006 019B     		ldr	r3, [sp, #4]
 196 0008 002B     		cmp	r3, #0
 197 000a 05D1     		bne	.L8
 198              		.loc 2 75 0 is_stmt 0 discriminator 1
 199 000c 40F20000 		movw	r0, #:lower16:.LC1
 200 0010 C0F20000 		movt	r0, #:upper16:.LC1
 201 0014 FFF7FEFF 		bl	chDbgPanic
 202              	.L8:
 203              	.LBB2:
 204              		.loc 2 77 0 is_stmt 1
 205 0018 4FF02003 		mov	r3, #32
 206              	@ 77 "../chibios_2.4.x/os/kernel/src/chcond.c" 1
 207 001c 83F31188 		msr     BASEPRI, r3
 208              	@ 0 "" 2
 209              		.thumb
 210              	.LBE2:
 211 0020 FFF7FEFF 		bl	dbg_check_lock
 212              		.loc 2 78 0
 213 0024 019B     		ldr	r3, [sp, #4]
 214 0026 1A68     		ldr	r2, [r3, #0]
 215 0028 019B     		ldr	r3, [sp, #4]
ARM GAS  C:\Users\z80\AppData\Local\Temp\ccAfkxle.s 			page 5


 216 002a 9A42     		cmp	r2, r3
 217 002c 09D0     		beq	.L9
 218              		.loc 2 79 0
 219 002e 019B     		ldr	r3, [sp, #4]
 220 0030 1846     		mov	r0, r3
 221 0032 FFF7FEFF 		bl	fifo_remove
 222 0036 0346     		mov	r3, r0
 223 0038 1846     		mov	r0, r3
 224 003a 4FF00001 		mov	r1, #0
 225 003e FFF7FEFF 		bl	chSchWakeupS
 226              	.L9:
 227              		.loc 2 80 0
 228 0042 FFF7FEFF 		bl	dbg_check_unlock
 229              	.LBB3:
 230 0046 4FF00003 		mov	r3, #0
 231              	@ 80 "../chibios_2.4.x/os/kernel/src/chcond.c" 1
 232 004a 83F31188 		msr     BASEPRI, r3
 233              	@ 0 "" 2
 234              		.thumb
 235              	.LBE3:
 236              		.loc 2 81 0
 237 004e 03B0     		add	sp, sp, #12
 238 0050 00BD     		pop	{pc}
 239              		.cfi_endproc
 240              	.LFE8:
 241              		.size	chCondSignal, .-chCondSignal
 242 0052 00BFAFF3 		.section	.rodata
 242      0080AFF3 
 242      0080AFF3 
 242      0080
 243 0021 000000   		.align	2
 244              	.LC2:
 245 0024 22636843 		.ascii	"\"chCondSignalI\"()\000"
 245      6F6E6453 
 245      69676E61 
 245      6C492228 
 245      2900
 246              		.section	.text.chCondSignalI,"ax",%progbits
 247              		.align	2
 248              		.p2align 4,,15
 249              		.global	chCondSignalI
 250              		.thumb
 251              		.thumb_func
 252              		.type	chCondSignalI, %function
 253              	chCondSignalI:
 254              	.LFB9:
 255              		.loc 2 94 0
 256              		.cfi_startproc
 257              		@ args = 0, pretend = 0, frame = 8
 258              		@ frame_needed = 0, uses_anonymous_args = 0
 259 0000 00B5     		push	{lr}
 260              	.LCFI6:
 261              		.cfi_def_cfa_offset 4
 262              		.cfi_offset 14, -4
 263 0002 83B0     		sub	sp, sp, #12
 264              	.LCFI7:
 265              		.cfi_def_cfa_offset 16
ARM GAS  C:\Users\z80\AppData\Local\Temp\ccAfkxle.s 			page 6


 266 0004 0190     		str	r0, [sp, #4]
 267              		.loc 2 96 0
 268 0006 FFF7FEFF 		bl	chDbgCheckClassI
 269              		.loc 2 97 0
 270 000a 019B     		ldr	r3, [sp, #4]
 271 000c 002B     		cmp	r3, #0
 272 000e 05D1     		bne	.L11
 273              		.loc 2 97 0 is_stmt 0 discriminator 1
 274 0010 40F20000 		movw	r0, #:lower16:.LC2
 275 0014 C0F20000 		movt	r0, #:upper16:.LC2
 276 0018 FFF7FEFF 		bl	chDbgPanic
 277              	.L11:
 278              		.loc 2 99 0 is_stmt 1
 279 001c 019B     		ldr	r3, [sp, #4]
 280 001e 1A68     		ldr	r2, [r3, #0]
 281 0020 019B     		ldr	r3, [sp, #4]
 282 0022 9A42     		cmp	r2, r3
 283 0024 0BD0     		beq	.L10
 284              		.loc 2 100 0
 285 0026 019B     		ldr	r3, [sp, #4]
 286 0028 1846     		mov	r0, r3
 287 002a FFF7FEFF 		bl	fifo_remove
 288 002e 0346     		mov	r3, r0
 289 0030 1846     		mov	r0, r3
 290 0032 FFF7FEFF 		bl	chSchReadyI
 291 0036 0346     		mov	r3, r0
 292 0038 4FF00002 		mov	r2, #0
 293 003c 9A62     		str	r2, [r3, #40]
 294              	.L10:
 295              		.loc 2 101 0
 296 003e 03B0     		add	sp, sp, #12
 297 0040 00BD     		pop	{pc}
 298              		.cfi_endproc
 299              	.LFE9:
 300              		.size	chCondSignalI, .-chCondSignalI
 301 0042 00BFAFF3 		.section	.text.chCondBroadcast,"ax",%progbits
 301      0080AFF3 
 301      0080AFF3 
 301      0080
 302              		.align	2
 303              		.p2align 4,,15
 304              		.global	chCondBroadcast
 305              		.thumb
 306              		.thumb_func
 307              		.type	chCondBroadcast, %function
 308              	chCondBroadcast:
 309              	.LFB10:
 310              		.loc 2 110 0
 311              		.cfi_startproc
 312              		@ args = 0, pretend = 0, frame = 8
 313              		@ frame_needed = 0, uses_anonymous_args = 0
 314 0000 00B5     		push	{lr}
 315              	.LCFI8:
 316              		.cfi_def_cfa_offset 4
 317              		.cfi_offset 14, -4
 318 0002 83B0     		sub	sp, sp, #12
 319              	.LCFI9:
ARM GAS  C:\Users\z80\AppData\Local\Temp\ccAfkxle.s 			page 7


 320              		.cfi_def_cfa_offset 16
 321 0004 0190     		str	r0, [sp, #4]
 322              	.LBB4:
 323              		.loc 2 112 0
 324 0006 4FF02003 		mov	r3, #32
 325              	@ 112 "../chibios_2.4.x/os/kernel/src/chcond.c" 1
 326 000a 83F31188 		msr     BASEPRI, r3
 327              	@ 0 "" 2
 328              		.thumb
 329              	.LBE4:
 330 000e FFF7FEFF 		bl	dbg_check_lock
 331              		.loc 2 113 0
 332 0012 0198     		ldr	r0, [sp, #4]
 333 0014 FFF7FEFF 		bl	chCondBroadcastI
 334              		.loc 2 114 0
 335 0018 FFF7FEFF 		bl	chSchRescheduleS
 336              		.loc 2 115 0
 337 001c FFF7FEFF 		bl	dbg_check_unlock
 338              	.LBB5:
 339 0020 4FF00003 		mov	r3, #0
 340              	@ 115 "../chibios_2.4.x/os/kernel/src/chcond.c" 1
 341 0024 83F31188 		msr     BASEPRI, r3
 342              	@ 0 "" 2
 343              		.thumb
 344              	.LBE5:
 345              		.loc 2 116 0
 346 0028 03B0     		add	sp, sp, #12
 347 002a 00BD     		pop	{pc}
 348              		.cfi_endproc
 349              	.LFE10:
 350              		.size	chCondBroadcast, .-chCondBroadcast
 351 002c AFF30080 		.section	.rodata
 352 0036 0000     		.align	2
 353              	.LC3:
 354 0038 22636843 		.ascii	"\"chCondBroadcastI\"()\000"
 354      6F6E6442 
 354      726F6164 
 354      63617374 
 354      49222829 
 355              		.section	.text.chCondBroadcastI,"ax",%progbits
 356              		.align	2
 357              		.p2align 4,,15
 358              		.global	chCondBroadcastI
 359              		.thumb
 360              		.thumb_func
 361              		.type	chCondBroadcastI, %function
 362              	chCondBroadcastI:
 363              	.LFB11:
 364              		.loc 2 129 0
 365              		.cfi_startproc
 366              		@ args = 0, pretend = 0, frame = 8
 367              		@ frame_needed = 0, uses_anonymous_args = 0
 368 0000 00B5     		push	{lr}
 369              	.LCFI10:
 370              		.cfi_def_cfa_offset 4
 371              		.cfi_offset 14, -4
 372 0002 83B0     		sub	sp, sp, #12
ARM GAS  C:\Users\z80\AppData\Local\Temp\ccAfkxle.s 			page 8


 373              	.LCFI11:
 374              		.cfi_def_cfa_offset 16
 375 0004 0190     		str	r0, [sp, #4]
 376              		.loc 2 131 0
 377 0006 FFF7FEFF 		bl	chDbgCheckClassI
 378              		.loc 2 132 0
 379 000a 019B     		ldr	r3, [sp, #4]
 380 000c 002B     		cmp	r3, #0
 381 000e 13D1     		bne	.L18
 382              		.loc 2 132 0 is_stmt 0 discriminator 1
 383 0010 40F20000 		movw	r0, #:lower16:.LC3
 384 0014 C0F20000 		movt	r0, #:upper16:.LC3
 385 0018 FFF7FEFF 		bl	chDbgPanic
 386              		.loc 2 137 0 is_stmt 1 discriminator 1
 387 001c 0CE0     		b	.L18
 388              	.L17:
 389              		.loc 2 138 0
 390 001e 019B     		ldr	r3, [sp, #4]
 391 0020 1846     		mov	r0, r3
 392 0022 FFF7FEFF 		bl	fifo_remove
 393 0026 0346     		mov	r3, r0
 394 0028 1846     		mov	r0, r3
 395 002a FFF7FEFF 		bl	chSchReadyI
 396 002e 0346     		mov	r3, r0
 397 0030 6FF00102 		mvn	r2, #1
 398 0034 9A62     		str	r2, [r3, #40]
 399 0036 00E0     		b	.L16
 400              	.L18:
 401              		.loc 2 137 0
 402 0038 00BF     		nop
 403              	.L16:
 404              		.loc 2 137 0 is_stmt 0 discriminator 1
 405 003a 019B     		ldr	r3, [sp, #4]
 406 003c 1A68     		ldr	r2, [r3, #0]
 407 003e 019B     		ldr	r3, [sp, #4]
 408 0040 9A42     		cmp	r2, r3
 409 0042 ECD1     		bne	.L17
 410              		.loc 2 139 0 is_stmt 1
 411 0044 03B0     		add	sp, sp, #12
 412 0046 00BD     		pop	{pc}
 413              		.cfi_endproc
 414              	.LFE11:
 415              		.size	chCondBroadcastI, .-chCondBroadcastI
 416 0048 AFF30080 		.section	.text.chCondWait,"ax",%progbits
 416      AFF30080 
 417              		.align	2
 418              		.p2align 4,,15
 419              		.global	chCondWait
 420              		.thumb
 421              		.thumb_func
 422              		.type	chCondWait, %function
 423              	chCondWait:
 424              	.LFB12:
 425              		.loc 2 158 0
 426              		.cfi_startproc
 427              		@ args = 0, pretend = 0, frame = 16
 428              		@ frame_needed = 0, uses_anonymous_args = 0
ARM GAS  C:\Users\z80\AppData\Local\Temp\ccAfkxle.s 			page 9


 429 0000 00B5     		push	{lr}
 430              	.LCFI12:
 431              		.cfi_def_cfa_offset 4
 432              		.cfi_offset 14, -4
 433 0002 85B0     		sub	sp, sp, #20
 434              	.LCFI13:
 435              		.cfi_def_cfa_offset 24
 436 0004 0190     		str	r0, [sp, #4]
 437              	.LBB6:
 438              		.loc 2 161 0
 439 0006 4FF02003 		mov	r3, #32
 440              	@ 161 "../chibios_2.4.x/os/kernel/src/chcond.c" 1
 441 000a 83F31188 		msr     BASEPRI, r3
 442              	@ 0 "" 2
 443              		.thumb
 444              	.LBE6:
 445 000e FFF7FEFF 		bl	dbg_check_lock
 446              		.loc 2 162 0
 447 0012 0198     		ldr	r0, [sp, #4]
 448 0014 FFF7FEFF 		bl	chCondWaitS
 449 0018 0390     		str	r0, [sp, #12]
 450              		.loc 2 163 0
 451 001a FFF7FEFF 		bl	dbg_check_unlock
 452              	.LBB7:
 453 001e 4FF00003 		mov	r3, #0
 454              	@ 163 "../chibios_2.4.x/os/kernel/src/chcond.c" 1
 455 0022 83F31188 		msr     BASEPRI, r3
 456              	@ 0 "" 2
 457              		.thumb
 458              	.LBE7:
 459              		.loc 2 164 0
 460 0026 039B     		ldr	r3, [sp, #12]
 461              		.loc 2 165 0
 462 0028 1846     		mov	r0, r3
 463 002a 05B0     		add	sp, sp, #20
 464 002c 00BD     		pop	{pc}
 465              		.cfi_endproc
 466              	.LFE12:
 467              		.size	chCondWait, .-chCondWait
 468 002e 00BF     		.section	.rodata
 469 004d 000000   		.align	2
 470              	.LC4:
 471 0050 22636843 		.ascii	"\"chCondWaitS\"()\000"
 471      6F6E6457 
 471      61697453 
 471      22282900 
 472              		.align	2
 473              	.LC5:
 474 0060 6368436F 		.ascii	"chCondWaitS(), #1\000"
 474      6E645761 
 474      69745328 
 474      292C2023 
 474      3100
 475              		.section	.text.chCondWaitS,"ax",%progbits
 476              		.align	2
 477              		.p2align 4,,15
 478              		.global	chCondWaitS
ARM GAS  C:\Users\z80\AppData\Local\Temp\ccAfkxle.s 			page 10


 479              		.thumb
 480              		.thumb_func
 481              		.type	chCondWaitS, %function
 482              	chCondWaitS:
 483              	.LFB13:
 484              		.loc 2 184 0
 485              		.cfi_startproc
 486              		@ args = 0, pretend = 0, frame = 24
 487              		@ frame_needed = 0, uses_anonymous_args = 0
 488 0000 00B5     		push	{lr}
 489              	.LCFI14:
 490              		.cfi_def_cfa_offset 4
 491              		.cfi_offset 14, -4
 492 0002 87B0     		sub	sp, sp, #28
 493              	.LCFI15:
 494              		.cfi_def_cfa_offset 32
 495 0004 0190     		str	r0, [sp, #4]
 496              		.loc 2 185 0
 497 0006 40F20003 		movw	r3, #:lower16:rlist
 498 000a C0F20003 		movt	r3, #:upper16:rlist
 499 000e DB69     		ldr	r3, [r3, #28]
 500 0010 0593     		str	r3, [sp, #20]
 501              		.loc 2 189 0
 502 0012 FFF7FEFF 		bl	chDbgCheckClassS
 503              		.loc 2 190 0
 504 0016 019B     		ldr	r3, [sp, #4]
 505 0018 002B     		cmp	r3, #0
 506 001a 05D1     		bne	.L21
 507              		.loc 2 190 0 is_stmt 0 discriminator 1
 508 001c 40F20000 		movw	r0, #:lower16:.LC4
 509 0020 C0F20000 		movt	r0, #:upper16:.LC4
 510 0024 FFF7FEFF 		bl	chDbgPanic
 511              	.L21:
 512              		.loc 2 191 0 is_stmt 1
 513 0028 059B     		ldr	r3, [sp, #20]
 514 002a 1B6C     		ldr	r3, [r3, #64]
 515 002c 002B     		cmp	r3, #0
 516 002e 05D1     		bne	.L22
 517              		.loc 2 191 0 is_stmt 0 discriminator 1
 518 0030 40F20000 		movw	r0, #:lower16:.LC5
 519 0034 C0F20000 		movt	r0, #:upper16:.LC5
 520 0038 FFF7FEFF 		bl	chDbgPanic
 521              	.L22:
 522              		.loc 2 195 0 is_stmt 1
 523 003c FFF7FEFF 		bl	chMtxUnlockS
 524 0040 0490     		str	r0, [sp, #16]
 525              		.loc 2 196 0
 526 0042 059B     		ldr	r3, [sp, #20]
 527 0044 019A     		ldr	r2, [sp, #4]
 528 0046 9A62     		str	r2, [r3, #40]
 529              		.loc 2 197 0
 530 0048 019B     		ldr	r3, [sp, #4]
 531 004a 0598     		ldr	r0, [sp, #20]
 532 004c 1946     		mov	r1, r3
 533 004e FFF7FEFF 		bl	prio_insert
 534              		.loc 2 198 0
 535 0052 4FF00500 		mov	r0, #5
ARM GAS  C:\Users\z80\AppData\Local\Temp\ccAfkxle.s 			page 11


 536 0056 FFF7FEFF 		bl	chSchGoSleepS
 537              		.loc 2 199 0
 538 005a 059B     		ldr	r3, [sp, #20]
 539 005c 9B6A     		ldr	r3, [r3, #40]
 540 005e 0393     		str	r3, [sp, #12]
 541              		.loc 2 200 0
 542 0060 0498     		ldr	r0, [sp, #16]
 543 0062 FFF7FEFF 		bl	chMtxLockS
 544              		.loc 2 201 0
 545 0066 039B     		ldr	r3, [sp, #12]
 546              		.loc 2 202 0
 547 0068 1846     		mov	r0, r3
 548 006a 07B0     		add	sp, sp, #28
 549 006c 00BD     		pop	{pc}
 550              		.cfi_endproc
 551              	.LFE13:
 552              		.size	chCondWaitS, .-chCondWaitS
 553 006e 00BF     		.section	.text.chCondWaitTimeout,"ax",%progbits
 554              		.align	2
 555              		.p2align 4,,15
 556              		.global	chCondWaitTimeout
 557              		.thumb
 558              		.thumb_func
 559              		.type	chCondWaitTimeout, %function
 560              	chCondWaitTimeout:
 561              	.LFB14:
 562              		.loc 2 233 0
 563              		.cfi_startproc
 564              		@ args = 0, pretend = 0, frame = 16
 565              		@ frame_needed = 0, uses_anonymous_args = 0
 566 0000 00B5     		push	{lr}
 567              	.LCFI16:
 568              		.cfi_def_cfa_offset 4
 569              		.cfi_offset 14, -4
 570 0002 85B0     		sub	sp, sp, #20
 571              	.LCFI17:
 572              		.cfi_def_cfa_offset 24
 573 0004 0190     		str	r0, [sp, #4]
 574 0006 0091     		str	r1, [sp, #0]
 575              	.LBB8:
 576              		.loc 2 236 0
 577 0008 4FF02003 		mov	r3, #32
 578              	@ 236 "../chibios_2.4.x/os/kernel/src/chcond.c" 1
 579 000c 83F31188 		msr     BASEPRI, r3
 580              	@ 0 "" 2
 581              		.thumb
 582              	.LBE8:
 583 0010 FFF7FEFF 		bl	dbg_check_lock
 584              		.loc 2 237 0
 585 0014 0198     		ldr	r0, [sp, #4]
 586 0016 0099     		ldr	r1, [sp, #0]
 587 0018 FFF7FEFF 		bl	chCondWaitTimeoutS
 588 001c 0390     		str	r0, [sp, #12]
 589              		.loc 2 238 0
 590 001e FFF7FEFF 		bl	dbg_check_unlock
 591              	.LBB9:
 592 0022 4FF00003 		mov	r3, #0
ARM GAS  C:\Users\z80\AppData\Local\Temp\ccAfkxle.s 			page 12


 593              	@ 238 "../chibios_2.4.x/os/kernel/src/chcond.c" 1
 594 0026 83F31188 		msr     BASEPRI, r3
 595              	@ 0 "" 2
 596              		.thumb
 597              	.LBE9:
 598              		.loc 2 239 0
 599 002a 039B     		ldr	r3, [sp, #12]
 600              		.loc 2 240 0
 601 002c 1846     		mov	r0, r3
 602 002e 05B0     		add	sp, sp, #20
 603 0030 00BD     		pop	{pc}
 604              		.cfi_endproc
 605              	.LFE14:
 606              		.size	chCondWaitTimeout, .-chCondWaitTimeout
 607 0032 00BFAFF3 		.section	.rodata
 607      0080AFF3 
 607      0080AFF3 
 607      0080
 608 0072 0000     		.align	2
 609              	.LC6:
 610 0074 22636843 		.ascii	"\"chCondWaitTimeoutS\"()\000"
 610      6F6E6457 
 610      61697454 
 610      696D656F 
 610      75745322 
 611 008b 00       		.align	2
 612              	.LC7:
 613 008c 6368436F 		.ascii	"chCondWaitTimeoutS(), #1\000"
 613      6E645761 
 613      69745469 
 613      6D656F75 
 613      74532829 
 614 00a5 000000   		.section	.text.chCondWaitTimeoutS,"ax",%progbits
 615              		.align	2
 616              		.p2align 4,,15
 617              		.global	chCondWaitTimeoutS
 618              		.thumb
 619              		.thumb_func
 620              		.type	chCondWaitTimeoutS, %function
 621              	chCondWaitTimeoutS:
 622              	.LFB15:
 623              		.loc 2 270 0
 624              		.cfi_startproc
 625              		@ args = 0, pretend = 0, frame = 16
 626              		@ frame_needed = 0, uses_anonymous_args = 0
 627 0000 00B5     		push	{lr}
 628              	.LCFI18:
 629              		.cfi_def_cfa_offset 4
 630              		.cfi_offset 14, -4
 631 0002 85B0     		sub	sp, sp, #20
 632              	.LCFI19:
 633              		.cfi_def_cfa_offset 24
 634 0004 0190     		str	r0, [sp, #4]
 635 0006 0091     		str	r1, [sp, #0]
 636              		.loc 2 274 0
 637 0008 FFF7FEFF 		bl	chDbgCheckClassS
 638              		.loc 2 275 0
ARM GAS  C:\Users\z80\AppData\Local\Temp\ccAfkxle.s 			page 13


 639 000c 019B     		ldr	r3, [sp, #4]
 640 000e 002B     		cmp	r3, #0
 641 0010 02D0     		beq	.L25
 642              		.loc 2 275 0 is_stmt 0 discriminator 2
 643 0012 009B     		ldr	r3, [sp, #0]
 644 0014 002B     		cmp	r3, #0
 645 0016 05D1     		bne	.L26
 646              	.L25:
 647              		.loc 2 275 0 discriminator 1
 648 0018 40F20000 		movw	r0, #:lower16:.LC6
 649 001c C0F20000 		movt	r0, #:upper16:.LC6
 650 0020 FFF7FEFF 		bl	chDbgPanic
 651              	.L26:
 652              		.loc 2 276 0 is_stmt 1
 653 0024 40F20003 		movw	r3, #:lower16:rlist
 654 0028 C0F20003 		movt	r3, #:upper16:rlist
 655 002c DB69     		ldr	r3, [r3, #28]
 656 002e 1B6C     		ldr	r3, [r3, #64]
 657 0030 002B     		cmp	r3, #0
 658 0032 05D1     		bne	.L27
 659              		.loc 2 276 0 is_stmt 0 discriminator 1
 660 0034 40F20000 		movw	r0, #:lower16:.LC7
 661 0038 C0F20000 		movt	r0, #:upper16:.LC7
 662 003c FFF7FEFF 		bl	chDbgPanic
 663              	.L27:
 664              		.loc 2 280 0 is_stmt 1
 665 0040 FFF7FEFF 		bl	chMtxUnlockS
 666 0044 0390     		str	r0, [sp, #12]
 667              		.loc 2 281 0
 668 0046 40F20003 		movw	r3, #:lower16:rlist
 669 004a C0F20003 		movt	r3, #:upper16:rlist
 670 004e DB69     		ldr	r3, [r3, #28]
 671 0050 019A     		ldr	r2, [sp, #4]
 672 0052 9A62     		str	r2, [r3, #40]
 673              		.loc 2 282 0
 674 0054 40F20003 		movw	r3, #:lower16:rlist
 675 0058 C0F20003 		movt	r3, #:upper16:rlist
 676 005c DA69     		ldr	r2, [r3, #28]
 677 005e 019B     		ldr	r3, [sp, #4]
 678 0060 1046     		mov	r0, r2
 679 0062 1946     		mov	r1, r3
 680 0064 FFF7FEFF 		bl	prio_insert
 681              		.loc 2 283 0
 682 0068 4FF00500 		mov	r0, #5
 683 006c 0099     		ldr	r1, [sp, #0]
 684 006e FFF7FEFF 		bl	chSchGoSleepTimeoutS
 685 0072 0290     		str	r0, [sp, #8]
 686              		.loc 2 284 0
 687 0074 029B     		ldr	r3, [sp, #8]
 688 0076 B3F1FF3F 		cmp	r3, #-1
 689 007a 02D0     		beq	.L28
 690              		.loc 2 285 0
 691 007c 0398     		ldr	r0, [sp, #12]
 692 007e FFF7FEFF 		bl	chMtxLockS
 693              	.L28:
 694              		.loc 2 286 0
 695 0082 029B     		ldr	r3, [sp, #8]
ARM GAS  C:\Users\z80\AppData\Local\Temp\ccAfkxle.s 			page 14


 696              		.loc 2 287 0
 697 0084 1846     		mov	r0, r3
 698 0086 05B0     		add	sp, sp, #20
 699 0088 00BD     		pop	{pc}
 700              		.cfi_endproc
 701              	.LFE15:
 702              		.size	chCondWaitTimeoutS, .-chCondWaitTimeoutS
 703 008a 00BFAFF3 		.text
 703      0080
 704              	.Letext0:
 705              		.file 3 "c:\\programs\\codesourcery\\2011.03-56\\bin\\../lib/gcc/arm-none-eabi/4.6.3/../../../../a
 706              		.file 4 "../chibios_2.4.x/os/ports/GCC/ARMCMx/chtypes.h"
 707              		.file 5 "../chibios_2.4.x/os/kernel/include/chlists.h"
 708              		.file 6 "../chibios_2.4.x/os/kernel/include/chthreads.h"
 709              		.file 7 "../chibios_2.4.x/os/ports/GCC/ARMCMx/chcore_v7m.h"
 710              		.file 8 "../chibios_2.4.x/os/kernel/include/chschd.h"
 711              		.file 9 "../chibios_2.4.x/os/kernel/include/chmtx.h"
 712              		.file 10 "../chibios_2.4.x/os/kernel/include/chcond.h"