ARM GAS  C:\Users\z80\AppData\Local\Temp\ccAfkxle.s 			page 1


   1              		.syntax unified
   2              		.cpu cortex-m3
   3              		.fpu softvfp
   4              		.eabi_attribute 20, 1
   5              		.eabi_attribute 21, 1
   6              		.eabi_attribute 23, 3
   7              		.eabi_attribute 24, 1
   8              		.eabi_attribute 25, 1
   9              		.eabi_attribute 26, 1
  10              		.eabi_attribute 30, 6
  11              		.eabi_attribute 34, 1
  12              		.eabi_attribute 18, 4
  13              		.thumb
  14              		.file	"chcond.c"
  15              		.text
  16              	.Ltext0:
  17              		.cfi_sections	.debug_frame
  18              		.section	.text.prio_insert,"ax",%progbits
  19              		.align	2
  20              		.p2align 4,,15
  21              		.thumb
  22              		.thumb_func
  23              		.type	prio_insert, %function
  24              	prio_insert:
  25              	.LFB0:
  26              		.file 1 "../chibios_2.4.x/os/kernel/include/chinline.h"
  27              		.loc 1 41 0
  28              		.cfi_startproc
  29              		@ args = 0, pretend = 0, frame = 16
  30              		@ frame_needed = 0, uses_anonymous_args = 0
  31              		@ link register save eliminated.
  32 0000 84B0     		sub	sp, sp, #16
  33              	.LCFI0:
  34              		.cfi_def_cfa_offset 16
  35 0002 0190     		str	r0, [sp, #4]
  36 0004 0091     		str	r1, [sp, #0]
  37              		.loc 1 43 0
  38 0006 009B     		ldr	r3, [sp, #0]
  39 0008 0393     		str	r3, [sp, #12]
  40              	.L3:
  41              		.loc 1 45 0 discriminator 1
  42 000a 039B     		ldr	r3, [sp, #12]
  43 000c 1B68     		ldr	r3, [r3, #0]
  44 000e 0393     		str	r3, [sp, #12]
  45              		.loc 1 46 0 discriminator 1
  46 0010 039A     		ldr	r2, [sp, #12]
  47 0012 009B     		ldr	r3, [sp, #0]
  48 0014 9A42     		cmp	r2, r3
  49 0016 05D0     		beq	.L2
  50 0018 039B     		ldr	r3, [sp, #12]
  51 001a 9A68     		ldr	r2, [r3, #8]
  52 001c 019B     		ldr	r3, [sp, #4]
  53 001e 9B68     		ldr	r3, [r3, #8]
  54 0020 9A42     		cmp	r2, r3
  55 0022 F2D2     		bcs	.L3
  56              	.L2:
  57              		.loc 1 47 0
ARM GAS  C:\Users\z80\AppData\Local\Temp\ccAfkxle.s 			page 2


  58 0024 019B     		ldr	r3, [sp, #4]
  59 0026 039A     		ldr	r2, [sp, #12]
  60 0028 1A60     		str	r2, [r3, #0]
  61              		.loc 1 48 0
  62 002a 039B     		ldr	r3, [sp, #12]
  63 002c 5A68     		ldr	r2, [r3, #4]
  64 002e 019B     		ldr	r3, [sp, #4]
  65 0030 5A60     		str	r2, [r3, #4]
  66              		.loc 1 49 0
  67 0032 019B     		ldr	r3, [sp, #4]
  68 0034 5B68     		ldr	r3, [r3, #4]
  69 0036 039A     		ldr	r2, [sp, #12]
  70 0038 0199     		ldr	r1, [sp, #4]
  71 003a 5160     		str	r1, [r2, #4]
  72 003c 039A     		ldr	r2, [sp, #12]
  73 003e 5268     		ldr	r2, [r2, #4]
  74 0040 1A60     		str	r2, [r3, #0]
  75              		.loc 1 50 0
  76 0042 04B0     		add	sp, sp, #16
  77 0044 7047     		bx	lr
  78              		.cfi_endproc
  79              	.LFE0:
  80              		.size	prio_insert, .-prio_insert
  81 0046 00BFAFF3 		.section	.text.fifo_remove,"ax",%progbits
  81      0080AFF3 
  81      0080
  82              		.align	2
  83              		.p2align 4,,15
  84              		.thumb
  85              		.thumb_func
  86              		.type	fifo_remove, %function
  87              	fifo_remove:
  88              	.LFB2:
  89              		.loc 1 59 0
  90              		.cfi_startproc
  91              		@ args = 0, pretend = 0, frame = 16
  92              		@ frame_needed = 0, uses_anonymous_args = 0
  93              		@ link register save eliminated.
  94 0000 84B0     		sub	sp, sp, #16
  95              	.LCFI1:
  96              		.cfi_def_cfa_offset 16
  97 0002 0190     		str	r0, [sp, #4]
  98              		.loc 1 60 0
  99 0004 019B     		ldr	r3, [sp, #4]
 100 0006 1B68     		ldr	r3, [r3, #0]
 101 0008 0393     		str	r3, [sp, #12]
 102              		.loc 1 62 0
 103 000a 039B     		ldr	r3, [sp, #12]
 104 000c 1A68     		ldr	r2, [r3, #0]
 105 000e 019B     		ldr	r3, [sp, #4]
 106 0010 1A60     		str	r2, [r3, #0]
 107 0012 019B     		ldr	r3, [sp, #4]
 108 0014 1B68     		ldr	r3, [r3, #0]
 109 0016 019A     		ldr	r2, [sp, #4]
 110 0018 5A60     		str	r2, [r3, #4]
 111              		.loc 1 63 0
 112 001a 039B     		ldr	r3, [sp, #12]
ARM GAS  C:\Users\z80\AppData\Local\Temp\ccAfkxle.s 			page 3


 113              		.loc 1 64 0
 114 001c 1846     		mov	r0, r3
 115 001e 04B0     		add	sp, sp, #16
 116 0020 7047     		bx	lr
 117              		.cfi_endproc
 118              	.LFE2:
 119              		.size	fifo_remove, .-fifo_remove
 120 0022 00BFAFF3 		.section	.rodata
 120      0080AFF3 
 120      0080AFF3 
 120      0080
 121              		.align	2
 122              	.LC0:
 123 0000 22636843 		.ascii	"\"chCondInit\"()\000"
 123      6F6E6449 
 123      6E697422 
 123      282900
 124              		.section	.text.chCondInit,"ax",%progbits
 125              		.align	2
 126              		.p2align 4,,15
 127              		.global	chCondInit
 128              		.thumb
 129              		.thumb_func
 130              		.type	chCondInit, %function
 131              	chCondInit:
 132              	.LFB7:
 133              		.file 2 "../chibios_2.4.x/os/kernel/src/chcond.c"
 134              		.loc 2 59 0
 135              		.cfi_startproc
 136              		@ args = 0, pretend = 0, frame = 8
 137              		@ frame_needed = 0, uses_anonymous_args = 0
 138 0000 00B5     		push	{lr}
 139              	.LCFI2:
 140              		.cfi_def_cfa_offset 4
 141              		.cfi_offset 14, -4
 142 0002 83B0     		sub	sp, sp, #12
 143              	.LCFI3:
 144              		.cfi_def_cfa_offset 16
 145 0004 0190     		str	r0, [sp, #4]
 146              		.loc 2 61 0
 147 0006 019B     		ldr	r3, [sp, #4]
 148 0008 002B     		cmp	r3, #0
 149 000a 05D1     		bne	.L6
 150              		.loc 2 61 0 is_stmt 0 discriminator 1
 151 000c 40F20000 		movw	r0, #:lower16:.LC0
 152 0010 C0F20000 		movt	r0, #:upper16:.LC0
 153 0014 FFF7FEFF 		bl	chDbgPanic
 154              	.L6:
 155              		.loc 2 63 0 is_stmt 1
 156 0018 019A     		ldr	r2, [sp, #4]
 157 001a 019B     		ldr	r3, [sp, #4]
 158 001c 5A60     		str	r2, [r3, #4]
 159 001e 019B     		ldr	r3, [sp, #4]
 160 0020 5A68     		ldr	r2, [r3, #4]
 161 0022 019B     		ldr	r3, [sp, #4]
 162 0024 1A60     		str	r2, [r3, #0]
 163              		.loc 2 64 0
ARM GAS  C:\Users\z80\AppData\Local\Temp\ccAfkxle.s 			page 4


 164 0026 03B0     		add	sp, sp, #12
 165 0028 00BD     		pop	{pc}
 166              		.cfi_endproc
 167              	.LFE7:
 168              		.size	chCondInit, .-chCondInit
 169 002a 00BFAFF3 		.section	.rodata
 169      0080
 170 000f 00       		.align	2
 171              	.LC1:
 172 0010 22636843 		.ascii	"\"chCondSignal\"()\000"
 172      6F6E6453 
 172      69676E61 
 172      6C222829 
 172      00
 173              		.section	.text.chCondSignal,"ax",%progbits
 174              		.align	2
 175              		.p2align 4,,15
 176              		.global	chCondSignal
 177              		.thumb
 178              		.thumb_func
 179              		.type	chCondSignal, %function
 180              	chCondSignal:
 181              	.LFB8:
 182              		.loc 2 73 0
 183              		.cfi_startproc
 184              		@ args = 0, pretend = 0, frame = 8
 185              		@ frame_needed = 0, uses_anonymous_args = 0
 186 0000 00B5     		push	{lr}
 187              	.LCFI4:
 188              		.cfi_def_cfa_offset 4
 189              		.cfi_offset 14, -4
 190 0002 83B0     		sub	sp, sp, #12
 191              	.LCFI5:
 192              		.cfi_def_cfa_offset 16
 193 0004 0190     		str	r0, [sp, #4]
 194              		.loc 2 75 0
 195 0006 019B     		ldr	r3, [sp, #4]
 196 0008 002B     		cmp	r3, #0
 197 000a 05D1     		bne	.L8
 198              		.loc 2 75 0 is_stmt 0 discriminator 1
 199 000c 40F20000 		movw	r0, #:lower16:.LC1
 200 0010 C0F20000 		movt	r0, #:upper16:.LC1
 201 0014 FFF7FEFF 		bl	chDbgPanic
 202              	.L8:
 203              	.LBB2:
 204              		.loc 2 77 0 is_stmt 1
 205 0018 4FF02003 		mov	r3, #32
 206              	@ 77 "../chibios_2.4.x/os/kernel/src/chcond.c" 1
 207 001c 83F31188 		msr     BASEPRI, r3
 208              	@ 0 "" 2
 209              		.thumb
 210              	.LBE2:
 211 0020 FFF7FEFF 		bl	dbg_check_lock
 212              		.loc 2 78 0
 213 0024 019B     		ldr	r3, [sp, #4]
 214 0026 1A68     		ldr	r2, [r3, #0]
 215 0028 019B     		ldr	r3, [sp, #4]
ARM GAS  C:\Users\z80\AppData\Local\Temp\ccAfkxle.s 			page 5


 216 002a 9A42     		cmp	r2, r3
 217 002c 09D0     		beq	.L9
 218              		.loc 2 79 0
 219 002e 019B     		ldr	r3, [sp, #4]
 220 0030 1846     		mov	r0, r3
 221 0032 FFF7FEFF 		bl	fifo_remove
 222 0036 0346     		mov	r3, r0
 223 0038 1846     		mov	r0, r3
 224 003a 4FF00001 		mov	r1, #0
 225 003e FFF7FEFF 		bl	chSchWakeupS
 226              	.L9:
 227              		.loc 2 80 0
 228 0042 FFF7FEFF 		bl	dbg_check_unlock
 229              	.LBB3:
 230 0046 4FF00003 		mov	r3, #0
 231              	@ 80 "../chibios_2.4.x/os/kernel/src/chcond.c" 1
 232 004a 83F31188 		msr     BASEPRI, r3
 233              	@ 0 "" 2
 234              		.thumb
 235              	.LBE3:
 236              		.loc 2 81 0
 237 004e 03B0     		add	sp, sp, #12
 238 0050 00BD     		pop	{pc}
 239              		.cfi_endproc
 240              	.LFE8:
 241              		.size	chCondSignal, .-chCondSignal
 242 0052 00BFAFF3 		.section	.rodata
 242      0080AFF3 
 242      0080AFF3 
 242      0080
 243 0021 000000   		.align	2
 244              	.LC2:
 245 0024 22636843 		.ascii	"\"chCondSignalI\"()\000"
 245      6F6E6453 
 245      69676E61 
 245      6C492228 
 245      2900
 246              		.section	.text.chCondSignalI,"ax",%progbits
 247              		.align	2
 248              		.p2align 4,,15
 249              		.global	chCondSignalI
 250              		.thumb
 251              		.thumb_func
 252              		.type	chCondSignalI, %function
 253              	chCondSignalI:
 254              	.LFB9:
 255              		.loc 2 94 0
 256              		.cfi_startproc
 257              		@ args = 0, pretend = 0, frame = 8
 258              		@ frame_needed = 0, uses_anonymous_args = 0
 259 0000 00B5     		push	{lr}
 260              	.LCFI6:
 261              		.cfi_def_cfa_offset 4
 262              		.cfi_offset 14, -4
 263 0002 83B0     		sub	sp, sp, #12
 264              	.LCFI7:
 265              		.cfi_def_cfa_offset 16
ARM GAS  C:\Users\z80\AppData\Local\Temp\ccAfkxle.s 			page 6


 266 0004 0190     		str	r0, [sp, #4]
 267              		.loc 2 96 0
 268 0006 FFF7FEFF 		bl	chDbgCheckClassI
 269              		.loc 2 97 0
 270 000a 019B     		ldr	r3, [sp, #4]
 271 000c 002B     		cmp	r3, #0
 272 000e 05D1     		bne	.L11
 273              		.loc 2 97 0 is_stmt 0 discriminator 1
 274 0010 40F20000 		movw	r0, #:lower16:.LC2
 275 0014 C0F20000 		movt	r0, #:upper16:.LC2
 276 0018 FFF7FEFF 		bl	chDbgPanic
 277              	.L11:
 278              		.loc 2 99 0 is_stmt 1
 279 001c 019B     		ldr	r3, [sp, #4]
 280 001e 1A68     		ldr	r2, [r3, #0]
 281 0020 019B     		ldr	r3, [sp, #4]
 282 0022 9A42     		cmp	r2, r3
 283 0024 0BD0     		beq	.L10
 284              		.loc 2 100 0
 285 0026 019B     		ldr	r3, [sp, #4]
 286 0028 1846     		mov	r0, r3
 287 002a FFF7FEFF 		bl	fifo_remove
 288 002e 0346     		mov	r3, r0
 289 0030 1846     		mov	r0, r3
 290 0032 FFF7FEFF 		bl	chSchReadyI
 291 0036 0346     		mov	r3, r0
 292 0038 4FF00002 		mov	r2, #0
 293 003c 9A62     		str	r2, [r3, #40]
 294              	.L10:
 295              		.loc 2 101 0
 296 003e 03B0     		add	sp, sp, #12
 297 0040 00BD     		pop	{pc}
 298              		.cfi_endproc
 299              	.LFE9:
 300              		.size	chCondSignalI, .-chCondSignalI
 301 0042 00BFAFF3 		.section	.text.chCondBroadcast,"ax",%progbits
 301      0080AFF3 
 301      0080AFF3 
 301      0080
 302              		.align	2
 303              		.p2align 4,,15
 304              		.global	chCondBroadcast
 305              		.thumb
 306              		.thumb_func
 307              		.type	chCondBroadcast, %function
 308              	chCondBroadcast:
 309              	.LFB10:
 310              		.loc 2 110 0
 311              		.cfi_startproc
 312              		@ args = 0, pretend = 0, frame = 8
 313              		@ frame_needed = 0, uses_anonymous_args = 0
 314 0000 00B5     		push	{lr}
 315              	.LCFI8:
 316              		.cfi_def_cfa_offset 4
 317              		.cfi_offset 14, -4
 318 0002 83B0     		sub	sp, sp, #12
 319              	.LCFI9:
ARM GAS  C:\Users\z80\AppData\Local\Temp\ccAfkxle.s 			page 7


 320              		.cfi_def_cfa_offset 16
 321 0004 0190     		str	r0, [sp, #4]
 322              	.LBB4:
 323              		.loc 2 112 0
 324 0006 4FF02003 		mov	r3, #32
 325              	@ 112 "../chibios_2.4.x/os/kernel/src/chcond.c" 1
 326 000a 83F31188 		msr     BASEPRI, r3
 327              	@ 0 "" 2
 328              		.thumb
 329              	.LBE4:
 330 000e FFF7FEFF 		bl	dbg_check_lock
 331              		.loc 2 113 0
 332 0012 0198     		ldr	r0, [sp, #4]
 333 0014 FFF7FEFF 		bl	chCondBroadcastI
 334              		.loc 2 114 0
 335 0018 FFF7FEFF 		bl	chSchRescheduleS
 336              		.loc 2 115 0
 337 001c FFF7FEFF 		bl	dbg_check_unlock
 338              	.LBB5:
 339 0020 4FF00003 		mov	r3, #0
 340              	@ 115 "../chibios_2.4.x/os/kernel/src/chcond.c" 1
 341 0024 83F31188 		msr     BASEPRI, r3
 342              	@ 0 "" 2
 343              		.thumb
 344              	.LBE5:
 345              		.loc 2 116 0
 346 0028 03B0     		add	sp, sp, #12
 347 002a 00BD     		pop	{pc}
 348              		.cfi_endproc
 349              	.LFE10:
 350              		.size	chCondBroadcast, .-chCondBroadcast
 351 002c AFF30080 		.section	.rodata
 352 0036 0000     		.align	2
 353              	.LC3:
 354 0038 22636843 		.ascii	"\"chCondBroadcastI\"()\000"
 354      6F6E6442 
 354      726F6164 
 354      63617374 
 354      49222829 
 355              		.section	.text.chCondBroadcastI,"ax",%progbits
 356              		.align	2
 357              		.p2align 4,,15
 358              		.global	chCondBroadcastI
 359              		.thumb
 360              		.thumb_func
 361              		.type	chCondBroadcastI, %function
 362              	chCondBroadcastI:
 363              	.LFB11:
 364              		.loc 2 129 0
 365              		.cfi_startproc
 366              		@ args = 0, pretend = 0, frame = 8
 367              		@ frame_needed = 0, uses_anonymous_args = 0
 368 0000 00B5     		push	{lr}
 369              	.LCFI10:
 370              		.cfi_def_cfa_offset 4
 371              		.cfi_offset 14, -4
 372 0002 83B0     		sub	sp, sp, #12
ARM GAS  C:\Users\z80\AppData\Local\Temp\ccAfkxle.s 			page 8


 373              	.LCFI11:
 374              		.cfi_def_cfa_offset 16
 375 0004 0190     		str	r0, [sp, #4]
 376              		.loc 2 131 0
 377 0006 FFF7FEFF 		bl	chDbgCheckClassI
 378              		.loc 2 132 0
 379 000a 019B     		ldr	r3, [sp, #4]
 380 000c 002B     		cmp	r3, #0
 381 000e 13D1     		bne	.L18
 382              		.loc 2 132 0 is_stmt 0 discriminator 1
 383 0010 40F20000 		movw	r0, #:lower16:.LC3
 384 0014 C0F20000 		movt	r0, #:upper16:.LC3
 385 0018 FFF7FEFF 		bl	chDbgPanic
 386              		.loc 2 137 0 is_stmt 1 discriminator 1
 387 001c 0CE0     		b	.L18
 388              	.L17:
 389              		.loc 2 138 0
 390 001e 019B     		ldr	r3, [sp, #4]
 391 0020 1846     		mov	r0, r3
 392 0022 FFF7FEFF 		bl	fifo_remove
 393 0026 0346     		mov	r3, r0
 394 0028 1846     		mov	r0, r3
 395 002a FFF7FEFF 		bl	chSchReadyI
 396 002e 0346     		mov	r3, r0
 397 0030 6FF00102 		mvn	r2, #1
 398 0034 9A62     		str	r2, [r3, #40]
 399 0036 00E0     		b	.L16
 400              	.L18:
 401              		.loc 2 137 0
 402 0038 00BF     		nop
 403              	.L16:
 404              		.loc 2 137 0 is_stmt 0 discriminator 1
 405 003a 019B     		ldr	r3, [sp, #4]
 406 003c 1A68     		ldr	r2, [r3, #0]
 407 003e 019B     		ldr	r3, [sp, #4]
 408 0040 9A42     		cmp	r2, r3
 409 0042 ECD1     		bne	.L17
 410              		.loc 2 139 0 is_stmt 1
 411 0044 03B0     		add	sp, sp, #12
 412 0046 00BD     		pop	{pc}
 413              		.cfi_endproc
 414              	.LFE11:
 415              		.size	chCondBroadcastI, .-chCondBroadcastI
 416 0048 AFF30080 		.section	.text.chCondWait,"ax",%progbits
 416      AFF30080 
 417              		.align	2
 418              		.p2align 4,,15
 419              		.global	chCondWait
 420              		.thumb
 421              		.thumb_func
 422              		.type	chCondWait, %function
 423              	chCondWait:
 424              	.LFB12:
 425              		.loc 2 158 0
 426              		.cfi_startproc
 427              		@ args = 0, pretend = 0, frame = 16
 428              		@ frame_needed = 0, uses_anonymous_args = 0
ARM GAS  C:\Users\z80\AppData\Local\Temp\ccAfkxle.s 			page 9


 429 0000 00B5     		push	{lr}
 430              	.LCFI12:
 431              		.cfi_def_cfa_offset 4
 432              		.cfi_offset 14, -4
 433 0002 85B0     		sub	sp, sp, #20
 434              	.LCFI13:
 435              		.cfi_def_cfa_offset 24
 436 0004 0190     		str	r0, [sp, #4]
 437              	.LBB6:
 438              		.loc 2 161 0
 439 0006 4FF02003 		mov	r3, #32
 440              	@ 161 "../chibios_2.4.x/os/kernel/src/chcond.c" 1
 441 000a 83F31188 		msr     BASEPRI, r3
 442              	@ 0 "" 2
 443              		.thumb
 444              	.LBE6:
 445 000e FFF7FEFF 		bl	dbg_check_lock
 446              		.loc 2 162 0
 447 0012 0198     		ldr	r0, [sp, #4]
 448 0014 FFF7FEFF 		bl	chCondWaitS
 449 0018 0390     		str	r0, [sp, #12]
 450              		.loc 2 163 0
 451 001a FFF7FEFF 		bl	dbg_check_unlock
 452              	.LBB7:
 453 001e 4FF00003 		mov	r3, #0
 454              	@ 163 "../chibios_2.4.x/os/kernel/src/chcond.c" 1
 455 0022 83F31188 		msr     BASEPRI, r3
 456              	@ 0 "" 2
 457              		.thumb
 458              	.LBE7:
 459              		.loc 2 164 0
 460 0026 039B     		ldr	r3, [sp, #12]
 461              		.loc 2 165 0
 462 0028 1846     		mov	r0, r3
 463 002a 05B0     		add	sp, sp, #20
 464 002c 00BD     		pop	{pc}
 465              		.cfi_endproc
 466              	.LFE12:
 467              		.size	chCondWait, .-chCondWait
 468 002e 00BF     		.section	.rodata
 469 004d 000000   		.align	2
 470              	.LC4:
 471 0050 22636843 		.ascii	"\"chCondWaitS\"()\000"
 471      6F6E6457 
 471      61697453 
 471      22282900 
 472              		.align	2
 473              	.LC5:
 474 0060 6368436F 		.ascii	"chCondWaitS(), #1\000"
 474      6E645761 
 474      69745328 
 474      292C2023 
 474      3100
 475              		.section	.text.chCondWaitS,"ax",%progbits
 476              		.align	2
 477              		.p2align 4,,15
 478              		.global	chCondWaitS
ARM GAS  C:\Users\z80\AppData\Local\Temp\ccAfkxle.s 			page 10


 479              		.thumb
 480              		.thumb_func
 481              		.type	chCondWaitS, %function
 482              	chCondWaitS:
 483              	.LFB13:
 484              		.loc 2 184 0
 485              		.cfi_startproc
 486              		@ args = 0, pretend = 0, frame = 24
 487              		@ frame_needed = 0, uses_anonymous_args = 0
 488 0000 00B5     		push	{lr}
 489              	.LCFI14:
 490              		.cfi_def_cfa_offset 4
 491              		.cfi_offset 14, -4
 492 0002 87B0     		sub	sp, sp, #28
 493              	.LCFI15:
 494              		.cfi_def_cfa_offset 32
 495 0004 0190     		str	r0, [sp, #4]
 496              		.loc 2 185 0
 497 0006 40F20003 		movw	r3, #:lower16:rlist
 498 000a C0F20003 		movt	r3, #:upper16:rlist
 499 000e DB69     		ldr	r3, [r3, #28]
 500 0010 0593     		str	r3, [sp, #20]
 501              		.loc 2 189 0
 502 0012 FFF7FEFF 		bl	chDbgCheckClassS
 503              		.loc 2 190 0
 504 0016 019B     		ldr	r3, [sp, #4]
 505 0018 002B     		cmp	r3, #0
 506 001a 05D1     		bne	.L21
 507              		.loc 2 190 0 is_stmt 0 discriminator 1
 508 001c 40F20000 		movw	r0, #:lower16:.LC4
 509 0020 C0F20000 		movt	r0, #:upper16:.LC4
 510 0024 FFF7FEFF 		bl	chDbgPanic
 511              	.L21:
 512              		.loc 2 191 0 is_stmt 1
 513 0028 059B     		ldr	r3, [sp, #20]
 514 002a 1B6C     		ldr	r3, [r3, #64]
 515 002c 002B     		cmp	r3, #0
 516 002e 05D1     		bne	.L22
 517              		.loc 2 191 0 is_stmt 0 discriminator 1
 518 0030 40F20000 		movw	r0, #:lower16:.LC5
 519 0034 C0F20000 		movt	r0, #:upper16:.LC5
 520 0038 FFF7FEFF 		bl	chDbgPanic
 521              	.L22:
 522              		.loc 2 195 0 is_stmt 1
 523 003c FFF7FEFF 		bl	chMtxUnlockS
 524 0040 0490     		str	r0, [sp, #16]
 525              		.loc 2 196 0
 526 0042 059B     		ldr	r3, [sp, #20]
 527 0044 019A     		ldr	r2, [sp, #4]
 528 0046 9A62     		str	r2, [r3, #40]
 529              		.loc 2 197 0
 530 0048 019B     		ldr	r3, [sp, #4]
 531 004a 0598     		ldr	r0, [sp, #20]
 532 004c 1946     		mov	r1, r3
 533 004e FFF7FEFF 		bl	prio_insert
 534              		.loc 2 198 0
 535 0052 4FF00500 		mov	r0, #5
ARM GAS  C:\Users\z80\AppData\Local\Temp\ccAfkxle.s 			page 11


 536 0056 FFF7FEFF 		bl	chSchGoSleepS
 537              		.loc 2 199 0
 538 005a 059B     		ldr	r3, [sp, #20]
 539 005c 9B6A     		ldr	r3, [r3, #40]
 540 005e 0393     		str	r3, [sp, #12]
 541              		.loc 2 200 0
 542 0060 0498     		ldr	r0, [sp, #16]
 543 0062 FFF7FEFF 		bl	chMtxLockS
 544              		.loc 2 201 0
 545 0066 039B     		ldr	r3, [sp, #12]
 546              		.loc 2 202 0
 547 0068 1846     		mov	r0, r3
 548 006a 07B0     		add	sp, sp, #28
 549 006c 00BD     		pop	{pc}
 550              		.cfi_endproc
 551              	.LFE13:
 552              		.size	chCondWaitS, .-chCondWaitS
 553 006e 00BF     		.section	.text.chCondWaitTimeout,"ax",%progbits
 554              		.align	2
 555              		.p2align 4,,15
 556              		.global	chCondWaitTimeout
 557              		.thumb
 558              		.thumb_func
 559              		.type	chCondWaitTimeout, %function
 560              	chCondWaitTimeout:
 561              	.LFB14:
 562              		.loc 2 233 0
 563              		.cfi_startproc
 564              		@ args = 0, pretend = 0, frame = 16
 565              		@ frame_needed = 0, uses_anonymous_args = 0
 566 0000 00B5     		push	{lr}
 567              	.LCFI16:
 568              		.cfi_def_cfa_offset 4
 569              		.cfi_offset 14, -4
 570 0002 85B0     		sub	sp, sp, #20
 571              	.LCFI17:
 572              		.cfi_def_cfa_offset 24
 573 0004 0190     		str	r0, [sp, #4]
 574 0006 0091     		str	r1, [sp, #0]
 575              	.LBB8:
 576              		.loc 2 236 0
 577 0008 4FF02003 		mov	r3, #32
 578              	@ 236 "../chibios_2.4.x/os/kernel/src/chcond.c" 1
 579 000c 83F31188 		msr     BASEPRI, r3
 580              	@ 0 "" 2
 581              		.thumb
 582              	.LBE8:
 583 0010 FFF7FEFF 		bl	dbg_check_lock
 584              		.loc 2 237 0
 585 0014 0198     		ldr	r0, [sp, #4]
 586 0016 0099     		ldr	r1, [sp, #0]
 587 0018 FFF7FEFF 		bl	chCondWaitTimeoutS
 588 001c 0390     		str	r0, [sp, #12]
 589              		.loc 2 238 0
 590 001e FFF7FEFF 		bl	dbg_check_unlock
 591              	.LBB9:
 592 0022 4FF00003 		mov	r3, #0
ARM GAS  C:\Users\z80\AppData\Local\Temp\ccAfkxle.s 			page 12


 593              	@ 238 "../chibios_2.4.x/os/kernel/src/chcond.c" 1
 594 0026 83F31188 		msr     BASEPRI, r3
 595              	@ 0 "" 2
 596              		.thumb
 597              	.LBE9:
 598              		.loc 2 239 0
 599 002a 039B     		ldr	r3, [sp, #12]
 600              		.loc 2 240 0
 601 002c 1846     		mov	r0, r3
 602 002e 05B0     		add	sp, sp, #20
 603 0030 00BD     		pop	{pc}
 604              		.cfi_endproc
 605              	.LFE14:
 606              		.size	chCondWaitTimeout, .-chCondWaitTimeout
 607 0032 00BFAFF3 		.section	.rodata
 607      0080AFF3 
 607      0080AFF3 
 607      0080
 608 0072 0000     		.align	2
 609              	.LC6:
 610 0074 22636843 		.ascii	"\"chCondWaitTimeoutS\"()\000"
 610      6F6E6457 
 610      61697454 
 610      696D656F 
 610      75745322 
 611 008b 00       		.align	2
 612              	.LC7:
 613 008c 6368436F 		.ascii	"chCondWaitTimeoutS(), #1\000"
 613      6E645761 
 613      69745469 
 613      6D656F75 
 613      74532829 
 614 00a5 000000   		.section	.text.chCondWaitTimeoutS,"ax",%progbits
 615              		.align	2
 616              		.p2align 4,,15
 617              		.global	chCondWaitTimeoutS
 618              		.thumb
 619              		.thumb_func
 620              		.type	chCondWaitTimeoutS, %function
 621              	chCondWaitTimeoutS:
 622              	.LFB15:
 623              		.loc 2 270 0
 624              		.cfi_startproc
 625              		@ args = 0, pretend = 0, frame = 16
 626              		@ frame_needed = 0, uses_anonymous_args = 0
 627 0000 00B5     		push	{lr}
 628              	.LCFI18:
 629              		.cfi_def_cfa_offset 4
 630              		.cfi_offset 14, -4
 631 0002 85B0     		sub	sp, sp, #20
 632              	.LCFI19:
 633              		.cfi_def_cfa_offset 24
 634 0004 0190     		str	r0, [sp, #4]
 635 0006 0091     		str	r1, [sp, #0]
 636              		.loc 2 274 0
 637 0008 FFF7FEFF 		bl	chDbgCheckClassS
 638              		.loc 2 275 0
ARM GAS  C:\Users\z80\AppData\Local\Temp\ccAfkxle.s 			page 13


 639 000c 019B     		ldr	r3, [sp, #4]
 640 000e 002B     		cmp	r3, #0
 641 0010 02D0     		beq	.L25
 642              		.loc 2 275 0 is_stmt 0 discriminator 2
 643 0012 009B     		ldr	r3, [sp, #0]
 644 0014 002B     		cmp	r3, #0
 645 0016 05D1     		bne	.L26
 646              	.L25:
 647              		.loc 2 275 0 discriminator 1
 648 0018 40F20000 		movw	r0, #:lower16:.LC6
 649 001c C0F20000 		movt	r0, #:upper16:.LC6
 650 0020 FFF7FEFF 		bl	chDbgPanic
 651              	.L26:
 652              		.loc 2 276 0 is_stmt 1
 653 0024 40F20003 		movw	r3, #:lower16:rlist
 654 0028 C0F20003 		movt	r3, #:upper16:rlist
 655 002c DB69     		ldr	r3, [r3, #28]
 656 002e 1B6C     		ldr	r3, [r3, #64]
 657 0030 002B     		cmp	r3, #0
 658 0032 05D1     		bne	.L27
 659              		.loc 2 276 0 is_stmt 0 discriminator 1
 660 0034 40F20000 		movw	r0, #:lower16:.LC7
 661 0038 C0F20000 		movt	r0, #:upper16:.LC7
 662 003c FFF7FEFF 		bl	chDbgPanic
 663              	.L27:
 664              		.loc 2 280 0 is_stmt 1
 665 0040 FFF7FEFF 		bl	chMtxUnlockS
 666 0044 0390     		str	r0, [sp, #12]
 667              		.loc 2 281 0
 668 0046 40F20003 		movw	r3, #:lower16:rlist
 669 004a C0F20003 		movt	r3, #:upper16:rlist
 670 004e DB69     		ldr	r3, [r3, #28]
 671 0050 019A     		ldr	r2, [sp, #4]
 672 0052 9A62     		str	r2, [r3, #40]
 673              		.loc 2 282 0
 674 0054 40F20003 		movw	r3, #:lower16:rlist
 675 0058 C0F20003 		movt	r3, #:upper16:rlist
 676 005c DA69     		ldr	r2, [r3, #28]
 677 005e 019B     		ldr	r3, [sp, #4]
 678 0060 1046     		mov	r0, r2
 679 0062 1946     		mov	r1, r3
 680 0064 FFF7FEFF 		bl	prio_insert
 681              		.loc 2 283 0
 682 0068 4FF00500 		mov	r0, #5
 683 006c 0099     		ldr	r1, [sp, #0]
 684 006e FFF7FEFF 		bl	chSchGoSleepTimeoutS
 685 0072 0290     		str	r0, [sp, #8]
 686              		.loc 2 284 0
 687 0074 029B     		ldr	r3, [sp, #8]
 688 0076 B3F1FF3F 		cmp	r3, #-1
 689 007a 02D0     		beq	.L28
 690              		.loc 2 285 0
 691 007c 0398     		ldr	r0, [sp, #12]
 692 007e FFF7FEFF 		bl	chMtxLockS
 693              	.L28:
 694              		.loc 2 286 0
 695 0082 029B     		ldr	r3, [sp, #8]
ARM GAS  C:\Users\z80\AppData\Local\Temp\ccAfkxle.s 			page 14


 696              		.loc 2 287 0
 697 0084 1846     		mov	r0, r3
 698 0086 05B0     		add	sp, sp, #20
 699 0088 00BD     		pop	{pc}
 700              		.cfi_endproc
 701              	.LFE15:
 702              		.size	chCondWaitTimeoutS, .-chCondWaitTimeoutS
 703 008a 00BFAFF3 		.text
 703      0080
 704              	.Letext0:
 705              		.file 3 "c:\\programs\\codesourcery\\2011.03-56\\bin\\../lib/gcc/arm-none-eabi/4.6.3/../../../../a
 706              		.file 4 "../chibios_2.4.x/os/ports/GCC/ARMCMx/chtypes.h"
 707              		.file 5 "../chibios_2.4.x/os/kernel/include/chlists.h"
 708              		.file 6 "../chibios_2.4.x/os/kernel/include/chthreads.h"
 709              		.file 7 "../chibios_2.4.x/os/ports/GCC/ARMCMx/chcore_v7m.h"
 710              		.file 8 "../chibios_2.4.x/os/kernel/include/chschd.h"
 711              		.file 9 "../chibios_2.4.x/os/kernel/include/chmtx.h"
 712              		.file 10 "../chibios_2.4.x/os/kernel/include/chcond.h"
 713              		.section	.debug_info,"",%progbits
 714              	.Ldebug_info0:
 715 0000 9F070000 		.4byte	0x79f
 716 0004 0200     		.2byte	0x2
 717 0006 00000000 		.4byte	.Ldebug_abbrev0
 718 000a 04       		.byte	0x4
 719 000b 01       		.uleb128 0x1
 720 000c 62020000 		.4byte	.LASF73
 721 0010 01       		.byte	0x1
 722 0011 A7020000 		.4byte	.LASF74
 723 0015 7B000000 		.4byte	.LASF75
 724 0019 00000000 		.4byte	0
 725 001d 00000000 		.4byte	0
 726 0021 00000000 		.4byte	.Ldebug_ranges0+0
 727 0025 00000000 		.4byte	.Ldebug_line0
 728 0029 02       		.uleb128 0x2
 729 002a 04       		.byte	0x4
 730 002b 05       		.byte	0x5
 731 002c 696E7400 		.ascii	"int\000"
 732 0030 03       		.uleb128 0x3
 733 0031 04       		.byte	0x4
 734 0032 07       		.byte	0x7
 735 0033 F9000000 		.4byte	.LASF0
 736 0037 03       		.uleb128 0x3
 737 0038 01       		.byte	0x1
 738 0039 06       		.byte	0x6
 739 003a 67000000 		.4byte	.LASF1
 740 003e 04       		.uleb128 0x4
 741 003f 03030000 		.4byte	.LASF5
 742 0043 03       		.byte	0x3
 743 0044 2A       		.byte	0x2a
 744 0045 49000000 		.4byte	0x49
 745 0049 03       		.uleb128 0x3
 746 004a 01       		.byte	0x1
 747 004b 08       		.byte	0x8
 748 004c F0010000 		.4byte	.LASF2
 749 0050 03       		.uleb128 0x3
 750 0051 02       		.byte	0x2
 751 0052 05       		.byte	0x5
ARM GAS  C:\Users\z80\AppData\Local\Temp\ccAfkxle.s 			page 15


 752 0053 08020000 		.4byte	.LASF3
 753 0057 03       		.uleb128 0x3
 754 0058 02       		.byte	0x2
 755 0059 07       		.byte	0x7
 756 005a 20010000 		.4byte	.LASF4
 757 005e 04       		.uleb128 0x4
 758 005f E8010000 		.4byte	.LASF6
 759 0063 03       		.byte	0x3
 760 0064 4F       		.byte	0x4f
 761 0065 69000000 		.4byte	0x69
 762 0069 03       		.uleb128 0x3
 763 006a 04       		.byte	0x4
 764 006b 05       		.byte	0x5
 765 006c B0000000 		.4byte	.LASF7
 766 0070 04       		.uleb128 0x4
 767 0071 51020000 		.4byte	.LASF8
 768 0075 03       		.byte	0x3
 769 0076 50       		.byte	0x50
 770 0077 7B000000 		.4byte	0x7b
 771 007b 03       		.uleb128 0x3
 772 007c 04       		.byte	0x4
 773 007d 07       		.byte	0x7
 774 007e 06010000 		.4byte	.LASF9
 775 0082 03       		.uleb128 0x3
 776 0083 08       		.byte	0x8
 777 0084 05       		.byte	0x5
 778 0085 59000000 		.4byte	.LASF10
 779 0089 04       		.uleb128 0x4
 780 008a 18000000 		.4byte	.LASF11
 781 008e 03       		.byte	0x3
 782 008f 78       		.byte	0x78
 783 0090 94000000 		.4byte	0x94
 784 0094 03       		.uleb128 0x3
 785 0095 08       		.byte	0x8
 786 0096 07       		.byte	0x7
 787 0097 21000000 		.4byte	.LASF12
 788 009b 04       		.uleb128 0x4
 789 009c 45010000 		.4byte	.LASF13
 790 00a0 04       		.byte	0x4
 791 00a1 2F       		.byte	0x2f
 792 00a2 3E000000 		.4byte	0x3e
 793 00a6 04       		.uleb128 0x4
 794 00a7 B9000000 		.4byte	.LASF14
 795 00ab 04       		.byte	0x4
 796 00ac 30       		.byte	0x30
 797 00ad 3E000000 		.4byte	0x3e
 798 00b1 04       		.uleb128 0x4
 799 00b2 D2010000 		.4byte	.LASF15
 800 00b6 04       		.byte	0x4
 801 00b7 32       		.byte	0x32
 802 00b8 70000000 		.4byte	0x70
 803 00bc 04       		.uleb128 0x4
 804 00bd 33010000 		.4byte	.LASF16
 805 00c1 04       		.byte	0x4
 806 00c2 33       		.byte	0x33
 807 00c3 5E000000 		.4byte	0x5e
 808 00c7 04       		.uleb128 0x4
ARM GAS  C:\Users\z80\AppData\Local\Temp\ccAfkxle.s 			page 16


 809 00c8 59010000 		.4byte	.LASF17
 810 00cc 04       		.byte	0x4
 811 00cd 35       		.byte	0x35
 812 00ce 70000000 		.4byte	0x70
 813 00d2 04       		.uleb128 0x4
 814 00d3 92020000 		.4byte	.LASF18
 815 00d7 04       		.byte	0x4
 816 00d8 36       		.byte	0x36
 817 00d9 70000000 		.4byte	0x70
 818 00dd 04       		.uleb128 0x4
 819 00de E8000000 		.4byte	.LASF19
 820 00e2 04       		.byte	0x4
 821 00e3 37       		.byte	0x37
 822 00e4 5E000000 		.4byte	0x5e
 823 00e8 04       		.uleb128 0x4
 824 00e9 37020000 		.4byte	.LASF20
 825 00ed 05       		.byte	0x5
 826 00ee 2A       		.byte	0x2a
 827 00ef F3000000 		.4byte	0xf3
 828 00f3 05       		.uleb128 0x5
 829 00f4 37020000 		.4byte	.LASF20
 830 00f8 48       		.byte	0x48
 831 00f9 06       		.byte	0x6
 832 00fa 5E       		.byte	0x5e
 833 00fb FC010000 		.4byte	0x1fc
 834 00ff 06       		.uleb128 0x6
 835 0100 28020000 		.4byte	.LASF21
 836 0104 06       		.byte	0x6
 837 0105 5F       		.byte	0x5f
 838 0106 21020000 		.4byte	0x221
 839 010a 02       		.byte	0x2
 840 010b 23       		.byte	0x23
 841 010c 00       		.uleb128 0
 842 010d 06       		.uleb128 0x6
 843 010e CB010000 		.4byte	.LASF22
 844 0112 06       		.byte	0x6
 845 0113 61       		.byte	0x61
 846 0114 21020000 		.4byte	0x221
 847 0118 02       		.byte	0x2
 848 0119 23       		.byte	0x23
 849 011a 04       		.uleb128 0x4
 850 011b 06       		.uleb128 0x6
 851 011c 52000000 		.4byte	.LASF23
 852 0120 06       		.byte	0x6
 853 0121 63       		.byte	0x63
 854 0122 B1000000 		.4byte	0xb1
 855 0126 02       		.byte	0x2
 856 0127 23       		.byte	0x23
 857 0128 08       		.uleb128 0x8
 858 0129 06       		.uleb128 0x6
 859 012a 3D030000 		.4byte	.LASF24
 860 012e 06       		.byte	0x6
 861 012f 64       		.byte	0x64
 862 0130 F9020000 		.4byte	0x2f9
 863 0134 02       		.byte	0x2
 864 0135 23       		.byte	0x23
 865 0136 0C       		.uleb128 0xc
ARM GAS  C:\Users\z80\AppData\Local\Temp\ccAfkxle.s 			page 17


 866 0137 06       		.uleb128 0x6
 867 0138 C2000000 		.4byte	.LASF25
 868 013c 06       		.byte	0x6
 869 013d 66       		.byte	0x66
 870 013e 21020000 		.4byte	0x221
 871 0142 02       		.byte	0x2
 872 0143 23       		.byte	0x23
 873 0144 10       		.uleb128 0x10
 874 0145 06       		.uleb128 0x6
 875 0146 89010000 		.4byte	.LASF26
 876 014a 06       		.byte	0x6
 877 014b 67       		.byte	0x67
 878 014c 21020000 		.4byte	0x221
 879 0150 02       		.byte	0x2
 880 0151 23       		.byte	0x23
 881 0152 14       		.uleb128 0x14
 882 0153 06       		.uleb128 0x6
 883 0154 12030000 		.4byte	.LASF27
 884 0158 06       		.byte	0x6
 885 0159 6E       		.byte	0x6e
 886 015a 3A040000 		.4byte	0x43a
 887 015e 02       		.byte	0x2
 888 015f 23       		.byte	0x23
 889 0160 18       		.uleb128 0x18
 890 0161 06       		.uleb128 0x6
 891 0162 EE000000 		.4byte	.LASF28
 892 0166 06       		.byte	0x6
 893 0167 74       		.byte	0x74
 894 0168 4C040000 		.4byte	0x44c
 895 016c 02       		.byte	0x2
 896 016d 23       		.byte	0x23
 897 016e 1C       		.uleb128 0x1c
 898 016f 06       		.uleb128 0x6
 899 0170 12020000 		.4byte	.LASF29
 900 0174 06       		.byte	0x6
 901 0175 79       		.byte	0x79
 902 0176 A6000000 		.4byte	0xa6
 903 017a 02       		.byte	0x2
 904 017b 23       		.byte	0x23
 905 017c 20       		.uleb128 0x20
 906 017d 06       		.uleb128 0x6
 907 017e 2F020000 		.4byte	.LASF30
 908 0182 06       		.byte	0x6
 909 0183 7D       		.byte	0x7d
 910 0184 9B000000 		.4byte	0x9b
 911 0188 02       		.byte	0x2
 912 0189 23       		.byte	0x23
 913 018a 21       		.uleb128 0x21
 914 018b 06       		.uleb128 0x6
 915 018c DA020000 		.4byte	.LASF31
 916 0190 06       		.byte	0x6
 917 0191 89       		.byte	0x89
 918 0192 1C030000 		.4byte	0x31c
 919 0196 02       		.byte	0x2
 920 0197 23       		.byte	0x23
 921 0198 24       		.uleb128 0x24
 922 0199 07       		.uleb128 0x7
ARM GAS  C:\Users\z80\AppData\Local\Temp\ccAfkxle.s 			page 18


 923 019a 705F7500 		.ascii	"p_u\000"
 924 019e 06       		.byte	0x6
 925 019f AE       		.byte	0xae
 926 01a0 05040000 		.4byte	0x405
 927 01a4 02       		.byte	0x2
 928 01a5 23       		.byte	0x23
 929 01a6 28       		.uleb128 0x28
 930 01a7 06       		.uleb128 0x6
 931 01a8 43030000 		.4byte	.LASF32
 932 01ac 06       		.byte	0x6
 933 01ad B3       		.byte	0xb3
 934 01ae 49020000 		.4byte	0x249
 935 01b2 02       		.byte	0x2
 936 01b3 23       		.byte	0x23
 937 01b4 2C       		.uleb128 0x2c
 938 01b5 06       		.uleb128 0x6
 939 01b6 E8020000 		.4byte	.LASF33
 940 01ba 06       		.byte	0x6
 941 01bb B9       		.byte	0xb9
 942 01bc 27020000 		.4byte	0x227
 943 01c0 02       		.byte	0x2
 944 01c1 23       		.byte	0x23
 945 01c2 30       		.uleb128 0x30
 946 01c3 06       		.uleb128 0x6
 947 01c4 00000000 		.4byte	.LASF34
 948 01c8 06       		.byte	0x6
 949 01c9 BD       		.byte	0xbd
 950 01ca BC000000 		.4byte	0xbc
 951 01ce 02       		.byte	0x2
 952 01cf 23       		.byte	0x23
 953 01d0 38       		.uleb128 0x38
 954 01d1 06       		.uleb128 0x6
 955 01d2 46020000 		.4byte	.LASF35
 956 01d6 06       		.byte	0x6
 957 01d7 C3       		.byte	0xc3
 958 01d8 C7000000 		.4byte	0xc7
 959 01dc 02       		.byte	0x2
 960 01dd 23       		.byte	0x23
 961 01de 3C       		.uleb128 0x3c
 962 01df 06       		.uleb128 0x6
 963 01e0 FE010000 		.4byte	.LASF36
 964 01e4 06       		.byte	0x6
 965 01e5 CA       		.byte	0xca
 966 01e6 52040000 		.4byte	0x452
 967 01ea 02       		.byte	0x2
 968 01eb 23       		.byte	0x23
 969 01ec 40       		.uleb128 0x40
 970 01ed 06       		.uleb128 0x6
 971 01ee 9C020000 		.4byte	.LASF37
 972 01f2 06       		.byte	0x6
 973 01f3 CE       		.byte	0xce
 974 01f4 B1000000 		.4byte	0xb1
 975 01f8 02       		.byte	0x2
 976 01f9 23       		.byte	0x23
 977 01fa 44       		.uleb128 0x44
 978 01fb 00       		.byte	0
 979 01fc 08       		.uleb128 0x8
ARM GAS  C:\Users\z80\AppData\Local\Temp\ccAfkxle.s 			page 19


 980 01fd 08       		.byte	0x8
 981 01fe 05       		.byte	0x5
 982 01ff 61       		.byte	0x61
 983 0200 21020000 		.4byte	0x221
 984 0204 06       		.uleb128 0x6
 985 0205 28020000 		.4byte	.LASF21
 986 0209 05       		.byte	0x5
 987 020a 62       		.byte	0x62
 988 020b 21020000 		.4byte	0x221
 989 020f 02       		.byte	0x2
 990 0210 23       		.byte	0x23
 991 0211 00       		.uleb128 0
 992 0212 06       		.uleb128 0x6
 993 0213 CB010000 		.4byte	.LASF22
 994 0217 05       		.byte	0x5
 995 0218 64       		.byte	0x64
 996 0219 21020000 		.4byte	0x221
 997 021d 02       		.byte	0x2
 998 021e 23       		.byte	0x23
 999 021f 04       		.uleb128 0x4
 1000 0220 00       		.byte	0
 1001 0221 09       		.uleb128 0x9
 1002 0222 04       		.byte	0x4
 1003 0223 E8000000 		.4byte	0xe8
 1004 0227 04       		.uleb128 0x4
 1005 0228 97010000 		.4byte	.LASF38
 1006 022c 05       		.byte	0x5
 1007 022d 66       		.byte	0x66
 1008 022e FC010000 		.4byte	0x1fc
 1009 0232 08       		.uleb128 0x8
 1010 0233 04       		.byte	0x4
 1011 0234 05       		.byte	0x5
 1012 0235 6B       		.byte	0x6b
 1013 0236 49020000 		.4byte	0x249
 1014 023a 06       		.uleb128 0x6
 1015 023b 28020000 		.4byte	.LASF21
 1016 023f 05       		.byte	0x5
 1017 0240 6D       		.byte	0x6d
 1018 0241 21020000 		.4byte	0x221
 1019 0245 02       		.byte	0x2
 1020 0246 23       		.byte	0x23
 1021 0247 00       		.uleb128 0
 1022 0248 00       		.byte	0
 1023 0249 04       		.uleb128 0x4
 1024 024a 4D010000 		.4byte	.LASF39
 1025 024e 05       		.byte	0x5
 1026 024f 70       		.byte	0x70
 1027 0250 32020000 		.4byte	0x232
 1028 0254 04       		.uleb128 0x4
 1029 0255 D2000000 		.4byte	.LASF40
 1030 0259 07       		.byte	0x7
 1031 025a D7       		.byte	0xd7
 1032 025b 5F020000 		.4byte	0x25f
 1033 025f 0A       		.uleb128 0xa
 1034 0260 04       		.byte	0x4
 1035 0261 04       		.uleb128 0x4
 1036 0262 6B010000 		.4byte	.LASF41
ARM GAS  C:\Users\z80\AppData\Local\Temp\ccAfkxle.s 			page 20


 1037 0266 07       		.byte	0x7
 1038 0267 DD       		.byte	0xdd
 1039 0268 89000000 		.4byte	0x89
 1040 026c 05       		.uleb128 0x5
 1041 026d E1020000 		.4byte	.LASF42
 1042 0271 24       		.byte	0x24
 1043 0272 07       		.byte	0x7
 1044 0273 FE       		.byte	0xfe
 1045 0274 F9020000 		.4byte	0x2f9
 1046 0278 0B       		.uleb128 0xb
 1047 0279 723400   		.ascii	"r4\000"
 1048 027c 07       		.byte	0x7
 1049 027d 1101     		.2byte	0x111
 1050 027f 54020000 		.4byte	0x254
 1051 0283 02       		.byte	0x2
 1052 0284 23       		.byte	0x23
 1053 0285 00       		.uleb128 0
 1054 0286 0B       		.uleb128 0xb
 1055 0287 723500   		.ascii	"r5\000"
 1056 028a 07       		.byte	0x7
 1057 028b 1201     		.2byte	0x112
 1058 028d 54020000 		.4byte	0x254
 1059 0291 02       		.byte	0x2
 1060 0292 23       		.byte	0x23
 1061 0293 04       		.uleb128 0x4
 1062 0294 0B       		.uleb128 0xb
 1063 0295 723600   		.ascii	"r6\000"
 1064 0298 07       		.byte	0x7
 1065 0299 1301     		.2byte	0x113
 1066 029b 54020000 		.4byte	0x254
 1067 029f 02       		.byte	0x2
 1068 02a0 23       		.byte	0x23
 1069 02a1 08       		.uleb128 0x8
 1070 02a2 0B       		.uleb128 0xb
 1071 02a3 723700   		.ascii	"r7\000"
 1072 02a6 07       		.byte	0x7
 1073 02a7 1401     		.2byte	0x114
 1074 02a9 54020000 		.4byte	0x254
 1075 02ad 02       		.byte	0x2
 1076 02ae 23       		.byte	0x23
 1077 02af 0C       		.uleb128 0xc
 1078 02b0 0B       		.uleb128 0xb
 1079 02b1 723800   		.ascii	"r8\000"
 1080 02b4 07       		.byte	0x7
 1081 02b5 1501     		.2byte	0x115
 1082 02b7 54020000 		.4byte	0x254
 1083 02bb 02       		.byte	0x2
 1084 02bc 23       		.byte	0x23
 1085 02bd 10       		.uleb128 0x10
 1086 02be 0B       		.uleb128 0xb
 1087 02bf 723900   		.ascii	"r9\000"
 1088 02c2 07       		.byte	0x7
 1089 02c3 1601     		.2byte	0x116
 1090 02c5 54020000 		.4byte	0x254
 1091 02c9 02       		.byte	0x2
 1092 02ca 23       		.byte	0x23
 1093 02cb 14       		.uleb128 0x14
ARM GAS  C:\Users\z80\AppData\Local\Temp\ccAfkxle.s 			page 21


 1094 02cc 0B       		.uleb128 0xb
 1095 02cd 72313000 		.ascii	"r10\000"
 1096 02d1 07       		.byte	0x7
 1097 02d2 1701     		.2byte	0x117
 1098 02d4 54020000 		.4byte	0x254
 1099 02d8 02       		.byte	0x2
 1100 02d9 23       		.byte	0x23
 1101 02da 18       		.uleb128 0x18
 1102 02db 0B       		.uleb128 0xb
 1103 02dc 72313100 		.ascii	"r11\000"
 1104 02e0 07       		.byte	0x7
 1105 02e1 1801     		.2byte	0x118
 1106 02e3 54020000 		.4byte	0x254
 1107 02e7 02       		.byte	0x2
 1108 02e8 23       		.byte	0x23
 1109 02e9 1C       		.uleb128 0x1c
 1110 02ea 0B       		.uleb128 0xb
 1111 02eb 6C7200   		.ascii	"lr\000"
 1112 02ee 07       		.byte	0x7
 1113 02ef 1901     		.2byte	0x119
 1114 02f1 54020000 		.4byte	0x254
 1115 02f5 02       		.byte	0x2
 1116 02f6 23       		.byte	0x23
 1117 02f7 20       		.uleb128 0x20
 1118 02f8 00       		.byte	0
 1119 02f9 0C       		.uleb128 0xc
 1120 02fa 18010000 		.4byte	.LASF43
 1121 02fe 04       		.byte	0x4
 1122 02ff 07       		.byte	0x7
 1123 0300 2301     		.2byte	0x123
 1124 0302 16030000 		.4byte	0x316
 1125 0306 0B       		.uleb128 0xb
 1126 0307 72313300 		.ascii	"r13\000"
 1127 030b 07       		.byte	0x7
 1128 030c 2401     		.2byte	0x124
 1129 030e 16030000 		.4byte	0x316
 1130 0312 02       		.byte	0x2
 1131 0313 23       		.byte	0x23
 1132 0314 00       		.uleb128 0
 1133 0315 00       		.byte	0
 1134 0316 09       		.uleb128 0x9
 1135 0317 04       		.byte	0x4
 1136 0318 6C020000 		.4byte	0x26c
 1137 031c 0D       		.uleb128 0xd
 1138 031d D2000000 		.4byte	0xd2
 1139 0321 08       		.uleb128 0x8
 1140 0322 20       		.byte	0x20
 1141 0323 08       		.byte	0x8
 1142 0324 5E       		.byte	0x5e
 1143 0325 8C030000 		.4byte	0x38c
 1144 0329 06       		.uleb128 0x6
 1145 032a 5A020000 		.4byte	.LASF44
 1146 032e 08       		.byte	0x8
 1147 032f 5F       		.byte	0x5f
 1148 0330 27020000 		.4byte	0x227
 1149 0334 02       		.byte	0x2
 1150 0335 23       		.byte	0x23
ARM GAS  C:\Users\z80\AppData\Local\Temp\ccAfkxle.s 			page 22


 1151 0336 00       		.uleb128 0
 1152 0337 06       		.uleb128 0x6
 1153 0338 1A020000 		.4byte	.LASF45
 1154 033c 08       		.byte	0x8
 1155 033d 60       		.byte	0x60
 1156 033e B1000000 		.4byte	0xb1
 1157 0342 02       		.byte	0x2
 1158 0343 23       		.byte	0x23
 1159 0344 08       		.uleb128 0x8
 1160 0345 06       		.uleb128 0x6
 1161 0346 91010000 		.4byte	.LASF46
 1162 034a 08       		.byte	0x8
 1163 034b 62       		.byte	0x62
 1164 034c F9020000 		.4byte	0x2f9
 1165 0350 02       		.byte	0x2
 1166 0351 23       		.byte	0x23
 1167 0352 0C       		.uleb128 0xc
 1168 0353 06       		.uleb128 0x6
 1169 0354 CA000000 		.4byte	.LASF47
 1170 0358 08       		.byte	0x8
 1171 0359 65       		.byte	0x65
 1172 035a 21020000 		.4byte	0x221
 1173 035e 02       		.byte	0x2
 1174 035f 23       		.byte	0x23
 1175 0360 10       		.uleb128 0x10
 1176 0361 06       		.uleb128 0x6
 1177 0362 B3010000 		.4byte	.LASF48
 1178 0366 08       		.byte	0x8
 1179 0367 66       		.byte	0x66
 1180 0368 21020000 		.4byte	0x221
 1181 036c 02       		.byte	0x2
 1182 036d 23       		.byte	0x23
 1183 036e 14       		.uleb128 0x14
 1184 036f 06       		.uleb128 0x6
 1185 0370 2B030000 		.4byte	.LASF49
 1186 0374 08       		.byte	0x8
 1187 0375 6A       		.byte	0x6a
 1188 0376 DD000000 		.4byte	0xdd
 1189 037a 02       		.byte	0x2
 1190 037b 23       		.byte	0x23
 1191 037c 18       		.uleb128 0x18
 1192 037d 06       		.uleb128 0x6
 1193 037e A9010000 		.4byte	.LASF50
 1194 0382 08       		.byte	0x8
 1195 0383 6C       		.byte	0x6c
 1196 0384 21020000 		.4byte	0x221
 1197 0388 02       		.byte	0x2
 1198 0389 23       		.byte	0x23
 1199 038a 1C       		.uleb128 0x1c
 1200 038b 00       		.byte	0
 1201 038c 04       		.uleb128 0x4
 1202 038d F3020000 		.4byte	.LASF51
 1203 0391 08       		.byte	0x8
 1204 0392 6E       		.byte	0x6e
 1205 0393 21030000 		.4byte	0x321
 1206 0397 05       		.uleb128 0x5
 1207 0398 65010000 		.4byte	.LASF52
ARM GAS  C:\Users\z80\AppData\Local\Temp\ccAfkxle.s 			page 23


 1208 039c 10       		.byte	0x10
 1209 039d 09       		.byte	0x9
 1210 039e 2C       		.byte	0x2c
 1211 039f CE030000 		.4byte	0x3ce
 1212 03a3 06       		.uleb128 0x6
 1213 03a4 73000000 		.4byte	.LASF53
 1214 03a8 09       		.byte	0x9
 1215 03a9 2D       		.byte	0x2d
 1216 03aa 27020000 		.4byte	0x227
 1217 03ae 02       		.byte	0x2
 1218 03af 23       		.byte	0x23
 1219 03b0 00       		.uleb128 0
 1220 03b1 06       		.uleb128 0x6
 1221 03b2 35030000 		.4byte	.LASF54
 1222 03b6 09       		.byte	0x9
 1223 03b7 2F       		.byte	0x2f
 1224 03b8 21020000 		.4byte	0x221
 1225 03bc 02       		.byte	0x2
 1226 03bd 23       		.byte	0x23
 1227 03be 08       		.uleb128 0x8
 1228 03bf 06       		.uleb128 0x6
 1229 03c0 8B020000 		.4byte	.LASF55
 1230 03c4 09       		.byte	0x9
 1231 03c5 31       		.byte	0x31
 1232 03c6 CE030000 		.4byte	0x3ce
 1233 03ca 02       		.byte	0x2
 1234 03cb 23       		.byte	0x23
 1235 03cc 0C       		.uleb128 0xc
 1236 03cd 00       		.byte	0
 1237 03ce 09       		.uleb128 0x9
 1238 03cf 04       		.byte	0x4
 1239 03d0 97030000 		.4byte	0x397
 1240 03d4 04       		.uleb128 0x4
 1241 03d5 65010000 		.4byte	.LASF52
 1242 03d9 09       		.byte	0x9
 1243 03da 33       		.byte	0x33
 1244 03db 97030000 		.4byte	0x397
 1245 03df 05       		.uleb128 0x5
 1246 03e0 A8000000 		.4byte	.LASF56
 1247 03e4 08       		.byte	0x8
 1248 03e5 0A       		.byte	0xa
 1249 03e6 36       		.byte	0x36
 1250 03e7 FA030000 		.4byte	0x3fa
 1251 03eb 06       		.uleb128 0x6
 1252 03ec 3E020000 		.4byte	.LASF57
 1253 03f0 0A       		.byte	0xa
 1254 03f1 37       		.byte	0x37
 1255 03f2 27020000 		.4byte	0x227
 1256 03f6 02       		.byte	0x2
 1257 03f7 23       		.byte	0x23
 1258 03f8 00       		.uleb128 0
 1259 03f9 00       		.byte	0
 1260 03fa 04       		.uleb128 0x4
 1261 03fb A8000000 		.4byte	.LASF56
 1262 03ff 0A       		.byte	0xa
 1263 0400 38       		.byte	0x38
 1264 0401 DF030000 		.4byte	0x3df
ARM GAS  C:\Users\z80\AppData\Local\Temp\ccAfkxle.s 			page 24


 1265 0405 0E       		.uleb128 0xe
 1266 0406 04       		.byte	0x4
 1267 0407 06       		.byte	0x6
 1268 0408 90       		.byte	0x90
 1269 0409 3A040000 		.4byte	0x43a
 1270 040d 0F       		.uleb128 0xf
 1271 040e 11000000 		.4byte	.LASF58
 1272 0412 06       		.byte	0x6
 1273 0413 97       		.byte	0x97
 1274 0414 BC000000 		.4byte	0xbc
 1275 0418 0F       		.uleb128 0xf
 1276 0419 38000000 		.4byte	.LASF59
 1277 041d 06       		.byte	0x6
 1278 041e 9E       		.byte	0x9e
 1279 041f BC000000 		.4byte	0xbc
 1280 0423 0F       		.uleb128 0xf
 1281 0424 0B030000 		.4byte	.LASF60
 1282 0428 06       		.byte	0x6
 1283 0429 A5       		.byte	0xa5
 1284 042a 5F020000 		.4byte	0x25f
 1285 042e 0F       		.uleb128 0xf
 1286 042f 21020000 		.4byte	.LASF61
 1287 0433 06       		.byte	0x6
 1288 0434 AC       		.byte	0xac
 1289 0435 C7000000 		.4byte	0xc7
 1290 0439 00       		.byte	0
 1291 043a 09       		.uleb128 0x9
 1292 043b 04       		.byte	0x4
 1293 043c 40040000 		.4byte	0x440
 1294 0440 10       		.uleb128 0x10
 1295 0441 45040000 		.4byte	0x445
 1296 0445 03       		.uleb128 0x3
 1297 0446 01       		.byte	0x1
 1298 0447 08       		.byte	0x8
 1299 0448 6E020000 		.4byte	.LASF62
 1300 044c 09       		.uleb128 0x9
 1301 044d 04       		.byte	0x4
 1302 044e 61020000 		.4byte	0x261
 1303 0452 09       		.uleb128 0x9
 1304 0453 04       		.byte	0x4
 1305 0454 D4030000 		.4byte	0x3d4
 1306 0458 11       		.uleb128 0x11
 1307 0459 39010000 		.4byte	.LASF76
 1308 045d 01       		.byte	0x1
 1309 045e 29       		.byte	0x29
 1310 045f 01       		.byte	0x1
 1311 0460 00000000 		.4byte	.LFB0
 1312 0464 46000000 		.4byte	.LFE0
 1313 0468 00000000 		.4byte	.LLST0
 1314 046c 99040000 		.4byte	0x499
 1315 0470 12       		.uleb128 0x12
 1316 0471 747000   		.ascii	"tp\000"
 1317 0474 01       		.byte	0x1
 1318 0475 29       		.byte	0x29
 1319 0476 21020000 		.4byte	0x221
 1320 047a 02       		.byte	0x2
 1321 047b 91       		.byte	0x91
ARM GAS  C:\Users\z80\AppData\Local\Temp\ccAfkxle.s 			page 25


 1322 047c 74       		.sleb128 -12
 1323 047d 12       		.uleb128 0x12
 1324 047e 74717000 		.ascii	"tqp\000"
 1325 0482 01       		.byte	0x1
 1326 0483 29       		.byte	0x29
 1327 0484 99040000 		.4byte	0x499
 1328 0488 02       		.byte	0x2
 1329 0489 91       		.byte	0x91
 1330 048a 70       		.sleb128 -16
 1331 048b 13       		.uleb128 0x13
 1332 048c 637000   		.ascii	"cp\000"
 1333 048f 01       		.byte	0x1
 1334 0490 2B       		.byte	0x2b
 1335 0491 21020000 		.4byte	0x221
 1336 0495 02       		.byte	0x2
 1337 0496 91       		.byte	0x91
 1338 0497 7C       		.sleb128 -4
 1339 0498 00       		.byte	0
 1340 0499 09       		.uleb128 0x9
 1341 049a 04       		.byte	0x4
 1342 049b 27020000 		.4byte	0x227
 1343 049f 14       		.uleb128 0x14
 1344 04a0 73020000 		.4byte	.LASF77
 1345 04a4 01       		.byte	0x1
 1346 04a5 3B       		.byte	0x3b
 1347 04a6 01       		.byte	0x1
 1348 04a7 21020000 		.4byte	0x221
 1349 04ab 00000000 		.4byte	.LFB2
 1350 04af 22000000 		.4byte	.LFE2
 1351 04b3 20000000 		.4byte	.LLST1
 1352 04b7 D7040000 		.4byte	0x4d7
 1353 04bb 12       		.uleb128 0x12
 1354 04bc 74717000 		.ascii	"tqp\000"
 1355 04c0 01       		.byte	0x1
 1356 04c1 3B       		.byte	0x3b
 1357 04c2 99040000 		.4byte	0x499
 1358 04c6 02       		.byte	0x2
 1359 04c7 91       		.byte	0x91
 1360 04c8 74       		.sleb128 -12
 1361 04c9 13       		.uleb128 0x13
 1362 04ca 747000   		.ascii	"tp\000"
 1363 04cd 01       		.byte	0x1
 1364 04ce 3C       		.byte	0x3c
 1365 04cf 21020000 		.4byte	0x221
 1366 04d3 02       		.byte	0x2
 1367 04d4 91       		.byte	0x91
 1368 04d5 7C       		.sleb128 -4
 1369 04d6 00       		.byte	0
 1370 04d7 15       		.uleb128 0x15
 1371 04d8 01       		.byte	0x1
 1372 04d9 06000000 		.4byte	.LASF63
 1373 04dd 02       		.byte	0x2
 1374 04de 3B       		.byte	0x3b
 1375 04df 01       		.byte	0x1
 1376 04e0 00000000 		.4byte	.LFB7
 1377 04e4 2A000000 		.4byte	.LFE7
 1378 04e8 40000000 		.4byte	.LLST2
ARM GAS  C:\Users\z80\AppData\Local\Temp\ccAfkxle.s 			page 26


 1379 04ec FE040000 		.4byte	0x4fe
 1380 04f0 12       		.uleb128 0x12
 1381 04f1 637000   		.ascii	"cp\000"
 1382 04f4 02       		.byte	0x2
 1383 04f5 3B       		.byte	0x3b
 1384 04f6 FE040000 		.4byte	0x4fe
 1385 04fa 02       		.byte	0x2
 1386 04fb 91       		.byte	0x91
 1387 04fc 74       		.sleb128 -12
 1388 04fd 00       		.byte	0
 1389 04fe 09       		.uleb128 0x9
 1390 04ff 04       		.byte	0x4
 1391 0500 FA030000 		.4byte	0x3fa
 1392 0504 15       		.uleb128 0x15
 1393 0505 01       		.byte	0x1
 1394 0506 DB000000 		.4byte	.LASF64
 1395 050a 02       		.byte	0x2
 1396 050b 49       		.byte	0x49
 1397 050c 01       		.byte	0x1
 1398 050d 00000000 		.4byte	.LFB8
 1399 0511 52000000 		.4byte	.LFE8
 1400 0515 6C000000 		.4byte	.LLST3
 1401 0519 5D050000 		.4byte	0x55d
 1402 051d 12       		.uleb128 0x12
 1403 051e 637000   		.ascii	"cp\000"
 1404 0521 02       		.byte	0x2
 1405 0522 49       		.byte	0x49
 1406 0523 FE040000 		.4byte	0x4fe
 1407 0527 02       		.byte	0x2
 1408 0528 91       		.byte	0x91
 1409 0529 74       		.sleb128 -12
 1410 052a 16       		.uleb128 0x16
 1411 052b 18000000 		.4byte	.LBB2
 1412 052f 20000000 		.4byte	.LBE2
 1413 0533 45050000 		.4byte	0x545
 1414 0537 13       		.uleb128 0x13
 1415 0538 746D7000 		.ascii	"tmp\000"
 1416 053c 02       		.byte	0x2
 1417 053d 4D       		.byte	0x4d
 1418 053e 70000000 		.4byte	0x70
 1419 0542 01       		.byte	0x1
 1420 0543 53       		.byte	0x53
 1421 0544 00       		.byte	0
 1422 0545 17       		.uleb128 0x17
 1423 0546 46000000 		.4byte	.LBB3
 1424 054a 4E000000 		.4byte	.LBE3
 1425 054e 13       		.uleb128 0x13
 1426 054f 746D7000 		.ascii	"tmp\000"
 1427 0553 02       		.byte	0x2
 1428 0554 50       		.byte	0x50
 1429 0555 70000000 		.4byte	0x70
 1430 0559 01       		.byte	0x1
 1431 055a 53       		.byte	0x53
 1432 055b 00       		.byte	0
 1433 055c 00       		.byte	0
 1434 055d 15       		.uleb128 0x15
 1435 055e 01       		.byte	0x1
ARM GAS  C:\Users\z80\AppData\Local\Temp\ccAfkxle.s 			page 27


 1436 055f DA010000 		.4byte	.LASF65
 1437 0563 02       		.byte	0x2
 1438 0564 5E       		.byte	0x5e
 1439 0565 01       		.byte	0x1
 1440 0566 00000000 		.4byte	.LFB9
 1441 056a 42000000 		.4byte	.LFE9
 1442 056e 98000000 		.4byte	.LLST4
 1443 0572 84050000 		.4byte	0x584
 1444 0576 12       		.uleb128 0x12
 1445 0577 637000   		.ascii	"cp\000"
 1446 057a 02       		.byte	0x2
 1447 057b 5E       		.byte	0x5e
 1448 057c FE040000 		.4byte	0x4fe
 1449 0580 02       		.byte	0x2
 1450 0581 91       		.byte	0x91
 1451 0582 74       		.sleb128 -12
 1452 0583 00       		.byte	0
 1453 0584 15       		.uleb128 0x15
 1454 0585 01       		.byte	0x1
 1455 0586 BB010000 		.4byte	.LASF66
 1456 058a 02       		.byte	0x2
 1457 058b 6E       		.byte	0x6e
 1458 058c 01       		.byte	0x1
 1459 058d 00000000 		.4byte	.LFB10
 1460 0591 2C000000 		.4byte	.LFE10
 1461 0595 C4000000 		.4byte	.LLST5
 1462 0599 DD050000 		.4byte	0x5dd
 1463 059d 12       		.uleb128 0x12
 1464 059e 637000   		.ascii	"cp\000"
 1465 05a1 02       		.byte	0x2
 1466 05a2 6E       		.byte	0x6e
 1467 05a3 FE040000 		.4byte	0x4fe
 1468 05a7 02       		.byte	0x2
 1469 05a8 91       		.byte	0x91
 1470 05a9 74       		.sleb128 -12
 1471 05aa 16       		.uleb128 0x16
 1472 05ab 06000000 		.4byte	.LBB4
 1473 05af 0E000000 		.4byte	.LBE4
 1474 05b3 C5050000 		.4byte	0x5c5
 1475 05b7 13       		.uleb128 0x13
 1476 05b8 746D7000 		.ascii	"tmp\000"
 1477 05bc 02       		.byte	0x2
 1478 05bd 70       		.byte	0x70
 1479 05be 70000000 		.4byte	0x70
 1480 05c2 01       		.byte	0x1
 1481 05c3 53       		.byte	0x53
 1482 05c4 00       		.byte	0
 1483 05c5 17       		.uleb128 0x17
 1484 05c6 20000000 		.4byte	.LBB5
 1485 05ca 28000000 		.4byte	.LBE5
 1486 05ce 13       		.uleb128 0x13
 1487 05cf 746D7000 		.ascii	"tmp\000"
 1488 05d3 02       		.byte	0x2
 1489 05d4 73       		.byte	0x73
 1490 05d5 70000000 		.4byte	0x70
 1491 05d9 01       		.byte	0x1
 1492 05da 53       		.byte	0x53
ARM GAS  C:\Users\z80\AppData\Local\Temp\ccAfkxle.s 			page 28


 1493 05db 00       		.byte	0
 1494 05dc 00       		.byte	0
 1495 05dd 15       		.uleb128 0x15
 1496 05de 01       		.byte	0x1
 1497 05df 41000000 		.4byte	.LASF67
 1498 05e3 02       		.byte	0x2
 1499 05e4 81       		.byte	0x81
 1500 05e5 01       		.byte	0x1
 1501 05e6 00000000 		.4byte	.LFB11
 1502 05ea 48000000 		.4byte	.LFE11
 1503 05ee F0000000 		.4byte	.LLST6
 1504 05f2 04060000 		.4byte	0x604
 1505 05f6 12       		.uleb128 0x12
 1506 05f7 637000   		.ascii	"cp\000"
 1507 05fa 02       		.byte	0x2
 1508 05fb 81       		.byte	0x81
 1509 05fc FE040000 		.4byte	0x4fe
 1510 0600 02       		.byte	0x2
 1511 0601 91       		.byte	0x91
 1512 0602 74       		.sleb128 -12
 1513 0603 00       		.byte	0
 1514 0604 18       		.uleb128 0x18
 1515 0605 01       		.byte	0x1
 1516 0606 CF020000 		.4byte	.LASF68
 1517 060a 02       		.byte	0x2
 1518 060b 9E       		.byte	0x9e
 1519 060c 01       		.byte	0x1
 1520 060d BC000000 		.4byte	0xbc
 1521 0611 00000000 		.4byte	.LFB12
 1522 0615 2E000000 		.4byte	.LFE12
 1523 0619 1C010000 		.4byte	.LLST7
 1524 061d 6F060000 		.4byte	0x66f
 1525 0621 12       		.uleb128 0x12
 1526 0622 637000   		.ascii	"cp\000"
 1527 0625 02       		.byte	0x2
 1528 0626 9E       		.byte	0x9e
 1529 0627 FE040000 		.4byte	0x4fe
 1530 062b 02       		.byte	0x2
 1531 062c 91       		.byte	0x91
 1532 062d 6C       		.sleb128 -20
 1533 062e 13       		.uleb128 0x13
 1534 062f 6D736700 		.ascii	"msg\000"
 1535 0633 02       		.byte	0x2
 1536 0634 9F       		.byte	0x9f
 1537 0635 BC000000 		.4byte	0xbc
 1538 0639 02       		.byte	0x2
 1539 063a 91       		.byte	0x91
 1540 063b 74       		.sleb128 -12
 1541 063c 16       		.uleb128 0x16
 1542 063d 06000000 		.4byte	.LBB6
 1543 0641 0E000000 		.4byte	.LBE6
 1544 0645 57060000 		.4byte	0x657
 1545 0649 13       		.uleb128 0x13
 1546 064a 746D7000 		.ascii	"tmp\000"
 1547 064e 02       		.byte	0x2
 1548 064f A1       		.byte	0xa1
 1549 0650 70000000 		.4byte	0x70
ARM GAS  C:\Users\z80\AppData\Local\Temp\ccAfkxle.s 			page 29


 1550 0654 01       		.byte	0x1
 1551 0655 53       		.byte	0x53
 1552 0656 00       		.byte	0
 1553 0657 17       		.uleb128 0x17
 1554 0658 1E000000 		.4byte	.LBB7
 1555 065c 26000000 		.4byte	.LBE7
 1556 0660 13       		.uleb128 0x13
 1557 0661 746D7000 		.ascii	"tmp\000"
 1558 0665 02       		.byte	0x2
 1559 0666 A3       		.byte	0xa3
 1560 0667 70000000 		.4byte	0x70
 1561 066b 01       		.byte	0x1
 1562 066c 53       		.byte	0x53
 1563 066d 00       		.byte	0
 1564 066e 00       		.byte	0
 1565 066f 18       		.uleb128 0x18
 1566 0670 01       		.byte	0x1
 1567 0671 7F020000 		.4byte	.LASF69
 1568 0675 02       		.byte	0x2
 1569 0676 B8       		.byte	0xb8
 1570 0677 01       		.byte	0x1
 1571 0678 BC000000 		.4byte	0xbc
 1572 067c 00000000 		.4byte	.LFB13
 1573 0680 6E000000 		.4byte	.LFE13
 1574 0684 48010000 		.4byte	.LLST8
 1575 0688 C3060000 		.4byte	0x6c3
 1576 068c 12       		.uleb128 0x12
 1577 068d 637000   		.ascii	"cp\000"
 1578 0690 02       		.byte	0x2
 1579 0691 B8       		.byte	0xb8
 1580 0692 FE040000 		.4byte	0x4fe
 1581 0696 02       		.byte	0x2
 1582 0697 91       		.byte	0x91
 1583 0698 64       		.sleb128 -28
 1584 0699 13       		.uleb128 0x13
 1585 069a 63747000 		.ascii	"ctp\000"
 1586 069e 02       		.byte	0x2
 1587 069f B9       		.byte	0xb9
 1588 06a0 21020000 		.4byte	0x221
 1589 06a4 02       		.byte	0x2
 1590 06a5 91       		.byte	0x91
 1591 06a6 74       		.sleb128 -12
 1592 06a7 13       		.uleb128 0x13
 1593 06a8 6D7000   		.ascii	"mp\000"
 1594 06ab 02       		.byte	0x2
 1595 06ac BA       		.byte	0xba
 1596 06ad 52040000 		.4byte	0x452
 1597 06b1 02       		.byte	0x2
 1598 06b2 91       		.byte	0x91
 1599 06b3 70       		.sleb128 -16
 1600 06b4 13       		.uleb128 0x13
 1601 06b5 6D736700 		.ascii	"msg\000"
 1602 06b9 02       		.byte	0x2
 1603 06ba BB       		.byte	0xbb
 1604 06bb BC000000 		.4byte	0xbc
 1605 06bf 02       		.byte	0x2
 1606 06c0 91       		.byte	0x91
ARM GAS  C:\Users\z80\AppData\Local\Temp\ccAfkxle.s 			page 30


 1607 06c1 6C       		.sleb128 -20
 1608 06c2 00       		.byte	0
 1609 06c3 18       		.uleb128 0x18
 1610 06c4 01       		.byte	0x1
 1611 06c5 19030000 		.4byte	.LASF70
 1612 06c9 02       		.byte	0x2
 1613 06ca E9       		.byte	0xe9
 1614 06cb 01       		.byte	0x1
 1615 06cc BC000000 		.4byte	0xbc
 1616 06d0 00000000 		.4byte	.LFB14
 1617 06d4 32000000 		.4byte	.LFE14
 1618 06d8 74010000 		.4byte	.LLST9
 1619 06dc 3C070000 		.4byte	0x73c
 1620 06e0 12       		.uleb128 0x12
 1621 06e1 637000   		.ascii	"cp\000"
 1622 06e4 02       		.byte	0x2
 1623 06e5 E9       		.byte	0xe9
 1624 06e6 FE040000 		.4byte	0x4fe
 1625 06ea 02       		.byte	0x2
 1626 06eb 91       		.byte	0x91
 1627 06ec 6C       		.sleb128 -20
 1628 06ed 19       		.uleb128 0x19
 1629 06ee A4010000 		.4byte	.LASF71
 1630 06f2 02       		.byte	0x2
 1631 06f3 E9       		.byte	0xe9
 1632 06f4 D2000000 		.4byte	0xd2
 1633 06f8 02       		.byte	0x2
 1634 06f9 91       		.byte	0x91
 1635 06fa 68       		.sleb128 -24
 1636 06fb 13       		.uleb128 0x13
 1637 06fc 6D736700 		.ascii	"msg\000"
 1638 0700 02       		.byte	0x2
 1639 0701 EA       		.byte	0xea
 1640 0702 BC000000 		.4byte	0xbc
 1641 0706 02       		.byte	0x2
 1642 0707 91       		.byte	0x91
 1643 0708 74       		.sleb128 -12
 1644 0709 16       		.uleb128 0x16
 1645 070a 08000000 		.4byte	.LBB8
 1646 070e 10000000 		.4byte	.LBE8
 1647 0712 24070000 		.4byte	0x724
 1648 0716 13       		.uleb128 0x13
 1649 0717 746D7000 		.ascii	"tmp\000"
 1650 071b 02       		.byte	0x2
 1651 071c EC       		.byte	0xec
 1652 071d 70000000 		.4byte	0x70
 1653 0721 01       		.byte	0x1
 1654 0722 53       		.byte	0x53
 1655 0723 00       		.byte	0
 1656 0724 17       		.uleb128 0x17
 1657 0725 22000000 		.4byte	.LBB9
 1658 0729 2A000000 		.4byte	.LBE9
 1659 072d 13       		.uleb128 0x13
 1660 072e 746D7000 		.ascii	"tmp\000"
 1661 0732 02       		.byte	0x2
 1662 0733 EE       		.byte	0xee
 1663 0734 70000000 		.4byte	0x70
ARM GAS  C:\Users\z80\AppData\Local\Temp\ccAfkxle.s 			page 31


 1664 0738 01       		.byte	0x1
 1665 0739 53       		.byte	0x53
 1666 073a 00       		.byte	0
 1667 073b 00       		.byte	0
 1668 073c 1A       		.uleb128 0x1a
 1669 073d 01       		.byte	0x1
 1670 073e 76010000 		.4byte	.LASF72
 1671 0742 02       		.byte	0x2
 1672 0743 0E01     		.2byte	0x10e
 1673 0745 01       		.byte	0x1
 1674 0746 BC000000 		.4byte	0xbc
 1675 074a 00000000 		.4byte	.LFB15
 1676 074e 8A000000 		.4byte	.LFE15
 1677 0752 A0010000 		.4byte	.LLST10
 1678 0756 95070000 		.4byte	0x795
 1679 075a 1B       		.uleb128 0x1b
 1680 075b 637000   		.ascii	"cp\000"
 1681 075e 02       		.byte	0x2
 1682 075f 0E01     		.2byte	0x10e
 1683 0761 FE040000 		.4byte	0x4fe
 1684 0765 02       		.byte	0x2
 1685 0766 91       		.byte	0x91
 1686 0767 6C       		.sleb128 -20
 1687 0768 1C       		.uleb128 0x1c
 1688 0769 A4010000 		.4byte	.LASF71
 1689 076d 02       		.byte	0x2
 1690 076e 0E01     		.2byte	0x10e
 1691 0770 D2000000 		.4byte	0xd2
 1692 0774 02       		.byte	0x2
 1693 0775 91       		.byte	0x91
 1694 0776 68       		.sleb128 -24
 1695 0777 1D       		.uleb128 0x1d
 1696 0778 6D7000   		.ascii	"mp\000"
 1697 077b 02       		.byte	0x2
 1698 077c 0F01     		.2byte	0x10f
 1699 077e 52040000 		.4byte	0x452
 1700 0782 02       		.byte	0x2
 1701 0783 91       		.byte	0x91
 1702 0784 74       		.sleb128 -12
 1703 0785 1D       		.uleb128 0x1d
 1704 0786 6D736700 		.ascii	"msg\000"
 1705 078a 02       		.byte	0x2
 1706 078b 1001     		.2byte	0x110
 1707 078d BC000000 		.4byte	0xbc
 1708 0791 02       		.byte	0x2
 1709 0792 91       		.byte	0x91
 1710 0793 70       		.sleb128 -16
 1711 0794 00       		.byte	0
 1712 0795 1E       		.uleb128 0x1e
 1713 0796 FD020000 		.4byte	.LASF78
 1714 079a 08       		.byte	0x8
 1715 079b 72       		.byte	0x72
 1716 079c 8C030000 		.4byte	0x38c
 1717 07a0 01       		.byte	0x1
 1718 07a1 01       		.byte	0x1
 1719 07a2 00       		.byte	0
 1720              		.section	.debug_abbrev,"",%progbits
ARM GAS  C:\Users\z80\AppData\Local\Temp\ccAfkxle.s 			page 32


 1721              	.Ldebug_abbrev0:
 1722 0000 01       		.uleb128 0x1
 1723 0001 11       		.uleb128 0x11
 1724 0002 01       		.byte	0x1
 1725 0003 25       		.uleb128 0x25
 1726 0004 0E       		.uleb128 0xe
 1727 0005 13       		.uleb128 0x13
 1728 0006 0B       		.uleb128 0xb
 1729 0007 03       		.uleb128 0x3
 1730 0008 0E       		.uleb128 0xe
 1731 0009 1B       		.uleb128 0x1b
 1732 000a 0E       		.uleb128 0xe
 1733 000b 11       		.uleb128 0x11
 1734 000c 01       		.uleb128 0x1
 1735 000d 52       		.uleb128 0x52
 1736 000e 01       		.uleb128 0x1
 1737 000f 55       		.uleb128 0x55
 1738 0010 06       		.uleb128 0x6
 1739 0011 10       		.uleb128 0x10
 1740 0012 06       		.uleb128 0x6
 1741 0013 00       		.byte	0
 1742 0014 00       		.byte	0
 1743 0015 02       		.uleb128 0x2
 1744 0016 24       		.uleb128 0x24
 1745 0017 00       		.byte	0
 1746 0018 0B       		.uleb128 0xb
 1747 0019 0B       		.uleb128 0xb
 1748 001a 3E       		.uleb128 0x3e
 1749 001b 0B       		.uleb128 0xb
 1750 001c 03       		.uleb128 0x3
 1751 001d 08       		.uleb128 0x8
 1752 001e 00       		.byte	0
 1753 001f 00       		.byte	0
 1754 0020 03       		.uleb128 0x3
 1755 0021 24       		.uleb128 0x24
 1756 0022 00       		.byte	0
 1757 0023 0B       		.uleb128 0xb
 1758 0024 0B       		.uleb128 0xb
 1759 0025 3E       		.uleb128 0x3e
 1760 0026 0B       		.uleb128 0xb
 1761 0027 03       		.uleb128 0x3
 1762 0028 0E       		.uleb128 0xe
 1763 0029 00       		.byte	0
 1764 002a 00       		.byte	0
 1765 002b 04       		.uleb128 0x4
 1766 002c 16       		.uleb128 0x16
 1767 002d 00       		.byte	0
 1768 002e 03       		.uleb128 0x3
 1769 002f 0E       		.uleb128 0xe
 1770 0030 3A       		.uleb128 0x3a
 1771 0031 0B       		.uleb128 0xb
 1772 0032 3B       		.uleb128 0x3b
 1773 0033 0B       		.uleb128 0xb
 1774 0034 49       		.uleb128 0x49
 1775 0035 13       		.uleb128 0x13
 1776 0036 00       		.byte	0
 1777 0037 00       		.byte	0
ARM GAS  C:\Users\z80\AppData\Local\Temp\ccAfkxle.s 			page 33


 1778 0038 05       		.uleb128 0x5
 1779 0039 13       		.uleb128 0x13
 1780 003a 01       		.byte	0x1
 1781 003b 03       		.uleb128 0x3
 1782 003c 0E       		.uleb128 0xe
 1783 003d 0B       		.uleb128 0xb
 1784 003e 0B       		.uleb128 0xb
 1785 003f 3A       		.uleb128 0x3a
 1786 0040 0B       		.uleb128 0xb
 1787 0041 3B       		.uleb128 0x3b
 1788 0042 0B       		.uleb128 0xb
 1789 0043 01       		.uleb128 0x1
 1790 0044 13       		.uleb128 0x13
 1791 0045 00       		.byte	0
 1792 0046 00       		.byte	0
 1793 0047 06       		.uleb128 0x6
 1794 0048 0D       		.uleb128 0xd
 1795 0049 00       		.byte	0
 1796 004a 03       		.uleb128 0x3
 1797 004b 0E       		.uleb128 0xe
 1798 004c 3A       		.uleb128 0x3a
 1799 004d 0B       		.uleb128 0xb
 1800 004e 3B       		.uleb128 0x3b
 1801 004f 0B       		.uleb128 0xb
 1802 0050 49       		.uleb128 0x49
 1803 0051 13       		.uleb128 0x13
 1804 0052 38       		.uleb128 0x38
 1805 0053 0A       		.uleb128 0xa
 1806 0054 00       		.byte	0
 1807 0055 00       		.byte	0
 1808 0056 07       		.uleb128 0x7
 1809 0057 0D       		.uleb128 0xd
 1810 0058 00       		.byte	0
 1811 0059 03       		.uleb128 0x3
 1812 005a 08       		.uleb128 0x8
 1813 005b 3A       		.uleb128 0x3a
 1814 005c 0B       		.uleb128 0xb
 1815 005d 3B       		.uleb128 0x3b
 1816 005e 0B       		.uleb128 0xb
 1817 005f 49       		.uleb128 0x49
 1818 0060 13       		.uleb128 0x13
 1819 0061 38       		.uleb128 0x38
 1820 0062 0A       		.uleb128 0xa
 1821 0063 00       		.byte	0
 1822 0064 00       		.byte	0
 1823 0065 08       		.uleb128 0x8
 1824 0066 13       		.uleb128 0x13
 1825 0067 01       		.byte	0x1
 1826 0068 0B       		.uleb128 0xb
 1827 0069 0B       		.uleb128 0xb
 1828 006a 3A       		.uleb128 0x3a
 1829 006b 0B       		.uleb128 0xb
 1830 006c 3B       		.uleb128 0x3b
 1831 006d 0B       		.uleb128 0xb
 1832 006e 01       		.uleb128 0x1
 1833 006f 13       		.uleb128 0x13
 1834 0070 00       		.byte	0
ARM GAS  C:\Users\z80\AppData\Local\Temp\ccAfkxle.s 			page 34


 1835 0071 00       		.byte	0
 1836 0072 09       		.uleb128 0x9
 1837 0073 0F       		.uleb128 0xf
 1838 0074 00       		.byte	0
 1839 0075 0B       		.uleb128 0xb
 1840 0076 0B       		.uleb128 0xb
 1841 0077 49       		.uleb128 0x49
 1842 0078 13       		.uleb128 0x13
 1843 0079 00       		.byte	0
 1844 007a 00       		.byte	0
 1845 007b 0A       		.uleb128 0xa
 1846 007c 0F       		.uleb128 0xf
 1847 007d 00       		.byte	0
 1848 007e 0B       		.uleb128 0xb
 1849 007f 0B       		.uleb128 0xb
 1850 0080 00       		.byte	0
 1851 0081 00       		.byte	0
 1852 0082 0B       		.uleb128 0xb
 1853 0083 0D       		.uleb128 0xd
 1854 0084 00       		.byte	0
 1855 0085 03       		.uleb128 0x3
 1856 0086 08       		.uleb128 0x8
 1857 0087 3A       		.uleb128 0x3a
 1858 0088 0B       		.uleb128 0xb
 1859 0089 3B       		.uleb128 0x3b
 1860 008a 05       		.uleb128 0x5
 1861 008b 49       		.uleb128 0x49
 1862 008c 13       		.uleb128 0x13
 1863 008d 38       		.uleb128 0x38
 1864 008e 0A       		.uleb128 0xa
 1865 008f 00       		.byte	0
 1866 0090 00       		.byte	0
 1867 0091 0C       		.uleb128 0xc
 1868 0092 13       		.uleb128 0x13
 1869 0093 01       		.byte	0x1
 1870 0094 03       		.uleb128 0x3
 1871 0095 0E       		.uleb128 0xe
 1872 0096 0B       		.uleb128 0xb
 1873 0097 0B       		.uleb128 0xb
 1874 0098 3A       		.uleb128 0x3a
 1875 0099 0B       		.uleb128 0xb
 1876 009a 3B       		.uleb128 0x3b
 1877 009b 05       		.uleb128 0x5
 1878 009c 01       		.uleb128 0x1
 1879 009d 13       		.uleb128 0x13
 1880 009e 00       		.byte	0
 1881 009f 00       		.byte	0
 1882 00a0 0D       		.uleb128 0xd
 1883 00a1 35       		.uleb128 0x35
 1884 00a2 00       		.byte	0
 1885 00a3 49       		.uleb128 0x49
 1886 00a4 13       		.uleb128 0x13
 1887 00a5 00       		.byte	0
 1888 00a6 00       		.byte	0
 1889 00a7 0E       		.uleb128 0xe
 1890 00a8 17       		.uleb128 0x17
 1891 00a9 01       		.byte	0x1
ARM GAS  C:\Users\z80\AppData\Local\Temp\ccAfkxle.s 			page 35


 1892 00aa 0B       		.uleb128 0xb
 1893 00ab 0B       		.uleb128 0xb
 1894 00ac 3A       		.uleb128 0x3a
 1895 00ad 0B       		.uleb128 0xb
 1896 00ae 3B       		.uleb128 0x3b
 1897 00af 0B       		.uleb128 0xb
 1898 00b0 01       		.uleb128 0x1
 1899 00b1 13       		.uleb128 0x13
 1900 00b2 00       		.byte	0
 1901 00b3 00       		.byte	0
 1902 00b4 0F       		.uleb128 0xf
 1903 00b5 0D       		.uleb128 0xd
 1904 00b6 00       		.byte	0
 1905 00b7 03       		.uleb128 0x3
 1906 00b8 0E       		.uleb128 0xe
 1907 00b9 3A       		.uleb128 0x3a
 1908 00ba 0B       		.uleb128 0xb
 1909 00bb 3B       		.uleb128 0x3b
 1910 00bc 0B       		.uleb128 0xb
 1911 00bd 49       		.uleb128 0x49
 1912 00be 13       		.uleb128 0x13
 1913 00bf 00       		.byte	0
 1914 00c0 00       		.byte	0
 1915 00c1 10       		.uleb128 0x10
 1916 00c2 26       		.uleb128 0x26
 1917 00c3 00       		.byte	0
 1918 00c4 49       		.uleb128 0x49
 1919 00c5 13       		.uleb128 0x13
 1920 00c6 00       		.byte	0
 1921 00c7 00       		.byte	0
 1922 00c8 11       		.uleb128 0x11
 1923 00c9 2E       		.uleb128 0x2e
 1924 00ca 01       		.byte	0x1
 1925 00cb 03       		.uleb128 0x3
 1926 00cc 0E       		.uleb128 0xe
 1927 00cd 3A       		.uleb128 0x3a
 1928 00ce 0B       		.uleb128 0xb
 1929 00cf 3B       		.uleb128 0x3b
 1930 00d0 0B       		.uleb128 0xb
 1931 00d1 27       		.uleb128 0x27
 1932 00d2 0C       		.uleb128 0xc
 1933 00d3 11       		.uleb128 0x11
 1934 00d4 01       		.uleb128 0x1
 1935 00d5 12       		.uleb128 0x12
 1936 00d6 01       		.uleb128 0x1
 1937 00d7 40       		.uleb128 0x40
 1938 00d8 06       		.uleb128 0x6
 1939 00d9 01       		.uleb128 0x1
 1940 00da 13       		.uleb128 0x13
 1941 00db 00       		.byte	0
 1942 00dc 00       		.byte	0
 1943 00dd 12       		.uleb128 0x12
 1944 00de 05       		.uleb128 0x5
 1945 00df 00       		.byte	0
 1946 00e0 03       		.uleb128 0x3
 1947 00e1 08       		.uleb128 0x8
 1948 00e2 3A       		.uleb128 0x3a
ARM GAS  C:\Users\z80\AppData\Local\Temp\ccAfkxle.s 			page 36


 1949 00e3 0B       		.uleb128 0xb
 1950 00e4 3B       		.uleb128 0x3b
 1951 00e5 0B       		.uleb128 0xb
 1952 00e6 49       		.uleb128 0x49
 1953 00e7 13       		.uleb128 0x13
 1954 00e8 02       		.uleb128 0x2
 1955 00e9 0A       		.uleb128 0xa
 1956 00ea 00       		.byte	0
 1957 00eb 00       		.byte	0
 1958 00ec 13       		.uleb128 0x13
 1959 00ed 34       		.uleb128 0x34
 1960 00ee 00       		.byte	0
 1961 00ef 03       		.uleb128 0x3
 1962 00f0 08       		.uleb128 0x8
 1963 00f1 3A       		.uleb128 0x3a
 1964 00f2 0B       		.uleb128 0xb
 1965 00f3 3B       		.uleb128 0x3b
 1966 00f4 0B       		.uleb128 0xb
 1967 00f5 49       		.uleb128 0x49
 1968 00f6 13       		.uleb128 0x13
 1969 00f7 02       		.uleb128 0x2
 1970 00f8 0A       		.uleb128 0xa
 1971 00f9 00       		.byte	0
 1972 00fa 00       		.byte	0
 1973 00fb 14       		.uleb128 0x14
 1974 00fc 2E       		.uleb128 0x2e
 1975 00fd 01       		.byte	0x1
 1976 00fe 03       		.uleb128 0x3
 1977 00ff 0E       		.uleb128 0xe
 1978 0100 3A       		.uleb128 0x3a
 1979 0101 0B       		.uleb128 0xb
 1980 0102 3B       		.uleb128 0x3b
 1981 0103 0B       		.uleb128 0xb
 1982 0104 27       		.uleb128 0x27
 1983 0105 0C       		.uleb128 0xc
 1984 0106 49       		.uleb128 0x49
 1985 0107 13       		.uleb128 0x13
 1986 0108 11       		.uleb128 0x11
 1987 0109 01       		.uleb128 0x1
 1988 010a 12       		.uleb128 0x12
 1989 010b 01       		.uleb128 0x1
 1990 010c 40       		.uleb128 0x40
 1991 010d 06       		.uleb128 0x6
 1992 010e 01       		.uleb128 0x1
 1993 010f 13       		.uleb128 0x13
 1994 0110 00       		.byte	0
 1995 0111 00       		.byte	0
 1996 0112 15       		.uleb128 0x15
 1997 0113 2E       		.uleb128 0x2e
 1998 0114 01       		.byte	0x1
 1999 0115 3F       		.uleb128 0x3f
 2000 0116 0C       		.uleb128 0xc
 2001 0117 03       		.uleb128 0x3
 2002 0118 0E       		.uleb128 0xe
 2003 0119 3A       		.uleb128 0x3a
 2004 011a 0B       		.uleb128 0xb
 2005 011b 3B       		.uleb128 0x3b
ARM GAS  C:\Users\z80\AppData\Local\Temp\ccAfkxle.s 			page 37


 2006 011c 0B       		.uleb128 0xb
 2007 011d 27       		.uleb128 0x27
 2008 011e 0C       		.uleb128 0xc
 2009 011f 11       		.uleb128 0x11
 2010 0120 01       		.uleb128 0x1
 2011 0121 12       		.uleb128 0x12
 2012 0122 01       		.uleb128 0x1
 2013 0123 40       		.uleb128 0x40
 2014 0124 06       		.uleb128 0x6
 2015 0125 01       		.uleb128 0x1
 2016 0126 13       		.uleb128 0x13
 2017 0127 00       		.byte	0
 2018 0128 00       		.byte	0
 2019 0129 16       		.uleb128 0x16
 2020 012a 0B       		.uleb128 0xb
 2021 012b 01       		.byte	0x1
 2022 012c 11       		.uleb128 0x11
 2023 012d 01       		.uleb128 0x1
 2024 012e 12       		.uleb128 0x12
 2025 012f 01       		.uleb128 0x1
 2026 0130 01       		.uleb128 0x1
 2027 0131 13       		.uleb128 0x13
 2028 0132 00       		.byte	0
 2029 0133 00       		.byte	0
 2030 0134 17       		.uleb128 0x17
 2031 0135 0B       		.uleb128 0xb
 2032 0136 01       		.byte	0x1
 2033 0137 11       		.uleb128 0x11
 2034 0138 01       		.uleb128 0x1
 2035 0139 12       		.uleb128 0x12
 2036 013a 01       		.uleb128 0x1
 2037 013b 00       		.byte	0
 2038 013c 00       		.byte	0
 2039 013d 18       		.uleb128 0x18
 2040 013e 2E       		.uleb128 0x2e
 2041 013f 01       		.byte	0x1
 2042 0140 3F       		.uleb128 0x3f
 2043 0141 0C       		.uleb128 0xc
 2044 0142 03       		.uleb128 0x3
 2045 0143 0E       		.uleb128 0xe
 2046 0144 3A       		.uleb128 0x3a
 2047 0145 0B       		.uleb128 0xb
 2048 0146 3B       		.uleb128 0x3b
 2049 0147 0B       		.uleb128 0xb
 2050 0148 27       		.uleb128 0x27
 2051 0149 0C       		.uleb128 0xc
 2052 014a 49       		.uleb128 0x49
 2053 014b 13       		.uleb128 0x13
 2054 014c 11       		.uleb128 0x11
 2055 014d 01       		.uleb128 0x1
 2056 014e 12       		.uleb128 0x12
 2057 014f 01       		.uleb128 0x1
 2058 0150 40       		.uleb128 0x40
 2059 0151 06       		.uleb128 0x6
 2060 0152 01       		.uleb128 0x1
 2061 0153 13       		.uleb128 0x13
 2062 0154 00       		.byte	0
ARM GAS  C:\Users\z80\AppData\Local\Temp\ccAfkxle.s 			page 38


 2063 0155 00       		.byte	0
 2064 0156 19       		.uleb128 0x19
 2065 0157 05       		.uleb128 0x5
 2066 0158 00       		.byte	0
 2067 0159 03       		.uleb128 0x3
 2068 015a 0E       		.uleb128 0xe
 2069 015b 3A       		.uleb128 0x3a
 2070 015c 0B       		.uleb128 0xb
 2071 015d 3B       		.uleb128 0x3b
 2072 015e 0B       		.uleb128 0xb
 2073 015f 49       		.uleb128 0x49
 2074 0160 13       		.uleb128 0x13
 2075 0161 02       		.uleb128 0x2
 2076 0162 0A       		.uleb128 0xa
 2077 0163 00       		.byte	0
 2078 0164 00       		.byte	0
 2079 0165 1A       		.uleb128 0x1a
 2080 0166 2E       		.uleb128 0x2e
 2081 0167 01       		.byte	0x1
 2082 0168 3F       		.uleb128 0x3f
 2083 0169 0C       		.uleb128 0xc
 2084 016a 03       		.uleb128 0x3
 2085 016b 0E       		.uleb128 0xe
 2086 016c 3A       		.uleb128 0x3a
 2087 016d 0B       		.uleb128 0xb
 2088 016e 3B       		.uleb128 0x3b
 2089 016f 05       		.uleb128 0x5
 2090 0170 27       		.uleb128 0x27
 2091 0171 0C       		.uleb128 0xc
 2092 0172 49       		.uleb128 0x49
 2093 0173 13       		.uleb128 0x13
 2094 0174 11       		.uleb128 0x11
 2095 0175 01       		.uleb128 0x1
 2096 0176 12       		.uleb128 0x12
 2097 0177 01       		.uleb128 0x1
 2098 0178 40       		.uleb128 0x40
 2099 0179 06       		.uleb128 0x6
 2100 017a 01       		.uleb128 0x1
 2101 017b 13       		.uleb128 0x13
 2102 017c 00       		.byte	0
 2103 017d 00       		.byte	0
 2104 017e 1B       		.uleb128 0x1b
 2105 017f 05       		.uleb128 0x5
 2106 0180 00       		.byte	0
 2107 0181 03       		.uleb128 0x3
 2108 0182 08       		.uleb128 0x8
 2109 0183 3A       		.uleb128 0x3a
 2110 0184 0B       		.uleb128 0xb
 2111 0185 3B       		.uleb128 0x3b
 2112 0186 05       		.uleb128 0x5
 2113 0187 49       		.uleb128 0x49
 2114 0188 13       		.uleb128 0x13
 2115 0189 02       		.uleb128 0x2
 2116 018a 0A       		.uleb128 0xa
 2117 018b 00       		.byte	0
 2118 018c 00       		.byte	0
 2119 018d 1C       		.uleb128 0x1c
ARM GAS  C:\Users\z80\AppData\Local\Temp\ccAfkxle.s 			page 39


 2120 018e 05       		.uleb128 0x5
 2121 018f 00       		.byte	0
 2122 0190 03       		.uleb128 0x3
 2123 0191 0E       		.uleb128 0xe
 2124 0192 3A       		.uleb128 0x3a
 2125 0193 0B       		.uleb128 0xb
 2126 0194 3B       		.uleb128 0x3b
 2127 0195 05       		.uleb128 0x5
 2128 0196 49       		.uleb128 0x49
 2129 0197 13       		.uleb128 0x13
 2130 0198 02       		.uleb128 0x2
 2131 0199 0A       		.uleb128 0xa
 2132 019a 00       		.byte	0
 2133 019b 00       		.byte	0
 2134 019c 1D       		.uleb128 0x1d
 2135 019d 34       		.uleb128 0x34
 2136 019e 00       		.byte	0
 2137 019f 03       		.uleb128 0x3
 2138 01a0 08       		.uleb128 0x8
 2139 01a1 3A       		.uleb128 0x3a
 2140 01a2 0B       		.uleb128 0xb
 2141 01a3 3B       		.uleb128 0x3b
 2142 01a4 05       		.uleb128 0x5
 2143 01a5 49       		.uleb128 0x49
 2144 01a6 13       		.uleb128 0x13
 2145 01a7 02       		.uleb128 0x2
 2146 01a8 0A       		.uleb128 0xa
 2147 01a9 00       		.byte	0
 2148 01aa 00       		.byte	0
 2149 01ab 1E       		.uleb128 0x1e
 2150 01ac 34       		.uleb128 0x34
 2151 01ad 00       		.byte	0
 2152 01ae 03       		.uleb128 0x3
 2153 01af 0E       		.uleb128 0xe
 2154 01b0 3A       		.uleb128 0x3a
 2155 01b1 0B       		.uleb128 0xb
 2156 01b2 3B       		.uleb128 0x3b
 2157 01b3 0B       		.uleb128 0xb
 2158 01b4 49       		.uleb128 0x49
 2159 01b5 13       		.uleb128 0x13
 2160 01b6 3F       		.uleb128 0x3f
 2161 01b7 0C       		.uleb128 0xc
 2162 01b8 3C       		.uleb128 0x3c
 2163 01b9 0C       		.uleb128 0xc
 2164 01ba 00       		.byte	0
 2165 01bb 00       		.byte	0
 2166 01bc 00       		.byte	0
 2167              		.section	.debug_loc,"",%progbits
 2168              	.Ldebug_loc0:
 2169              	.LLST0:
 2170 0000 00000000 		.4byte	.LFB0
 2171 0004 02000000 		.4byte	.LCFI0
 2172 0008 0200     		.2byte	0x2
 2173 000a 7D       		.byte	0x7d
 2174 000b 00       		.sleb128 0
 2175 000c 02000000 		.4byte	.LCFI0
 2176 0010 46000000 		.4byte	.LFE0
ARM GAS  C:\Users\z80\AppData\Local\Temp\ccAfkxle.s 			page 40


 2177 0014 0200     		.2byte	0x2
 2178 0016 7D       		.byte	0x7d
 2179 0017 10       		.sleb128 16
 2180 0018 00000000 		.4byte	0
 2181 001c 00000000 		.4byte	0
 2182              	.LLST1:
 2183 0020 00000000 		.4byte	.LFB2
 2184 0024 02000000 		.4byte	.LCFI1
 2185 0028 0200     		.2byte	0x2
 2186 002a 7D       		.byte	0x7d
 2187 002b 00       		.sleb128 0
 2188 002c 02000000 		.4byte	.LCFI1
 2189 0030 22000000 		.4byte	.LFE2
 2190 0034 0200     		.2byte	0x2
 2191 0036 7D       		.byte	0x7d
 2192 0037 10       		.sleb128 16
 2193 0038 00000000 		.4byte	0
 2194 003c 00000000 		.4byte	0
 2195              	.LLST2:
 2196 0040 00000000 		.4byte	.LFB7
 2197 0044 02000000 		.4byte	.LCFI2
 2198 0048 0200     		.2byte	0x2
 2199 004a 7D       		.byte	0x7d
 2200 004b 00       		.sleb128 0
 2201 004c 02000000 		.4byte	.LCFI2
 2202 0050 04000000 		.4byte	.LCFI3
 2203 0054 0200     		.2byte	0x2
 2204 0056 7D       		.byte	0x7d
 2205 0057 04       		.sleb128 4
 2206 0058 04000000 		.4byte	.LCFI3
 2207 005c 2A000000 		.4byte	.LFE7
 2208 0060 0200     		.2byte	0x2
 2209 0062 7D       		.byte	0x7d
 2210 0063 10       		.sleb128 16
 2211 0064 00000000 		.4byte	0
 2212 0068 00000000 		.4byte	0
 2213              	.LLST3:
 2214 006c 00000000 		.4byte	.LFB8
 2215 0070 02000000 		.4byte	.LCFI4
 2216 0074 0200     		.2byte	0x2
 2217 0076 7D       		.byte	0x7d
 2218 0077 00       		.sleb128 0
 2219 0078 02000000 		.4byte	.LCFI4
 2220 007c 04000000 		.4byte	.LCFI5
 2221 0080 0200     		.2byte	0x2
 2222 0082 7D       		.byte	0x7d
 2223 0083 04       		.sleb128 4
 2224 0084 04000000 		.4byte	.LCFI5
 2225 0088 52000000 		.4byte	.LFE8
 2226 008c 0200     		.2byte	0x2
 2227 008e 7D       		.byte	0x7d
 2228 008f 10       		.sleb128 16
 2229 0090 00000000 		.4byte	0
 2230 0094 00000000 		.4byte	0
 2231              	.LLST4:
 2232 0098 00000000 		.4byte	.LFB9
 2233 009c 02000000 		.4byte	.LCFI6
ARM GAS  C:\Users\z80\AppData\Local\Temp\ccAfkxle.s 			page 41


 2234 00a0 0200     		.2byte	0x2
 2235 00a2 7D       		.byte	0x7d
 2236 00a3 00       		.sleb128 0
 2237 00a4 02000000 		.4byte	.LCFI6
 2238 00a8 04000000 		.4byte	.LCFI7
 2239 00ac 0200     		.2byte	0x2
 2240 00ae 7D       		.byte	0x7d
 2241 00af 04       		.sleb128 4
 2242 00b0 04000000 		.4byte	.LCFI7
 2243 00b4 42000000 		.4byte	.LFE9
 2244 00b8 0200     		.2byte	0x2
 2245 00ba 7D       		.byte	0x7d
 2246 00bb 10       		.sleb128 16
 2247 00bc 00000000 		.4byte	0
 2248 00c0 00000000 		.4byte	0
 2249              	.LLST5:
 2250 00c4 00000000 		.4byte	.LFB10
 2251 00c8 02000000 		.4byte	.LCFI8
 2252 00cc 0200     		.2byte	0x2
 2253 00ce 7D       		.byte	0x7d
 2254 00cf 00       		.sleb128 0
 2255 00d0 02000000 		.4byte	.LCFI8
 2256 00d4 04000000 		.4byte	.LCFI9
 2257 00d8 0200     		.2byte	0x2
 2258 00da 7D       		.byte	0x7d
 2259 00db 04       		.sleb128 4
 2260 00dc 04000000 		.4byte	.LCFI9
 2261 00e0 2C000000 		.4byte	.LFE10
 2262 00e4 0200     		.2byte	0x2
 2263 00e6 7D       		.byte	0x7d
 2264 00e7 10       		.sleb128 16
 2265 00e8 00000000 		.4byte	0
 2266 00ec 00000000 		.4byte	0
 2267              	.LLST6:
 2268 00f0 00000000 		.4byte	.LFB11
 2269 00f4 02000000 		.4byte	.LCFI10
 2270 00f8 0200     		.2byte	0x2
 2271 00fa 7D       		.byte	0x7d
 2272 00fb 00       		.sleb128 0
 2273 00fc 02000000 		.4byte	.LCFI10
 2274 0100 04000000 		.4byte	.LCFI11
 2275 0104 0200     		.2byte	0x2
 2276 0106 7D       		.byte	0x7d
 2277 0107 04       		.sleb128 4
 2278 0108 04000000 		.4byte	.LCFI11
 2279 010c 48000000 		.4byte	.LFE11
 2280 0110 0200     		.2byte	0x2
 2281 0112 7D       		.byte	0x7d
 2282 0113 10       		.sleb128 16
 2283 0114 00000000 		.4byte	0
 2284 0118 00000000 		.4byte	0
 2285              	.LLST7:
 2286 011c 00000000 		.4byte	.LFB12
 2287 0120 02000000 		.4byte	.LCFI12
 2288 0124 0200     		.2byte	0x2
 2289 0126 7D       		.byte	0x7d
 2290 0127 00       		.sleb128 0
ARM GAS  C:\Users\z80\AppData\Local\Temp\ccAfkxle.s 			page 42


 2291 0128 02000000 		.4byte	.LCFI12
 2292 012c 04000000 		.4byte	.LCFI13
 2293 0130 0200     		.2byte	0x2
 2294 0132 7D       		.byte	0x7d
 2295 0133 04       		.sleb128 4
 2296 0134 04000000 		.4byte	.LCFI13
 2297 0138 2E000000 		.4byte	.LFE12
 2298 013c 0200     		.2byte	0x2
 2299 013e 7D       		.byte	0x7d
 2300 013f 18       		.sleb128 24
 2301 0140 00000000 		.4byte	0
 2302 0144 00000000 		.4byte	0
 2303              	.LLST8:
 2304 0148 00000000 		.4byte	.LFB13
 2305 014c 02000000 		.4byte	.LCFI14
 2306 0150 0200     		.2byte	0x2
 2307 0152 7D       		.byte	0x7d
 2308 0153 00       		.sleb128 0
 2309 0154 02000000 		.4byte	.LCFI14
 2310 0158 04000000 		.4byte	.LCFI15
 2311 015c 0200     		.2byte	0x2
 2312 015e 7D       		.byte	0x7d
 2313 015f 04       		.sleb128 4
 2314 0160 04000000 		.4byte	.LCFI15
 2315 0164 6E000000 		.4byte	.LFE13
 2316 0168 0200     		.2byte	0x2
 2317 016a 7D       		.byte	0x7d
 2318 016b 20       		.sleb128 32
 2319 016c 00000000 		.4byte	0
 2320 0170 00000000 		.4byte	0
 2321              	.LLST9:
 2322 0174 00000000 		.4byte	.LFB14
 2323 0178 02000000 		.4byte	.LCFI16
 2324 017c 0200     		.2byte	0x2
 2325 017e 7D       		.byte	0x7d
 2326 017f 00       		.sleb128 0
 2327 0180 02000000 		.4byte	.LCFI16
 2328 0184 04000000 		.4byte	.LCFI17
 2329 0188 0200     		.2byte	0x2
 2330 018a 7D       		.byte	0x7d
 2331 018b 04       		.sleb128 4
 2332 018c 04000000 		.4byte	.LCFI17
 2333 0190 32000000 		.4byte	.LFE14
 2334 0194 0200     		.2byte	0x2
 2335 0196 7D       		.byte	0x7d
 2336 0197 18       		.sleb128 24
 2337 0198 00000000 		.4byte	0
 2338 019c 00000000 		.4byte	0
 2339              	.LLST10:
 2340 01a0 00000000 		.4byte	.LFB15
 2341 01a4 02000000 		.4byte	.LCFI18
 2342 01a8 0200     		.2byte	0x2
 2343 01aa 7D       		.byte	0x7d
 2344 01ab 00       		.sleb128 0
 2345 01ac 02000000 		.4byte	.LCFI18
 2346 01b0 04000000 		.4byte	.LCFI19
 2347 01b4 0200     		.2byte	0x2
ARM GAS  C:\Users\z80\AppData\Local\Temp\ccAfkxle.s 			page 43


 2348 01b6 7D       		.byte	0x7d
 2349 01b7 04       		.sleb128 4
 2350 01b8 04000000 		.4byte	.LCFI19
 2351 01bc 8A000000 		.4byte	.LFE15
 2352 01c0 0200     		.2byte	0x2
 2353 01c2 7D       		.byte	0x7d
 2354 01c3 18       		.sleb128 24
 2355 01c4 00000000 		.4byte	0
 2356 01c8 00000000 		.4byte	0
 2357              		.section	.debug_aranges,"",%progbits
 2358 0000 6C000000 		.4byte	0x6c
 2359 0004 0200     		.2byte	0x2
 2360 0006 00000000 		.4byte	.Ldebug_info0
 2361 000a 04       		.byte	0x4
 2362 000b 00       		.byte	0
 2363 000c 0000     		.2byte	0
 2364 000e 0000     		.2byte	0
 2365 0010 00000000 		.4byte	.LFB0
 2366 0014 46000000 		.4byte	.LFE0-.LFB0
 2367 0018 00000000 		.4byte	.LFB2
 2368 001c 22000000 		.4byte	.LFE2-.LFB2
 2369 0020 00000000 		.4byte	.LFB7
 2370 0024 2A000000 		.4byte	.LFE7-.LFB7
 2371 0028 00000000 		.4byte	.LFB8
 2372 002c 52000000 		.4byte	.LFE8-.LFB8
 2373 0030 00000000 		.4byte	.LFB9
 2374 0034 42000000 		.4byte	.LFE9-.LFB9
 2375 0038 00000000 		.4byte	.LFB10
 2376 003c 2C000000 		.4byte	.LFE10-.LFB10
 2377 0040 00000000 		.4byte	.LFB11
 2378 0044 48000000 		.4byte	.LFE11-.LFB11
 2379 0048 00000000 		.4byte	.LFB12
 2380 004c 2E000000 		.4byte	.LFE12-.LFB12
 2381 0050 00000000 		.4byte	.LFB13
 2382 0054 6E000000 		.4byte	.LFE13-.LFB13
 2383 0058 00000000 		.4byte	.LFB14
 2384 005c 32000000 		.4byte	.LFE14-.LFB14
 2385 0060 00000000 		.4byte	.LFB15
 2386 0064 8A000000 		.4byte	.LFE15-.LFB15
 2387 0068 00000000 		.4byte	0
 2388 006c 00000000 		.4byte	0
 2389              		.section	.debug_ranges,"",%progbits
 2390              	.Ldebug_ranges0:
 2391 0000 00000000 		.4byte	.LFB0
 2392 0004 46000000 		.4byte	.LFE0
 2393 0008 00000000 		.4byte	.LFB2
 2394 000c 22000000 		.4byte	.LFE2
 2395 0010 00000000 		.4byte	.LFB7
 2396 0014 2A000000 		.4byte	.LFE7
 2397 0018 00000000 		.4byte	.LFB8
 2398 001c 52000000 		.4byte	.LFE8
 2399 0020 00000000 		.4byte	.LFB9
 2400 0024 42000000 		.4byte	.LFE9
 2401 0028 00000000 		.4byte	.LFB10
 2402 002c 2C000000 		.4byte	.LFE10
 2403 0030 00000000 		.4byte	.LFB11
 2404 0034 48000000 		.4byte	.LFE11
ARM GAS  C:\Users\z80\AppData\Local\Temp\ccAfkxle.s 			page 44


 2405 0038 00000000 		.4byte	.LFB12
 2406 003c 2E000000 		.4byte	.LFE12
 2407 0040 00000000 		.4byte	.LFB13
 2408 0044 6E000000 		.4byte	.LFE13
 2409 0048 00000000 		.4byte	.LFB14
 2410 004c 32000000 		.4byte	.LFE14
 2411 0050 00000000 		.4byte	.LFB15
 2412 0054 8A000000 		.4byte	.LFE15
 2413 0058 00000000 		.4byte	0
 2414 005c 00000000 		.4byte	0
 2415              		.section	.debug_line,"",%progbits
 2416              	.Ldebug_line0:
 2417 0000 BF020000 		.section	.debug_str,"MS",%progbits,1
 2417      02006501 
 2417      00000201 
 2417      FB0E0D00 
 2417      01010101 
 2418              	.LASF34:
 2419 0000 705F6D73 		.ascii	"p_msg\000"
 2419      6700
 2420              	.LASF63:
 2421 0006 6368436F 		.ascii	"chCondInit\000"
 2421      6E64496E 
 2421      697400
 2422              	.LASF58:
 2423 0011 7264796D 		.ascii	"rdymsg\000"
 2423      736700
 2424              	.LASF11:
 2425 0018 75696E74 		.ascii	"uint64_t\000"
 2425      36345F74 
 2425      00
 2426              	.LASF12:
 2427 0021 6C6F6E67 		.ascii	"long long unsigned int\000"
 2427      206C6F6E 
 2427      6720756E 
 2427      7369676E 
 2427      65642069 
 2428              	.LASF59:
 2429 0038 65786974 		.ascii	"exitcode\000"
 2429      636F6465 
 2429      00
 2430              	.LASF67:
 2431 0041 6368436F 		.ascii	"chCondBroadcastI\000"
 2431      6E644272 
 2431      6F616463 
 2431      61737449 
 2431      00
 2432              	.LASF23:
 2433 0052 705F7072 		.ascii	"p_prio\000"
 2433      696F00
 2434              	.LASF10:
 2435 0059 6C6F6E67 		.ascii	"long long int\000"
 2435      206C6F6E 
 2435      6720696E 
 2435      7400
 2436              	.LASF1:
 2437 0067 7369676E 		.ascii	"signed char\000"
ARM GAS  C:\Users\z80\AppData\Local\Temp\ccAfkxle.s 			page 45


 2437      65642063 
 2437      68617200 
 2438              	.LASF53:
 2439 0073 6D5F7175 		.ascii	"m_queue\000"
 2439      65756500 
 2440              	.LASF75:
 2441 007b 433A5C70 		.ascii	"C:\\projects\\digitizer.git\\firmware\\digitizer\000"
 2441      726F6A65 
 2441      6374735C 
 2441      64696769 
 2441      74697A65 
 2442              	.LASF56:
 2443 00a8 436F6E64 		.ascii	"CondVar\000"
 2443      56617200 
 2444              	.LASF7:
 2445 00b0 6C6F6E67 		.ascii	"long int\000"
 2445      20696E74 
 2445      00
 2446              	.LASF14:
 2447 00b9 74737461 		.ascii	"tstate_t\000"
 2447      74655F74 
 2447      00
 2448              	.LASF25:
 2449 00c2 705F6E65 		.ascii	"p_newer\000"
 2449      77657200 
 2450              	.LASF47:
 2451 00ca 725F6E65 		.ascii	"r_newer\000"
 2451      77657200 
 2452              	.LASF40:
 2453 00d2 72656761 		.ascii	"regarm_t\000"
 2453      726D5F74 
 2453      00
 2454              	.LASF64:
 2455 00db 6368436F 		.ascii	"chCondSignal\000"
 2455      6E645369 
 2455      676E616C 
 2455      00
 2456              	.LASF19:
 2457 00e8 636E745F 		.ascii	"cnt_t\000"
 2457      7400
 2458              	.LASF28:
 2459 00ee 705F7374 		.ascii	"p_stklimit\000"
 2459      6B6C696D 
 2459      697400
 2460              	.LASF0:
 2461 00f9 756E7369 		.ascii	"unsigned int\000"
 2461      676E6564 
 2461      20696E74 
 2461      00
 2462              	.LASF9:
 2463 0106 6C6F6E67 		.ascii	"long unsigned int\000"
 2463      20756E73 
 2463      69676E65 
 2463      6420696E 
 2463      7400
 2464              	.LASF43:
 2465 0118 636F6E74 		.ascii	"context\000"
ARM GAS  C:\Users\z80\AppData\Local\Temp\ccAfkxle.s 			page 46


 2465      65787400 
 2466              	.LASF4:
 2467 0120 73686F72 		.ascii	"short unsigned int\000"
 2467      7420756E 
 2467      7369676E 
 2467      65642069 
 2467      6E7400
 2468              	.LASF16:
 2469 0133 6D73675F 		.ascii	"msg_t\000"
 2469      7400
 2470              	.LASF76:
 2471 0139 7072696F 		.ascii	"prio_insert\000"
 2471      5F696E73 
 2471      65727400 
 2472              	.LASF13:
 2473 0145 746D6F64 		.ascii	"tmode_t\000"
 2473      655F7400 
 2474              	.LASF39:
 2475 014d 54687265 		.ascii	"ThreadsList\000"
 2475      6164734C 
 2475      69737400 
 2476              	.LASF17:
 2477 0159 6576656E 		.ascii	"eventmask_t\000"
 2477      746D6173 
 2477      6B5F7400 
 2478              	.LASF52:
 2479 0165 4D757465 		.ascii	"Mutex\000"
 2479      7800
 2480              	.LASF41:
 2481 016b 73746B61 		.ascii	"stkalign_t\000"
 2481      6C69676E 
 2481      5F7400
 2482              	.LASF72:
 2483 0176 6368436F 		.ascii	"chCondWaitTimeoutS\000"
 2483      6E645761 
 2483      69745469 
 2483      6D656F75 
 2483      745300
 2484              	.LASF26:
 2485 0189 705F6F6C 		.ascii	"p_older\000"
 2485      64657200 
 2486              	.LASF46:
 2487 0191 725F6374 		.ascii	"r_ctx\000"
 2487      7800
 2488              	.LASF38:
 2489 0197 54687265 		.ascii	"ThreadsQueue\000"
 2489      61647351 
 2489      75657565 
 2489      00
 2490              	.LASF71:
 2491 01a4 74696D65 		.ascii	"time\000"
 2491      00
 2492              	.LASF50:
 2493 01a9 725F6375 		.ascii	"r_current\000"
 2493      7272656E 
 2493      7400
 2494              	.LASF48:
ARM GAS  C:\Users\z80\AppData\Local\Temp\ccAfkxle.s 			page 47


 2495 01b3 725F6F6C 		.ascii	"r_older\000"
 2495      64657200 
 2496              	.LASF66:
 2497 01bb 6368436F 		.ascii	"chCondBroadcast\000"
 2497      6E644272 
 2497      6F616463 
 2497      61737400 
 2498              	.LASF22:
 2499 01cb 705F7072 		.ascii	"p_prev\000"
 2499      657600
 2500              	.LASF15:
 2501 01d2 74707269 		.ascii	"tprio_t\000"
 2501      6F5F7400 
 2502              	.LASF65:
 2503 01da 6368436F 		.ascii	"chCondSignalI\000"
 2503      6E645369 
 2503      676E616C 
 2503      4900
 2504              	.LASF6:
 2505 01e8 696E7433 		.ascii	"int32_t\000"
 2505      325F7400 
 2506              	.LASF2:
 2507 01f0 756E7369 		.ascii	"unsigned char\000"
 2507      676E6564 
 2507      20636861 
 2507      7200
 2508              	.LASF36:
 2509 01fe 705F6D74 		.ascii	"p_mtxlist\000"
 2509      786C6973 
 2509      7400
 2510              	.LASF3:
 2511 0208 73686F72 		.ascii	"short int\000"
 2511      7420696E 
 2511      7400
 2512              	.LASF29:
 2513 0212 705F7374 		.ascii	"p_state\000"
 2513      61746500 
 2514              	.LASF45:
 2515 021a 725F7072 		.ascii	"r_prio\000"
 2515      696F00
 2516              	.LASF61:
 2517 0221 65776D61 		.ascii	"ewmask\000"
 2517      736B00
 2518              	.LASF21:
 2519 0228 705F6E65 		.ascii	"p_next\000"
 2519      787400
 2520              	.LASF30:
 2521 022f 705F666C 		.ascii	"p_flags\000"
 2521      61677300 
 2522              	.LASF20:
 2523 0237 54687265 		.ascii	"Thread\000"
 2523      616400
 2524              	.LASF57:
 2525 023e 635F7175 		.ascii	"c_queue\000"
 2525      65756500 
 2526              	.LASF35:
 2527 0246 705F6570 		.ascii	"p_epending\000"
ARM GAS  C:\Users\z80\AppData\Local\Temp\ccAfkxle.s 			page 48


 2527      656E6469 
 2527      6E6700
 2528              	.LASF8:
 2529 0251 75696E74 		.ascii	"uint32_t\000"
 2529      33325F74 
 2529      00
 2530              	.LASF44:
 2531 025a 725F7175 		.ascii	"r_queue\000"
 2531      65756500 
 2532              	.LASF73:
 2533 0262 474E5520 		.ascii	"GNU C 4.6.3\000"
 2533      4320342E 
 2533      362E3300 
 2534              	.LASF62:
 2535 026e 63686172 		.ascii	"char\000"
 2535      00
 2536              	.LASF77:
 2537 0273 6669666F 		.ascii	"fifo_remove\000"
 2537      5F72656D 
 2537      6F766500 
 2538              	.LASF69:
 2539 027f 6368436F 		.ascii	"chCondWaitS\000"
 2539      6E645761 
 2539      69745300 
 2540              	.LASF55:
 2541 028b 6D5F6E65 		.ascii	"m_next\000"
 2541      787400
 2542              	.LASF18:
 2543 0292 73797374 		.ascii	"systime_t\000"
 2543      696D655F 
 2543      7400
 2544              	.LASF37:
 2545 029c 705F7265 		.ascii	"p_realprio\000"
 2545      616C7072 
 2545      696F00
 2546              	.LASF74:
 2547 02a7 2E2E2F63 		.ascii	"../chibios_2.4.x/os/kernel/src/chcond.c\000"
 2547      68696269 
 2547      6F735F32 
 2547      2E342E78 
 2547      2F6F732F 
 2548              	.LASF68:
 2549 02cf 6368436F 		.ascii	"chCondWait\000"
 2549      6E645761 
 2549      697400
 2550              	.LASF31:
 2551 02da 705F7469 		.ascii	"p_time\000"
 2551      6D6500
 2552              	.LASF42:
 2553 02e1 696E7463 		.ascii	"intctx\000"
 2553      747800
 2554              	.LASF33:
 2555 02e8 705F6D73 		.ascii	"p_msgqueue\000"
 2555      67717565 
 2555      756500
 2556              	.LASF51:
 2557 02f3 52656164 		.ascii	"ReadyList\000"
ARM GAS  C:\Users\z80\AppData\Local\Temp\ccAfkxle.s 			page 49


 2557      794C6973 
 2557      7400
 2558              	.LASF78:
 2559 02fd 726C6973 		.ascii	"rlist\000"
 2559      7400
 2560              	.LASF5:
 2561 0303 75696E74 		.ascii	"uint8_t\000"
 2561      385F7400 
 2562              	.LASF60:
 2563 030b 77746F62 		.ascii	"wtobjp\000"
 2563      6A7000
 2564              	.LASF27:
 2565 0312 705F6E61 		.ascii	"p_name\000"
 2565      6D6500
 2566              	.LASF70:
 2567 0319 6368436F 		.ascii	"chCondWaitTimeout\000"
 2567      6E645761 
 2567      69745469 
 2567      6D656F75 
 2567      7400
 2568              	.LASF49:
 2569 032b 725F7072 		.ascii	"r_preempt\000"
 2569      65656D70 
 2569      7400
 2570              	.LASF54:
 2571 0335 6D5F6F77 		.ascii	"m_owner\000"
 2571      6E657200 
 2572              	.LASF24:
 2573 033d 705F6374 		.ascii	"p_ctx\000"
 2573      7800
 2574              	.LASF32:
 2575 0343 705F7761 		.ascii	"p_waiting\000"
 2575      6974696E 
 2575      6700
 2576              		.ident	"GCC: (Sourcery CodeBench Lite 2012.03-56) 4.6.3"
ARM GAS  C:\Users\z80\AppData\Local\Temp\ccAfkxle.s 			page 50


DEFINED SYMBOLS
                            *ABS*:00000000 chcond.c
C:\Users\z80\AppData\Local\Temp\ccAfkxle.s:19     .text.prio_insert:00000000 $t
C:\Users\z80\AppData\Local\Temp\ccAfkxle.s:24     .text.prio_insert:00000000 prio_insert
C:\Users\z80\AppData\Local\Temp\ccAfkxle.s:82     .text.fifo_remove:00000000 $t
C:\Users\z80\AppData\Local\Temp\ccAfkxle.s:87     .text.fifo_remove:00000000 fifo_remove
C:\Users\z80\AppData\Local\Temp\ccAfkxle.s:121    .rodata:00000000 $d
C:\Users\z80\AppData\Local\Temp\ccAfkxle.s:122    .rodata:00000000 .LC0
C:\Users\z80\AppData\Local\Temp\ccAfkxle.s:125    .text.chCondInit:00000000 $t
C:\Users\z80\AppData\Local\Temp\ccAfkxle.s:131    .text.chCondInit:00000000 chCondInit
C:\Users\z80\AppData\Local\Temp\ccAfkxle.s:171    .rodata:00000010 .LC1
C:\Users\z80\AppData\Local\Temp\ccAfkxle.s:174    .text.chCondSignal:00000000 $t
C:\Users\z80\AppData\Local\Temp\ccAfkxle.s:180    .text.chCondSignal:00000000 chCondSignal
C:\Users\z80\AppData\Local\Temp\ccAfkxle.s:244    .rodata:00000024 .LC2
C:\Users\z80\AppData\Local\Temp\ccAfkxle.s:247    .text.chCondSignalI:00000000 $t
C:\Users\z80\AppData\Local\Temp\ccAfkxle.s:253    .text.chCondSignalI:00000000 chCondSignalI
C:\Users\z80\AppData\Local\Temp\ccAfkxle.s:302    .text.chCondBroadcast:00000000 $t
C:\Users\z80\AppData\Local\Temp\ccAfkxle.s:308    .text.chCondBroadcast:00000000 chCondBroadcast
C:\Users\z80\AppData\Local\Temp\ccAfkxle.s:362    .text.chCondBroadcastI:00000000 chCondBroadcastI
C:\Users\z80\AppData\Local\Temp\ccAfkxle.s:353    .rodata:00000038 .LC3
C:\Users\z80\AppData\Local\Temp\ccAfkxle.s:356    .text.chCondBroadcastI:00000000 $t
C:\Users\z80\AppData\Local\Temp\ccAfkxle.s:417    .text.chCondWait:00000000 $t
C:\Users\z80\AppData\Local\Temp\ccAfkxle.s:423    .text.chCondWait:00000000 chCondWait
C:\Users\z80\AppData\Local\Temp\ccAfkxle.s:482    .text.chCondWaitS:00000000 chCondWaitS
C:\Users\z80\AppData\Local\Temp\ccAfkxle.s:470    .rodata:00000050 .LC4
C:\Users\z80\AppData\Local\Temp\ccAfkxle.s:473    .rodata:00000060 .LC5
C:\Users\z80\AppData\Local\Temp\ccAfkxle.s:476    .text.chCondWaitS:00000000 $t
C:\Users\z80\AppData\Local\Temp\ccAfkxle.s:554    .text.chCondWaitTimeout:00000000 $t
C:\Users\z80\AppData\Local\Temp\ccAfkxle.s:560    .text.chCondWaitTimeout:00000000 chCondWaitTimeout
C:\Users\z80\AppData\Local\Temp\ccAfkxle.s:621    .text.chCondWaitTimeoutS:00000000 chCondWaitTimeoutS
C:\Users\z80\AppData\Local\Temp\ccAfkxle.s:609    .rodata:00000074 .LC6
C:\Users\z80\AppData\Local\Temp\ccAfkxle.s:612    .rodata:0000008c .LC7
C:\Users\z80\AppData\Local\Temp\ccAfkxle.s:615    .text.chCondWaitTimeoutS:00000000 $t
                     .debug_frame:00000010 $d

UNDEFINED SYMBOLS
chDbgPanic
dbg_check_lock
chSchWakeupS
dbg_check_unlock
chDbgCheckClassI
chSchReadyI
chSchRescheduleS
rlist
chDbgCheckClassS
chMtxUnlockS
chSchGoSleepS
chMtxLockS
chSchGoSleepTimeoutS
