ARM GAS  C:\Users\z80\AppData\Local\Temp\ccRXtn4t.s 			page 1


   1              		.syntax unified
   2              		.cpu cortex-m3
   3              		.fpu softvfp
   4              		.eabi_attribute 20, 1
   5              		.eabi_attribute 21, 1
   6              		.eabi_attribute 23, 3
   7              		.eabi_attribute 24, 1
   8              		.eabi_attribute 25, 1
   9              		.eabi_attribute 26, 1
  10              		.eabi_attribute 30, 2
  11              		.eabi_attribute 34, 1
  12              		.eabi_attribute 18, 4
  13              		.thumb
  14              		.file	"chevents.c"
  15              		.text
  16              	.Ltext0:
  17              		.cfi_sections	.debug_frame
  18              		.section	.text.chEvtRegisterMask,"ax",%progbits
  19              		.align	2
  20              		.p2align 4,,15
  21              		.global	chEvtRegisterMask
  22              		.thumb
  23              		.thumb_func
  24              		.type	chEvtRegisterMask, %function
  25              	chEvtRegisterMask:
  26              	.LFB7:
  27              		.file 1 "../chibios_2.4.x/os/kernel/src/chevents.c"
  28              		.loc 1 82 0
  29              		.cfi_startproc
  30              		@ args = 0, pretend = 0, frame = 0
  31              		@ frame_needed = 0, uses_anonymous_args = 0
  32              	.LVL0:
  33              		.loc 1 84 0
  34 0000 D0F10103 		rsbs	r3, r0, #1
  35 0004 38BF     		it	cc
  36 0006 0023     		movcc	r3, #0
  37 0008 0029     		cmp	r1, #0
  38 000a 08BF     		it	eq
  39 000c 43F00103 		orreq	r3, r3, #1
  40              		.loc 1 82 0
  41 0010 70B5     		push	{r4, r5, r6, lr}
  42              	.LCFI0:
  43              		.cfi_def_cfa_offset 16
  44              		.cfi_offset 14, -4
  45              		.cfi_offset 6, -8
  46              		.cfi_offset 5, -12
  47              		.cfi_offset 4, -16
  48              		.loc 1 84 0
  49 0012 0446     		mov	r4, r0
  50 0014 0D46     		mov	r5, r1
  51              		.loc 1 82 0
  52 0016 1646     		mov	r6, r2
  53              		.loc 1 84 0
  54 0018 2BB1     		cbz	r3, .L2
  55              		.loc 1 84 0 is_stmt 0 discriminator 1
  56 001a 40F20000 		movw	r0, #:lower16:.LC0
  57              	.LVL1:
ARM GAS  C:\Users\z80\AppData\Local\Temp\ccRXtn4t.s 			page 2


  58 001e C0F20000 		movt	r0, #:upper16:.LC0
  59 0022 FFF7FEFF 		bl	chDbgPanic
  60              	.LVL2:
  61              	.L2:
  62              	.LBB2:
  63              		.loc 1 86 0 is_stmt 1
  64 0026 2023     		movs	r3, #32
  65              	.LVL3:
  66              	@ 86 "../chibios_2.4.x/os/kernel/src/chevents.c" 1
  67 0028 83F31188 		msr     BASEPRI, r3
  68              	@ 0 "" 2
  69              	.LVL4:
  70              		.thumb
  71              	.LBE2:
  72 002c FFF7FEFF 		bl	dbg_check_lock
  73              	.LVL5:
  74              		.loc 1 89 0
  75 0030 40F20001 		movw	r1, #:lower16:rlist
  76 0034 C0F20001 		movt	r1, #:upper16:rlist
  77              		.loc 1 87 0
  78 0038 2268     		ldr	r2, [r4, #0]
  79              		.loc 1 89 0
  80 003a C869     		ldr	r0, [r1, #28]
  81              		.loc 1 87 0
  82 003c 2A60     		str	r2, [r5, #0]
  83              		.loc 1 88 0
  84 003e 2560     		str	r5, [r4, #0]
  85              		.loc 1 89 0
  86 0040 6860     		str	r0, [r5, #4]
  87              		.loc 1 90 0
  88 0042 AE60     		str	r6, [r5, #8]
  89              		.loc 1 91 0
  90 0044 FFF7FEFF 		bl	dbg_check_unlock
  91              	.LBB3:
  92 0048 0023     		movs	r3, #0
  93              	.LVL6:
  94              	@ 91 "../chibios_2.4.x/os/kernel/src/chevents.c" 1
  95 004a 83F31188 		msr     BASEPRI, r3
  96              	@ 0 "" 2
  97              	.LVL7:
  98              		.thumb
  99              	.LBE3:
 100              		.loc 1 92 0
 101 004e 70BD     		pop	{r4, r5, r6, pc}
 102              		.cfi_endproc
 103              	.LFE7:
 104              		.size	chEvtRegisterMask, .-chEvtRegisterMask
 105              		.section	.text.chEvtUnregister,"ax",%progbits
 106              		.align	2
 107              		.p2align 4,,15
 108              		.global	chEvtUnregister
 109              		.thumb
 110              		.thumb_func
 111              		.type	chEvtUnregister, %function
 112              	chEvtUnregister:
 113              	.LFB8:
 114              		.loc 1 107 0
ARM GAS  C:\Users\z80\AppData\Local\Temp\ccRXtn4t.s 			page 3


 115              		.cfi_startproc
 116              		@ args = 0, pretend = 0, frame = 0
 117              		@ frame_needed = 0, uses_anonymous_args = 0
 118              	.LVL8:
 119 0000 38B5     		push	{r3, r4, r5, lr}
 120              	.LCFI1:
 121              		.cfi_def_cfa_offset 16
 122              		.cfi_offset 14, -4
 123              		.cfi_offset 5, -8
 124              		.cfi_offset 4, -12
 125              		.cfi_offset 3, -16
 126              		.loc 1 110 0
 127 0002 D0F10103 		rsbs	r3, r0, #1
 128 0006 38BF     		it	cc
 129 0008 0023     		movcc	r3, #0
 130 000a 0029     		cmp	r1, #0
 131 000c 08BF     		it	eq
 132 000e 43F00103 		orreq	r3, r3, #1
 133 0012 0446     		mov	r4, r0
 134 0014 0D46     		mov	r5, r1
 135 0016 D3B9     		cbnz	r3, .L10
 136              	.LVL9:
 137              	.L5:
 138              	.LBB4:
 139              		.loc 1 113 0
 140 0018 2023     		movs	r3, #32
 141              	.LVL10:
 142              	@ 113 "../chibios_2.4.x/os/kernel/src/chevents.c" 1
 143 001a 83F31188 		msr     BASEPRI, r3
 144              	@ 0 "" 2
 145              	.LVL11:
 146              		.thumb
 147              	.LBE4:
 148 001e FFF7FEFF 		bl	dbg_check_lock
 149              	.LVL12:
 150              		.loc 1 114 0
 151 0022 2246     		mov	r2, r4
 152 0024 02E0     		b	.L6
 153              	.LVL13:
 154              	.L8:
 155              		.loc 1 115 0
 156 0026 9D42     		cmp	r5, r3
 157 0028 09D0     		beq	.L11
 158 002a 1A46     		mov	r2, r3
 159              	.LVL14:
 160              	.L6:
 161              		.loc 1 114 0 discriminator 1
 162 002c 1368     		ldr	r3, [r2, #0]
 163 002e A342     		cmp	r3, r4
 164 0030 F9D1     		bne	.L8
 165              		.loc 1 121 0
 166 0032 FFF7FEFF 		bl	dbg_check_unlock
 167              	.LVL15:
 168              	.LBB5:
 169 0036 0023     		movs	r3, #0
 170              	.LVL16:
 171              	@ 121 "../chibios_2.4.x/os/kernel/src/chevents.c" 1
ARM GAS  C:\Users\z80\AppData\Local\Temp\ccRXtn4t.s 			page 4


 172 0038 83F31188 		msr     BASEPRI, r3
 173              	@ 0 "" 2
 174              	.LVL17:
 175              		.thumb
 176              	.LBE5:
 177              		.loc 1 122 0
 178 003c 38BD     		pop	{r3, r4, r5, pc}
 179              	.LVL18:
 180              	.L11:
 181              		.loc 1 116 0
 182 003e 2868     		ldr	r0, [r5, #0]
 183 0040 1060     		str	r0, [r2, #0]
 184              		.loc 1 121 0
 185 0042 FFF7FEFF 		bl	dbg_check_unlock
 186              	.LVL19:
 187              	.LBB6:
 188 0046 0023     		movs	r3, #0
 189              	@ 121 "../chibios_2.4.x/os/kernel/src/chevents.c" 1
 190 0048 83F31188 		msr     BASEPRI, r3
 191              	@ 0 "" 2
 192              	.LVL20:
 193              		.thumb
 194              	.LBE6:
 195              		.loc 1 122 0
 196 004c 38BD     		pop	{r3, r4, r5, pc}
 197              	.LVL21:
 198              	.L10:
 199              		.loc 1 110 0 discriminator 1
 200 004e 40F20000 		movw	r0, #:lower16:.LC1
 201 0052 C0F20000 		movt	r0, #:upper16:.LC1
 202 0056 FFF7FEFF 		bl	chDbgPanic
 203 005a DDE7     		b	.L5
 204              		.cfi_endproc
 205              	.LFE8:
 206              		.size	chEvtUnregister, .-chEvtUnregister
 207 005c AFF30080 		.section	.text.chEvtClearFlags,"ax",%progbits
 208              		.align	2
 209              		.p2align 4,,15
 210              		.global	chEvtClearFlags
 211              		.thumb
 212              		.thumb_func
 213              		.type	chEvtClearFlags, %function
 214              	chEvtClearFlags:
 215              	.LFB9:
 216              		.loc 1 132 0
 217              		.cfi_startproc
 218              		@ args = 0, pretend = 0, frame = 0
 219              		@ frame_needed = 0, uses_anonymous_args = 0
 220              	.LVL22:
 221 0000 10B5     		push	{r4, lr}
 222              	.LCFI2:
 223              		.cfi_def_cfa_offset 8
 224              		.cfi_offset 14, -4
 225              		.cfi_offset 4, -8
 226              	.LBB7:
 227              		.loc 1 135 0
 228 0002 2023     		movs	r3, #32
ARM GAS  C:\Users\z80\AppData\Local\Temp\ccRXtn4t.s 			page 5


 229              	.LVL23:
 230              	.LBE7:
 231              		.loc 1 132 0
 232 0004 0446     		mov	r4, r0
 233              	.LBB8:
 234              		.loc 1 135 0
 235              	@ 135 "../chibios_2.4.x/os/kernel/src/chevents.c" 1
 236 0006 83F31188 		msr     BASEPRI, r3
 237              	@ 0 "" 2
 238              	.LVL24:
 239              		.thumb
 240              	.LBE8:
 241 000a FFF7FEFF 		bl	dbg_check_lock
 242              	.LVL25:
 243              		.loc 1 137 0
 244 000e 40F20000 		movw	r0, #:lower16:rlist
 245 0012 C0F20000 		movt	r0, #:upper16:rlist
 246 0016 C269     		ldr	r2, [r0, #28]
 247 0018 D36B     		ldr	r3, [r2, #60]
 248              		.loc 1 138 0
 249 001a 23EA0401 		bic	r1, r3, r4
 250 001e D163     		str	r1, [r2, #60]
 251              		.loc 1 137 0
 252 0020 1C40     		ands	r4, r4, r3
 253              	.LVL26:
 254              		.loc 1 140 0
 255 0022 FFF7FEFF 		bl	dbg_check_unlock
 256              	.LBB9:
 257 0026 0023     		movs	r3, #0
 258              	.LVL27:
 259              	@ 140 "../chibios_2.4.x/os/kernel/src/chevents.c" 1
 260 0028 83F31188 		msr     BASEPRI, r3
 261              	@ 0 "" 2
 262              	.LVL28:
 263              		.thumb
 264              	.LBE9:
 265              		.loc 1 142 0
 266 002c 2046     		mov	r0, r4
 267 002e 10BD     		pop	{r4, pc}
 268              		.cfi_endproc
 269              	.LFE9:
 270              		.size	chEvtClearFlags, .-chEvtClearFlags
 271              		.section	.text.chEvtAddFlags,"ax",%progbits
 272              		.align	2
 273              		.p2align 4,,15
 274              		.global	chEvtAddFlags
 275              		.thumb
 276              		.thumb_func
 277              		.type	chEvtAddFlags, %function
 278              	chEvtAddFlags:
 279              	.LFB10:
 280              		.loc 1 153 0
 281              		.cfi_startproc
 282              		@ args = 0, pretend = 0, frame = 0
 283              		@ frame_needed = 0, uses_anonymous_args = 0
 284              	.LVL29:
 285 0000 10B5     		push	{r4, lr}
ARM GAS  C:\Users\z80\AppData\Local\Temp\ccRXtn4t.s 			page 6


 286              	.LCFI3:
 287              		.cfi_def_cfa_offset 8
 288              		.cfi_offset 14, -4
 289              		.cfi_offset 4, -8
 290              	.LBB10:
 291              		.loc 1 155 0
 292 0002 2023     		movs	r3, #32
 293              	.LVL30:
 294              	.LBE10:
 295              		.loc 1 153 0
 296 0004 0446     		mov	r4, r0
 297              	.LBB11:
 298              		.loc 1 155 0
 299              	@ 155 "../chibios_2.4.x/os/kernel/src/chevents.c" 1
 300 0006 83F31188 		msr     BASEPRI, r3
 301              	@ 0 "" 2
 302              	.LVL31:
 303              		.thumb
 304              	.LBE11:
 305 000a FFF7FEFF 		bl	dbg_check_lock
 306              	.LVL32:
 307              		.loc 1 157 0
 308 000e 40F20000 		movw	r0, #:lower16:rlist
 309 0012 C0F20000 		movt	r0, #:upper16:rlist
 310 0016 C369     		ldr	r3, [r0, #28]
 311 0018 DA6B     		ldr	r2, [r3, #60]
 312 001a 1443     		orrs	r4, r4, r2
 313              	.LVL33:
 314 001c DC63     		str	r4, [r3, #60]
 315              	.LVL34:
 316              		.loc 1 159 0
 317 001e FFF7FEFF 		bl	dbg_check_unlock
 318              	.LBB12:
 319 0022 0023     		movs	r3, #0
 320              	.LVL35:
 321              	@ 159 "../chibios_2.4.x/os/kernel/src/chevents.c" 1
 322 0024 83F31188 		msr     BASEPRI, r3
 323              	@ 0 "" 2
 324              	.LVL36:
 325              		.thumb
 326              	.LBE12:
 327              		.loc 1 161 0
 328 0028 2046     		mov	r0, r4
 329 002a 10BD     		pop	{r4, pc}
 330              		.cfi_endproc
 331              	.LFE10:
 332              		.size	chEvtAddFlags, .-chEvtAddFlags
 333 002c AFF30080 		.section	.text.chEvtSignalFlagsI,"ax",%progbits
 334              		.align	2
 335              		.p2align 4,,15
 336              		.global	chEvtSignalFlagsI
 337              		.thumb
 338              		.thumb_func
 339              		.type	chEvtSignalFlagsI, %function
 340              	chEvtSignalFlagsI:
 341              	.LFB12:
 342              		.loc 1 193 0
ARM GAS  C:\Users\z80\AppData\Local\Temp\ccRXtn4t.s 			page 7


 343              		.cfi_startproc
 344              		@ args = 0, pretend = 0, frame = 0
 345              		@ frame_needed = 0, uses_anonymous_args = 0
 346              	.LVL37:
 347 0000 38B5     		push	{r3, r4, r5, lr}
 348              	.LCFI4:
 349              		.cfi_def_cfa_offset 16
 350              		.cfi_offset 14, -4
 351              		.cfi_offset 5, -8
 352              		.cfi_offset 4, -12
 353              		.cfi_offset 3, -16
 354              		.loc 1 193 0
 355 0002 0446     		mov	r4, r0
 356 0004 0D46     		mov	r5, r1
 357              		.loc 1 195 0
 358 0006 FFF7FEFF 		bl	chDbgCheckClassI
 359              	.LVL38:
 360              		.loc 1 196 0
 361 000a BCB1     		cbz	r4, .L19
 362              	.L15:
 363              		.loc 1 198 0
 364 000c E26B     		ldr	r2, [r4, #60]
 365              		.loc 1 200 0
 366 000e 94F82030 		ldrb	r3, [r4, #32]	@ zero_extendqisi2
 367              		.loc 1 198 0
 368 0012 1543     		orrs	r5, r5, r2
 369              	.LVL39:
 370              		.loc 1 200 0
 371 0014 082B     		cmp	r3, #8
 372              		.loc 1 198 0
 373 0016 E563     		str	r5, [r4, #60]
 374              		.loc 1 200 0
 375 0018 0CD0     		beq	.L20
 376              		.loc 1 201 0
 377 001a 092B     		cmp	r3, #9
 378 001c 00D0     		beq	.L21
 379              	.L14:
 380 001e 38BD     		pop	{r3, r4, r5, pc}
 381              	.L21:
 382              		.loc 1 203 0
 383 0020 A06A     		ldr	r0, [r4, #40]
 384 0022 0540     		ands	r5, r5, r0
 385              		.loc 1 202 0
 386 0024 A842     		cmp	r0, r5
 387 0026 FAD1     		bne	.L14
 388              	.L17:
 389              	.LVL40:
 390              	.LBB15:
 391              	.LBB16:
 392              		.loc 1 204 0
 393 0028 2046     		mov	r0, r4
 394 002a FFF7FEFF 		bl	chSchReadyI
 395 002e 0021     		movs	r1, #0
 396 0030 8162     		str	r1, [r0, #40]
 397 0032 38BD     		pop	{r3, r4, r5, pc}
 398              	.LVL41:
 399              	.L20:
ARM GAS  C:\Users\z80\AppData\Local\Temp\ccRXtn4t.s 			page 8


 400              	.LBE16:
 401              	.LBE15:
 402              		.loc 1 201 0 discriminator 1
 403 0034 A36A     		ldr	r3, [r4, #40]
 404              		.loc 1 200 0 discriminator 1
 405 0036 1D42     		tst	r5, r3
 406 0038 F6D1     		bne	.L17
 407 003a 38BD     		pop	{r3, r4, r5, pc}
 408              	.LVL42:
 409              	.L19:
 410              		.loc 1 196 0 discriminator 1
 411 003c 40F20000 		movw	r0, #:lower16:.LC2
 412 0040 C0F20000 		movt	r0, #:upper16:.LC2
 413 0044 FFF7FEFF 		bl	chDbgPanic
 414 0048 E0E7     		b	.L15
 415              		.cfi_endproc
 416              	.LFE12:
 417              		.size	chEvtSignalFlagsI, .-chEvtSignalFlagsI
 418 004a 00BFAFF3 		.section	.text.chEvtSignalFlags,"ax",%progbits
 418      0080
 419              		.align	2
 420              		.p2align 4,,15
 421              		.global	chEvtSignalFlags
 422              		.thumb
 423              		.thumb_func
 424              		.type	chEvtSignalFlags, %function
 425              	chEvtSignalFlags:
 426              	.LFB11:
 427              		.loc 1 171 0
 428              		.cfi_startproc
 429              		@ args = 0, pretend = 0, frame = 0
 430              		@ frame_needed = 0, uses_anonymous_args = 0
 431              	.LVL43:
 432 0000 38B5     		push	{r3, r4, r5, lr}
 433              	.LCFI5:
 434              		.cfi_def_cfa_offset 16
 435              		.cfi_offset 14, -4
 436              		.cfi_offset 5, -8
 437              		.cfi_offset 4, -12
 438              		.cfi_offset 3, -16
 439              		.loc 1 173 0
 440 0002 0446     		mov	r4, r0
 441              		.loc 1 171 0
 442 0004 0D46     		mov	r5, r1
 443              		.loc 1 173 0
 444 0006 80B1     		cbz	r0, .L24
 445              	.LVL44:
 446              	.L23:
 447              	.LBB17:
 448              		.loc 1 175 0
 449 0008 2023     		movs	r3, #32
 450              	.LVL45:
 451              	@ 175 "../chibios_2.4.x/os/kernel/src/chevents.c" 1
 452 000a 83F31188 		msr     BASEPRI, r3
 453              	@ 0 "" 2
 454              	.LVL46:
 455              		.thumb
ARM GAS  C:\Users\z80\AppData\Local\Temp\ccRXtn4t.s 			page 9


 456              	.LBE17:
 457 000e FFF7FEFF 		bl	dbg_check_lock
 458              	.LVL47:
 459              		.loc 1 176 0
 460 0012 2046     		mov	r0, r4
 461 0014 2946     		mov	r1, r5
 462 0016 FFF7FEFF 		bl	chEvtSignalFlagsI
 463              		.loc 1 177 0
 464 001a FFF7FEFF 		bl	chSchRescheduleS
 465              		.loc 1 178 0
 466 001e FFF7FEFF 		bl	dbg_check_unlock
 467              	.LBB18:
 468 0022 0023     		movs	r3, #0
 469              	.LVL48:
 470              	@ 178 "../chibios_2.4.x/os/kernel/src/chevents.c" 1
 471 0024 83F31188 		msr     BASEPRI, r3
 472              	@ 0 "" 2
 473              	.LVL49:
 474              		.thumb
 475              	.LBE18:
 476              		.loc 1 179 0
 477 0028 38BD     		pop	{r3, r4, r5, pc}
 478              	.LVL50:
 479              	.L24:
 480              		.loc 1 173 0 discriminator 1
 481 002a 40F20000 		movw	r0, #:lower16:.LC3
 482 002e C0F20000 		movt	r0, #:upper16:.LC3
 483 0032 FFF7FEFF 		bl	chDbgPanic
 484 0036 E7E7     		b	.L23
 485              		.cfi_endproc
 486              	.LFE11:
 487              		.size	chEvtSignalFlags, .-chEvtSignalFlags
 488 0038 AFF30080 		.section	.text.chEvtBroadcastFlagsI,"ax",%progbits
 488      AFF30080 
 489              		.align	2
 490              		.p2align 4,,15
 491              		.global	chEvtBroadcastFlagsI
 492              		.thumb
 493              		.thumb_func
 494              		.type	chEvtBroadcastFlagsI, %function
 495              	chEvtBroadcastFlagsI:
 496              	.LFB14:
 497              		.loc 1 245 0
 498              		.cfi_startproc
 499              		@ args = 0, pretend = 0, frame = 0
 500              		@ frame_needed = 0, uses_anonymous_args = 0
 501              	.LVL51:
 502 0000 70B5     		push	{r4, r5, r6, lr}
 503              	.LCFI6:
 504              		.cfi_def_cfa_offset 16
 505              		.cfi_offset 14, -4
 506              		.cfi_offset 6, -8
 507              		.cfi_offset 5, -12
 508              		.cfi_offset 4, -16
 509              		.loc 1 245 0
 510 0002 0546     		mov	r5, r0
 511 0004 0E46     		mov	r6, r1
ARM GAS  C:\Users\z80\AppData\Local\Temp\ccRXtn4t.s 			page 10


 512              		.loc 1 248 0
 513 0006 FFF7FEFF 		bl	chDbgCheckClassI
 514              	.LVL52:
 515              		.loc 1 249 0
 516 000a 5DB1     		cbz	r5, .L31
 517              	.L26:
 518              		.loc 1 251 0
 519 000c 2C68     		ldr	r4, [r5, #0]
 520              	.LVL53:
 521              		.loc 1 252 0
 522 000e A542     		cmp	r5, r4
 523 0010 07D0     		beq	.L25
 524              	.LVL54:
 525              	.L29:
 526              		.loc 1 253 0
 527 0012 A168     		ldr	r1, [r4, #8]
 528 0014 6068     		ldr	r0, [r4, #4]
 529 0016 3143     		orrs	r1, r1, r6
 530 0018 FFF7FEFF 		bl	chEvtSignalFlagsI
 531              		.loc 1 254 0
 532 001c 2468     		ldr	r4, [r4, #0]
 533              	.LVL55:
 534              		.loc 1 252 0
 535 001e A542     		cmp	r5, r4
 536 0020 F7D1     		bne	.L29
 537              	.L25:
 538 0022 70BD     		pop	{r4, r5, r6, pc}
 539              	.LVL56:
 540              	.L31:
 541              		.loc 1 249 0 discriminator 1
 542 0024 40F20000 		movw	r0, #:lower16:.LC4
 543 0028 C0F20000 		movt	r0, #:upper16:.LC4
 544 002c FFF7FEFF 		bl	chDbgPanic
 545 0030 ECE7     		b	.L26
 546              		.cfi_endproc
 547              	.LFE14:
 548              		.size	chEvtBroadcastFlagsI, .-chEvtBroadcastFlagsI
 549 0032 00BFAFF3 		.section	.text.chEvtBroadcastFlags,"ax",%progbits
 549      0080AFF3 
 549      0080AFF3 
 549      0080
 550              		.align	2
 551              		.p2align 4,,15
 552              		.global	chEvtBroadcastFlags
 553              		.thumb
 554              		.thumb_func
 555              		.type	chEvtBroadcastFlags, %function
 556              	chEvtBroadcastFlags:
 557              	.LFB13:
 558              		.loc 1 220 0
 559              		.cfi_startproc
 560              		@ args = 0, pretend = 0, frame = 0
 561              		@ frame_needed = 0, uses_anonymous_args = 0
 562              	.LVL57:
 563 0000 38B5     		push	{r3, r4, r5, lr}
 564              	.LCFI7:
 565              		.cfi_def_cfa_offset 16
ARM GAS  C:\Users\z80\AppData\Local\Temp\ccRXtn4t.s 			page 11


 566              		.cfi_offset 14, -4
 567              		.cfi_offset 5, -8
 568              		.cfi_offset 4, -12
 569              		.cfi_offset 3, -16
 570              		.loc 1 220 0
 571 0002 0546     		mov	r5, r0
 572 0004 0C46     		mov	r4, r1
 573              	.LBB19:
 574              		.loc 1 222 0
 575 0006 2023     		movs	r3, #32
 576              	.LVL58:
 577              	@ 222 "../chibios_2.4.x/os/kernel/src/chevents.c" 1
 578 0008 83F31188 		msr     BASEPRI, r3
 579              	@ 0 "" 2
 580              	.LVL59:
 581              		.thumb
 582              	.LBE19:
 583 000c FFF7FEFF 		bl	dbg_check_lock
 584              	.LVL60:
 585              		.loc 1 223 0
 586 0010 2846     		mov	r0, r5
 587 0012 2146     		mov	r1, r4
 588 0014 FFF7FEFF 		bl	chEvtBroadcastFlagsI
 589              		.loc 1 224 0
 590 0018 FFF7FEFF 		bl	chSchRescheduleS
 591              		.loc 1 225 0
 592 001c FFF7FEFF 		bl	dbg_check_unlock
 593              	.LBB20:
 594 0020 0023     		movs	r3, #0
 595              	.LVL61:
 596              	@ 225 "../chibios_2.4.x/os/kernel/src/chevents.c" 1
 597 0022 83F31188 		msr     BASEPRI, r3
 598              	@ 0 "" 2
 599              	.LVL62:
 600              		.thumb
 601              	.LBE20:
 602              		.loc 1 226 0
 603 0026 38BD     		pop	{r3, r4, r5, pc}
 604              		.cfi_endproc
 605              	.LFE13:
 606              		.size	chEvtBroadcastFlags, .-chEvtBroadcastFlags
 607 0028 AFF30080 		.section	.text.chEvtDispatch,"ax",%progbits
 607      AFF30080 
 608              		.align	2
 609              		.p2align 4,,15
 610              		.global	chEvtDispatch
 611              		.thumb
 612              		.thumb_func
 613              		.type	chEvtDispatch, %function
 614              	chEvtDispatch:
 615              	.LFB15:
 616              		.loc 1 267 0
 617              		.cfi_startproc
 618              		@ args = 0, pretend = 0, frame = 0
 619              		@ frame_needed = 0, uses_anonymous_args = 0
 620              	.LVL63:
 621 0000 2DE9F041 		push	{r4, r5, r6, r7, r8, lr}
ARM GAS  C:\Users\z80\AppData\Local\Temp\ccRXtn4t.s 			page 12


 622              	.LCFI8:
 623              		.cfi_def_cfa_offset 24
 624              		.cfi_offset 14, -4
 625              		.cfi_offset 8, -8
 626              		.cfi_offset 7, -12
 627              		.cfi_offset 6, -16
 628              		.cfi_offset 5, -20
 629              		.cfi_offset 4, -24
 630              		.loc 1 270 0
 631 0004 0446     		mov	r4, r0
 632              		.loc 1 267 0
 633 0006 0E46     		mov	r6, r1
 634              		.loc 1 270 0
 635 0008 E0B1     		cbz	r0, .L40
 636              	.LVL64:
 637              	.L34:
 638              		.loc 1 273 0 discriminator 1
 639 000a 8EB1     		cbz	r6, .L33
 640              		.loc 1 273 0 is_stmt 0
 641 000c 0027     		movs	r7, #0
 642 000e 3D46     		mov	r5, r7
 643              		.loc 1 274 0 is_stmt 1
 644 0010 4FF00108 		mov	r8, #1
 645              	.LVL65:
 646              	.L38:
 647 0014 08FA05F3 		lsl	r3, r8, r5
 648 0018 3342     		tst	r3, r6
 649 001a 05D0     		beq	.L36
 650              		.loc 1 278 0
 651 001c 26EA0306 		bic	r6, r6, r3
 652              	.LVL66:
 653              		.loc 1 275 0
 654 0020 E359     		ldr	r3, [r4, r7]
 655 0022 3BB1     		cbz	r3, .L41
 656              	.L37:
 657              	.LVL67:
 658              		.loc 1 279 0
 659 0024 2846     		mov	r0, r5
 660 0026 9847     		blx	r3
 661              	.L36:
 662              		.loc 1 281 0
 663 0028 0135     		adds	r5, r5, #1
 664              	.LVL68:
 665 002a 0437     		adds	r7, r7, #4
 666              		.loc 1 273 0
 667 002c 002E     		cmp	r6, #0
 668 002e F1D1     		bne	.L38
 669              	.LVL69:
 670              	.L33:
 671 0030 BDE8F081 		pop	{r4, r5, r6, r7, r8, pc}
 672              	.LVL70:
 673              	.L41:
 674              		.loc 1 275 0 discriminator 1
 675 0034 40F20000 		movw	r0, #:lower16:.LC6
 676 0038 C0F20000 		movt	r0, #:upper16:.LC6
 677 003c FFF7FEFF 		bl	chDbgPanic
 678 0040 E359     		ldr	r3, [r4, r7]
ARM GAS  C:\Users\z80\AppData\Local\Temp\ccRXtn4t.s 			page 13


 679 0042 EFE7     		b	.L37
 680              	.LVL71:
 681              	.L40:
 682              		.loc 1 270 0 discriminator 1
 683 0044 40F20000 		movw	r0, #:lower16:.LC5
 684 0048 C0F20000 		movt	r0, #:upper16:.LC5
 685 004c FFF7FEFF 		bl	chDbgPanic
 686              	.LVL72:
 687 0050 DBE7     		b	.L34
 688              		.cfi_endproc
 689              	.LFE15:
 690              		.size	chEvtDispatch, .-chEvtDispatch
 691 0052 00BFAFF3 		.section	.text.chEvtWaitOne,"ax",%progbits
 691      0080AFF3 
 691      0080AFF3 
 691      0080
 692              		.align	2
 693              		.p2align 4,,15
 694              		.global	chEvtWaitOne
 695              		.thumb
 696              		.thumb_func
 697              		.type	chEvtWaitOne, %function
 698              	chEvtWaitOne:
 699              	.LFB16:
 700              		.loc 1 302 0
 701              		.cfi_startproc
 702              		@ args = 0, pretend = 0, frame = 0
 703              		@ frame_needed = 0, uses_anonymous_args = 0
 704              	.LVL73:
 705 0000 38B5     		push	{r3, r4, r5, lr}
 706              	.LCFI9:
 707              		.cfi_def_cfa_offset 16
 708              		.cfi_offset 14, -4
 709              		.cfi_offset 5, -8
 710              		.cfi_offset 4, -12
 711              		.cfi_offset 3, -16
 712              		.loc 1 303 0
 713 0002 40F20003 		movw	r3, #:lower16:rlist
 714 0006 C0F20003 		movt	r3, #:upper16:rlist
 715 000a DC69     		ldr	r4, [r3, #28]
 716              	.LVL74:
 717              		.loc 1 302 0
 718 000c 0546     		mov	r5, r0
 719              	.LBB21:
 720              		.loc 1 306 0
 721 000e 2023     		movs	r3, #32
 722              	.LVL75:
 723              	@ 306 "../chibios_2.4.x/os/kernel/src/chevents.c" 1
 724 0010 83F31188 		msr     BASEPRI, r3
 725              	@ 0 "" 2
 726              	.LVL76:
 727              		.thumb
 728              	.LBE21:
 729 0014 FFF7FEFF 		bl	dbg_check_lock
 730              	.LVL77:
 731              		.loc 1 308 0
 732 0018 E36B     		ldr	r3, [r4, #60]
ARM GAS  C:\Users\z80\AppData\Local\Temp\ccRXtn4t.s 			page 14


 733              	.LVL78:
 734 001a 15EA0302 		ands	r2, r5, r3
 735 001e 06D1     		bne	.L43
 736              		.loc 1 309 0
 737 0020 A562     		str	r5, [r4, #40]
 738              		.loc 1 310 0
 739 0022 0820     		movs	r0, #8
 740 0024 FFF7FEFF 		bl	chSchGoSleepS
 741              	.LVL79:
 742              		.loc 1 311 0
 743 0028 E36B     		ldr	r3, [r4, #60]
 744 002a 05EA0302 		and	r2, r5, r3
 745              	.LVL80:
 746              	.L43:
 747              		.loc 1 313 0
 748 002e 5542     		negs	r5, r2
 749              	.LVL81:
 750 0030 1540     		ands	r5, r5, r2
 751              	.LVL82:
 752              		.loc 1 314 0
 753 0032 23EA0500 		bic	r0, r3, r5
 754 0036 E063     		str	r0, [r4, #60]
 755              		.loc 1 316 0
 756 0038 FFF7FEFF 		bl	dbg_check_unlock
 757              	.LBB22:
 758 003c 0023     		movs	r3, #0
 759              	.LVL83:
 760              	@ 316 "../chibios_2.4.x/os/kernel/src/chevents.c" 1
 761 003e 83F31188 		msr     BASEPRI, r3
 762              	@ 0 "" 2
 763              	.LVL84:
 764              		.thumb
 765              	.LBE22:
 766              		.loc 1 318 0
 767 0042 2846     		mov	r0, r5
 768 0044 38BD     		pop	{r3, r4, r5, pc}
 769              		.cfi_endproc
 770              	.LFE16:
 771              		.size	chEvtWaitOne, .-chEvtWaitOne
 772 0046 00BFAFF3 		.section	.text.chEvtWaitAny,"ax",%progbits
 772      0080AFF3 
 772      0080
 773              		.align	2
 774              		.p2align 4,,15
 775              		.global	chEvtWaitAny
 776              		.thumb
 777              		.thumb_func
 778              		.type	chEvtWaitAny, %function
 779              	chEvtWaitAny:
 780              	.LFB17:
 781              		.loc 1 331 0
 782              		.cfi_startproc
 783              		@ args = 0, pretend = 0, frame = 0
 784              		@ frame_needed = 0, uses_anonymous_args = 0
 785              	.LVL85:
 786              		.loc 1 332 0
 787 0000 40F20003 		movw	r3, #:lower16:rlist
ARM GAS  C:\Users\z80\AppData\Local\Temp\ccRXtn4t.s 			page 15


 788 0004 C0F20003 		movt	r3, #:upper16:rlist
 789              		.loc 1 331 0
 790 0008 70B5     		push	{r4, r5, r6, lr}
 791              	.LCFI10:
 792              		.cfi_def_cfa_offset 16
 793              		.cfi_offset 14, -4
 794              		.cfi_offset 6, -8
 795              		.cfi_offset 5, -12
 796              		.cfi_offset 4, -16
 797              		.loc 1 332 0
 798 000a DC69     		ldr	r4, [r3, #28]
 799              	.LVL86:
 800              		.loc 1 331 0
 801 000c 0546     		mov	r5, r0
 802              	.LBB23:
 803              		.loc 1 335 0
 804 000e 2023     		movs	r3, #32
 805              	.LVL87:
 806              	@ 335 "../chibios_2.4.x/os/kernel/src/chevents.c" 1
 807 0010 83F31188 		msr     BASEPRI, r3
 808              	@ 0 "" 2
 809              	.LVL88:
 810              		.thumb
 811              	.LBE23:
 812 0014 FFF7FEFF 		bl	dbg_check_lock
 813              	.LVL89:
 814              		.loc 1 337 0
 815 0018 E36B     		ldr	r3, [r4, #60]
 816              	.LVL90:
 817 001a 15EA0306 		ands	r6, r5, r3
 818 001e 06D1     		bne	.L45
 819              		.loc 1 338 0
 820 0020 A562     		str	r5, [r4, #40]
 821              		.loc 1 339 0
 822 0022 0820     		movs	r0, #8
 823 0024 FFF7FEFF 		bl	chSchGoSleepS
 824              	.LVL91:
 825              		.loc 1 340 0
 826 0028 E36B     		ldr	r3, [r4, #60]
 827 002a 05EA0306 		and	r6, r5, r3
 828              	.LVL92:
 829              	.L45:
 830              		.loc 1 342 0
 831 002e 23EA0600 		bic	r0, r3, r6
 832 0032 E063     		str	r0, [r4, #60]
 833              		.loc 1 344 0
 834 0034 FFF7FEFF 		bl	dbg_check_unlock
 835              	.LBB24:
 836 0038 0023     		movs	r3, #0
 837              	.LVL93:
 838              	@ 344 "../chibios_2.4.x/os/kernel/src/chevents.c" 1
 839 003a 83F31188 		msr     BASEPRI, r3
 840              	@ 0 "" 2
 841              	.LVL94:
 842              		.thumb
 843              	.LBE24:
 844              		.loc 1 346 0
ARM GAS  C:\Users\z80\AppData\Local\Temp\ccRXtn4t.s 			page 16


 845 003e 3046     		mov	r0, r6
 846 0040 70BD     		pop	{r4, r5, r6, pc}
 847              		.cfi_endproc
 848              	.LFE17:
 849              		.size	chEvtWaitAny, .-chEvtWaitAny
 850 0042 00BFAFF3 		.section	.text.chEvtWaitAll,"ax",%progbits
 850      0080AFF3 
 850      0080AFF3 
 850      0080
 851              		.align	2
 852              		.p2align 4,,15
 853              		.global	chEvtWaitAll
 854              		.thumb
 855              		.thumb_func
 856              		.type	chEvtWaitAll, %function
 857              	chEvtWaitAll:
 858              	.LFB18:
 859              		.loc 1 359 0
 860              		.cfi_startproc
 861              		@ args = 0, pretend = 0, frame = 0
 862              		@ frame_needed = 0, uses_anonymous_args = 0
 863              	.LVL95:
 864 0000 38B5     		push	{r3, r4, r5, lr}
 865              	.LCFI11:
 866              		.cfi_def_cfa_offset 16
 867              		.cfi_offset 14, -4
 868              		.cfi_offset 5, -8
 869              		.cfi_offset 4, -12
 870              		.cfi_offset 3, -16
 871              		.loc 1 360 0
 872 0002 40F20003 		movw	r3, #:lower16:rlist
 873 0006 C0F20003 		movt	r3, #:upper16:rlist
 874 000a DD69     		ldr	r5, [r3, #28]
 875              	.LVL96:
 876              		.loc 1 359 0
 877 000c 0446     		mov	r4, r0
 878              	.LBB25:
 879              		.loc 1 362 0
 880 000e 2023     		movs	r3, #32
 881              	.LVL97:
 882              	@ 362 "../chibios_2.4.x/os/kernel/src/chevents.c" 1
 883 0010 83F31188 		msr     BASEPRI, r3
 884              	@ 0 "" 2
 885              	.LVL98:
 886              		.thumb
 887              	.LBE25:
 888 0014 FFF7FEFF 		bl	dbg_check_lock
 889              	.LVL99:
 890              		.loc 1 364 0
 891 0018 EB6B     		ldr	r3, [r5, #60]
 892 001a 04EA0302 		and	r2, r4, r3
 893 001e A242     		cmp	r2, r4
 894 0020 04D0     		beq	.L47
 895              		.loc 1 365 0
 896 0022 AC62     		str	r4, [r5, #40]
 897              		.loc 1 366 0
 898 0024 0920     		movs	r0, #9
ARM GAS  C:\Users\z80\AppData\Local\Temp\ccRXtn4t.s 			page 17


 899 0026 FFF7FEFF 		bl	chSchGoSleepS
 900 002a EB6B     		ldr	r3, [r5, #60]
 901              	.L47:
 902              		.loc 1 368 0
 903 002c 23EA0400 		bic	r0, r3, r4
 904 0030 E863     		str	r0, [r5, #60]
 905              		.loc 1 370 0
 906 0032 FFF7FEFF 		bl	dbg_check_unlock
 907              	.LBB26:
 908 0036 0023     		movs	r3, #0
 909              	.LVL100:
 910              	@ 370 "../chibios_2.4.x/os/kernel/src/chevents.c" 1
 911 0038 83F31188 		msr     BASEPRI, r3
 912              	@ 0 "" 2
 913              	.LVL101:
 914              		.thumb
 915              	.LBE26:
 916              		.loc 1 372 0
 917 003c 2046     		mov	r0, r4
 918 003e 38BD     		pop	{r3, r4, r5, pc}
 919              		.cfi_endproc
 920              	.LFE18:
 921              		.size	chEvtWaitAll, .-chEvtWaitAll
 922              		.section	.text.chEvtWaitOneTimeout,"ax",%progbits
 923              		.align	2
 924              		.p2align 4,,15
 925              		.global	chEvtWaitOneTimeout
 926              		.thumb
 927              		.thumb_func
 928              		.type	chEvtWaitOneTimeout, %function
 929              	chEvtWaitOneTimeout:
 930              	.LFB19:
 931              		.loc 1 398 0
 932              		.cfi_startproc
 933              		@ args = 0, pretend = 0, frame = 0
 934              		@ frame_needed = 0, uses_anonymous_args = 0
 935              	.LVL102:
 936 0000 F8B5     		push	{r3, r4, r5, r6, r7, lr}
 937              	.LCFI12:
 938              		.cfi_def_cfa_offset 24
 939              		.cfi_offset 14, -4
 940              		.cfi_offset 7, -8
 941              		.cfi_offset 6, -12
 942              		.cfi_offset 5, -16
 943              		.cfi_offset 4, -20
 944              		.cfi_offset 3, -24
 945              		.loc 1 399 0
 946 0002 40F20003 		movw	r3, #:lower16:rlist
 947 0006 C0F20003 		movt	r3, #:upper16:rlist
 948 000a DE69     		ldr	r6, [r3, #28]
 949              	.LVL103:
 950              		.loc 1 398 0
 951 000c 0546     		mov	r5, r0
 952 000e 0F46     		mov	r7, r1
 953              	.LBB27:
 954              		.loc 1 402 0
 955 0010 2023     		movs	r3, #32
ARM GAS  C:\Users\z80\AppData\Local\Temp\ccRXtn4t.s 			page 18


 956              	.LVL104:
 957              	@ 402 "../chibios_2.4.x/os/kernel/src/chevents.c" 1
 958 0012 83F31188 		msr     BASEPRI, r3
 959              	@ 0 "" 2
 960              	.LVL105:
 961              		.thumb
 962              	.LBE27:
 963 0016 FFF7FEFF 		bl	dbg_check_lock
 964              	.LVL106:
 965              		.loc 1 404 0
 966 001a F36B     		ldr	r3, [r6, #60]
 967              	.LVL107:
 968 001c 15EA0304 		ands	r4, r5, r3
 969 0020 0AD1     		bne	.L49
 970              		.loc 1 405 0
 971 0022 AFB1     		cbz	r7, .L53
 972              		.loc 1 410 0
 973 0024 0820     		movs	r0, #8
 974              		.loc 1 409 0
 975 0026 B562     		str	r5, [r6, #40]
 976              		.loc 1 410 0
 977 0028 3946     		mov	r1, r7
 978 002a FFF7FEFF 		bl	chSchGoSleepTimeoutS
 979              	.LVL108:
 980 002e 0028     		cmp	r0, #0
 981 0030 0EDB     		blt	.L53
 982              		.loc 1 414 0
 983 0032 F36B     		ldr	r3, [r6, #60]
 984 0034 05EA0304 		and	r4, r5, r3
 985              	.LVL109:
 986              	.L49:
 987              		.loc 1 416 0
 988 0038 6242     		negs	r2, r4
 989 003a 1440     		ands	r4, r4, r2
 990              	.LVL110:
 991              		.loc 1 417 0
 992 003c 23EA0400 		bic	r0, r3, r4
 993 0040 F063     		str	r0, [r6, #60]
 994              		.loc 1 419 0
 995 0042 FFF7FEFF 		bl	dbg_check_unlock
 996              	.LBB28:
 997 0046 0023     		movs	r3, #0
 998              	.LVL111:
 999              	@ 419 "../chibios_2.4.x/os/kernel/src/chevents.c" 1
 1000 0048 83F31188 		msr     BASEPRI, r3
 1001              	@ 0 "" 2
 1002              	.LVL112:
 1003              		.thumb
 1004              	.LBE28:
 1005              		.loc 1 421 0
 1006 004c 2046     		mov	r0, r4
 1007 004e F8BD     		pop	{r3, r4, r5, r6, r7, pc}
 1008              	.LVL113:
 1009              	.L53:
 1010              		.loc 1 411 0
 1011 0050 FFF7FEFF 		bl	dbg_check_unlock
 1012              	.LBB29:
ARM GAS  C:\Users\z80\AppData\Local\Temp\ccRXtn4t.s 			page 19


 1013 0054 2346     		mov	r3, r4
 1014              	.LVL114:
 1015              	@ 411 "../chibios_2.4.x/os/kernel/src/chevents.c" 1
 1016 0056 83F31188 		msr     BASEPRI, r3
 1017              	@ 0 "" 2
 1018              	.LVL115:
 1019              		.thumb
 1020              	.LBE29:
 1021              		.loc 1 421 0
 1022 005a 2046     		mov	r0, r4
 1023 005c F8BD     		pop	{r3, r4, r5, r6, r7, pc}
 1024              		.cfi_endproc
 1025              	.LFE19:
 1026              		.size	chEvtWaitOneTimeout, .-chEvtWaitOneTimeout
 1027 005e 00BF     		.section	.text.chEvtWaitAnyTimeout,"ax",%progbits
 1028              		.align	2
 1029              		.p2align 4,,15
 1030              		.global	chEvtWaitAnyTimeout
 1031              		.thumb
 1032              		.thumb_func
 1033              		.type	chEvtWaitAnyTimeout, %function
 1034              	chEvtWaitAnyTimeout:
 1035              	.LFB20:
 1036              		.loc 1 441 0
 1037              		.cfi_startproc
 1038              		@ args = 0, pretend = 0, frame = 0
 1039              		@ frame_needed = 0, uses_anonymous_args = 0
 1040              	.LVL116:
 1041 0000 F8B5     		push	{r3, r4, r5, r6, r7, lr}
 1042              	.LCFI13:
 1043              		.cfi_def_cfa_offset 24
 1044              		.cfi_offset 14, -4
 1045              		.cfi_offset 7, -8
 1046              		.cfi_offset 6, -12
 1047              		.cfi_offset 5, -16
 1048              		.cfi_offset 4, -20
 1049              		.cfi_offset 3, -24
 1050              		.loc 1 442 0
 1051 0002 40F20003 		movw	r3, #:lower16:rlist
 1052 0006 C0F20003 		movt	r3, #:upper16:rlist
 1053 000a DD69     		ldr	r5, [r3, #28]
 1054              	.LVL117:
 1055              		.loc 1 441 0
 1056 000c 0446     		mov	r4, r0
 1057 000e 0F46     		mov	r7, r1
 1058              	.LBB30:
 1059              		.loc 1 445 0
 1060 0010 2023     		movs	r3, #32
 1061              	.LVL118:
 1062              	@ 445 "../chibios_2.4.x/os/kernel/src/chevents.c" 1
 1063 0012 83F31188 		msr     BASEPRI, r3
 1064              	@ 0 "" 2
 1065              	.LVL119:
 1066              		.thumb
 1067              	.LBE30:
 1068 0016 FFF7FEFF 		bl	dbg_check_lock
 1069              	.LVL120:
ARM GAS  C:\Users\z80\AppData\Local\Temp\ccRXtn4t.s 			page 20


 1070              		.loc 1 447 0
 1071 001a EB6B     		ldr	r3, [r5, #60]
 1072              	.LVL121:
 1073 001c 14EA0306 		ands	r6, r4, r3
 1074 0020 0AD1     		bne	.L55
 1075              		.loc 1 448 0
 1076 0022 9FB1     		cbz	r7, .L59
 1077              		.loc 1 453 0
 1078 0024 0820     		movs	r0, #8
 1079              		.loc 1 452 0
 1080 0026 AC62     		str	r4, [r5, #40]
 1081              		.loc 1 453 0
 1082 0028 3946     		mov	r1, r7
 1083 002a FFF7FEFF 		bl	chSchGoSleepTimeoutS
 1084              	.LVL122:
 1085 002e 0028     		cmp	r0, #0
 1086 0030 0CDB     		blt	.L59
 1087              		.loc 1 457 0
 1088 0032 EB6B     		ldr	r3, [r5, #60]
 1089 0034 04EA0306 		and	r6, r4, r3
 1090              	.LVL123:
 1091              	.L55:
 1092              		.loc 1 459 0
 1093 0038 23EA0600 		bic	r0, r3, r6
 1094 003c E863     		str	r0, [r5, #60]
 1095              		.loc 1 461 0
 1096 003e FFF7FEFF 		bl	dbg_check_unlock
 1097              	.LBB31:
 1098 0042 0023     		movs	r3, #0
 1099              	.LVL124:
 1100              	@ 461 "../chibios_2.4.x/os/kernel/src/chevents.c" 1
 1101 0044 83F31188 		msr     BASEPRI, r3
 1102              	@ 0 "" 2
 1103              	.LVL125:
 1104              		.thumb
 1105              	.LBE31:
 1106              		.loc 1 463 0
 1107 0048 3046     		mov	r0, r6
 1108 004a F8BD     		pop	{r3, r4, r5, r6, r7, pc}
 1109              	.LVL126:
 1110              	.L59:
 1111              		.loc 1 454 0
 1112 004c FFF7FEFF 		bl	dbg_check_unlock
 1113              	.LBB32:
 1114 0050 3346     		mov	r3, r6
 1115              	.LVL127:
 1116              	@ 454 "../chibios_2.4.x/os/kernel/src/chevents.c" 1
 1117 0052 83F31188 		msr     BASEPRI, r3
 1118              	@ 0 "" 2
 1119              	.LVL128:
 1120              		.thumb
 1121              	.LBE32:
 1122              		.loc 1 463 0
 1123 0056 3046     		mov	r0, r6
 1124 0058 F8BD     		pop	{r3, r4, r5, r6, r7, pc}
 1125              		.cfi_endproc
 1126              	.LFE20:
ARM GAS  C:\Users\z80\AppData\Local\Temp\ccRXtn4t.s 			page 21


 1127              		.size	chEvtWaitAnyTimeout, .-chEvtWaitAnyTimeout
 1128 005a 00BFAFF3 		.section	.text.chEvtWaitAllTimeout,"ax",%progbits
 1128      0080
 1129              		.align	2
 1130              		.p2align 4,,15
 1131              		.global	chEvtWaitAllTimeout
 1132              		.thumb
 1133              		.thumb_func
 1134              		.type	chEvtWaitAllTimeout, %function
 1135              	chEvtWaitAllTimeout:
 1136              	.LFB21:
 1137              		.loc 1 482 0
 1138              		.cfi_startproc
 1139              		@ args = 0, pretend = 0, frame = 0
 1140              		@ frame_needed = 0, uses_anonymous_args = 0
 1141              	.LVL129:
 1142              		.loc 1 483 0
 1143 0000 40F20003 		movw	r3, #:lower16:rlist
 1144 0004 C0F20003 		movt	r3, #:upper16:rlist
 1145              		.loc 1 482 0
 1146 0008 70B5     		push	{r4, r5, r6, lr}
 1147              	.LCFI14:
 1148              		.cfi_def_cfa_offset 16
 1149              		.cfi_offset 14, -4
 1150              		.cfi_offset 6, -8
 1151              		.cfi_offset 5, -12
 1152              		.cfi_offset 4, -16
 1153              		.loc 1 483 0
 1154 000a DD69     		ldr	r5, [r3, #28]
 1155              	.LVL130:
 1156              		.loc 1 482 0
 1157 000c 0446     		mov	r4, r0
 1158 000e 0E46     		mov	r6, r1
 1159              	.LBB33:
 1160              		.loc 1 485 0
 1161 0010 2023     		movs	r3, #32
 1162              	.LVL131:
 1163              	@ 485 "../chibios_2.4.x/os/kernel/src/chevents.c" 1
 1164 0012 83F31188 		msr     BASEPRI, r3
 1165              	@ 0 "" 2
 1166              	.LVL132:
 1167              		.thumb
 1168              	.LBE33:
 1169 0016 FFF7FEFF 		bl	dbg_check_lock
 1170              	.LVL133:
 1171              		.loc 1 487 0
 1172 001a EB6B     		ldr	r3, [r5, #60]
 1173 001c 04EA0302 		and	r2, r4, r3
 1174 0020 A242     		cmp	r2, r4
 1175 0022 09D0     		beq	.L61
 1176              		.loc 1 488 0
 1177 0024 96B1     		cbz	r6, .L65
 1178              		.loc 1 493 0
 1179 0026 0920     		movs	r0, #9
 1180              		.loc 1 492 0
 1181 0028 AC62     		str	r4, [r5, #40]
 1182              		.loc 1 493 0
ARM GAS  C:\Users\z80\AppData\Local\Temp\ccRXtn4t.s 			page 22


 1183 002a 3146     		mov	r1, r6
 1184 002c FFF7FEFF 		bl	chSchGoSleepTimeoutS
 1185 0030 0028     		cmp	r0, #0
 1186 0032 A8BF     		it	ge
 1187 0034 EB6B     		ldrge	r3, [r5, #60]
 1188 0036 11DB     		blt	.L66
 1189              	.L61:
 1190              		.loc 1 498 0
 1191 0038 23EA0400 		bic	r0, r3, r4
 1192 003c E863     		str	r0, [r5, #60]
 1193              		.loc 1 500 0
 1194 003e FFF7FEFF 		bl	dbg_check_unlock
 1195              	.LBB34:
 1196 0042 0023     		movs	r3, #0
 1197              	.LVL134:
 1198              	@ 500 "../chibios_2.4.x/os/kernel/src/chevents.c" 1
 1199 0044 83F31188 		msr     BASEPRI, r3
 1200              	@ 0 "" 2
 1201              	.LVL135:
 1202              		.thumb
 1203              	.L63:
 1204              	.LBE34:
 1205              		.loc 1 502 0
 1206 0048 2046     		mov	r0, r4
 1207 004a 70BD     		pop	{r4, r5, r6, pc}
 1208              	.LVL136:
 1209              	.L65:
 1210              		.loc 1 489 0
 1211 004c FFF7FEFF 		bl	dbg_check_unlock
 1212              	.LBB35:
 1213 0050 3346     		mov	r3, r6
 1214              	.LVL137:
 1215              	@ 489 "../chibios_2.4.x/os/kernel/src/chevents.c" 1
 1216 0052 83F31188 		msr     BASEPRI, r3
 1217              	@ 0 "" 2
 1218              	.LVL138:
 1219              		.thumb
 1220              	.LBE35:
 1221              		.loc 1 490 0
 1222 0056 3446     		mov	r4, r6
 1223              	.LVL139:
 1224              		.loc 1 502 0
 1225 0058 2046     		mov	r0, r4
 1226 005a 70BD     		pop	{r4, r5, r6, pc}
 1227              	.LVL140:
 1228              	.L66:
 1229              		.loc 1 494 0
 1230 005c FFF7FEFF 		bl	dbg_check_unlock
 1231              	.LBB36:
 1232 0060 0023     		movs	r3, #0
 1233              	@ 494 "../chibios_2.4.x/os/kernel/src/chevents.c" 1
 1234 0062 83F31188 		msr     BASEPRI, r3
 1235              	@ 0 "" 2
 1236              	.LVL141:
 1237              		.thumb
 1238              	.LBE36:
 1239              		.loc 1 495 0
ARM GAS  C:\Users\z80\AppData\Local\Temp\ccRXtn4t.s 			page 23


 1240 0066 1C46     		mov	r4, r3
 1241              	.LVL142:
 1242 0068 EEE7     		b	.L63
 1243              		.cfi_endproc
 1244              	.LFE21:
 1245              		.size	chEvtWaitAllTimeout, .-chEvtWaitAllTimeout
 1246 006a 00BFAFF3 		.section	.rodata.str1.4,"aMS",%progbits,1
 1246      0080
 1247              		.align	2
 1248              	.LC0:
 1249 0000 22636845 		.ascii	"\"chEvtRegisterMask\"()\000"
 1249      76745265 
 1249      67697374 
 1249      65724D61 
 1249      736B2228 
 1250 0016 0000     		.space	2
 1251              	.LC1:
 1252 0018 22636845 		.ascii	"\"chEvtUnregister\"()\000"
 1252      7674556E 
 1252      72656769 
 1252      73746572 
 1252      22282900 
 1253              	.LC2:
 1254 002c 22636845 		.ascii	"\"chEvtSignalI\"()\000"
 1254      76745369 
 1254      676E616C 
 1254      49222829 
 1254      00
 1255 003d 000000   		.space	3
 1256              	.LC3:
 1257 0040 22636845 		.ascii	"\"chEvtSignal\"()\000"
 1257      76745369 
 1257      676E616C 
 1257      22282900 
 1258              	.LC4:
 1259 0050 22636845 		.ascii	"\"chEvtBroadcastMaskI\"()\000"
 1259      76744272 
 1259      6F616463 
 1259      6173744D 
 1259      61736B49 
 1260              	.LC5:
 1261 0068 22636845 		.ascii	"\"chEvtDispatch\"()\000"
 1261      76744469 
 1261      73706174 
 1261      63682228 
 1261      2900
 1262 007a 0000     		.space	2
 1263              	.LC6:
 1264 007c 63684576 		.ascii	"chEvtDispatch(), #1\000"
 1264      74446973 
 1264      70617463 
 1264      6828292C 
 1264      20233100 
 1265              		.text
 1266              	.Letext0:
 1267              		.file 2 "c:\\programs\\codesourcery\\2011.03-56\\bin\\../lib/gcc/arm-none-eabi/4.6.3/../../../../a
 1268              		.file 3 "../chibios_2.4.x/os/ports/GCC/ARMCMx/chtypes.h"
ARM GAS  C:\Users\z80\AppData\Local\Temp\ccRXtn4t.s 			page 24


 1269              		.file 4 "../chibios_2.4.x/os/kernel/include/chlists.h"
 1270              		.file 5 "../chibios_2.4.x/os/kernel/include/chthreads.h"
 1271              		.file 6 "../chibios_2.4.x/os/ports/GCC/ARMCMx/chcore_v7m.h"
 1272              		.file 7 "../chibios_2.4.x/os/kernel/include/chschd.h"
 1273              		.file 8 "../chibios_2.4.x/os/kernel/include/chmtx.h"
 1274              		.file 9 "../chibios_2.4.x/os/kernel/include/chevents.h"
 1275              		.section	.debug_info,"",%progbits
 1276              	.Ldebug_info0:
 1277 0000 2B0C0000 		.4byte	0xc2b
 1278 0004 0200     		.2byte	0x2
 1279 0006 00000000 		.4byte	.Ldebug_abbrev0
 1280 000a 04       		.byte	0x4
 1281 000b 01       		.uleb128 0x1
 1282 000c 4B030000 		.4byte	.LASF86
 1283 0010 01       		.byte	0x1
 1284 0011 15020000 		.4byte	.LASF87
 1285 0015 99000000 		.4byte	.LASF88
 1286 0019 00000000 		.4byte	0
 1287 001d 00000000 		.4byte	0
 1288 0021 48000000 		.4byte	.Ldebug_ranges0+0x48
 1289 0025 00000000 		.4byte	.Ldebug_line0
 1290 0029 02       		.uleb128 0x2
 1291 002a 04       		.byte	0x4
 1292 002b 05       		.byte	0x5
 1293 002c 696E7400 		.ascii	"int\000"
 1294 0030 03       		.uleb128 0x3
 1295 0031 04       		.byte	0x4
 1296 0032 07       		.byte	0x7
 1297 0033 7A010000 		.4byte	.LASF0
 1298 0037 03       		.uleb128 0x3
 1299 0038 01       		.byte	0x1
 1300 0039 06       		.byte	0x6
 1301 003a 71000000 		.4byte	.LASF1
 1302 003e 04       		.uleb128 0x4
 1303 003f A9030000 		.4byte	.LASF5
 1304 0043 02       		.byte	0x2
 1305 0044 2A       		.byte	0x2a
 1306 0045 49000000 		.4byte	0x49
 1307 0049 03       		.uleb128 0x3
 1308 004a 01       		.byte	0x1
 1309 004b 08       		.byte	0x8
 1310 004c C8020000 		.4byte	.LASF2
 1311 0050 03       		.uleb128 0x3
 1312 0051 02       		.byte	0x2
 1313 0052 05       		.byte	0x5
 1314 0053 F9020000 		.4byte	.LASF3
 1315 0057 03       		.uleb128 0x3
 1316 0058 02       		.byte	0x2
 1317 0059 07       		.byte	0x7
 1318 005a A1010000 		.4byte	.LASF4
 1319 005e 04       		.uleb128 0x4
 1320 005f C0020000 		.4byte	.LASF6
 1321 0063 02       		.byte	0x2
 1322 0064 4F       		.byte	0x4f
 1323 0065 69000000 		.4byte	0x69
 1324 0069 03       		.uleb128 0x3
 1325 006a 04       		.byte	0x4
ARM GAS  C:\Users\z80\AppData\Local\Temp\ccRXtn4t.s 			page 25


 1326 006b 05       		.byte	0x5
 1327 006c D4000000 		.4byte	.LASF7
 1328 0070 04       		.uleb128 0x4
 1329 0071 3A030000 		.4byte	.LASF8
 1330 0075 02       		.byte	0x2
 1331 0076 50       		.byte	0x50
 1332 0077 7B000000 		.4byte	0x7b
 1333 007b 03       		.uleb128 0x3
 1334 007c 04       		.byte	0x4
 1335 007d 07       		.byte	0x7
 1336 007e 87010000 		.4byte	.LASF9
 1337 0082 03       		.uleb128 0x3
 1338 0083 08       		.byte	0x8
 1339 0084 05       		.byte	0x5
 1340 0085 63000000 		.4byte	.LASF10
 1341 0089 04       		.uleb128 0x4
 1342 008a 0D000000 		.4byte	.LASF11
 1343 008e 02       		.byte	0x2
 1344 008f 78       		.byte	0x78
 1345 0090 94000000 		.4byte	0x94
 1346 0094 03       		.uleb128 0x3
 1347 0095 08       		.byte	0x8
 1348 0096 07       		.byte	0x7
 1349 0097 16000000 		.4byte	.LASF12
 1350 009b 04       		.uleb128 0x4
 1351 009c E4010000 		.4byte	.LASF13
 1352 00a0 03       		.byte	0x3
 1353 00a1 2F       		.byte	0x2f
 1354 00a2 3E000000 		.4byte	0x3e
 1355 00a6 04       		.uleb128 0x4
 1356 00a7 DD000000 		.4byte	.LASF14
 1357 00ab 03       		.byte	0x3
 1358 00ac 30       		.byte	0x30
 1359 00ad 3E000000 		.4byte	0x3e
 1360 00b1 04       		.uleb128 0x4
 1361 00b2 A8020000 		.4byte	.LASF15
 1362 00b6 03       		.byte	0x3
 1363 00b7 32       		.byte	0x32
 1364 00b8 70000000 		.4byte	0x70
 1365 00bc 04       		.uleb128 0x4
 1366 00bd C6010000 		.4byte	.LASF16
 1367 00c1 03       		.byte	0x3
 1368 00c2 33       		.byte	0x33
 1369 00c3 5E000000 		.4byte	0x5e
 1370 00c7 04       		.uleb128 0x4
 1371 00c8 47010000 		.4byte	.LASF17
 1372 00cc 03       		.byte	0x3
 1373 00cd 34       		.byte	0x34
 1374 00ce 5E000000 		.4byte	0x5e
 1375 00d2 04       		.uleb128 0x4
 1376 00d3 F8010000 		.4byte	.LASF18
 1377 00d7 03       		.byte	0x3
 1378 00d8 35       		.byte	0x35
 1379 00d9 70000000 		.4byte	0x70
 1380 00dd 04       		.uleb128 0x4
 1381 00de 63030000 		.4byte	.LASF19
 1382 00e2 03       		.byte	0x3
ARM GAS  C:\Users\z80\AppData\Local\Temp\ccRXtn4t.s 			page 26


 1383 00e3 36       		.byte	0x36
 1384 00e4 70000000 		.4byte	0x70
 1385 00e8 04       		.uleb128 0x4
 1386 00e9 69010000 		.4byte	.LASF20
 1387 00ed 03       		.byte	0x3
 1388 00ee 37       		.byte	0x37
 1389 00ef 5E000000 		.4byte	0x5e
 1390 00f3 04       		.uleb128 0x4
 1391 00f4 28030000 		.4byte	.LASF21
 1392 00f8 04       		.byte	0x4
 1393 00f9 2A       		.byte	0x2a
 1394 00fa FE000000 		.4byte	0xfe
 1395 00fe 05       		.uleb128 0x5
 1396 00ff 28030000 		.4byte	.LASF21
 1397 0103 48       		.byte	0x48
 1398 0104 05       		.byte	0x5
 1399 0105 5E       		.byte	0x5e
 1400 0106 07020000 		.4byte	0x207
 1401 010a 06       		.uleb128 0x6
 1402 010b 19030000 		.4byte	.LASF22
 1403 010f 05       		.byte	0x5
 1404 0110 5F       		.byte	0x5f
 1405 0111 2C020000 		.4byte	0x22c
 1406 0115 02       		.byte	0x2
 1407 0116 23       		.byte	0x23
 1408 0117 00       		.uleb128 0
 1409 0118 06       		.uleb128 0x6
 1410 0119 A1020000 		.4byte	.LASF23
 1411 011d 05       		.byte	0x5
 1412 011e 61       		.byte	0x61
 1413 011f 2C020000 		.4byte	0x22c
 1414 0123 02       		.byte	0x2
 1415 0124 23       		.byte	0x23
 1416 0125 04       		.uleb128 0x4
 1417 0126 06       		.uleb128 0x6
 1418 0127 5C000000 		.4byte	.LASF24
 1419 012b 05       		.byte	0x5
 1420 012c 63       		.byte	0x63
 1421 012d B1000000 		.4byte	0xb1
 1422 0131 02       		.byte	0x2
 1423 0132 23       		.byte	0x23
 1424 0133 08       		.uleb128 0x8
 1425 0134 06       		.uleb128 0x6
 1426 0135 F3030000 		.4byte	.LASF25
 1427 0139 05       		.byte	0x5
 1428 013a 64       		.byte	0x64
 1429 013b 04030000 		.4byte	0x304
 1430 013f 02       		.byte	0x2
 1431 0140 23       		.byte	0x23
 1432 0141 0C       		.uleb128 0xc
 1433 0142 06       		.uleb128 0x6
 1434 0143 15010000 		.4byte	.LASF26
 1435 0147 05       		.byte	0x5
 1436 0148 66       		.byte	0x66
 1437 0149 2C020000 		.4byte	0x22c
 1438 014d 02       		.byte	0x2
 1439 014e 23       		.byte	0x23
ARM GAS  C:\Users\z80\AppData\Local\Temp\ccRXtn4t.s 			page 27


 1440 014f 10       		.uleb128 0x10
 1441 0150 06       		.uleb128 0x6
 1442 0151 4D020000 		.4byte	.LASF27
 1443 0155 05       		.byte	0x5
 1444 0156 67       		.byte	0x67
 1445 0157 2C020000 		.4byte	0x22c
 1446 015b 02       		.byte	0x2
 1447 015c 23       		.byte	0x23
 1448 015d 14       		.uleb128 0x14
 1449 015e 06       		.uleb128 0x6
 1450 015f DA030000 		.4byte	.LASF28
 1451 0163 05       		.byte	0x5
 1452 0164 6E       		.byte	0x6e
 1453 0165 AA040000 		.4byte	0x4aa
 1454 0169 02       		.byte	0x2
 1455 016a 23       		.byte	0x23
 1456 016b 18       		.uleb128 0x18
 1457 016c 06       		.uleb128 0x6
 1458 016d 6F010000 		.4byte	.LASF29
 1459 0171 05       		.byte	0x5
 1460 0172 74       		.byte	0x74
 1461 0173 BC040000 		.4byte	0x4bc
 1462 0177 02       		.byte	0x2
 1463 0178 23       		.byte	0x23
 1464 0179 1C       		.uleb128 0x1c
 1465 017a 06       		.uleb128 0x6
 1466 017b 03030000 		.4byte	.LASF30
 1467 017f 05       		.byte	0x5
 1468 0180 79       		.byte	0x79
 1469 0181 A6000000 		.4byte	0xa6
 1470 0185 02       		.byte	0x2
 1471 0186 23       		.byte	0x23
 1472 0187 20       		.uleb128 0x20
 1473 0188 06       		.uleb128 0x6
 1474 0189 20030000 		.4byte	.LASF31
 1475 018d 05       		.byte	0x5
 1476 018e 7D       		.byte	0x7d
 1477 018f 9B000000 		.4byte	0x9b
 1478 0193 02       		.byte	0x2
 1479 0194 23       		.byte	0x23
 1480 0195 21       		.uleb128 0x21
 1481 0196 06       		.uleb128 0x6
 1482 0197 78030000 		.4byte	.LASF32
 1483 019b 05       		.byte	0x5
 1484 019c 89       		.byte	0x89
 1485 019d 27030000 		.4byte	0x327
 1486 01a1 02       		.byte	0x2
 1487 01a2 23       		.byte	0x23
 1488 01a3 24       		.uleb128 0x24
 1489 01a4 07       		.uleb128 0x7
 1490 01a5 705F7500 		.ascii	"p_u\000"
 1491 01a9 05       		.byte	0x5
 1492 01aa AE       		.byte	0xae
 1493 01ab 75040000 		.4byte	0x475
 1494 01af 02       		.byte	0x2
 1495 01b0 23       		.byte	0x23
 1496 01b1 28       		.uleb128 0x28
ARM GAS  C:\Users\z80\AppData\Local\Temp\ccRXtn4t.s 			page 28


 1497 01b2 06       		.uleb128 0x6
 1498 01b3 F9030000 		.4byte	.LASF33
 1499 01b7 05       		.byte	0x5
 1500 01b8 B3       		.byte	0xb3
 1501 01b9 54020000 		.4byte	0x254
 1502 01bd 02       		.byte	0x2
 1503 01be 23       		.byte	0x23
 1504 01bf 2C       		.uleb128 0x2c
 1505 01c0 06       		.uleb128 0x6
 1506 01c1 86030000 		.4byte	.LASF34
 1507 01c5 05       		.byte	0x5
 1508 01c6 B9       		.byte	0xb9
 1509 01c7 32020000 		.4byte	0x232
 1510 01cb 02       		.byte	0x2
 1511 01cc 23       		.byte	0x23
 1512 01cd 30       		.uleb128 0x30
 1513 01ce 06       		.uleb128 0x6
 1514 01cf 00000000 		.4byte	.LASF35
 1515 01d3 05       		.byte	0x5
 1516 01d4 BD       		.byte	0xbd
 1517 01d5 BC000000 		.4byte	0xbc
 1518 01d9 02       		.byte	0x2
 1519 01da 23       		.byte	0x23
 1520 01db 38       		.uleb128 0x38
 1521 01dc 06       		.uleb128 0x6
 1522 01dd 2F030000 		.4byte	.LASF36
 1523 01e1 05       		.byte	0x5
 1524 01e2 C3       		.byte	0xc3
 1525 01e3 D2000000 		.4byte	0xd2
 1526 01e7 02       		.byte	0x2
 1527 01e8 23       		.byte	0x23
 1528 01e9 3C       		.uleb128 0x3c
 1529 01ea 06       		.uleb128 0x6
 1530 01eb EF020000 		.4byte	.LASF37
 1531 01ef 05       		.byte	0x5
 1532 01f0 CA       		.byte	0xca
 1533 01f1 C2040000 		.4byte	0x4c2
 1534 01f5 02       		.byte	0x2
 1535 01f6 23       		.byte	0x23
 1536 01f7 40       		.uleb128 0x40
 1537 01f8 06       		.uleb128 0x6
 1538 01f9 6D030000 		.4byte	.LASF38
 1539 01fd 05       		.byte	0x5
 1540 01fe CE       		.byte	0xce
 1541 01ff B1000000 		.4byte	0xb1
 1542 0203 02       		.byte	0x2
 1543 0204 23       		.byte	0x23
 1544 0205 44       		.uleb128 0x44
 1545 0206 00       		.byte	0
 1546 0207 08       		.uleb128 0x8
 1547 0208 08       		.byte	0x8
 1548 0209 04       		.byte	0x4
 1549 020a 61       		.byte	0x61
 1550 020b 2C020000 		.4byte	0x22c
 1551 020f 06       		.uleb128 0x6
 1552 0210 19030000 		.4byte	.LASF22
 1553 0214 04       		.byte	0x4
ARM GAS  C:\Users\z80\AppData\Local\Temp\ccRXtn4t.s 			page 29


 1554 0215 62       		.byte	0x62
 1555 0216 2C020000 		.4byte	0x22c
 1556 021a 02       		.byte	0x2
 1557 021b 23       		.byte	0x23
 1558 021c 00       		.uleb128 0
 1559 021d 06       		.uleb128 0x6
 1560 021e A1020000 		.4byte	.LASF23
 1561 0222 04       		.byte	0x4
 1562 0223 64       		.byte	0x64
 1563 0224 2C020000 		.4byte	0x22c
 1564 0228 02       		.byte	0x2
 1565 0229 23       		.byte	0x23
 1566 022a 04       		.uleb128 0x4
 1567 022b 00       		.byte	0
 1568 022c 09       		.uleb128 0x9
 1569 022d 04       		.byte	0x4
 1570 022e F3000000 		.4byte	0xf3
 1571 0232 04       		.uleb128 0x4
 1572 0233 5B020000 		.4byte	.LASF39
 1573 0237 04       		.byte	0x4
 1574 0238 66       		.byte	0x66
 1575 0239 07020000 		.4byte	0x207
 1576 023d 08       		.uleb128 0x8
 1577 023e 04       		.byte	0x4
 1578 023f 04       		.byte	0x4
 1579 0240 6B       		.byte	0x6b
 1580 0241 54020000 		.4byte	0x254
 1581 0245 06       		.uleb128 0x6
 1582 0246 19030000 		.4byte	.LASF22
 1583 024a 04       		.byte	0x4
 1584 024b 6D       		.byte	0x6d
 1585 024c 2C020000 		.4byte	0x22c
 1586 0250 02       		.byte	0x2
 1587 0251 23       		.byte	0x23
 1588 0252 00       		.uleb128 0
 1589 0253 00       		.byte	0
 1590 0254 04       		.uleb128 0x4
 1591 0255 EC010000 		.4byte	.LASF40
 1592 0259 04       		.byte	0x4
 1593 025a 70       		.byte	0x70
 1594 025b 3D020000 		.4byte	0x23d
 1595 025f 04       		.uleb128 0x4
 1596 0260 2A010000 		.4byte	.LASF41
 1597 0264 06       		.byte	0x6
 1598 0265 D7       		.byte	0xd7
 1599 0266 6A020000 		.4byte	0x26a
 1600 026a 0A       		.uleb128 0xa
 1601 026b 04       		.byte	0x4
 1602 026c 04       		.uleb128 0x4
 1603 026d 0A020000 		.4byte	.LASF42
 1604 0271 06       		.byte	0x6
 1605 0272 DD       		.byte	0xdd
 1606 0273 89000000 		.4byte	0x89
 1607 0277 05       		.uleb128 0x5
 1608 0278 7F030000 		.4byte	.LASF43
 1609 027c 24       		.byte	0x24
 1610 027d 06       		.byte	0x6
ARM GAS  C:\Users\z80\AppData\Local\Temp\ccRXtn4t.s 			page 30


 1611 027e FE       		.byte	0xfe
 1612 027f 04030000 		.4byte	0x304
 1613 0283 0B       		.uleb128 0xb
 1614 0284 723400   		.ascii	"r4\000"
 1615 0287 06       		.byte	0x6
 1616 0288 1101     		.2byte	0x111
 1617 028a 5F020000 		.4byte	0x25f
 1618 028e 02       		.byte	0x2
 1619 028f 23       		.byte	0x23
 1620 0290 00       		.uleb128 0
 1621 0291 0B       		.uleb128 0xb
 1622 0292 723500   		.ascii	"r5\000"
 1623 0295 06       		.byte	0x6
 1624 0296 1201     		.2byte	0x112
 1625 0298 5F020000 		.4byte	0x25f
 1626 029c 02       		.byte	0x2
 1627 029d 23       		.byte	0x23
 1628 029e 04       		.uleb128 0x4
 1629 029f 0B       		.uleb128 0xb
 1630 02a0 723600   		.ascii	"r6\000"
 1631 02a3 06       		.byte	0x6
 1632 02a4 1301     		.2byte	0x113
 1633 02a6 5F020000 		.4byte	0x25f
 1634 02aa 02       		.byte	0x2
 1635 02ab 23       		.byte	0x23
 1636 02ac 08       		.uleb128 0x8
 1637 02ad 0B       		.uleb128 0xb
 1638 02ae 723700   		.ascii	"r7\000"
 1639 02b1 06       		.byte	0x6
 1640 02b2 1401     		.2byte	0x114
 1641 02b4 5F020000 		.4byte	0x25f
 1642 02b8 02       		.byte	0x2
 1643 02b9 23       		.byte	0x23
 1644 02ba 0C       		.uleb128 0xc
 1645 02bb 0B       		.uleb128 0xb
 1646 02bc 723800   		.ascii	"r8\000"
 1647 02bf 06       		.byte	0x6
 1648 02c0 1501     		.2byte	0x115
 1649 02c2 5F020000 		.4byte	0x25f
 1650 02c6 02       		.byte	0x2
 1651 02c7 23       		.byte	0x23
 1652 02c8 10       		.uleb128 0x10
 1653 02c9 0B       		.uleb128 0xb
 1654 02ca 723900   		.ascii	"r9\000"
 1655 02cd 06       		.byte	0x6
 1656 02ce 1601     		.2byte	0x116
 1657 02d0 5F020000 		.4byte	0x25f
 1658 02d4 02       		.byte	0x2
 1659 02d5 23       		.byte	0x23
 1660 02d6 14       		.uleb128 0x14
 1661 02d7 0B       		.uleb128 0xb
 1662 02d8 72313000 		.ascii	"r10\000"
 1663 02dc 06       		.byte	0x6
 1664 02dd 1701     		.2byte	0x117
 1665 02df 5F020000 		.4byte	0x25f
 1666 02e3 02       		.byte	0x2
 1667 02e4 23       		.byte	0x23
ARM GAS  C:\Users\z80\AppData\Local\Temp\ccRXtn4t.s 			page 31


 1668 02e5 18       		.uleb128 0x18
 1669 02e6 0B       		.uleb128 0xb
 1670 02e7 72313100 		.ascii	"r11\000"
 1671 02eb 06       		.byte	0x6
 1672 02ec 1801     		.2byte	0x118
 1673 02ee 5F020000 		.4byte	0x25f
 1674 02f2 02       		.byte	0x2
 1675 02f3 23       		.byte	0x23
 1676 02f4 1C       		.uleb128 0x1c
 1677 02f5 0B       		.uleb128 0xb
 1678 02f6 6C7200   		.ascii	"lr\000"
 1679 02f9 06       		.byte	0x6
 1680 02fa 1901     		.2byte	0x119
 1681 02fc 5F020000 		.4byte	0x25f
 1682 0300 02       		.byte	0x2
 1683 0301 23       		.byte	0x23
 1684 0302 20       		.uleb128 0x20
 1685 0303 00       		.byte	0
 1686 0304 0C       		.uleb128 0xc
 1687 0305 99010000 		.4byte	.LASF44
 1688 0309 04       		.byte	0x4
 1689 030a 06       		.byte	0x6
 1690 030b 2301     		.2byte	0x123
 1691 030d 21030000 		.4byte	0x321
 1692 0311 0B       		.uleb128 0xb
 1693 0312 72313300 		.ascii	"r13\000"
 1694 0316 06       		.byte	0x6
 1695 0317 2401     		.2byte	0x124
 1696 0319 21030000 		.4byte	0x321
 1697 031d 02       		.byte	0x2
 1698 031e 23       		.byte	0x23
 1699 031f 00       		.uleb128 0
 1700 0320 00       		.byte	0
 1701 0321 09       		.uleb128 0x9
 1702 0322 04       		.byte	0x4
 1703 0323 77020000 		.4byte	0x277
 1704 0327 0D       		.uleb128 0xd
 1705 0328 DD000000 		.4byte	0xdd
 1706 032c 08       		.uleb128 0x8
 1707 032d 20       		.byte	0x20
 1708 032e 07       		.byte	0x7
 1709 032f 5E       		.byte	0x5e
 1710 0330 97030000 		.4byte	0x397
 1711 0334 06       		.uleb128 0x6
 1712 0335 43030000 		.4byte	.LASF45
 1713 0339 07       		.byte	0x7
 1714 033a 5F       		.byte	0x5f
 1715 033b 32020000 		.4byte	0x232
 1716 033f 02       		.byte	0x2
 1717 0340 23       		.byte	0x23
 1718 0341 00       		.uleb128 0
 1719 0342 06       		.uleb128 0x6
 1720 0343 0B030000 		.4byte	.LASF46
 1721 0347 07       		.byte	0x7
 1722 0348 60       		.byte	0x60
 1723 0349 B1000000 		.4byte	0xb1
 1724 034d 02       		.byte	0x2
ARM GAS  C:\Users\z80\AppData\Local\Temp\ccRXtn4t.s 			page 32


 1725 034e 23       		.byte	0x23
 1726 034f 08       		.uleb128 0x8
 1727 0350 06       		.uleb128 0x6
 1728 0351 55020000 		.4byte	.LASF47
 1729 0355 07       		.byte	0x7
 1730 0356 62       		.byte	0x62
 1731 0357 04030000 		.4byte	0x304
 1732 035b 02       		.byte	0x2
 1733 035c 23       		.byte	0x23
 1734 035d 0C       		.uleb128 0xc
 1735 035e 06       		.uleb128 0x6
 1736 035f 1D010000 		.4byte	.LASF48
 1737 0363 07       		.byte	0x7
 1738 0364 65       		.byte	0x65
 1739 0365 2C020000 		.4byte	0x22c
 1740 0369 02       		.byte	0x2
 1741 036a 23       		.byte	0x23
 1742 036b 10       		.uleb128 0x10
 1743 036c 06       		.uleb128 0x6
 1744 036d 88020000 		.4byte	.LASF49
 1745 0371 07       		.byte	0x7
 1746 0372 66       		.byte	0x66
 1747 0373 2C020000 		.4byte	0x22c
 1748 0377 02       		.byte	0x2
 1749 0378 23       		.byte	0x23
 1750 0379 14       		.uleb128 0x14
 1751 037a 06       		.uleb128 0x6
 1752 037b E1030000 		.4byte	.LASF50
 1753 037f 07       		.byte	0x7
 1754 0380 6A       		.byte	0x6a
 1755 0381 E8000000 		.4byte	0xe8
 1756 0385 02       		.byte	0x2
 1757 0386 23       		.byte	0x23
 1758 0387 18       		.uleb128 0x18
 1759 0388 06       		.uleb128 0x6
 1760 0389 7E020000 		.4byte	.LASF51
 1761 038d 07       		.byte	0x7
 1762 038e 6C       		.byte	0x6c
 1763 038f 2C020000 		.4byte	0x22c
 1764 0393 02       		.byte	0x2
 1765 0394 23       		.byte	0x23
 1766 0395 1C       		.uleb128 0x1c
 1767 0396 00       		.byte	0
 1768 0397 04       		.uleb128 0x4
 1769 0398 99030000 		.4byte	.LASF52
 1770 039c 07       		.byte	0x7
 1771 039d 6E       		.byte	0x6e
 1772 039e 2C030000 		.4byte	0x32c
 1773 03a2 05       		.uleb128 0x5
 1774 03a3 04020000 		.4byte	.LASF53
 1775 03a7 10       		.byte	0x10
 1776 03a8 08       		.byte	0x8
 1777 03a9 2C       		.byte	0x2c
 1778 03aa D9030000 		.4byte	0x3d9
 1779 03ae 06       		.uleb128 0x6
 1780 03af 91000000 		.4byte	.LASF54
 1781 03b3 08       		.byte	0x8
ARM GAS  C:\Users\z80\AppData\Local\Temp\ccRXtn4t.s 			page 33


 1782 03b4 2D       		.byte	0x2d
 1783 03b5 32020000 		.4byte	0x232
 1784 03b9 02       		.byte	0x2
 1785 03ba 23       		.byte	0x23
 1786 03bb 00       		.uleb128 0
 1787 03bc 06       		.uleb128 0x6
 1788 03bd EB030000 		.4byte	.LASF55
 1789 03c1 08       		.byte	0x8
 1790 03c2 2F       		.byte	0x2f
 1791 03c3 2C020000 		.4byte	0x22c
 1792 03c7 02       		.byte	0x2
 1793 03c8 23       		.byte	0x23
 1794 03c9 08       		.uleb128 0x8
 1795 03ca 06       		.uleb128 0x6
 1796 03cb 5C030000 		.4byte	.LASF56
 1797 03cf 08       		.byte	0x8
 1798 03d0 31       		.byte	0x31
 1799 03d1 D9030000 		.4byte	0x3d9
 1800 03d5 02       		.byte	0x2
 1801 03d6 23       		.byte	0x23
 1802 03d7 0C       		.uleb128 0xc
 1803 03d8 00       		.byte	0
 1804 03d9 09       		.uleb128 0x9
 1805 03da 04       		.byte	0x4
 1806 03db A2030000 		.4byte	0x3a2
 1807 03df 04       		.uleb128 0x4
 1808 03e0 04020000 		.4byte	.LASF53
 1809 03e4 08       		.byte	0x8
 1810 03e5 33       		.byte	0x33
 1811 03e6 A2030000 		.4byte	0x3a2
 1812 03ea 04       		.uleb128 0x4
 1813 03eb B1030000 		.4byte	.LASF57
 1814 03ef 09       		.byte	0x9
 1815 03f0 29       		.byte	0x29
 1816 03f1 F5030000 		.4byte	0x3f5
 1817 03f5 05       		.uleb128 0x5
 1818 03f6 B1030000 		.4byte	.LASF57
 1819 03fa 0C       		.byte	0xc
 1820 03fb 09       		.byte	0x9
 1821 03fc 2E       		.byte	0x2e
 1822 03fd 2C040000 		.4byte	0x42c
 1823 0401 06       		.uleb128 0x6
 1824 0402 CC010000 		.4byte	.LASF58
 1825 0406 09       		.byte	0x9
 1826 0407 2F       		.byte	0x2f
 1827 0408 2C040000 		.4byte	0x42c
 1828 040c 02       		.byte	0x2
 1829 040d 23       		.byte	0x23
 1830 040e 00       		.uleb128 0
 1831 040f 06       		.uleb128 0x6
 1832 0410 E3020000 		.4byte	.LASF59
 1833 0414 09       		.byte	0x9
 1834 0415 32       		.byte	0x32
 1835 0416 2C020000 		.4byte	0x22c
 1836 041a 02       		.byte	0x2
 1837 041b 23       		.byte	0x23
 1838 041c 04       		.uleb128 0x4
ARM GAS  C:\Users\z80\AppData\Local\Temp\ccRXtn4t.s 			page 34


 1839 041d 06       		.uleb128 0x6
 1840 041e 90020000 		.4byte	.LASF60
 1841 0422 09       		.byte	0x9
 1842 0423 34       		.byte	0x34
 1843 0424 D2000000 		.4byte	0xd2
 1844 0428 02       		.byte	0x2
 1845 0429 23       		.byte	0x23
 1846 042a 08       		.uleb128 0x8
 1847 042b 00       		.byte	0
 1848 042c 09       		.uleb128 0x9
 1849 042d 04       		.byte	0x4
 1850 042e EA030000 		.4byte	0x3ea
 1851 0432 05       		.uleb128 0x5
 1852 0433 51010000 		.4byte	.LASF61
 1853 0437 04       		.byte	0x4
 1854 0438 09       		.byte	0x9
 1855 0439 3C       		.byte	0x3c
 1856 043a 4D040000 		.4byte	0x44d
 1857 043e 06       		.uleb128 0x6
 1858 043f 91030000 		.4byte	.LASF62
 1859 0443 09       		.byte	0x9
 1860 0444 3D       		.byte	0x3d
 1861 0445 2C040000 		.4byte	0x42c
 1862 0449 02       		.byte	0x2
 1863 044a 23       		.byte	0x23
 1864 044b 00       		.uleb128 0
 1865 044c 00       		.byte	0
 1866 044d 04       		.uleb128 0x4
 1867 044e 51010000 		.4byte	.LASF61
 1868 0452 09       		.byte	0x9
 1869 0453 40       		.byte	0x40
 1870 0454 32040000 		.4byte	0x432
 1871 0458 04       		.uleb128 0x4
 1872 0459 5D010000 		.4byte	.LASF63
 1873 045d 09       		.byte	0x9
 1874 045e 45       		.byte	0x45
 1875 045f 63040000 		.4byte	0x463
 1876 0463 09       		.uleb128 0x9
 1877 0464 04       		.byte	0x4
 1878 0465 69040000 		.4byte	0x469
 1879 0469 0E       		.uleb128 0xe
 1880 046a 01       		.byte	0x1
 1881 046b 75040000 		.4byte	0x475
 1882 046f 0F       		.uleb128 0xf
 1883 0470 C7000000 		.4byte	0xc7
 1884 0474 00       		.byte	0
 1885 0475 10       		.uleb128 0x10
 1886 0476 04       		.byte	0x4
 1887 0477 05       		.byte	0x5
 1888 0478 90       		.byte	0x90
 1889 0479 AA040000 		.4byte	0x4aa
 1890 047d 11       		.uleb128 0x11
 1891 047e 06000000 		.4byte	.LASF64
 1892 0482 05       		.byte	0x5
 1893 0483 97       		.byte	0x97
 1894 0484 BC000000 		.4byte	0xbc
 1895 0488 11       		.uleb128 0x11
ARM GAS  C:\Users\z80\AppData\Local\Temp\ccRXtn4t.s 			page 35


 1896 0489 2D000000 		.4byte	.LASF65
 1897 048d 05       		.byte	0x5
 1898 048e 9E       		.byte	0x9e
 1899 048f BC000000 		.4byte	0xbc
 1900 0493 11       		.uleb128 0x11
 1901 0494 D3030000 		.4byte	.LASF66
 1902 0498 05       		.byte	0x5
 1903 0499 A5       		.byte	0xa5
 1904 049a 6A020000 		.4byte	0x26a
 1905 049e 11       		.uleb128 0x11
 1906 049f 12030000 		.4byte	.LASF67
 1907 04a3 05       		.byte	0x5
 1908 04a4 AC       		.byte	0xac
 1909 04a5 D2000000 		.4byte	0xd2
 1910 04a9 00       		.byte	0
 1911 04aa 09       		.uleb128 0x9
 1912 04ab 04       		.byte	0x4
 1913 04ac B0040000 		.4byte	0x4b0
 1914 04b0 12       		.uleb128 0x12
 1915 04b1 B5040000 		.4byte	0x4b5
 1916 04b5 03       		.uleb128 0x3
 1917 04b6 01       		.byte	0x1
 1918 04b7 08       		.byte	0x8
 1919 04b8 57030000 		.4byte	.LASF68
 1920 04bc 09       		.uleb128 0x9
 1921 04bd 04       		.byte	0x4
 1922 04be 6C020000 		.4byte	0x26c
 1923 04c2 09       		.uleb128 0x9
 1924 04c3 04       		.byte	0x4
 1925 04c4 DF030000 		.4byte	0x3df
 1926 04c8 13       		.uleb128 0x13
 1927 04c9 01       		.byte	0x1
 1928 04ca 36000000 		.4byte	.LASF89
 1929 04ce 01       		.byte	0x1
 1930 04cf C1       		.byte	0xc1
 1931 04d0 01       		.byte	0x1
 1932 04d1 01       		.byte	0x1
 1933 04d2 EC040000 		.4byte	0x4ec
 1934 04d6 14       		.uleb128 0x14
 1935 04d7 747000   		.ascii	"tp\000"
 1936 04da 01       		.byte	0x1
 1937 04db C1       		.byte	0xc1
 1938 04dc 2C020000 		.4byte	0x22c
 1939 04e0 15       		.uleb128 0x15
 1940 04e1 25010000 		.4byte	.LASF69
 1941 04e5 01       		.byte	0x1
 1942 04e6 C1       		.byte	0xc1
 1943 04e7 D2000000 		.4byte	0xd2
 1944 04eb 00       		.byte	0
 1945 04ec 16       		.uleb128 0x16
 1946 04ed 01       		.byte	0x1
 1947 04ee B4010000 		.4byte	.LASF70
 1948 04f2 01       		.byte	0x1
 1949 04f3 52       		.byte	0x52
 1950 04f4 01       		.byte	0x1
 1951 04f5 00000000 		.4byte	.LFB7
 1952 04f9 50000000 		.4byte	.LFE7
ARM GAS  C:\Users\z80\AppData\Local\Temp\ccRXtn4t.s 			page 36


 1953 04fd 00000000 		.4byte	.LLST0
 1954 0501 69050000 		.4byte	0x569
 1955 0505 17       		.uleb128 0x17
 1956 0506 65737000 		.ascii	"esp\000"
 1957 050a 01       		.byte	0x1
 1958 050b 52       		.byte	0x52
 1959 050c 69050000 		.4byte	0x569
 1960 0510 20000000 		.4byte	.LLST1
 1961 0514 17       		.uleb128 0x17
 1962 0515 656C7000 		.ascii	"elp\000"
 1963 0519 01       		.byte	0x1
 1964 051a 52       		.byte	0x52
 1965 051b 2C040000 		.4byte	0x42c
 1966 051f 3E000000 		.4byte	.LLST2
 1967 0523 18       		.uleb128 0x18
 1968 0524 25010000 		.4byte	.LASF69
 1969 0528 01       		.byte	0x1
 1970 0529 52       		.byte	0x52
 1971 052a D2000000 		.4byte	0xd2
 1972 052e 5C000000 		.4byte	.LLST3
 1973 0532 19       		.uleb128 0x19
 1974 0533 26000000 		.4byte	.LBB2
 1975 0537 2C000000 		.4byte	.LBE2
 1976 053b 4F050000 		.4byte	0x54f
 1977 053f 1A       		.uleb128 0x1a
 1978 0540 746D7000 		.ascii	"tmp\000"
 1979 0544 01       		.byte	0x1
 1980 0545 56       		.byte	0x56
 1981 0546 70000000 		.4byte	0x70
 1982 054a 7A000000 		.4byte	.LLST4
 1983 054e 00       		.byte	0
 1984 054f 1B       		.uleb128 0x1b
 1985 0550 48000000 		.4byte	.LBB3
 1986 0554 4E000000 		.4byte	.LBE3
 1987 0558 1A       		.uleb128 0x1a
 1988 0559 746D7000 		.ascii	"tmp\000"
 1989 055d 01       		.byte	0x1
 1990 055e 5B       		.byte	0x5b
 1991 055f 70000000 		.4byte	0x70
 1992 0563 8D000000 		.4byte	.LLST5
 1993 0567 00       		.byte	0
 1994 0568 00       		.byte	0
 1995 0569 09       		.uleb128 0x9
 1996 056a 04       		.byte	0x4
 1997 056b 4D040000 		.4byte	0x44d
 1998 056f 16       		.uleb128 0x16
 1999 0570 01       		.byte	0x1
 2000 0571 D4010000 		.4byte	.LASF71
 2001 0575 01       		.byte	0x1
 2002 0576 6B       		.byte	0x6b
 2003 0577 01       		.byte	0x1
 2004 0578 00000000 		.4byte	.LFB8
 2005 057c 5C000000 		.4byte	.LFE8
 2006 0580 A0000000 		.4byte	.LLST6
 2007 0584 E6050000 		.4byte	0x5e6
 2008 0588 17       		.uleb128 0x17
 2009 0589 65737000 		.ascii	"esp\000"
ARM GAS  C:\Users\z80\AppData\Local\Temp\ccRXtn4t.s 			page 37


 2010 058d 01       		.byte	0x1
 2011 058e 6B       		.byte	0x6b
 2012 058f 69050000 		.4byte	0x569
 2013 0593 C0000000 		.4byte	.LLST7
 2014 0597 17       		.uleb128 0x17
 2015 0598 656C7000 		.ascii	"elp\000"
 2016 059c 01       		.byte	0x1
 2017 059d 6B       		.byte	0x6b
 2018 059e 2C040000 		.4byte	0x42c
 2019 05a2 DE000000 		.4byte	.LLST8
 2020 05a6 1A       		.uleb128 0x1a
 2021 05a7 7000     		.ascii	"p\000"
 2022 05a9 01       		.byte	0x1
 2023 05aa 6C       		.byte	0x6c
 2024 05ab 2C040000 		.4byte	0x42c
 2025 05af FC000000 		.4byte	.LLST9
 2026 05b3 19       		.uleb128 0x19
 2027 05b4 18000000 		.4byte	.LBB4
 2028 05b8 1E000000 		.4byte	.LBE4
 2029 05bc D0050000 		.4byte	0x5d0
 2030 05c0 1A       		.uleb128 0x1a
 2031 05c1 746D7000 		.ascii	"tmp\000"
 2032 05c5 01       		.byte	0x1
 2033 05c6 71       		.byte	0x71
 2034 05c7 70000000 		.4byte	0x70
 2035 05cb 25010000 		.4byte	.LLST10
 2036 05cf 00       		.byte	0
 2037 05d0 1C       		.uleb128 0x1c
 2038 05d1 00000000 		.4byte	.Ldebug_ranges0+0
 2039 05d5 1A       		.uleb128 0x1a
 2040 05d6 746D7000 		.ascii	"tmp\000"
 2041 05da 01       		.byte	0x1
 2042 05db 79       		.byte	0x79
 2043 05dc 70000000 		.4byte	0x70
 2044 05e0 38010000 		.4byte	.LLST11
 2045 05e4 00       		.byte	0
 2046 05e5 00       		.byte	0
 2047 05e6 1D       		.uleb128 0x1d
 2048 05e7 01       		.byte	0x1
 2049 05e8 B0020000 		.4byte	.LASF72
 2050 05ec 01       		.byte	0x1
 2051 05ed 84       		.byte	0x84
 2052 05ee 01       		.byte	0x1
 2053 05ef D2000000 		.4byte	0xd2
 2054 05f3 00000000 		.4byte	.LFB9
 2055 05f7 30000000 		.4byte	.LFE9
 2056 05fb 56010000 		.4byte	.LLST12
 2057 05ff 50060000 		.4byte	0x650
 2058 0603 18       		.uleb128 0x18
 2059 0604 25010000 		.4byte	.LASF69
 2060 0608 01       		.byte	0x1
 2061 0609 84       		.byte	0x84
 2062 060a D2000000 		.4byte	0xd2
 2063 060e 76010000 		.4byte	.LLST13
 2064 0612 1E       		.uleb128 0x1e
 2065 0613 6D00     		.ascii	"m\000"
 2066 0615 01       		.byte	0x1
ARM GAS  C:\Users\z80\AppData\Local\Temp\ccRXtn4t.s 			page 38


 2067 0616 85       		.byte	0x85
 2068 0617 D2000000 		.4byte	0xd2
 2069 061b 01       		.byte	0x1
 2070 061c 54       		.byte	0x54
 2071 061d 1F       		.uleb128 0x1f
 2072 061e 18000000 		.4byte	.Ldebug_ranges0+0x18
 2073 0622 36060000 		.4byte	0x636
 2074 0626 1A       		.uleb128 0x1a
 2075 0627 746D7000 		.ascii	"tmp\000"
 2076 062b 01       		.byte	0x1
 2077 062c 87       		.byte	0x87
 2078 062d 70000000 		.4byte	0x70
 2079 0631 94010000 		.4byte	.LLST14
 2080 0635 00       		.byte	0
 2081 0636 1B       		.uleb128 0x1b
 2082 0637 26000000 		.4byte	.LBB9
 2083 063b 2C000000 		.4byte	.LBE9
 2084 063f 1A       		.uleb128 0x1a
 2085 0640 746D7000 		.ascii	"tmp\000"
 2086 0644 01       		.byte	0x1
 2087 0645 8C       		.byte	0x8c
 2088 0646 70000000 		.4byte	0x70
 2089 064a A7010000 		.4byte	.LLST15
 2090 064e 00       		.byte	0
 2091 064f 00       		.byte	0
 2092 0650 1D       		.uleb128 0x1d
 2093 0651 01       		.byte	0x1
 2094 0652 C6000000 		.4byte	.LASF73
 2095 0656 01       		.byte	0x1
 2096 0657 99       		.byte	0x99
 2097 0658 01       		.byte	0x1
 2098 0659 D2000000 		.4byte	0xd2
 2099 065d 00000000 		.4byte	.LFB10
 2100 0661 2C000000 		.4byte	.LFE10
 2101 0665 BA010000 		.4byte	.LLST16
 2102 0669 AF060000 		.4byte	0x6af
 2103 066d 18       		.uleb128 0x18
 2104 066e 25010000 		.4byte	.LASF69
 2105 0672 01       		.byte	0x1
 2106 0673 99       		.byte	0x99
 2107 0674 D2000000 		.4byte	0xd2
 2108 0678 DA010000 		.4byte	.LLST17
 2109 067c 1F       		.uleb128 0x1f
 2110 067d 30000000 		.4byte	.Ldebug_ranges0+0x30
 2111 0681 95060000 		.4byte	0x695
 2112 0685 1A       		.uleb128 0x1a
 2113 0686 746D7000 		.ascii	"tmp\000"
 2114 068a 01       		.byte	0x1
 2115 068b 9B       		.byte	0x9b
 2116 068c 70000000 		.4byte	0x70
 2117 0690 03020000 		.4byte	.LLST18
 2118 0694 00       		.byte	0
 2119 0695 1B       		.uleb128 0x1b
 2120 0696 22000000 		.4byte	.LBB12
 2121 069a 28000000 		.4byte	.LBE12
 2122 069e 1A       		.uleb128 0x1a
 2123 069f 746D7000 		.ascii	"tmp\000"
ARM GAS  C:\Users\z80\AppData\Local\Temp\ccRXtn4t.s 			page 39


 2124 06a3 01       		.byte	0x1
 2125 06a4 9F       		.byte	0x9f
 2126 06a5 70000000 		.4byte	0x70
 2127 06a9 16020000 		.4byte	.LLST19
 2128 06ad 00       		.byte	0
 2129 06ae 00       		.byte	0
 2130 06af 20       		.uleb128 0x20
 2131 06b0 C8040000 		.4byte	0x4c8
 2132 06b4 00000000 		.4byte	.LFB12
 2133 06b8 4A000000 		.4byte	.LFE12
 2134 06bc 29020000 		.4byte	.LLST20
 2135 06c0 FF060000 		.4byte	0x6ff
 2136 06c4 21       		.uleb128 0x21
 2137 06c5 D6040000 		.4byte	0x4d6
 2138 06c9 49020000 		.4byte	.LLST21
 2139 06cd 21       		.uleb128 0x21
 2140 06ce E0040000 		.4byte	0x4e0
 2141 06d2 67020000 		.4byte	.LLST22
 2142 06d6 22       		.uleb128 0x22
 2143 06d7 C8040000 		.4byte	0x4c8
 2144 06db 28000000 		.4byte	.LBB15
 2145 06df 34000000 		.4byte	.LBE15
 2146 06e3 01       		.byte	0x1
 2147 06e4 C1       		.byte	0xc1
 2148 06e5 21       		.uleb128 0x21
 2149 06e6 D6040000 		.4byte	0x4d6
 2150 06ea 90020000 		.4byte	.LLST23
 2151 06ee 1B       		.uleb128 0x1b
 2152 06ef 28000000 		.4byte	.LBB16
 2153 06f3 34000000 		.4byte	.LBE16
 2154 06f7 23       		.uleb128 0x23
 2155 06f8 E0040000 		.4byte	0x4e0
 2156 06fc 00       		.byte	0
 2157 06fd 00       		.byte	0
 2158 06fe 00       		.byte	0
 2159 06ff 16       		.uleb128 0x16
 2160 0700 01       		.byte	0x1
 2161 0701 6D020000 		.4byte	.LASF74
 2162 0705 01       		.byte	0x1
 2163 0706 AB       		.byte	0xab
 2164 0707 01       		.byte	0x1
 2165 0708 00000000 		.4byte	.LFB11
 2166 070c 38000000 		.4byte	.LFE11
 2167 0710 A3020000 		.4byte	.LLST24
 2168 0714 6C070000 		.4byte	0x76c
 2169 0718 17       		.uleb128 0x17
 2170 0719 747000   		.ascii	"tp\000"
 2171 071c 01       		.byte	0x1
 2172 071d AB       		.byte	0xab
 2173 071e 2C020000 		.4byte	0x22c
 2174 0722 C3020000 		.4byte	.LLST25
 2175 0726 18       		.uleb128 0x18
 2176 0727 25010000 		.4byte	.LASF69
 2177 072b 01       		.byte	0x1
 2178 072c AB       		.byte	0xab
 2179 072d D2000000 		.4byte	0xd2
 2180 0731 E1020000 		.4byte	.LLST26
ARM GAS  C:\Users\z80\AppData\Local\Temp\ccRXtn4t.s 			page 40


 2181 0735 19       		.uleb128 0x19
 2182 0736 08000000 		.4byte	.LBB17
 2183 073a 0E000000 		.4byte	.LBE17
 2184 073e 52070000 		.4byte	0x752
 2185 0742 1A       		.uleb128 0x1a
 2186 0743 746D7000 		.ascii	"tmp\000"
 2187 0747 01       		.byte	0x1
 2188 0748 AF       		.byte	0xaf
 2189 0749 70000000 		.4byte	0x70
 2190 074d FF020000 		.4byte	.LLST27
 2191 0751 00       		.byte	0
 2192 0752 1B       		.uleb128 0x1b
 2193 0753 22000000 		.4byte	.LBB18
 2194 0757 28000000 		.4byte	.LBE18
 2195 075b 1A       		.uleb128 0x1a
 2196 075c 746D7000 		.ascii	"tmp\000"
 2197 0760 01       		.byte	0x1
 2198 0761 B2       		.byte	0xb2
 2199 0762 70000000 		.4byte	0x70
 2200 0766 12030000 		.4byte	.LLST28
 2201 076a 00       		.byte	0
 2202 076b 00       		.byte	0
 2203 076c 16       		.uleb128 0x16
 2204 076d 01       		.byte	0x1
 2205 076e 00010000 		.4byte	.LASF75
 2206 0772 01       		.byte	0x1
 2207 0773 F5       		.byte	0xf5
 2208 0774 01       		.byte	0x1
 2209 0775 00000000 		.4byte	.LFB14
 2210 0779 32000000 		.4byte	.LFE14
 2211 077d 25030000 		.4byte	.LLST29
 2212 0781 B3070000 		.4byte	0x7b3
 2213 0785 17       		.uleb128 0x17
 2214 0786 65737000 		.ascii	"esp\000"
 2215 078a 01       		.byte	0x1
 2216 078b F5       		.byte	0xf5
 2217 078c 69050000 		.4byte	0x569
 2218 0790 45030000 		.4byte	.LLST30
 2219 0794 18       		.uleb128 0x18
 2220 0795 25010000 		.4byte	.LASF69
 2221 0799 01       		.byte	0x1
 2222 079a F5       		.byte	0xf5
 2223 079b D2000000 		.4byte	0xd2
 2224 079f 63030000 		.4byte	.LLST31
 2225 07a3 1A       		.uleb128 0x1a
 2226 07a4 656C7000 		.ascii	"elp\000"
 2227 07a8 01       		.byte	0x1
 2228 07a9 F6       		.byte	0xf6
 2229 07aa 2C040000 		.4byte	0x42c
 2230 07ae 81030000 		.4byte	.LLST32
 2231 07b2 00       		.byte	0
 2232 07b3 16       		.uleb128 0x16
 2233 07b4 01       		.byte	0x1
 2234 07b5 33010000 		.4byte	.LASF76
 2235 07b9 01       		.byte	0x1
 2236 07ba DC       		.byte	0xdc
 2237 07bb 01       		.byte	0x1
ARM GAS  C:\Users\z80\AppData\Local\Temp\ccRXtn4t.s 			page 41


 2238 07bc 00000000 		.4byte	.LFB13
 2239 07c0 28000000 		.4byte	.LFE13
 2240 07c4 A0030000 		.4byte	.LLST33
 2241 07c8 21080000 		.4byte	0x821
 2242 07cc 17       		.uleb128 0x17
 2243 07cd 65737000 		.ascii	"esp\000"
 2244 07d1 01       		.byte	0x1
 2245 07d2 DC       		.byte	0xdc
 2246 07d3 69050000 		.4byte	0x569
 2247 07d7 C0030000 		.4byte	.LLST34
 2248 07db 18       		.uleb128 0x18
 2249 07dc 25010000 		.4byte	.LASF69
 2250 07e0 01       		.byte	0x1
 2251 07e1 DC       		.byte	0xdc
 2252 07e2 D2000000 		.4byte	0xd2
 2253 07e6 DE030000 		.4byte	.LLST35
 2254 07ea 19       		.uleb128 0x19
 2255 07eb 06000000 		.4byte	.LBB19
 2256 07ef 0C000000 		.4byte	.LBE19
 2257 07f3 07080000 		.4byte	0x807
 2258 07f7 1A       		.uleb128 0x1a
 2259 07f8 746D7000 		.ascii	"tmp\000"
 2260 07fc 01       		.byte	0x1
 2261 07fd DE       		.byte	0xde
 2262 07fe 70000000 		.4byte	0x70
 2263 0802 FC030000 		.4byte	.LLST36
 2264 0806 00       		.byte	0
 2265 0807 1B       		.uleb128 0x1b
 2266 0808 20000000 		.4byte	.LBB20
 2267 080c 26000000 		.4byte	.LBE20
 2268 0810 1A       		.uleb128 0x1a
 2269 0811 746D7000 		.ascii	"tmp\000"
 2270 0815 01       		.byte	0x1
 2271 0816 E1       		.byte	0xe1
 2272 0817 70000000 		.4byte	0x70
 2273 081b 0F040000 		.4byte	.LLST37
 2274 081f 00       		.byte	0
 2275 0820 00       		.byte	0
 2276 0821 24       		.uleb128 0x24
 2277 0822 01       		.byte	0x1
 2278 0823 3F020000 		.4byte	.LASF77
 2279 0827 01       		.byte	0x1
 2280 0828 0B01     		.2byte	0x10b
 2281 082a 01       		.byte	0x1
 2282 082b 00000000 		.4byte	.LFB15
 2283 082f 52000000 		.4byte	.LFE15
 2284 0833 22040000 		.4byte	.LLST38
 2285 0837 6C080000 		.4byte	0x86c
 2286 083b 25       		.uleb128 0x25
 2287 083c 98020000 		.4byte	.LASF78
 2288 0840 01       		.byte	0x1
 2289 0841 0B01     		.2byte	0x10b
 2290 0843 6C080000 		.4byte	0x86c
 2291 0847 42040000 		.4byte	.LLST39
 2292 084b 25       		.uleb128 0x25
 2293 084c 25010000 		.4byte	.LASF69
 2294 0850 01       		.byte	0x1
ARM GAS  C:\Users\z80\AppData\Local\Temp\ccRXtn4t.s 			page 42


 2295 0851 0B01     		.2byte	0x10b
 2296 0853 D2000000 		.4byte	0xd2
 2297 0857 60040000 		.4byte	.LLST40
 2298 085b 26       		.uleb128 0x26
 2299 085c 65696400 		.ascii	"eid\000"
 2300 0860 01       		.byte	0x1
 2301 0861 0C01     		.2byte	0x10c
 2302 0863 C7000000 		.4byte	0xc7
 2303 0867 9F040000 		.4byte	.LLST41
 2304 086b 00       		.byte	0
 2305 086c 09       		.uleb128 0x9
 2306 086d 04       		.byte	0x4
 2307 086e 72080000 		.4byte	0x872
 2308 0872 12       		.uleb128 0x12
 2309 0873 58040000 		.4byte	0x458
 2310 0877 27       		.uleb128 0x27
 2311 0878 01       		.byte	0x1
 2312 0879 D6020000 		.4byte	.LASF79
 2313 087d 01       		.byte	0x1
 2314 087e 2E01     		.2byte	0x12e
 2315 0880 01       		.byte	0x1
 2316 0881 D2000000 		.4byte	0xd2
 2317 0885 00000000 		.4byte	.LFB16
 2318 0889 46000000 		.4byte	.LFE16
 2319 088d BE040000 		.4byte	.LLST42
 2320 0891 FC080000 		.4byte	0x8fc
 2321 0895 25       		.uleb128 0x25
 2322 0896 25010000 		.4byte	.LASF69
 2323 089a 01       		.byte	0x1
 2324 089b 2E01     		.2byte	0x12e
 2325 089d D2000000 		.4byte	0xd2
 2326 08a1 DE040000 		.4byte	.LLST43
 2327 08a5 26       		.uleb128 0x26
 2328 08a6 63747000 		.ascii	"ctp\000"
 2329 08aa 01       		.byte	0x1
 2330 08ab 2F01     		.2byte	0x12f
 2331 08ad 2C020000 		.4byte	0x22c
 2332 08b1 FC040000 		.4byte	.LLST44
 2333 08b5 26       		.uleb128 0x26
 2334 08b6 6D00     		.ascii	"m\000"
 2335 08b8 01       		.byte	0x1
 2336 08b9 3001     		.2byte	0x130
 2337 08bb D2000000 		.4byte	0xd2
 2338 08bf 1B050000 		.4byte	.LLST45
 2339 08c3 19       		.uleb128 0x19
 2340 08c4 0E000000 		.4byte	.LBB21
 2341 08c8 14000000 		.4byte	.LBE21
 2342 08cc E1080000 		.4byte	0x8e1
 2343 08d0 26       		.uleb128 0x26
 2344 08d1 746D7000 		.ascii	"tmp\000"
 2345 08d5 01       		.byte	0x1
 2346 08d6 3201     		.2byte	0x132
 2347 08d8 70000000 		.4byte	0x70
 2348 08dc 4A050000 		.4byte	.LLST46
 2349 08e0 00       		.byte	0
 2350 08e1 1B       		.uleb128 0x1b
 2351 08e2 3C000000 		.4byte	.LBB22
ARM GAS  C:\Users\z80\AppData\Local\Temp\ccRXtn4t.s 			page 43


 2352 08e6 42000000 		.4byte	.LBE22
 2353 08ea 26       		.uleb128 0x26
 2354 08eb 746D7000 		.ascii	"tmp\000"
 2355 08ef 01       		.byte	0x1
 2356 08f0 3C01     		.2byte	0x13c
 2357 08f2 70000000 		.4byte	0x70
 2358 08f6 5D050000 		.4byte	.LLST47
 2359 08fa 00       		.byte	0
 2360 08fb 00       		.byte	0
 2361 08fc 27       		.uleb128 0x27
 2362 08fd 01       		.byte	0x1
 2363 08fe F3000000 		.4byte	.LASF80
 2364 0902 01       		.byte	0x1
 2365 0903 4B01     		.2byte	0x14b
 2366 0905 01       		.byte	0x1
 2367 0906 D2000000 		.4byte	0xd2
 2368 090a 00000000 		.4byte	.LFB17
 2369 090e 42000000 		.4byte	.LFE17
 2370 0912 70050000 		.4byte	.LLST48
 2371 0916 81090000 		.4byte	0x981
 2372 091a 25       		.uleb128 0x25
 2373 091b 25010000 		.4byte	.LASF69
 2374 091f 01       		.byte	0x1
 2375 0920 4B01     		.2byte	0x14b
 2376 0922 D2000000 		.4byte	0xd2
 2377 0926 90050000 		.4byte	.LLST49
 2378 092a 26       		.uleb128 0x26
 2379 092b 63747000 		.ascii	"ctp\000"
 2380 092f 01       		.byte	0x1
 2381 0930 4C01     		.2byte	0x14c
 2382 0932 2C020000 		.4byte	0x22c
 2383 0936 AE050000 		.4byte	.LLST50
 2384 093a 26       		.uleb128 0x26
 2385 093b 6D00     		.ascii	"m\000"
 2386 093d 01       		.byte	0x1
 2387 093e 4D01     		.2byte	0x14d
 2388 0940 D2000000 		.4byte	0xd2
 2389 0944 CD050000 		.4byte	.LLST51
 2390 0948 19       		.uleb128 0x19
 2391 0949 0E000000 		.4byte	.LBB23
 2392 094d 14000000 		.4byte	.LBE23
 2393 0951 66090000 		.4byte	0x966
 2394 0955 26       		.uleb128 0x26
 2395 0956 746D7000 		.ascii	"tmp\000"
 2396 095a 01       		.byte	0x1
 2397 095b 4F01     		.2byte	0x14f
 2398 095d 70000000 		.4byte	0x70
 2399 0961 F1050000 		.4byte	.LLST52
 2400 0965 00       		.byte	0
 2401 0966 1B       		.uleb128 0x1b
 2402 0967 38000000 		.4byte	.LBB24
 2403 096b 3E000000 		.4byte	.LBE24
 2404 096f 26       		.uleb128 0x26
 2405 0970 746D7000 		.ascii	"tmp\000"
 2406 0974 01       		.byte	0x1
 2407 0975 5801     		.2byte	0x158
 2408 0977 70000000 		.4byte	0x70
ARM GAS  C:\Users\z80\AppData\Local\Temp\ccRXtn4t.s 			page 44


 2409 097b 04060000 		.4byte	.LLST53
 2410 097f 00       		.byte	0
 2411 0980 00       		.byte	0
 2412 0981 27       		.uleb128 0x27
 2413 0982 01       		.byte	0x1
 2414 0983 E6000000 		.4byte	.LASF81
 2415 0987 01       		.byte	0x1
 2416 0988 6701     		.2byte	0x167
 2417 098a 01       		.byte	0x1
 2418 098b D2000000 		.4byte	0xd2
 2419 098f 00000000 		.4byte	.LFB18
 2420 0993 40000000 		.4byte	.LFE18
 2421 0997 17060000 		.4byte	.LLST54
 2422 099b F8090000 		.4byte	0x9f8
 2423 099f 25       		.uleb128 0x25
 2424 09a0 25010000 		.4byte	.LASF69
 2425 09a4 01       		.byte	0x1
 2426 09a5 6701     		.2byte	0x167
 2427 09a7 D2000000 		.4byte	0xd2
 2428 09ab 37060000 		.4byte	.LLST55
 2429 09af 26       		.uleb128 0x26
 2430 09b0 63747000 		.ascii	"ctp\000"
 2431 09b4 01       		.byte	0x1
 2432 09b5 6801     		.2byte	0x168
 2433 09b7 2C020000 		.4byte	0x22c
 2434 09bb 55060000 		.4byte	.LLST56
 2435 09bf 19       		.uleb128 0x19
 2436 09c0 0E000000 		.4byte	.LBB25
 2437 09c4 14000000 		.4byte	.LBE25
 2438 09c8 DD090000 		.4byte	0x9dd
 2439 09cc 26       		.uleb128 0x26
 2440 09cd 746D7000 		.ascii	"tmp\000"
 2441 09d1 01       		.byte	0x1
 2442 09d2 6A01     		.2byte	0x16a
 2443 09d4 70000000 		.4byte	0x70
 2444 09d8 74060000 		.4byte	.LLST57
 2445 09dc 00       		.byte	0
 2446 09dd 1B       		.uleb128 0x1b
 2447 09de 36000000 		.4byte	.LBB26
 2448 09e2 3C000000 		.4byte	.LBE26
 2449 09e6 26       		.uleb128 0x26
 2450 09e7 746D7000 		.ascii	"tmp\000"
 2451 09eb 01       		.byte	0x1
 2452 09ec 7201     		.2byte	0x172
 2453 09ee 70000000 		.4byte	0x70
 2454 09f2 87060000 		.4byte	.LLST58
 2455 09f6 00       		.byte	0
 2456 09f7 00       		.byte	0
 2457 09f8 27       		.uleb128 0x27
 2458 09f9 01       		.byte	0x1
 2459 09fa BF030000 		.4byte	.LASF82
 2460 09fe 01       		.byte	0x1
 2461 09ff 8E01     		.2byte	0x18e
 2462 0a01 01       		.byte	0x1
 2463 0a02 D2000000 		.4byte	0xd2
 2464 0a06 00000000 		.4byte	.LFB19
 2465 0a0a 5E000000 		.4byte	.LFE19
ARM GAS  C:\Users\z80\AppData\Local\Temp\ccRXtn4t.s 			page 45


 2466 0a0e 9A060000 		.4byte	.LLST59
 2467 0a12 AB0A0000 		.4byte	0xaab
 2468 0a16 25       		.uleb128 0x25
 2469 0a17 25010000 		.4byte	.LASF69
 2470 0a1b 01       		.byte	0x1
 2471 0a1c 8E01     		.2byte	0x18e
 2472 0a1e D2000000 		.4byte	0xd2
 2473 0a22 BA060000 		.4byte	.LLST60
 2474 0a26 25       		.uleb128 0x25
 2475 0a27 68020000 		.4byte	.LASF83
 2476 0a2b 01       		.byte	0x1
 2477 0a2c 8E01     		.2byte	0x18e
 2478 0a2e DD000000 		.4byte	0xdd
 2479 0a32 D8060000 		.4byte	.LLST61
 2480 0a36 26       		.uleb128 0x26
 2481 0a37 63747000 		.ascii	"ctp\000"
 2482 0a3b 01       		.byte	0x1
 2483 0a3c 8F01     		.2byte	0x18f
 2484 0a3e 2C020000 		.4byte	0x22c
 2485 0a42 F6060000 		.4byte	.LLST62
 2486 0a46 26       		.uleb128 0x26
 2487 0a47 6D00     		.ascii	"m\000"
 2488 0a49 01       		.byte	0x1
 2489 0a4a 9001     		.2byte	0x190
 2490 0a4c D2000000 		.4byte	0xd2
 2491 0a50 15070000 		.4byte	.LLST63
 2492 0a54 19       		.uleb128 0x19
 2493 0a55 10000000 		.4byte	.LBB27
 2494 0a59 16000000 		.4byte	.LBE27
 2495 0a5d 720A0000 		.4byte	0xa72
 2496 0a61 26       		.uleb128 0x26
 2497 0a62 746D7000 		.ascii	"tmp\000"
 2498 0a66 01       		.byte	0x1
 2499 0a67 9201     		.2byte	0x192
 2500 0a69 70000000 		.4byte	0x70
 2501 0a6d 39070000 		.4byte	.LLST64
 2502 0a71 00       		.byte	0
 2503 0a72 19       		.uleb128 0x19
 2504 0a73 46000000 		.4byte	.LBB28
 2505 0a77 4C000000 		.4byte	.LBE28
 2506 0a7b 900A0000 		.4byte	0xa90
 2507 0a7f 26       		.uleb128 0x26
 2508 0a80 746D7000 		.ascii	"tmp\000"
 2509 0a84 01       		.byte	0x1
 2510 0a85 A301     		.2byte	0x1a3
 2511 0a87 70000000 		.4byte	0x70
 2512 0a8b 4C070000 		.4byte	.LLST65
 2513 0a8f 00       		.byte	0
 2514 0a90 1B       		.uleb128 0x1b
 2515 0a91 54000000 		.4byte	.LBB29
 2516 0a95 5A000000 		.4byte	.LBE29
 2517 0a99 26       		.uleb128 0x26
 2518 0a9a 746D7000 		.ascii	"tmp\000"
 2519 0a9e 01       		.byte	0x1
 2520 0a9f 9B01     		.2byte	0x19b
 2521 0aa1 70000000 		.4byte	0x70
 2522 0aa5 5F070000 		.4byte	.LLST66
ARM GAS  C:\Users\z80\AppData\Local\Temp\ccRXtn4t.s 			page 46


 2523 0aa9 00       		.byte	0
 2524 0aaa 00       		.byte	0
 2525 0aab 27       		.uleb128 0x27
 2526 0aac 01       		.byte	0x1
 2527 0aad 48000000 		.4byte	.LASF84
 2528 0ab1 01       		.byte	0x1
 2529 0ab2 B901     		.2byte	0x1b9
 2530 0ab4 01       		.byte	0x1
 2531 0ab5 D2000000 		.4byte	0xd2
 2532 0ab9 00000000 		.4byte	.LFB20
 2533 0abd 5A000000 		.4byte	.LFE20
 2534 0ac1 72070000 		.4byte	.LLST67
 2535 0ac5 5E0B0000 		.4byte	0xb5e
 2536 0ac9 25       		.uleb128 0x25
 2537 0aca 25010000 		.4byte	.LASF69
 2538 0ace 01       		.byte	0x1
 2539 0acf B901     		.2byte	0x1b9
 2540 0ad1 D2000000 		.4byte	0xd2
 2541 0ad5 92070000 		.4byte	.LLST68
 2542 0ad9 25       		.uleb128 0x25
 2543 0ada 68020000 		.4byte	.LASF83
 2544 0ade 01       		.byte	0x1
 2545 0adf B901     		.2byte	0x1b9
 2546 0ae1 DD000000 		.4byte	0xdd
 2547 0ae5 B0070000 		.4byte	.LLST69
 2548 0ae9 26       		.uleb128 0x26
 2549 0aea 63747000 		.ascii	"ctp\000"
 2550 0aee 01       		.byte	0x1
 2551 0aef BA01     		.2byte	0x1ba
 2552 0af1 2C020000 		.4byte	0x22c
 2553 0af5 CE070000 		.4byte	.LLST70
 2554 0af9 26       		.uleb128 0x26
 2555 0afa 6D00     		.ascii	"m\000"
 2556 0afc 01       		.byte	0x1
 2557 0afd BB01     		.2byte	0x1bb
 2558 0aff D2000000 		.4byte	0xd2
 2559 0b03 ED070000 		.4byte	.LLST71
 2560 0b07 19       		.uleb128 0x19
 2561 0b08 10000000 		.4byte	.LBB30
 2562 0b0c 16000000 		.4byte	.LBE30
 2563 0b10 250B0000 		.4byte	0xb25
 2564 0b14 26       		.uleb128 0x26
 2565 0b15 746D7000 		.ascii	"tmp\000"
 2566 0b19 01       		.byte	0x1
 2567 0b1a BD01     		.2byte	0x1bd
 2568 0b1c 70000000 		.4byte	0x70
 2569 0b20 11080000 		.4byte	.LLST72
 2570 0b24 00       		.byte	0
 2571 0b25 19       		.uleb128 0x19
 2572 0b26 42000000 		.4byte	.LBB31
 2573 0b2a 48000000 		.4byte	.LBE31
 2574 0b2e 430B0000 		.4byte	0xb43
 2575 0b32 26       		.uleb128 0x26
 2576 0b33 746D7000 		.ascii	"tmp\000"
 2577 0b37 01       		.byte	0x1
 2578 0b38 CD01     		.2byte	0x1cd
 2579 0b3a 70000000 		.4byte	0x70
ARM GAS  C:\Users\z80\AppData\Local\Temp\ccRXtn4t.s 			page 47


 2580 0b3e 24080000 		.4byte	.LLST73
 2581 0b42 00       		.byte	0
 2582 0b43 1B       		.uleb128 0x1b
 2583 0b44 50000000 		.4byte	.LBB32
 2584 0b48 56000000 		.4byte	.LBE32
 2585 0b4c 26       		.uleb128 0x26
 2586 0b4d 746D7000 		.ascii	"tmp\000"
 2587 0b51 01       		.byte	0x1
 2588 0b52 C601     		.2byte	0x1c6
 2589 0b54 70000000 		.4byte	0x70
 2590 0b58 37080000 		.4byte	.LLST74
 2591 0b5c 00       		.byte	0
 2592 0b5d 00       		.byte	0
 2593 0b5e 27       		.uleb128 0x27
 2594 0b5f 01       		.byte	0x1
 2595 0b60 7D000000 		.4byte	.LASF85
 2596 0b64 01       		.byte	0x1
 2597 0b65 E201     		.2byte	0x1e2
 2598 0b67 01       		.byte	0x1
 2599 0b68 D2000000 		.4byte	0xd2
 2600 0b6c 00000000 		.4byte	.LFB21
 2601 0b70 6A000000 		.4byte	.LFE21
 2602 0b74 4A080000 		.4byte	.LLST75
 2603 0b78 210C0000 		.4byte	0xc21
 2604 0b7c 25       		.uleb128 0x25
 2605 0b7d 25010000 		.4byte	.LASF69
 2606 0b81 01       		.byte	0x1
 2607 0b82 E201     		.2byte	0x1e2
 2608 0b84 D2000000 		.4byte	0xd2
 2609 0b88 6A080000 		.4byte	.LLST76
 2610 0b8c 25       		.uleb128 0x25
 2611 0b8d 68020000 		.4byte	.LASF83
 2612 0b91 01       		.byte	0x1
 2613 0b92 E201     		.2byte	0x1e2
 2614 0b94 DD000000 		.4byte	0xdd
 2615 0b98 9E080000 		.4byte	.LLST77
 2616 0b9c 26       		.uleb128 0x26
 2617 0b9d 63747000 		.ascii	"ctp\000"
 2618 0ba1 01       		.byte	0x1
 2619 0ba2 E301     		.2byte	0x1e3
 2620 0ba4 2C020000 		.4byte	0x22c
 2621 0ba8 BC080000 		.4byte	.LLST78
 2622 0bac 19       		.uleb128 0x19
 2623 0bad 10000000 		.4byte	.LBB33
 2624 0bb1 16000000 		.4byte	.LBE33
 2625 0bb5 CA0B0000 		.4byte	0xbca
 2626 0bb9 26       		.uleb128 0x26
 2627 0bba 746D7000 		.ascii	"tmp\000"
 2628 0bbe 01       		.byte	0x1
 2629 0bbf E501     		.2byte	0x1e5
 2630 0bc1 70000000 		.4byte	0x70
 2631 0bc5 DB080000 		.4byte	.LLST79
 2632 0bc9 00       		.byte	0
 2633 0bca 19       		.uleb128 0x19
 2634 0bcb 42000000 		.4byte	.LBB34
 2635 0bcf 48000000 		.4byte	.LBE34
 2636 0bd3 E80B0000 		.4byte	0xbe8
ARM GAS  C:\Users\z80\AppData\Local\Temp\ccRXtn4t.s 			page 48


 2637 0bd7 26       		.uleb128 0x26
 2638 0bd8 746D7000 		.ascii	"tmp\000"
 2639 0bdc 01       		.byte	0x1
 2640 0bdd F401     		.2byte	0x1f4
 2641 0bdf 70000000 		.4byte	0x70
 2642 0be3 EE080000 		.4byte	.LLST80
 2643 0be7 00       		.byte	0
 2644 0be8 19       		.uleb128 0x19
 2645 0be9 50000000 		.4byte	.LBB35
 2646 0bed 56000000 		.4byte	.LBE35
 2647 0bf1 060C0000 		.4byte	0xc06
 2648 0bf5 26       		.uleb128 0x26
 2649 0bf6 746D7000 		.ascii	"tmp\000"
 2650 0bfa 01       		.byte	0x1
 2651 0bfb E901     		.2byte	0x1e9
 2652 0bfd 70000000 		.4byte	0x70
 2653 0c01 01090000 		.4byte	.LLST81
 2654 0c05 00       		.byte	0
 2655 0c06 1B       		.uleb128 0x1b
 2656 0c07 60000000 		.4byte	.LBB36
 2657 0c0b 66000000 		.4byte	.LBE36
 2658 0c0f 26       		.uleb128 0x26
 2659 0c10 746D7000 		.ascii	"tmp\000"
 2660 0c14 01       		.byte	0x1
 2661 0c15 EE01     		.2byte	0x1ee
 2662 0c17 70000000 		.4byte	0x70
 2663 0c1b 14090000 		.4byte	.LLST82
 2664 0c1f 00       		.byte	0
 2665 0c20 00       		.byte	0
 2666 0c21 28       		.uleb128 0x28
 2667 0c22 A3030000 		.4byte	.LASF90
 2668 0c26 07       		.byte	0x7
 2669 0c27 72       		.byte	0x72
 2670 0c28 97030000 		.4byte	0x397
 2671 0c2c 01       		.byte	0x1
 2672 0c2d 01       		.byte	0x1
 2673 0c2e 00       		.byte	0
 2674              		.section	.debug_abbrev,"",%progbits
 2675              	.Ldebug_abbrev0:
 2676 0000 01       		.uleb128 0x1
 2677 0001 11       		.uleb128 0x11
 2678 0002 01       		.byte	0x1
 2679 0003 25       		.uleb128 0x25
 2680 0004 0E       		.uleb128 0xe
 2681 0005 13       		.uleb128 0x13
 2682 0006 0B       		.uleb128 0xb
 2683 0007 03       		.uleb128 0x3
 2684 0008 0E       		.uleb128 0xe
 2685 0009 1B       		.uleb128 0x1b
 2686 000a 0E       		.uleb128 0xe
 2687 000b 11       		.uleb128 0x11
 2688 000c 01       		.uleb128 0x1
 2689 000d 52       		.uleb128 0x52
 2690 000e 01       		.uleb128 0x1
 2691 000f 55       		.uleb128 0x55
 2692 0010 06       		.uleb128 0x6
 2693 0011 10       		.uleb128 0x10
ARM GAS  C:\Users\z80\AppData\Local\Temp\ccRXtn4t.s 			page 49


 2694 0012 06       		.uleb128 0x6
 2695 0013 00       		.byte	0
 2696 0014 00       		.byte	0
 2697 0015 02       		.uleb128 0x2
 2698 0016 24       		.uleb128 0x24
 2699 0017 00       		.byte	0
 2700 0018 0B       		.uleb128 0xb
 2701 0019 0B       		.uleb128 0xb
 2702 001a 3E       		.uleb128 0x3e
 2703 001b 0B       		.uleb128 0xb
 2704 001c 03       		.uleb128 0x3
 2705 001d 08       		.uleb128 0x8
 2706 001e 00       		.byte	0
 2707 001f 00       		.byte	0
 2708 0020 03       		.uleb128 0x3
 2709 0021 24       		.uleb128 0x24
 2710 0022 00       		.byte	0
 2711 0023 0B       		.uleb128 0xb
 2712 0024 0B       		.uleb128 0xb
 2713 0025 3E       		.uleb128 0x3e
 2714 0026 0B       		.uleb128 0xb
 2715 0027 03       		.uleb128 0x3
 2716 0028 0E       		.uleb128 0xe
 2717 0029 00       		.byte	0
 2718 002a 00       		.byte	0
 2719 002b 04       		.uleb128 0x4
 2720 002c 16       		.uleb128 0x16
 2721 002d 00       		.byte	0
 2722 002e 03       		.uleb128 0x3
 2723 002f 0E       		.uleb128 0xe
 2724 0030 3A       		.uleb128 0x3a
 2725 0031 0B       		.uleb128 0xb
 2726 0032 3B       		.uleb128 0x3b
 2727 0033 0B       		.uleb128 0xb
 2728 0034 49       		.uleb128 0x49
 2729 0035 13       		.uleb128 0x13
 2730 0036 00       		.byte	0
 2731 0037 00       		.byte	0
 2732 0038 05       		.uleb128 0x5
 2733 0039 13       		.uleb128 0x13
 2734 003a 01       		.byte	0x1
 2735 003b 03       		.uleb128 0x3
 2736 003c 0E       		.uleb128 0xe
 2737 003d 0B       		.uleb128 0xb
 2738 003e 0B       		.uleb128 0xb
 2739 003f 3A       		.uleb128 0x3a
 2740 0040 0B       		.uleb128 0xb
 2741 0041 3B       		.uleb128 0x3b
 2742 0042 0B       		.uleb128 0xb
 2743 0043 01       		.uleb128 0x1
 2744 0044 13       		.uleb128 0x13
 2745 0045 00       		.byte	0
 2746 0046 00       		.byte	0
 2747 0047 06       		.uleb128 0x6
 2748 0048 0D       		.uleb128 0xd
 2749 0049 00       		.byte	0
 2750 004a 03       		.uleb128 0x3
ARM GAS  C:\Users\z80\AppData\Local\Temp\ccRXtn4t.s 			page 50


 2751 004b 0E       		.uleb128 0xe
 2752 004c 3A       		.uleb128 0x3a
 2753 004d 0B       		.uleb128 0xb
 2754 004e 3B       		.uleb128 0x3b
 2755 004f 0B       		.uleb128 0xb
 2756 0050 49       		.uleb128 0x49
 2757 0051 13       		.uleb128 0x13
 2758 0052 38       		.uleb128 0x38
 2759 0053 0A       		.uleb128 0xa
 2760 0054 00       		.byte	0
 2761 0055 00       		.byte	0
 2762 0056 07       		.uleb128 0x7
 2763 0057 0D       		.uleb128 0xd
 2764 0058 00       		.byte	0
 2765 0059 03       		.uleb128 0x3
 2766 005a 08       		.uleb128 0x8
 2767 005b 3A       		.uleb128 0x3a
 2768 005c 0B       		.uleb128 0xb
 2769 005d 3B       		.uleb128 0x3b
 2770 005e 0B       		.uleb128 0xb
 2771 005f 49       		.uleb128 0x49
 2772 0060 13       		.uleb128 0x13
 2773 0061 38       		.uleb128 0x38
 2774 0062 0A       		.uleb128 0xa
 2775 0063 00       		.byte	0
 2776 0064 00       		.byte	0
 2777 0065 08       		.uleb128 0x8
 2778 0066 13       		.uleb128 0x13
 2779 0067 01       		.byte	0x1
 2780 0068 0B       		.uleb128 0xb
 2781 0069 0B       		.uleb128 0xb
 2782 006a 3A       		.uleb128 0x3a
 2783 006b 0B       		.uleb128 0xb
 2784 006c 3B       		.uleb128 0x3b
 2785 006d 0B       		.uleb128 0xb
 2786 006e 01       		.uleb128 0x1
 2787 006f 13       		.uleb128 0x13
 2788 0070 00       		.byte	0
 2789 0071 00       		.byte	0
 2790 0072 09       		.uleb128 0x9
 2791 0073 0F       		.uleb128 0xf
 2792 0074 00       		.byte	0
 2793 0075 0B       		.uleb128 0xb
 2794 0076 0B       		.uleb128 0xb
 2795 0077 49       		.uleb128 0x49
 2796 0078 13       		.uleb128 0x13
 2797 0079 00       		.byte	0
 2798 007a 00       		.byte	0
 2799 007b 0A       		.uleb128 0xa
 2800 007c 0F       		.uleb128 0xf
 2801 007d 00       		.byte	0
 2802 007e 0B       		.uleb128 0xb
 2803 007f 0B       		.uleb128 0xb
 2804 0080 00       		.byte	0
 2805 0081 00       		.byte	0
 2806 0082 0B       		.uleb128 0xb
 2807 0083 0D       		.uleb128 0xd
ARM GAS  C:\Users\z80\AppData\Local\Temp\ccRXtn4t.s 			page 51


 2808 0084 00       		.byte	0
 2809 0085 03       		.uleb128 0x3
 2810 0086 08       		.uleb128 0x8
 2811 0087 3A       		.uleb128 0x3a
 2812 0088 0B       		.uleb128 0xb
 2813 0089 3B       		.uleb128 0x3b
 2814 008a 05       		.uleb128 0x5
 2815 008b 49       		.uleb128 0x49
 2816 008c 13       		.uleb128 0x13
 2817 008d 38       		.uleb128 0x38
 2818 008e 0A       		.uleb128 0xa
 2819 008f 00       		.byte	0
 2820 0090 00       		.byte	0
 2821 0091 0C       		.uleb128 0xc
 2822 0092 13       		.uleb128 0x13
 2823 0093 01       		.byte	0x1
 2824 0094 03       		.uleb128 0x3
 2825 0095 0E       		.uleb128 0xe
 2826 0096 0B       		.uleb128 0xb
 2827 0097 0B       		.uleb128 0xb
 2828 0098 3A       		.uleb128 0x3a
 2829 0099 0B       		.uleb128 0xb
 2830 009a 3B       		.uleb128 0x3b
 2831 009b 05       		.uleb128 0x5
 2832 009c 01       		.uleb128 0x1
 2833 009d 13       		.uleb128 0x13
 2834 009e 00       		.byte	0
 2835 009f 00       		.byte	0
 2836 00a0 0D       		.uleb128 0xd
 2837 00a1 35       		.uleb128 0x35
 2838 00a2 00       		.byte	0
 2839 00a3 49       		.uleb128 0x49
 2840 00a4 13       		.uleb128 0x13
 2841 00a5 00       		.byte	0
 2842 00a6 00       		.byte	0
 2843 00a7 0E       		.uleb128 0xe
 2844 00a8 15       		.uleb128 0x15
 2845 00a9 01       		.byte	0x1
 2846 00aa 27       		.uleb128 0x27
 2847 00ab 0C       		.uleb128 0xc
 2848 00ac 01       		.uleb128 0x1
 2849 00ad 13       		.uleb128 0x13
 2850 00ae 00       		.byte	0
 2851 00af 00       		.byte	0
 2852 00b0 0F       		.uleb128 0xf
 2853 00b1 05       		.uleb128 0x5
 2854 00b2 00       		.byte	0
 2855 00b3 49       		.uleb128 0x49
 2856 00b4 13       		.uleb128 0x13
 2857 00b5 00       		.byte	0
 2858 00b6 00       		.byte	0
 2859 00b7 10       		.uleb128 0x10
 2860 00b8 17       		.uleb128 0x17
 2861 00b9 01       		.byte	0x1
 2862 00ba 0B       		.uleb128 0xb
 2863 00bb 0B       		.uleb128 0xb
 2864 00bc 3A       		.uleb128 0x3a
ARM GAS  C:\Users\z80\AppData\Local\Temp\ccRXtn4t.s 			page 52


 2865 00bd 0B       		.uleb128 0xb
 2866 00be 3B       		.uleb128 0x3b
 2867 00bf 0B       		.uleb128 0xb
 2868 00c0 01       		.uleb128 0x1
 2869 00c1 13       		.uleb128 0x13
 2870 00c2 00       		.byte	0
 2871 00c3 00       		.byte	0
 2872 00c4 11       		.uleb128 0x11
 2873 00c5 0D       		.uleb128 0xd
 2874 00c6 00       		.byte	0
 2875 00c7 03       		.uleb128 0x3
 2876 00c8 0E       		.uleb128 0xe
 2877 00c9 3A       		.uleb128 0x3a
 2878 00ca 0B       		.uleb128 0xb
 2879 00cb 3B       		.uleb128 0x3b
 2880 00cc 0B       		.uleb128 0xb
 2881 00cd 49       		.uleb128 0x49
 2882 00ce 13       		.uleb128 0x13
 2883 00cf 00       		.byte	0
 2884 00d0 00       		.byte	0
 2885 00d1 12       		.uleb128 0x12
 2886 00d2 26       		.uleb128 0x26
 2887 00d3 00       		.byte	0
 2888 00d4 49       		.uleb128 0x49
 2889 00d5 13       		.uleb128 0x13
 2890 00d6 00       		.byte	0
 2891 00d7 00       		.byte	0
 2892 00d8 13       		.uleb128 0x13
 2893 00d9 2E       		.uleb128 0x2e
 2894 00da 01       		.byte	0x1
 2895 00db 3F       		.uleb128 0x3f
 2896 00dc 0C       		.uleb128 0xc
 2897 00dd 03       		.uleb128 0x3
 2898 00de 0E       		.uleb128 0xe
 2899 00df 3A       		.uleb128 0x3a
 2900 00e0 0B       		.uleb128 0xb
 2901 00e1 3B       		.uleb128 0x3b
 2902 00e2 0B       		.uleb128 0xb
 2903 00e3 27       		.uleb128 0x27
 2904 00e4 0C       		.uleb128 0xc
 2905 00e5 20       		.uleb128 0x20
 2906 00e6 0B       		.uleb128 0xb
 2907 00e7 01       		.uleb128 0x1
 2908 00e8 13       		.uleb128 0x13
 2909 00e9 00       		.byte	0
 2910 00ea 00       		.byte	0
 2911 00eb 14       		.uleb128 0x14
 2912 00ec 05       		.uleb128 0x5
 2913 00ed 00       		.byte	0
 2914 00ee 03       		.uleb128 0x3
 2915 00ef 08       		.uleb128 0x8
 2916 00f0 3A       		.uleb128 0x3a
 2917 00f1 0B       		.uleb128 0xb
 2918 00f2 3B       		.uleb128 0x3b
 2919 00f3 0B       		.uleb128 0xb
 2920 00f4 49       		.uleb128 0x49
 2921 00f5 13       		.uleb128 0x13
ARM GAS  C:\Users\z80\AppData\Local\Temp\ccRXtn4t.s 			page 53


 2922 00f6 00       		.byte	0
 2923 00f7 00       		.byte	0
 2924 00f8 15       		.uleb128 0x15
 2925 00f9 05       		.uleb128 0x5
 2926 00fa 00       		.byte	0
 2927 00fb 03       		.uleb128 0x3
 2928 00fc 0E       		.uleb128 0xe
 2929 00fd 3A       		.uleb128 0x3a
 2930 00fe 0B       		.uleb128 0xb
 2931 00ff 3B       		.uleb128 0x3b
 2932 0100 0B       		.uleb128 0xb
 2933 0101 49       		.uleb128 0x49
 2934 0102 13       		.uleb128 0x13
 2935 0103 00       		.byte	0
 2936 0104 00       		.byte	0
 2937 0105 16       		.uleb128 0x16
 2938 0106 2E       		.uleb128 0x2e
 2939 0107 01       		.byte	0x1
 2940 0108 3F       		.uleb128 0x3f
 2941 0109 0C       		.uleb128 0xc
 2942 010a 03       		.uleb128 0x3
 2943 010b 0E       		.uleb128 0xe
 2944 010c 3A       		.uleb128 0x3a
 2945 010d 0B       		.uleb128 0xb
 2946 010e 3B       		.uleb128 0x3b
 2947 010f 0B       		.uleb128 0xb
 2948 0110 27       		.uleb128 0x27
 2949 0111 0C       		.uleb128 0xc
 2950 0112 11       		.uleb128 0x11
 2951 0113 01       		.uleb128 0x1
 2952 0114 12       		.uleb128 0x12
 2953 0115 01       		.uleb128 0x1
 2954 0116 40       		.uleb128 0x40
 2955 0117 06       		.uleb128 0x6
 2956 0118 01       		.uleb128 0x1
 2957 0119 13       		.uleb128 0x13
 2958 011a 00       		.byte	0
 2959 011b 00       		.byte	0
 2960 011c 17       		.uleb128 0x17
 2961 011d 05       		.uleb128 0x5
 2962 011e 00       		.byte	0
 2963 011f 03       		.uleb128 0x3
 2964 0120 08       		.uleb128 0x8
 2965 0121 3A       		.uleb128 0x3a
 2966 0122 0B       		.uleb128 0xb
 2967 0123 3B       		.uleb128 0x3b
 2968 0124 0B       		.uleb128 0xb
 2969 0125 49       		.uleb128 0x49
 2970 0126 13       		.uleb128 0x13
 2971 0127 02       		.uleb128 0x2
 2972 0128 06       		.uleb128 0x6
 2973 0129 00       		.byte	0
 2974 012a 00       		.byte	0
 2975 012b 18       		.uleb128 0x18
 2976 012c 05       		.uleb128 0x5
 2977 012d 00       		.byte	0
 2978 012e 03       		.uleb128 0x3
ARM GAS  C:\Users\z80\AppData\Local\Temp\ccRXtn4t.s 			page 54


 2979 012f 0E       		.uleb128 0xe
 2980 0130 3A       		.uleb128 0x3a
 2981 0131 0B       		.uleb128 0xb
 2982 0132 3B       		.uleb128 0x3b
 2983 0133 0B       		.uleb128 0xb
 2984 0134 49       		.uleb128 0x49
 2985 0135 13       		.uleb128 0x13
 2986 0136 02       		.uleb128 0x2
 2987 0137 06       		.uleb128 0x6
 2988 0138 00       		.byte	0
 2989 0139 00       		.byte	0
 2990 013a 19       		.uleb128 0x19
 2991 013b 0B       		.uleb128 0xb
 2992 013c 01       		.byte	0x1
 2993 013d 11       		.uleb128 0x11
 2994 013e 01       		.uleb128 0x1
 2995 013f 12       		.uleb128 0x12
 2996 0140 01       		.uleb128 0x1
 2997 0141 01       		.uleb128 0x1
 2998 0142 13       		.uleb128 0x13
 2999 0143 00       		.byte	0
 3000 0144 00       		.byte	0
 3001 0145 1A       		.uleb128 0x1a
 3002 0146 34       		.uleb128 0x34
 3003 0147 00       		.byte	0
 3004 0148 03       		.uleb128 0x3
 3005 0149 08       		.uleb128 0x8
 3006 014a 3A       		.uleb128 0x3a
 3007 014b 0B       		.uleb128 0xb
 3008 014c 3B       		.uleb128 0x3b
 3009 014d 0B       		.uleb128 0xb
 3010 014e 49       		.uleb128 0x49
 3011 014f 13       		.uleb128 0x13
 3012 0150 02       		.uleb128 0x2
 3013 0151 06       		.uleb128 0x6
 3014 0152 00       		.byte	0
 3015 0153 00       		.byte	0
 3016 0154 1B       		.uleb128 0x1b
 3017 0155 0B       		.uleb128 0xb
 3018 0156 01       		.byte	0x1
 3019 0157 11       		.uleb128 0x11
 3020 0158 01       		.uleb128 0x1
 3021 0159 12       		.uleb128 0x12
 3022 015a 01       		.uleb128 0x1
 3023 015b 00       		.byte	0
 3024 015c 00       		.byte	0
 3025 015d 1C       		.uleb128 0x1c
 3026 015e 0B       		.uleb128 0xb
 3027 015f 01       		.byte	0x1
 3028 0160 55       		.uleb128 0x55
 3029 0161 06       		.uleb128 0x6
 3030 0162 00       		.byte	0
 3031 0163 00       		.byte	0
 3032 0164 1D       		.uleb128 0x1d
 3033 0165 2E       		.uleb128 0x2e
 3034 0166 01       		.byte	0x1
 3035 0167 3F       		.uleb128 0x3f
ARM GAS  C:\Users\z80\AppData\Local\Temp\ccRXtn4t.s 			page 55


 3036 0168 0C       		.uleb128 0xc
 3037 0169 03       		.uleb128 0x3
 3038 016a 0E       		.uleb128 0xe
 3039 016b 3A       		.uleb128 0x3a
 3040 016c 0B       		.uleb128 0xb
 3041 016d 3B       		.uleb128 0x3b
 3042 016e 0B       		.uleb128 0xb
 3043 016f 27       		.uleb128 0x27
 3044 0170 0C       		.uleb128 0xc
 3045 0171 49       		.uleb128 0x49
 3046 0172 13       		.uleb128 0x13
 3047 0173 11       		.uleb128 0x11
 3048 0174 01       		.uleb128 0x1
 3049 0175 12       		.uleb128 0x12
 3050 0176 01       		.uleb128 0x1
 3051 0177 40       		.uleb128 0x40
 3052 0178 06       		.uleb128 0x6
 3053 0179 01       		.uleb128 0x1
 3054 017a 13       		.uleb128 0x13
 3055 017b 00       		.byte	0
 3056 017c 00       		.byte	0
 3057 017d 1E       		.uleb128 0x1e
 3058 017e 34       		.uleb128 0x34
 3059 017f 00       		.byte	0
 3060 0180 03       		.uleb128 0x3
 3061 0181 08       		.uleb128 0x8
 3062 0182 3A       		.uleb128 0x3a
 3063 0183 0B       		.uleb128 0xb
 3064 0184 3B       		.uleb128 0x3b
 3065 0185 0B       		.uleb128 0xb
 3066 0186 49       		.uleb128 0x49
 3067 0187 13       		.uleb128 0x13
 3068 0188 02       		.uleb128 0x2
 3069 0189 0A       		.uleb128 0xa
 3070 018a 00       		.byte	0
 3071 018b 00       		.byte	0
 3072 018c 1F       		.uleb128 0x1f
 3073 018d 0B       		.uleb128 0xb
 3074 018e 01       		.byte	0x1
 3075 018f 55       		.uleb128 0x55
 3076 0190 06       		.uleb128 0x6
 3077 0191 01       		.uleb128 0x1
 3078 0192 13       		.uleb128 0x13
 3079 0193 00       		.byte	0
 3080 0194 00       		.byte	0
 3081 0195 20       		.uleb128 0x20
 3082 0196 2E       		.uleb128 0x2e
 3083 0197 01       		.byte	0x1
 3084 0198 31       		.uleb128 0x31
 3085 0199 13       		.uleb128 0x13
 3086 019a 11       		.uleb128 0x11
 3087 019b 01       		.uleb128 0x1
 3088 019c 12       		.uleb128 0x12
 3089 019d 01       		.uleb128 0x1
 3090 019e 40       		.uleb128 0x40
 3091 019f 06       		.uleb128 0x6
 3092 01a0 01       		.uleb128 0x1
ARM GAS  C:\Users\z80\AppData\Local\Temp\ccRXtn4t.s 			page 56


 3093 01a1 13       		.uleb128 0x13
 3094 01a2 00       		.byte	0
 3095 01a3 00       		.byte	0
 3096 01a4 21       		.uleb128 0x21
 3097 01a5 05       		.uleb128 0x5
 3098 01a6 00       		.byte	0
 3099 01a7 31       		.uleb128 0x31
 3100 01a8 13       		.uleb128 0x13
 3101 01a9 02       		.uleb128 0x2
 3102 01aa 06       		.uleb128 0x6
 3103 01ab 00       		.byte	0
 3104 01ac 00       		.byte	0
 3105 01ad 22       		.uleb128 0x22
 3106 01ae 1D       		.uleb128 0x1d
 3107 01af 01       		.byte	0x1
 3108 01b0 31       		.uleb128 0x31
 3109 01b1 13       		.uleb128 0x13
 3110 01b2 11       		.uleb128 0x11
 3111 01b3 01       		.uleb128 0x1
 3112 01b4 12       		.uleb128 0x12
 3113 01b5 01       		.uleb128 0x1
 3114 01b6 58       		.uleb128 0x58
 3115 01b7 0B       		.uleb128 0xb
 3116 01b8 59       		.uleb128 0x59
 3117 01b9 0B       		.uleb128 0xb
 3118 01ba 00       		.byte	0
 3119 01bb 00       		.byte	0
 3120 01bc 23       		.uleb128 0x23
 3121 01bd 05       		.uleb128 0x5
 3122 01be 00       		.byte	0
 3123 01bf 31       		.uleb128 0x31
 3124 01c0 13       		.uleb128 0x13
 3125 01c1 00       		.byte	0
 3126 01c2 00       		.byte	0
 3127 01c3 24       		.uleb128 0x24
 3128 01c4 2E       		.uleb128 0x2e
 3129 01c5 01       		.byte	0x1
 3130 01c6 3F       		.uleb128 0x3f
 3131 01c7 0C       		.uleb128 0xc
 3132 01c8 03       		.uleb128 0x3
 3133 01c9 0E       		.uleb128 0xe
 3134 01ca 3A       		.uleb128 0x3a
 3135 01cb 0B       		.uleb128 0xb
 3136 01cc 3B       		.uleb128 0x3b
 3137 01cd 05       		.uleb128 0x5
 3138 01ce 27       		.uleb128 0x27
 3139 01cf 0C       		.uleb128 0xc
 3140 01d0 11       		.uleb128 0x11
 3141 01d1 01       		.uleb128 0x1
 3142 01d2 12       		.uleb128 0x12
 3143 01d3 01       		.uleb128 0x1
 3144 01d4 40       		.uleb128 0x40
 3145 01d5 06       		.uleb128 0x6
 3146 01d6 01       		.uleb128 0x1
 3147 01d7 13       		.uleb128 0x13
 3148 01d8 00       		.byte	0
 3149 01d9 00       		.byte	0
ARM GAS  C:\Users\z80\AppData\Local\Temp\ccRXtn4t.s 			page 57


 3150 01da 25       		.uleb128 0x25
 3151 01db 05       		.uleb128 0x5
 3152 01dc 00       		.byte	0
 3153 01dd 03       		.uleb128 0x3
 3154 01de 0E       		.uleb128 0xe
 3155 01df 3A       		.uleb128 0x3a
 3156 01e0 0B       		.uleb128 0xb
 3157 01e1 3B       		.uleb128 0x3b
 3158 01e2 05       		.uleb128 0x5
 3159 01e3 49       		.uleb128 0x49
 3160 01e4 13       		.uleb128 0x13
 3161 01e5 02       		.uleb128 0x2
 3162 01e6 06       		.uleb128 0x6
 3163 01e7 00       		.byte	0
 3164 01e8 00       		.byte	0
 3165 01e9 26       		.uleb128 0x26
 3166 01ea 34       		.uleb128 0x34
 3167 01eb 00       		.byte	0
 3168 01ec 03       		.uleb128 0x3
 3169 01ed 08       		.uleb128 0x8
 3170 01ee 3A       		.uleb128 0x3a
 3171 01ef 0B       		.uleb128 0xb
 3172 01f0 3B       		.uleb128 0x3b
 3173 01f1 05       		.uleb128 0x5
 3174 01f2 49       		.uleb128 0x49
 3175 01f3 13       		.uleb128 0x13
 3176 01f4 02       		.uleb128 0x2
 3177 01f5 06       		.uleb128 0x6
 3178 01f6 00       		.byte	0
 3179 01f7 00       		.byte	0
 3180 01f8 27       		.uleb128 0x27
 3181 01f9 2E       		.uleb128 0x2e
 3182 01fa 01       		.byte	0x1
 3183 01fb 3F       		.uleb128 0x3f
 3184 01fc 0C       		.uleb128 0xc
 3185 01fd 03       		.uleb128 0x3
 3186 01fe 0E       		.uleb128 0xe
 3187 01ff 3A       		.uleb128 0x3a
 3188 0200 0B       		.uleb128 0xb
 3189 0201 3B       		.uleb128 0x3b
 3190 0202 05       		.uleb128 0x5
 3191 0203 27       		.uleb128 0x27
 3192 0204 0C       		.uleb128 0xc
 3193 0205 49       		.uleb128 0x49
 3194 0206 13       		.uleb128 0x13
 3195 0207 11       		.uleb128 0x11
 3196 0208 01       		.uleb128 0x1
 3197 0209 12       		.uleb128 0x12
 3198 020a 01       		.uleb128 0x1
 3199 020b 40       		.uleb128 0x40
 3200 020c 06       		.uleb128 0x6
 3201 020d 01       		.uleb128 0x1
 3202 020e 13       		.uleb128 0x13
 3203 020f 00       		.byte	0
 3204 0210 00       		.byte	0
 3205 0211 28       		.uleb128 0x28
 3206 0212 34       		.uleb128 0x34
ARM GAS  C:\Users\z80\AppData\Local\Temp\ccRXtn4t.s 			page 58


 3207 0213 00       		.byte	0
 3208 0214 03       		.uleb128 0x3
 3209 0215 0E       		.uleb128 0xe
 3210 0216 3A       		.uleb128 0x3a
 3211 0217 0B       		.uleb128 0xb
 3212 0218 3B       		.uleb128 0x3b
 3213 0219 0B       		.uleb128 0xb
 3214 021a 49       		.uleb128 0x49
 3215 021b 13       		.uleb128 0x13
 3216 021c 3F       		.uleb128 0x3f
 3217 021d 0C       		.uleb128 0xc
 3218 021e 3C       		.uleb128 0x3c
 3219 021f 0C       		.uleb128 0xc
 3220 0220 00       		.byte	0
 3221 0221 00       		.byte	0
 3222 0222 00       		.byte	0
 3223              		.section	.debug_loc,"",%progbits
 3224              	.Ldebug_loc0:
 3225              	.LLST0:
 3226 0000 00000000 		.4byte	.LFB7
 3227 0004 12000000 		.4byte	.LCFI0
 3228 0008 0200     		.2byte	0x2
 3229 000a 7D       		.byte	0x7d
 3230 000b 00       		.sleb128 0
 3231 000c 12000000 		.4byte	.LCFI0
 3232 0010 50000000 		.4byte	.LFE7
 3233 0014 0200     		.2byte	0x2
 3234 0016 7D       		.byte	0x7d
 3235 0017 10       		.sleb128 16
 3236 0018 00000000 		.4byte	0
 3237 001c 00000000 		.4byte	0
 3238              	.LLST1:
 3239 0020 00000000 		.4byte	.LVL0
 3240 0024 1E000000 		.4byte	.LVL1
 3241 0028 0100     		.2byte	0x1
 3242 002a 50       		.byte	0x50
 3243 002b 1E000000 		.4byte	.LVL1
 3244 002f 50000000 		.4byte	.LFE7
 3245 0033 0100     		.2byte	0x1
 3246 0035 54       		.byte	0x54
 3247 0036 00000000 		.4byte	0
 3248 003a 00000000 		.4byte	0
 3249              	.LLST2:
 3250 003e 00000000 		.4byte	.LVL0
 3251 0042 25000000 		.4byte	.LVL2-1
 3252 0046 0100     		.2byte	0x1
 3253 0048 51       		.byte	0x51
 3254 0049 25000000 		.4byte	.LVL2-1
 3255 004d 50000000 		.4byte	.LFE7
 3256 0051 0100     		.2byte	0x1
 3257 0053 55       		.byte	0x55
 3258 0054 00000000 		.4byte	0
 3259 0058 00000000 		.4byte	0
 3260              	.LLST3:
 3261 005c 00000000 		.4byte	.LVL0
 3262 0060 25000000 		.4byte	.LVL2-1
 3263 0064 0100     		.2byte	0x1
ARM GAS  C:\Users\z80\AppData\Local\Temp\ccRXtn4t.s 			page 59


 3264 0066 52       		.byte	0x52
 3265 0067 25000000 		.4byte	.LVL2-1
 3266 006b 50000000 		.4byte	.LFE7
 3267 006f 0100     		.2byte	0x1
 3268 0071 56       		.byte	0x56
 3269 0072 00000000 		.4byte	0
 3270 0076 00000000 		.4byte	0
 3271              	.LLST4:
 3272 007a 2C000000 		.4byte	.LVL4
 3273 007e 2F000000 		.4byte	.LVL5-1
 3274 0082 0100     		.2byte	0x1
 3275 0084 53       		.byte	0x53
 3276 0085 00000000 		.4byte	0
 3277 0089 00000000 		.4byte	0
 3278              	.LLST5:
 3279 008d 4E000000 		.4byte	.LVL7
 3280 0091 50000000 		.4byte	.LFE7
 3281 0095 0100     		.2byte	0x1
 3282 0097 53       		.byte	0x53
 3283 0098 00000000 		.4byte	0
 3284 009c 00000000 		.4byte	0
 3285              	.LLST6:
 3286 00a0 00000000 		.4byte	.LFB8
 3287 00a4 02000000 		.4byte	.LCFI1
 3288 00a8 0200     		.2byte	0x2
 3289 00aa 7D       		.byte	0x7d
 3290 00ab 00       		.sleb128 0
 3291 00ac 02000000 		.4byte	.LCFI1
 3292 00b0 5C000000 		.4byte	.LFE8
 3293 00b4 0200     		.2byte	0x2
 3294 00b6 7D       		.byte	0x7d
 3295 00b7 10       		.sleb128 16
 3296 00b8 00000000 		.4byte	0
 3297 00bc 00000000 		.4byte	0
 3298              	.LLST7:
 3299 00c0 00000000 		.4byte	.LVL8
 3300 00c4 18000000 		.4byte	.LVL9
 3301 00c8 0100     		.2byte	0x1
 3302 00ca 50       		.byte	0x50
 3303 00cb 18000000 		.4byte	.LVL9
 3304 00cf 5C000000 		.4byte	.LFE8
 3305 00d3 0100     		.2byte	0x1
 3306 00d5 54       		.byte	0x54
 3307 00d6 00000000 		.4byte	0
 3308 00da 00000000 		.4byte	0
 3309              	.LLST8:
 3310 00de 00000000 		.4byte	.LVL8
 3311 00e2 18000000 		.4byte	.LVL9
 3312 00e6 0100     		.2byte	0x1
 3313 00e8 51       		.byte	0x51
 3314 00e9 18000000 		.4byte	.LVL9
 3315 00ed 5C000000 		.4byte	.LFE8
 3316 00f1 0100     		.2byte	0x1
 3317 00f3 55       		.byte	0x55
 3318 00f4 00000000 		.4byte	0
 3319 00f8 00000000 		.4byte	0
 3320              	.LLST9:
ARM GAS  C:\Users\z80\AppData\Local\Temp\ccRXtn4t.s 			page 60


 3321 00fc 18000000 		.4byte	.LVL9
 3322 0100 26000000 		.4byte	.LVL13
 3323 0104 0100     		.2byte	0x1
 3324 0106 54       		.byte	0x54
 3325 0107 26000000 		.4byte	.LVL13
 3326 010b 35000000 		.4byte	.LVL15-1
 3327 010f 0100     		.2byte	0x1
 3328 0111 52       		.byte	0x52
 3329 0112 3E000000 		.4byte	.LVL18
 3330 0116 45000000 		.4byte	.LVL19-1
 3331 011a 0100     		.2byte	0x1
 3332 011c 52       		.byte	0x52
 3333 011d 00000000 		.4byte	0
 3334 0121 00000000 		.4byte	0
 3335              	.LLST10:
 3336 0125 1E000000 		.4byte	.LVL11
 3337 0129 21000000 		.4byte	.LVL12-1
 3338 012d 0100     		.2byte	0x1
 3339 012f 53       		.byte	0x53
 3340 0130 00000000 		.4byte	0
 3341 0134 00000000 		.4byte	0
 3342              	.LLST11:
 3343 0138 3C000000 		.4byte	.LVL17
 3344 013c 3E000000 		.4byte	.LVL18
 3345 0140 0100     		.2byte	0x1
 3346 0142 53       		.byte	0x53
 3347 0143 4C000000 		.4byte	.LVL20
 3348 0147 4E000000 		.4byte	.LVL21
 3349 014b 0100     		.2byte	0x1
 3350 014d 53       		.byte	0x53
 3351 014e 00000000 		.4byte	0
 3352 0152 00000000 		.4byte	0
 3353              	.LLST12:
 3354 0156 00000000 		.4byte	.LFB9
 3355 015a 02000000 		.4byte	.LCFI2
 3356 015e 0200     		.2byte	0x2
 3357 0160 7D       		.byte	0x7d
 3358 0161 00       		.sleb128 0
 3359 0162 02000000 		.4byte	.LCFI2
 3360 0166 30000000 		.4byte	.LFE9
 3361 016a 0200     		.2byte	0x2
 3362 016c 7D       		.byte	0x7d
 3363 016d 08       		.sleb128 8
 3364 016e 00000000 		.4byte	0
 3365 0172 00000000 		.4byte	0
 3366              	.LLST13:
 3367 0176 00000000 		.4byte	.LVL22
 3368 017a 0D000000 		.4byte	.LVL25-1
 3369 017e 0100     		.2byte	0x1
 3370 0180 50       		.byte	0x50
 3371 0181 0D000000 		.4byte	.LVL25-1
 3372 0185 22000000 		.4byte	.LVL26
 3373 0189 0100     		.2byte	0x1
 3374 018b 54       		.byte	0x54
 3375 018c 00000000 		.4byte	0
 3376 0190 00000000 		.4byte	0
 3377              	.LLST14:
ARM GAS  C:\Users\z80\AppData\Local\Temp\ccRXtn4t.s 			page 61


 3378 0194 0A000000 		.4byte	.LVL24
 3379 0198 0D000000 		.4byte	.LVL25-1
 3380 019c 0100     		.2byte	0x1
 3381 019e 53       		.byte	0x53
 3382 019f 00000000 		.4byte	0
 3383 01a3 00000000 		.4byte	0
 3384              	.LLST15:
 3385 01a7 2C000000 		.4byte	.LVL28
 3386 01ab 30000000 		.4byte	.LFE9
 3387 01af 0100     		.2byte	0x1
 3388 01b1 53       		.byte	0x53
 3389 01b2 00000000 		.4byte	0
 3390 01b6 00000000 		.4byte	0
 3391              	.LLST16:
 3392 01ba 00000000 		.4byte	.LFB10
 3393 01be 02000000 		.4byte	.LCFI3
 3394 01c2 0200     		.2byte	0x2
 3395 01c4 7D       		.byte	0x7d
 3396 01c5 00       		.sleb128 0
 3397 01c6 02000000 		.4byte	.LCFI3
 3398 01ca 2C000000 		.4byte	.LFE10
 3399 01ce 0200     		.2byte	0x2
 3400 01d0 7D       		.byte	0x7d
 3401 01d1 08       		.sleb128 8
 3402 01d2 00000000 		.4byte	0
 3403 01d6 00000000 		.4byte	0
 3404              	.LLST17:
 3405 01da 00000000 		.4byte	.LVL29
 3406 01de 0D000000 		.4byte	.LVL32-1
 3407 01e2 0100     		.2byte	0x1
 3408 01e4 50       		.byte	0x50
 3409 01e5 0D000000 		.4byte	.LVL32-1
 3410 01e9 1C000000 		.4byte	.LVL33
 3411 01ed 0100     		.2byte	0x1
 3412 01ef 54       		.byte	0x54
 3413 01f0 1E000000 		.4byte	.LVL34
 3414 01f4 2C000000 		.4byte	.LFE10
 3415 01f8 0100     		.2byte	0x1
 3416 01fa 54       		.byte	0x54
 3417 01fb 00000000 		.4byte	0
 3418 01ff 00000000 		.4byte	0
 3419              	.LLST18:
 3420 0203 0A000000 		.4byte	.LVL31
 3421 0207 0D000000 		.4byte	.LVL32-1
 3422 020b 0100     		.2byte	0x1
 3423 020d 53       		.byte	0x53
 3424 020e 00000000 		.4byte	0
 3425 0212 00000000 		.4byte	0
 3426              	.LLST19:
 3427 0216 28000000 		.4byte	.LVL36
 3428 021a 2C000000 		.4byte	.LFE10
 3429 021e 0100     		.2byte	0x1
 3430 0220 53       		.byte	0x53
 3431 0221 00000000 		.4byte	0
 3432 0225 00000000 		.4byte	0
 3433              	.LLST20:
 3434 0229 00000000 		.4byte	.LFB12
ARM GAS  C:\Users\z80\AppData\Local\Temp\ccRXtn4t.s 			page 62


 3435 022d 02000000 		.4byte	.LCFI4
 3436 0231 0200     		.2byte	0x2
 3437 0233 7D       		.byte	0x7d
 3438 0234 00       		.sleb128 0
 3439 0235 02000000 		.4byte	.LCFI4
 3440 0239 4A000000 		.4byte	.LFE12
 3441 023d 0200     		.2byte	0x2
 3442 023f 7D       		.byte	0x7d
 3443 0240 10       		.sleb128 16
 3444 0241 00000000 		.4byte	0
 3445 0245 00000000 		.4byte	0
 3446              	.LLST21:
 3447 0249 00000000 		.4byte	.LVL37
 3448 024d 09000000 		.4byte	.LVL38-1
 3449 0251 0100     		.2byte	0x1
 3450 0253 50       		.byte	0x50
 3451 0254 09000000 		.4byte	.LVL38-1
 3452 0258 4A000000 		.4byte	.LFE12
 3453 025c 0100     		.2byte	0x1
 3454 025e 54       		.byte	0x54
 3455 025f 00000000 		.4byte	0
 3456 0263 00000000 		.4byte	0
 3457              	.LLST22:
 3458 0267 00000000 		.4byte	.LVL37
 3459 026b 09000000 		.4byte	.LVL38-1
 3460 026f 0100     		.2byte	0x1
 3461 0271 51       		.byte	0x51
 3462 0272 09000000 		.4byte	.LVL38-1
 3463 0276 14000000 		.4byte	.LVL39
 3464 027a 0100     		.2byte	0x1
 3465 027c 55       		.byte	0x55
 3466 027d 3C000000 		.4byte	.LVL42
 3467 0281 4A000000 		.4byte	.LFE12
 3468 0285 0100     		.2byte	0x1
 3469 0287 55       		.byte	0x55
 3470 0288 00000000 		.4byte	0
 3471 028c 00000000 		.4byte	0
 3472              	.LLST23:
 3473 0290 28000000 		.4byte	.LVL40
 3474 0294 34000000 		.4byte	.LVL41
 3475 0298 0100     		.2byte	0x1
 3476 029a 54       		.byte	0x54
 3477 029b 00000000 		.4byte	0
 3478 029f 00000000 		.4byte	0
 3479              	.LLST24:
 3480 02a3 00000000 		.4byte	.LFB11
 3481 02a7 02000000 		.4byte	.LCFI5
 3482 02ab 0200     		.2byte	0x2
 3483 02ad 7D       		.byte	0x7d
 3484 02ae 00       		.sleb128 0
 3485 02af 02000000 		.4byte	.LCFI5
 3486 02b3 38000000 		.4byte	.LFE11
 3487 02b7 0200     		.2byte	0x2
 3488 02b9 7D       		.byte	0x7d
 3489 02ba 10       		.sleb128 16
 3490 02bb 00000000 		.4byte	0
 3491 02bf 00000000 		.4byte	0
ARM GAS  C:\Users\z80\AppData\Local\Temp\ccRXtn4t.s 			page 63


 3492              	.LLST25:
 3493 02c3 00000000 		.4byte	.LVL43
 3494 02c7 08000000 		.4byte	.LVL44
 3495 02cb 0100     		.2byte	0x1
 3496 02cd 50       		.byte	0x50
 3497 02ce 08000000 		.4byte	.LVL44
 3498 02d2 38000000 		.4byte	.LFE11
 3499 02d6 0100     		.2byte	0x1
 3500 02d8 54       		.byte	0x54
 3501 02d9 00000000 		.4byte	0
 3502 02dd 00000000 		.4byte	0
 3503              	.LLST26:
 3504 02e1 00000000 		.4byte	.LVL43
 3505 02e5 08000000 		.4byte	.LVL44
 3506 02e9 0100     		.2byte	0x1
 3507 02eb 51       		.byte	0x51
 3508 02ec 08000000 		.4byte	.LVL44
 3509 02f0 38000000 		.4byte	.LFE11
 3510 02f4 0100     		.2byte	0x1
 3511 02f6 55       		.byte	0x55
 3512 02f7 00000000 		.4byte	0
 3513 02fb 00000000 		.4byte	0
 3514              	.LLST27:
 3515 02ff 0E000000 		.4byte	.LVL46
 3516 0303 11000000 		.4byte	.LVL47-1
 3517 0307 0100     		.2byte	0x1
 3518 0309 53       		.byte	0x53
 3519 030a 00000000 		.4byte	0
 3520 030e 00000000 		.4byte	0
 3521              	.LLST28:
 3522 0312 28000000 		.4byte	.LVL49
 3523 0316 2A000000 		.4byte	.LVL50
 3524 031a 0100     		.2byte	0x1
 3525 031c 53       		.byte	0x53
 3526 031d 00000000 		.4byte	0
 3527 0321 00000000 		.4byte	0
 3528              	.LLST29:
 3529 0325 00000000 		.4byte	.LFB14
 3530 0329 02000000 		.4byte	.LCFI6
 3531 032d 0200     		.2byte	0x2
 3532 032f 7D       		.byte	0x7d
 3533 0330 00       		.sleb128 0
 3534 0331 02000000 		.4byte	.LCFI6
 3535 0335 32000000 		.4byte	.LFE14
 3536 0339 0200     		.2byte	0x2
 3537 033b 7D       		.byte	0x7d
 3538 033c 10       		.sleb128 16
 3539 033d 00000000 		.4byte	0
 3540 0341 00000000 		.4byte	0
 3541              	.LLST30:
 3542 0345 00000000 		.4byte	.LVL51
 3543 0349 09000000 		.4byte	.LVL52-1
 3544 034d 0100     		.2byte	0x1
 3545 034f 50       		.byte	0x50
 3546 0350 09000000 		.4byte	.LVL52-1
 3547 0354 32000000 		.4byte	.LFE14
 3548 0358 0100     		.2byte	0x1
ARM GAS  C:\Users\z80\AppData\Local\Temp\ccRXtn4t.s 			page 64


 3549 035a 55       		.byte	0x55
 3550 035b 00000000 		.4byte	0
 3551 035f 00000000 		.4byte	0
 3552              	.LLST31:
 3553 0363 00000000 		.4byte	.LVL51
 3554 0367 09000000 		.4byte	.LVL52-1
 3555 036b 0100     		.2byte	0x1
 3556 036d 51       		.byte	0x51
 3557 036e 09000000 		.4byte	.LVL52-1
 3558 0372 32000000 		.4byte	.LFE14
 3559 0376 0100     		.2byte	0x1
 3560 0378 56       		.byte	0x56
 3561 0379 00000000 		.4byte	0
 3562 037d 00000000 		.4byte	0
 3563              	.LLST32:
 3564 0381 0E000000 		.4byte	.LVL53
 3565 0385 12000000 		.4byte	.LVL54
 3566 0389 0200     		.2byte	0x2
 3567 038b 75       		.byte	0x75
 3568 038c 00       		.sleb128 0
 3569 038d 12000000 		.4byte	.LVL54
 3570 0391 24000000 		.4byte	.LVL56
 3571 0395 0100     		.2byte	0x1
 3572 0397 54       		.byte	0x54
 3573 0398 00000000 		.4byte	0
 3574 039c 00000000 		.4byte	0
 3575              	.LLST33:
 3576 03a0 00000000 		.4byte	.LFB13
 3577 03a4 02000000 		.4byte	.LCFI7
 3578 03a8 0200     		.2byte	0x2
 3579 03aa 7D       		.byte	0x7d
 3580 03ab 00       		.sleb128 0
 3581 03ac 02000000 		.4byte	.LCFI7
 3582 03b0 28000000 		.4byte	.LFE13
 3583 03b4 0200     		.2byte	0x2
 3584 03b6 7D       		.byte	0x7d
 3585 03b7 10       		.sleb128 16
 3586 03b8 00000000 		.4byte	0
 3587 03bc 00000000 		.4byte	0
 3588              	.LLST34:
 3589 03c0 00000000 		.4byte	.LVL57
 3590 03c4 0F000000 		.4byte	.LVL60-1
 3591 03c8 0100     		.2byte	0x1
 3592 03ca 50       		.byte	0x50
 3593 03cb 0F000000 		.4byte	.LVL60-1
 3594 03cf 28000000 		.4byte	.LFE13
 3595 03d3 0100     		.2byte	0x1
 3596 03d5 55       		.byte	0x55
 3597 03d6 00000000 		.4byte	0
 3598 03da 00000000 		.4byte	0
 3599              	.LLST35:
 3600 03de 00000000 		.4byte	.LVL57
 3601 03e2 0F000000 		.4byte	.LVL60-1
 3602 03e6 0100     		.2byte	0x1
 3603 03e8 51       		.byte	0x51
 3604 03e9 0F000000 		.4byte	.LVL60-1
 3605 03ed 28000000 		.4byte	.LFE13
ARM GAS  C:\Users\z80\AppData\Local\Temp\ccRXtn4t.s 			page 65


 3606 03f1 0100     		.2byte	0x1
 3607 03f3 54       		.byte	0x54
 3608 03f4 00000000 		.4byte	0
 3609 03f8 00000000 		.4byte	0
 3610              	.LLST36:
 3611 03fc 0C000000 		.4byte	.LVL59
 3612 0400 0F000000 		.4byte	.LVL60-1
 3613 0404 0100     		.2byte	0x1
 3614 0406 53       		.byte	0x53
 3615 0407 00000000 		.4byte	0
 3616 040b 00000000 		.4byte	0
 3617              	.LLST37:
 3618 040f 26000000 		.4byte	.LVL62
 3619 0413 28000000 		.4byte	.LFE13
 3620 0417 0100     		.2byte	0x1
 3621 0419 53       		.byte	0x53
 3622 041a 00000000 		.4byte	0
 3623 041e 00000000 		.4byte	0
 3624              	.LLST38:
 3625 0422 00000000 		.4byte	.LFB15
 3626 0426 04000000 		.4byte	.LCFI8
 3627 042a 0200     		.2byte	0x2
 3628 042c 7D       		.byte	0x7d
 3629 042d 00       		.sleb128 0
 3630 042e 04000000 		.4byte	.LCFI8
 3631 0432 52000000 		.4byte	.LFE15
 3632 0436 0200     		.2byte	0x2
 3633 0438 7D       		.byte	0x7d
 3634 0439 18       		.sleb128 24
 3635 043a 00000000 		.4byte	0
 3636 043e 00000000 		.4byte	0
 3637              	.LLST39:
 3638 0442 00000000 		.4byte	.LVL63
 3639 0446 0A000000 		.4byte	.LVL64
 3640 044a 0100     		.2byte	0x1
 3641 044c 50       		.byte	0x50
 3642 044d 0A000000 		.4byte	.LVL64
 3643 0451 52000000 		.4byte	.LFE15
 3644 0455 0100     		.2byte	0x1
 3645 0457 54       		.byte	0x54
 3646 0458 00000000 		.4byte	0
 3647 045c 00000000 		.4byte	0
 3648              	.LLST40:
 3649 0460 00000000 		.4byte	.LVL63
 3650 0464 0A000000 		.4byte	.LVL64
 3651 0468 0100     		.2byte	0x1
 3652 046a 51       		.byte	0x51
 3653 046b 0A000000 		.4byte	.LVL64
 3654 046f 20000000 		.4byte	.LVL66
 3655 0473 0100     		.2byte	0x1
 3656 0475 56       		.byte	0x56
 3657 0476 24000000 		.4byte	.LVL67
 3658 047a 34000000 		.4byte	.LVL70
 3659 047e 0100     		.2byte	0x1
 3660 0480 56       		.byte	0x56
 3661 0481 44000000 		.4byte	.LVL71
 3662 0485 4F000000 		.4byte	.LVL72-1
ARM GAS  C:\Users\z80\AppData\Local\Temp\ccRXtn4t.s 			page 66


 3663 0489 0100     		.2byte	0x1
 3664 048b 51       		.byte	0x51
 3665 048c 4F000000 		.4byte	.LVL72-1
 3666 0490 52000000 		.4byte	.LFE15
 3667 0494 0100     		.2byte	0x1
 3668 0496 56       		.byte	0x56
 3669 0497 00000000 		.4byte	0
 3670 049b 00000000 		.4byte	0
 3671              	.LLST41:
 3672 049f 0A000000 		.4byte	.LVL64
 3673 04a3 14000000 		.4byte	.LVL65
 3674 04a7 0200     		.2byte	0x2
 3675 04a9 30       		.byte	0x30
 3676 04aa 9F       		.byte	0x9f
 3677 04ab 2A000000 		.4byte	.LVL68
 3678 04af 30000000 		.4byte	.LVL69
 3679 04b3 0100     		.2byte	0x1
 3680 04b5 55       		.byte	0x55
 3681 04b6 00000000 		.4byte	0
 3682 04ba 00000000 		.4byte	0
 3683              	.LLST42:
 3684 04be 00000000 		.4byte	.LFB16
 3685 04c2 02000000 		.4byte	.LCFI9
 3686 04c6 0200     		.2byte	0x2
 3687 04c8 7D       		.byte	0x7d
 3688 04c9 00       		.sleb128 0
 3689 04ca 02000000 		.4byte	.LCFI9
 3690 04ce 46000000 		.4byte	.LFE16
 3691 04d2 0200     		.2byte	0x2
 3692 04d4 7D       		.byte	0x7d
 3693 04d5 10       		.sleb128 16
 3694 04d6 00000000 		.4byte	0
 3695 04da 00000000 		.4byte	0
 3696              	.LLST43:
 3697 04de 00000000 		.4byte	.LVL73
 3698 04e2 17000000 		.4byte	.LVL77-1
 3699 04e6 0100     		.2byte	0x1
 3700 04e8 50       		.byte	0x50
 3701 04e9 17000000 		.4byte	.LVL77-1
 3702 04ed 30000000 		.4byte	.LVL81
 3703 04f1 0100     		.2byte	0x1
 3704 04f3 55       		.byte	0x55
 3705 04f4 00000000 		.4byte	0
 3706 04f8 00000000 		.4byte	0
 3707              	.LLST44:
 3708 04fc 0C000000 		.4byte	.LVL74
 3709 0500 10000000 		.4byte	.LVL75
 3710 0504 0200     		.2byte	0x2
 3711 0506 73       		.byte	0x73
 3712 0507 1C       		.sleb128 28
 3713 0508 17000000 		.4byte	.LVL77-1
 3714 050c 46000000 		.4byte	.LFE16
 3715 0510 0100     		.2byte	0x1
 3716 0512 54       		.byte	0x54
 3717 0513 00000000 		.4byte	0
 3718 0517 00000000 		.4byte	0
 3719              	.LLST45:
ARM GAS  C:\Users\z80\AppData\Local\Temp\ccRXtn4t.s 			page 67


 3720 051b 1A000000 		.4byte	.LVL78
 3721 051f 27000000 		.4byte	.LVL79-1
 3722 0523 0700     		.2byte	0x7
 3723 0525 75       		.byte	0x75
 3724 0526 00       		.sleb128 0
 3725 0527 74       		.byte	0x74
 3726 0528 3C       		.sleb128 60
 3727 0529 06       		.byte	0x6
 3728 052a 1A       		.byte	0x1a
 3729 052b 9F       		.byte	0x9f
 3730 052c 2E000000 		.4byte	.LVL80
 3731 0530 32000000 		.4byte	.LVL82
 3732 0534 0100     		.2byte	0x1
 3733 0536 52       		.byte	0x52
 3734 0537 32000000 		.4byte	.LVL82
 3735 053b 46000000 		.4byte	.LFE16
 3736 053f 0100     		.2byte	0x1
 3737 0541 55       		.byte	0x55
 3738 0542 00000000 		.4byte	0
 3739 0546 00000000 		.4byte	0
 3740              	.LLST46:
 3741 054a 14000000 		.4byte	.LVL76
 3742 054e 17000000 		.4byte	.LVL77-1
 3743 0552 0100     		.2byte	0x1
 3744 0554 53       		.byte	0x53
 3745 0555 00000000 		.4byte	0
 3746 0559 00000000 		.4byte	0
 3747              	.LLST47:
 3748 055d 42000000 		.4byte	.LVL84
 3749 0561 46000000 		.4byte	.LFE16
 3750 0565 0100     		.2byte	0x1
 3751 0567 53       		.byte	0x53
 3752 0568 00000000 		.4byte	0
 3753 056c 00000000 		.4byte	0
 3754              	.LLST48:
 3755 0570 00000000 		.4byte	.LFB17
 3756 0574 0A000000 		.4byte	.LCFI10
 3757 0578 0200     		.2byte	0x2
 3758 057a 7D       		.byte	0x7d
 3759 057b 00       		.sleb128 0
 3760 057c 0A000000 		.4byte	.LCFI10
 3761 0580 42000000 		.4byte	.LFE17
 3762 0584 0200     		.2byte	0x2
 3763 0586 7D       		.byte	0x7d
 3764 0587 10       		.sleb128 16
 3765 0588 00000000 		.4byte	0
 3766 058c 00000000 		.4byte	0
 3767              	.LLST49:
 3768 0590 00000000 		.4byte	.LVL85
 3769 0594 17000000 		.4byte	.LVL89-1
 3770 0598 0100     		.2byte	0x1
 3771 059a 50       		.byte	0x50
 3772 059b 17000000 		.4byte	.LVL89-1
 3773 059f 42000000 		.4byte	.LFE17
 3774 05a3 0100     		.2byte	0x1
 3775 05a5 55       		.byte	0x55
 3776 05a6 00000000 		.4byte	0
ARM GAS  C:\Users\z80\AppData\Local\Temp\ccRXtn4t.s 			page 68


 3777 05aa 00000000 		.4byte	0
 3778              	.LLST50:
 3779 05ae 0C000000 		.4byte	.LVL86
 3780 05b2 10000000 		.4byte	.LVL87
 3781 05b6 0200     		.2byte	0x2
 3782 05b8 73       		.byte	0x73
 3783 05b9 1C       		.sleb128 28
 3784 05ba 17000000 		.4byte	.LVL89-1
 3785 05be 42000000 		.4byte	.LFE17
 3786 05c2 0100     		.2byte	0x1
 3787 05c4 54       		.byte	0x54
 3788 05c5 00000000 		.4byte	0
 3789 05c9 00000000 		.4byte	0
 3790              	.LLST51:
 3791 05cd 1A000000 		.4byte	.LVL90
 3792 05d1 27000000 		.4byte	.LVL91-1
 3793 05d5 0700     		.2byte	0x7
 3794 05d7 75       		.byte	0x75
 3795 05d8 00       		.sleb128 0
 3796 05d9 74       		.byte	0x74
 3797 05da 3C       		.sleb128 60
 3798 05db 06       		.byte	0x6
 3799 05dc 1A       		.byte	0x1a
 3800 05dd 9F       		.byte	0x9f
 3801 05de 27000000 		.4byte	.LVL91-1
 3802 05e2 42000000 		.4byte	.LFE17
 3803 05e6 0100     		.2byte	0x1
 3804 05e8 56       		.byte	0x56
 3805 05e9 00000000 		.4byte	0
 3806 05ed 00000000 		.4byte	0
 3807              	.LLST52:
 3808 05f1 14000000 		.4byte	.LVL88
 3809 05f5 17000000 		.4byte	.LVL89-1
 3810 05f9 0100     		.2byte	0x1
 3811 05fb 53       		.byte	0x53
 3812 05fc 00000000 		.4byte	0
 3813 0600 00000000 		.4byte	0
 3814              	.LLST53:
 3815 0604 3E000000 		.4byte	.LVL94
 3816 0608 42000000 		.4byte	.LFE17
 3817 060c 0100     		.2byte	0x1
 3818 060e 53       		.byte	0x53
 3819 060f 00000000 		.4byte	0
 3820 0613 00000000 		.4byte	0
 3821              	.LLST54:
 3822 0617 00000000 		.4byte	.LFB18
 3823 061b 02000000 		.4byte	.LCFI11
 3824 061f 0200     		.2byte	0x2
 3825 0621 7D       		.byte	0x7d
 3826 0622 00       		.sleb128 0
 3827 0623 02000000 		.4byte	.LCFI11
 3828 0627 40000000 		.4byte	.LFE18
 3829 062b 0200     		.2byte	0x2
 3830 062d 7D       		.byte	0x7d
 3831 062e 10       		.sleb128 16
 3832 062f 00000000 		.4byte	0
 3833 0633 00000000 		.4byte	0
ARM GAS  C:\Users\z80\AppData\Local\Temp\ccRXtn4t.s 			page 69


 3834              	.LLST55:
 3835 0637 00000000 		.4byte	.LVL95
 3836 063b 17000000 		.4byte	.LVL99-1
 3837 063f 0100     		.2byte	0x1
 3838 0641 50       		.byte	0x50
 3839 0642 17000000 		.4byte	.LVL99-1
 3840 0646 40000000 		.4byte	.LFE18
 3841 064a 0100     		.2byte	0x1
 3842 064c 54       		.byte	0x54
 3843 064d 00000000 		.4byte	0
 3844 0651 00000000 		.4byte	0
 3845              	.LLST56:
 3846 0655 0C000000 		.4byte	.LVL96
 3847 0659 10000000 		.4byte	.LVL97
 3848 065d 0200     		.2byte	0x2
 3849 065f 73       		.byte	0x73
 3850 0660 1C       		.sleb128 28
 3851 0661 17000000 		.4byte	.LVL99-1
 3852 0665 40000000 		.4byte	.LFE18
 3853 0669 0100     		.2byte	0x1
 3854 066b 55       		.byte	0x55
 3855 066c 00000000 		.4byte	0
 3856 0670 00000000 		.4byte	0
 3857              	.LLST57:
 3858 0674 14000000 		.4byte	.LVL98
 3859 0678 17000000 		.4byte	.LVL99-1
 3860 067c 0100     		.2byte	0x1
 3861 067e 53       		.byte	0x53
 3862 067f 00000000 		.4byte	0
 3863 0683 00000000 		.4byte	0
 3864              	.LLST58:
 3865 0687 3C000000 		.4byte	.LVL101
 3866 068b 40000000 		.4byte	.LFE18
 3867 068f 0100     		.2byte	0x1
 3868 0691 53       		.byte	0x53
 3869 0692 00000000 		.4byte	0
 3870 0696 00000000 		.4byte	0
 3871              	.LLST59:
 3872 069a 00000000 		.4byte	.LFB19
 3873 069e 02000000 		.4byte	.LCFI12
 3874 06a2 0200     		.2byte	0x2
 3875 06a4 7D       		.byte	0x7d
 3876 06a5 00       		.sleb128 0
 3877 06a6 02000000 		.4byte	.LCFI12
 3878 06aa 5E000000 		.4byte	.LFE19
 3879 06ae 0200     		.2byte	0x2
 3880 06b0 7D       		.byte	0x7d
 3881 06b1 18       		.sleb128 24
 3882 06b2 00000000 		.4byte	0
 3883 06b6 00000000 		.4byte	0
 3884              	.LLST60:
 3885 06ba 00000000 		.4byte	.LVL102
 3886 06be 19000000 		.4byte	.LVL106-1
 3887 06c2 0100     		.2byte	0x1
 3888 06c4 50       		.byte	0x50
 3889 06c5 19000000 		.4byte	.LVL106-1
 3890 06c9 5E000000 		.4byte	.LFE19
ARM GAS  C:\Users\z80\AppData\Local\Temp\ccRXtn4t.s 			page 70


 3891 06cd 0100     		.2byte	0x1
 3892 06cf 55       		.byte	0x55
 3893 06d0 00000000 		.4byte	0
 3894 06d4 00000000 		.4byte	0
 3895              	.LLST61:
 3896 06d8 00000000 		.4byte	.LVL102
 3897 06dc 19000000 		.4byte	.LVL106-1
 3898 06e0 0100     		.2byte	0x1
 3899 06e2 51       		.byte	0x51
 3900 06e3 19000000 		.4byte	.LVL106-1
 3901 06e7 5E000000 		.4byte	.LFE19
 3902 06eb 0100     		.2byte	0x1
 3903 06ed 57       		.byte	0x57
 3904 06ee 00000000 		.4byte	0
 3905 06f2 00000000 		.4byte	0
 3906              	.LLST62:
 3907 06f6 0C000000 		.4byte	.LVL103
 3908 06fa 12000000 		.4byte	.LVL104
 3909 06fe 0200     		.2byte	0x2
 3910 0700 73       		.byte	0x73
 3911 0701 1C       		.sleb128 28
 3912 0702 19000000 		.4byte	.LVL106-1
 3913 0706 5E000000 		.4byte	.LFE19
 3914 070a 0100     		.2byte	0x1
 3915 070c 56       		.byte	0x56
 3916 070d 00000000 		.4byte	0
 3917 0711 00000000 		.4byte	0
 3918              	.LLST63:
 3919 0715 1C000000 		.4byte	.LVL107
 3920 0719 2D000000 		.4byte	.LVL108-1
 3921 071d 0700     		.2byte	0x7
 3922 071f 75       		.byte	0x75
 3923 0720 00       		.sleb128 0
 3924 0721 76       		.byte	0x76
 3925 0722 3C       		.sleb128 60
 3926 0723 06       		.byte	0x6
 3927 0724 1A       		.byte	0x1a
 3928 0725 9F       		.byte	0x9f
 3929 0726 2D000000 		.4byte	.LVL108-1
 3930 072a 5E000000 		.4byte	.LFE19
 3931 072e 0100     		.2byte	0x1
 3932 0730 54       		.byte	0x54
 3933 0731 00000000 		.4byte	0
 3934 0735 00000000 		.4byte	0
 3935              	.LLST64:
 3936 0739 16000000 		.4byte	.LVL105
 3937 073d 19000000 		.4byte	.LVL106-1
 3938 0741 0100     		.2byte	0x1
 3939 0743 53       		.byte	0x53
 3940 0744 00000000 		.4byte	0
 3941 0748 00000000 		.4byte	0
 3942              	.LLST65:
 3943 074c 4C000000 		.4byte	.LVL112
 3944 0750 50000000 		.4byte	.LVL113
 3945 0754 0100     		.2byte	0x1
 3946 0756 53       		.byte	0x53
 3947 0757 00000000 		.4byte	0
ARM GAS  C:\Users\z80\AppData\Local\Temp\ccRXtn4t.s 			page 71


 3948 075b 00000000 		.4byte	0
 3949              	.LLST66:
 3950 075f 5A000000 		.4byte	.LVL115
 3951 0763 5E000000 		.4byte	.LFE19
 3952 0767 0100     		.2byte	0x1
 3953 0769 53       		.byte	0x53
 3954 076a 00000000 		.4byte	0
 3955 076e 00000000 		.4byte	0
 3956              	.LLST67:
 3957 0772 00000000 		.4byte	.LFB20
 3958 0776 02000000 		.4byte	.LCFI13
 3959 077a 0200     		.2byte	0x2
 3960 077c 7D       		.byte	0x7d
 3961 077d 00       		.sleb128 0
 3962 077e 02000000 		.4byte	.LCFI13
 3963 0782 5A000000 		.4byte	.LFE20
 3964 0786 0200     		.2byte	0x2
 3965 0788 7D       		.byte	0x7d
 3966 0789 18       		.sleb128 24
 3967 078a 00000000 		.4byte	0
 3968 078e 00000000 		.4byte	0
 3969              	.LLST68:
 3970 0792 00000000 		.4byte	.LVL116
 3971 0796 19000000 		.4byte	.LVL120-1
 3972 079a 0100     		.2byte	0x1
 3973 079c 50       		.byte	0x50
 3974 079d 19000000 		.4byte	.LVL120-1
 3975 07a1 5A000000 		.4byte	.LFE20
 3976 07a5 0100     		.2byte	0x1
 3977 07a7 54       		.byte	0x54
 3978 07a8 00000000 		.4byte	0
 3979 07ac 00000000 		.4byte	0
 3980              	.LLST69:
 3981 07b0 00000000 		.4byte	.LVL116
 3982 07b4 19000000 		.4byte	.LVL120-1
 3983 07b8 0100     		.2byte	0x1
 3984 07ba 51       		.byte	0x51
 3985 07bb 19000000 		.4byte	.LVL120-1
 3986 07bf 5A000000 		.4byte	.LFE20
 3987 07c3 0100     		.2byte	0x1
 3988 07c5 57       		.byte	0x57
 3989 07c6 00000000 		.4byte	0
 3990 07ca 00000000 		.4byte	0
 3991              	.LLST70:
 3992 07ce 0C000000 		.4byte	.LVL117
 3993 07d2 12000000 		.4byte	.LVL118
 3994 07d6 0200     		.2byte	0x2
 3995 07d8 73       		.byte	0x73
 3996 07d9 1C       		.sleb128 28
 3997 07da 19000000 		.4byte	.LVL120-1
 3998 07de 5A000000 		.4byte	.LFE20
 3999 07e2 0100     		.2byte	0x1
 4000 07e4 55       		.byte	0x55
 4001 07e5 00000000 		.4byte	0
 4002 07e9 00000000 		.4byte	0
 4003              	.LLST71:
 4004 07ed 1C000000 		.4byte	.LVL121
ARM GAS  C:\Users\z80\AppData\Local\Temp\ccRXtn4t.s 			page 72


 4005 07f1 2D000000 		.4byte	.LVL122-1
 4006 07f5 0700     		.2byte	0x7
 4007 07f7 74       		.byte	0x74
 4008 07f8 00       		.sleb128 0
 4009 07f9 75       		.byte	0x75
 4010 07fa 3C       		.sleb128 60
 4011 07fb 06       		.byte	0x6
 4012 07fc 1A       		.byte	0x1a
 4013 07fd 9F       		.byte	0x9f
 4014 07fe 2D000000 		.4byte	.LVL122-1
 4015 0802 5A000000 		.4byte	.LFE20
 4016 0806 0100     		.2byte	0x1
 4017 0808 56       		.byte	0x56
 4018 0809 00000000 		.4byte	0
 4019 080d 00000000 		.4byte	0
 4020              	.LLST72:
 4021 0811 16000000 		.4byte	.LVL119
 4022 0815 19000000 		.4byte	.LVL120-1
 4023 0819 0100     		.2byte	0x1
 4024 081b 53       		.byte	0x53
 4025 081c 00000000 		.4byte	0
 4026 0820 00000000 		.4byte	0
 4027              	.LLST73:
 4028 0824 48000000 		.4byte	.LVL125
 4029 0828 4C000000 		.4byte	.LVL126
 4030 082c 0100     		.2byte	0x1
 4031 082e 53       		.byte	0x53
 4032 082f 00000000 		.4byte	0
 4033 0833 00000000 		.4byte	0
 4034              	.LLST74:
 4035 0837 56000000 		.4byte	.LVL128
 4036 083b 5A000000 		.4byte	.LFE20
 4037 083f 0100     		.2byte	0x1
 4038 0841 53       		.byte	0x53
 4039 0842 00000000 		.4byte	0
 4040 0846 00000000 		.4byte	0
 4041              	.LLST75:
 4042 084a 00000000 		.4byte	.LFB21
 4043 084e 0A000000 		.4byte	.LCFI14
 4044 0852 0200     		.2byte	0x2
 4045 0854 7D       		.byte	0x7d
 4046 0855 00       		.sleb128 0
 4047 0856 0A000000 		.4byte	.LCFI14
 4048 085a 6A000000 		.4byte	.LFE21
 4049 085e 0200     		.2byte	0x2
 4050 0860 7D       		.byte	0x7d
 4051 0861 10       		.sleb128 16
 4052 0862 00000000 		.4byte	0
 4053 0866 00000000 		.4byte	0
 4054              	.LLST76:
 4055 086a 00000000 		.4byte	.LVL129
 4056 086e 19000000 		.4byte	.LVL133-1
 4057 0872 0100     		.2byte	0x1
 4058 0874 50       		.byte	0x50
 4059 0875 19000000 		.4byte	.LVL133-1
 4060 0879 48000000 		.4byte	.LVL135
 4061 087d 0100     		.2byte	0x1
ARM GAS  C:\Users\z80\AppData\Local\Temp\ccRXtn4t.s 			page 73


 4062 087f 54       		.byte	0x54
 4063 0880 4C000000 		.4byte	.LVL136
 4064 0884 58000000 		.4byte	.LVL139
 4065 0888 0100     		.2byte	0x1
 4066 088a 54       		.byte	0x54
 4067 088b 5C000000 		.4byte	.LVL140
 4068 088f 68000000 		.4byte	.LVL142
 4069 0893 0100     		.2byte	0x1
 4070 0895 54       		.byte	0x54
 4071 0896 00000000 		.4byte	0
 4072 089a 00000000 		.4byte	0
 4073              	.LLST77:
 4074 089e 00000000 		.4byte	.LVL129
 4075 08a2 19000000 		.4byte	.LVL133-1
 4076 08a6 0100     		.2byte	0x1
 4077 08a8 51       		.byte	0x51
 4078 08a9 19000000 		.4byte	.LVL133-1
 4079 08ad 6A000000 		.4byte	.LFE21
 4080 08b1 0100     		.2byte	0x1
 4081 08b3 56       		.byte	0x56
 4082 08b4 00000000 		.4byte	0
 4083 08b8 00000000 		.4byte	0
 4084              	.LLST78:
 4085 08bc 0C000000 		.4byte	.LVL130
 4086 08c0 12000000 		.4byte	.LVL131
 4087 08c4 0200     		.2byte	0x2
 4088 08c6 73       		.byte	0x73
 4089 08c7 1C       		.sleb128 28
 4090 08c8 19000000 		.4byte	.LVL133-1
 4091 08cc 6A000000 		.4byte	.LFE21
 4092 08d0 0100     		.2byte	0x1
 4093 08d2 55       		.byte	0x55
 4094 08d3 00000000 		.4byte	0
 4095 08d7 00000000 		.4byte	0
 4096              	.LLST79:
 4097 08db 16000000 		.4byte	.LVL132
 4098 08df 19000000 		.4byte	.LVL133-1
 4099 08e3 0100     		.2byte	0x1
 4100 08e5 53       		.byte	0x53
 4101 08e6 00000000 		.4byte	0
 4102 08ea 00000000 		.4byte	0
 4103              	.LLST80:
 4104 08ee 48000000 		.4byte	.LVL135
 4105 08f2 4C000000 		.4byte	.LVL136
 4106 08f6 0100     		.2byte	0x1
 4107 08f8 53       		.byte	0x53
 4108 08f9 00000000 		.4byte	0
 4109 08fd 00000000 		.4byte	0
 4110              	.LLST81:
 4111 0901 56000000 		.4byte	.LVL138
 4112 0905 5C000000 		.4byte	.LVL140
 4113 0909 0100     		.2byte	0x1
 4114 090b 53       		.byte	0x53
 4115 090c 00000000 		.4byte	0
 4116 0910 00000000 		.4byte	0
 4117              	.LLST82:
 4118 0914 48000000 		.4byte	.LVL135
ARM GAS  C:\Users\z80\AppData\Local\Temp\ccRXtn4t.s 			page 74


 4119 0918 4C000000 		.4byte	.LVL136
 4120 091c 0100     		.2byte	0x1
 4121 091e 53       		.byte	0x53
 4122 091f 66000000 		.4byte	.LVL141
 4123 0923 6A000000 		.4byte	.LFE21
 4124 0927 0100     		.2byte	0x1
 4125 0929 53       		.byte	0x53
 4126 092a 00000000 		.4byte	0
 4127 092e 00000000 		.4byte	0
 4128              		.section	.debug_aranges,"",%progbits
 4129 0000 8C000000 		.4byte	0x8c
 4130 0004 0200     		.2byte	0x2
 4131 0006 00000000 		.4byte	.Ldebug_info0
 4132 000a 04       		.byte	0x4
 4133 000b 00       		.byte	0
 4134 000c 0000     		.2byte	0
 4135 000e 0000     		.2byte	0
 4136 0010 00000000 		.4byte	.LFB7
 4137 0014 50000000 		.4byte	.LFE7-.LFB7
 4138 0018 00000000 		.4byte	.LFB8
 4139 001c 5C000000 		.4byte	.LFE8-.LFB8
 4140 0020 00000000 		.4byte	.LFB9
 4141 0024 30000000 		.4byte	.LFE9-.LFB9
 4142 0028 00000000 		.4byte	.LFB10
 4143 002c 2C000000 		.4byte	.LFE10-.LFB10
 4144 0030 00000000 		.4byte	.LFB12
 4145 0034 4A000000 		.4byte	.LFE12-.LFB12
 4146 0038 00000000 		.4byte	.LFB11
 4147 003c 38000000 		.4byte	.LFE11-.LFB11
 4148 0040 00000000 		.4byte	.LFB14
 4149 0044 32000000 		.4byte	.LFE14-.LFB14
 4150 0048 00000000 		.4byte	.LFB13
 4151 004c 28000000 		.4byte	.LFE13-.LFB13
 4152 0050 00000000 		.4byte	.LFB15
 4153 0054 52000000 		.4byte	.LFE15-.LFB15
 4154 0058 00000000 		.4byte	.LFB16
 4155 005c 46000000 		.4byte	.LFE16-.LFB16
 4156 0060 00000000 		.4byte	.LFB17
 4157 0064 42000000 		.4byte	.LFE17-.LFB17
 4158 0068 00000000 		.4byte	.LFB18
 4159 006c 40000000 		.4byte	.LFE18-.LFB18
 4160 0070 00000000 		.4byte	.LFB19
 4161 0074 5E000000 		.4byte	.LFE19-.LFB19
 4162 0078 00000000 		.4byte	.LFB20
 4163 007c 5A000000 		.4byte	.LFE20-.LFB20
 4164 0080 00000000 		.4byte	.LFB21
 4165 0084 6A000000 		.4byte	.LFE21-.LFB21
 4166 0088 00000000 		.4byte	0
 4167 008c 00000000 		.4byte	0
 4168              		.section	.debug_ranges,"",%progbits
 4169              	.Ldebug_ranges0:
 4170 0000 36000000 		.4byte	.LBB5
 4171 0004 3C000000 		.4byte	.LBE5
 4172 0008 46000000 		.4byte	.LBB6
 4173 000c 4C000000 		.4byte	.LBE6
 4174 0010 00000000 		.4byte	0
 4175 0014 00000000 		.4byte	0
ARM GAS  C:\Users\z80\AppData\Local\Temp\ccRXtn4t.s 			page 75


 4176 0018 02000000 		.4byte	.LBB7
 4177 001c 04000000 		.4byte	.LBE7
 4178 0020 06000000 		.4byte	.LBB8
 4179 0024 0A000000 		.4byte	.LBE8
 4180 0028 00000000 		.4byte	0
 4181 002c 00000000 		.4byte	0
 4182 0030 02000000 		.4byte	.LBB10
 4183 0034 04000000 		.4byte	.LBE10
 4184 0038 06000000 		.4byte	.LBB11
 4185 003c 0A000000 		.4byte	.LBE11
 4186 0040 00000000 		.4byte	0
 4187 0044 00000000 		.4byte	0
 4188 0048 00000000 		.4byte	.LFB7
 4189 004c 50000000 		.4byte	.LFE7
 4190 0050 00000000 		.4byte	.LFB8
 4191 0054 5C000000 		.4byte	.LFE8
 4192 0058 00000000 		.4byte	.LFB9
 4193 005c 30000000 		.4byte	.LFE9
 4194 0060 00000000 		.4byte	.LFB10
 4195 0064 2C000000 		.4byte	.LFE10
 4196 0068 00000000 		.4byte	.LFB12
 4197 006c 4A000000 		.4byte	.LFE12
 4198 0070 00000000 		.4byte	.LFB11
 4199 0074 38000000 		.4byte	.LFE11
 4200 0078 00000000 		.4byte	.LFB14
 4201 007c 32000000 		.4byte	.LFE14
 4202 0080 00000000 		.4byte	.LFB13
 4203 0084 28000000 		.4byte	.LFE13
 4204 0088 00000000 		.4byte	.LFB15
 4205 008c 52000000 		.4byte	.LFE15
 4206 0090 00000000 		.4byte	.LFB16
 4207 0094 46000000 		.4byte	.LFE16
 4208 0098 00000000 		.4byte	.LFB17
 4209 009c 42000000 		.4byte	.LFE17
 4210 00a0 00000000 		.4byte	.LFB18
 4211 00a4 40000000 		.4byte	.LFE18
 4212 00a8 00000000 		.4byte	.LFB19
 4213 00ac 5E000000 		.4byte	.LFE19
 4214 00b0 00000000 		.4byte	.LFB20
 4215 00b4 5A000000 		.4byte	.LFE20
 4216 00b8 00000000 		.4byte	.LFB21
 4217 00bc 6A000000 		.4byte	.LFE21
 4218 00c0 00000000 		.4byte	0
 4219 00c4 00000000 		.4byte	0
 4220              		.section	.debug_line,"",%progbits
 4221              	.Ldebug_line0:
 4222 0000 44030000 		.section	.debug_str,"MS",%progbits,1
 4222      02005B01 
 4222      00000201 
 4222      FB0E0D00 
 4222      01010101 
 4223              	.LASF35:
 4224 0000 705F6D73 		.ascii	"p_msg\000"
 4224      6700
 4225              	.LASF64:
 4226 0006 7264796D 		.ascii	"rdymsg\000"
 4226      736700
ARM GAS  C:\Users\z80\AppData\Local\Temp\ccRXtn4t.s 			page 76


 4227              	.LASF11:
 4228 000d 75696E74 		.ascii	"uint64_t\000"
 4228      36345F74 
 4228      00
 4229              	.LASF12:
 4230 0016 6C6F6E67 		.ascii	"long long unsigned int\000"
 4230      206C6F6E 
 4230      6720756E 
 4230      7369676E 
 4230      65642069 
 4231              	.LASF65:
 4232 002d 65786974 		.ascii	"exitcode\000"
 4232      636F6465 
 4232      00
 4233              	.LASF89:
 4234 0036 63684576 		.ascii	"chEvtSignalFlagsI\000"
 4234      74536967 
 4234      6E616C46 
 4234      6C616773 
 4234      4900
 4235              	.LASF84:
 4236 0048 63684576 		.ascii	"chEvtWaitAnyTimeout\000"
 4236      74576169 
 4236      74416E79 
 4236      54696D65 
 4236      6F757400 
 4237              	.LASF24:
 4238 005c 705F7072 		.ascii	"p_prio\000"
 4238      696F00
 4239              	.LASF10:
 4240 0063 6C6F6E67 		.ascii	"long long int\000"
 4240      206C6F6E 
 4240      6720696E 
 4240      7400
 4241              	.LASF1:
 4242 0071 7369676E 		.ascii	"signed char\000"
 4242      65642063 
 4242      68617200 
 4243              	.LASF85:
 4244 007d 63684576 		.ascii	"chEvtWaitAllTimeout\000"
 4244      74576169 
 4244      74416C6C 
 4244      54696D65 
 4244      6F757400 
 4245              	.LASF54:
 4246 0091 6D5F7175 		.ascii	"m_queue\000"
 4246      65756500 
 4247              	.LASF88:
 4248 0099 433A5C70 		.ascii	"C:\\projects\\digitizer.git\\firmware\\digitizer\000"
 4248      726F6A65 
 4248      6374735C 
 4248      64696769 
 4248      74697A65 
 4249              	.LASF73:
 4250 00c6 63684576 		.ascii	"chEvtAddFlags\000"
 4250      74416464 
 4250      466C6167 
ARM GAS  C:\Users\z80\AppData\Local\Temp\ccRXtn4t.s 			page 77


 4250      7300
 4251              	.LASF7:
 4252 00d4 6C6F6E67 		.ascii	"long int\000"
 4252      20696E74 
 4252      00
 4253              	.LASF14:
 4254 00dd 74737461 		.ascii	"tstate_t\000"
 4254      74655F74 
 4254      00
 4255              	.LASF81:
 4256 00e6 63684576 		.ascii	"chEvtWaitAll\000"
 4256      74576169 
 4256      74416C6C 
 4256      00
 4257              	.LASF80:
 4258 00f3 63684576 		.ascii	"chEvtWaitAny\000"
 4258      74576169 
 4258      74416E79 
 4258      00
 4259              	.LASF75:
 4260 0100 63684576 		.ascii	"chEvtBroadcastFlagsI\000"
 4260      7442726F 
 4260      61646361 
 4260      7374466C 
 4260      61677349 
 4261              	.LASF26:
 4262 0115 705F6E65 		.ascii	"p_newer\000"
 4262      77657200 
 4263              	.LASF48:
 4264 011d 725F6E65 		.ascii	"r_newer\000"
 4264      77657200 
 4265              	.LASF69:
 4266 0125 6D61736B 		.ascii	"mask\000"
 4266      00
 4267              	.LASF41:
 4268 012a 72656761 		.ascii	"regarm_t\000"
 4268      726D5F74 
 4268      00
 4269              	.LASF76:
 4270 0133 63684576 		.ascii	"chEvtBroadcastFlags\000"
 4270      7442726F 
 4270      61646361 
 4270      7374466C 
 4270      61677300 
 4271              	.LASF17:
 4272 0147 6576656E 		.ascii	"eventid_t\000"
 4272      7469645F 
 4272      7400
 4273              	.LASF61:
 4274 0151 4576656E 		.ascii	"EventSource\000"
 4274      74536F75 
 4274      72636500 
 4275              	.LASF63:
 4276 015d 65766861 		.ascii	"evhandler_t\000"
 4276      6E646C65 
 4276      725F7400 
 4277              	.LASF20:
ARM GAS  C:\Users\z80\AppData\Local\Temp\ccRXtn4t.s 			page 78


 4278 0169 636E745F 		.ascii	"cnt_t\000"
 4278      7400
 4279              	.LASF29:
 4280 016f 705F7374 		.ascii	"p_stklimit\000"
 4280      6B6C696D 
 4280      697400
 4281              	.LASF0:
 4282 017a 756E7369 		.ascii	"unsigned int\000"
 4282      676E6564 
 4282      20696E74 
 4282      00
 4283              	.LASF9:
 4284 0187 6C6F6E67 		.ascii	"long unsigned int\000"
 4284      20756E73 
 4284      69676E65 
 4284      6420696E 
 4284      7400
 4285              	.LASF44:
 4286 0199 636F6E74 		.ascii	"context\000"
 4286      65787400 
 4287              	.LASF4:
 4288 01a1 73686F72 		.ascii	"short unsigned int\000"
 4288      7420756E 
 4288      7369676E 
 4288      65642069 
 4288      6E7400
 4289              	.LASF70:
 4290 01b4 63684576 		.ascii	"chEvtRegisterMask\000"
 4290      74526567 
 4290      69737465 
 4290      724D6173 
 4290      6B00
 4291              	.LASF16:
 4292 01c6 6D73675F 		.ascii	"msg_t\000"
 4292      7400
 4293              	.LASF58:
 4294 01cc 656C5F6E 		.ascii	"el_next\000"
 4294      65787400 
 4295              	.LASF71:
 4296 01d4 63684576 		.ascii	"chEvtUnregister\000"
 4296      74556E72 
 4296      65676973 
 4296      74657200 
 4297              	.LASF13:
 4298 01e4 746D6F64 		.ascii	"tmode_t\000"
 4298      655F7400 
 4299              	.LASF40:
 4300 01ec 54687265 		.ascii	"ThreadsList\000"
 4300      6164734C 
 4300      69737400 
 4301              	.LASF18:
 4302 01f8 6576656E 		.ascii	"eventmask_t\000"
 4302      746D6173 
 4302      6B5F7400 
 4303              	.LASF53:
 4304 0204 4D757465 		.ascii	"Mutex\000"
 4304      7800
ARM GAS  C:\Users\z80\AppData\Local\Temp\ccRXtn4t.s 			page 79


 4305              	.LASF42:
 4306 020a 73746B61 		.ascii	"stkalign_t\000"
 4306      6C69676E 
 4306      5F7400
 4307              	.LASF87:
 4308 0215 2E2E2F63 		.ascii	"../chibios_2.4.x/os/kernel/src/chevents.c\000"
 4308      68696269 
 4308      6F735F32 
 4308      2E342E78 
 4308      2F6F732F 
 4309              	.LASF77:
 4310 023f 63684576 		.ascii	"chEvtDispatch\000"
 4310      74446973 
 4310      70617463 
 4310      6800
 4311              	.LASF27:
 4312 024d 705F6F6C 		.ascii	"p_older\000"
 4312      64657200 
 4313              	.LASF47:
 4314 0255 725F6374 		.ascii	"r_ctx\000"
 4314      7800
 4315              	.LASF39:
 4316 025b 54687265 		.ascii	"ThreadsQueue\000"
 4316      61647351 
 4316      75657565 
 4316      00
 4317              	.LASF83:
 4318 0268 74696D65 		.ascii	"time\000"
 4318      00
 4319              	.LASF74:
 4320 026d 63684576 		.ascii	"chEvtSignalFlags\000"
 4320      74536967 
 4320      6E616C46 
 4320      6C616773 
 4320      00
 4321              	.LASF51:
 4322 027e 725F6375 		.ascii	"r_current\000"
 4322      7272656E 
 4322      7400
 4323              	.LASF49:
 4324 0288 725F6F6C 		.ascii	"r_older\000"
 4324      64657200 
 4325              	.LASF60:
 4326 0290 656C5F6D 		.ascii	"el_mask\000"
 4326      61736B00 
 4327              	.LASF78:
 4328 0298 68616E64 		.ascii	"handlers\000"
 4328      6C657273 
 4328      00
 4329              	.LASF23:
 4330 02a1 705F7072 		.ascii	"p_prev\000"
 4330      657600
 4331              	.LASF15:
 4332 02a8 74707269 		.ascii	"tprio_t\000"
 4332      6F5F7400 
 4333              	.LASF72:
 4334 02b0 63684576 		.ascii	"chEvtClearFlags\000"
ARM GAS  C:\Users\z80\AppData\Local\Temp\ccRXtn4t.s 			page 80


 4334      74436C65 
 4334      6172466C 
 4334      61677300 
 4335              	.LASF6:
 4336 02c0 696E7433 		.ascii	"int32_t\000"
 4336      325F7400 
 4337              	.LASF2:
 4338 02c8 756E7369 		.ascii	"unsigned char\000"
 4338      676E6564 
 4338      20636861 
 4338      7200
 4339              	.LASF79:
 4340 02d6 63684576 		.ascii	"chEvtWaitOne\000"
 4340      74576169 
 4340      744F6E65 
 4340      00
 4341              	.LASF59:
 4342 02e3 656C5F6C 		.ascii	"el_listener\000"
 4342      69737465 
 4342      6E657200 
 4343              	.LASF37:
 4344 02ef 705F6D74 		.ascii	"p_mtxlist\000"
 4344      786C6973 
 4344      7400
 4345              	.LASF3:
 4346 02f9 73686F72 		.ascii	"short int\000"
 4346      7420696E 
 4346      7400
 4347              	.LASF30:
 4348 0303 705F7374 		.ascii	"p_state\000"
 4348      61746500 
 4349              	.LASF46:
 4350 030b 725F7072 		.ascii	"r_prio\000"
 4350      696F00
 4351              	.LASF67:
 4352 0312 65776D61 		.ascii	"ewmask\000"
 4352      736B00
 4353              	.LASF22:
 4354 0319 705F6E65 		.ascii	"p_next\000"
 4354      787400
 4355              	.LASF31:
 4356 0320 705F666C 		.ascii	"p_flags\000"
 4356      61677300 
 4357              	.LASF21:
 4358 0328 54687265 		.ascii	"Thread\000"
 4358      616400
 4359              	.LASF36:
 4360 032f 705F6570 		.ascii	"p_epending\000"
 4360      656E6469 
 4360      6E6700
 4361              	.LASF8:
 4362 033a 75696E74 		.ascii	"uint32_t\000"
 4362      33325F74 
 4362      00
 4363              	.LASF45:
 4364 0343 725F7175 		.ascii	"r_queue\000"
 4364      65756500 
ARM GAS  C:\Users\z80\AppData\Local\Temp\ccRXtn4t.s 			page 81


 4365              	.LASF86:
 4366 034b 474E5520 		.ascii	"GNU C 4.6.3\000"
 4366      4320342E 
 4366      362E3300 
 4367              	.LASF68:
 4368 0357 63686172 		.ascii	"char\000"
 4368      00
 4369              	.LASF56:
 4370 035c 6D5F6E65 		.ascii	"m_next\000"
 4370      787400
 4371              	.LASF19:
 4372 0363 73797374 		.ascii	"systime_t\000"
 4372      696D655F 
 4372      7400
 4373              	.LASF38:
 4374 036d 705F7265 		.ascii	"p_realprio\000"
 4374      616C7072 
 4374      696F00
 4375              	.LASF32:
 4376 0378 705F7469 		.ascii	"p_time\000"
 4376      6D6500
 4377              	.LASF43:
 4378 037f 696E7463 		.ascii	"intctx\000"
 4378      747800
 4379              	.LASF34:
 4380 0386 705F6D73 		.ascii	"p_msgqueue\000"
 4380      67717565 
 4380      756500
 4381              	.LASF62:
 4382 0391 65735F6E 		.ascii	"es_next\000"
 4382      65787400 
 4383              	.LASF52:
 4384 0399 52656164 		.ascii	"ReadyList\000"
 4384      794C6973 
 4384      7400
 4385              	.LASF90:
 4386 03a3 726C6973 		.ascii	"rlist\000"
 4386      7400
 4387              	.LASF5:
 4388 03a9 75696E74 		.ascii	"uint8_t\000"
 4388      385F7400 
 4389              	.LASF57:
 4390 03b1 4576656E 		.ascii	"EventListener\000"
 4390      744C6973 
 4390      74656E65 
 4390      7200
 4391              	.LASF82:
 4392 03bf 63684576 		.ascii	"chEvtWaitOneTimeout\000"
 4392      74576169 
 4392      744F6E65 
 4392      54696D65 
 4392      6F757400 
 4393              	.LASF66:
 4394 03d3 77746F62 		.ascii	"wtobjp\000"
 4394      6A7000
 4395              	.LASF28:
 4396 03da 705F6E61 		.ascii	"p_name\000"
ARM GAS  C:\Users\z80\AppData\Local\Temp\ccRXtn4t.s 			page 82


 4396      6D6500
 4397              	.LASF50:
 4398 03e1 725F7072 		.ascii	"r_preempt\000"
 4398      65656D70 
 4398      7400
 4399              	.LASF55:
 4400 03eb 6D5F6F77 		.ascii	"m_owner\000"
 4400      6E657200 
 4401              	.LASF25:
 4402 03f3 705F6374 		.ascii	"p_ctx\000"
 4402      7800
 4403              	.LASF33:
 4404 03f9 705F7761 		.ascii	"p_waiting\000"
 4404      6974696E 
 4404      6700
 4405              		.ident	"GCC: (Sourcery CodeBench Lite 2012.03-56) 4.6.3"
ARM GAS  C:\Users\z80\AppData\Local\Temp\ccRXtn4t.s 			page 83


DEFINED SYMBOLS
                            *ABS*:00000000 chevents.c
C:\Users\z80\AppData\Local\Temp\ccRXtn4t.s:19     .text.chEvtRegisterMask:00000000 $t
C:\Users\z80\AppData\Local\Temp\ccRXtn4t.s:25     .text.chEvtRegisterMask:00000000 chEvtRegisterMask
C:\Users\z80\AppData\Local\Temp\ccRXtn4t.s:1248   .rodata.str1.4:00000000 .LC0
C:\Users\z80\AppData\Local\Temp\ccRXtn4t.s:106    .text.chEvtUnregister:00000000 $t
C:\Users\z80\AppData\Local\Temp\ccRXtn4t.s:112    .text.chEvtUnregister:00000000 chEvtUnregister
C:\Users\z80\AppData\Local\Temp\ccRXtn4t.s:1251   .rodata.str1.4:00000018 .LC1
C:\Users\z80\AppData\Local\Temp\ccRXtn4t.s:208    .text.chEvtClearFlags:00000000 $t
C:\Users\z80\AppData\Local\Temp\ccRXtn4t.s:214    .text.chEvtClearFlags:00000000 chEvtClearFlags
C:\Users\z80\AppData\Local\Temp\ccRXtn4t.s:272    .text.chEvtAddFlags:00000000 $t
C:\Users\z80\AppData\Local\Temp\ccRXtn4t.s:278    .text.chEvtAddFlags:00000000 chEvtAddFlags
C:\Users\z80\AppData\Local\Temp\ccRXtn4t.s:334    .text.chEvtSignalFlagsI:00000000 $t
C:\Users\z80\AppData\Local\Temp\ccRXtn4t.s:340    .text.chEvtSignalFlagsI:00000000 chEvtSignalFlagsI
C:\Users\z80\AppData\Local\Temp\ccRXtn4t.s:1253   .rodata.str1.4:0000002c .LC2
C:\Users\z80\AppData\Local\Temp\ccRXtn4t.s:419    .text.chEvtSignalFlags:00000000 $t
C:\Users\z80\AppData\Local\Temp\ccRXtn4t.s:425    .text.chEvtSignalFlags:00000000 chEvtSignalFlags
C:\Users\z80\AppData\Local\Temp\ccRXtn4t.s:1256   .rodata.str1.4:00000040 .LC3
C:\Users\z80\AppData\Local\Temp\ccRXtn4t.s:489    .text.chEvtBroadcastFlagsI:00000000 $t
C:\Users\z80\AppData\Local\Temp\ccRXtn4t.s:495    .text.chEvtBroadcastFlagsI:00000000 chEvtBroadcastFlagsI
C:\Users\z80\AppData\Local\Temp\ccRXtn4t.s:1258   .rodata.str1.4:00000050 .LC4
C:\Users\z80\AppData\Local\Temp\ccRXtn4t.s:550    .text.chEvtBroadcastFlags:00000000 $t
C:\Users\z80\AppData\Local\Temp\ccRXtn4t.s:556    .text.chEvtBroadcastFlags:00000000 chEvtBroadcastFlags
C:\Users\z80\AppData\Local\Temp\ccRXtn4t.s:608    .text.chEvtDispatch:00000000 $t
C:\Users\z80\AppData\Local\Temp\ccRXtn4t.s:614    .text.chEvtDispatch:00000000 chEvtDispatch
C:\Users\z80\AppData\Local\Temp\ccRXtn4t.s:1263   .rodata.str1.4:0000007c .LC6
C:\Users\z80\AppData\Local\Temp\ccRXtn4t.s:1260   .rodata.str1.4:00000068 .LC5
C:\Users\z80\AppData\Local\Temp\ccRXtn4t.s:692    .text.chEvtWaitOne:00000000 $t
C:\Users\z80\AppData\Local\Temp\ccRXtn4t.s:698    .text.chEvtWaitOne:00000000 chEvtWaitOne
C:\Users\z80\AppData\Local\Temp\ccRXtn4t.s:773    .text.chEvtWaitAny:00000000 $t
C:\Users\z80\AppData\Local\Temp\ccRXtn4t.s:779    .text.chEvtWaitAny:00000000 chEvtWaitAny
C:\Users\z80\AppData\Local\Temp\ccRXtn4t.s:851    .text.chEvtWaitAll:00000000 $t
C:\Users\z80\AppData\Local\Temp\ccRXtn4t.s:857    .text.chEvtWaitAll:00000000 chEvtWaitAll
C:\Users\z80\AppData\Local\Temp\ccRXtn4t.s:923    .text.chEvtWaitOneTimeout:00000000 $t
C:\Users\z80\AppData\Local\Temp\ccRXtn4t.s:929    .text.chEvtWaitOneTimeout:00000000 chEvtWaitOneTimeout
C:\Users\z80\AppData\Local\Temp\ccRXtn4t.s:1028   .text.chEvtWaitAnyTimeout:00000000 $t
C:\Users\z80\AppData\Local\Temp\ccRXtn4t.s:1034   .text.chEvtWaitAnyTimeout:00000000 chEvtWaitAnyTimeout
C:\Users\z80\AppData\Local\Temp\ccRXtn4t.s:1129   .text.chEvtWaitAllTimeout:00000000 $t
C:\Users\z80\AppData\Local\Temp\ccRXtn4t.s:1135   .text.chEvtWaitAllTimeout:00000000 chEvtWaitAllTimeout
C:\Users\z80\AppData\Local\Temp\ccRXtn4t.s:1247   .rodata.str1.4:00000000 $d
                     .debug_frame:00000010 $d

UNDEFINED SYMBOLS
chDbgPanic
dbg_check_lock
rlist
dbg_check_unlock
chDbgCheckClassI
chSchReadyI
chSchRescheduleS
chSchGoSleepS
chSchGoSleepTimeoutS
