ARM GAS  C:\Users\z80\AppData\Local\Temp\ccRXtn4t.s 			page 1


   1              		.syntax unified
   2              		.cpu cortex-m3
   3              		.fpu softvfp
   4              		.eabi_attribute 20, 1
   5              		.eabi_attribute 21, 1
   6              		.eabi_attribute 23, 3
   7              		.eabi_attribute 24, 1
   8              		.eabi_attribute 25, 1
   9              		.eabi_attribute 26, 1
  10              		.eabi_attribute 30, 2
  11              		.eabi_attribute 34, 1
  12              		.eabi_attribute 18, 4
  13              		.thumb
  14              		.file	"chevents.c"
  15              		.text
  16              	.Ltext0:
  17              		.cfi_sections	.debug_frame
  18              		.section	.text.chEvtRegisterMask,"ax",%progbits
  19              		.align	2
  20              		.p2align 4,,15
  21              		.global	chEvtRegisterMask
  22              		.thumb
  23              		.thumb_func
  24              		.type	chEvtRegisterMask, %function
  25              	chEvtRegisterMask:
  26              	.LFB7:
  27              		.file 1 "../chibios_2.4.x/os/kernel/src/chevents.c"
  28              		.loc 1 82 0
  29              		.cfi_startproc
  30              		@ args = 0, pretend = 0, frame = 0
  31              		@ frame_needed = 0, uses_anonymous_args = 0
  32              	.LVL0:
  33              		.loc 1 84 0
  34 0000 D0F10103 		rsbs	r3, r0, #1
  35 0004 38BF     		it	cc
  36 0006 0023     		movcc	r3, #0
  37 0008 0029     		cmp	r1, #0
  38 000a 08BF     		it	eq
  39 000c 43F00103 		orreq	r3, r3, #1
  40              		.loc 1 82 0
  41 0010 70B5     		push	{r4, r5, r6, lr}
  42              	.LCFI0:
  43              		.cfi_def_cfa_offset 16
  44              		.cfi_offset 14, -4
  45              		.cfi_offset 6, -8
  46              		.cfi_offset 5, -12
  47              		.cfi_offset 4, -16
  48              		.loc 1 84 0
  49 0012 0446     		mov	r4, r0
  50 0014 0D46     		mov	r5, r1
  51              		.loc 1 82 0
  52 0016 1646     		mov	r6, r2
  53              		.loc 1 84 0
  54 0018 2BB1     		cbz	r3, .L2
  55              		.loc 1 84 0 is_stmt 0 discriminator 1
  56 001a 40F20000 		movw	r0, #:lower16:.LC0
  57              	.LVL1:
ARM GAS  C:\Users\z80\AppData\Local\Temp\ccRXtn4t.s 			page 2


  58 001e C0F20000 		movt	r0, #:upper16:.LC0
  59 0022 FFF7FEFF 		bl	chDbgPanic
  60              	.LVL2:
  61              	.L2:
  62              	.LBB2:
  63              		.loc 1 86 0 is_stmt 1
  64 0026 2023     		movs	r3, #32
  65              	.LVL3:
  66              	@ 86 "../chibios_2.4.x/os/kernel/src/chevents.c" 1
  67 0028 83F31188 		msr     BASEPRI, r3
  68              	@ 0 "" 2
  69              	.LVL4:
  70              		.thumb
  71              	.LBE2:
  72 002c FFF7FEFF 		bl	dbg_check_lock
  73              	.LVL5:
  74              		.loc 1 89 0
  75 0030 40F20001 		movw	r1, #:lower16:rlist
  76 0034 C0F20001 		movt	r1, #:upper16:rlist
  77              		.loc 1 87 0
  78 0038 2268     		ldr	r2, [r4, #0]
  79              		.loc 1 89 0
  80 003a C869     		ldr	r0, [r1, #28]
  81              		.loc 1 87 0
  82 003c 2A60     		str	r2, [r5, #0]
  83              		.loc 1 88 0
  84 003e 2560     		str	r5, [r4, #0]
  85              		.loc 1 89 0
  86 0040 6860     		str	r0, [r5, #4]
  87              		.loc 1 90 0
  88 0042 AE60     		str	r6, [r5, #8]
  89              		.loc 1 91 0
  90 0044 FFF7FEFF 		bl	dbg_check_unlock
  91              	.LBB3:
  92 0048 0023     		movs	r3, #0
  93              	.LVL6:
  94              	@ 91 "../chibios_2.4.x/os/kernel/src/chevents.c" 1
  95 004a 83F31188 		msr     BASEPRI, r3
  96              	@ 0 "" 2
  97              	.LVL7:
  98              		.thumb
  99              	.LBE3:
 100              		.loc 1 92 0
 101 004e 70BD     		pop	{r4, r5, r6, pc}
 102              		.cfi_endproc
 103              	.LFE7:
 104              		.size	chEvtRegisterMask, .-chEvtRegisterMask
 105              		.section	.text.chEvtUnregister,"ax",%progbits
 106              		.align	2
 107              		.p2align 4,,15
 108              		.global	chEvtUnregister
 109              		.thumb
 110              		.thumb_func
 111              		.type	chEvtUnregister, %function
 112              	chEvtUnregister:
 113              	.LFB8:
 114              		.loc 1 107 0
ARM GAS  C:\Users\z80\AppData\Local\Temp\ccRXtn4t.s 			page 3


 115              		.cfi_startproc
 116              		@ args = 0, pretend = 0, frame = 0
 117              		@ frame_needed = 0, uses_anonymous_args = 0
 118              	.LVL8:
 119 0000 38B5     		push	{r3, r4, r5, lr}
 120              	.LCFI1:
 121              		.cfi_def_cfa_offset 16
 122              		.cfi_offset 14, -4
 123              		.cfi_offset 5, -8
 124              		.cfi_offset 4, -12
 125              		.cfi_offset 3, -16
 126              		.loc 1 110 0
 127 0002 D0F10103 		rsbs	r3, r0, #1
 128 0006 38BF     		it	cc
 129 0008 0023     		movcc	r3, #0
 130 000a 0029     		cmp	r1, #0
 131 000c 08BF     		it	eq
 132 000e 43F00103 		orreq	r3, r3, #1
 133 0012 0446     		mov	r4, r0
 134 0014 0D46     		mov	r5, r1
 135 0016 D3B9     		cbnz	r3, .L10
 136              	.LVL9:
 137              	.L5:
 138              	.LBB4:
 139              		.loc 1 113 0
 140 0018 2023     		movs	r3, #32
 141              	.LVL10:
 142              	@ 113 "../chibios_2.4.x/os/kernel/src/chevents.c" 1
 143 001a 83F31188 		msr     BASEPRI, r3
 144              	@ 0 "" 2
 145              	.LVL11:
 146              		.thumb
 147              	.LBE4:
 148 001e FFF7FEFF 		bl	dbg_check_lock
 149              	.LVL12:
 150              		.loc 1 114 0
 151 0022 2246     		mov	r2, r4
 152 0024 02E0     		b	.L6
 153              	.LVL13:
 154              	.L8:
 155              		.loc 1 115 0
 156 0026 9D42     		cmp	r5, r3
 157 0028 09D0     		beq	.L11
 158 002a 1A46     		mov	r2, r3
 159              	.LVL14:
 160              	.L6:
 161              		.loc 1 114 0 discriminator 1
 162 002c 1368     		ldr	r3, [r2, #0]
 163 002e A342     		cmp	r3, r4
 164 0030 F9D1     		bne	.L8
 165              		.loc 1 121 0
 166 0032 FFF7FEFF 		bl	dbg_check_unlock
 167              	.LVL15:
 168              	.LBB5:
 169 0036 0023     		movs	r3, #0
 170              	.LVL16:
 171              	@ 121 "../chibios_2.4.x/os/kernel/src/chevents.c" 1
ARM GAS  C:\Users\z80\AppData\Local\Temp\ccRXtn4t.s 			page 4


 172 0038 83F31188 		msr     BASEPRI, r3
 173              	@ 0 "" 2
 174              	.LVL17:
 175              		.thumb
 176              	.LBE5:
 177              		.loc 1 122 0
 178 003c 38BD     		pop	{r3, r4, r5, pc}
 179              	.LVL18:
 180              	.L11:
 181              		.loc 1 116 0
 182 003e 2868     		ldr	r0, [r5, #0]
 183 0040 1060     		str	r0, [r2, #0]
 184              		.loc 1 121 0
 185 0042 FFF7FEFF 		bl	dbg_check_unlock
 186              	.LVL19:
 187              	.LBB6:
 188 0046 0023     		movs	r3, #0
 189              	@ 121 "../chibios_2.4.x/os/kernel/src/chevents.c" 1
 190 0048 83F31188 		msr     BASEPRI, r3
 191              	@ 0 "" 2
 192              	.LVL20:
 193              		.thumb
 194              	.LBE6:
 195              		.loc 1 122 0
 196 004c 38BD     		pop	{r3, r4, r5, pc}
 197              	.LVL21:
 198              	.L10:
 199              		.loc 1 110 0 discriminator 1
 200 004e 40F20000 		movw	r0, #:lower16:.LC1
 201 0052 C0F20000 		movt	r0, #:upper16:.LC1
 202 0056 FFF7FEFF 		bl	chDbgPanic
 203 005a DDE7     		b	.L5
 204              		.cfi_endproc
 205              	.LFE8:
 206              		.size	chEvtUnregister, .-chEvtUnregister
 207 005c AFF30080 		.section	.text.chEvtClearFlags,"ax",%progbits
 208              		.align	2
 209              		.p2align 4,,15
 210              		.global	chEvtClearFlags
 211              		.thumb
 212              		.thumb_func
 213              		.type	chEvtClearFlags, %function
 214              	chEvtClearFlags:
 215              	.LFB9:
 216              		.loc 1 132 0
 217              		.cfi_startproc
 218              		@ args = 0, pretend = 0, frame = 0
 219              		@ frame_needed = 0, uses_anonymous_args = 0
 220              	.LVL22:
 221 0000 10B5     		push	{r4, lr}
 222              	.LCFI2:
 223              		.cfi_def_cfa_offset 8
 224              		.cfi_offset 14, -4
 225              		.cfi_offset 4, -8
 226              	.LBB7:
 227              		.loc 1 135 0
 228 0002 2023     		movs	r3, #32
ARM GAS  C:\Users\z80\AppData\Local\Temp\ccRXtn4t.s 			page 5


 229              	.LVL23:
 230              	.LBE7:
 231              		.loc 1 132 0
 232 0004 0446     		mov	r4, r0
 233              	.LBB8:
 234              		.loc 1 135 0
 235              	@ 135 "../chibios_2.4.x/os/kernel/src/chevents.c" 1
 236 0006 83F31188 		msr     BASEPRI, r3
 237              	@ 0 "" 2
 238              	.LVL24:
 239              		.thumb
 240              	.LBE8:
 241 000a FFF7FEFF 		bl	dbg_check_lock
 242              	.LVL25:
 243              		.loc 1 137 0
 244 000e 40F20000 		movw	r0, #:lower16:rlist
 245 0012 C0F20000 		movt	r0, #:upper16:rlist
 246 0016 C269     		ldr	r2, [r0, #28]
 247 0018 D36B     		ldr	r3, [r2, #60]
 248              		.loc 1 138 0
 249 001a 23EA0401 		bic	r1, r3, r4
 250 001e D163     		str	r1, [r2, #60]
 251              		.loc 1 137 0
 252 0020 1C40     		ands	r4, r4, r3
 253              	.LVL26:
 254              		.loc 1 140 0
 255 0022 FFF7FEFF 		bl	dbg_check_unlock
 256              	.LBB9:
 257 0026 0023     		movs	r3, #0
 258              	.LVL27:
 259              	@ 140 "../chibios_2.4.x/os/kernel/src/chevents.c" 1
 260 0028 83F31188 		msr     BASEPRI, r3
 261              	@ 0 "" 2
 262              	.LVL28:
 263              		.thumb
 264              	.LBE9:
 265              		.loc 1 142 0
 266 002c 2046     		mov	r0, r4
 267 002e 10BD     		pop	{r4, pc}
 268              		.cfi_endproc
 269              	.LFE9:
 270              		.size	chEvtClearFlags, .-chEvtClearFlags
 271              		.section	.text.chEvtAddFlags,"ax",%progbits
 272              		.align	2
 273              		.p2align 4,,15
 274              		.global	chEvtAddFlags
 275              		.thumb
 276              		.thumb_func
 277              		.type	chEvtAddFlags, %function
 278              	chEvtAddFlags:
 279              	.LFB10:
 280              		.loc 1 153 0
 281              		.cfi_startproc
 282              		@ args = 0, pretend = 0, frame = 0
 283              		@ frame_needed = 0, uses_anonymous_args = 0
 284              	.LVL29:
 285 0000 10B5     		push	{r4, lr}
ARM GAS  C:\Users\z80\AppData\Local\Temp\ccRXtn4t.s 			page 6


 286              	.LCFI3:
 287              		.cfi_def_cfa_offset 8
 288              		.cfi_offset 14, -4
 289              		.cfi_offset 4, -8
 290              	.LBB10:
 291              		.loc 1 155 0
 292 0002 2023     		movs	r3, #32
 293              	.LVL30:
 294              	.LBE10:
 295              		.loc 1 153 0
 296 0004 0446     		mov	r4, r0
 297              	.LBB11:
 298              		.loc 1 155 0
 299              	@ 155 "../chibios_2.4.x/os/kernel/src/chevents.c" 1
 300 0006 83F31188 		msr     BASEPRI, r3
 301              	@ 0 "" 2
 302              	.LVL31:
 303              		.thumb
 304              	.LBE11:
 305 000a FFF7FEFF 		bl	dbg_check_lock
 306              	.LVL32:
 307              		.loc 1 157 0
 308 000e 40F20000 		movw	r0, #:lower16:rlist
 309 0012 C0F20000 		movt	r0, #:upper16:rlist
 310 0016 C369     		ldr	r3, [r0, #28]
 311 0018 DA6B     		ldr	r2, [r3, #60]
 312 001a 1443     		orrs	r4, r4, r2
 313              	.LVL33:
 314 001c DC63     		str	r4, [r3, #60]
 315              	.LVL34:
 316              		.loc 1 159 0
 317 001e FFF7FEFF 		bl	dbg_check_unlock
 318              	.LBB12:
 319 0022 0023     		movs	r3, #0
 320              	.LVL35:
 321              	@ 159 "../chibios_2.4.x/os/kernel/src/chevents.c" 1
 322 0024 83F31188 		msr     BASEPRI, r3
 323              	@ 0 "" 2
 324              	.LVL36:
 325              		.thumb
 326              	.LBE12:
 327              		.loc 1 161 0
 328 0028 2046     		mov	r0, r4
 329 002a 10BD     		pop	{r4, pc}
 330              		.cfi_endproc
 331              	.LFE10:
 332              		.size	chEvtAddFlags, .-chEvtAddFlags
 333 002c AFF30080 		.section	.text.chEvtSignalFlagsI,"ax",%progbits
 334              		.align	2
 335              		.p2align 4,,15
 336              		.global	chEvtSignalFlagsI
 337              		.thumb
 338              		.thumb_func
 339              		.type	chEvtSignalFlagsI, %function
 340              	chEvtSignalFlagsI:
 341              	.LFB12:
 342              		.loc 1 193 0
ARM GAS  C:\Users\z80\AppData\Local\Temp\ccRXtn4t.s 			page 7


 343              		.cfi_startproc
 344              		@ args = 0, pretend = 0, frame = 0
 345              		@ frame_needed = 0, uses_anonymous_args = 0
 346              	.LVL37:
 347 0000 38B5     		push	{r3, r4, r5, lr}
 348              	.LCFI4:
 349              		.cfi_def_cfa_offset 16
 350              		.cfi_offset 14, -4
 351              		.cfi_offset 5, -8
 352              		.cfi_offset 4, -12
 353              		.cfi_offset 3, -16
 354              		.loc 1 193 0
 355 0002 0446     		mov	r4, r0
 356 0004 0D46     		mov	r5, r1
 357              		.loc 1 195 0
 358 0006 FFF7FEFF 		bl	chDbgCheckClassI
 359              	.LVL38:
 360              		.loc 1 196 0
 361 000a BCB1     		cbz	r4, .L19
 362              	.L15:
 363              		.loc 1 198 0
 364 000c E26B     		ldr	r2, [r4, #60]
 365              		.loc 1 200 0
 366 000e 94F82030 		ldrb	r3, [r4, #32]	@ zero_extendqisi2
 367              		.loc 1 198 0
 368 0012 1543     		orrs	r5, r5, r2
 369              	.LVL39:
 370              		.loc 1 200 0
 371 0014 082B     		cmp	r3, #8
 372              		.loc 1 198 0
 373 0016 E563     		str	r5, [r4, #60]
 374              		.loc 1 200 0
 375 0018 0CD0     		beq	.L20
 376              		.loc 1 201 0
 377 001a 092B     		cmp	r3, #9
 378 001c 00D0     		beq	.L21
 379              	.L14:
 380 001e 38BD     		pop	{r3, r4, r5, pc}
 381              	.L21:
 382              		.loc 1 203 0
 383 0020 A06A     		ldr	r0, [r4, #40]
 384 0022 0540     		ands	r5, r5, r0
 385              		.loc 1 202 0
 386 0024 A842     		cmp	r0, r5
 387 0026 FAD1     		bne	.L14
 388              	.L17:
 389              	.LVL40:
 390              	.LBB15:
 391              	.LBB16:
 392              		.loc 1 204 0
 393 0028 2046     		mov	r0, r4
 394 002a FFF7FEFF 		bl	chSchReadyI
 395 002e 0021     		movs	r1, #0
 396 0030 8162     		str	r1, [r0, #40]
 397 0032 38BD     		pop	{r3, r4, r5, pc}
 398              	.LVL41:
 399              	.L20:
ARM GAS  C:\Users\z80\AppData\Local\Temp\ccRXtn4t.s 			page 8


 400              	.LBE16:
 401              	.LBE15:
 402              		.loc 1 201 0 discriminator 1
 403 0034 A36A     		ldr	r3, [r4, #40]
 404              		.loc 1 200 0 discriminator 1
 405 0036 1D42     		tst	r5, r3
 406 0038 F6D1     		bne	.L17
 407 003a 38BD     		pop	{r3, r4, r5, pc}
 408              	.LVL42:
 409              	.L19:
 410              		.loc 1 196 0 discriminator 1
 411 003c 40F20000 		movw	r0, #:lower16:.LC2
 412 0040 C0F20000 		movt	r0, #:upper16:.LC2
 413 0044 FFF7FEFF 		bl	chDbgPanic
 414 0048 E0E7     		b	.L15
 415              		.cfi_endproc
 416              	.LFE12:
 417              		.size	chEvtSignalFlagsI, .-chEvtSignalFlagsI
 418 004a 00BFAFF3 		.section	.text.chEvtSignalFlags,"ax",%progbits
 418      0080
 419              		.align	2
 420              		.p2align 4,,15
 421              		.global	chEvtSignalFlags
 422              		.thumb
 423              		.thumb_func
 424              		.type	chEvtSignalFlags, %function
 425              	chEvtSignalFlags:
 426              	.LFB11:
 427              		.loc 1 171 0
 428              		.cfi_startproc
 429              		@ args = 0, pretend = 0, frame = 0
 430              		@ frame_needed = 0, uses_anonymous_args = 0
 431              	.LVL43:
 432 0000 38B5     		push	{r3, r4, r5, lr}
 433              	.LCFI5:
 434              		.cfi_def_cfa_offset 16
 435              		.cfi_offset 14, -4
 436              		.cfi_offset 5, -8
 437              		.cfi_offset 4, -12
 438              		.cfi_offset 3, -16
 439              		.loc 1 173 0
 440 0002 0446     		mov	r4, r0
 441              		.loc 1 171 0
 442 0004 0D46     		mov	r5, r1
 443              		.loc 1 173 0
 444 0006 80B1     		cbz	r0, .L24
 445              	.LVL44:
 446              	.L23:
 447              	.LBB17:
 448              		.loc 1 175 0
 449 0008 2023     		movs	r3, #32
 450              	.LVL45:
 451              	@ 175 "../chibios_2.4.x/os/kernel/src/chevents.c" 1
 452 000a 83F31188 		msr     BASEPRI, r3
 453              	@ 0 "" 2
 454              	.LVL46:
 455              		.thumb
ARM GAS  C:\Users\z80\AppData\Local\Temp\ccRXtn4t.s 			page 9


 456              	.LBE17:
 457 000e FFF7FEFF 		bl	dbg_check_lock
 458              	.LVL47:
 459              		.loc 1 176 0
 460 0012 2046     		mov	r0, r4
 461 0014 2946     		mov	r1, r5
 462 0016 FFF7FEFF 		bl	chEvtSignalFlagsI
 463              		.loc 1 177 0
 464 001a FFF7FEFF 		bl	chSchRescheduleS
 465              		.loc 1 178 0
 466 001e FFF7FEFF 		bl	dbg_check_unlock
 467              	.LBB18:
 468 0022 0023     		movs	r3, #0
 469              	.LVL48:
 470              	@ 178 "../chibios_2.4.x/os/kernel/src/chevents.c" 1
 471 0024 83F31188 		msr     BASEPRI, r3
 472              	@ 0 "" 2
 473              	.LVL49:
 474              		.thumb
 475              	.LBE18:
 476              		.loc 1 179 0
 477 0028 38BD     		pop	{r3, r4, r5, pc}
 478              	.LVL50:
 479              	.L24:
 480              		.loc 1 173 0 discriminator 1
 481 002a 40F20000 		movw	r0, #:lower16:.LC3
 482 002e C0F20000 		movt	r0, #:upper16:.LC3
 483 0032 FFF7FEFF 		bl	chDbgPanic
 484 0036 E7E7     		b	.L23
 485              		.cfi_endproc
 486              	.LFE11:
 487              		.size	chEvtSignalFlags, .-chEvtSignalFlags
 488 0038 AFF30080 		.section	.text.chEvtBroadcastFlagsI,"ax",%progbits
 488      AFF30080 
 489              		.align	2
 490              		.p2align 4,,15
 491              		.global	chEvtBroadcastFlagsI
 492              		.thumb
 493              		.thumb_func
 494              		.type	chEvtBroadcastFlagsI, %function
 495              	chEvtBroadcastFlagsI:
 496              	.LFB14:
 497              		.loc 1 245 0
 498              		.cfi_startproc
 499              		@ args = 0, pretend = 0, frame = 0
 500              		@ frame_needed = 0, uses_anonymous_args = 0
 501              	.LVL51:
 502 0000 70B5     		push	{r4, r5, r6, lr}
 503              	.LCFI6:
 504              		.cfi_def_cfa_offset 16
 505              		.cfi_offset 14, -4
 506              		.cfi_offset 6, -8
 507              		.cfi_offset 5, -12
 508              		.cfi_offset 4, -16
 509              		.loc 1 245 0
 510 0002 0546     		mov	r5, r0
 511 0004 0E46     		mov	r6, r1
ARM GAS  C:\Users\z80\AppData\Local\Temp\ccRXtn4t.s 			page 10


 512              		.loc 1 248 0
 513 0006 FFF7FEFF 		bl	chDbgCheckClassI
 514              	.LVL52:
 515              		.loc 1 249 0
 516 000a 5DB1     		cbz	r5, .L31
 517              	.L26:
 518              		.loc 1 251 0
 519 000c 2C68     		ldr	r4, [r5, #0]
 520              	.LVL53:
 521              		.loc 1 252 0
 522 000e A542     		cmp	r5, r4
 523 0010 07D0     		beq	.L25
 524              	.LVL54:
 525              	.L29:
 526              		.loc 1 253 0
 527 0012 A168     		ldr	r1, [r4, #8]
 528 0014 6068     		ldr	r0, [r4, #4]
 529 0016 3143     		orrs	r1, r1, r6
 530 0018 FFF7FEFF 		bl	chEvtSignalFlagsI
 531              		.loc 1 254 0
 532 001c 2468     		ldr	r4, [r4, #0]
 533              	.LVL55:
 534              		.loc 1 252 0
 535 001e A542     		cmp	r5, r4
 536 0020 F7D1     		bne	.L29
 537              	.L25:
 538 0022 70BD     		pop	{r4, r5, r6, pc}
 539              	.LVL56:
 540              	.L31:
 541              		.loc 1 249 0 discriminator 1
 542 0024 40F20000 		movw	r0, #:lower16:.LC4
 543 0028 C0F20000 		movt	r0, #:upper16:.LC4
 544 002c FFF7FEFF 		bl	chDbgPanic
 545 0030 ECE7     		b	.L26
 546              		.cfi_endproc
 547              	.LFE14:
 548              		.size	chEvtBroadcastFlagsI, .-chEvtBroadcastFlagsI
 549 0032 00BFAFF3 		.section	.text.chEvtBroadcastFlags,"ax",%progbits
 549      0080AFF3 
 549      0080AFF3 
 549      0080
 550              		.align	2
 551              		.p2align 4,,15
 552              		.global	chEvtBroadcastFlags
 553              		.thumb
 554              		.thumb_func
 555              		.type	chEvtBroadcastFlags, %function
 556              	chEvtBroadcastFlags:
 557              	.LFB13:
 558              		.loc 1 220 0
 559              		.cfi_startproc
 560              		@ args = 0, pretend = 0, frame = 0
 561              		@ frame_needed = 0, uses_anonymous_args = 0
 562              	.LVL57:
 563 0000 38B5     		push	{r3, r4, r5, lr}
 564              	.LCFI7:
 565              		.cfi_def_cfa_offset 16
ARM GAS  C:\Users\z80\AppData\Local\Temp\ccRXtn4t.s 			page 11


 566              		.cfi_offset 14, -4
 567              		.cfi_offset 5, -8
 568              		.cfi_offset 4, -12
 569              		.cfi_offset 3, -16
 570              		.loc 1 220 0
 571 0002 0546     		mov	r5, r0
 572 0004 0C46     		mov	r4, r1
 573              	.LBB19:
 574              		.loc 1 222 0
 575 0006 2023     		movs	r3, #32
 576              	.LVL58:
 577              	@ 222 "../chibios_2.4.x/os/kernel/src/chevents.c" 1
 578 0008 83F31188 		msr     BASEPRI, r3
 579              	@ 0 "" 2
 580              	.LVL59:
 581              		.thumb
 582              	.LBE19:
 583 000c FFF7FEFF 		bl	dbg_check_lock
 584              	.LVL60:
 585              		.loc 1 223 0
 586 0010 2846     		mov	r0, r5
 587 0012 2146     		mov	r1, r4
 588 0014 FFF7FEFF 		bl	chEvtBroadcastFlagsI
 589              		.loc 1 224 0
 590 0018 FFF7FEFF 		bl	chSchRescheduleS
 591              		.loc 1 225 0
 592 001c FFF7FEFF 		bl	dbg_check_unlock
 593              	.LBB20:
 594 0020 0023     		movs	r3, #0
 595              	.LVL61:
 596              	@ 225 "../chibios_2.4.x/os/kernel/src/chevents.c" 1
 597 0022 83F31188 		msr     BASEPRI, r3
 598              	@ 0 "" 2
 599              	.LVL62:
 600              		.thumb
 601              	.LBE20:
 602              		.loc 1 226 0
 603 0026 38BD     		pop	{r3, r4, r5, pc}
 604              		.cfi_endproc
 605              	.LFE13:
 606              		.size	chEvtBroadcastFlags, .-chEvtBroadcastFlags
 607 0028 AFF30080 		.section	.text.chEvtDispatch,"ax",%progbits
 607      AFF30080 
 608              		.align	2
 609              		.p2align 4,,15
 610              		.global	chEvtDispatch
 611              		.thumb
 612              		.thumb_func
 613              		.type	chEvtDispatch, %function
 614              	chEvtDispatch:
 615              	.LFB15:
 616              		.loc 1 267 0
 617              		.cfi_startproc
 618              		@ args = 0, pretend = 0, frame = 0
 619              		@ frame_needed = 0, uses_anonymous_args = 0
 620              	.LVL63:
 621 0000 2DE9F041 		push	{r4, r5, r6, r7, r8, lr}
ARM GAS  C:\Users\z80\AppData\Local\Temp\ccRXtn4t.s 			page 12


 622              	.LCFI8:
 623              		.cfi_def_cfa_offset 24
 624              		.cfi_offset 14, -4
 625              		.cfi_offset 8, -8
 626              		.cfi_offset 7, -12
 627              		.cfi_offset 6, -16
 628              		.cfi_offset 5, -20
 629              		.cfi_offset 4, -24
 630              		.loc 1 270 0
 631 0004 0446     		mov	r4, r0
 632              		.loc 1 267 0
 633 0006 0E46     		mov	r6, r1
 634              		.loc 1 270 0
 635 0008 E0B1     		cbz	r0, .L40
 636              	.LVL64:
 637              	.L34:
 638              		.loc 1 273 0 discriminator 1
 639 000a 8EB1     		cbz	r6, .L33
 640              		.loc 1 273 0 is_stmt 0
 641 000c 0027     		movs	r7, #0
 642 000e 3D46     		mov	r5, r7
 643              		.loc 1 274 0 is_stmt 1
 644 0010 4FF00108 		mov	r8, #1
 645              	.LVL65:
 646              	.L38:
 647 0014 08FA05F3 		lsl	r3, r8, r5
 648 0018 3342     		tst	r3, r6
 649 001a 05D0     		beq	.L36
 650              		.loc 1 278 0
 651 001c 26EA0306 		bic	r6, r6, r3
 652              	.LVL66:
 653              		.loc 1 275 0
 654 0020 E359     		ldr	r3, [r4, r7]
 655 0022 3BB1     		cbz	r3, .L41
 656              	.L37:
 657              	.LVL67:
 658              		.loc 1 279 0
 659 0024 2846     		mov	r0, r5
 660 0026 9847     		blx	r3
 661              	.L36:
 662              		.loc 1 281 0
 663 0028 0135     		adds	r5, r5, #1
 664              	.LVL68:
 665 002a 0437     		adds	r7, r7, #4
 666              		.loc 1 273 0
 667 002c 002E     		cmp	r6, #0
 668 002e F1D1     		bne	.L38
 669              	.LVL69:
 670              	.L33:
 671 0030 BDE8F081 		pop	{r4, r5, r6, r7, r8, pc}
 672              	.LVL70:
 673              	.L41:
 674              		.loc 1 275 0 discriminator 1
 675 0034 40F20000 		movw	r0, #:lower16:.LC6
 676 0038 C0F20000 		movt	r0, #:upper16:.LC6
 677 003c FFF7FEFF 		bl	chDbgPanic
 678 0040 E359     		ldr	r3, [r4, r7]
ARM GAS  C:\Users\z80\AppData\Local\Temp\ccRXtn4t.s 			page 13


 679 0042 EFE7     		b	.L37
 680              	.LVL71:
 681              	.L40:
 682              		.loc 1 270 0 discriminator 1
 683 0044 40F20000 		movw	r0, #:lower16:.LC5
 684 0048 C0F20000 		movt	r0, #:upper16:.LC5
 685 004c FFF7FEFF 		bl	chDbgPanic
 686              	.LVL72:
 687 0050 DBE7     		b	.L34
 688              		.cfi_endproc
 689              	.LFE15:
 690              		.size	chEvtDispatch, .-chEvtDispatch
 691 0052 00BFAFF3 		.section	.text.chEvtWaitOne,"ax",%progbits
 691      0080AFF3 
 691      0080AFF3 
 691      0080
 692              		.align	2
 693              		.p2align 4,,15
 694              		.global	chEvtWaitOne
 695              		.thumb
 696              		.thumb_func
 697              		.type	chEvtWaitOne, %function
 698              	chEvtWaitOne:
 699              	.LFB16:
 700              		.loc 1 302 0
 701              		.cfi_startproc
 702              		@ args = 0, pretend = 0, frame = 0
 703              		@ frame_needed = 0, uses_anonymous_args = 0
 704              	.LVL73:
 705 0000 38B5     		push	{r3, r4, r5, lr}
 706              	.LCFI9:
 707              		.cfi_def_cfa_offset 16
 708              		.cfi_offset 14, -4
 709              		.cfi_offset 5, -8
 710              		.cfi_offset 4, -12
 711              		.cfi_offset 3, -16
 712              		.loc 1 303 0
 713 0002 40F20003 		movw	r3, #:lower16:rlist
 714 0006 C0F20003 		movt	r3, #:upper16:rlist
 715 000a DC69     		ldr	r4, [r3, #28]
 716              	.LVL74:
 717              		.loc 1 302 0
 718 000c 0546     		mov	r5, r0
 719              	.LBB21:
 720              		.loc 1 306 0
 721 000e 2023     		movs	r3, #32
 722              	.LVL75:
 723              	@ 306 "../chibios_2.4.x/os/kernel/src/chevents.c" 1
 724 0010 83F31188 		msr     BASEPRI, r3
 725              	@ 0 "" 2
 726              	.LVL76:
 727              		.thumb
 728              	.LBE21:
 729 0014 FFF7FEFF 		bl	dbg_check_lock
 730              	.LVL77:
 731              		.loc 1 308 0
 732 0018 E36B     		ldr	r3, [r4, #60]
ARM GAS  C:\Users\z80\AppData\Local\Temp\ccRXtn4t.s 			page 14


 733              	.LVL78:
 734 001a 15EA0302 		ands	r2, r5, r3
 735 001e 06D1     		bne	.L43
 736              		.loc 1 309 0
 737 0020 A562     		str	r5, [r4, #40]
 738              		.loc 1 310 0
 739 0022 0820     		movs	r0, #8
 740 0024 FFF7FEFF 		bl	chSchGoSleepS
 741              	.LVL79:
 742              		.loc 1 311 0
 743 0028 E36B     		ldr	r3, [r4, #60]
 744 002a 05EA0302 		and	r2, r5, r3
 745              	.LVL80:
 746              	.L43:
 747              		.loc 1 313 0
 748 002e 5542     		negs	r5, r2
 749              	.LVL81:
 750 0030 1540     		ands	r5, r5, r2
 751              	.LVL82:
 752              		.loc 1 314 0
 753 0032 23EA0500 		bic	r0, r3, r5
 754 0036 E063     		str	r0, [r4, #60]
 755              		.loc 1 316 0
 756 0038 FFF7FEFF 		bl	dbg_check_unlock
 757              	.LBB22:
 758 003c 0023     		movs	r3, #0
 759              	.LVL83:
 760              	@ 316 "../chibios_2.4.x/os/kernel/src/chevents.c" 1
 761 003e 83F31188 		msr     BASEPRI, r3
 762              	@ 0 "" 2
 763              	.LVL84:
 764              		.thumb
 765              	.LBE22:
 766              		.loc 1 318 0
 767 0042 2846     		mov	r0, r5
 768 0044 38BD     		pop	{r3, r4, r5, pc}
 769              		.cfi_endproc
 770              	.LFE16:
 771              		.size	chEvtWaitOne, .-chEvtWaitOne
 772 0046 00BFAFF3 		.section	.text.chEvtWaitAny,"ax",%progbits
 772      0080AFF3 
 772      0080
 773              		.align	2
 774              		.p2align 4,,15
 775              		.global	chEvtWaitAny
 776              		.thumb
 777              		.thumb_func
 778              		.type	chEvtWaitAny, %function
 779              	chEvtWaitAny:
 780              	.LFB17:
 781              		.loc 1 331 0
 782              		.cfi_startproc
 783              		@ args = 0, pretend = 0, frame = 0
 784              		@ frame_needed = 0, uses_anonymous_args = 0
 785              	.LVL85:
 786              		.loc 1 332 0
 787 0000 40F20003 		movw	r3, #:lower16:rlist
ARM GAS  C:\Users\z80\AppData\Local\Temp\ccRXtn4t.s 			page 15


 788 0004 C0F20003 		movt	r3, #:upper16:rlist
 789              		.loc 1 331 0
 790 0008 70B5     		push	{r4, r5, r6, lr}
 791              	.LCFI10:
 792              		.cfi_def_cfa_offset 16
 793              		.cfi_offset 14, -4
 794              		.cfi_offset 6, -8
 795              		.cfi_offset 5, -12
 796              		.cfi_offset 4, -16
 797              		.loc 1 332 0
 798 000a DC69     		ldr	r4, [r3, #28]
 799              	.LVL86:
 800              		.loc 1 331 0
 801 000c 0546     		mov	r5, r0
 802              	.LBB23:
 803              		.loc 1 335 0
 804 000e 2023     		movs	r3, #32
 805              	.LVL87:
 806              	@ 335 "../chibios_2.4.x/os/kernel/src/chevents.c" 1
 807 0010 83F31188 		msr     BASEPRI, r3
 808              	@ 0 "" 2
 809              	.LVL88:
 810              		.thumb
 811              	.LBE23:
 812 0014 FFF7FEFF 		bl	dbg_check_lock
 813              	.LVL89:
 814              		.loc 1 337 0
 815 0018 E36B     		ldr	r3, [r4, #60]
 816              	.LVL90:
 817 001a 15EA0306 		ands	r6, r5, r3
 818 001e 06D1     		bne	.L45
 819              		.loc 1 338 0
 820 0020 A562     		str	r5, [r4, #40]
 821              		.loc 1 339 0
 822 0022 0820     		movs	r0, #8
 823 0024 FFF7FEFF 		bl	chSchGoSleepS
 824              	.LVL91:
 825              		.loc 1 340 0
 826 0028 E36B     		ldr	r3, [r4, #60]
 827 002a 05EA0306 		and	r6, r5, r3
 828              	.LVL92:
 829              	.L45:
 830              		.loc 1 342 0
 831 002e 23EA0600 		bic	r0, r3, r6
 832 0032 E063     		str	r0, [r4, #60]
 833              		.loc 1 344 0
 834 0034 FFF7FEFF 		bl	dbg_check_unlock
 835              	.LBB24:
 836 0038 0023     		movs	r3, #0
 837              	.LVL93:
 838              	@ 344 "../chibios_2.4.x/os/kernel/src/chevents.c" 1
 839 003a 83F31188 		msr     BASEPRI, r3
 840              	@ 0 "" 2
 841              	.LVL94:
 842              		.thumb
 843              	.LBE24:
 844              		.loc 1 346 0
ARM GAS  C:\Users\z80\AppData\Local\Temp\ccRXtn4t.s 			page 16


 845 003e 3046     		mov	r0, r6
 846 0040 70BD     		pop	{r4, r5, r6, pc}
 847              		.cfi_endproc
 848              	.LFE17:
 849              		.size	chEvtWaitAny, .-chEvtWaitAny
 850 0042 00BFAFF3 		.section	.text.chEvtWaitAll,"ax",%progbits
 850      0080AFF3 
 850      0080AFF3 
 850      0080
 851              		.align	2
 852              		.p2align 4,,15
 853              		.global	chEvtWaitAll
 854              		.thumb
 855              		.thumb_func
 856              		.type	chEvtWaitAll, %function
 857              	chEvtWaitAll:
 858              	.LFB18:
 859              		.loc 1 359 0
 860              		.cfi_startproc
 861              		@ args = 0, pretend = 0, frame = 0
 862              		@ frame_needed = 0, uses_anonymous_args = 0
 863              	.LVL95:
 864 0000 38B5     		push	{r3, r4, r5, lr}
 865              	.LCFI11:
 866              		.cfi_def_cfa_offset 16
 867              		.cfi_offset 14, -4
 868              		.cfi_offset 5, -8
 869              		.cfi_offset 4, -12
 870              		.cfi_offset 3, -16
 871              		.loc 1 360 0
 872 0002 40F20003 		movw	r3, #:lower16:rlist
 873 0006 C0F20003 		movt	r3, #:upper16:rlist
 874 000a DD69     		ldr	r5, [r3, #28]
 875              	.LVL96:
 876              		.loc 1 359 0
 877 000c 0446     		mov	r4, r0
 878              	.LBB25:
 879              		.loc 1 362 0
 880 000e 2023     		movs	r3, #32
 881              	.LVL97:
 882              	@ 362 "../chibios_2.4.x/os/kernel/src/chevents.c" 1
 883 0010 83F31188 		msr     BASEPRI, r3
 884              	@ 0 "" 2
 885              	.LVL98:
 886              		.thumb
 887              	.LBE25:
 888 0014 FFF7FEFF 		bl	dbg_check_lock
 889              	.LVL99:
 890              		.loc 1 364 0
 891 0018 EB6B     		ldr	r3, [r5, #60]
 892 001a 04EA0302 		and	r2, r4, r3
 893 001e A242     		cmp	r2, r4
 894 0020 04D0     		beq	.L47
 895              		.loc 1 365 0
 896 0022 AC62     		str	r4, [r5, #40]
 897              		.loc 1 366 0
 898 0024 0920     		movs	r0, #9
ARM GAS  C:\Users\z80\AppData\Local\Temp\ccRXtn4t.s 			page 17


 899 0026 FFF7FEFF 		bl	chSchGoSleepS
 900 002a EB6B     		ldr	r3, [r5, #60]
 901              	.L47:
 902              		.loc 1 368 0
 903 002c 23EA0400 		bic	r0, r3, r4
 904 0030 E863     		str	r0, [r5, #60]
 905              		.loc 1 370 0
 906 0032 FFF7FEFF 		bl	dbg_check_unlock
 907              	.LBB26:
 908 0036 0023     		movs	r3, #0
 909              	.LVL100:
 910              	@ 370 "../chibios_2.4.x/os/kernel/src/chevents.c" 1
 911 0038 83F31188 		msr     BASEPRI, r3
 912              	@ 0 "" 2
 913              	.LVL101:
 914              		.thumb
 915              	.LBE26:
 916              		.loc 1 372 0
 917 003c 2046     		mov	r0, r4
 918 003e 38BD     		pop	{r3, r4, r5, pc}
 919              		.cfi_endproc
 920              	.LFE18:
 921              		.size	chEvtWaitAll, .-chEvtWaitAll
 922              		.section	.text.chEvtWaitOneTimeout,"ax",%progbits
 923              		.align	2
 924              		.p2align 4,,15
 925              		.global	chEvtWaitOneTimeout
 926              		.thumb
 927              		.thumb_func
 928              		.type	chEvtWaitOneTimeout, %function
 929              	chEvtWaitOneTimeout:
 930              	.LFB19:
 931              		.loc 1 398 0
 932              		.cfi_startproc
 933              		@ args = 0, pretend = 0, frame = 0
 934              		@ frame_needed = 0, uses_anonymous_args = 0
 935              	.LVL102:
 936 0000 F8B5     		push	{r3, r4, r5, r6, r7, lr}
 937              	.LCFI12:
 938              		.cfi_def_cfa_offset 24
 939              		.cfi_offset 14, -4
 940              		.cfi_offset 7, -8
 941              		.cfi_offset 6, -12
 942              		.cfi_offset 5, -16
 943              		.cfi_offset 4, -20
 944              		.cfi_offset 3, -24
 945              		.loc 1 399 0
 946 0002 40F20003 		movw	r3, #:lower16:rlist
 947 0006 C0F20003 		movt	r3, #:upper16:rlist
 948 000a DE69     		ldr	r6, [r3, #28]
 949              	.LVL103:
 950              		.loc 1 398 0
 951 000c 0546     		mov	r5, r0
 952 000e 0F46     		mov	r7, r1
 953              	.LBB27:
 954              		.loc 1 402 0
 955 0010 2023     		movs	r3, #32
ARM GAS  C:\Users\z80\AppData\Local\Temp\ccRXtn4t.s 			page 18


 956              	.LVL104:
 957              	@ 402 "../chibios_2.4.x/os/kernel/src/chevents.c" 1
 958 0012 83F31188 		msr     BASEPRI, r3
 959              	@ 0 "" 2
 960              	.LVL105:
 961              		.thumb
 962              	.LBE27:
 963 0016 FFF7FEFF 		bl	dbg_check_lock
 964              	.LVL106:
 965              		.loc 1 404 0
 966 001a F36B     		ldr	r3, [r6, #60]
 967              	.LVL107:
 968 001c 15EA0304 		ands	r4, r5, r3
 969 0020 0AD1     		bne	.L49
 970              		.loc 1 405 0
 971 0022 AFB1     		cbz	r7, .L53
 972              		.loc 1 410 0
 973 0024 0820     		movs	r0, #8
 974              		.loc 1 409 0
 975 0026 B562     		str	r5, [r6, #40]
 976              		.loc 1 410 0
 977 0028 3946     		mov	r1, r7
 978 002a FFF7FEFF 		bl	chSchGoSleepTimeoutS
 979              	.LVL108:
 980 002e 0028     		cmp	r0, #0
 981 0030 0EDB     		blt	.L53
 982              		.loc 1 414 0
 983 0032 F36B     		ldr	r3, [r6, #60]
 984 0034 05EA0304 		and	r4, r5, r3
 985              	.LVL109:
 986              	.L49:
 987              		.loc 1 416 0
 988 0038 6242     		negs	r2, r4
 989 003a 1440     		ands	r4, r4, r2
 990              	.LVL110:
 991              		.loc 1 417 0
 992 003c 23EA0400 		bic	r0, r3, r4
 993 0040 F063     		str	r0, [r6, #60]
 994              		.loc 1 419 0
 995 0042 FFF7FEFF 		bl	dbg_check_unlock
 996              	.LBB28:
 997 0046 0023     		movs	r3, #0
 998              	.LVL111:
 999              	@ 419 "../chibios_2.4.x/os/kernel/src/chevents.c" 1
 1000 0048 83F31188 		msr     BASEPRI, r3
 1001              	@ 0 "" 2
 1002              	.LVL112:
 1003              		.thumb
 1004              	.LBE28:
 1005              		.loc 1 421 0
 1006 004c 2046     		mov	r0, r4
 1007 004e F8BD     		pop	{r3, r4, r5, r6, r7, pc}
 1008              	.LVL113:
 1009              	.L53:
 1010              		.loc 1 411 0
 1011 0050 FFF7FEFF 		bl	dbg_check_unlock
 1012              	.LBB29:
ARM GAS  C:\Users\z80\AppData\Local\Temp\ccRXtn4t.s 			page 19


 1013 0054 2346     		mov	r3, r4
 1014              	.LVL114:
 1015              	@ 411 "../chibios_2.4.x/os/kernel/src/chevents.c" 1
 1016 0056 83F31188 		msr     BASEPRI, r3
 1017              	@ 0 "" 2
 1018              	.LVL115:
 1019              		.thumb
 1020              	.LBE29:
 1021              		.loc 1 421 0
 1022 005a 2046     		mov	r0, r4
 1023 005c F8BD     		pop	{r3, r4, r5, r6, r7, pc}
 1024              		.cfi_endproc
 1025              	.LFE19:
 1026              		.size	chEvtWaitOneTimeout, .-chEvtWaitOneTimeout
 1027 005e 00BF     		.section	.text.chEvtWaitAnyTimeout,"ax",%progbits
 1028              		.align	2
 1029              		.p2align 4,,15
 1030              		.global	chEvtWaitAnyTimeout
 1031              		.thumb
 1032              		.thumb_func
 1033              		.type	chEvtWaitAnyTimeout, %function
 1034              	chEvtWaitAnyTimeout:
 1035              	.LFB20:
 1036              		.loc 1 441 0
 1037              		.cfi_startproc
 1038              		@ args = 0, pretend = 0, frame = 0
 1039              		@ frame_needed = 0, uses_anonymous_args = 0
 1040              	.LVL116:
 1041 0000 F8B5     		push	{r3, r4, r5, r6, r7, lr}
 1042              	.LCFI13:
 1043              		.cfi_def_cfa_offset 24
 1044              		.cfi_offset 14, -4
 1045              		.cfi_offset 7, -8
 1046              		.cfi_offset 6, -12
 1047              		.cfi_offset 5, -16
 1048              		.cfi_offset 4, -20
 1049              		.cfi_offset 3, -24
 1050              		.loc 1 442 0
 1051 0002 40F20003 		movw	r3, #:lower16:rlist
 1052 0006 C0F20003 		movt	r3, #:upper16:rlist
 1053 000a DD69     		ldr	r5, [r3, #28]
 1054              	.LVL117:
 1055              		.loc 1 441 0
 1056 000c 0446     		mov	r4, r0
 1057 000e 0F46     		mov	r7, r1
 1058              	.LBB30:
 1059              		.loc 1 445 0
 1060 0010 2023     		movs	r3, #32
 1061              	.LVL118:
 1062              	@ 445 "../chibios_2.4.x/os/kernel/src/chevents.c" 1
 1063 0012 83F31188 		msr     BASEPRI, r3
 1064              	@ 0 "" 2
 1065              	.LVL119:
 1066              		.thumb
 1067              	.LBE30:
 1068 0016 FFF7FEFF 		bl	dbg_check_lock
 1069              	.LVL120:
ARM GAS  C:\Users\z80\AppData\Local\Temp\ccRXtn4t.s 			page 20


 1070              		.loc 1 447 0
 1071 001a EB6B     		ldr	r3, [r5, #60]
 1072              	.LVL121:
 1073 001c 14EA0306 		ands	r6, r4, r3
 1074 0020 0AD1     		bne	.L55
 1075              		.loc 1 448 0
 1076 0022 9FB1     		cbz	r7, .L59
 1077              		.loc 1 453 0
 1078 0024 0820     		movs	r0, #8
 1079              		.loc 1 452 0
 1080 0026 AC62     		str	r4, [r5, #40]
 1081              		.loc 1 453 0
 1082 0028 3946     		mov	r1, r7
 1083 002a FFF7FEFF 		bl	chSchGoSleepTimeoutS
 1084              	.LVL122:
 1085 002e 0028     		cmp	r0, #0
 1086 0030 0CDB     		blt	.L59
 1087              		.loc 1 457 0
 1088 0032 EB6B     		ldr	r3, [r5, #60]
 1089 0034 04EA0306 		and	r6, r4, r3
 1090              	.LVL123:
 1091              	.L55:
 1092              		.loc 1 459 0
 1093 0038 23EA0600 		bic	r0, r3, r6
 1094 003c E863     		str	r0, [r5, #60]
 1095              		.loc 1 461 0
 1096 003e FFF7FEFF 		bl	dbg_check_unlock
 1097              	.LBB31:
 1098 0042 0023     		movs	r3, #0
 1099              	.LVL124:
 1100              	@ 461 "../chibios_2.4.x/os/kernel/src/chevents.c" 1
 1101 0044 83F31188 		msr     BASEPRI, r3
 1102              	@ 0 "" 2
 1103              	.LVL125:
 1104              		.thumb
 1105              	.LBE31:
 1106              		.loc 1 463 0
 1107 0048 3046     		mov	r0, r6
 1108 004a F8BD     		pop	{r3, r4, r5, r6, r7, pc}
 1109              	.LVL126:
 1110              	.L59:
 1111              		.loc 1 454 0
 1112 004c FFF7FEFF 		bl	dbg_check_unlock
 1113              	.LBB32:
 1114 0050 3346     		mov	r3, r6
 1115              	.LVL127:
 1116              	@ 454 "../chibios_2.4.x/os/kernel/src/chevents.c" 1
 1117 0052 83F31188 		msr     BASEPRI, r3
 1118              	@ 0 "" 2
 1119              	.LVL128:
 1120              		.thumb
 1121              	.LBE32:
 1122              		.loc 1 463 0
 1123 0056 3046     		mov	r0, r6
 1124 0058 F8BD     		pop	{r3, r4, r5, r6, r7, pc}
 1125              		.cfi_endproc
 1126              	.LFE20:
ARM GAS  C:\Users\z80\AppData\Local\Temp\ccRXtn4t.s 			page 21


 1127              		.size	chEvtWaitAnyTimeout, .-chEvtWaitAnyTimeout
 1128 005a 00BFAFF3 		.section	.text.chEvtWaitAllTimeout,"ax",%progbits
 1128      0080
 1129              		.align	2
 1130              		.p2align 4,,15
 1131              		.global	chEvtWaitAllTimeout
 1132              		.thumb
 1133              		.thumb_func
 1134              		.type	chEvtWaitAllTimeout, %function
 1135              	chEvtWaitAllTimeout:
 1136              	.LFB21:
 1137              		.loc 1 482 0
 1138              		.cfi_startproc
 1139              		@ args = 0, pretend = 0, frame = 0
 1140              		@ frame_needed = 0, uses_anonymous_args = 0
 1141              	.LVL129:
 1142              		.loc 1 483 0
 1143 0000 40F20003 		movw	r3, #:lower16:rlist
 1144 0004 C0F20003 		movt	r3, #:upper16:rlist
 1145              		.loc 1 482 0
 1146 0008 70B5     		push	{r4, r5, r6, lr}
 1147              	.LCFI14:
 1148              		.cfi_def_cfa_offset 16
 1149              		.cfi_offset 14, -4
 1150              		.cfi_offset 6, -8
 1151              		.cfi_offset 5, -12
 1152              		.cfi_offset 4, -16
 1153              		.loc 1 483 0
 1154 000a DD69     		ldr	r5, [r3, #28]
 1155              	.LVL130:
 1156              		.loc 1 482 0
 1157 000c 0446     		mov	r4, r0
 1158 000e 0E46     		mov	r6, r1
 1159              	.LBB33:
 1160              		.loc 1 485 0
 1161 0010 2023     		movs	r3, #32
 1162              	.LVL131:
 1163              	@ 485 "../chibios_2.4.x/os/kernel/src/chevents.c" 1
 1164 0012 83F31188 		msr     BASEPRI, r3
 1165              	@ 0 "" 2
 1166              	.LVL132:
 1167              		.thumb
 1168              	.LBE33:
 1169 0016 FFF7FEFF 		bl	dbg_check_lock
 1170              	.LVL133:
 1171              		.loc 1 487 0
 1172 001a EB6B     		ldr	r3, [r5, #60]
 1173 001c 04EA0302 		and	r2, r4, r3
 1174 0020 A242     		cmp	r2, r4
 1175 0022 09D0     		beq	.L61
 1176              		.loc 1 488 0
 1177 0024 96B1     		cbz	r6, .L65
 1178              		.loc 1 493 0
 1179 0026 0920     		movs	r0, #9
 1180              		.loc 1 492 0
 1181 0028 AC62     		str	r4, [r5, #40]
 1182              		.loc 1 493 0
ARM GAS  C:\Users\z80\AppData\Local\Temp\ccRXtn4t.s 			page 22


 1183 002a 3146     		mov	r1, r6
 1184 002c FFF7FEFF 		bl	chSchGoSleepTimeoutS
 1185 0030 0028     		cmp	r0, #0
 1186 0032 A8BF     		it	ge
 1187 0034 EB6B     		ldrge	r3, [r5, #60]
 1188 0036 11DB     		blt	.L66
 1189              	.L61:
 1190              		.loc 1 498 0
 1191 0038 23EA0400 		bic	r0, r3, r4
 1192 003c E863     		str	r0, [r5, #60]
 1193              		.loc 1 500 0
 1194 003e FFF7FEFF 		bl	dbg_check_unlock
 1195              	.LBB34:
 1196 0042 0023     		movs	r3, #0
 1197              	.LVL134:
 1198              	@ 500 "../chibios_2.4.x/os/kernel/src/chevents.c" 1
 1199 0044 83F31188 		msr     BASEPRI, r3
 1200              	@ 0 "" 2
 1201              	.LVL135:
 1202              		.thumb
 1203              	.L63:
 1204              	.LBE34:
 1205              		.loc 1 502 0
 1206 0048 2046     		mov	r0, r4
 1207 004a 70BD     		pop	{r4, r5, r6, pc}
 1208              	.LVL136:
 1209              	.L65:
 1210              		.loc 1 489 0
 1211 004c FFF7FEFF 		bl	dbg_check_unlock
 1212              	.LBB35:
 1213 0050 3346     		mov	r3, r6
 1214              	.LVL137:
 1215              	@ 489 "../chibios_2.4.x/os/kernel/src/chevents.c" 1
 1216 0052 83F31188 		msr     BASEPRI, r3
 1217              	@ 0 "" 2
 1218              	.LVL138:
 1219              		.thumb
 1220              	.LBE35:
 1221              		.loc 1 490 0
 1222 0056 3446     		mov	r4, r6
 1223              	.LVL139:
 1224              		.loc 1 502 0
 1225 0058 2046     		mov	r0, r4
 1226 005a 70BD     		pop	{r4, r5, r6, pc}
 1227              	.LVL140:
 1228              	.L66:
 1229              		.loc 1 494 0
 1230 005c FFF7FEFF 		bl	dbg_check_unlock
 1231              	.LBB36:
 1232 0060 0023     		movs	r3, #0
 1233              	@ 494 "../chibios_2.4.x/os/kernel/src/chevents.c" 1
 1234 0062 83F31188 		msr     BASEPRI, r3
 1235              	@ 0 "" 2
 1236              	.LVL141:
 1237              		.thumb
 1238              	.LBE36:
 1239              		.loc 1 495 0
ARM GAS  C:\Users\z80\AppData\Local\Temp\ccRXtn4t.s 			page 23


 1240 0066 1C46     		mov	r4, r3
 1241              	.LVL142:
 1242 0068 EEE7     		b	.L63
 1243              		.cfi_endproc
 1244              	.LFE21:
 1245              		.size	chEvtWaitAllTimeout, .-chEvtWaitAllTimeout
 1246 006a 00BFAFF3 		.section	.rodata.str1.4,"aMS",%progbits,1
 1246      0080
 1247              		.align	2
 1248              	.LC0:
 1249 0000 22636845 		.ascii	"\"chEvtRegisterMask\"()\000"
 1249      76745265 
 1249      67697374 
 1249      65724D61 
 1249      736B2228 
 1250 0016 0000     		.space	2
 1251              	.LC1:
 1252 0018 22636845 		.ascii	"\"chEvtUnregister\"()\000"
 1252      7674556E 
 1252      72656769 
 1252      73746572 
 1252      22282900 
 1253              	.LC2:
 1254 002c 22636845 		.ascii	"\"chEvtSignalI\"()\000"
 1254      76745369 
 1254      676E616C 
 1254      49222829 
 1254      00
 1255 003d 000000   		.space	3
 1256              	.LC3:
 1257 0040 22636845 		.ascii	"\"chEvtSignal\"()\000"
 1257      76745369 
 1257      676E616C 
 1257      22282900 
 1258              	.LC4:
 1259 0050 22636845 		.ascii	"\"chEvtBroadcastMaskI\"()\000"
 1259      76744272 
 1259      6F616463 
 1259      6173744D 
 1259      61736B49 
 1260              	.LC5:
 1261 0068 22636845 		.ascii	"\"chEvtDispatch\"()\000"
 1261      76744469 
 1261      73706174 
 1261      63682228 
 1261      2900
 1262 007a 0000     		.space	2
 1263              	.LC6:
 1264 007c 63684576 		.ascii	"chEvtDispatch(), #1\000"
 1264      74446973 
 1264      70617463 
 1264      6828292C 
 1264      20233100 
 1265              		.text
 1266              	.Letext0:
 1267              		.file 2 "c:\\programs\\codesourcery\\2011.03-56\\bin\\../lib/gcc/arm-none-eabi/4.6.3/../../../../a
 1268              		.file 3 "../chibios_2.4.x/os/ports/GCC/ARMCMx/chtypes.h"
ARM GAS  C:\Users\z80\AppData\Local\Temp\ccRXtn4t.s 			page 24


 1269              		.file 4 "../chibios_2.4.x/os/kernel/include/chlists.h"
 1270              		.file 5 "../chibios_2.4.x/os/kernel/include/chthreads.h"
 1271              		.file 6 "../chibios_2.4.x/os/ports/GCC/ARMCMx/chcore_v7m.h"
 1272              		.file 7 "../chibios_2.4.x/os/kernel/include/chschd.h"
 1273              		.file 8 "../chibios_2.4.x/os/kernel/include/chmtx.h"
 1274              		.file 9 "../chibios_2.4.x/os/kernel/include/chevents.h"