ARM GAS  C:\Users\z80\AppData\Local\Temp\ccDXx7yx.s 			page 1


   1              		.syntax unified
   2              		.cpu cortex-m3
   3              		.fpu softvfp
   4              		.eabi_attribute 20, 1
   5              		.eabi_attribute 21, 1
   6              		.eabi_attribute 23, 3
   7              		.eabi_attribute 24, 1
   8              		.eabi_attribute 25, 1
   9              		.eabi_attribute 26, 1
  10              		.eabi_attribute 30, 6
  11              		.eabi_attribute 34, 1
  12              		.eabi_attribute 18, 4
  13              		.thumb
  14              		.file	"chmtx.c"
  15              		.text
  16              	.Ltext0:
  17              		.cfi_sections	.debug_frame
  18              		.section	.text.prio_insert,"ax",%progbits
  19              		.align	2
  20              		.p2align 4,,15
  21              		.thumb
  22              		.thumb_func
  23              		.type	prio_insert, %function
  24              	prio_insert:
  25              	.LFB0:
  26              		.file 1 "../chibios_2.4.x/os/kernel/include/chinline.h"
  27              		.loc 1 41 0
  28              		.cfi_startproc
  29              		@ args = 0, pretend = 0, frame = 16
  30              		@ frame_needed = 0, uses_anonymous_args = 0
  31              		@ link register save eliminated.
  32 0000 84B0     		sub	sp, sp, #16
  33              	.LCFI0:
  34              		.cfi_def_cfa_offset 16
  35 0002 0190     		str	r0, [sp, #4]
  36 0004 0091     		str	r1, [sp, #0]
  37              		.loc 1 43 0
  38 0006 009B     		ldr	r3, [sp, #0]
  39 0008 0393     		str	r3, [sp, #12]
  40              	.L3:
  41              		.loc 1 45 0 discriminator 1
  42 000a 039B     		ldr	r3, [sp, #12]
  43 000c 1B68     		ldr	r3, [r3, #0]
  44 000e 0393     		str	r3, [sp, #12]
  45              		.loc 1 46 0 discriminator 1
  46 0010 039A     		ldr	r2, [sp, #12]
  47 0012 009B     		ldr	r3, [sp, #0]
  48 0014 9A42     		cmp	r2, r3
  49 0016 05D0     		beq	.L2
  50 0018 039B     		ldr	r3, [sp, #12]
  51 001a 9A68     		ldr	r2, [r3, #8]
  52 001c 019B     		ldr	r3, [sp, #4]
  53 001e 9B68     		ldr	r3, [r3, #8]
  54 0020 9A42     		cmp	r2, r3
  55 0022 F2D2     		bcs	.L3
  56              	.L2:
  57              		.loc 1 47 0
ARM GAS  C:\Users\z80\AppData\Local\Temp\ccDXx7yx.s 			page 2


  58 0024 019B     		ldr	r3, [sp, #4]
  59 0026 039A     		ldr	r2, [sp, #12]
  60 0028 1A60     		str	r2, [r3, #0]
  61              		.loc 1 48 0
  62 002a 039B     		ldr	r3, [sp, #12]
  63 002c 5A68     		ldr	r2, [r3, #4]
  64 002e 019B     		ldr	r3, [sp, #4]
  65 0030 5A60     		str	r2, [r3, #4]
  66              		.loc 1 49 0
  67 0032 019B     		ldr	r3, [sp, #4]
  68 0034 5B68     		ldr	r3, [r3, #4]
  69 0036 039A     		ldr	r2, [sp, #12]
  70 0038 0199     		ldr	r1, [sp, #4]
  71 003a 5160     		str	r1, [r2, #4]
  72 003c 039A     		ldr	r2, [sp, #12]
  73 003e 5268     		ldr	r2, [r2, #4]
  74 0040 1A60     		str	r2, [r3, #0]
  75              		.loc 1 50 0
  76 0042 04B0     		add	sp, sp, #16
  77 0044 7047     		bx	lr
  78              		.cfi_endproc
  79              	.LFE0:
  80              		.size	prio_insert, .-prio_insert
  81 0046 00BFAFF3 		.section	.text.fifo_remove,"ax",%progbits
  81      0080AFF3 
  81      0080
  82              		.align	2
  83              		.p2align 4,,15
  84              		.thumb
  85              		.thumb_func
  86              		.type	fifo_remove, %function
  87              	fifo_remove:
  88              	.LFB2:
  89              		.loc 1 59 0
  90              		.cfi_startproc
  91              		@ args = 0, pretend = 0, frame = 16
  92              		@ frame_needed = 0, uses_anonymous_args = 0
  93              		@ link register save eliminated.
  94 0000 84B0     		sub	sp, sp, #16
  95              	.LCFI1:
  96              		.cfi_def_cfa_offset 16
  97 0002 0190     		str	r0, [sp, #4]
  98              		.loc 1 60 0
  99 0004 019B     		ldr	r3, [sp, #4]
 100 0006 1B68     		ldr	r3, [r3, #0]
 101 0008 0393     		str	r3, [sp, #12]
 102              		.loc 1 62 0
 103 000a 039B     		ldr	r3, [sp, #12]
 104 000c 1A68     		ldr	r2, [r3, #0]
 105 000e 019B     		ldr	r3, [sp, #4]
 106 0010 1A60     		str	r2, [r3, #0]
 107 0012 019B     		ldr	r3, [sp, #4]
 108 0014 1B68     		ldr	r3, [r3, #0]
 109 0016 019A     		ldr	r2, [sp, #4]
 110 0018 5A60     		str	r2, [r3, #4]
 111              		.loc 1 63 0
 112 001a 039B     		ldr	r3, [sp, #12]
ARM GAS  C:\Users\z80\AppData\Local\Temp\ccDXx7yx.s 			page 3


 113              		.loc 1 64 0
 114 001c 1846     		mov	r0, r3
 115 001e 04B0     		add	sp, sp, #16
 116 0020 7047     		bx	lr
 117              		.cfi_endproc
 118              	.LFE2:
 119              		.size	fifo_remove, .-fifo_remove
 120 0022 00BFAFF3 		.section	.text.dequeue,"ax",%progbits
 120      0080AFF3 
 120      0080AFF3 
 120      0080
 121              		.align	2
 122              		.p2align 4,,15
 123              		.thumb
 124              		.thumb_func
 125              		.type	dequeue, %function
 126              	dequeue:
 127              	.LFB4:
 128              		.loc 1 73 0
 129              		.cfi_startproc
 130              		@ args = 0, pretend = 0, frame = 8
 131              		@ frame_needed = 0, uses_anonymous_args = 0
 132              		@ link register save eliminated.
 133 0000 82B0     		sub	sp, sp, #8
 134              	.LCFI2:
 135              		.cfi_def_cfa_offset 8
 136 0002 0190     		str	r0, [sp, #4]
 137              		.loc 1 75 0
 138 0004 019B     		ldr	r3, [sp, #4]
 139 0006 5B68     		ldr	r3, [r3, #4]
 140 0008 019A     		ldr	r2, [sp, #4]
 141 000a 1268     		ldr	r2, [r2, #0]
 142 000c 1A60     		str	r2, [r3, #0]
 143              		.loc 1 76 0
 144 000e 019B     		ldr	r3, [sp, #4]
 145 0010 1B68     		ldr	r3, [r3, #0]
 146 0012 019A     		ldr	r2, [sp, #4]
 147 0014 5268     		ldr	r2, [r2, #4]
 148 0016 5A60     		str	r2, [r3, #4]
 149              		.loc 1 77 0
 150 0018 019B     		ldr	r3, [sp, #4]
 151              		.loc 1 78 0
 152 001a 1846     		mov	r0, r3
 153 001c 02B0     		add	sp, sp, #8
 154 001e 7047     		bx	lr
 155              		.cfi_endproc
 156              	.LFE4:
 157              		.size	dequeue, .-dequeue
 158              		.section	.rodata
 159              		.align	2
 160              	.LC0:
 161 0000 2263684D 		.ascii	"\"chMtxInit\"()\000"
 161      7478496E 
 161      69742228 
 161      2900
 162              		.section	.text.chMtxInit,"ax",%progbits
 163              		.align	2
ARM GAS  C:\Users\z80\AppData\Local\Temp\ccDXx7yx.s 			page 4


 164              		.p2align 4,,15
 165              		.global	chMtxInit
 166              		.thumb
 167              		.thumb_func
 168              		.type	chMtxInit, %function
 169              	chMtxInit:
 170              	.LFB7:
 171              		.file 2 "../chibios_2.4.x/os/kernel/src/chmtx.c"
 172              		.loc 2 86 0
 173              		.cfi_startproc
 174              		@ args = 0, pretend = 0, frame = 8
 175              		@ frame_needed = 0, uses_anonymous_args = 0
 176 0000 00B5     		push	{lr}
 177              	.LCFI3:
 178              		.cfi_def_cfa_offset 4
 179              		.cfi_offset 14, -4
 180 0002 83B0     		sub	sp, sp, #12
 181              	.LCFI4:
 182              		.cfi_def_cfa_offset 16
 183 0004 0190     		str	r0, [sp, #4]
 184              		.loc 2 88 0
 185 0006 019B     		ldr	r3, [sp, #4]
 186 0008 002B     		cmp	r3, #0
 187 000a 05D1     		bne	.L7
 188              		.loc 2 88 0 is_stmt 0 discriminator 1
 189 000c 40F20000 		movw	r0, #:lower16:.LC0
 190 0010 C0F20000 		movt	r0, #:upper16:.LC0
 191 0014 FFF7FEFF 		bl	chDbgPanic
 192              	.L7:
 193              		.loc 2 90 0 is_stmt 1
 194 0018 019A     		ldr	r2, [sp, #4]
 195 001a 019B     		ldr	r3, [sp, #4]
 196 001c 5A60     		str	r2, [r3, #4]
 197 001e 019B     		ldr	r3, [sp, #4]
 198 0020 5A68     		ldr	r2, [r3, #4]
 199 0022 019B     		ldr	r3, [sp, #4]
 200 0024 1A60     		str	r2, [r3, #0]
 201              		.loc 2 91 0
 202 0026 019B     		ldr	r3, [sp, #4]
 203 0028 4FF00002 		mov	r2, #0
 204 002c 9A60     		str	r2, [r3, #8]
 205              		.loc 2 92 0
 206 002e 03B0     		add	sp, sp, #12
 207 0030 00BD     		pop	{pc}
 208              		.cfi_endproc
 209              	.LFE7:
 210              		.size	chMtxInit, .-chMtxInit
 211 0032 00BFAFF3 		.section	.text.chMtxLock,"ax",%progbits
 211      0080AFF3 
 211      0080AFF3 
 211      0080
 212              		.align	2
 213              		.p2align 4,,15
 214              		.global	chMtxLock
 215              		.thumb
 216              		.thumb_func
 217              		.type	chMtxLock, %function
ARM GAS  C:\Users\z80\AppData\Local\Temp\ccDXx7yx.s 			page 5


 218              	chMtxLock:
 219              	.LFB8:
 220              		.loc 2 103 0
 221              		.cfi_startproc
 222              		@ args = 0, pretend = 0, frame = 8
 223              		@ frame_needed = 0, uses_anonymous_args = 0
 224 0000 00B5     		push	{lr}
 225              	.LCFI5:
 226              		.cfi_def_cfa_offset 4
 227              		.cfi_offset 14, -4
 228 0002 83B0     		sub	sp, sp, #12
 229              	.LCFI6:
 230              		.cfi_def_cfa_offset 16
 231 0004 0190     		str	r0, [sp, #4]
 232              	.LBB2:
 233              		.loc 2 105 0
 234 0006 4FF02003 		mov	r3, #32
 235              	@ 105 "../chibios_2.4.x/os/kernel/src/chmtx.c" 1
 236 000a 83F31188 		msr     BASEPRI, r3
 237              	@ 0 "" 2
 238              		.thumb
 239              	.LBE2:
 240 000e FFF7FEFF 		bl	dbg_check_lock
 241              		.loc 2 107 0
 242 0012 0198     		ldr	r0, [sp, #4]
 243 0014 FFF7FEFF 		bl	chMtxLockS
 244              		.loc 2 109 0
 245 0018 FFF7FEFF 		bl	dbg_check_unlock
 246              	.LBB3:
 247 001c 4FF00003 		mov	r3, #0
 248              	@ 109 "../chibios_2.4.x/os/kernel/src/chmtx.c" 1
 249 0020 83F31188 		msr     BASEPRI, r3
 250              	@ 0 "" 2
 251              		.thumb
 252              	.LBE3:
 253              		.loc 2 110 0
 254 0024 03B0     		add	sp, sp, #12
 255 0026 00BD     		pop	{pc}
 256              		.cfi_endproc
 257              	.LFE8:
 258              		.size	chMtxLock, .-chMtxLock
 259 0028 AFF30080 		.section	.rodata
 259      AFF30080 
 260 000e 0000     		.align	2
 261              	.LC1:
 262 0010 2263684D 		.ascii	"\"chMtxLockS\"()\000"
 262      74784C6F 
 262      636B5322 
 262      282900
 263 001f 00       		.align	2
 264              	.LC2:
 265 0020 63684D74 		.ascii	"chMtxLockS(), #1\000"
 265      784C6F63 
 265      6B532829 
 265      2C202331 
 265      00
 266 0031 000000   		.align	2
ARM GAS  C:\Users\z80\AppData\Local\Temp\ccDXx7yx.s 			page 6


 267              	.LC3:
 268 0034 63684D74 		.ascii	"chMtxLockS(), #2\000"
 268      784C6F63 
 268      6B532829 
 268      2C202332 
 268      00
 269              		.section	.text.chMtxLockS,"ax",%progbits
 270              		.align	2
 271              		.p2align 4,,15
 272              		.global	chMtxLockS
 273              		.thumb
 274              		.thumb_func
 275              		.type	chMtxLockS, %function
 276              	chMtxLockS:
 277              	.LFB9:
 278              		.loc 2 121 0
 279              		.cfi_startproc
 280              		@ args = 0, pretend = 0, frame = 16
 281              		@ frame_needed = 0, uses_anonymous_args = 0
 282 0000 00B5     		push	{lr}
 283              	.LCFI7:
 284              		.cfi_def_cfa_offset 4
 285              		.cfi_offset 14, -4
 286 0002 85B0     		sub	sp, sp, #20
 287              	.LCFI8:
 288              		.cfi_def_cfa_offset 24
 289 0004 0190     		str	r0, [sp, #4]
 290              		.loc 2 122 0
 291 0006 40F20003 		movw	r3, #:lower16:rlist
 292 000a C0F20003 		movt	r3, #:upper16:rlist
 293 000e DB69     		ldr	r3, [r3, #28]
 294 0010 0293     		str	r3, [sp, #8]
 295              		.loc 2 124 0
 296 0012 FFF7FEFF 		bl	chDbgCheckClassS
 297              		.loc 2 125 0
 298 0016 019B     		ldr	r3, [sp, #4]
 299 0018 002B     		cmp	r3, #0
 300 001a 05D1     		bne	.L10
 301              		.loc 2 125 0 is_stmt 0 discriminator 1
 302 001c 40F20000 		movw	r0, #:lower16:.LC1
 303 0020 C0F20000 		movt	r0, #:upper16:.LC1
 304 0024 FFF7FEFF 		bl	chDbgPanic
 305              	.L10:
 306              		.loc 2 128 0 is_stmt 1
 307 0028 019B     		ldr	r3, [sp, #4]
 308 002a 9B68     		ldr	r3, [r3, #8]
 309 002c 002B     		cmp	r3, #0
 310 002e 62D0     		beq	.L11
 311              	.LBB4:
 312              		.loc 2 132 0
 313 0030 019B     		ldr	r3, [sp, #4]
 314 0032 9B68     		ldr	r3, [r3, #8]
 315 0034 0393     		str	r3, [sp, #12]
 316              		.loc 2 135 0
 317 0036 35E0     		b	.L12
 318              	.L18:
 319              		.loc 2 137 0
ARM GAS  C:\Users\z80\AppData\Local\Temp\ccDXx7yx.s 			page 7


 320 0038 029B     		ldr	r3, [sp, #8]
 321 003a 9A68     		ldr	r2, [r3, #8]
 322 003c 039B     		ldr	r3, [sp, #12]
 323 003e 9A60     		str	r2, [r3, #8]
 324              		.loc 2 139 0
 325 0040 039B     		ldr	r3, [sp, #12]
 326 0042 93F82030 		ldrb	r3, [r3, #32]	@ zero_extendqisi2
 327 0046 042B     		cmp	r3, #4
 328 0048 04D0     		beq	.L15
 329 004a 052B     		cmp	r3, #5
 330 004c 11D0     		beq	.L16
 331 004e 002B     		cmp	r3, #0
 332 0050 1AD0     		beq	.L14
 333 0052 26E0     		b	.L13
 334              	.L15:
 335              		.loc 2 142 0
 336 0054 0398     		ldr	r0, [sp, #12]
 337 0056 FFF7FEFF 		bl	dequeue
 338 005a 0246     		mov	r2, r0
 339 005c 039B     		ldr	r3, [sp, #12]
 340 005e 9B6A     		ldr	r3, [r3, #40]
 341 0060 1046     		mov	r0, r2
 342 0062 1946     		mov	r1, r3
 343 0064 FFF7FEFF 		bl	prio_insert
 344              		.loc 2 143 0
 345 0068 039B     		ldr	r3, [sp, #12]
 346 006a 9B6A     		ldr	r3, [r3, #40]
 347 006c 9B68     		ldr	r3, [r3, #8]
 348 006e 0393     		str	r3, [sp, #12]
 349              		.loc 2 144 0
 350 0070 18E0     		b	.L12
 351              	.L16:
 352              		.loc 2 158 0
 353 0072 0398     		ldr	r0, [sp, #12]
 354 0074 FFF7FEFF 		bl	dequeue
 355 0078 0246     		mov	r2, r0
 356 007a 039B     		ldr	r3, [sp, #12]
 357 007c 9B6A     		ldr	r3, [r3, #40]
 358 007e 1046     		mov	r0, r2
 359 0080 1946     		mov	r1, r3
 360 0082 FFF7FEFF 		bl	prio_insert
 361              		.loc 2 159 0
 362 0086 0CE0     		b	.L13
 363              	.L14:
 364              		.loc 2 164 0
 365 0088 039B     		ldr	r3, [sp, #12]
 366 008a 4FF00102 		mov	r2, #1
 367 008e 83F82020 		strb	r2, [r3, #32]
 368              		.loc 2 167 0
 369 0092 0398     		ldr	r0, [sp, #12]
 370 0094 FFF7FEFF 		bl	dequeue
 371 0098 0346     		mov	r3, r0
 372 009a 1846     		mov	r0, r3
 373 009c FFF7FEFF 		bl	chSchReadyI
 374              		.loc 2 168 0
 375 00a0 00BF     		nop
 376              	.L13:
ARM GAS  C:\Users\z80\AppData\Local\Temp\ccDXx7yx.s 			page 8


 377              		.loc 2 170 0
 378 00a2 05E0     		b	.L17
 379              	.L12:
 380              		.loc 2 135 0 discriminator 1
 381 00a4 039B     		ldr	r3, [sp, #12]
 382 00a6 9A68     		ldr	r2, [r3, #8]
 383 00a8 029B     		ldr	r3, [sp, #8]
 384 00aa 9B68     		ldr	r3, [r3, #8]
 385 00ac 9A42     		cmp	r2, r3
 386 00ae C3D3     		bcc	.L18
 387              	.L17:
 388              		.loc 2 173 0
 389 00b0 019B     		ldr	r3, [sp, #4]
 390 00b2 0298     		ldr	r0, [sp, #8]
 391 00b4 1946     		mov	r1, r3
 392 00b6 FFF7FEFF 		bl	prio_insert
 393              		.loc 2 174 0
 394 00ba 029B     		ldr	r3, [sp, #8]
 395 00bc 019A     		ldr	r2, [sp, #4]
 396 00be 9A62     		str	r2, [r3, #40]
 397              		.loc 2 175 0
 398 00c0 4FF00400 		mov	r0, #4
 399 00c4 FFF7FEFF 		bl	chSchGoSleepS
 400              		.loc 2 178 0
 401 00c8 019B     		ldr	r3, [sp, #4]
 402 00ca 9A68     		ldr	r2, [r3, #8]
 403 00cc 029B     		ldr	r3, [sp, #8]
 404 00ce 9A42     		cmp	r2, r3
 405 00d0 05D0     		beq	.L19
 406              		.loc 2 178 0 is_stmt 0 discriminator 1
 407 00d2 40F20000 		movw	r0, #:lower16:.LC2
 408 00d6 C0F20000 		movt	r0, #:upper16:.LC2
 409 00da FFF7FEFF 		bl	chDbgPanic
 410              	.L19:
 411              		.loc 2 179 0 is_stmt 1
 412 00de 029B     		ldr	r3, [sp, #8]
 413 00e0 1A6C     		ldr	r2, [r3, #64]
 414 00e2 019B     		ldr	r3, [sp, #4]
 415 00e4 9A42     		cmp	r2, r3
 416 00e6 10D0     		beq	.L9
 417              		.loc 2 179 0 is_stmt 0 discriminator 1
 418 00e8 40F20000 		movw	r0, #:lower16:.LC3
 419 00ec C0F20000 		movt	r0, #:upper16:.LC3
 420 00f0 FFF7FEFF 		bl	chDbgPanic
 421 00f4 09E0     		b	.L9
 422              	.L11:
 423              	.LBE4:
 424              		.loc 2 183 0 is_stmt 1
 425 00f6 019B     		ldr	r3, [sp, #4]
 426 00f8 029A     		ldr	r2, [sp, #8]
 427 00fa 9A60     		str	r2, [r3, #8]
 428              		.loc 2 184 0
 429 00fc 029B     		ldr	r3, [sp, #8]
 430 00fe 1A6C     		ldr	r2, [r3, #64]
 431 0100 019B     		ldr	r3, [sp, #4]
 432 0102 DA60     		str	r2, [r3, #12]
 433              		.loc 2 185 0
ARM GAS  C:\Users\z80\AppData\Local\Temp\ccDXx7yx.s 			page 9


 434 0104 029B     		ldr	r3, [sp, #8]
 435 0106 019A     		ldr	r2, [sp, #4]
 436 0108 1A64     		str	r2, [r3, #64]
 437              	.L9:
 438              		.loc 2 187 0
 439 010a 05B0     		add	sp, sp, #20
 440 010c 00BD     		pop	{pc}
 441              		.cfi_endproc
 442              	.LFE9:
 443              		.size	chMtxLockS, .-chMtxLockS
 444 010e 00BF     		.section	.text.chMtxTryLock,"ax",%progbits
 445              		.align	2
 446              		.p2align 4,,15
 447              		.global	chMtxTryLock
 448              		.thumb
 449              		.thumb_func
 450              		.type	chMtxTryLock, %function
 451              	chMtxTryLock:
 452              	.LFB10:
 453              		.loc 2 206 0
 454              		.cfi_startproc
 455              		@ args = 0, pretend = 0, frame = 16
 456              		@ frame_needed = 0, uses_anonymous_args = 0
 457 0000 00B5     		push	{lr}
 458              	.LCFI9:
 459              		.cfi_def_cfa_offset 4
 460              		.cfi_offset 14, -4
 461 0002 85B0     		sub	sp, sp, #20
 462              	.LCFI10:
 463              		.cfi_def_cfa_offset 24
 464 0004 0190     		str	r0, [sp, #4]
 465              	.LBB5:
 466              		.loc 2 209 0
 467 0006 4FF02003 		mov	r3, #32
 468              	@ 209 "../chibios_2.4.x/os/kernel/src/chmtx.c" 1
 469 000a 83F31188 		msr     BASEPRI, r3
 470              	@ 0 "" 2
 471              		.thumb
 472              	.LBE5:
 473 000e FFF7FEFF 		bl	dbg_check_lock
 474              		.loc 2 211 0
 475 0012 0198     		ldr	r0, [sp, #4]
 476 0014 FFF7FEFF 		bl	chMtxTryLockS
 477 0018 0390     		str	r0, [sp, #12]
 478              		.loc 2 213 0
 479 001a FFF7FEFF 		bl	dbg_check_unlock
 480              	.LBB6:
 481 001e 4FF00003 		mov	r3, #0
 482              	@ 213 "../chibios_2.4.x/os/kernel/src/chmtx.c" 1
 483 0022 83F31188 		msr     BASEPRI, r3
 484              	@ 0 "" 2
 485              		.thumb
 486              	.LBE6:
 487              		.loc 2 214 0
 488 0026 039B     		ldr	r3, [sp, #12]
 489              		.loc 2 215 0
 490 0028 1846     		mov	r0, r3
ARM GAS  C:\Users\z80\AppData\Local\Temp\ccDXx7yx.s 			page 10


 491 002a 05B0     		add	sp, sp, #20
 492 002c 00BD     		pop	{pc}
 493              		.cfi_endproc
 494              	.LFE10:
 495              		.size	chMtxTryLock, .-chMtxTryLock
 496 002e 00BF     		.section	.rodata
 497 0045 000000   		.align	2
 498              	.LC4:
 499 0048 2263684D 		.ascii	"\"chMtxTryLockS\"()\000"
 499      74785472 
 499      794C6F63 
 499      6B532228 
 499      2900
 500              		.section	.text.chMtxTryLockS,"ax",%progbits
 501              		.align	2
 502              		.p2align 4,,15
 503              		.global	chMtxTryLockS
 504              		.thumb
 505              		.thumb_func
 506              		.type	chMtxTryLockS, %function
 507              	chMtxTryLockS:
 508              	.LFB11:
 509              		.loc 2 234 0
 510              		.cfi_startproc
 511              		@ args = 0, pretend = 0, frame = 8
 512              		@ frame_needed = 0, uses_anonymous_args = 0
 513 0000 00B5     		push	{lr}
 514              	.LCFI11:
 515              		.cfi_def_cfa_offset 4
 516              		.cfi_offset 14, -4
 517 0002 83B0     		sub	sp, sp, #12
 518              	.LCFI12:
 519              		.cfi_def_cfa_offset 16
 520 0004 0190     		str	r0, [sp, #4]
 521              		.loc 2 236 0
 522 0006 FFF7FEFF 		bl	chDbgCheckClassS
 523              		.loc 2 237 0
 524 000a 019B     		ldr	r3, [sp, #4]
 525 000c 002B     		cmp	r3, #0
 526 000e 05D1     		bne	.L23
 527              		.loc 2 237 0 is_stmt 0 discriminator 1
 528 0010 40F20000 		movw	r0, #:lower16:.LC4
 529 0014 C0F20000 		movt	r0, #:upper16:.LC4
 530 0018 FFF7FEFF 		bl	chDbgPanic
 531              	.L23:
 532              		.loc 2 239 0 is_stmt 1
 533 001c 019B     		ldr	r3, [sp, #4]
 534 001e 9B68     		ldr	r3, [r3, #8]
 535 0020 002B     		cmp	r3, #0
 536 0022 02D0     		beq	.L24
 537              		.loc 2 240 0
 538 0024 4FF00003 		mov	r3, #0
 539 0028 17E0     		b	.L25
 540              	.L24:
 541              		.loc 2 241 0
 542 002a 40F20003 		movw	r3, #:lower16:rlist
 543 002e C0F20003 		movt	r3, #:upper16:rlist
ARM GAS  C:\Users\z80\AppData\Local\Temp\ccDXx7yx.s 			page 11


 544 0032 DA69     		ldr	r2, [r3, #28]
 545 0034 019B     		ldr	r3, [sp, #4]
 546 0036 9A60     		str	r2, [r3, #8]
 547              		.loc 2 242 0
 548 0038 40F20003 		movw	r3, #:lower16:rlist
 549 003c C0F20003 		movt	r3, #:upper16:rlist
 550 0040 DB69     		ldr	r3, [r3, #28]
 551 0042 1A6C     		ldr	r2, [r3, #64]
 552 0044 019B     		ldr	r3, [sp, #4]
 553 0046 DA60     		str	r2, [r3, #12]
 554              		.loc 2 243 0
 555 0048 40F20003 		movw	r3, #:lower16:rlist
 556 004c C0F20003 		movt	r3, #:upper16:rlist
 557 0050 DB69     		ldr	r3, [r3, #28]
 558 0052 019A     		ldr	r2, [sp, #4]
 559 0054 1A64     		str	r2, [r3, #64]
 560              		.loc 2 244 0
 561 0056 4FF00103 		mov	r3, #1
 562              	.L25:
 563              		.loc 2 245 0
 564 005a 1846     		mov	r0, r3
 565 005c 03B0     		add	sp, sp, #12
 566 005e 00BD     		pop	{pc}
 567              		.cfi_endproc
 568              	.LFE11:
 569              		.size	chMtxTryLockS, .-chMtxTryLockS
 570              		.section	.rodata
 571 005a 0000     		.align	2
 572              	.LC5:
 573 005c 63684D74 		.ascii	"chMtxUnlock(), #1\000"
 573      78556E6C 
 573      6F636B28 
 573      292C2023 
 573      3100
 574 006e 0000     		.align	2
 575              	.LC6:
 576 0070 63684D74 		.ascii	"chMtxUnlock(), #2\000"
 576      78556E6C 
 576      6F636B28 
 576      292C2023 
 576      3200
 577              		.section	.text.chMtxUnlock,"ax",%progbits
 578              		.align	2
 579              		.p2align 4,,15
 580              		.global	chMtxUnlock
 581              		.thumb
 582              		.thumb_func
 583              		.type	chMtxUnlock, %function
 584              	chMtxUnlock:
 585              	.LFB12:
 586              		.loc 2 257 0
 587              		.cfi_startproc
 588              		@ args = 0, pretend = 0, frame = 24
 589              		@ frame_needed = 0, uses_anonymous_args = 0
 590 0000 00B5     		push	{lr}
 591              	.LCFI13:
 592              		.cfi_def_cfa_offset 4
ARM GAS  C:\Users\z80\AppData\Local\Temp\ccDXx7yx.s 			page 12


 593              		.cfi_offset 14, -4
 594 0002 87B0     		sub	sp, sp, #28
 595              	.LCFI14:
 596              		.cfi_def_cfa_offset 32
 597              		.loc 2 258 0
 598 0004 40F20003 		movw	r3, #:lower16:rlist
 599 0008 C0F20003 		movt	r3, #:upper16:rlist
 600 000c DB69     		ldr	r3, [r3, #28]
 601 000e 0393     		str	r3, [sp, #12]
 602              	.LBB7:
 603              		.loc 2 261 0
 604 0010 4FF02003 		mov	r3, #32
 605              	@ 261 "../chibios_2.4.x/os/kernel/src/chmtx.c" 1
 606 0014 83F31188 		msr     BASEPRI, r3
 607              	@ 0 "" 2
 608              		.thumb
 609              	.LBE7:
 610 0018 FFF7FEFF 		bl	dbg_check_lock
 611              		.loc 2 262 0
 612 001c 039B     		ldr	r3, [sp, #12]
 613 001e 1B6C     		ldr	r3, [r3, #64]
 614 0020 002B     		cmp	r3, #0
 615 0022 05D1     		bne	.L27
 616              		.loc 2 262 0 is_stmt 0 discriminator 1
 617 0024 40F20000 		movw	r0, #:lower16:.LC5
 618 0028 C0F20000 		movt	r0, #:upper16:.LC5
 619 002c FFF7FEFF 		bl	chDbgPanic
 620              	.L27:
 621              		.loc 2 265 0 is_stmt 1
 622 0030 039B     		ldr	r3, [sp, #12]
 623 0032 1B6C     		ldr	r3, [r3, #64]
 624 0034 9A68     		ldr	r2, [r3, #8]
 625 0036 039B     		ldr	r3, [sp, #12]
 626 0038 9A42     		cmp	r2, r3
 627 003a 05D0     		beq	.L28
 628              		.loc 2 265 0 is_stmt 0 discriminator 1
 629 003c 40F20000 		movw	r0, #:lower16:.LC6
 630 0040 C0F20000 		movt	r0, #:upper16:.LC6
 631 0044 FFF7FEFF 		bl	chDbgPanic
 632              	.L28:
 633              		.loc 2 270 0 is_stmt 1
 634 0048 039B     		ldr	r3, [sp, #12]
 635 004a 1B6C     		ldr	r3, [r3, #64]
 636 004c 0293     		str	r3, [sp, #8]
 637              		.loc 2 271 0
 638 004e 029B     		ldr	r3, [sp, #8]
 639 0050 DA68     		ldr	r2, [r3, #12]
 640 0052 039B     		ldr	r3, [sp, #12]
 641 0054 1A64     		str	r2, [r3, #64]
 642              		.loc 2 273 0
 643 0056 029B     		ldr	r3, [sp, #8]
 644 0058 1A68     		ldr	r2, [r3, #0]
 645 005a 029B     		ldr	r3, [sp, #8]
 646 005c 9A42     		cmp	r2, r3
 647 005e 33D0     		beq	.L29
 648              	.LBB8:
 649              		.loc 2 278 0
ARM GAS  C:\Users\z80\AppData\Local\Temp\ccDXx7yx.s 			page 13


 650 0060 039B     		ldr	r3, [sp, #12]
 651 0062 5B6C     		ldr	r3, [r3, #68]
 652 0064 0493     		str	r3, [sp, #16]
 653              		.loc 2 279 0
 654 0066 039B     		ldr	r3, [sp, #12]
 655 0068 1B6C     		ldr	r3, [r3, #64]
 656 006a 0593     		str	r3, [sp, #20]
 657              		.loc 2 280 0
 658 006c 11E0     		b	.L30
 659              	.L32:
 660              		.loc 2 284 0
 661 006e 059B     		ldr	r3, [sp, #20]
 662 0070 1A68     		ldr	r2, [r3, #0]
 663 0072 059B     		ldr	r3, [sp, #20]
 664 0074 9A42     		cmp	r2, r3
 665 0076 09D0     		beq	.L31
 666              		.loc 2 284 0 is_stmt 0 discriminator 1
 667 0078 059B     		ldr	r3, [sp, #20]
 668 007a 1B68     		ldr	r3, [r3, #0]
 669 007c 9A68     		ldr	r2, [r3, #8]
 670 007e 049B     		ldr	r3, [sp, #16]
 671 0080 9A42     		cmp	r2, r3
 672 0082 03D9     		bls	.L31
 673              		.loc 2 285 0 is_stmt 1
 674 0084 059B     		ldr	r3, [sp, #20]
 675 0086 1B68     		ldr	r3, [r3, #0]
 676 0088 9B68     		ldr	r3, [r3, #8]
 677 008a 0493     		str	r3, [sp, #16]
 678              	.L31:
 679              		.loc 2 286 0
 680 008c 059B     		ldr	r3, [sp, #20]
 681 008e DB68     		ldr	r3, [r3, #12]
 682 0090 0593     		str	r3, [sp, #20]
 683              	.L30:
 684              		.loc 2 280 0 discriminator 1
 685 0092 059B     		ldr	r3, [sp, #20]
 686 0094 002B     		cmp	r3, #0
 687 0096 EAD1     		bne	.L32
 688              		.loc 2 290 0
 689 0098 039B     		ldr	r3, [sp, #12]
 690 009a 049A     		ldr	r2, [sp, #16]
 691 009c 9A60     		str	r2, [r3, #8]
 692              		.loc 2 293 0
 693 009e 029B     		ldr	r3, [sp, #8]
 694 00a0 1846     		mov	r0, r3
 695 00a2 FFF7FEFF 		bl	fifo_remove
 696 00a6 0190     		str	r0, [sp, #4]
 697              		.loc 2 294 0
 698 00a8 029B     		ldr	r3, [sp, #8]
 699 00aa 019A     		ldr	r2, [sp, #4]
 700 00ac 9A60     		str	r2, [r3, #8]
 701              		.loc 2 295 0
 702 00ae 019B     		ldr	r3, [sp, #4]
 703 00b0 1A6C     		ldr	r2, [r3, #64]
 704 00b2 029B     		ldr	r3, [sp, #8]
 705 00b4 DA60     		str	r2, [r3, #12]
 706              		.loc 2 296 0
ARM GAS  C:\Users\z80\AppData\Local\Temp\ccDXx7yx.s 			page 14


 707 00b6 019B     		ldr	r3, [sp, #4]
 708 00b8 029A     		ldr	r2, [sp, #8]
 709 00ba 1A64     		str	r2, [r3, #64]
 710              		.loc 2 297 0
 711 00bc 0198     		ldr	r0, [sp, #4]
 712 00be 4FF00001 		mov	r1, #0
 713 00c2 FFF7FEFF 		bl	chSchWakeupS
 714 00c6 03E0     		b	.L33
 715              	.L29:
 716              	.LBE8:
 717              		.loc 2 300 0
 718 00c8 029B     		ldr	r3, [sp, #8]
 719 00ca 4FF00002 		mov	r2, #0
 720 00ce 9A60     		str	r2, [r3, #8]
 721              	.L33:
 722              		.loc 2 301 0
 723 00d0 FFF7FEFF 		bl	dbg_check_unlock
 724              	.LBB9:
 725 00d4 4FF00003 		mov	r3, #0
 726              	@ 301 "../chibios_2.4.x/os/kernel/src/chmtx.c" 1
 727 00d8 83F31188 		msr     BASEPRI, r3
 728              	@ 0 "" 2
 729              		.thumb
 730              	.LBE9:
 731              		.loc 2 302 0
 732 00dc 029B     		ldr	r3, [sp, #8]
 733              		.loc 2 303 0
 734 00de 1846     		mov	r0, r3
 735 00e0 07B0     		add	sp, sp, #28
 736 00e2 00BD     		pop	{pc}
 737              		.cfi_endproc
 738              	.LFE12:
 739              		.size	chMtxUnlock, .-chMtxUnlock
 740 00e4 AFF30080 		.section	.rodata
 740      AFF30080 
 740      AFF30080 
 741 0082 0000     		.align	2
 742              	.LC7:
 743 0084 63684D74 		.ascii	"chMtxUnlockS(), #1\000"
 743      78556E6C 
 743      6F636B53 
 743      28292C20 
 743      233100
 744 0097 00       		.align	2
 745              	.LC8:
 746 0098 63684D74 		.ascii	"chMtxUnlockS(), #2\000"
 746      78556E6C 
 746      6F636B53 
 746      28292C20 
 746      233200
 747 00ab 00       		.section	.text.chMtxUnlockS,"ax",%progbits
 748              		.align	2
 749              		.p2align 4,,15
 750              		.global	chMtxUnlockS
 751              		.thumb
 752              		.thumb_func
 753              		.type	chMtxUnlockS, %function
ARM GAS  C:\Users\z80\AppData\Local\Temp\ccDXx7yx.s 			page 15


 754              	chMtxUnlockS:
 755              	.LFB13:
 756              		.loc 2 317 0
 757              		.cfi_startproc
 758              		@ args = 0, pretend = 0, frame = 24
 759              		@ frame_needed = 0, uses_anonymous_args = 0
 760 0000 00B5     		push	{lr}
 761              	.LCFI15:
 762              		.cfi_def_cfa_offset 4
 763              		.cfi_offset 14, -4
 764 0002 87B0     		sub	sp, sp, #28
 765              	.LCFI16:
 766              		.cfi_def_cfa_offset 32
 767              		.loc 2 318 0
 768 0004 40F20003 		movw	r3, #:lower16:rlist
 769 0008 C0F20003 		movt	r3, #:upper16:rlist
 770 000c DB69     		ldr	r3, [r3, #28]
 771 000e 0393     		str	r3, [sp, #12]
 772              		.loc 2 321 0
 773 0010 FFF7FEFF 		bl	chDbgCheckClassS
 774              		.loc 2 322 0
 775 0014 039B     		ldr	r3, [sp, #12]
 776 0016 1B6C     		ldr	r3, [r3, #64]
 777 0018 002B     		cmp	r3, #0
 778 001a 05D1     		bne	.L35
 779              		.loc 2 322 0 is_stmt 0 discriminator 1
 780 001c 40F20000 		movw	r0, #:lower16:.LC7
 781 0020 C0F20000 		movt	r0, #:upper16:.LC7
 782 0024 FFF7FEFF 		bl	chDbgPanic
 783              	.L35:
 784              		.loc 2 325 0 is_stmt 1
 785 0028 039B     		ldr	r3, [sp, #12]
 786 002a 1B6C     		ldr	r3, [r3, #64]
 787 002c 9A68     		ldr	r2, [r3, #8]
 788 002e 039B     		ldr	r3, [sp, #12]
 789 0030 9A42     		cmp	r2, r3
 790 0032 05D0     		beq	.L36
 791              		.loc 2 325 0 is_stmt 0 discriminator 1
 792 0034 40F20000 		movw	r0, #:lower16:.LC8
 793 0038 C0F20000 		movt	r0, #:upper16:.LC8
 794 003c FFF7FEFF 		bl	chDbgPanic
 795              	.L36:
 796              		.loc 2 331 0 is_stmt 1
 797 0040 039B     		ldr	r3, [sp, #12]
 798 0042 1B6C     		ldr	r3, [r3, #64]
 799 0044 0293     		str	r3, [sp, #8]
 800              		.loc 2 332 0
 801 0046 029B     		ldr	r3, [sp, #8]
 802 0048 DA68     		ldr	r2, [r3, #12]
 803 004a 039B     		ldr	r3, [sp, #12]
 804 004c 1A64     		str	r2, [r3, #64]
 805              		.loc 2 334 0
 806 004e 029B     		ldr	r3, [sp, #8]
 807 0050 1A68     		ldr	r2, [r3, #0]
 808 0052 029B     		ldr	r3, [sp, #8]
 809 0054 9A42     		cmp	r2, r3
 810 0056 31D0     		beq	.L37
ARM GAS  C:\Users\z80\AppData\Local\Temp\ccDXx7yx.s 			page 16


 811              	.LBB10:
 812              		.loc 2 339 0
 813 0058 039B     		ldr	r3, [sp, #12]
 814 005a 5B6C     		ldr	r3, [r3, #68]
 815 005c 0493     		str	r3, [sp, #16]
 816              		.loc 2 340 0
 817 005e 039B     		ldr	r3, [sp, #12]
 818 0060 1B6C     		ldr	r3, [r3, #64]
 819 0062 0593     		str	r3, [sp, #20]
 820              		.loc 2 341 0
 821 0064 11E0     		b	.L38
 822              	.L40:
 823              		.loc 2 345 0
 824 0066 059B     		ldr	r3, [sp, #20]
 825 0068 1A68     		ldr	r2, [r3, #0]
 826 006a 059B     		ldr	r3, [sp, #20]
 827 006c 9A42     		cmp	r2, r3
 828 006e 09D0     		beq	.L39
 829              		.loc 2 345 0 is_stmt 0 discriminator 1
 830 0070 059B     		ldr	r3, [sp, #20]
 831 0072 1B68     		ldr	r3, [r3, #0]
 832 0074 9A68     		ldr	r2, [r3, #8]
 833 0076 049B     		ldr	r3, [sp, #16]
 834 0078 9A42     		cmp	r2, r3
 835 007a 03D9     		bls	.L39
 836              		.loc 2 346 0 is_stmt 1
 837 007c 059B     		ldr	r3, [sp, #20]
 838 007e 1B68     		ldr	r3, [r3, #0]
 839 0080 9B68     		ldr	r3, [r3, #8]
 840 0082 0493     		str	r3, [sp, #16]
 841              	.L39:
 842              		.loc 2 347 0
 843 0084 059B     		ldr	r3, [sp, #20]
 844 0086 DB68     		ldr	r3, [r3, #12]
 845 0088 0593     		str	r3, [sp, #20]
 846              	.L38:
 847              		.loc 2 341 0 discriminator 1
 848 008a 059B     		ldr	r3, [sp, #20]
 849 008c 002B     		cmp	r3, #0
 850 008e EAD1     		bne	.L40
 851              		.loc 2 349 0
 852 0090 039B     		ldr	r3, [sp, #12]
 853 0092 049A     		ldr	r2, [sp, #16]
 854 0094 9A60     		str	r2, [r3, #8]
 855              		.loc 2 352 0
 856 0096 029B     		ldr	r3, [sp, #8]
 857 0098 1846     		mov	r0, r3
 858 009a FFF7FEFF 		bl	fifo_remove
 859 009e 0190     		str	r0, [sp, #4]
 860              		.loc 2 353 0
 861 00a0 029B     		ldr	r3, [sp, #8]
 862 00a2 019A     		ldr	r2, [sp, #4]
 863 00a4 9A60     		str	r2, [r3, #8]
 864              		.loc 2 354 0
 865 00a6 019B     		ldr	r3, [sp, #4]
 866 00a8 1A6C     		ldr	r2, [r3, #64]
 867 00aa 029B     		ldr	r3, [sp, #8]
ARM GAS  C:\Users\z80\AppData\Local\Temp\ccDXx7yx.s 			page 17


 868 00ac DA60     		str	r2, [r3, #12]
 869              		.loc 2 355 0
 870 00ae 019B     		ldr	r3, [sp, #4]
 871 00b0 029A     		ldr	r2, [sp, #8]
 872 00b2 1A64     		str	r2, [r3, #64]
 873              		.loc 2 356 0
 874 00b4 0198     		ldr	r0, [sp, #4]
 875 00b6 FFF7FEFF 		bl	chSchReadyI
 876 00ba 03E0     		b	.L41
 877              	.L37:
 878              	.LBE10:
 879              		.loc 2 359 0
 880 00bc 029B     		ldr	r3, [sp, #8]
 881 00be 4FF00002 		mov	r2, #0
 882 00c2 9A60     		str	r2, [r3, #8]
 883              	.L41:
 884              		.loc 2 360 0
 885 00c4 029B     		ldr	r3, [sp, #8]
 886              		.loc 2 361 0
 887 00c6 1846     		mov	r0, r3
 888 00c8 07B0     		add	sp, sp, #28
 889 00ca 00BD     		pop	{pc}
 890              		.cfi_endproc
 891              	.LFE13:
 892              		.size	chMtxUnlockS, .-chMtxUnlockS
 893 00cc AFF30080 		.section	.text.chMtxUnlockAll,"ax",%progbits
 894              		.align	2
 895              		.p2align 4,,15
 896              		.global	chMtxUnlockAll
 897              		.thumb
 898              		.thumb_func
 899              		.type	chMtxUnlockAll, %function
 900              	chMtxUnlockAll:
 901              	.LFB14:
 902              		.loc 2 374 0
 903              		.cfi_startproc
 904              		@ args = 0, pretend = 0, frame = 16
 905              		@ frame_needed = 0, uses_anonymous_args = 0
 906 0000 00B5     		push	{lr}
 907              	.LCFI17:
 908              		.cfi_def_cfa_offset 4
 909              		.cfi_offset 14, -4
 910 0002 85B0     		sub	sp, sp, #20
 911              	.LCFI18:
 912              		.cfi_def_cfa_offset 24
 913              		.loc 2 375 0
 914 0004 40F20003 		movw	r3, #:lower16:rlist
 915 0008 C0F20003 		movt	r3, #:upper16:rlist
 916 000c DB69     		ldr	r3, [r3, #28]
 917 000e 0393     		str	r3, [sp, #12]
 918              	.LBB11:
 919              		.loc 2 377 0
 920 0010 4FF02003 		mov	r3, #32
 921              	@ 377 "../chibios_2.4.x/os/kernel/src/chmtx.c" 1
 922 0014 83F31188 		msr     BASEPRI, r3
 923              	@ 0 "" 2
 924              		.thumb
ARM GAS  C:\Users\z80\AppData\Local\Temp\ccDXx7yx.s 			page 18


 925              	.LBE11:
 926 0018 FFF7FEFF 		bl	dbg_check_lock
 927              		.loc 2 378 0
 928 001c 039B     		ldr	r3, [sp, #12]
 929 001e 1B6C     		ldr	r3, [r3, #64]
 930 0020 002B     		cmp	r3, #0
 931 0022 2CD0     		beq	.L43
 932              	.L46:
 933              	.LBB12:
 934              		.loc 2 380 0
 935 0024 039B     		ldr	r3, [sp, #12]
 936 0026 1B6C     		ldr	r3, [r3, #64]
 937 0028 0293     		str	r3, [sp, #8]
 938              		.loc 2 381 0
 939 002a 029B     		ldr	r3, [sp, #8]
 940 002c DA68     		ldr	r2, [r3, #12]
 941 002e 039B     		ldr	r3, [sp, #12]
 942 0030 1A64     		str	r2, [r3, #64]
 943              		.loc 2 382 0
 944 0032 029B     		ldr	r3, [sp, #8]
 945 0034 1A68     		ldr	r2, [r3, #0]
 946 0036 029B     		ldr	r3, [sp, #8]
 947 0038 9A42     		cmp	r2, r3
 948 003a 12D0     		beq	.L44
 949              	.LBB13:
 950              		.loc 2 383 0
 951 003c 029B     		ldr	r3, [sp, #8]
 952 003e 1846     		mov	r0, r3
 953 0040 FFF7FEFF 		bl	fifo_remove
 954 0044 0190     		str	r0, [sp, #4]
 955              		.loc 2 384 0
 956 0046 029B     		ldr	r3, [sp, #8]
 957 0048 019A     		ldr	r2, [sp, #4]
 958 004a 9A60     		str	r2, [r3, #8]
 959              		.loc 2 385 0
 960 004c 019B     		ldr	r3, [sp, #4]
 961 004e 1A6C     		ldr	r2, [r3, #64]
 962 0050 029B     		ldr	r3, [sp, #8]
 963 0052 DA60     		str	r2, [r3, #12]
 964              		.loc 2 386 0
 965 0054 019B     		ldr	r3, [sp, #4]
 966 0056 029A     		ldr	r2, [sp, #8]
 967 0058 1A64     		str	r2, [r3, #64]
 968              		.loc 2 387 0
 969 005a 0198     		ldr	r0, [sp, #4]
 970 005c FFF7FEFF 		bl	chSchReadyI
 971 0060 03E0     		b	.L45
 972              	.L44:
 973              	.LBE13:
 974              		.loc 2 390 0
 975 0062 029B     		ldr	r3, [sp, #8]
 976 0064 4FF00002 		mov	r2, #0
 977 0068 9A60     		str	r2, [r3, #8]
 978              	.L45:
 979              	.LBE12:
 980              		.loc 2 391 0
 981 006a 039B     		ldr	r3, [sp, #12]
ARM GAS  C:\Users\z80\AppData\Local\Temp\ccDXx7yx.s 			page 19


 982 006c 1B6C     		ldr	r3, [r3, #64]
 983 006e 002B     		cmp	r3, #0
 984 0070 D8D1     		bne	.L46
 985              		.loc 2 392 0
 986 0072 039B     		ldr	r3, [sp, #12]
 987 0074 5A6C     		ldr	r2, [r3, #68]
 988 0076 039B     		ldr	r3, [sp, #12]
 989 0078 9A60     		str	r2, [r3, #8]
 990              		.loc 2 393 0
 991 007a FFF7FEFF 		bl	chSchRescheduleS
 992              	.L43:
 993              		.loc 2 395 0
 994 007e FFF7FEFF 		bl	dbg_check_unlock
 995              	.LBB14:
 996 0082 4FF00003 		mov	r3, #0
 997              	@ 395 "../chibios_2.4.x/os/kernel/src/chmtx.c" 1
 998 0086 83F31188 		msr     BASEPRI, r3
 999              	@ 0 "" 2
 1000              		.thumb
 1001              	.LBE14:
 1002              		.loc 2 396 0
 1003 008a 05B0     		add	sp, sp, #20
 1004 008c 00BD     		pop	{pc}
 1005              		.cfi_endproc
 1006              	.LFE14:
 1007              		.size	chMtxUnlockAll, .-chMtxUnlockAll
 1008 008e 00BF     		.text
 1009              	.Letext0:
 1010              		.file 3 "c:\\programs\\codesourcery\\2011.03-56\\bin\\../lib/gcc/arm-none-eabi/4.6.3/../../../../a
 1011              		.file 4 "../chibios_2.4.x/os/ports/GCC/ARMCMx/chtypes.h"
 1012              		.file 5 "../chibios_2.4.x/os/kernel/include/chlists.h"
 1013              		.file 6 "../chibios_2.4.x/os/kernel/include/chthreads.h"
 1014              		.file 7 "../chibios_2.4.x/os/ports/GCC/ARMCMx/chcore_v7m.h"
 1015              		.file 8 "../chibios_2.4.x/os/kernel/include/chschd.h"
 1016              		.file 9 "../chibios_2.4.x/os/kernel/include/chmtx.h"