ARM GAS  C:\Users\z80\AppData\Local\Temp\ccDXx7yx.s 			page 1


   1              		.syntax unified
   2              		.cpu cortex-m3
   3              		.fpu softvfp
   4              		.eabi_attribute 20, 1
   5              		.eabi_attribute 21, 1
   6              		.eabi_attribute 23, 3
   7              		.eabi_attribute 24, 1
   8              		.eabi_attribute 25, 1
   9              		.eabi_attribute 26, 1
  10              		.eabi_attribute 30, 6
  11              		.eabi_attribute 34, 1
  12              		.eabi_attribute 18, 4
  13              		.thumb
  14              		.file	"chmtx.c"
  15              		.text
  16              	.Ltext0:
  17              		.cfi_sections	.debug_frame
  18              		.section	.text.prio_insert,"ax",%progbits
  19              		.align	2
  20              		.p2align 4,,15
  21              		.thumb
  22              		.thumb_func
  23              		.type	prio_insert, %function
  24              	prio_insert:
  25              	.LFB0:
  26              		.file 1 "../chibios_2.4.x/os/kernel/include/chinline.h"
  27              		.loc 1 41 0
  28              		.cfi_startproc
  29              		@ args = 0, pretend = 0, frame = 16
  30              		@ frame_needed = 0, uses_anonymous_args = 0
  31              		@ link register save eliminated.
  32 0000 84B0     		sub	sp, sp, #16
  33              	.LCFI0:
  34              		.cfi_def_cfa_offset 16
  35 0002 0190     		str	r0, [sp, #4]
  36 0004 0091     		str	r1, [sp, #0]
  37              		.loc 1 43 0
  38 0006 009B     		ldr	r3, [sp, #0]
  39 0008 0393     		str	r3, [sp, #12]
  40              	.L3:
  41              		.loc 1 45 0 discriminator 1
  42 000a 039B     		ldr	r3, [sp, #12]
  43 000c 1B68     		ldr	r3, [r3, #0]
  44 000e 0393     		str	r3, [sp, #12]
  45              		.loc 1 46 0 discriminator 1
  46 0010 039A     		ldr	r2, [sp, #12]
  47 0012 009B     		ldr	r3, [sp, #0]
  48 0014 9A42     		cmp	r2, r3
  49 0016 05D0     		beq	.L2
  50 0018 039B     		ldr	r3, [sp, #12]
  51 001a 9A68     		ldr	r2, [r3, #8]
  52 001c 019B     		ldr	r3, [sp, #4]
  53 001e 9B68     		ldr	r3, [r3, #8]
  54 0020 9A42     		cmp	r2, r3
  55 0022 F2D2     		bcs	.L3
  56              	.L2:
  57              		.loc 1 47 0
ARM GAS  C:\Users\z80\AppData\Local\Temp\ccDXx7yx.s 			page 2


  58 0024 019B     		ldr	r3, [sp, #4]
  59 0026 039A     		ldr	r2, [sp, #12]
  60 0028 1A60     		str	r2, [r3, #0]
  61              		.loc 1 48 0
  62 002a 039B     		ldr	r3, [sp, #12]
  63 002c 5A68     		ldr	r2, [r3, #4]
  64 002e 019B     		ldr	r3, [sp, #4]
  65 0030 5A60     		str	r2, [r3, #4]
  66              		.loc 1 49 0
  67 0032 019B     		ldr	r3, [sp, #4]
  68 0034 5B68     		ldr	r3, [r3, #4]
  69 0036 039A     		ldr	r2, [sp, #12]
  70 0038 0199     		ldr	r1, [sp, #4]
  71 003a 5160     		str	r1, [r2, #4]
  72 003c 039A     		ldr	r2, [sp, #12]
  73 003e 5268     		ldr	r2, [r2, #4]
  74 0040 1A60     		str	r2, [r3, #0]
  75              		.loc 1 50 0
  76 0042 04B0     		add	sp, sp, #16
  77 0044 7047     		bx	lr
  78              		.cfi_endproc
  79              	.LFE0:
  80              		.size	prio_insert, .-prio_insert
  81 0046 00BFAFF3 		.section	.text.fifo_remove,"ax",%progbits
  81      0080AFF3 
  81      0080
  82              		.align	2
  83              		.p2align 4,,15
  84              		.thumb
  85              		.thumb_func
  86              		.type	fifo_remove, %function
  87              	fifo_remove:
  88              	.LFB2:
  89              		.loc 1 59 0
  90              		.cfi_startproc
  91              		@ args = 0, pretend = 0, frame = 16
  92              		@ frame_needed = 0, uses_anonymous_args = 0
  93              		@ link register save eliminated.
  94 0000 84B0     		sub	sp, sp, #16
  95              	.LCFI1:
  96              		.cfi_def_cfa_offset 16
  97 0002 0190     		str	r0, [sp, #4]
  98              		.loc 1 60 0
  99 0004 019B     		ldr	r3, [sp, #4]
 100 0006 1B68     		ldr	r3, [r3, #0]
 101 0008 0393     		str	r3, [sp, #12]
 102              		.loc 1 62 0
 103 000a 039B     		ldr	r3, [sp, #12]
 104 000c 1A68     		ldr	r2, [r3, #0]
 105 000e 019B     		ldr	r3, [sp, #4]
 106 0010 1A60     		str	r2, [r3, #0]
 107 0012 019B     		ldr	r3, [sp, #4]
 108 0014 1B68     		ldr	r3, [r3, #0]
 109 0016 019A     		ldr	r2, [sp, #4]
 110 0018 5A60     		str	r2, [r3, #4]
 111              		.loc 1 63 0
 112 001a 039B     		ldr	r3, [sp, #12]
ARM GAS  C:\Users\z80\AppData\Local\Temp\ccDXx7yx.s 			page 3


 113              		.loc 1 64 0
 114 001c 1846     		mov	r0, r3
 115 001e 04B0     		add	sp, sp, #16
 116 0020 7047     		bx	lr
 117              		.cfi_endproc
 118              	.LFE2:
 119              		.size	fifo_remove, .-fifo_remove
 120 0022 00BFAFF3 		.section	.text.dequeue,"ax",%progbits
 120      0080AFF3 
 120      0080AFF3 
 120      0080
 121              		.align	2
 122              		.p2align 4,,15
 123              		.thumb
 124              		.thumb_func
 125              		.type	dequeue, %function
 126              	dequeue:
 127              	.LFB4:
 128              		.loc 1 73 0
 129              		.cfi_startproc
 130              		@ args = 0, pretend = 0, frame = 8
 131              		@ frame_needed = 0, uses_anonymous_args = 0
 132              		@ link register save eliminated.
 133 0000 82B0     		sub	sp, sp, #8
 134              	.LCFI2:
 135              		.cfi_def_cfa_offset 8
 136 0002 0190     		str	r0, [sp, #4]
 137              		.loc 1 75 0
 138 0004 019B     		ldr	r3, [sp, #4]
 139 0006 5B68     		ldr	r3, [r3, #4]
 140 0008 019A     		ldr	r2, [sp, #4]
 141 000a 1268     		ldr	r2, [r2, #0]
 142 000c 1A60     		str	r2, [r3, #0]
 143              		.loc 1 76 0
 144 000e 019B     		ldr	r3, [sp, #4]
 145 0010 1B68     		ldr	r3, [r3, #0]
 146 0012 019A     		ldr	r2, [sp, #4]
 147 0014 5268     		ldr	r2, [r2, #4]
 148 0016 5A60     		str	r2, [r3, #4]
 149              		.loc 1 77 0
 150 0018 019B     		ldr	r3, [sp, #4]
 151              		.loc 1 78 0
 152 001a 1846     		mov	r0, r3
 153 001c 02B0     		add	sp, sp, #8
 154 001e 7047     		bx	lr
 155              		.cfi_endproc
 156              	.LFE4:
 157              		.size	dequeue, .-dequeue
 158              		.section	.rodata
 159              		.align	2
 160              	.LC0:
 161 0000 2263684D 		.ascii	"\"chMtxInit\"()\000"
 161      7478496E 
 161      69742228 
 161      2900
 162              		.section	.text.chMtxInit,"ax",%progbits
 163              		.align	2
ARM GAS  C:\Users\z80\AppData\Local\Temp\ccDXx7yx.s 			page 4


 164              		.p2align 4,,15
 165              		.global	chMtxInit
 166              		.thumb
 167              		.thumb_func
 168              		.type	chMtxInit, %function
 169              	chMtxInit:
 170              	.LFB7:
 171              		.file 2 "../chibios_2.4.x/os/kernel/src/chmtx.c"
 172              		.loc 2 86 0
 173              		.cfi_startproc
 174              		@ args = 0, pretend = 0, frame = 8
 175              		@ frame_needed = 0, uses_anonymous_args = 0
 176 0000 00B5     		push	{lr}
 177              	.LCFI3:
 178              		.cfi_def_cfa_offset 4
 179              		.cfi_offset 14, -4
 180 0002 83B0     		sub	sp, sp, #12
 181              	.LCFI4:
 182              		.cfi_def_cfa_offset 16
 183 0004 0190     		str	r0, [sp, #4]
 184              		.loc 2 88 0
 185 0006 019B     		ldr	r3, [sp, #4]
 186 0008 002B     		cmp	r3, #0
 187 000a 05D1     		bne	.L7
 188              		.loc 2 88 0 is_stmt 0 discriminator 1
 189 000c 40F20000 		movw	r0, #:lower16:.LC0
 190 0010 C0F20000 		movt	r0, #:upper16:.LC0
 191 0014 FFF7FEFF 		bl	chDbgPanic
 192              	.L7:
 193              		.loc 2 90 0 is_stmt 1
 194 0018 019A     		ldr	r2, [sp, #4]
 195 001a 019B     		ldr	r3, [sp, #4]
 196 001c 5A60     		str	r2, [r3, #4]
 197 001e 019B     		ldr	r3, [sp, #4]
 198 0020 5A68     		ldr	r2, [r3, #4]
 199 0022 019B     		ldr	r3, [sp, #4]
 200 0024 1A60     		str	r2, [r3, #0]
 201              		.loc 2 91 0
 202 0026 019B     		ldr	r3, [sp, #4]
 203 0028 4FF00002 		mov	r2, #0
 204 002c 9A60     		str	r2, [r3, #8]
 205              		.loc 2 92 0
 206 002e 03B0     		add	sp, sp, #12
 207 0030 00BD     		pop	{pc}
 208              		.cfi_endproc
 209              	.LFE7:
 210              		.size	chMtxInit, .-chMtxInit
 211 0032 00BFAFF3 		.section	.text.chMtxLock,"ax",%progbits
 211      0080AFF3 
 211      0080AFF3 
 211      0080
 212              		.align	2
 213              		.p2align 4,,15
 214              		.global	chMtxLock
 215              		.thumb
 216              		.thumb_func
 217              		.type	chMtxLock, %function
ARM GAS  C:\Users\z80\AppData\Local\Temp\ccDXx7yx.s 			page 5


 218              	chMtxLock:
 219              	.LFB8:
 220              		.loc 2 103 0
 221              		.cfi_startproc
 222              		@ args = 0, pretend = 0, frame = 8
 223              		@ frame_needed = 0, uses_anonymous_args = 0
 224 0000 00B5     		push	{lr}
 225              	.LCFI5:
 226              		.cfi_def_cfa_offset 4
 227              		.cfi_offset 14, -4
 228 0002 83B0     		sub	sp, sp, #12
 229              	.LCFI6:
 230              		.cfi_def_cfa_offset 16
 231 0004 0190     		str	r0, [sp, #4]
 232              	.LBB2:
 233              		.loc 2 105 0
 234 0006 4FF02003 		mov	r3, #32
 235              	@ 105 "../chibios_2.4.x/os/kernel/src/chmtx.c" 1
 236 000a 83F31188 		msr     BASEPRI, r3
 237              	@ 0 "" 2
 238              		.thumb
 239              	.LBE2:
 240 000e FFF7FEFF 		bl	dbg_check_lock
 241              		.loc 2 107 0
 242 0012 0198     		ldr	r0, [sp, #4]
 243 0014 FFF7FEFF 		bl	chMtxLockS
 244              		.loc 2 109 0
 245 0018 FFF7FEFF 		bl	dbg_check_unlock
 246              	.LBB3:
 247 001c 4FF00003 		mov	r3, #0
 248              	@ 109 "../chibios_2.4.x/os/kernel/src/chmtx.c" 1
 249 0020 83F31188 		msr     BASEPRI, r3
 250              	@ 0 "" 2
 251              		.thumb
 252              	.LBE3:
 253              		.loc 2 110 0
 254 0024 03B0     		add	sp, sp, #12
 255 0026 00BD     		pop	{pc}
 256              		.cfi_endproc
 257              	.LFE8:
 258              		.size	chMtxLock, .-chMtxLock
 259 0028 AFF30080 		.section	.rodata
 259      AFF30080 
 260 000e 0000     		.align	2
 261              	.LC1:
 262 0010 2263684D 		.ascii	"\"chMtxLockS\"()\000"
 262      74784C6F 
 262      636B5322 
 262      282900
 263 001f 00       		.align	2
 264              	.LC2:
 265 0020 63684D74 		.ascii	"chMtxLockS(), #1\000"
 265      784C6F63 
 265      6B532829 
 265      2C202331 
 265      00
 266 0031 000000   		.align	2
ARM GAS  C:\Users\z80\AppData\Local\Temp\ccDXx7yx.s 			page 6


 267              	.LC3:
 268 0034 63684D74 		.ascii	"chMtxLockS(), #2\000"
 268      784C6F63 
 268      6B532829 
 268      2C202332 
 268      00
 269              		.section	.text.chMtxLockS,"ax",%progbits
 270              		.align	2
 271              		.p2align 4,,15
 272              		.global	chMtxLockS
 273              		.thumb
 274              		.thumb_func
 275              		.type	chMtxLockS, %function
 276              	chMtxLockS:
 277              	.LFB9:
 278              		.loc 2 121 0
 279              		.cfi_startproc
 280              		@ args = 0, pretend = 0, frame = 16
 281              		@ frame_needed = 0, uses_anonymous_args = 0
 282 0000 00B5     		push	{lr}
 283              	.LCFI7:
 284              		.cfi_def_cfa_offset 4
 285              		.cfi_offset 14, -4
 286 0002 85B0     		sub	sp, sp, #20
 287              	.LCFI8:
 288              		.cfi_def_cfa_offset 24
 289 0004 0190     		str	r0, [sp, #4]
 290              		.loc 2 122 0
 291 0006 40F20003 		movw	r3, #:lower16:rlist
 292 000a C0F20003 		movt	r3, #:upper16:rlist
 293 000e DB69     		ldr	r3, [r3, #28]
 294 0010 0293     		str	r3, [sp, #8]
 295              		.loc 2 124 0
 296 0012 FFF7FEFF 		bl	chDbgCheckClassS
 297              		.loc 2 125 0
 298 0016 019B     		ldr	r3, [sp, #4]
 299 0018 002B     		cmp	r3, #0
 300 001a 05D1     		bne	.L10
 301              		.loc 2 125 0 is_stmt 0 discriminator 1
 302 001c 40F20000 		movw	r0, #:lower16:.LC1
 303 0020 C0F20000 		movt	r0, #:upper16:.LC1
 304 0024 FFF7FEFF 		bl	chDbgPanic
 305              	.L10:
 306              		.loc 2 128 0 is_stmt 1
 307 0028 019B     		ldr	r3, [sp, #4]
 308 002a 9B68     		ldr	r3, [r3, #8]
 309 002c 002B     		cmp	r3, #0
 310 002e 62D0     		beq	.L11
 311              	.LBB4:
 312              		.loc 2 132 0
 313 0030 019B     		ldr	r3, [sp, #4]
 314 0032 9B68     		ldr	r3, [r3, #8]
 315 0034 0393     		str	r3, [sp, #12]
 316              		.loc 2 135 0
 317 0036 35E0     		b	.L12
 318              	.L18:
 319              		.loc 2 137 0
ARM GAS  C:\Users\z80\AppData\Local\Temp\ccDXx7yx.s 			page 7


 320 0038 029B     		ldr	r3, [sp, #8]
 321 003a 9A68     		ldr	r2, [r3, #8]
 322 003c 039B     		ldr	r3, [sp, #12]
 323 003e 9A60     		str	r2, [r3, #8]
 324              		.loc 2 139 0
 325 0040 039B     		ldr	r3, [sp, #12]
 326 0042 93F82030 		ldrb	r3, [r3, #32]	@ zero_extendqisi2
 327 0046 042B     		cmp	r3, #4
 328 0048 04D0     		beq	.L15
 329 004a 052B     		cmp	r3, #5
 330 004c 11D0     		beq	.L16
 331 004e 002B     		cmp	r3, #0
 332 0050 1AD0     		beq	.L14
 333 0052 26E0     		b	.L13
 334              	.L15:
 335              		.loc 2 142 0
 336 0054 0398     		ldr	r0, [sp, #12]
 337 0056 FFF7FEFF 		bl	dequeue
 338 005a 0246     		mov	r2, r0
 339 005c 039B     		ldr	r3, [sp, #12]
 340 005e 9B6A     		ldr	r3, [r3, #40]
 341 0060 1046     		mov	r0, r2
 342 0062 1946     		mov	r1, r3
 343 0064 FFF7FEFF 		bl	prio_insert
 344              		.loc 2 143 0
 345 0068 039B     		ldr	r3, [sp, #12]
 346 006a 9B6A     		ldr	r3, [r3, #40]
 347 006c 9B68     		ldr	r3, [r3, #8]
 348 006e 0393     		str	r3, [sp, #12]
 349              		.loc 2 144 0
 350 0070 18E0     		b	.L12
 351              	.L16:
 352              		.loc 2 158 0
 353 0072 0398     		ldr	r0, [sp, #12]
 354 0074 FFF7FEFF 		bl	dequeue
 355 0078 0246     		mov	r2, r0
 356 007a 039B     		ldr	r3, [sp, #12]
 357 007c 9B6A     		ldr	r3, [r3, #40]
 358 007e 1046     		mov	r0, r2
 359 0080 1946     		mov	r1, r3
 360 0082 FFF7FEFF 		bl	prio_insert
 361              		.loc 2 159 0
 362 0086 0CE0     		b	.L13
 363              	.L14:
 364              		.loc 2 164 0
 365 0088 039B     		ldr	r3, [sp, #12]
 366 008a 4FF00102 		mov	r2, #1
 367 008e 83F82020 		strb	r2, [r3, #32]
 368              		.loc 2 167 0
 369 0092 0398     		ldr	r0, [sp, #12]
 370 0094 FFF7FEFF 		bl	dequeue
 371 0098 0346     		mov	r3, r0
 372 009a 1846     		mov	r0, r3
 373 009c FFF7FEFF 		bl	chSchReadyI
 374              		.loc 2 168 0
 375 00a0 00BF     		nop
 376              	.L13:
ARM GAS  C:\Users\z80\AppData\Local\Temp\ccDXx7yx.s 			page 8


 377              		.loc 2 170 0
 378 00a2 05E0     		b	.L17
 379              	.L12:
 380              		.loc 2 135 0 discriminator 1
 381 00a4 039B     		ldr	r3, [sp, #12]
 382 00a6 9A68     		ldr	r2, [r3, #8]
 383 00a8 029B     		ldr	r3, [sp, #8]
 384 00aa 9B68     		ldr	r3, [r3, #8]
 385 00ac 9A42     		cmp	r2, r3
 386 00ae C3D3     		bcc	.L18
 387              	.L17:
 388              		.loc 2 173 0
 389 00b0 019B     		ldr	r3, [sp, #4]
 390 00b2 0298     		ldr	r0, [sp, #8]
 391 00b4 1946     		mov	r1, r3
 392 00b6 FFF7FEFF 		bl	prio_insert
 393              		.loc 2 174 0
 394 00ba 029B     		ldr	r3, [sp, #8]
 395 00bc 019A     		ldr	r2, [sp, #4]
 396 00be 9A62     		str	r2, [r3, #40]
 397              		.loc 2 175 0
 398 00c0 4FF00400 		mov	r0, #4
 399 00c4 FFF7FEFF 		bl	chSchGoSleepS
 400              		.loc 2 178 0
 401 00c8 019B     		ldr	r3, [sp, #4]
 402 00ca 9A68     		ldr	r2, [r3, #8]
 403 00cc 029B     		ldr	r3, [sp, #8]
 404 00ce 9A42     		cmp	r2, r3
 405 00d0 05D0     		beq	.L19
 406              		.loc 2 178 0 is_stmt 0 discriminator 1
 407 00d2 40F20000 		movw	r0, #:lower16:.LC2
 408 00d6 C0F20000 		movt	r0, #:upper16:.LC2
 409 00da FFF7FEFF 		bl	chDbgPanic
 410              	.L19:
 411              		.loc 2 179 0 is_stmt 1
 412 00de 029B     		ldr	r3, [sp, #8]
 413 00e0 1A6C     		ldr	r2, [r3, #64]
 414 00e2 019B     		ldr	r3, [sp, #4]
 415 00e4 9A42     		cmp	r2, r3
 416 00e6 10D0     		beq	.L9
 417              		.loc 2 179 0 is_stmt 0 discriminator 1
 418 00e8 40F20000 		movw	r0, #:lower16:.LC3
 419 00ec C0F20000 		movt	r0, #:upper16:.LC3
 420 00f0 FFF7FEFF 		bl	chDbgPanic
 421 00f4 09E0     		b	.L9
 422              	.L11:
 423              	.LBE4:
 424              		.loc 2 183 0 is_stmt 1
 425 00f6 019B     		ldr	r3, [sp, #4]
 426 00f8 029A     		ldr	r2, [sp, #8]
 427 00fa 9A60     		str	r2, [r3, #8]
 428              		.loc 2 184 0
 429 00fc 029B     		ldr	r3, [sp, #8]
 430 00fe 1A6C     		ldr	r2, [r3, #64]
 431 0100 019B     		ldr	r3, [sp, #4]
 432 0102 DA60     		str	r2, [r3, #12]
 433              		.loc 2 185 0
ARM GAS  C:\Users\z80\AppData\Local\Temp\ccDXx7yx.s 			page 9


 434 0104 029B     		ldr	r3, [sp, #8]
 435 0106 019A     		ldr	r2, [sp, #4]
 436 0108 1A64     		str	r2, [r3, #64]
 437              	.L9:
 438              		.loc 2 187 0
 439 010a 05B0     		add	sp, sp, #20
 440 010c 00BD     		pop	{pc}
 441              		.cfi_endproc
 442              	.LFE9:
 443              		.size	chMtxLockS, .-chMtxLockS
 444 010e 00BF     		.section	.text.chMtxTryLock,"ax",%progbits
 445              		.align	2
 446              		.p2align 4,,15
 447              		.global	chMtxTryLock
 448              		.thumb
 449              		.thumb_func
 450              		.type	chMtxTryLock, %function
 451              	chMtxTryLock:
 452              	.LFB10:
 453              		.loc 2 206 0
 454              		.cfi_startproc
 455              		@ args = 0, pretend = 0, frame = 16
 456              		@ frame_needed = 0, uses_anonymous_args = 0
 457 0000 00B5     		push	{lr}
 458              	.LCFI9:
 459              		.cfi_def_cfa_offset 4
 460              		.cfi_offset 14, -4
 461 0002 85B0     		sub	sp, sp, #20
 462              	.LCFI10:
 463              		.cfi_def_cfa_offset 24
 464 0004 0190     		str	r0, [sp, #4]
 465              	.LBB5:
 466              		.loc 2 209 0
 467 0006 4FF02003 		mov	r3, #32
 468              	@ 209 "../chibios_2.4.x/os/kernel/src/chmtx.c" 1
 469 000a 83F31188 		msr     BASEPRI, r3
 470              	@ 0 "" 2
 471              		.thumb
 472              	.LBE5:
 473 000e FFF7FEFF 		bl	dbg_check_lock
 474              		.loc 2 211 0
 475 0012 0198     		ldr	r0, [sp, #4]
 476 0014 FFF7FEFF 		bl	chMtxTryLockS
 477 0018 0390     		str	r0, [sp, #12]
 478              		.loc 2 213 0
 479 001a FFF7FEFF 		bl	dbg_check_unlock
 480              	.LBB6:
 481 001e 4FF00003 		mov	r3, #0
 482              	@ 213 "../chibios_2.4.x/os/kernel/src/chmtx.c" 1
 483 0022 83F31188 		msr     BASEPRI, r3
 484              	@ 0 "" 2
 485              		.thumb
 486              	.LBE6:
 487              		.loc 2 214 0
 488 0026 039B     		ldr	r3, [sp, #12]
 489              		.loc 2 215 0
 490 0028 1846     		mov	r0, r3
ARM GAS  C:\Users\z80\AppData\Local\Temp\ccDXx7yx.s 			page 10


 491 002a 05B0     		add	sp, sp, #20
 492 002c 00BD     		pop	{pc}
 493              		.cfi_endproc
 494              	.LFE10:
 495              		.size	chMtxTryLock, .-chMtxTryLock
 496 002e 00BF     		.section	.rodata
 497 0045 000000   		.align	2
 498              	.LC4:
 499 0048 2263684D 		.ascii	"\"chMtxTryLockS\"()\000"
 499      74785472 
 499      794C6F63 
 499      6B532228 
 499      2900
 500              		.section	.text.chMtxTryLockS,"ax",%progbits
 501              		.align	2
 502              		.p2align 4,,15
 503              		.global	chMtxTryLockS
 504              		.thumb
 505              		.thumb_func
 506              		.type	chMtxTryLockS, %function
 507              	chMtxTryLockS:
 508              	.LFB11:
 509              		.loc 2 234 0
 510              		.cfi_startproc
 511              		@ args = 0, pretend = 0, frame = 8
 512              		@ frame_needed = 0, uses_anonymous_args = 0
 513 0000 00B5     		push	{lr}
 514              	.LCFI11:
 515              		.cfi_def_cfa_offset 4
 516              		.cfi_offset 14, -4
 517 0002 83B0     		sub	sp, sp, #12
 518              	.LCFI12:
 519              		.cfi_def_cfa_offset 16
 520 0004 0190     		str	r0, [sp, #4]
 521              		.loc 2 236 0
 522 0006 FFF7FEFF 		bl	chDbgCheckClassS
 523              		.loc 2 237 0
 524 000a 019B     		ldr	r3, [sp, #4]
 525 000c 002B     		cmp	r3, #0
 526 000e 05D1     		bne	.L23
 527              		.loc 2 237 0 is_stmt 0 discriminator 1
 528 0010 40F20000 		movw	r0, #:lower16:.LC4
 529 0014 C0F20000 		movt	r0, #:upper16:.LC4
 530 0018 FFF7FEFF 		bl	chDbgPanic
 531              	.L23:
 532              		.loc 2 239 0 is_stmt 1
 533 001c 019B     		ldr	r3, [sp, #4]
 534 001e 9B68     		ldr	r3, [r3, #8]
 535 0020 002B     		cmp	r3, #0
 536 0022 02D0     		beq	.L24
 537              		.loc 2 240 0
 538 0024 4FF00003 		mov	r3, #0
 539 0028 17E0     		b	.L25
 540              	.L24:
 541              		.loc 2 241 0
 542 002a 40F20003 		movw	r3, #:lower16:rlist
 543 002e C0F20003 		movt	r3, #:upper16:rlist
ARM GAS  C:\Users\z80\AppData\Local\Temp\ccDXx7yx.s 			page 11


 544 0032 DA69     		ldr	r2, [r3, #28]
 545 0034 019B     		ldr	r3, [sp, #4]
 546 0036 9A60     		str	r2, [r3, #8]
 547              		.loc 2 242 0
 548 0038 40F20003 		movw	r3, #:lower16:rlist
 549 003c C0F20003 		movt	r3, #:upper16:rlist
 550 0040 DB69     		ldr	r3, [r3, #28]
 551 0042 1A6C     		ldr	r2, [r3, #64]
 552 0044 019B     		ldr	r3, [sp, #4]
 553 0046 DA60     		str	r2, [r3, #12]
 554              		.loc 2 243 0
 555 0048 40F20003 		movw	r3, #:lower16:rlist
 556 004c C0F20003 		movt	r3, #:upper16:rlist
 557 0050 DB69     		ldr	r3, [r3, #28]
 558 0052 019A     		ldr	r2, [sp, #4]
 559 0054 1A64     		str	r2, [r3, #64]
 560              		.loc 2 244 0
 561 0056 4FF00103 		mov	r3, #1
 562              	.L25:
 563              		.loc 2 245 0
 564 005a 1846     		mov	r0, r3
 565 005c 03B0     		add	sp, sp, #12
 566 005e 00BD     		pop	{pc}
 567              		.cfi_endproc
 568              	.LFE11:
 569              		.size	chMtxTryLockS, .-chMtxTryLockS
 570              		.section	.rodata
 571 005a 0000     		.align	2
 572              	.LC5:
 573 005c 63684D74 		.ascii	"chMtxUnlock(), #1\000"
 573      78556E6C 
 573      6F636B28 
 573      292C2023 
 573      3100
 574 006e 0000     		.align	2
 575              	.LC6:
 576 0070 63684D74 		.ascii	"chMtxUnlock(), #2\000"
 576      78556E6C 
 576      6F636B28 
 576      292C2023 
 576      3200
 577              		.section	.text.chMtxUnlock,"ax",%progbits
 578              		.align	2
 579              		.p2align 4,,15
 580              		.global	chMtxUnlock
 581              		.thumb
 582              		.thumb_func
 583              		.type	chMtxUnlock, %function
 584              	chMtxUnlock:
 585              	.LFB12:
 586              		.loc 2 257 0
 587              		.cfi_startproc
 588              		@ args = 0, pretend = 0, frame = 24
 589              		@ frame_needed = 0, uses_anonymous_args = 0
 590 0000 00B5     		push	{lr}
 591              	.LCFI13:
 592              		.cfi_def_cfa_offset 4
ARM GAS  C:\Users\z80\AppData\Local\Temp\ccDXx7yx.s 			page 12


 593              		.cfi_offset 14, -4
 594 0002 87B0     		sub	sp, sp, #28
 595              	.LCFI14:
 596              		.cfi_def_cfa_offset 32
 597              		.loc 2 258 0
 598 0004 40F20003 		movw	r3, #:lower16:rlist
 599 0008 C0F20003 		movt	r3, #:upper16:rlist
 600 000c DB69     		ldr	r3, [r3, #28]
 601 000e 0393     		str	r3, [sp, #12]
 602              	.LBB7:
 603              		.loc 2 261 0
 604 0010 4FF02003 		mov	r3, #32
 605              	@ 261 "../chibios_2.4.x/os/kernel/src/chmtx.c" 1
 606 0014 83F31188 		msr     BASEPRI, r3
 607              	@ 0 "" 2
 608              		.thumb
 609              	.LBE7:
 610 0018 FFF7FEFF 		bl	dbg_check_lock
 611              		.loc 2 262 0
 612 001c 039B     		ldr	r3, [sp, #12]
 613 001e 1B6C     		ldr	r3, [r3, #64]
 614 0020 002B     		cmp	r3, #0
 615 0022 05D1     		bne	.L27
 616              		.loc 2 262 0 is_stmt 0 discriminator 1
 617 0024 40F20000 		movw	r0, #:lower16:.LC5
 618 0028 C0F20000 		movt	r0, #:upper16:.LC5
 619 002c FFF7FEFF 		bl	chDbgPanic
 620              	.L27:
 621              		.loc 2 265 0 is_stmt 1
 622 0030 039B     		ldr	r3, [sp, #12]
 623 0032 1B6C     		ldr	r3, [r3, #64]
 624 0034 9A68     		ldr	r2, [r3, #8]
 625 0036 039B     		ldr	r3, [sp, #12]
 626 0038 9A42     		cmp	r2, r3
 627 003a 05D0     		beq	.L28
 628              		.loc 2 265 0 is_stmt 0 discriminator 1
 629 003c 40F20000 		movw	r0, #:lower16:.LC6
 630 0040 C0F20000 		movt	r0, #:upper16:.LC6
 631 0044 FFF7FEFF 		bl	chDbgPanic
 632              	.L28:
 633              		.loc 2 270 0 is_stmt 1
 634 0048 039B     		ldr	r3, [sp, #12]
 635 004a 1B6C     		ldr	r3, [r3, #64]
 636 004c 0293     		str	r3, [sp, #8]
 637              		.loc 2 271 0
 638 004e 029B     		ldr	r3, [sp, #8]
 639 0050 DA68     		ldr	r2, [r3, #12]
 640 0052 039B     		ldr	r3, [sp, #12]
 641 0054 1A64     		str	r2, [r3, #64]
 642              		.loc 2 273 0
 643 0056 029B     		ldr	r3, [sp, #8]
 644 0058 1A68     		ldr	r2, [r3, #0]
 645 005a 029B     		ldr	r3, [sp, #8]
 646 005c 9A42     		cmp	r2, r3
 647 005e 33D0     		beq	.L29
 648              	.LBB8:
 649              		.loc 2 278 0
ARM GAS  C:\Users\z80\AppData\Local\Temp\ccDXx7yx.s 			page 13


 650 0060 039B     		ldr	r3, [sp, #12]
 651 0062 5B6C     		ldr	r3, [r3, #68]
 652 0064 0493     		str	r3, [sp, #16]
 653              		.loc 2 279 0
 654 0066 039B     		ldr	r3, [sp, #12]
 655 0068 1B6C     		ldr	r3, [r3, #64]
 656 006a 0593     		str	r3, [sp, #20]
 657              		.loc 2 280 0
 658 006c 11E0     		b	.L30
 659              	.L32:
 660              		.loc 2 284 0
 661 006e 059B     		ldr	r3, [sp, #20]
 662 0070 1A68     		ldr	r2, [r3, #0]
 663 0072 059B     		ldr	r3, [sp, #20]
 664 0074 9A42     		cmp	r2, r3
 665 0076 09D0     		beq	.L31
 666              		.loc 2 284 0 is_stmt 0 discriminator 1
 667 0078 059B     		ldr	r3, [sp, #20]
 668 007a 1B68     		ldr	r3, [r3, #0]
 669 007c 9A68     		ldr	r2, [r3, #8]
 670 007e 049B     		ldr	r3, [sp, #16]
 671 0080 9A42     		cmp	r2, r3
 672 0082 03D9     		bls	.L31
 673              		.loc 2 285 0 is_stmt 1
 674 0084 059B     		ldr	r3, [sp, #20]
 675 0086 1B68     		ldr	r3, [r3, #0]
 676 0088 9B68     		ldr	r3, [r3, #8]
 677 008a 0493     		str	r3, [sp, #16]
 678              	.L31:
 679              		.loc 2 286 0
 680 008c 059B     		ldr	r3, [sp, #20]
 681 008e DB68     		ldr	r3, [r3, #12]
 682 0090 0593     		str	r3, [sp, #20]
 683              	.L30:
 684              		.loc 2 280 0 discriminator 1
 685 0092 059B     		ldr	r3, [sp, #20]
 686 0094 002B     		cmp	r3, #0
 687 0096 EAD1     		bne	.L32
 688              		.loc 2 290 0
 689 0098 039B     		ldr	r3, [sp, #12]
 690 009a 049A     		ldr	r2, [sp, #16]
 691 009c 9A60     		str	r2, [r3, #8]
 692              		.loc 2 293 0
 693 009e 029B     		ldr	r3, [sp, #8]
 694 00a0 1846     		mov	r0, r3
 695 00a2 FFF7FEFF 		bl	fifo_remove
 696 00a6 0190     		str	r0, [sp, #4]
 697              		.loc 2 294 0
 698 00a8 029B     		ldr	r3, [sp, #8]
 699 00aa 019A     		ldr	r2, [sp, #4]
 700 00ac 9A60     		str	r2, [r3, #8]
 701              		.loc 2 295 0
 702 00ae 019B     		ldr	r3, [sp, #4]
 703 00b0 1A6C     		ldr	r2, [r3, #64]
 704 00b2 029B     		ldr	r3, [sp, #8]
 705 00b4 DA60     		str	r2, [r3, #12]
 706              		.loc 2 296 0
ARM GAS  C:\Users\z80\AppData\Local\Temp\ccDXx7yx.s 			page 14


 707 00b6 019B     		ldr	r3, [sp, #4]
 708 00b8 029A     		ldr	r2, [sp, #8]
 709 00ba 1A64     		str	r2, [r3, #64]
 710              		.loc 2 297 0
 711 00bc 0198     		ldr	r0, [sp, #4]
 712 00be 4FF00001 		mov	r1, #0
 713 00c2 FFF7FEFF 		bl	chSchWakeupS
 714 00c6 03E0     		b	.L33
 715              	.L29:
 716              	.LBE8:
 717              		.loc 2 300 0
 718 00c8 029B     		ldr	r3, [sp, #8]
 719 00ca 4FF00002 		mov	r2, #0
 720 00ce 9A60     		str	r2, [r3, #8]
 721              	.L33:
 722              		.loc 2 301 0
 723 00d0 FFF7FEFF 		bl	dbg_check_unlock
 724              	.LBB9:
 725 00d4 4FF00003 		mov	r3, #0
 726              	@ 301 "../chibios_2.4.x/os/kernel/src/chmtx.c" 1
 727 00d8 83F31188 		msr     BASEPRI, r3
 728              	@ 0 "" 2
 729              		.thumb
 730              	.LBE9:
 731              		.loc 2 302 0
 732 00dc 029B     		ldr	r3, [sp, #8]
 733              		.loc 2 303 0
 734 00de 1846     		mov	r0, r3
 735 00e0 07B0     		add	sp, sp, #28
 736 00e2 00BD     		pop	{pc}
 737              		.cfi_endproc
 738              	.LFE12:
 739              		.size	chMtxUnlock, .-chMtxUnlock
 740 00e4 AFF30080 		.section	.rodata
 740      AFF30080 
 740      AFF30080 
 741 0082 0000     		.align	2
 742              	.LC7:
 743 0084 63684D74 		.ascii	"chMtxUnlockS(), #1\000"
 743      78556E6C 
 743      6F636B53 
 743      28292C20 
 743      233100
 744 0097 00       		.align	2
 745              	.LC8:
 746 0098 63684D74 		.ascii	"chMtxUnlockS(), #2\000"
 746      78556E6C 
 746      6F636B53 
 746      28292C20 
 746      233200
 747 00ab 00       		.section	.text.chMtxUnlockS,"ax",%progbits
 748              		.align	2
 749              		.p2align 4,,15
 750              		.global	chMtxUnlockS
 751              		.thumb
 752              		.thumb_func
 753              		.type	chMtxUnlockS, %function
ARM GAS  C:\Users\z80\AppData\Local\Temp\ccDXx7yx.s 			page 15


 754              	chMtxUnlockS:
 755              	.LFB13:
 756              		.loc 2 317 0
 757              		.cfi_startproc
 758              		@ args = 0, pretend = 0, frame = 24
 759              		@ frame_needed = 0, uses_anonymous_args = 0
 760 0000 00B5     		push	{lr}
 761              	.LCFI15:
 762              		.cfi_def_cfa_offset 4
 763              		.cfi_offset 14, -4
 764 0002 87B0     		sub	sp, sp, #28
 765              	.LCFI16:
 766              		.cfi_def_cfa_offset 32
 767              		.loc 2 318 0
 768 0004 40F20003 		movw	r3, #:lower16:rlist
 769 0008 C0F20003 		movt	r3, #:upper16:rlist
 770 000c DB69     		ldr	r3, [r3, #28]
 771 000e 0393     		str	r3, [sp, #12]
 772              		.loc 2 321 0
 773 0010 FFF7FEFF 		bl	chDbgCheckClassS
 774              		.loc 2 322 0
 775 0014 039B     		ldr	r3, [sp, #12]
 776 0016 1B6C     		ldr	r3, [r3, #64]
 777 0018 002B     		cmp	r3, #0
 778 001a 05D1     		bne	.L35
 779              		.loc 2 322 0 is_stmt 0 discriminator 1
 780 001c 40F20000 		movw	r0, #:lower16:.LC7
 781 0020 C0F20000 		movt	r0, #:upper16:.LC7
 782 0024 FFF7FEFF 		bl	chDbgPanic
 783              	.L35:
 784              		.loc 2 325 0 is_stmt 1
 785 0028 039B     		ldr	r3, [sp, #12]
 786 002a 1B6C     		ldr	r3, [r3, #64]
 787 002c 9A68     		ldr	r2, [r3, #8]
 788 002e 039B     		ldr	r3, [sp, #12]
 789 0030 9A42     		cmp	r2, r3
 790 0032 05D0     		beq	.L36
 791              		.loc 2 325 0 is_stmt 0 discriminator 1
 792 0034 40F20000 		movw	r0, #:lower16:.LC8
 793 0038 C0F20000 		movt	r0, #:upper16:.LC8
 794 003c FFF7FEFF 		bl	chDbgPanic
 795              	.L36:
 796              		.loc 2 331 0 is_stmt 1
 797 0040 039B     		ldr	r3, [sp, #12]
 798 0042 1B6C     		ldr	r3, [r3, #64]
 799 0044 0293     		str	r3, [sp, #8]
 800              		.loc 2 332 0
 801 0046 029B     		ldr	r3, [sp, #8]
 802 0048 DA68     		ldr	r2, [r3, #12]
 803 004a 039B     		ldr	r3, [sp, #12]
 804 004c 1A64     		str	r2, [r3, #64]
 805              		.loc 2 334 0
 806 004e 029B     		ldr	r3, [sp, #8]
 807 0050 1A68     		ldr	r2, [r3, #0]
 808 0052 029B     		ldr	r3, [sp, #8]
 809 0054 9A42     		cmp	r2, r3
 810 0056 31D0     		beq	.L37
ARM GAS  C:\Users\z80\AppData\Local\Temp\ccDXx7yx.s 			page 16


 811              	.LBB10:
 812              		.loc 2 339 0
 813 0058 039B     		ldr	r3, [sp, #12]
 814 005a 5B6C     		ldr	r3, [r3, #68]
 815 005c 0493     		str	r3, [sp, #16]
 816              		.loc 2 340 0
 817 005e 039B     		ldr	r3, [sp, #12]
 818 0060 1B6C     		ldr	r3, [r3, #64]
 819 0062 0593     		str	r3, [sp, #20]
 820              		.loc 2 341 0
 821 0064 11E0     		b	.L38
 822              	.L40:
 823              		.loc 2 345 0
 824 0066 059B     		ldr	r3, [sp, #20]
 825 0068 1A68     		ldr	r2, [r3, #0]
 826 006a 059B     		ldr	r3, [sp, #20]
 827 006c 9A42     		cmp	r2, r3
 828 006e 09D0     		beq	.L39
 829              		.loc 2 345 0 is_stmt 0 discriminator 1
 830 0070 059B     		ldr	r3, [sp, #20]
 831 0072 1B68     		ldr	r3, [r3, #0]
 832 0074 9A68     		ldr	r2, [r3, #8]
 833 0076 049B     		ldr	r3, [sp, #16]
 834 0078 9A42     		cmp	r2, r3
 835 007a 03D9     		bls	.L39
 836              		.loc 2 346 0 is_stmt 1
 837 007c 059B     		ldr	r3, [sp, #20]
 838 007e 1B68     		ldr	r3, [r3, #0]
 839 0080 9B68     		ldr	r3, [r3, #8]
 840 0082 0493     		str	r3, [sp, #16]
 841              	.L39:
 842              		.loc 2 347 0
 843 0084 059B     		ldr	r3, [sp, #20]
 844 0086 DB68     		ldr	r3, [r3, #12]
 845 0088 0593     		str	r3, [sp, #20]
 846              	.L38:
 847              		.loc 2 341 0 discriminator 1
 848 008a 059B     		ldr	r3, [sp, #20]
 849 008c 002B     		cmp	r3, #0
 850 008e EAD1     		bne	.L40
 851              		.loc 2 349 0
 852 0090 039B     		ldr	r3, [sp, #12]
 853 0092 049A     		ldr	r2, [sp, #16]
 854 0094 9A60     		str	r2, [r3, #8]
 855              		.loc 2 352 0
 856 0096 029B     		ldr	r3, [sp, #8]
 857 0098 1846     		mov	r0, r3
 858 009a FFF7FEFF 		bl	fifo_remove
 859 009e 0190     		str	r0, [sp, #4]
 860              		.loc 2 353 0
 861 00a0 029B     		ldr	r3, [sp, #8]
 862 00a2 019A     		ldr	r2, [sp, #4]
 863 00a4 9A60     		str	r2, [r3, #8]
 864              		.loc 2 354 0
 865 00a6 019B     		ldr	r3, [sp, #4]
 866 00a8 1A6C     		ldr	r2, [r3, #64]
 867 00aa 029B     		ldr	r3, [sp, #8]
ARM GAS  C:\Users\z80\AppData\Local\Temp\ccDXx7yx.s 			page 17


 868 00ac DA60     		str	r2, [r3, #12]
 869              		.loc 2 355 0
 870 00ae 019B     		ldr	r3, [sp, #4]
 871 00b0 029A     		ldr	r2, [sp, #8]
 872 00b2 1A64     		str	r2, [r3, #64]
 873              		.loc 2 356 0
 874 00b4 0198     		ldr	r0, [sp, #4]
 875 00b6 FFF7FEFF 		bl	chSchReadyI
 876 00ba 03E0     		b	.L41
 877              	.L37:
 878              	.LBE10:
 879              		.loc 2 359 0
 880 00bc 029B     		ldr	r3, [sp, #8]
 881 00be 4FF00002 		mov	r2, #0
 882 00c2 9A60     		str	r2, [r3, #8]
 883              	.L41:
 884              		.loc 2 360 0
 885 00c4 029B     		ldr	r3, [sp, #8]
 886              		.loc 2 361 0
 887 00c6 1846     		mov	r0, r3
 888 00c8 07B0     		add	sp, sp, #28
 889 00ca 00BD     		pop	{pc}
 890              		.cfi_endproc
 891              	.LFE13:
 892              		.size	chMtxUnlockS, .-chMtxUnlockS
 893 00cc AFF30080 		.section	.text.chMtxUnlockAll,"ax",%progbits
 894              		.align	2
 895              		.p2align 4,,15
 896              		.global	chMtxUnlockAll
 897              		.thumb
 898              		.thumb_func
 899              		.type	chMtxUnlockAll, %function
 900              	chMtxUnlockAll:
 901              	.LFB14:
 902              		.loc 2 374 0
 903              		.cfi_startproc
 904              		@ args = 0, pretend = 0, frame = 16
 905              		@ frame_needed = 0, uses_anonymous_args = 0
 906 0000 00B5     		push	{lr}
 907              	.LCFI17:
 908              		.cfi_def_cfa_offset 4
 909              		.cfi_offset 14, -4
 910 0002 85B0     		sub	sp, sp, #20
 911              	.LCFI18:
 912              		.cfi_def_cfa_offset 24
 913              		.loc 2 375 0
 914 0004 40F20003 		movw	r3, #:lower16:rlist
 915 0008 C0F20003 		movt	r3, #:upper16:rlist
 916 000c DB69     		ldr	r3, [r3, #28]
 917 000e 0393     		str	r3, [sp, #12]
 918              	.LBB11:
 919              		.loc 2 377 0
 920 0010 4FF02003 		mov	r3, #32
 921              	@ 377 "../chibios_2.4.x/os/kernel/src/chmtx.c" 1
 922 0014 83F31188 		msr     BASEPRI, r3
 923              	@ 0 "" 2
 924              		.thumb
ARM GAS  C:\Users\z80\AppData\Local\Temp\ccDXx7yx.s 			page 18


 925              	.LBE11:
 926 0018 FFF7FEFF 		bl	dbg_check_lock
 927              		.loc 2 378 0
 928 001c 039B     		ldr	r3, [sp, #12]
 929 001e 1B6C     		ldr	r3, [r3, #64]
 930 0020 002B     		cmp	r3, #0
 931 0022 2CD0     		beq	.L43
 932              	.L46:
 933              	.LBB12:
 934              		.loc 2 380 0
 935 0024 039B     		ldr	r3, [sp, #12]
 936 0026 1B6C     		ldr	r3, [r3, #64]
 937 0028 0293     		str	r3, [sp, #8]
 938              		.loc 2 381 0
 939 002a 029B     		ldr	r3, [sp, #8]
 940 002c DA68     		ldr	r2, [r3, #12]
 941 002e 039B     		ldr	r3, [sp, #12]
 942 0030 1A64     		str	r2, [r3, #64]
 943              		.loc 2 382 0
 944 0032 029B     		ldr	r3, [sp, #8]
 945 0034 1A68     		ldr	r2, [r3, #0]
 946 0036 029B     		ldr	r3, [sp, #8]
 947 0038 9A42     		cmp	r2, r3
 948 003a 12D0     		beq	.L44
 949              	.LBB13:
 950              		.loc 2 383 0
 951 003c 029B     		ldr	r3, [sp, #8]
 952 003e 1846     		mov	r0, r3
 953 0040 FFF7FEFF 		bl	fifo_remove
 954 0044 0190     		str	r0, [sp, #4]
 955              		.loc 2 384 0
 956 0046 029B     		ldr	r3, [sp, #8]
 957 0048 019A     		ldr	r2, [sp, #4]
 958 004a 9A60     		str	r2, [r3, #8]
 959              		.loc 2 385 0
 960 004c 019B     		ldr	r3, [sp, #4]
 961 004e 1A6C     		ldr	r2, [r3, #64]
 962 0050 029B     		ldr	r3, [sp, #8]
 963 0052 DA60     		str	r2, [r3, #12]
 964              		.loc 2 386 0
 965 0054 019B     		ldr	r3, [sp, #4]
 966 0056 029A     		ldr	r2, [sp, #8]
 967 0058 1A64     		str	r2, [r3, #64]
 968              		.loc 2 387 0
 969 005a 0198     		ldr	r0, [sp, #4]
 970 005c FFF7FEFF 		bl	chSchReadyI
 971 0060 03E0     		b	.L45
 972              	.L44:
 973              	.LBE13:
 974              		.loc 2 390 0
 975 0062 029B     		ldr	r3, [sp, #8]
 976 0064 4FF00002 		mov	r2, #0
 977 0068 9A60     		str	r2, [r3, #8]
 978              	.L45:
 979              	.LBE12:
 980              		.loc 2 391 0
 981 006a 039B     		ldr	r3, [sp, #12]
ARM GAS  C:\Users\z80\AppData\Local\Temp\ccDXx7yx.s 			page 19


 982 006c 1B6C     		ldr	r3, [r3, #64]
 983 006e 002B     		cmp	r3, #0
 984 0070 D8D1     		bne	.L46
 985              		.loc 2 392 0
 986 0072 039B     		ldr	r3, [sp, #12]
 987 0074 5A6C     		ldr	r2, [r3, #68]
 988 0076 039B     		ldr	r3, [sp, #12]
 989 0078 9A60     		str	r2, [r3, #8]
 990              		.loc 2 393 0
 991 007a FFF7FEFF 		bl	chSchRescheduleS
 992              	.L43:
 993              		.loc 2 395 0
 994 007e FFF7FEFF 		bl	dbg_check_unlock
 995              	.LBB14:
 996 0082 4FF00003 		mov	r3, #0
 997              	@ 395 "../chibios_2.4.x/os/kernel/src/chmtx.c" 1
 998 0086 83F31188 		msr     BASEPRI, r3
 999              	@ 0 "" 2
 1000              		.thumb
 1001              	.LBE14:
 1002              		.loc 2 396 0
 1003 008a 05B0     		add	sp, sp, #20
 1004 008c 00BD     		pop	{pc}
 1005              		.cfi_endproc
 1006              	.LFE14:
 1007              		.size	chMtxUnlockAll, .-chMtxUnlockAll
 1008 008e 00BF     		.text
 1009              	.Letext0:
 1010              		.file 3 "c:\\programs\\codesourcery\\2011.03-56\\bin\\../lib/gcc/arm-none-eabi/4.6.3/../../../../a
 1011              		.file 4 "../chibios_2.4.x/os/ports/GCC/ARMCMx/chtypes.h"
 1012              		.file 5 "../chibios_2.4.x/os/kernel/include/chlists.h"
 1013              		.file 6 "../chibios_2.4.x/os/kernel/include/chthreads.h"
 1014              		.file 7 "../chibios_2.4.x/os/ports/GCC/ARMCMx/chcore_v7m.h"
 1015              		.file 8 "../chibios_2.4.x/os/kernel/include/chschd.h"
 1016              		.file 9 "../chibios_2.4.x/os/kernel/include/chmtx.h"
 1017              		.section	.debug_info,"",%progbits
 1018              	.Ldebug_info0:
 1019 0000 FF070000 		.4byte	0x7ff
 1020 0004 0200     		.2byte	0x2
 1021 0006 00000000 		.4byte	.Ldebug_abbrev0
 1022 000a 04       		.byte	0x4
 1023 000b 01       		.uleb128 0x1
 1024 000c 82020000 		.4byte	.LASF73
 1025 0010 01       		.byte	0x1
 1026 0011 1C020000 		.4byte	.LASF74
 1027 0015 72000000 		.4byte	.LASF75
 1028 0019 00000000 		.4byte	0
 1029 001d 00000000 		.4byte	0
 1030 0021 00000000 		.4byte	.Ldebug_ranges0+0
 1031 0025 00000000 		.4byte	.Ldebug_line0
 1032 0029 02       		.uleb128 0x2
 1033 002a 04       		.byte	0x4
 1034 002b 05       		.byte	0x5
 1035 002c 696E7400 		.ascii	"int\000"
 1036 0030 03       		.uleb128 0x3
 1037 0031 04       		.byte	0x4
 1038 0032 07       		.byte	0x7
ARM GAS  C:\Users\z80\AppData\Local\Temp\ccDXx7yx.s 			page 20


 1039 0033 F4000000 		.4byte	.LASF0
 1040 0037 03       		.uleb128 0x3
 1041 0038 01       		.byte	0x1
 1042 0039 06       		.byte	0x6
 1043 003a 57000000 		.4byte	.LASF1
 1044 003e 04       		.uleb128 0x4
 1045 003f EE020000 		.4byte	.LASF5
 1046 0043 03       		.byte	0x3
 1047 0044 2A       		.byte	0x2a
 1048 0045 49000000 		.4byte	0x49
 1049 0049 03       		.uleb128 0x3
 1050 004a 01       		.byte	0x1
 1051 004b 08       		.byte	0x8
 1052 004c EB010000 		.4byte	.LASF2
 1053 0050 03       		.uleb128 0x3
 1054 0051 02       		.byte	0x2
 1055 0052 05       		.byte	0x5
 1056 0053 03020000 		.4byte	.LASF3
 1057 0057 03       		.uleb128 0x3
 1058 0058 02       		.byte	0x2
 1059 0059 07       		.byte	0x7
 1060 005a 1B010000 		.4byte	.LASF4
 1061 005e 04       		.uleb128 0x4
 1062 005f E3010000 		.4byte	.LASF6
 1063 0063 03       		.byte	0x3
 1064 0064 4F       		.byte	0x4f
 1065 0065 69000000 		.4byte	0x69
 1066 0069 03       		.uleb128 0x3
 1067 006a 04       		.byte	0x4
 1068 006b 05       		.byte	0x5
 1069 006c 9F000000 		.4byte	.LASF7
 1070 0070 04       		.uleb128 0x4
 1071 0071 71020000 		.4byte	.LASF8
 1072 0075 03       		.byte	0x3
 1073 0076 50       		.byte	0x50
 1074 0077 7B000000 		.4byte	0x7b
 1075 007b 03       		.uleb128 0x3
 1076 007c 04       		.byte	0x4
 1077 007d 07       		.byte	0x7
 1078 007e 01010000 		.4byte	.LASF9
 1079 0082 03       		.uleb128 0x3
 1080 0083 08       		.byte	0x8
 1081 0084 05       		.byte	0x5
 1082 0085 49000000 		.4byte	.LASF10
 1083 0089 04       		.uleb128 0x4
 1084 008a 0D000000 		.4byte	.LASF11
 1085 008e 03       		.byte	0x3
 1086 008f 78       		.byte	0x78
 1087 0090 94000000 		.4byte	0x94
 1088 0094 03       		.uleb128 0x3
 1089 0095 08       		.byte	0x8
 1090 0096 07       		.byte	0x7
 1091 0097 16000000 		.4byte	.LASF12
 1092 009b 04       		.uleb128 0x4
 1093 009c 63000000 		.4byte	.LASF13
 1094 00a0 04       		.byte	0x4
 1095 00a1 2E       		.byte	0x2e
ARM GAS  C:\Users\z80\AppData\Local\Temp\ccDXx7yx.s 			page 21


 1096 00a2 5E000000 		.4byte	0x5e
 1097 00a6 04       		.uleb128 0x4
 1098 00a7 57010000 		.4byte	.LASF14
 1099 00ab 04       		.byte	0x4
 1100 00ac 2F       		.byte	0x2f
 1101 00ad 3E000000 		.4byte	0x3e
 1102 00b1 04       		.uleb128 0x4
 1103 00b2 A8000000 		.4byte	.LASF15
 1104 00b6 04       		.byte	0x4
 1105 00b7 30       		.byte	0x30
 1106 00b8 3E000000 		.4byte	0x3e
 1107 00bc 04       		.uleb128 0x4
 1108 00bd DB010000 		.4byte	.LASF16
 1109 00c1 04       		.byte	0x4
 1110 00c2 32       		.byte	0x32
 1111 00c3 70000000 		.4byte	0x70
 1112 00c7 04       		.uleb128 0x4
 1113 00c8 2E010000 		.4byte	.LASF17
 1114 00cc 04       		.byte	0x4
 1115 00cd 33       		.byte	0x33
 1116 00ce 5E000000 		.4byte	0x5e
 1117 00d2 04       		.uleb128 0x4
 1118 00d3 6B010000 		.4byte	.LASF18
 1119 00d7 04       		.byte	0x4
 1120 00d8 35       		.byte	0x35
 1121 00d9 70000000 		.4byte	0x70
 1122 00dd 04       		.uleb128 0x4
 1123 00de A6020000 		.4byte	.LASF19
 1124 00e2 04       		.byte	0x4
 1125 00e3 36       		.byte	0x36
 1126 00e4 70000000 		.4byte	0x70
 1127 00e8 04       		.uleb128 0x4
 1128 00e9 E3000000 		.4byte	.LASF20
 1129 00ed 04       		.byte	0x4
 1130 00ee 37       		.byte	0x37
 1131 00ef 5E000000 		.4byte	0x5e
 1132 00f3 04       		.uleb128 0x4
 1133 00f4 5F020000 		.4byte	.LASF21
 1134 00f8 05       		.byte	0x5
 1135 00f9 2A       		.byte	0x2a
 1136 00fa FE000000 		.4byte	0xfe
 1137 00fe 05       		.uleb128 0x5
 1138 00ff 5F020000 		.4byte	.LASF21
 1139 0103 48       		.byte	0x48
 1140 0104 06       		.byte	0x6
 1141 0105 5E       		.byte	0x5e
 1142 0106 07020000 		.4byte	0x207
 1143 010a 06       		.uleb128 0x6
 1144 010b 43020000 		.4byte	.LASF22
 1145 010f 06       		.byte	0x6
 1146 0110 5F       		.byte	0x5f
 1147 0111 2C020000 		.4byte	0x22c
 1148 0115 02       		.byte	0x2
 1149 0116 23       		.byte	0x23
 1150 0117 00       		.uleb128 0
 1151 0118 06       		.uleb128 0x6
 1152 0119 D4010000 		.4byte	.LASF23
ARM GAS  C:\Users\z80\AppData\Local\Temp\ccDXx7yx.s 			page 22


 1153 011d 06       		.byte	0x6
 1154 011e 61       		.byte	0x61
 1155 011f 2C020000 		.4byte	0x22c
 1156 0123 02       		.byte	0x2
 1157 0124 23       		.byte	0x23
 1158 0125 04       		.uleb128 0x4
 1159 0126 06       		.uleb128 0x6
 1160 0127 42000000 		.4byte	.LASF24
 1161 012b 06       		.byte	0x6
 1162 012c 63       		.byte	0x63
 1163 012d BC000000 		.4byte	0xbc
 1164 0131 02       		.byte	0x2
 1165 0132 23       		.byte	0x23
 1166 0133 08       		.uleb128 0x8
 1167 0134 06       		.uleb128 0x6
 1168 0135 1D030000 		.4byte	.LASF25
 1169 0139 06       		.byte	0x6
 1170 013a 64       		.byte	0x64
 1171 013b 04030000 		.4byte	0x304
 1172 013f 02       		.byte	0x2
 1173 0140 23       		.byte	0x23
 1174 0141 0C       		.uleb128 0xc
 1175 0142 06       		.uleb128 0x6
 1176 0143 CA000000 		.4byte	.LASF26
 1177 0147 06       		.byte	0x6
 1178 0148 66       		.byte	0x66
 1179 0149 2C020000 		.4byte	0x22c
 1180 014d 02       		.byte	0x2
 1181 014e 23       		.byte	0x23
 1182 014f 10       		.uleb128 0x10
 1183 0150 06       		.uleb128 0x6
 1184 0151 9F010000 		.4byte	.LASF27
 1185 0155 06       		.byte	0x6
 1186 0156 67       		.byte	0x67
 1187 0157 2C020000 		.4byte	0x22c
 1188 015b 02       		.byte	0x2
 1189 015c 23       		.byte	0x23
 1190 015d 14       		.uleb128 0x14
 1191 015e 06       		.uleb128 0x6
 1192 015f 04030000 		.4byte	.LASF28
 1193 0163 06       		.byte	0x6
 1194 0164 6E       		.byte	0x6e
 1195 0165 1F040000 		.4byte	0x41f
 1196 0169 02       		.byte	0x2
 1197 016a 23       		.byte	0x23
 1198 016b 18       		.uleb128 0x18
 1199 016c 06       		.uleb128 0x6
 1200 016d E9000000 		.4byte	.LASF29
 1201 0171 06       		.byte	0x6
 1202 0172 74       		.byte	0x74
 1203 0173 31040000 		.4byte	0x431
 1204 0177 02       		.byte	0x2
 1205 0178 23       		.byte	0x23
 1206 0179 1C       		.uleb128 0x1c
 1207 017a 06       		.uleb128 0x6
 1208 017b 0D020000 		.4byte	.LASF30
 1209 017f 06       		.byte	0x6
ARM GAS  C:\Users\z80\AppData\Local\Temp\ccDXx7yx.s 			page 23


 1210 0180 79       		.byte	0x79
 1211 0181 B1000000 		.4byte	0xb1
 1212 0185 02       		.byte	0x2
 1213 0186 23       		.byte	0x23
 1214 0187 20       		.uleb128 0x20
 1215 0188 06       		.uleb128 0x6
 1216 0189 4A020000 		.4byte	.LASF31
 1217 018d 06       		.byte	0x6
 1218 018e 7D       		.byte	0x7d
 1219 018f A6000000 		.4byte	0xa6
 1220 0193 02       		.byte	0x2
 1221 0194 23       		.byte	0x23
 1222 0195 21       		.uleb128 0x21
 1223 0196 06       		.uleb128 0x6
 1224 0197 BB020000 		.4byte	.LASF32
 1225 019b 06       		.byte	0x6
 1226 019c 89       		.byte	0x89
 1227 019d 27030000 		.4byte	0x327
 1228 01a1 02       		.byte	0x2
 1229 01a2 23       		.byte	0x23
 1230 01a3 24       		.uleb128 0x24
 1231 01a4 07       		.uleb128 0x7
 1232 01a5 705F7500 		.ascii	"p_u\000"
 1233 01a9 06       		.byte	0x6
 1234 01aa AE       		.byte	0xae
 1235 01ab EA030000 		.4byte	0x3ea
 1236 01af 02       		.byte	0x2
 1237 01b0 23       		.byte	0x23
 1238 01b1 28       		.uleb128 0x28
 1239 01b2 06       		.uleb128 0x6
 1240 01b3 23030000 		.4byte	.LASF33
 1241 01b7 06       		.byte	0x6
 1242 01b8 B3       		.byte	0xb3
 1243 01b9 54020000 		.4byte	0x254
 1244 01bd 02       		.byte	0x2
 1245 01be 23       		.byte	0x23
 1246 01bf 2C       		.uleb128 0x2c
 1247 01c0 06       		.uleb128 0x6
 1248 01c1 C9020000 		.4byte	.LASF34
 1249 01c5 06       		.byte	0x6
 1250 01c6 B9       		.byte	0xb9
 1251 01c7 32020000 		.4byte	0x232
 1252 01cb 02       		.byte	0x2
 1253 01cc 23       		.byte	0x23
 1254 01cd 30       		.uleb128 0x30
 1255 01ce 06       		.uleb128 0x6
 1256 01cf 00000000 		.4byte	.LASF35
 1257 01d3 06       		.byte	0x6
 1258 01d4 BD       		.byte	0xbd
 1259 01d5 C7000000 		.4byte	0xc7
 1260 01d9 02       		.byte	0x2
 1261 01da 23       		.byte	0x23
 1262 01db 38       		.uleb128 0x38
 1263 01dc 06       		.uleb128 0x6
 1264 01dd 66020000 		.4byte	.LASF36
 1265 01e1 06       		.byte	0x6
 1266 01e2 C3       		.byte	0xc3
ARM GAS  C:\Users\z80\AppData\Local\Temp\ccDXx7yx.s 			page 24


 1267 01e3 D2000000 		.4byte	0xd2
 1268 01e7 02       		.byte	0x2
 1269 01e8 23       		.byte	0x23
 1270 01e9 3C       		.uleb128 0x3c
 1271 01ea 06       		.uleb128 0x6
 1272 01eb F9010000 		.4byte	.LASF37
 1273 01ef 06       		.byte	0x6
 1274 01f0 CA       		.byte	0xca
 1275 01f1 37040000 		.4byte	0x437
 1276 01f5 02       		.byte	0x2
 1277 01f6 23       		.byte	0x23
 1278 01f7 40       		.uleb128 0x40
 1279 01f8 06       		.uleb128 0x6
 1280 01f9 B0020000 		.4byte	.LASF38
 1281 01fd 06       		.byte	0x6
 1282 01fe CE       		.byte	0xce
 1283 01ff BC000000 		.4byte	0xbc
 1284 0203 02       		.byte	0x2
 1285 0204 23       		.byte	0x23
 1286 0205 44       		.uleb128 0x44
 1287 0206 00       		.byte	0
 1288 0207 08       		.uleb128 0x8
 1289 0208 08       		.byte	0x8
 1290 0209 05       		.byte	0x5
 1291 020a 61       		.byte	0x61
 1292 020b 2C020000 		.4byte	0x22c
 1293 020f 06       		.uleb128 0x6
 1294 0210 43020000 		.4byte	.LASF22
 1295 0214 05       		.byte	0x5
 1296 0215 62       		.byte	0x62
 1297 0216 2C020000 		.4byte	0x22c
 1298 021a 02       		.byte	0x2
 1299 021b 23       		.byte	0x23
 1300 021c 00       		.uleb128 0
 1301 021d 06       		.uleb128 0x6
 1302 021e D4010000 		.4byte	.LASF23
 1303 0222 05       		.byte	0x5
 1304 0223 64       		.byte	0x64
 1305 0224 2C020000 		.4byte	0x22c
 1306 0228 02       		.byte	0x2
 1307 0229 23       		.byte	0x23
 1308 022a 04       		.uleb128 0x4
 1309 022b 00       		.byte	0
 1310 022c 09       		.uleb128 0x9
 1311 022d 04       		.byte	0x4
 1312 022e F3000000 		.4byte	0xf3
 1313 0232 04       		.uleb128 0x4
 1314 0233 AD010000 		.4byte	.LASF39
 1315 0237 05       		.byte	0x5
 1316 0238 66       		.byte	0x66
 1317 0239 07020000 		.4byte	0x207
 1318 023d 08       		.uleb128 0x8
 1319 023e 04       		.byte	0x4
 1320 023f 05       		.byte	0x5
 1321 0240 6B       		.byte	0x6b
 1322 0241 54020000 		.4byte	0x254
 1323 0245 06       		.uleb128 0x6
ARM GAS  C:\Users\z80\AppData\Local\Temp\ccDXx7yx.s 			page 25


 1324 0246 43020000 		.4byte	.LASF22
 1325 024a 05       		.byte	0x5
 1326 024b 6D       		.byte	0x6d
 1327 024c 2C020000 		.4byte	0x22c
 1328 0250 02       		.byte	0x2
 1329 0251 23       		.byte	0x23
 1330 0252 00       		.uleb128 0
 1331 0253 00       		.byte	0
 1332 0254 04       		.uleb128 0x4
 1333 0255 5F010000 		.4byte	.LASF40
 1334 0259 05       		.byte	0x5
 1335 025a 70       		.byte	0x70
 1336 025b 3D020000 		.4byte	0x23d
 1337 025f 04       		.uleb128 0x4
 1338 0260 DA000000 		.4byte	.LASF41
 1339 0264 07       		.byte	0x7
 1340 0265 D7       		.byte	0xd7
 1341 0266 6A020000 		.4byte	0x26a
 1342 026a 0A       		.uleb128 0xa
 1343 026b 04       		.byte	0x4
 1344 026c 04       		.uleb128 0x4
 1345 026d 8A010000 		.4byte	.LASF42
 1346 0271 07       		.byte	0x7
 1347 0272 DD       		.byte	0xdd
 1348 0273 89000000 		.4byte	0x89
 1349 0277 05       		.uleb128 0x5
 1350 0278 C2020000 		.4byte	.LASF43
 1351 027c 24       		.byte	0x24
 1352 027d 07       		.byte	0x7
 1353 027e FE       		.byte	0xfe
 1354 027f 04030000 		.4byte	0x304
 1355 0283 0B       		.uleb128 0xb
 1356 0284 723400   		.ascii	"r4\000"
 1357 0287 07       		.byte	0x7
 1358 0288 1101     		.2byte	0x111
 1359 028a 5F020000 		.4byte	0x25f
 1360 028e 02       		.byte	0x2
 1361 028f 23       		.byte	0x23
 1362 0290 00       		.uleb128 0
 1363 0291 0B       		.uleb128 0xb
 1364 0292 723500   		.ascii	"r5\000"
 1365 0295 07       		.byte	0x7
 1366 0296 1201     		.2byte	0x112
 1367 0298 5F020000 		.4byte	0x25f
 1368 029c 02       		.byte	0x2
 1369 029d 23       		.byte	0x23
 1370 029e 04       		.uleb128 0x4
 1371 029f 0B       		.uleb128 0xb
 1372 02a0 723600   		.ascii	"r6\000"
 1373 02a3 07       		.byte	0x7
 1374 02a4 1301     		.2byte	0x113
 1375 02a6 5F020000 		.4byte	0x25f
 1376 02aa 02       		.byte	0x2
 1377 02ab 23       		.byte	0x23
 1378 02ac 08       		.uleb128 0x8
 1379 02ad 0B       		.uleb128 0xb
 1380 02ae 723700   		.ascii	"r7\000"
ARM GAS  C:\Users\z80\AppData\Local\Temp\ccDXx7yx.s 			page 26


 1381 02b1 07       		.byte	0x7
 1382 02b2 1401     		.2byte	0x114
 1383 02b4 5F020000 		.4byte	0x25f
 1384 02b8 02       		.byte	0x2
 1385 02b9 23       		.byte	0x23
 1386 02ba 0C       		.uleb128 0xc
 1387 02bb 0B       		.uleb128 0xb
 1388 02bc 723800   		.ascii	"r8\000"
 1389 02bf 07       		.byte	0x7
 1390 02c0 1501     		.2byte	0x115
 1391 02c2 5F020000 		.4byte	0x25f
 1392 02c6 02       		.byte	0x2
 1393 02c7 23       		.byte	0x23
 1394 02c8 10       		.uleb128 0x10
 1395 02c9 0B       		.uleb128 0xb
 1396 02ca 723900   		.ascii	"r9\000"
 1397 02cd 07       		.byte	0x7
 1398 02ce 1601     		.2byte	0x116
 1399 02d0 5F020000 		.4byte	0x25f
 1400 02d4 02       		.byte	0x2
 1401 02d5 23       		.byte	0x23
 1402 02d6 14       		.uleb128 0x14
 1403 02d7 0B       		.uleb128 0xb
 1404 02d8 72313000 		.ascii	"r10\000"
 1405 02dc 07       		.byte	0x7
 1406 02dd 1701     		.2byte	0x117
 1407 02df 5F020000 		.4byte	0x25f
 1408 02e3 02       		.byte	0x2
 1409 02e4 23       		.byte	0x23
 1410 02e5 18       		.uleb128 0x18
 1411 02e6 0B       		.uleb128 0xb
 1412 02e7 72313100 		.ascii	"r11\000"
 1413 02eb 07       		.byte	0x7
 1414 02ec 1801     		.2byte	0x118
 1415 02ee 5F020000 		.4byte	0x25f
 1416 02f2 02       		.byte	0x2
 1417 02f3 23       		.byte	0x23
 1418 02f4 1C       		.uleb128 0x1c
 1419 02f5 0B       		.uleb128 0xb
 1420 02f6 6C7200   		.ascii	"lr\000"
 1421 02f9 07       		.byte	0x7
 1422 02fa 1901     		.2byte	0x119
 1423 02fc 5F020000 		.4byte	0x25f
 1424 0300 02       		.byte	0x2
 1425 0301 23       		.byte	0x23
 1426 0302 20       		.uleb128 0x20
 1427 0303 00       		.byte	0
 1428 0304 0C       		.uleb128 0xc
 1429 0305 13010000 		.4byte	.LASF44
 1430 0309 04       		.byte	0x4
 1431 030a 07       		.byte	0x7
 1432 030b 2301     		.2byte	0x123
 1433 030d 21030000 		.4byte	0x321
 1434 0311 0B       		.uleb128 0xb
 1435 0312 72313300 		.ascii	"r13\000"
 1436 0316 07       		.byte	0x7
 1437 0317 2401     		.2byte	0x124
ARM GAS  C:\Users\z80\AppData\Local\Temp\ccDXx7yx.s 			page 27


 1438 0319 21030000 		.4byte	0x321
 1439 031d 02       		.byte	0x2
 1440 031e 23       		.byte	0x23
 1441 031f 00       		.uleb128 0
 1442 0320 00       		.byte	0
 1443 0321 09       		.uleb128 0x9
 1444 0322 04       		.byte	0x4
 1445 0323 77020000 		.4byte	0x277
 1446 0327 0D       		.uleb128 0xd
 1447 0328 DD000000 		.4byte	0xdd
 1448 032c 08       		.uleb128 0x8
 1449 032d 20       		.byte	0x20
 1450 032e 08       		.byte	0x8
 1451 032f 5E       		.byte	0x5e
 1452 0330 97030000 		.4byte	0x397
 1453 0334 06       		.uleb128 0x6
 1454 0335 7A020000 		.4byte	.LASF45
 1455 0339 08       		.byte	0x8
 1456 033a 5F       		.byte	0x5f
 1457 033b 32020000 		.4byte	0x232
 1458 033f 02       		.byte	0x2
 1459 0340 23       		.byte	0x23
 1460 0341 00       		.uleb128 0
 1461 0342 06       		.uleb128 0x6
 1462 0343 15020000 		.4byte	.LASF46
 1463 0347 08       		.byte	0x8
 1464 0348 60       		.byte	0x60
 1465 0349 BC000000 		.4byte	0xbc
 1466 034d 02       		.byte	0x2
 1467 034e 23       		.byte	0x23
 1468 034f 08       		.uleb128 0x8
 1469 0350 06       		.uleb128 0x6
 1470 0351 A7010000 		.4byte	.LASF47
 1471 0355 08       		.byte	0x8
 1472 0356 62       		.byte	0x62
 1473 0357 04030000 		.4byte	0x304
 1474 035b 02       		.byte	0x2
 1475 035c 23       		.byte	0x23
 1476 035d 0C       		.uleb128 0xc
 1477 035e 06       		.uleb128 0x6
 1478 035f D2000000 		.4byte	.LASF48
 1479 0363 08       		.byte	0x8
 1480 0364 65       		.byte	0x65
 1481 0365 2C020000 		.4byte	0x22c
 1482 0369 02       		.byte	0x2
 1483 036a 23       		.byte	0x23
 1484 036b 10       		.uleb128 0x10
 1485 036c 06       		.uleb128 0x6
 1486 036d CC010000 		.4byte	.LASF49
 1487 0371 08       		.byte	0x8
 1488 0372 66       		.byte	0x66
 1489 0373 2C020000 		.4byte	0x22c
 1490 0377 02       		.byte	0x2
 1491 0378 23       		.byte	0x23
 1492 0379 14       		.uleb128 0x14
 1493 037a 06       		.uleb128 0x6
 1494 037b 0B030000 		.4byte	.LASF50
ARM GAS  C:\Users\z80\AppData\Local\Temp\ccDXx7yx.s 			page 28


 1495 037f 08       		.byte	0x8
 1496 0380 6A       		.byte	0x6a
 1497 0381 E8000000 		.4byte	0xe8
 1498 0385 02       		.byte	0x2
 1499 0386 23       		.byte	0x23
 1500 0387 18       		.uleb128 0x18
 1501 0388 06       		.uleb128 0x6
 1502 0389 C2010000 		.4byte	.LASF51
 1503 038d 08       		.byte	0x8
 1504 038e 6C       		.byte	0x6c
 1505 038f 2C020000 		.4byte	0x22c
 1506 0393 02       		.byte	0x2
 1507 0394 23       		.byte	0x23
 1508 0395 1C       		.uleb128 0x1c
 1509 0396 00       		.byte	0
 1510 0397 04       		.uleb128 0x4
 1511 0398 DE020000 		.4byte	.LASF52
 1512 039c 08       		.byte	0x8
 1513 039d 6E       		.byte	0x6e
 1514 039e 2C030000 		.4byte	0x32c
 1515 03a2 05       		.uleb128 0x5
 1516 03a3 84010000 		.4byte	.LASF53
 1517 03a7 10       		.byte	0x10
 1518 03a8 09       		.byte	0x9
 1519 03a9 2C       		.byte	0x2c
 1520 03aa D9030000 		.4byte	0x3d9
 1521 03ae 06       		.uleb128 0x6
 1522 03af 6A000000 		.4byte	.LASF54
 1523 03b3 09       		.byte	0x9
 1524 03b4 2D       		.byte	0x2d
 1525 03b5 32020000 		.4byte	0x232
 1526 03b9 02       		.byte	0x2
 1527 03ba 23       		.byte	0x23
 1528 03bb 00       		.uleb128 0
 1529 03bc 06       		.uleb128 0x6
 1530 03bd 15030000 		.4byte	.LASF55
 1531 03c1 09       		.byte	0x9
 1532 03c2 2F       		.byte	0x2f
 1533 03c3 2C020000 		.4byte	0x22c
 1534 03c7 02       		.byte	0x2
 1535 03c8 23       		.byte	0x23
 1536 03c9 08       		.uleb128 0x8
 1537 03ca 06       		.uleb128 0x6
 1538 03cb 9F020000 		.4byte	.LASF56
 1539 03cf 09       		.byte	0x9
 1540 03d0 31       		.byte	0x31
 1541 03d1 D9030000 		.4byte	0x3d9
 1542 03d5 02       		.byte	0x2
 1543 03d6 23       		.byte	0x23
 1544 03d7 0C       		.uleb128 0xc
 1545 03d8 00       		.byte	0
 1546 03d9 09       		.uleb128 0x9
 1547 03da 04       		.byte	0x4
 1548 03db A2030000 		.4byte	0x3a2
 1549 03df 04       		.uleb128 0x4
 1550 03e0 84010000 		.4byte	.LASF53
 1551 03e4 09       		.byte	0x9
ARM GAS  C:\Users\z80\AppData\Local\Temp\ccDXx7yx.s 			page 29


 1552 03e5 33       		.byte	0x33
 1553 03e6 A2030000 		.4byte	0x3a2
 1554 03ea 0E       		.uleb128 0xe
 1555 03eb 04       		.byte	0x4
 1556 03ec 06       		.byte	0x6
 1557 03ed 90       		.byte	0x90
 1558 03ee 1F040000 		.4byte	0x41f
 1559 03f2 0F       		.uleb128 0xf
 1560 03f3 06000000 		.4byte	.LASF57
 1561 03f7 06       		.byte	0x6
 1562 03f8 97       		.byte	0x97
 1563 03f9 C7000000 		.4byte	0xc7
 1564 03fd 0F       		.uleb128 0xf
 1565 03fe 2D000000 		.4byte	.LASF58
 1566 0402 06       		.byte	0x6
 1567 0403 9E       		.byte	0x9e
 1568 0404 C7000000 		.4byte	0xc7
 1569 0408 0F       		.uleb128 0xf
 1570 0409 FD020000 		.4byte	.LASF59
 1571 040d 06       		.byte	0x6
 1572 040e A5       		.byte	0xa5
 1573 040f 6A020000 		.4byte	0x26a
 1574 0413 0F       		.uleb128 0xf
 1575 0414 F6020000 		.4byte	.LASF60
 1576 0418 06       		.byte	0x6
 1577 0419 AC       		.byte	0xac
 1578 041a D2000000 		.4byte	0xd2
 1579 041e 00       		.byte	0
 1580 041f 09       		.uleb128 0x9
 1581 0420 04       		.byte	0x4
 1582 0421 25040000 		.4byte	0x425
 1583 0425 10       		.uleb128 0x10
 1584 0426 2A040000 		.4byte	0x42a
 1585 042a 03       		.uleb128 0x3
 1586 042b 01       		.byte	0x1
 1587 042c 08       		.byte	0x8
 1588 042d 8E020000 		.4byte	.LASF61
 1589 0431 09       		.uleb128 0x9
 1590 0432 04       		.byte	0x4
 1591 0433 6C020000 		.4byte	0x26c
 1592 0437 09       		.uleb128 0x9
 1593 0438 04       		.byte	0x4
 1594 0439 DF030000 		.4byte	0x3df
 1595 043d 11       		.uleb128 0x11
 1596 043e 34010000 		.4byte	.LASF76
 1597 0442 01       		.byte	0x1
 1598 0443 29       		.byte	0x29
 1599 0444 01       		.byte	0x1
 1600 0445 00000000 		.4byte	.LFB0
 1601 0449 46000000 		.4byte	.LFE0
 1602 044d 00000000 		.4byte	.LLST0
 1603 0451 7E040000 		.4byte	0x47e
 1604 0455 12       		.uleb128 0x12
 1605 0456 747000   		.ascii	"tp\000"
 1606 0459 01       		.byte	0x1
 1607 045a 29       		.byte	0x29
 1608 045b 2C020000 		.4byte	0x22c
ARM GAS  C:\Users\z80\AppData\Local\Temp\ccDXx7yx.s 			page 30


 1609 045f 02       		.byte	0x2
 1610 0460 91       		.byte	0x91
 1611 0461 74       		.sleb128 -12
 1612 0462 12       		.uleb128 0x12
 1613 0463 74717000 		.ascii	"tqp\000"
 1614 0467 01       		.byte	0x1
 1615 0468 29       		.byte	0x29
 1616 0469 7E040000 		.4byte	0x47e
 1617 046d 02       		.byte	0x2
 1618 046e 91       		.byte	0x91
 1619 046f 70       		.sleb128 -16
 1620 0470 13       		.uleb128 0x13
 1621 0471 637000   		.ascii	"cp\000"
 1622 0474 01       		.byte	0x1
 1623 0475 2B       		.byte	0x2b
 1624 0476 2C020000 		.4byte	0x22c
 1625 047a 02       		.byte	0x2
 1626 047b 91       		.byte	0x91
 1627 047c 7C       		.sleb128 -4
 1628 047d 00       		.byte	0
 1629 047e 09       		.uleb128 0x9
 1630 047f 04       		.byte	0x4
 1631 0480 32020000 		.4byte	0x232
 1632 0484 14       		.uleb128 0x14
 1633 0485 93020000 		.4byte	.LASF62
 1634 0489 01       		.byte	0x1
 1635 048a 3B       		.byte	0x3b
 1636 048b 01       		.byte	0x1
 1637 048c 2C020000 		.4byte	0x22c
 1638 0490 00000000 		.4byte	.LFB2
 1639 0494 22000000 		.4byte	.LFE2
 1640 0498 20000000 		.4byte	.LLST1
 1641 049c BC040000 		.4byte	0x4bc
 1642 04a0 12       		.uleb128 0x12
 1643 04a1 74717000 		.ascii	"tqp\000"
 1644 04a5 01       		.byte	0x1
 1645 04a6 3B       		.byte	0x3b
 1646 04a7 7E040000 		.4byte	0x47e
 1647 04ab 02       		.byte	0x2
 1648 04ac 91       		.byte	0x91
 1649 04ad 74       		.sleb128 -12
 1650 04ae 13       		.uleb128 0x13
 1651 04af 747000   		.ascii	"tp\000"
 1652 04b2 01       		.byte	0x1
 1653 04b3 3C       		.byte	0x3c
 1654 04b4 2C020000 		.4byte	0x22c
 1655 04b8 02       		.byte	0x2
 1656 04b9 91       		.byte	0x91
 1657 04ba 7C       		.sleb128 -4
 1658 04bb 00       		.byte	0
 1659 04bc 14       		.uleb128 0x14
 1660 04bd BA010000 		.4byte	.LASF63
 1661 04c1 01       		.byte	0x1
 1662 04c2 49       		.byte	0x49
 1663 04c3 01       		.byte	0x1
 1664 04c4 2C020000 		.4byte	0x22c
 1665 04c8 00000000 		.4byte	.LFB4
ARM GAS  C:\Users\z80\AppData\Local\Temp\ccDXx7yx.s 			page 31


 1666 04cc 20000000 		.4byte	.LFE4
 1667 04d0 40000000 		.4byte	.LLST2
 1668 04d4 E6040000 		.4byte	0x4e6
 1669 04d8 12       		.uleb128 0x12
 1670 04d9 747000   		.ascii	"tp\000"
 1671 04dc 01       		.byte	0x1
 1672 04dd 49       		.byte	0x49
 1673 04de 2C020000 		.4byte	0x22c
 1674 04e2 02       		.byte	0x2
 1675 04e3 91       		.byte	0x91
 1676 04e4 7C       		.sleb128 -4
 1677 04e5 00       		.byte	0
 1678 04e6 15       		.uleb128 0x15
 1679 04e7 01       		.byte	0x1
 1680 04e8 D4020000 		.4byte	.LASF64
 1681 04ec 02       		.byte	0x2
 1682 04ed 56       		.byte	0x56
 1683 04ee 01       		.byte	0x1
 1684 04ef 00000000 		.4byte	.LFB7
 1685 04f3 32000000 		.4byte	.LFE7
 1686 04f7 60000000 		.4byte	.LLST3
 1687 04fb 0D050000 		.4byte	0x50d
 1688 04ff 12       		.uleb128 0x12
 1689 0500 6D7000   		.ascii	"mp\000"
 1690 0503 02       		.byte	0x2
 1691 0504 56       		.byte	0x56
 1692 0505 37040000 		.4byte	0x437
 1693 0509 02       		.byte	0x2
 1694 050a 91       		.byte	0x91
 1695 050b 74       		.sleb128 -12
 1696 050c 00       		.byte	0
 1697 050d 15       		.uleb128 0x15
 1698 050e 01       		.byte	0x1
 1699 050f 95010000 		.4byte	.LASF65
 1700 0513 02       		.byte	0x2
 1701 0514 67       		.byte	0x67
 1702 0515 01       		.byte	0x1
 1703 0516 00000000 		.4byte	.LFB8
 1704 051a 28000000 		.4byte	.LFE8
 1705 051e 8C000000 		.4byte	.LLST4
 1706 0522 66050000 		.4byte	0x566
 1707 0526 12       		.uleb128 0x12
 1708 0527 6D7000   		.ascii	"mp\000"
 1709 052a 02       		.byte	0x2
 1710 052b 67       		.byte	0x67
 1711 052c 37040000 		.4byte	0x437
 1712 0530 02       		.byte	0x2
 1713 0531 91       		.byte	0x91
 1714 0532 74       		.sleb128 -12
 1715 0533 16       		.uleb128 0x16
 1716 0534 06000000 		.4byte	.LBB2
 1717 0538 0E000000 		.4byte	.LBE2
 1718 053c 4E050000 		.4byte	0x54e
 1719 0540 13       		.uleb128 0x13
 1720 0541 746D7000 		.ascii	"tmp\000"
 1721 0545 02       		.byte	0x2
 1722 0546 69       		.byte	0x69
ARM GAS  C:\Users\z80\AppData\Local\Temp\ccDXx7yx.s 			page 32


 1723 0547 70000000 		.4byte	0x70
 1724 054b 01       		.byte	0x1
 1725 054c 53       		.byte	0x53
 1726 054d 00       		.byte	0
 1727 054e 17       		.uleb128 0x17
 1728 054f 1C000000 		.4byte	.LBB3
 1729 0553 24000000 		.4byte	.LBE3
 1730 0557 13       		.uleb128 0x13
 1731 0558 746D7000 		.ascii	"tmp\000"
 1732 055c 02       		.byte	0x2
 1733 055d 6D       		.byte	0x6d
 1734 055e 70000000 		.4byte	0x70
 1735 0562 01       		.byte	0x1
 1736 0563 53       		.byte	0x53
 1737 0564 00       		.byte	0
 1738 0565 00       		.byte	0
 1739 0566 15       		.uleb128 0x15
 1740 0567 01       		.byte	0x1
 1741 0568 B1000000 		.4byte	.LASF66
 1742 056c 02       		.byte	0x2
 1743 056d 79       		.byte	0x79
 1744 056e 01       		.byte	0x1
 1745 056f 00000000 		.4byte	.LFB9
 1746 0573 0E010000 		.4byte	.LFE9
 1747 0577 B8000000 		.4byte	.LLST5
 1748 057b B2050000 		.4byte	0x5b2
 1749 057f 12       		.uleb128 0x12
 1750 0580 6D7000   		.ascii	"mp\000"
 1751 0583 02       		.byte	0x2
 1752 0584 79       		.byte	0x79
 1753 0585 37040000 		.4byte	0x437
 1754 0589 02       		.byte	0x2
 1755 058a 91       		.byte	0x91
 1756 058b 6C       		.sleb128 -20
 1757 058c 13       		.uleb128 0x13
 1758 058d 63747000 		.ascii	"ctp\000"
 1759 0591 02       		.byte	0x2
 1760 0592 7A       		.byte	0x7a
 1761 0593 2C020000 		.4byte	0x22c
 1762 0597 02       		.byte	0x2
 1763 0598 91       		.byte	0x91
 1764 0599 70       		.sleb128 -16
 1765 059a 17       		.uleb128 0x17
 1766 059b 30000000 		.4byte	.LBB4
 1767 059f F6000000 		.4byte	.LBE4
 1768 05a3 13       		.uleb128 0x13
 1769 05a4 747000   		.ascii	"tp\000"
 1770 05a7 02       		.byte	0x2
 1771 05a8 84       		.byte	0x84
 1772 05a9 2C020000 		.4byte	0x22c
 1773 05ad 02       		.byte	0x2
 1774 05ae 91       		.byte	0x91
 1775 05af 74       		.sleb128 -12
 1776 05b0 00       		.byte	0
 1777 05b1 00       		.byte	0
 1778 05b2 18       		.uleb128 0x18
 1779 05b3 01       		.byte	0x1
ARM GAS  C:\Users\z80\AppData\Local\Temp\ccDXx7yx.s 			page 33


 1780 05b4 77010000 		.4byte	.LASF67
 1781 05b8 02       		.byte	0x2
 1782 05b9 CE       		.byte	0xce
 1783 05ba 01       		.byte	0x1
 1784 05bb 9B000000 		.4byte	0x9b
 1785 05bf 00000000 		.4byte	.LFB10
 1786 05c3 2E000000 		.4byte	.LFE10
 1787 05c7 E4000000 		.4byte	.LLST6
 1788 05cb 1B060000 		.4byte	0x61b
 1789 05cf 12       		.uleb128 0x12
 1790 05d0 6D7000   		.ascii	"mp\000"
 1791 05d3 02       		.byte	0x2
 1792 05d4 CE       		.byte	0xce
 1793 05d5 37040000 		.4byte	0x437
 1794 05d9 02       		.byte	0x2
 1795 05da 91       		.byte	0x91
 1796 05db 6C       		.sleb128 -20
 1797 05dc 13       		.uleb128 0x13
 1798 05dd 6200     		.ascii	"b\000"
 1799 05df 02       		.byte	0x2
 1800 05e0 CF       		.byte	0xcf
 1801 05e1 9B000000 		.4byte	0x9b
 1802 05e5 02       		.byte	0x2
 1803 05e6 91       		.byte	0x91
 1804 05e7 74       		.sleb128 -12
 1805 05e8 16       		.uleb128 0x16
 1806 05e9 06000000 		.4byte	.LBB5
 1807 05ed 0E000000 		.4byte	.LBE5
 1808 05f1 03060000 		.4byte	0x603
 1809 05f5 13       		.uleb128 0x13
 1810 05f6 746D7000 		.ascii	"tmp\000"
 1811 05fa 02       		.byte	0x2
 1812 05fb D1       		.byte	0xd1
 1813 05fc 70000000 		.4byte	0x70
 1814 0600 01       		.byte	0x1
 1815 0601 53       		.byte	0x53
 1816 0602 00       		.byte	0
 1817 0603 17       		.uleb128 0x17
 1818 0604 1E000000 		.4byte	.LBB6
 1819 0608 26000000 		.4byte	.LBE6
 1820 060c 13       		.uleb128 0x13
 1821 060d 746D7000 		.ascii	"tmp\000"
 1822 0611 02       		.byte	0x2
 1823 0612 D5       		.byte	0xd5
 1824 0613 70000000 		.4byte	0x70
 1825 0617 01       		.byte	0x1
 1826 0618 53       		.byte	0x53
 1827 0619 00       		.byte	0
 1828 061a 00       		.byte	0
 1829 061b 18       		.uleb128 0x18
 1830 061c 01       		.byte	0x1
 1831 061d BC000000 		.4byte	.LASF68
 1832 0621 02       		.byte	0x2
 1833 0622 EA       		.byte	0xea
 1834 0623 01       		.byte	0x1
 1835 0624 9B000000 		.4byte	0x9b
 1836 0628 00000000 		.4byte	.LFB11
ARM GAS  C:\Users\z80\AppData\Local\Temp\ccDXx7yx.s 			page 34


 1837 062c 60000000 		.4byte	.LFE11
 1838 0630 10010000 		.4byte	.LLST7
 1839 0634 46060000 		.4byte	0x646
 1840 0638 12       		.uleb128 0x12
 1841 0639 6D7000   		.ascii	"mp\000"
 1842 063c 02       		.byte	0x2
 1843 063d EA       		.byte	0xea
 1844 063e 37040000 		.4byte	0x437
 1845 0642 02       		.byte	0x2
 1846 0643 91       		.byte	0x91
 1847 0644 74       		.sleb128 -12
 1848 0645 00       		.byte	0
 1849 0646 19       		.uleb128 0x19
 1850 0647 01       		.byte	0x1
 1851 0648 36000000 		.4byte	.LASF69
 1852 064c 02       		.byte	0x2
 1853 064d 0101     		.2byte	0x101
 1854 064f 01       		.byte	0x1
 1855 0650 37040000 		.4byte	0x437
 1856 0654 00000000 		.4byte	.LFB12
 1857 0658 E4000000 		.4byte	.LFE12
 1858 065c 3C010000 		.4byte	.LLST8
 1859 0660 F0060000 		.4byte	0x6f0
 1860 0664 1A       		.uleb128 0x1a
 1861 0665 63747000 		.ascii	"ctp\000"
 1862 0669 02       		.byte	0x2
 1863 066a 0201     		.2byte	0x102
 1864 066c 2C020000 		.4byte	0x22c
 1865 0670 02       		.byte	0x2
 1866 0671 91       		.byte	0x91
 1867 0672 6C       		.sleb128 -20
 1868 0673 1A       		.uleb128 0x1a
 1869 0674 756D7000 		.ascii	"ump\000"
 1870 0678 02       		.byte	0x2
 1871 0679 0301     		.2byte	0x103
 1872 067b 37040000 		.4byte	0x437
 1873 067f 02       		.byte	0x2
 1874 0680 91       		.byte	0x91
 1875 0681 68       		.sleb128 -24
 1876 0682 1A       		.uleb128 0x1a
 1877 0683 6D7000   		.ascii	"mp\000"
 1878 0686 02       		.byte	0x2
 1879 0687 0301     		.2byte	0x103
 1880 0689 37040000 		.4byte	0x437
 1881 068d 02       		.byte	0x2
 1882 068e 91       		.byte	0x91
 1883 068f 74       		.sleb128 -12
 1884 0690 16       		.uleb128 0x16
 1885 0691 10000000 		.4byte	.LBB7
 1886 0695 18000000 		.4byte	.LBE7
 1887 0699 AC060000 		.4byte	0x6ac
 1888 069d 1A       		.uleb128 0x1a
 1889 069e 746D7000 		.ascii	"tmp\000"
 1890 06a2 02       		.byte	0x2
 1891 06a3 0501     		.2byte	0x105
 1892 06a5 70000000 		.4byte	0x70
 1893 06a9 01       		.byte	0x1
ARM GAS  C:\Users\z80\AppData\Local\Temp\ccDXx7yx.s 			page 35


 1894 06aa 53       		.byte	0x53
 1895 06ab 00       		.byte	0
 1896 06ac 16       		.uleb128 0x16
 1897 06ad 60000000 		.4byte	.LBB8
 1898 06b1 C8000000 		.4byte	.LBE8
 1899 06b5 D7060000 		.4byte	0x6d7
 1900 06b9 1A       		.uleb128 0x1a
 1901 06ba 747000   		.ascii	"tp\000"
 1902 06bd 02       		.byte	0x2
 1903 06be 1201     		.2byte	0x112
 1904 06c0 2C020000 		.4byte	0x22c
 1905 06c4 02       		.byte	0x2
 1906 06c5 91       		.byte	0x91
 1907 06c6 64       		.sleb128 -28
 1908 06c7 1B       		.uleb128 0x1b
 1909 06c8 4F010000 		.4byte	.LASF70
 1910 06cc 02       		.byte	0x2
 1911 06cd 1601     		.2byte	0x116
 1912 06cf BC000000 		.4byte	0xbc
 1913 06d3 02       		.byte	0x2
 1914 06d4 91       		.byte	0x91
 1915 06d5 70       		.sleb128 -16
 1916 06d6 00       		.byte	0
 1917 06d7 17       		.uleb128 0x17
 1918 06d8 D4000000 		.4byte	.LBB9
 1919 06dc DC000000 		.4byte	.LBE9
 1920 06e0 1A       		.uleb128 0x1a
 1921 06e1 746D7000 		.ascii	"tmp\000"
 1922 06e5 02       		.byte	0x2
 1923 06e6 2D01     		.2byte	0x12d
 1924 06e8 70000000 		.4byte	0x70
 1925 06ec 01       		.byte	0x1
 1926 06ed 53       		.byte	0x53
 1927 06ee 00       		.byte	0
 1928 06ef 00       		.byte	0
 1929 06f0 19       		.uleb128 0x19
 1930 06f1 01       		.byte	0x1
 1931 06f2 52020000 		.4byte	.LASF71
 1932 06f6 02       		.byte	0x2
 1933 06f7 3D01     		.2byte	0x13d
 1934 06f9 01       		.byte	0x1
 1935 06fa 37040000 		.4byte	0x437
 1936 06fe 00000000 		.4byte	.LFB13
 1937 0702 CC000000 		.4byte	.LFE13
 1938 0706 68010000 		.4byte	.LLST9
 1939 070a 62070000 		.4byte	0x762
 1940 070e 1A       		.uleb128 0x1a
 1941 070f 63747000 		.ascii	"ctp\000"
 1942 0713 02       		.byte	0x2
 1943 0714 3E01     		.2byte	0x13e
 1944 0716 2C020000 		.4byte	0x22c
 1945 071a 02       		.byte	0x2
 1946 071b 91       		.byte	0x91
 1947 071c 6C       		.sleb128 -20
 1948 071d 1A       		.uleb128 0x1a
 1949 071e 756D7000 		.ascii	"ump\000"
 1950 0722 02       		.byte	0x2
ARM GAS  C:\Users\z80\AppData\Local\Temp\ccDXx7yx.s 			page 36


 1951 0723 3F01     		.2byte	0x13f
 1952 0725 37040000 		.4byte	0x437
 1953 0729 02       		.byte	0x2
 1954 072a 91       		.byte	0x91
 1955 072b 68       		.sleb128 -24
 1956 072c 1A       		.uleb128 0x1a
 1957 072d 6D7000   		.ascii	"mp\000"
 1958 0730 02       		.byte	0x2
 1959 0731 3F01     		.2byte	0x13f
 1960 0733 37040000 		.4byte	0x437
 1961 0737 02       		.byte	0x2
 1962 0738 91       		.byte	0x91
 1963 0739 74       		.sleb128 -12
 1964 073a 17       		.uleb128 0x17
 1965 073b 58000000 		.4byte	.LBB10
 1966 073f BC000000 		.4byte	.LBE10
 1967 0743 1A       		.uleb128 0x1a
 1968 0744 747000   		.ascii	"tp\000"
 1969 0747 02       		.byte	0x2
 1970 0748 4F01     		.2byte	0x14f
 1971 074a 2C020000 		.4byte	0x22c
 1972 074e 02       		.byte	0x2
 1973 074f 91       		.byte	0x91
 1974 0750 64       		.sleb128 -28
 1975 0751 1B       		.uleb128 0x1b
 1976 0752 4F010000 		.4byte	.LASF70
 1977 0756 02       		.byte	0x2
 1978 0757 5301     		.2byte	0x153
 1979 0759 BC000000 		.4byte	0xbc
 1980 075d 02       		.byte	0x2
 1981 075e 91       		.byte	0x91
 1982 075f 70       		.sleb128 -16
 1983 0760 00       		.byte	0
 1984 0761 00       		.byte	0
 1985 0762 1C       		.uleb128 0x1c
 1986 0763 01       		.byte	0x1
 1987 0764 40010000 		.4byte	.LASF72
 1988 0768 02       		.byte	0x2
 1989 0769 7601     		.2byte	0x176
 1990 076b 01       		.byte	0x1
 1991 076c 00000000 		.4byte	.LFB14
 1992 0770 8E000000 		.4byte	.LFE14
 1993 0774 94010000 		.4byte	.LLST10
 1994 0778 F5070000 		.4byte	0x7f5
 1995 077c 1A       		.uleb128 0x1a
 1996 077d 63747000 		.ascii	"ctp\000"
 1997 0781 02       		.byte	0x2
 1998 0782 7701     		.2byte	0x177
 1999 0784 2C020000 		.4byte	0x22c
 2000 0788 02       		.byte	0x2
 2001 0789 91       		.byte	0x91
 2002 078a 74       		.sleb128 -12
 2003 078b 16       		.uleb128 0x16
 2004 078c 10000000 		.4byte	.LBB11
 2005 0790 18000000 		.4byte	.LBE11
 2006 0794 A7070000 		.4byte	0x7a7
 2007 0798 1A       		.uleb128 0x1a
ARM GAS  C:\Users\z80\AppData\Local\Temp\ccDXx7yx.s 			page 37


 2008 0799 746D7000 		.ascii	"tmp\000"
 2009 079d 02       		.byte	0x2
 2010 079e 7901     		.2byte	0x179
 2011 07a0 70000000 		.4byte	0x70
 2012 07a4 01       		.byte	0x1
 2013 07a5 53       		.byte	0x53
 2014 07a6 00       		.byte	0
 2015 07a7 16       		.uleb128 0x16
 2016 07a8 24000000 		.4byte	.LBB12
 2017 07ac 6A000000 		.4byte	.LBE12
 2018 07b0 DC070000 		.4byte	0x7dc
 2019 07b4 1A       		.uleb128 0x1a
 2020 07b5 756D7000 		.ascii	"ump\000"
 2021 07b9 02       		.byte	0x2
 2022 07ba 7C01     		.2byte	0x17c
 2023 07bc 37040000 		.4byte	0x437
 2024 07c0 02       		.byte	0x2
 2025 07c1 91       		.byte	0x91
 2026 07c2 70       		.sleb128 -16
 2027 07c3 17       		.uleb128 0x17
 2028 07c4 3C000000 		.4byte	.LBB13
 2029 07c8 62000000 		.4byte	.LBE13
 2030 07cc 1A       		.uleb128 0x1a
 2031 07cd 747000   		.ascii	"tp\000"
 2032 07d0 02       		.byte	0x2
 2033 07d1 7F01     		.2byte	0x17f
 2034 07d3 2C020000 		.4byte	0x22c
 2035 07d7 02       		.byte	0x2
 2036 07d8 91       		.byte	0x91
 2037 07d9 6C       		.sleb128 -20
 2038 07da 00       		.byte	0
 2039 07db 00       		.byte	0
 2040 07dc 17       		.uleb128 0x17
 2041 07dd 82000000 		.4byte	.LBB14
 2042 07e1 8A000000 		.4byte	.LBE14
 2043 07e5 1A       		.uleb128 0x1a
 2044 07e6 746D7000 		.ascii	"tmp\000"
 2045 07ea 02       		.byte	0x2
 2046 07eb 8B01     		.2byte	0x18b
 2047 07ed 70000000 		.4byte	0x70
 2048 07f1 01       		.byte	0x1
 2049 07f2 53       		.byte	0x53
 2050 07f3 00       		.byte	0
 2051 07f4 00       		.byte	0
 2052 07f5 1D       		.uleb128 0x1d
 2053 07f6 E8020000 		.4byte	.LASF77
 2054 07fa 08       		.byte	0x8
 2055 07fb 72       		.byte	0x72
 2056 07fc 97030000 		.4byte	0x397
 2057 0800 01       		.byte	0x1
 2058 0801 01       		.byte	0x1
 2059 0802 00       		.byte	0
 2060              		.section	.debug_abbrev,"",%progbits
 2061              	.Ldebug_abbrev0:
 2062 0000 01       		.uleb128 0x1
 2063 0001 11       		.uleb128 0x11
 2064 0002 01       		.byte	0x1
ARM GAS  C:\Users\z80\AppData\Local\Temp\ccDXx7yx.s 			page 38


 2065 0003 25       		.uleb128 0x25
 2066 0004 0E       		.uleb128 0xe
 2067 0005 13       		.uleb128 0x13
 2068 0006 0B       		.uleb128 0xb
 2069 0007 03       		.uleb128 0x3
 2070 0008 0E       		.uleb128 0xe
 2071 0009 1B       		.uleb128 0x1b
 2072 000a 0E       		.uleb128 0xe
 2073 000b 11       		.uleb128 0x11
 2074 000c 01       		.uleb128 0x1
 2075 000d 52       		.uleb128 0x52
 2076 000e 01       		.uleb128 0x1
 2077 000f 55       		.uleb128 0x55
 2078 0010 06       		.uleb128 0x6
 2079 0011 10       		.uleb128 0x10
 2080 0012 06       		.uleb128 0x6
 2081 0013 00       		.byte	0
 2082 0014 00       		.byte	0
 2083 0015 02       		.uleb128 0x2
 2084 0016 24       		.uleb128 0x24
 2085 0017 00       		.byte	0
 2086 0018 0B       		.uleb128 0xb
 2087 0019 0B       		.uleb128 0xb
 2088 001a 3E       		.uleb128 0x3e
 2089 001b 0B       		.uleb128 0xb
 2090 001c 03       		.uleb128 0x3
 2091 001d 08       		.uleb128 0x8
 2092 001e 00       		.byte	0
 2093 001f 00       		.byte	0
 2094 0020 03       		.uleb128 0x3
 2095 0021 24       		.uleb128 0x24
 2096 0022 00       		.byte	0
 2097 0023 0B       		.uleb128 0xb
 2098 0024 0B       		.uleb128 0xb
 2099 0025 3E       		.uleb128 0x3e
 2100 0026 0B       		.uleb128 0xb
 2101 0027 03       		.uleb128 0x3
 2102 0028 0E       		.uleb128 0xe
 2103 0029 00       		.byte	0
 2104 002a 00       		.byte	0
 2105 002b 04       		.uleb128 0x4
 2106 002c 16       		.uleb128 0x16
 2107 002d 00       		.byte	0
 2108 002e 03       		.uleb128 0x3
 2109 002f 0E       		.uleb128 0xe
 2110 0030 3A       		.uleb128 0x3a
 2111 0031 0B       		.uleb128 0xb
 2112 0032 3B       		.uleb128 0x3b
 2113 0033 0B       		.uleb128 0xb
 2114 0034 49       		.uleb128 0x49
 2115 0035 13       		.uleb128 0x13
 2116 0036 00       		.byte	0
 2117 0037 00       		.byte	0
 2118 0038 05       		.uleb128 0x5
 2119 0039 13       		.uleb128 0x13
 2120 003a 01       		.byte	0x1
 2121 003b 03       		.uleb128 0x3
ARM GAS  C:\Users\z80\AppData\Local\Temp\ccDXx7yx.s 			page 39


 2122 003c 0E       		.uleb128 0xe
 2123 003d 0B       		.uleb128 0xb
 2124 003e 0B       		.uleb128 0xb
 2125 003f 3A       		.uleb128 0x3a
 2126 0040 0B       		.uleb128 0xb
 2127 0041 3B       		.uleb128 0x3b
 2128 0042 0B       		.uleb128 0xb
 2129 0043 01       		.uleb128 0x1
 2130 0044 13       		.uleb128 0x13
 2131 0045 00       		.byte	0
 2132 0046 00       		.byte	0
 2133 0047 06       		.uleb128 0x6
 2134 0048 0D       		.uleb128 0xd
 2135 0049 00       		.byte	0
 2136 004a 03       		.uleb128 0x3
 2137 004b 0E       		.uleb128 0xe
 2138 004c 3A       		.uleb128 0x3a
 2139 004d 0B       		.uleb128 0xb
 2140 004e 3B       		.uleb128 0x3b
 2141 004f 0B       		.uleb128 0xb
 2142 0050 49       		.uleb128 0x49
 2143 0051 13       		.uleb128 0x13
 2144 0052 38       		.uleb128 0x38
 2145 0053 0A       		.uleb128 0xa
 2146 0054 00       		.byte	0
 2147 0055 00       		.byte	0
 2148 0056 07       		.uleb128 0x7
 2149 0057 0D       		.uleb128 0xd
 2150 0058 00       		.byte	0
 2151 0059 03       		.uleb128 0x3
 2152 005a 08       		.uleb128 0x8
 2153 005b 3A       		.uleb128 0x3a
 2154 005c 0B       		.uleb128 0xb
 2155 005d 3B       		.uleb128 0x3b
 2156 005e 0B       		.uleb128 0xb
 2157 005f 49       		.uleb128 0x49
 2158 0060 13       		.uleb128 0x13
 2159 0061 38       		.uleb128 0x38
 2160 0062 0A       		.uleb128 0xa
 2161 0063 00       		.byte	0
 2162 0064 00       		.byte	0
 2163 0065 08       		.uleb128 0x8
 2164 0066 13       		.uleb128 0x13
 2165 0067 01       		.byte	0x1
 2166 0068 0B       		.uleb128 0xb
 2167 0069 0B       		.uleb128 0xb
 2168 006a 3A       		.uleb128 0x3a
 2169 006b 0B       		.uleb128 0xb
 2170 006c 3B       		.uleb128 0x3b
 2171 006d 0B       		.uleb128 0xb
 2172 006e 01       		.uleb128 0x1
 2173 006f 13       		.uleb128 0x13
 2174 0070 00       		.byte	0
 2175 0071 00       		.byte	0
 2176 0072 09       		.uleb128 0x9
 2177 0073 0F       		.uleb128 0xf
 2178 0074 00       		.byte	0
ARM GAS  C:\Users\z80\AppData\Local\Temp\ccDXx7yx.s 			page 40


 2179 0075 0B       		.uleb128 0xb
 2180 0076 0B       		.uleb128 0xb
 2181 0077 49       		.uleb128 0x49
 2182 0078 13       		.uleb128 0x13
 2183 0079 00       		.byte	0
 2184 007a 00       		.byte	0
 2185 007b 0A       		.uleb128 0xa
 2186 007c 0F       		.uleb128 0xf
 2187 007d 00       		.byte	0
 2188 007e 0B       		.uleb128 0xb
 2189 007f 0B       		.uleb128 0xb
 2190 0080 00       		.byte	0
 2191 0081 00       		.byte	0
 2192 0082 0B       		.uleb128 0xb
 2193 0083 0D       		.uleb128 0xd
 2194 0084 00       		.byte	0
 2195 0085 03       		.uleb128 0x3
 2196 0086 08       		.uleb128 0x8
 2197 0087 3A       		.uleb128 0x3a
 2198 0088 0B       		.uleb128 0xb
 2199 0089 3B       		.uleb128 0x3b
 2200 008a 05       		.uleb128 0x5
 2201 008b 49       		.uleb128 0x49
 2202 008c 13       		.uleb128 0x13
 2203 008d 38       		.uleb128 0x38
 2204 008e 0A       		.uleb128 0xa
 2205 008f 00       		.byte	0
 2206 0090 00       		.byte	0
 2207 0091 0C       		.uleb128 0xc
 2208 0092 13       		.uleb128 0x13
 2209 0093 01       		.byte	0x1
 2210 0094 03       		.uleb128 0x3
 2211 0095 0E       		.uleb128 0xe
 2212 0096 0B       		.uleb128 0xb
 2213 0097 0B       		.uleb128 0xb
 2214 0098 3A       		.uleb128 0x3a
 2215 0099 0B       		.uleb128 0xb
 2216 009a 3B       		.uleb128 0x3b
 2217 009b 05       		.uleb128 0x5
 2218 009c 01       		.uleb128 0x1
 2219 009d 13       		.uleb128 0x13
 2220 009e 00       		.byte	0
 2221 009f 00       		.byte	0
 2222 00a0 0D       		.uleb128 0xd
 2223 00a1 35       		.uleb128 0x35
 2224 00a2 00       		.byte	0
 2225 00a3 49       		.uleb128 0x49
 2226 00a4 13       		.uleb128 0x13
 2227 00a5 00       		.byte	0
 2228 00a6 00       		.byte	0
 2229 00a7 0E       		.uleb128 0xe
 2230 00a8 17       		.uleb128 0x17
 2231 00a9 01       		.byte	0x1
 2232 00aa 0B       		.uleb128 0xb
 2233 00ab 0B       		.uleb128 0xb
 2234 00ac 3A       		.uleb128 0x3a
 2235 00ad 0B       		.uleb128 0xb
ARM GAS  C:\Users\z80\AppData\Local\Temp\ccDXx7yx.s 			page 41


 2236 00ae 3B       		.uleb128 0x3b
 2237 00af 0B       		.uleb128 0xb
 2238 00b0 01       		.uleb128 0x1
 2239 00b1 13       		.uleb128 0x13
 2240 00b2 00       		.byte	0
 2241 00b3 00       		.byte	0
 2242 00b4 0F       		.uleb128 0xf
 2243 00b5 0D       		.uleb128 0xd
 2244 00b6 00       		.byte	0
 2245 00b7 03       		.uleb128 0x3
 2246 00b8 0E       		.uleb128 0xe
 2247 00b9 3A       		.uleb128 0x3a
 2248 00ba 0B       		.uleb128 0xb
 2249 00bb 3B       		.uleb128 0x3b
 2250 00bc 0B       		.uleb128 0xb
 2251 00bd 49       		.uleb128 0x49
 2252 00be 13       		.uleb128 0x13
 2253 00bf 00       		.byte	0
 2254 00c0 00       		.byte	0
 2255 00c1 10       		.uleb128 0x10
 2256 00c2 26       		.uleb128 0x26
 2257 00c3 00       		.byte	0
 2258 00c4 49       		.uleb128 0x49
 2259 00c5 13       		.uleb128 0x13
 2260 00c6 00       		.byte	0
 2261 00c7 00       		.byte	0
 2262 00c8 11       		.uleb128 0x11
 2263 00c9 2E       		.uleb128 0x2e
 2264 00ca 01       		.byte	0x1
 2265 00cb 03       		.uleb128 0x3
 2266 00cc 0E       		.uleb128 0xe
 2267 00cd 3A       		.uleb128 0x3a
 2268 00ce 0B       		.uleb128 0xb
 2269 00cf 3B       		.uleb128 0x3b
 2270 00d0 0B       		.uleb128 0xb
 2271 00d1 27       		.uleb128 0x27
 2272 00d2 0C       		.uleb128 0xc
 2273 00d3 11       		.uleb128 0x11
 2274 00d4 01       		.uleb128 0x1
 2275 00d5 12       		.uleb128 0x12
 2276 00d6 01       		.uleb128 0x1
 2277 00d7 40       		.uleb128 0x40
 2278 00d8 06       		.uleb128 0x6
 2279 00d9 01       		.uleb128 0x1
 2280 00da 13       		.uleb128 0x13
 2281 00db 00       		.byte	0
 2282 00dc 00       		.byte	0
 2283 00dd 12       		.uleb128 0x12
 2284 00de 05       		.uleb128 0x5
 2285 00df 00       		.byte	0
 2286 00e0 03       		.uleb128 0x3
 2287 00e1 08       		.uleb128 0x8
 2288 00e2 3A       		.uleb128 0x3a
 2289 00e3 0B       		.uleb128 0xb
 2290 00e4 3B       		.uleb128 0x3b
 2291 00e5 0B       		.uleb128 0xb
 2292 00e6 49       		.uleb128 0x49
ARM GAS  C:\Users\z80\AppData\Local\Temp\ccDXx7yx.s 			page 42


 2293 00e7 13       		.uleb128 0x13
 2294 00e8 02       		.uleb128 0x2
 2295 00e9 0A       		.uleb128 0xa
 2296 00ea 00       		.byte	0
 2297 00eb 00       		.byte	0
 2298 00ec 13       		.uleb128 0x13
 2299 00ed 34       		.uleb128 0x34
 2300 00ee 00       		.byte	0
 2301 00ef 03       		.uleb128 0x3
 2302 00f0 08       		.uleb128 0x8
 2303 00f1 3A       		.uleb128 0x3a
 2304 00f2 0B       		.uleb128 0xb
 2305 00f3 3B       		.uleb128 0x3b
 2306 00f4 0B       		.uleb128 0xb
 2307 00f5 49       		.uleb128 0x49
 2308 00f6 13       		.uleb128 0x13
 2309 00f7 02       		.uleb128 0x2
 2310 00f8 0A       		.uleb128 0xa
 2311 00f9 00       		.byte	0
 2312 00fa 00       		.byte	0
 2313 00fb 14       		.uleb128 0x14
 2314 00fc 2E       		.uleb128 0x2e
 2315 00fd 01       		.byte	0x1
 2316 00fe 03       		.uleb128 0x3
 2317 00ff 0E       		.uleb128 0xe
 2318 0100 3A       		.uleb128 0x3a
 2319 0101 0B       		.uleb128 0xb
 2320 0102 3B       		.uleb128 0x3b
 2321 0103 0B       		.uleb128 0xb
 2322 0104 27       		.uleb128 0x27
 2323 0105 0C       		.uleb128 0xc
 2324 0106 49       		.uleb128 0x49
 2325 0107 13       		.uleb128 0x13
 2326 0108 11       		.uleb128 0x11
 2327 0109 01       		.uleb128 0x1
 2328 010a 12       		.uleb128 0x12
 2329 010b 01       		.uleb128 0x1
 2330 010c 40       		.uleb128 0x40
 2331 010d 06       		.uleb128 0x6
 2332 010e 01       		.uleb128 0x1
 2333 010f 13       		.uleb128 0x13
 2334 0110 00       		.byte	0
 2335 0111 00       		.byte	0
 2336 0112 15       		.uleb128 0x15
 2337 0113 2E       		.uleb128 0x2e
 2338 0114 01       		.byte	0x1
 2339 0115 3F       		.uleb128 0x3f
 2340 0116 0C       		.uleb128 0xc
 2341 0117 03       		.uleb128 0x3
 2342 0118 0E       		.uleb128 0xe
 2343 0119 3A       		.uleb128 0x3a
 2344 011a 0B       		.uleb128 0xb
 2345 011b 3B       		.uleb128 0x3b
 2346 011c 0B       		.uleb128 0xb
 2347 011d 27       		.uleb128 0x27
 2348 011e 0C       		.uleb128 0xc
 2349 011f 11       		.uleb128 0x11
ARM GAS  C:\Users\z80\AppData\Local\Temp\ccDXx7yx.s 			page 43


 2350 0120 01       		.uleb128 0x1
 2351 0121 12       		.uleb128 0x12
 2352 0122 01       		.uleb128 0x1
 2353 0123 40       		.uleb128 0x40
 2354 0124 06       		.uleb128 0x6
 2355 0125 01       		.uleb128 0x1
 2356 0126 13       		.uleb128 0x13
 2357 0127 00       		.byte	0
 2358 0128 00       		.byte	0
 2359 0129 16       		.uleb128 0x16
 2360 012a 0B       		.uleb128 0xb
 2361 012b 01       		.byte	0x1
 2362 012c 11       		.uleb128 0x11
 2363 012d 01       		.uleb128 0x1
 2364 012e 12       		.uleb128 0x12
 2365 012f 01       		.uleb128 0x1
 2366 0130 01       		.uleb128 0x1
 2367 0131 13       		.uleb128 0x13
 2368 0132 00       		.byte	0
 2369 0133 00       		.byte	0
 2370 0134 17       		.uleb128 0x17
 2371 0135 0B       		.uleb128 0xb
 2372 0136 01       		.byte	0x1
 2373 0137 11       		.uleb128 0x11
 2374 0138 01       		.uleb128 0x1
 2375 0139 12       		.uleb128 0x12
 2376 013a 01       		.uleb128 0x1
 2377 013b 00       		.byte	0
 2378 013c 00       		.byte	0
 2379 013d 18       		.uleb128 0x18
 2380 013e 2E       		.uleb128 0x2e
 2381 013f 01       		.byte	0x1
 2382 0140 3F       		.uleb128 0x3f
 2383 0141 0C       		.uleb128 0xc
 2384 0142 03       		.uleb128 0x3
 2385 0143 0E       		.uleb128 0xe
 2386 0144 3A       		.uleb128 0x3a
 2387 0145 0B       		.uleb128 0xb
 2388 0146 3B       		.uleb128 0x3b
 2389 0147 0B       		.uleb128 0xb
 2390 0148 27       		.uleb128 0x27
 2391 0149 0C       		.uleb128 0xc
 2392 014a 49       		.uleb128 0x49
 2393 014b 13       		.uleb128 0x13
 2394 014c 11       		.uleb128 0x11
 2395 014d 01       		.uleb128 0x1
 2396 014e 12       		.uleb128 0x12
 2397 014f 01       		.uleb128 0x1
 2398 0150 40       		.uleb128 0x40
 2399 0151 06       		.uleb128 0x6
 2400 0152 01       		.uleb128 0x1
 2401 0153 13       		.uleb128 0x13
 2402 0154 00       		.byte	0
 2403 0155 00       		.byte	0
 2404 0156 19       		.uleb128 0x19
 2405 0157 2E       		.uleb128 0x2e
 2406 0158 01       		.byte	0x1
ARM GAS  C:\Users\z80\AppData\Local\Temp\ccDXx7yx.s 			page 44


 2407 0159 3F       		.uleb128 0x3f
 2408 015a 0C       		.uleb128 0xc
 2409 015b 03       		.uleb128 0x3
 2410 015c 0E       		.uleb128 0xe
 2411 015d 3A       		.uleb128 0x3a
 2412 015e 0B       		.uleb128 0xb
 2413 015f 3B       		.uleb128 0x3b
 2414 0160 05       		.uleb128 0x5
 2415 0161 27       		.uleb128 0x27
 2416 0162 0C       		.uleb128 0xc
 2417 0163 49       		.uleb128 0x49
 2418 0164 13       		.uleb128 0x13
 2419 0165 11       		.uleb128 0x11
 2420 0166 01       		.uleb128 0x1
 2421 0167 12       		.uleb128 0x12
 2422 0168 01       		.uleb128 0x1
 2423 0169 40       		.uleb128 0x40
 2424 016a 06       		.uleb128 0x6
 2425 016b 01       		.uleb128 0x1
 2426 016c 13       		.uleb128 0x13
 2427 016d 00       		.byte	0
 2428 016e 00       		.byte	0
 2429 016f 1A       		.uleb128 0x1a
 2430 0170 34       		.uleb128 0x34
 2431 0171 00       		.byte	0
 2432 0172 03       		.uleb128 0x3
 2433 0173 08       		.uleb128 0x8
 2434 0174 3A       		.uleb128 0x3a
 2435 0175 0B       		.uleb128 0xb
 2436 0176 3B       		.uleb128 0x3b
 2437 0177 05       		.uleb128 0x5
 2438 0178 49       		.uleb128 0x49
 2439 0179 13       		.uleb128 0x13
 2440 017a 02       		.uleb128 0x2
 2441 017b 0A       		.uleb128 0xa
 2442 017c 00       		.byte	0
 2443 017d 00       		.byte	0
 2444 017e 1B       		.uleb128 0x1b
 2445 017f 34       		.uleb128 0x34
 2446 0180 00       		.byte	0
 2447 0181 03       		.uleb128 0x3
 2448 0182 0E       		.uleb128 0xe
 2449 0183 3A       		.uleb128 0x3a
 2450 0184 0B       		.uleb128 0xb
 2451 0185 3B       		.uleb128 0x3b
 2452 0186 05       		.uleb128 0x5
 2453 0187 49       		.uleb128 0x49
 2454 0188 13       		.uleb128 0x13
 2455 0189 02       		.uleb128 0x2
 2456 018a 0A       		.uleb128 0xa
 2457 018b 00       		.byte	0
 2458 018c 00       		.byte	0
 2459 018d 1C       		.uleb128 0x1c
 2460 018e 2E       		.uleb128 0x2e
 2461 018f 01       		.byte	0x1
 2462 0190 3F       		.uleb128 0x3f
 2463 0191 0C       		.uleb128 0xc
ARM GAS  C:\Users\z80\AppData\Local\Temp\ccDXx7yx.s 			page 45


 2464 0192 03       		.uleb128 0x3
 2465 0193 0E       		.uleb128 0xe
 2466 0194 3A       		.uleb128 0x3a
 2467 0195 0B       		.uleb128 0xb
 2468 0196 3B       		.uleb128 0x3b
 2469 0197 05       		.uleb128 0x5
 2470 0198 27       		.uleb128 0x27
 2471 0199 0C       		.uleb128 0xc
 2472 019a 11       		.uleb128 0x11
 2473 019b 01       		.uleb128 0x1
 2474 019c 12       		.uleb128 0x12
 2475 019d 01       		.uleb128 0x1
 2476 019e 40       		.uleb128 0x40
 2477 019f 06       		.uleb128 0x6
 2478 01a0 01       		.uleb128 0x1
 2479 01a1 13       		.uleb128 0x13
 2480 01a2 00       		.byte	0
 2481 01a3 00       		.byte	0
 2482 01a4 1D       		.uleb128 0x1d
 2483 01a5 34       		.uleb128 0x34
 2484 01a6 00       		.byte	0
 2485 01a7 03       		.uleb128 0x3
 2486 01a8 0E       		.uleb128 0xe
 2487 01a9 3A       		.uleb128 0x3a
 2488 01aa 0B       		.uleb128 0xb
 2489 01ab 3B       		.uleb128 0x3b
 2490 01ac 0B       		.uleb128 0xb
 2491 01ad 49       		.uleb128 0x49
 2492 01ae 13       		.uleb128 0x13
 2493 01af 3F       		.uleb128 0x3f
 2494 01b0 0C       		.uleb128 0xc
 2495 01b1 3C       		.uleb128 0x3c
 2496 01b2 0C       		.uleb128 0xc
 2497 01b3 00       		.byte	0
 2498 01b4 00       		.byte	0
 2499 01b5 00       		.byte	0
 2500              		.section	.debug_loc,"",%progbits
 2501              	.Ldebug_loc0:
 2502              	.LLST0:
 2503 0000 00000000 		.4byte	.LFB0
 2504 0004 02000000 		.4byte	.LCFI0
 2505 0008 0200     		.2byte	0x2
 2506 000a 7D       		.byte	0x7d
 2507 000b 00       		.sleb128 0
 2508 000c 02000000 		.4byte	.LCFI0
 2509 0010 46000000 		.4byte	.LFE0
 2510 0014 0200     		.2byte	0x2
 2511 0016 7D       		.byte	0x7d
 2512 0017 10       		.sleb128 16
 2513 0018 00000000 		.4byte	0
 2514 001c 00000000 		.4byte	0
 2515              	.LLST1:
 2516 0020 00000000 		.4byte	.LFB2
 2517 0024 02000000 		.4byte	.LCFI1
 2518 0028 0200     		.2byte	0x2
 2519 002a 7D       		.byte	0x7d
 2520 002b 00       		.sleb128 0
ARM GAS  C:\Users\z80\AppData\Local\Temp\ccDXx7yx.s 			page 46


 2521 002c 02000000 		.4byte	.LCFI1
 2522 0030 22000000 		.4byte	.LFE2
 2523 0034 0200     		.2byte	0x2
 2524 0036 7D       		.byte	0x7d
 2525 0037 10       		.sleb128 16
 2526 0038 00000000 		.4byte	0
 2527 003c 00000000 		.4byte	0
 2528              	.LLST2:
 2529 0040 00000000 		.4byte	.LFB4
 2530 0044 02000000 		.4byte	.LCFI2
 2531 0048 0200     		.2byte	0x2
 2532 004a 7D       		.byte	0x7d
 2533 004b 00       		.sleb128 0
 2534 004c 02000000 		.4byte	.LCFI2
 2535 0050 20000000 		.4byte	.LFE4
 2536 0054 0200     		.2byte	0x2
 2537 0056 7D       		.byte	0x7d
 2538 0057 08       		.sleb128 8
 2539 0058 00000000 		.4byte	0
 2540 005c 00000000 		.4byte	0
 2541              	.LLST3:
 2542 0060 00000000 		.4byte	.LFB7
 2543 0064 02000000 		.4byte	.LCFI3
 2544 0068 0200     		.2byte	0x2
 2545 006a 7D       		.byte	0x7d
 2546 006b 00       		.sleb128 0
 2547 006c 02000000 		.4byte	.LCFI3
 2548 0070 04000000 		.4byte	.LCFI4
 2549 0074 0200     		.2byte	0x2
 2550 0076 7D       		.byte	0x7d
 2551 0077 04       		.sleb128 4
 2552 0078 04000000 		.4byte	.LCFI4
 2553 007c 32000000 		.4byte	.LFE7
 2554 0080 0200     		.2byte	0x2
 2555 0082 7D       		.byte	0x7d
 2556 0083 10       		.sleb128 16
 2557 0084 00000000 		.4byte	0
 2558 0088 00000000 		.4byte	0
 2559              	.LLST4:
 2560 008c 00000000 		.4byte	.LFB8
 2561 0090 02000000 		.4byte	.LCFI5
 2562 0094 0200     		.2byte	0x2
 2563 0096 7D       		.byte	0x7d
 2564 0097 00       		.sleb128 0
 2565 0098 02000000 		.4byte	.LCFI5
 2566 009c 04000000 		.4byte	.LCFI6
 2567 00a0 0200     		.2byte	0x2
 2568 00a2 7D       		.byte	0x7d
 2569 00a3 04       		.sleb128 4
 2570 00a4 04000000 		.4byte	.LCFI6
 2571 00a8 28000000 		.4byte	.LFE8
 2572 00ac 0200     		.2byte	0x2
 2573 00ae 7D       		.byte	0x7d
 2574 00af 10       		.sleb128 16
 2575 00b0 00000000 		.4byte	0
 2576 00b4 00000000 		.4byte	0
 2577              	.LLST5:
ARM GAS  C:\Users\z80\AppData\Local\Temp\ccDXx7yx.s 			page 47


 2578 00b8 00000000 		.4byte	.LFB9
 2579 00bc 02000000 		.4byte	.LCFI7
 2580 00c0 0200     		.2byte	0x2
 2581 00c2 7D       		.byte	0x7d
 2582 00c3 00       		.sleb128 0
 2583 00c4 02000000 		.4byte	.LCFI7
 2584 00c8 04000000 		.4byte	.LCFI8
 2585 00cc 0200     		.2byte	0x2
 2586 00ce 7D       		.byte	0x7d
 2587 00cf 04       		.sleb128 4
 2588 00d0 04000000 		.4byte	.LCFI8
 2589 00d4 0E010000 		.4byte	.LFE9
 2590 00d8 0200     		.2byte	0x2
 2591 00da 7D       		.byte	0x7d
 2592 00db 18       		.sleb128 24
 2593 00dc 00000000 		.4byte	0
 2594 00e0 00000000 		.4byte	0
 2595              	.LLST6:
 2596 00e4 00000000 		.4byte	.LFB10
 2597 00e8 02000000 		.4byte	.LCFI9
 2598 00ec 0200     		.2byte	0x2
 2599 00ee 7D       		.byte	0x7d
 2600 00ef 00       		.sleb128 0
 2601 00f0 02000000 		.4byte	.LCFI9
 2602 00f4 04000000 		.4byte	.LCFI10
 2603 00f8 0200     		.2byte	0x2
 2604 00fa 7D       		.byte	0x7d
 2605 00fb 04       		.sleb128 4
 2606 00fc 04000000 		.4byte	.LCFI10
 2607 0100 2E000000 		.4byte	.LFE10
 2608 0104 0200     		.2byte	0x2
 2609 0106 7D       		.byte	0x7d
 2610 0107 18       		.sleb128 24
 2611 0108 00000000 		.4byte	0
 2612 010c 00000000 		.4byte	0
 2613              	.LLST7:
 2614 0110 00000000 		.4byte	.LFB11
 2615 0114 02000000 		.4byte	.LCFI11
 2616 0118 0200     		.2byte	0x2
 2617 011a 7D       		.byte	0x7d
 2618 011b 00       		.sleb128 0
 2619 011c 02000000 		.4byte	.LCFI11
 2620 0120 04000000 		.4byte	.LCFI12
 2621 0124 0200     		.2byte	0x2
 2622 0126 7D       		.byte	0x7d
 2623 0127 04       		.sleb128 4
 2624 0128 04000000 		.4byte	.LCFI12
 2625 012c 60000000 		.4byte	.LFE11
 2626 0130 0200     		.2byte	0x2
 2627 0132 7D       		.byte	0x7d
 2628 0133 10       		.sleb128 16
 2629 0134 00000000 		.4byte	0
 2630 0138 00000000 		.4byte	0
 2631              	.LLST8:
 2632 013c 00000000 		.4byte	.LFB12
 2633 0140 02000000 		.4byte	.LCFI13
 2634 0144 0200     		.2byte	0x2
ARM GAS  C:\Users\z80\AppData\Local\Temp\ccDXx7yx.s 			page 48


 2635 0146 7D       		.byte	0x7d
 2636 0147 00       		.sleb128 0
 2637 0148 02000000 		.4byte	.LCFI13
 2638 014c 04000000 		.4byte	.LCFI14
 2639 0150 0200     		.2byte	0x2
 2640 0152 7D       		.byte	0x7d
 2641 0153 04       		.sleb128 4
 2642 0154 04000000 		.4byte	.LCFI14
 2643 0158 E4000000 		.4byte	.LFE12
 2644 015c 0200     		.2byte	0x2
 2645 015e 7D       		.byte	0x7d
 2646 015f 20       		.sleb128 32
 2647 0160 00000000 		.4byte	0
 2648 0164 00000000 		.4byte	0
 2649              	.LLST9:
 2650 0168 00000000 		.4byte	.LFB13
 2651 016c 02000000 		.4byte	.LCFI15
 2652 0170 0200     		.2byte	0x2
 2653 0172 7D       		.byte	0x7d
 2654 0173 00       		.sleb128 0
 2655 0174 02000000 		.4byte	.LCFI15
 2656 0178 04000000 		.4byte	.LCFI16
 2657 017c 0200     		.2byte	0x2
 2658 017e 7D       		.byte	0x7d
 2659 017f 04       		.sleb128 4
 2660 0180 04000000 		.4byte	.LCFI16
 2661 0184 CC000000 		.4byte	.LFE13
 2662 0188 0200     		.2byte	0x2
 2663 018a 7D       		.byte	0x7d
 2664 018b 20       		.sleb128 32
 2665 018c 00000000 		.4byte	0
 2666 0190 00000000 		.4byte	0
 2667              	.LLST10:
 2668 0194 00000000 		.4byte	.LFB14
 2669 0198 02000000 		.4byte	.LCFI17
 2670 019c 0200     		.2byte	0x2
 2671 019e 7D       		.byte	0x7d
 2672 019f 00       		.sleb128 0
 2673 01a0 02000000 		.4byte	.LCFI17
 2674 01a4 04000000 		.4byte	.LCFI18
 2675 01a8 0200     		.2byte	0x2
 2676 01aa 7D       		.byte	0x7d
 2677 01ab 04       		.sleb128 4
 2678 01ac 04000000 		.4byte	.LCFI18
 2679 01b0 8E000000 		.4byte	.LFE14
 2680 01b4 0200     		.2byte	0x2
 2681 01b6 7D       		.byte	0x7d
 2682 01b7 18       		.sleb128 24
 2683 01b8 00000000 		.4byte	0
 2684 01bc 00000000 		.4byte	0
 2685              		.section	.debug_aranges,"",%progbits
 2686 0000 6C000000 		.4byte	0x6c
 2687 0004 0200     		.2byte	0x2
 2688 0006 00000000 		.4byte	.Ldebug_info0
 2689 000a 04       		.byte	0x4
 2690 000b 00       		.byte	0
 2691 000c 0000     		.2byte	0
ARM GAS  C:\Users\z80\AppData\Local\Temp\ccDXx7yx.s 			page 49


 2692 000e 0000     		.2byte	0
 2693 0010 00000000 		.4byte	.LFB0
 2694 0014 46000000 		.4byte	.LFE0-.LFB0
 2695 0018 00000000 		.4byte	.LFB2
 2696 001c 22000000 		.4byte	.LFE2-.LFB2
 2697 0020 00000000 		.4byte	.LFB4
 2698 0024 20000000 		.4byte	.LFE4-.LFB4
 2699 0028 00000000 		.4byte	.LFB7
 2700 002c 32000000 		.4byte	.LFE7-.LFB7
 2701 0030 00000000 		.4byte	.LFB8
 2702 0034 28000000 		.4byte	.LFE8-.LFB8
 2703 0038 00000000 		.4byte	.LFB9
 2704 003c 0E010000 		.4byte	.LFE9-.LFB9
 2705 0040 00000000 		.4byte	.LFB10
 2706 0044 2E000000 		.4byte	.LFE10-.LFB10
 2707 0048 00000000 		.4byte	.LFB11
 2708 004c 60000000 		.4byte	.LFE11-.LFB11
 2709 0050 00000000 		.4byte	.LFB12
 2710 0054 E4000000 		.4byte	.LFE12-.LFB12
 2711 0058 00000000 		.4byte	.LFB13
 2712 005c CC000000 		.4byte	.LFE13-.LFB13
 2713 0060 00000000 		.4byte	.LFB14
 2714 0064 8E000000 		.4byte	.LFE14-.LFB14
 2715 0068 00000000 		.4byte	0
 2716 006c 00000000 		.4byte	0
 2717              		.section	.debug_ranges,"",%progbits
 2718              	.Ldebug_ranges0:
 2719 0000 00000000 		.4byte	.LFB0
 2720 0004 46000000 		.4byte	.LFE0
 2721 0008 00000000 		.4byte	.LFB2
 2722 000c 22000000 		.4byte	.LFE2
 2723 0010 00000000 		.4byte	.LFB4
 2724 0014 20000000 		.4byte	.LFE4
 2725 0018 00000000 		.4byte	.LFB7
 2726 001c 32000000 		.4byte	.LFE7
 2727 0020 00000000 		.4byte	.LFB8
 2728 0024 28000000 		.4byte	.LFE8
 2729 0028 00000000 		.4byte	.LFB9
 2730 002c 0E010000 		.4byte	.LFE9
 2731 0030 00000000 		.4byte	.LFB10
 2732 0034 2E000000 		.4byte	.LFE10
 2733 0038 00000000 		.4byte	.LFB11
 2734 003c 60000000 		.4byte	.LFE11
 2735 0040 00000000 		.4byte	.LFB12
 2736 0044 E4000000 		.4byte	.LFE12
 2737 0048 00000000 		.4byte	.LFB13
 2738 004c CC000000 		.4byte	.LFE13
 2739 0050 00000000 		.4byte	.LFB14
 2740 0054 8E000000 		.4byte	.LFE14
 2741 0058 00000000 		.4byte	0
 2742 005c 00000000 		.4byte	0
 2743              		.section	.debug_line,"",%progbits
 2744              	.Ldebug_line0:
 2745 0000 09030000 		.section	.debug_str,"MS",%progbits,1
 2745      02005801 
 2745      00000201 
 2745      FB0E0D00 
ARM GAS  C:\Users\z80\AppData\Local\Temp\ccDXx7yx.s 			page 50


 2745      01010101 
 2746              	.LASF35:
 2747 0000 705F6D73 		.ascii	"p_msg\000"
 2747      6700
 2748              	.LASF57:
 2749 0006 7264796D 		.ascii	"rdymsg\000"
 2749      736700
 2750              	.LASF11:
 2751 000d 75696E74 		.ascii	"uint64_t\000"
 2751      36345F74 
 2751      00
 2752              	.LASF12:
 2753 0016 6C6F6E67 		.ascii	"long long unsigned int\000"
 2753      206C6F6E 
 2753      6720756E 
 2753      7369676E 
 2753      65642069 
 2754              	.LASF58:
 2755 002d 65786974 		.ascii	"exitcode\000"
 2755      636F6465 
 2755      00
 2756              	.LASF69:
 2757 0036 63684D74 		.ascii	"chMtxUnlock\000"
 2757      78556E6C 
 2757      6F636B00 
 2758              	.LASF24:
 2759 0042 705F7072 		.ascii	"p_prio\000"
 2759      696F00
 2760              	.LASF10:
 2761 0049 6C6F6E67 		.ascii	"long long int\000"
 2761      206C6F6E 
 2761      6720696E 
 2761      7400
 2762              	.LASF1:
 2763 0057 7369676E 		.ascii	"signed char\000"
 2763      65642063 
 2763      68617200 
 2764              	.LASF13:
 2765 0063 626F6F6C 		.ascii	"bool_t\000"
 2765      5F7400
 2766              	.LASF54:
 2767 006a 6D5F7175 		.ascii	"m_queue\000"
 2767      65756500 
 2768              	.LASF75:
 2769 0072 433A5C70 		.ascii	"C:\\projects\\digitizer.git\\firmware\\digitizer\000"
 2769      726F6A65 
 2769      6374735C 
 2769      64696769 
 2769      74697A65 
 2770              	.LASF7:
 2771 009f 6C6F6E67 		.ascii	"long int\000"
 2771      20696E74 
 2771      00
 2772              	.LASF15:
 2773 00a8 74737461 		.ascii	"tstate_t\000"
 2773      74655F74 
 2773      00
ARM GAS  C:\Users\z80\AppData\Local\Temp\ccDXx7yx.s 			page 51


 2774              	.LASF66:
 2775 00b1 63684D74 		.ascii	"chMtxLockS\000"
 2775      784C6F63 
 2775      6B5300
 2776              	.LASF68:
 2777 00bc 63684D74 		.ascii	"chMtxTryLockS\000"
 2777      78547279 
 2777      4C6F636B 
 2777      5300
 2778              	.LASF26:
 2779 00ca 705F6E65 		.ascii	"p_newer\000"
 2779      77657200 
 2780              	.LASF48:
 2781 00d2 725F6E65 		.ascii	"r_newer\000"
 2781      77657200 
 2782              	.LASF41:
 2783 00da 72656761 		.ascii	"regarm_t\000"
 2783      726D5F74 
 2783      00
 2784              	.LASF20:
 2785 00e3 636E745F 		.ascii	"cnt_t\000"
 2785      7400
 2786              	.LASF29:
 2787 00e9 705F7374 		.ascii	"p_stklimit\000"
 2787      6B6C696D 
 2787      697400
 2788              	.LASF0:
 2789 00f4 756E7369 		.ascii	"unsigned int\000"
 2789      676E6564 
 2789      20696E74 
 2789      00
 2790              	.LASF9:
 2791 0101 6C6F6E67 		.ascii	"long unsigned int\000"
 2791      20756E73 
 2791      69676E65 
 2791      6420696E 
 2791      7400
 2792              	.LASF44:
 2793 0113 636F6E74 		.ascii	"context\000"
 2793      65787400 
 2794              	.LASF4:
 2795 011b 73686F72 		.ascii	"short unsigned int\000"
 2795      7420756E 
 2795      7369676E 
 2795      65642069 
 2795      6E7400
 2796              	.LASF17:
 2797 012e 6D73675F 		.ascii	"msg_t\000"
 2797      7400
 2798              	.LASF76:
 2799 0134 7072696F 		.ascii	"prio_insert\000"
 2799      5F696E73 
 2799      65727400 
 2800              	.LASF72:
 2801 0140 63684D74 		.ascii	"chMtxUnlockAll\000"
 2801      78556E6C 
 2801      6F636B41 
ARM GAS  C:\Users\z80\AppData\Local\Temp\ccDXx7yx.s 			page 52


 2801      6C6C00
 2802              	.LASF70:
 2803 014f 6E657770 		.ascii	"newprio\000"
 2803      72696F00 
 2804              	.LASF14:
 2805 0157 746D6F64 		.ascii	"tmode_t\000"
 2805      655F7400 
 2806              	.LASF40:
 2807 015f 54687265 		.ascii	"ThreadsList\000"
 2807      6164734C 
 2807      69737400 
 2808              	.LASF18:
 2809 016b 6576656E 		.ascii	"eventmask_t\000"
 2809      746D6173 
 2809      6B5F7400 
 2810              	.LASF67:
 2811 0177 63684D74 		.ascii	"chMtxTryLock\000"
 2811      78547279 
 2811      4C6F636B 
 2811      00
 2812              	.LASF53:
 2813 0184 4D757465 		.ascii	"Mutex\000"
 2813      7800
 2814              	.LASF42:
 2815 018a 73746B61 		.ascii	"stkalign_t\000"
 2815      6C69676E 
 2815      5F7400
 2816              	.LASF65:
 2817 0195 63684D74 		.ascii	"chMtxLock\000"
 2817      784C6F63 
 2817      6B00
 2818              	.LASF27:
 2819 019f 705F6F6C 		.ascii	"p_older\000"
 2819      64657200 
 2820              	.LASF47:
 2821 01a7 725F6374 		.ascii	"r_ctx\000"
 2821      7800
 2822              	.LASF39:
 2823 01ad 54687265 		.ascii	"ThreadsQueue\000"
 2823      61647351 
 2823      75657565 
 2823      00
 2824              	.LASF63:
 2825 01ba 64657175 		.ascii	"dequeue\000"
 2825      65756500 
 2826              	.LASF51:
 2827 01c2 725F6375 		.ascii	"r_current\000"
 2827      7272656E 
 2827      7400
 2828              	.LASF49:
 2829 01cc 725F6F6C 		.ascii	"r_older\000"
 2829      64657200 
 2830              	.LASF23:
 2831 01d4 705F7072 		.ascii	"p_prev\000"
 2831      657600
 2832              	.LASF16:
 2833 01db 74707269 		.ascii	"tprio_t\000"
ARM GAS  C:\Users\z80\AppData\Local\Temp\ccDXx7yx.s 			page 53


 2833      6F5F7400 
 2834              	.LASF6:
 2835 01e3 696E7433 		.ascii	"int32_t\000"
 2835      325F7400 
 2836              	.LASF2:
 2837 01eb 756E7369 		.ascii	"unsigned char\000"
 2837      676E6564 
 2837      20636861 
 2837      7200
 2838              	.LASF37:
 2839 01f9 705F6D74 		.ascii	"p_mtxlist\000"
 2839      786C6973 
 2839      7400
 2840              	.LASF3:
 2841 0203 73686F72 		.ascii	"short int\000"
 2841      7420696E 
 2841      7400
 2842              	.LASF30:
 2843 020d 705F7374 		.ascii	"p_state\000"
 2843      61746500 
 2844              	.LASF46:
 2845 0215 725F7072 		.ascii	"r_prio\000"
 2845      696F00
 2846              	.LASF74:
 2847 021c 2E2E2F63 		.ascii	"../chibios_2.4.x/os/kernel/src/chmtx.c\000"
 2847      68696269 
 2847      6F735F32 
 2847      2E342E78 
 2847      2F6F732F 
 2848              	.LASF22:
 2849 0243 705F6E65 		.ascii	"p_next\000"
 2849      787400
 2850              	.LASF31:
 2851 024a 705F666C 		.ascii	"p_flags\000"
 2851      61677300 
 2852              	.LASF71:
 2853 0252 63684D74 		.ascii	"chMtxUnlockS\000"
 2853      78556E6C 
 2853      6F636B53 
 2853      00
 2854              	.LASF21:
 2855 025f 54687265 		.ascii	"Thread\000"
 2855      616400
 2856              	.LASF36:
 2857 0266 705F6570 		.ascii	"p_epending\000"
 2857      656E6469 
 2857      6E6700
 2858              	.LASF8:
 2859 0271 75696E74 		.ascii	"uint32_t\000"
 2859      33325F74 
 2859      00
 2860              	.LASF45:
 2861 027a 725F7175 		.ascii	"r_queue\000"
 2861      65756500 
 2862              	.LASF73:
 2863 0282 474E5520 		.ascii	"GNU C 4.6.3\000"
 2863      4320342E 
ARM GAS  C:\Users\z80\AppData\Local\Temp\ccDXx7yx.s 			page 54


 2863      362E3300 
 2864              	.LASF61:
 2865 028e 63686172 		.ascii	"char\000"
 2865      00
 2866              	.LASF62:
 2867 0293 6669666F 		.ascii	"fifo_remove\000"
 2867      5F72656D 
 2867      6F766500 
 2868              	.LASF56:
 2869 029f 6D5F6E65 		.ascii	"m_next\000"
 2869      787400
 2870              	.LASF19:
 2871 02a6 73797374 		.ascii	"systime_t\000"
 2871      696D655F 
 2871      7400
 2872              	.LASF38:
 2873 02b0 705F7265 		.ascii	"p_realprio\000"
 2873      616C7072 
 2873      696F00
 2874              	.LASF32:
 2875 02bb 705F7469 		.ascii	"p_time\000"
 2875      6D6500
 2876              	.LASF43:
 2877 02c2 696E7463 		.ascii	"intctx\000"
 2877      747800
 2878              	.LASF34:
 2879 02c9 705F6D73 		.ascii	"p_msgqueue\000"
 2879      67717565 
 2879      756500
 2880              	.LASF64:
 2881 02d4 63684D74 		.ascii	"chMtxInit\000"
 2881      78496E69 
 2881      7400
 2882              	.LASF52:
 2883 02de 52656164 		.ascii	"ReadyList\000"
 2883      794C6973 
 2883      7400
 2884              	.LASF77:
 2885 02e8 726C6973 		.ascii	"rlist\000"
 2885      7400
 2886              	.LASF5:
 2887 02ee 75696E74 		.ascii	"uint8_t\000"
 2887      385F7400 
 2888              	.LASF60:
 2889 02f6 65776D61 		.ascii	"ewmask\000"
 2889      736B00
 2890              	.LASF59:
 2891 02fd 77746F62 		.ascii	"wtobjp\000"
 2891      6A7000
 2892              	.LASF28:
 2893 0304 705F6E61 		.ascii	"p_name\000"
 2893      6D6500
 2894              	.LASF50:
 2895 030b 725F7072 		.ascii	"r_preempt\000"
 2895      65656D70 
 2895      7400
 2896              	.LASF55:
ARM GAS  C:\Users\z80\AppData\Local\Temp\ccDXx7yx.s 			page 55


 2897 0315 6D5F6F77 		.ascii	"m_owner\000"
 2897      6E657200 
 2898              	.LASF25:
 2899 031d 705F6374 		.ascii	"p_ctx\000"
 2899      7800
 2900              	.LASF33:
 2901 0323 705F7761 		.ascii	"p_waiting\000"
 2901      6974696E 
 2901      6700
 2902              		.ident	"GCC: (Sourcery CodeBench Lite 2012.03-56) 4.6.3"
ARM GAS  C:\Users\z80\AppData\Local\Temp\ccDXx7yx.s 			page 56


DEFINED SYMBOLS
                            *ABS*:00000000 chmtx.c
C:\Users\z80\AppData\Local\Temp\ccDXx7yx.s:19     .text.prio_insert:00000000 $t
C:\Users\z80\AppData\Local\Temp\ccDXx7yx.s:24     .text.prio_insert:00000000 prio_insert
C:\Users\z80\AppData\Local\Temp\ccDXx7yx.s:82     .text.fifo_remove:00000000 $t
C:\Users\z80\AppData\Local\Temp\ccDXx7yx.s:87     .text.fifo_remove:00000000 fifo_remove
C:\Users\z80\AppData\Local\Temp\ccDXx7yx.s:121    .text.dequeue:00000000 $t
C:\Users\z80\AppData\Local\Temp\ccDXx7yx.s:126    .text.dequeue:00000000 dequeue
C:\Users\z80\AppData\Local\Temp\ccDXx7yx.s:159    .rodata:00000000 $d
C:\Users\z80\AppData\Local\Temp\ccDXx7yx.s:160    .rodata:00000000 .LC0
C:\Users\z80\AppData\Local\Temp\ccDXx7yx.s:163    .text.chMtxInit:00000000 $t
C:\Users\z80\AppData\Local\Temp\ccDXx7yx.s:169    .text.chMtxInit:00000000 chMtxInit
C:\Users\z80\AppData\Local\Temp\ccDXx7yx.s:212    .text.chMtxLock:00000000 $t
C:\Users\z80\AppData\Local\Temp\ccDXx7yx.s:218    .text.chMtxLock:00000000 chMtxLock
C:\Users\z80\AppData\Local\Temp\ccDXx7yx.s:276    .text.chMtxLockS:00000000 chMtxLockS
C:\Users\z80\AppData\Local\Temp\ccDXx7yx.s:261    .rodata:00000010 .LC1
C:\Users\z80\AppData\Local\Temp\ccDXx7yx.s:264    .rodata:00000020 .LC2
C:\Users\z80\AppData\Local\Temp\ccDXx7yx.s:267    .rodata:00000034 .LC3
C:\Users\z80\AppData\Local\Temp\ccDXx7yx.s:270    .text.chMtxLockS:00000000 $t
C:\Users\z80\AppData\Local\Temp\ccDXx7yx.s:445    .text.chMtxTryLock:00000000 $t
C:\Users\z80\AppData\Local\Temp\ccDXx7yx.s:451    .text.chMtxTryLock:00000000 chMtxTryLock
C:\Users\z80\AppData\Local\Temp\ccDXx7yx.s:507    .text.chMtxTryLockS:00000000 chMtxTryLockS
C:\Users\z80\AppData\Local\Temp\ccDXx7yx.s:498    .rodata:00000048 .LC4
C:\Users\z80\AppData\Local\Temp\ccDXx7yx.s:501    .text.chMtxTryLockS:00000000 $t
C:\Users\z80\AppData\Local\Temp\ccDXx7yx.s:572    .rodata:0000005c .LC5
C:\Users\z80\AppData\Local\Temp\ccDXx7yx.s:575    .rodata:00000070 .LC6
C:\Users\z80\AppData\Local\Temp\ccDXx7yx.s:578    .text.chMtxUnlock:00000000 $t
C:\Users\z80\AppData\Local\Temp\ccDXx7yx.s:584    .text.chMtxUnlock:00000000 chMtxUnlock
C:\Users\z80\AppData\Local\Temp\ccDXx7yx.s:742    .rodata:00000084 .LC7
C:\Users\z80\AppData\Local\Temp\ccDXx7yx.s:745    .rodata:00000098 .LC8
C:\Users\z80\AppData\Local\Temp\ccDXx7yx.s:748    .text.chMtxUnlockS:00000000 $t
C:\Users\z80\AppData\Local\Temp\ccDXx7yx.s:754    .text.chMtxUnlockS:00000000 chMtxUnlockS
C:\Users\z80\AppData\Local\Temp\ccDXx7yx.s:894    .text.chMtxUnlockAll:00000000 $t
C:\Users\z80\AppData\Local\Temp\ccDXx7yx.s:900    .text.chMtxUnlockAll:00000000 chMtxUnlockAll
                     .debug_frame:00000010 $d

UNDEFINED SYMBOLS
chDbgPanic
dbg_check_lock
dbg_check_unlock
rlist
chDbgCheckClassS
chSchReadyI
chSchGoSleepS
chSchWakeupS
chSchRescheduleS
