ARM GAS  C:\Users\z80\AppData\Local\Temp\ccB71TLf.s 			page 1


   1              		.syntax unified
   2              		.cpu cortex-m3
   3              		.fpu softvfp
   4              		.eabi_attribute 20, 1
   5              		.eabi_attribute 21, 1
   6              		.eabi_attribute 23, 3
   7              		.eabi_attribute 24, 1
   8              		.eabi_attribute 25, 1
   9              		.eabi_attribute 26, 1
  10              		.eabi_attribute 30, 6
  11              		.eabi_attribute 34, 1
  12              		.eabi_attribute 18, 4
  13              		.thumb
  14              		.file	"chprintf.c"
  15              		.text
  16              	.Ltext0:
  17              		.cfi_sections	.debug_frame
  18              		.section	.text.ltoa,"ax",%progbits
  19              		.align	2
  20              		.p2align 4,,15
  21              		.thumb
  22              		.thumb_func
  23              		.type	ltoa, %function
  24              	ltoa:
  25              	.LFB7:
  26              		.file 1 "../chibios_2.4.x/os/various/chprintf.c"
  27              		.loc 1 42 0
  28              		.cfi_startproc
  29              		@ args = 0, pretend = 0, frame = 24
  30              		@ frame_needed = 0, uses_anonymous_args = 0
  31              		@ link register save eliminated.
  32 0000 86B0     		sub	sp, sp, #24
  33              	.LCFI0:
  34              		.cfi_def_cfa_offset 24
  35 0002 0390     		str	r0, [sp, #12]
  36 0004 0291     		str	r1, [sp, #8]
  37 0006 0192     		str	r2, [sp, #4]
  38              		.loc 1 46 0
  39 0008 039B     		ldr	r3, [sp, #12]
  40 000a 03F10B03 		add	r3, r3, #11
  41 000e 0493     		str	r3, [sp, #16]
  42              	.L3:
  43              		.loc 1 48 0
  44 0010 029B     		ldr	r3, [sp, #8]
  45 0012 019A     		ldr	r2, [sp, #4]
  46 0014 B3FBF2F2 		udiv	r2, r3, r2
  47 0018 0199     		ldr	r1, [sp, #4]
  48 001a 01FB02F2 		mul	r2, r1, r2
  49 001e 9B1A     		subs	r3, r3, r2
  50 0020 0593     		str	r3, [sp, #20]
  51              		.loc 1 49 0
  52 0022 059B     		ldr	r3, [sp, #20]
  53 0024 03F13003 		add	r3, r3, #48
  54 0028 0593     		str	r3, [sp, #20]
  55              		.loc 1 50 0
  56 002a 059B     		ldr	r3, [sp, #20]
  57 002c 392B     		cmp	r3, #57
ARM GAS  C:\Users\z80\AppData\Local\Temp\ccB71TLf.s 			page 2


  58 002e 03DD     		ble	.L2
  59              		.loc 1 51 0
  60 0030 059B     		ldr	r3, [sp, #20]
  61 0032 03F10703 		add	r3, r3, #7
  62 0036 0593     		str	r3, [sp, #20]
  63              	.L2:
  64              		.loc 1 52 0
  65 0038 049B     		ldr	r3, [sp, #16]
  66 003a 03F1FF33 		add	r3, r3, #-1
  67 003e 0493     		str	r3, [sp, #16]
  68 0040 059B     		ldr	r3, [sp, #20]
  69 0042 DAB2     		uxtb	r2, r3
  70 0044 049B     		ldr	r3, [sp, #16]
  71 0046 1A70     		strb	r2, [r3, #0]
  72              		.loc 1 53 0
  73 0048 029A     		ldr	r2, [sp, #8]
  74 004a 019B     		ldr	r3, [sp, #4]
  75 004c B2FBF3F3 		udiv	r3, r2, r3
  76 0050 0293     		str	r3, [sp, #8]
  77 0052 029B     		ldr	r3, [sp, #8]
  78 0054 002B     		cmp	r3, #0
  79 0056 DBD1     		bne	.L3
  80              		.loc 1 55 0
  81 0058 039B     		ldr	r3, [sp, #12]
  82 005a 03F10B03 		add	r3, r3, #11
  83 005e 1A46     		mov	r2, r3
  84 0060 049B     		ldr	r3, [sp, #16]
  85 0062 D31A     		subs	r3, r2, r3
  86 0064 0593     		str	r3, [sp, #20]
  87              	.L4:
  88              		.loc 1 57 0 discriminator 1
  89 0066 049B     		ldr	r3, [sp, #16]
  90 0068 1A78     		ldrb	r2, [r3, #0]	@ zero_extendqisi2
  91 006a 039B     		ldr	r3, [sp, #12]
  92 006c 1A70     		strb	r2, [r3, #0]
  93 006e 039B     		ldr	r3, [sp, #12]
  94 0070 03F10103 		add	r3, r3, #1
  95 0074 0393     		str	r3, [sp, #12]
  96 0076 049B     		ldr	r3, [sp, #16]
  97 0078 03F10103 		add	r3, r3, #1
  98 007c 0493     		str	r3, [sp, #16]
  99              		.loc 1 58 0 discriminator 1
 100 007e 059B     		ldr	r3, [sp, #20]
 101 0080 03F1FF33 		add	r3, r3, #-1
 102 0084 0593     		str	r3, [sp, #20]
 103 0086 059B     		ldr	r3, [sp, #20]
 104 0088 002B     		cmp	r3, #0
 105 008a ECD1     		bne	.L4
 106              		.loc 1 60 0
 107 008c 039B     		ldr	r3, [sp, #12]
 108              		.loc 1 61 0
 109 008e 1846     		mov	r0, r3
 110 0090 06B0     		add	sp, sp, #24
 111 0092 7047     		bx	lr
 112              		.cfi_endproc
 113              	.LFE7:
 114              		.size	ltoa, .-ltoa
ARM GAS  C:\Users\z80\AppData\Local\Temp\ccB71TLf.s 			page 3


 115 0094 AFF30080 		.section	.rodata
 115      AFF30080 
 115      AFF30080 
 116              		.align	2
 117              	.LC0:
 118 0000 286E756C 		.ascii	"(null)\000"
 118      6C2900
 119 0007 00       		.section	.text.chprintf,"ax",%progbits
 120              		.align	2
 121              		.p2align 4,,15
 122              		.global	chprintf
 123              		.thumb
 124              		.thumb_func
 125              		.type	chprintf, %function
 126              	chprintf:
 127              	.LFB8:
 128              		.loc 1 86 0
 129              		.cfi_startproc
 130              		@ args = 4, pretend = 12, frame = 64
 131              		@ frame_needed = 0, uses_anonymous_args = 1
 132 0000 0EB4     		push	{r1, r2, r3}
 133              	.LCFI1:
 134              		.cfi_def_cfa_offset 12
 135              		.cfi_offset 3, -4
 136              		.cfi_offset 2, -8
 137              		.cfi_offset 1, -12
 138 0002 00B5     		push	{lr}
 139              	.LCFI2:
 140              		.cfi_def_cfa_offset 16
 141              		.cfi_offset 14, -16
 142 0004 90B0     		sub	sp, sp, #64
 143              	.LCFI3:
 144              		.cfi_def_cfa_offset 80
 145 0006 0190     		str	r0, [sp, #4]
 146              		.loc 1 94 0
 147 0008 12AB     		add	r3, sp, #72
 148 000a 0693     		str	r3, [sp, #24]
 149              	.L55:
 150              		.loc 1 96 0
 151 000c 119B     		ldr	r3, [sp, #68]
 152 000e 1B78     		ldrb	r3, [r3, #0]
 153 0010 8DF83730 		strb	r3, [sp, #55]
 154 0014 119B     		ldr	r3, [sp, #68]
 155 0016 03F10103 		add	r3, r3, #1
 156 001a 1193     		str	r3, [sp, #68]
 157              		.loc 1 97 0
 158 001c 9DF83730 		ldrb	r3, [sp, #55]	@ zero_extendqisi2
 159 0020 002B     		cmp	r3, #0
 160 0022 00F03782 		beq	.L57
 161              	.L6:
 162              		.loc 1 101 0
 163 0026 9DF83730 		ldrb	r3, [sp, #55]	@ zero_extendqisi2
 164 002a 252B     		cmp	r3, #37
 165 002c 0BD0     		beq	.L7
 166              		.loc 1 102 0
 167 002e 019B     		ldr	r3, [sp, #4]
 168 0030 1B68     		ldr	r3, [r3, #0]
ARM GAS  C:\Users\z80\AppData\Local\Temp\ccB71TLf.s 			page 4


 169 0032 1B69     		ldr	r3, [r3, #16]
 170 0034 9DF83720 		ldrb	r2, [sp, #55]	@ zero_extendqisi2
 171 0038 0198     		ldr	r0, [sp, #4]
 172 003a 1146     		mov	r1, r2
 173 003c 4FF0FF32 		mov	r2, #-1
 174 0040 9847     		blx	r3
 175              		.loc 1 103 0
 176 0042 00BF     		nop
 177              		.loc 1 221 0
 178 0044 E2E7     		b	.L55
 179              	.L7:
 180              		.loc 1 105 0
 181 0046 03AB     		add	r3, sp, #12
 182 0048 0F93     		str	r3, [sp, #60]
 183              		.loc 1 106 0
 184 004a 03AB     		add	r3, sp, #12
 185 004c 0E93     		str	r3, [sp, #56]
 186              		.loc 1 107 0
 187 004e 4FF00003 		mov	r3, #0
 188 0052 0893     		str	r3, [sp, #32]
 189              		.loc 1 108 0
 190 0054 119B     		ldr	r3, [sp, #68]
 191 0056 1B78     		ldrb	r3, [r3, #0]	@ zero_extendqisi2
 192 0058 2D2B     		cmp	r3, #45
 193 005a 06D1     		bne	.L9
 194              		.loc 1 109 0
 195 005c 119B     		ldr	r3, [sp, #68]
 196 005e 03F10103 		add	r3, r3, #1
 197 0062 1193     		str	r3, [sp, #68]
 198              		.loc 1 110 0
 199 0064 4FF00103 		mov	r3, #1
 200 0068 0893     		str	r3, [sp, #32]
 201              	.L9:
 202              		.loc 1 112 0
 203 006a 4FF02003 		mov	r3, #32
 204 006e 8DF83630 		strb	r3, [sp, #54]
 205              		.loc 1 113 0
 206 0072 119B     		ldr	r3, [sp, #68]
 207 0074 1B78     		ldrb	r3, [r3, #0]	@ zero_extendqisi2
 208 0076 2E2B     		cmp	r3, #46
 209 0078 07D1     		bne	.L10
 210              		.loc 1 114 0
 211 007a 119B     		ldr	r3, [sp, #68]
 212 007c 03F10103 		add	r3, r3, #1
 213 0080 1193     		str	r3, [sp, #68]
 214              		.loc 1 115 0
 215 0082 4FF03003 		mov	r3, #48
 216 0086 8DF83630 		strb	r3, [sp, #54]
 217              	.L10:
 218              		.loc 1 117 0
 219 008a 4FF00003 		mov	r3, #0
 220 008e 0A93     		str	r3, [sp, #40]
 221              	.L15:
 222              		.loc 1 119 0
 223 0090 119B     		ldr	r3, [sp, #68]
 224 0092 1B78     		ldrb	r3, [r3, #0]
 225 0094 8DF83730 		strb	r3, [sp, #55]
ARM GAS  C:\Users\z80\AppData\Local\Temp\ccB71TLf.s 			page 5


 226 0098 119B     		ldr	r3, [sp, #68]
 227 009a 03F10103 		add	r3, r3, #1
 228 009e 1193     		str	r3, [sp, #68]
 229              		.loc 1 120 0
 230 00a0 9DF83730 		ldrb	r3, [sp, #55]	@ zero_extendqisi2
 231 00a4 2F2B     		cmp	r3, #47
 232 00a6 0AD9     		bls	.L11
 233              		.loc 1 120 0 is_stmt 0 discriminator 1
 234 00a8 9DF83730 		ldrb	r3, [sp, #55]	@ zero_extendqisi2
 235 00ac 392B     		cmp	r3, #57
 236 00ae 06D8     		bhi	.L11
 237              		.loc 1 121 0 is_stmt 1
 238 00b0 9DF83730 		ldrb	r3, [sp, #55]
 239 00b4 A3F13003 		sub	r3, r3, #48
 240 00b8 8DF83730 		strb	r3, [sp, #55]
 241 00bc 0AE0     		b	.L12
 242              	.L11:
 243              		.loc 1 122 0
 244 00be 9DF83730 		ldrb	r3, [sp, #55]	@ zero_extendqisi2
 245 00c2 2A2B     		cmp	r3, #42
 246 00c4 13D1     		bne	.L58
 247              		.loc 1 123 0
 248 00c6 069B     		ldr	r3, [sp, #24]
 249 00c8 03F10402 		add	r2, r3, #4
 250 00cc 0692     		str	r2, [sp, #24]
 251 00ce 1B68     		ldr	r3, [r3, #0]
 252 00d0 8DF83730 		strb	r3, [sp, #55]
 253              	.L12:
 254              		.loc 1 126 0
 255 00d4 0A9A     		ldr	r2, [sp, #40]
 256 00d6 1346     		mov	r3, r2
 257 00d8 4FEA8303 		lsl	r3, r3, #2
 258 00dc 9B18     		adds	r3, r3, r2
 259 00de 4FEA4303 		lsl	r3, r3, #1
 260 00e2 1A46     		mov	r2, r3
 261 00e4 9DF83730 		ldrb	r3, [sp, #55]	@ zero_extendqisi2
 262 00e8 D318     		adds	r3, r2, r3
 263 00ea 0A93     		str	r3, [sp, #40]
 264              		.loc 1 127 0
 265 00ec D0E7     		b	.L15
 266              	.L58:
 267              		.loc 1 125 0
 268 00ee 00BF     		nop
 269              	.L14:
 270              		.loc 1 128 0
 271 00f0 4FF00003 		mov	r3, #0
 272 00f4 0B93     		str	r3, [sp, #44]
 273              		.loc 1 129 0
 274 00f6 9DF83730 		ldrb	r3, [sp, #55]	@ zero_extendqisi2
 275 00fa 2E2B     		cmp	r3, #46
 276 00fc 30D1     		bne	.L16
 277              	.L20:
 278              		.loc 1 131 0
 279 00fe 119B     		ldr	r3, [sp, #68]
 280 0100 1B78     		ldrb	r3, [r3, #0]
 281 0102 8DF83730 		strb	r3, [sp, #55]
 282 0106 119B     		ldr	r3, [sp, #68]
ARM GAS  C:\Users\z80\AppData\Local\Temp\ccB71TLf.s 			page 6


 283 0108 03F10103 		add	r3, r3, #1
 284 010c 1193     		str	r3, [sp, #68]
 285              		.loc 1 132 0
 286 010e 9DF83730 		ldrb	r3, [sp, #55]	@ zero_extendqisi2
 287 0112 2F2B     		cmp	r3, #47
 288 0114 0AD9     		bls	.L17
 289              		.loc 1 132 0 is_stmt 0 discriminator 1
 290 0116 9DF83730 		ldrb	r3, [sp, #55]	@ zero_extendqisi2
 291 011a 392B     		cmp	r3, #57
 292 011c 06D8     		bhi	.L17
 293              		.loc 1 133 0 is_stmt 1
 294 011e 9DF83730 		ldrb	r3, [sp, #55]
 295 0122 A3F13003 		sub	r3, r3, #48
 296 0126 8DF83730 		strb	r3, [sp, #55]
 297 012a 0AE0     		b	.L18
 298              	.L17:
 299              		.loc 1 134 0
 300 012c 9DF83730 		ldrb	r3, [sp, #55]	@ zero_extendqisi2
 301 0130 2A2B     		cmp	r3, #42
 302 0132 14D1     		bne	.L59
 303              		.loc 1 135 0
 304 0134 069B     		ldr	r3, [sp, #24]
 305 0136 03F10402 		add	r2, r3, #4
 306 013a 0692     		str	r2, [sp, #24]
 307 013c 1B68     		ldr	r3, [r3, #0]
 308 013e 8DF83730 		strb	r3, [sp, #55]
 309              	.L18:
 310              		.loc 1 138 0
 311 0142 0B9A     		ldr	r2, [sp, #44]
 312 0144 1346     		mov	r3, r2
 313 0146 4FEA8303 		lsl	r3, r3, #2
 314 014a 9B18     		adds	r3, r3, r2
 315 014c 4FEA4303 		lsl	r3, r3, #1
 316 0150 0B93     		str	r3, [sp, #44]
 317              		.loc 1 139 0
 318 0152 9DF83730 		ldrb	r3, [sp, #55]	@ zero_extendqisi2
 319 0156 0B9A     		ldr	r2, [sp, #44]
 320 0158 D318     		adds	r3, r2, r3
 321 015a 0B93     		str	r3, [sp, #44]
 322              		.loc 1 140 0
 323 015c CFE7     		b	.L20
 324              	.L59:
 325              		.loc 1 137 0
 326 015e 00BF     		nop
 327              	.L16:
 328              		.loc 1 143 0
 329 0160 9DF83730 		ldrb	r3, [sp, #55]	@ zero_extendqisi2
 330 0164 6C2B     		cmp	r3, #108
 331 0166 03D0     		beq	.L21
 332              		.loc 1 143 0 is_stmt 0 discriminator 1
 333 0168 9DF83730 		ldrb	r3, [sp, #55]	@ zero_extendqisi2
 334 016c 4C2B     		cmp	r3, #76
 335 016e 0FD1     		bne	.L22
 336              	.L21:
 337              		.loc 1 144 0 is_stmt 1
 338 0170 4FF00103 		mov	r3, #1
 339 0174 0993     		str	r3, [sp, #36]
ARM GAS  C:\Users\z80\AppData\Local\Temp\ccB71TLf.s 			page 7


 340              		.loc 1 145 0
 341 0176 119B     		ldr	r3, [sp, #68]
 342 0178 1B78     		ldrb	r3, [r3, #0]	@ zero_extendqisi2
 343 017a 002B     		cmp	r3, #0
 344 017c 16D0     		beq	.L24
 345              		.loc 1 146 0
 346 017e 119B     		ldr	r3, [sp, #68]
 347 0180 1B78     		ldrb	r3, [r3, #0]
 348 0182 8DF83730 		strb	r3, [sp, #55]
 349 0186 119B     		ldr	r3, [sp, #68]
 350 0188 03F10103 		add	r3, r3, #1
 351 018c 1193     		str	r3, [sp, #68]
 352              		.loc 1 145 0
 353 018e 0DE0     		b	.L24
 354              	.L22:
 355              		.loc 1 149 0
 356 0190 9DF83730 		ldrb	r3, [sp, #55]	@ zero_extendqisi2
 357 0194 402B     		cmp	r3, #64
 358 0196 06D9     		bls	.L25
 359              		.loc 1 149 0 is_stmt 0 discriminator 1
 360 0198 9DF83730 		ldrb	r3, [sp, #55]	@ zero_extendqisi2
 361 019c 5A2B     		cmp	r3, #90
 362 019e 02D8     		bhi	.L25
 363 01a0 4FF00103 		mov	r3, #1
 364 01a4 01E0     		b	.L26
 365              	.L25:
 366              		.loc 1 149 0 discriminator 2
 367 01a6 4FF00003 		mov	r3, #0
 368              	.L26:
 369              		.loc 1 149 0 discriminator 3
 370 01aa 0993     		str	r3, [sp, #36]
 371              	.L24:
 372              		.loc 1 152 0 is_stmt 1
 373 01ac 9DF83730 		ldrb	r3, [sp, #55]	@ zero_extendqisi2
 374 01b0 A3F14403 		sub	r3, r3, #68
 375 01b4 342B     		cmp	r3, #52
 376 01b6 00F2F780 		bhi	.L27
 377 01ba 01A2     		adr	r2, .L34
 378 01bc 52F823F0 		ldr	pc, [r2, r3, lsl #2]
 379              		.align	2
 380              	.L34:
 381 01c0 0D030000 		.word	.L28+1
 382 01c4 A9030000 		.word	.L27+1
 383 01c8 A9030000 		.word	.L27+1
 384 01cc A9030000 		.word	.L27+1
 385 01d0 A9030000 		.word	.L27+1
 386 01d4 A9030000 		.word	.L27+1
 387 01d8 A9030000 		.word	.L27+1
 388 01dc A9030000 		.word	.L27+1
 389 01e0 A9030000 		.word	.L27+1
 390 01e4 A9030000 		.word	.L27+1
 391 01e8 A9030000 		.word	.L27+1
 392 01ec 6F030000 		.word	.L29+1
 393 01f0 A9030000 		.word	.L27+1
 394 01f4 A9030000 		.word	.L27+1
 395 01f8 A9030000 		.word	.L27+1
 396 01fc A9030000 		.word	.L27+1
ARM GAS  C:\Users\z80\AppData\Local\Temp\ccB71TLf.s 			page 8


 397 0200 A9030000 		.word	.L27+1
 398 0204 65030000 		.word	.L30+1
 399 0208 A9030000 		.word	.L27+1
 400 020c A9030000 		.word	.L27+1
 401 0210 5B030000 		.word	.L31+1
 402 0214 A9030000 		.word	.L27+1
 403 0218 A9030000 		.word	.L27+1
 404 021c A9030000 		.word	.L27+1
 405 0220 A9030000 		.word	.L27+1
 406 0224 A9030000 		.word	.L27+1
 407 0228 A9030000 		.word	.L27+1
 408 022c A9030000 		.word	.L27+1
 409 0230 A9030000 		.word	.L27+1
 410 0234 A9030000 		.word	.L27+1
 411 0238 A9030000 		.word	.L27+1
 412 023c 95020000 		.word	.L32+1
 413 0240 0D030000 		.word	.L28+1
 414 0244 A9030000 		.word	.L27+1
 415 0248 A9030000 		.word	.L27+1
 416 024c A9030000 		.word	.L27+1
 417 0250 A9030000 		.word	.L27+1
 418 0254 A9030000 		.word	.L27+1
 419 0258 A9030000 		.word	.L27+1
 420 025c A9030000 		.word	.L27+1
 421 0260 A9030000 		.word	.L27+1
 422 0264 A9030000 		.word	.L27+1
 423 0268 A9030000 		.word	.L27+1
 424 026c 6F030000 		.word	.L29+1
 425 0270 A9030000 		.word	.L27+1
 426 0274 A9030000 		.word	.L27+1
 427 0278 A9030000 		.word	.L27+1
 428 027c B7020000 		.word	.L33+1
 429 0280 A9030000 		.word	.L27+1
 430 0284 65030000 		.word	.L30+1
 431 0288 A9030000 		.word	.L27+1
 432 028c A9030000 		.word	.L27+1
 433 0290 5B030000 		.word	.L31+1
 434              	.L32:
 435              		.loc 1 154 0
 436 0294 4FF02003 		mov	r3, #32
 437 0298 8DF83630 		strb	r3, [sp, #54]
 438              		.loc 1 155 0
 439 029c 069B     		ldr	r3, [sp, #24]
 440 029e 03F10402 		add	r2, r3, #4
 441 02a2 0692     		str	r2, [sp, #24]
 442 02a4 1B68     		ldr	r3, [r3, #0]
 443 02a6 DAB2     		uxtb	r2, r3
 444 02a8 0F9B     		ldr	r3, [sp, #60]
 445 02aa 1A70     		strb	r2, [r3, #0]
 446 02ac 0F9B     		ldr	r3, [sp, #60]
 447 02ae 03F10103 		add	r3, r3, #1
 448 02b2 0F93     		str	r3, [sp, #60]
 449              		.loc 1 156 0
 450 02b4 82E0     		b	.L35
 451              	.L33:
 452              		.loc 1 158 0
 453 02b6 4FF02003 		mov	r3, #32
ARM GAS  C:\Users\z80\AppData\Local\Temp\ccB71TLf.s 			page 9


 454 02ba 8DF83630 		strb	r3, [sp, #54]
 455              		.loc 1 159 0
 456 02be 069B     		ldr	r3, [sp, #24]
 457 02c0 03F10402 		add	r2, r3, #4
 458 02c4 0692     		str	r2, [sp, #24]
 459 02c6 1B68     		ldr	r3, [r3, #0]
 460 02c8 0E93     		str	r3, [sp, #56]
 461 02ca 0E9B     		ldr	r3, [sp, #56]
 462 02cc 002B     		cmp	r3, #0
 463 02ce 04D1     		bne	.L36
 464              		.loc 1 160 0
 465 02d0 40F20003 		movw	r3, #:lower16:.LC0
 466 02d4 C0F20003 		movt	r3, #:upper16:.LC0
 467 02d8 0E93     		str	r3, [sp, #56]
 468              	.L36:
 469              		.loc 1 161 0
 470 02da 0B9B     		ldr	r3, [sp, #44]
 471 02dc 002B     		cmp	r3, #0
 472 02de 02D1     		bne	.L37
 473              		.loc 1 162 0
 474 02e0 47F6FF73 		movw	r3, #32767
 475 02e4 0B93     		str	r3, [sp, #44]
 476              	.L37:
 477              		.loc 1 163 0
 478 02e6 0E9B     		ldr	r3, [sp, #56]
 479 02e8 0F93     		str	r3, [sp, #60]
 480 02ea 03E0     		b	.L38
 481              	.L40:
 482              		.loc 1 163 0 is_stmt 0 discriminator 1
 483 02ec 0F9B     		ldr	r3, [sp, #60]
 484 02ee 03F10103 		add	r3, r3, #1
 485 02f2 0F93     		str	r3, [sp, #60]
 486              	.L38:
 487 02f4 0F9B     		ldr	r3, [sp, #60]
 488 02f6 1B78     		ldrb	r3, [r3, #0]	@ zero_extendqisi2
 489 02f8 002B     		cmp	r3, #0
 490 02fa 5ED0     		beq	.L60
 491              		.loc 1 163 0 discriminator 2
 492 02fc 0B9B     		ldr	r3, [sp, #44]
 493 02fe 03F1FF33 		add	r3, r3, #-1
 494 0302 0B93     		str	r3, [sp, #44]
 495 0304 0B9B     		ldr	r3, [sp, #44]
 496 0306 002B     		cmp	r3, #0
 497 0308 F0DA     		bge	.L40
 498              		.loc 1 165 0 is_stmt 1
 499 030a 56E0     		b	.L60
 500              	.L28:
 501              		.loc 1 168 0
 502 030c 099B     		ldr	r3, [sp, #36]
 503 030e 002B     		cmp	r3, #0
 504 0310 06D0     		beq	.L41
 505              		.loc 1 169 0
 506 0312 069B     		ldr	r3, [sp, #24]
 507 0314 03F10402 		add	r2, r3, #4
 508 0318 0692     		str	r2, [sp, #24]
 509 031a 1B68     		ldr	r3, [r3, #0]
 510 031c 0793     		str	r3, [sp, #28]
ARM GAS  C:\Users\z80\AppData\Local\Temp\ccB71TLf.s 			page 10


 511 031e 05E0     		b	.L42
 512              	.L41:
 513              		.loc 1 171 0
 514 0320 069B     		ldr	r3, [sp, #24]
 515 0322 03F10402 		add	r2, r3, #4
 516 0326 0692     		str	r2, [sp, #24]
 517 0328 1B68     		ldr	r3, [r3, #0]
 518 032a 0793     		str	r3, [sp, #28]
 519              	.L42:
 520              		.loc 1 172 0
 521 032c 079B     		ldr	r3, [sp, #28]
 522 032e 002B     		cmp	r3, #0
 523 0330 0BDA     		bge	.L43
 524              		.loc 1 173 0
 525 0332 0F9B     		ldr	r3, [sp, #60]
 526 0334 4FF02D02 		mov	r2, #45
 527 0338 1A70     		strb	r2, [r3, #0]
 528 033a 0F9B     		ldr	r3, [sp, #60]
 529 033c 03F10103 		add	r3, r3, #1
 530 0340 0F93     		str	r3, [sp, #60]
 531              		.loc 1 174 0
 532 0342 079B     		ldr	r3, [sp, #28]
 533 0344 C3F10003 		rsb	r3, r3, #0
 534 0348 0793     		str	r3, [sp, #28]
 535              	.L43:
 536              		.loc 1 176 0
 537 034a 0F98     		ldr	r0, [sp, #60]
 538 034c 0799     		ldr	r1, [sp, #28]
 539 034e 4FF00A02 		mov	r2, #10
 540 0352 FFF7FEFF 		bl	ltoa
 541 0356 0F90     		str	r0, [sp, #60]
 542              		.loc 1 177 0
 543 0358 30E0     		b	.L35
 544              	.L31:
 545              		.loc 1 180 0
 546 035a 4FF01003 		mov	r3, #16
 547 035e 8DF83730 		strb	r3, [sp, #55]
 548              		.loc 1 181 0
 549 0362 08E0     		b	.L44
 550              	.L30:
 551              		.loc 1 184 0
 552 0364 4FF00A03 		mov	r3, #10
 553 0368 8DF83730 		strb	r3, [sp, #55]
 554              		.loc 1 185 0
 555 036c 03E0     		b	.L44
 556              	.L29:
 557              		.loc 1 188 0
 558 036e 4FF00803 		mov	r3, #8
 559 0372 8DF83730 		strb	r3, [sp, #55]
 560              	.L44:
 561              		.loc 1 190 0
 562 0376 099B     		ldr	r3, [sp, #36]
 563 0378 002B     		cmp	r3, #0
 564 037a 06D0     		beq	.L45
 565              		.loc 1 191 0
 566 037c 069B     		ldr	r3, [sp, #24]
 567 037e 03F10402 		add	r2, r3, #4
ARM GAS  C:\Users\z80\AppData\Local\Temp\ccB71TLf.s 			page 11


 568 0382 0692     		str	r2, [sp, #24]
 569 0384 1B68     		ldr	r3, [r3, #0]
 570 0386 0793     		str	r3, [sp, #28]
 571 0388 05E0     		b	.L46
 572              	.L45:
 573              		.loc 1 193 0
 574 038a 069B     		ldr	r3, [sp, #24]
 575 038c 03F10402 		add	r2, r3, #4
 576 0390 0692     		str	r2, [sp, #24]
 577 0392 1B68     		ldr	r3, [r3, #0]
 578 0394 0793     		str	r3, [sp, #28]
 579              	.L46:
 580              		.loc 1 194 0
 581 0396 9DF83730 		ldrb	r3, [sp, #55]	@ zero_extendqisi2
 582 039a 0F98     		ldr	r0, [sp, #60]
 583 039c 0799     		ldr	r1, [sp, #28]
 584 039e 1A46     		mov	r2, r3
 585 03a0 FFF7FEFF 		bl	ltoa
 586 03a4 0F90     		str	r0, [sp, #60]
 587              		.loc 1 195 0
 588 03a6 09E0     		b	.L35
 589              	.L27:
 590              		.loc 1 197 0
 591 03a8 0F9B     		ldr	r3, [sp, #60]
 592 03aa 9DF83720 		ldrb	r2, [sp, #55]
 593 03ae 1A70     		strb	r2, [r3, #0]
 594 03b0 0F9B     		ldr	r3, [sp, #60]
 595 03b2 03F10103 		add	r3, r3, #1
 596 03b6 0F93     		str	r3, [sp, #60]
 597              		.loc 1 198 0
 598 03b8 00E0     		b	.L35
 599              	.L60:
 600              		.loc 1 165 0
 601 03ba 00BF     		nop
 602              	.L35:
 603              		.loc 1 200 0
 604 03bc 0F9A     		ldr	r2, [sp, #60]
 605 03be 0E9B     		ldr	r3, [sp, #56]
 606 03c0 D31A     		subs	r3, r2, r3
 607 03c2 0C93     		str	r3, [sp, #48]
 608              		.loc 1 201 0
 609 03c4 0A9A     		ldr	r2, [sp, #40]
 610 03c6 0C9B     		ldr	r3, [sp, #48]
 611 03c8 D31A     		subs	r3, r2, r3
 612 03ca 0A93     		str	r3, [sp, #40]
 613 03cc 0A9B     		ldr	r3, [sp, #40]
 614 03ce 002B     		cmp	r3, #0
 615 03d0 02DA     		bge	.L47
 616              		.loc 1 202 0
 617 03d2 4FF00003 		mov	r3, #0
 618 03d6 0A93     		str	r3, [sp, #40]
 619              	.L47:
 620              		.loc 1 203 0
 621 03d8 089B     		ldr	r3, [sp, #32]
 622 03da 002B     		cmp	r3, #0
 623 03dc 03D1     		bne	.L48
 624              		.loc 1 204 0
ARM GAS  C:\Users\z80\AppData\Local\Temp\ccB71TLf.s 			page 12


 625 03de 0A9B     		ldr	r3, [sp, #40]
 626 03e0 C3F10003 		rsb	r3, r3, #0
 627 03e4 0A93     		str	r3, [sp, #40]
 628              	.L48:
 629              		.loc 1 205 0
 630 03e6 0A9B     		ldr	r3, [sp, #40]
 631 03e8 002B     		cmp	r3, #0
 632 03ea 39DA     		bge	.L51
 633              		.loc 1 206 0
 634 03ec 0E9B     		ldr	r3, [sp, #56]
 635 03ee 1B78     		ldrb	r3, [r3, #0]	@ zero_extendqisi2
 636 03f0 2D2B     		cmp	r3, #45
 637 03f2 15D1     		bne	.L50
 638              		.loc 1 206 0 is_stmt 0 discriminator 1
 639 03f4 9DF83630 		ldrb	r3, [sp, #54]	@ zero_extendqisi2
 640 03f8 302B     		cmp	r3, #48
 641 03fa 11D1     		bne	.L50
 642              		.loc 1 207 0 is_stmt 1
 643 03fc 019B     		ldr	r3, [sp, #4]
 644 03fe 1B68     		ldr	r3, [r3, #0]
 645 0400 1B69     		ldr	r3, [r3, #16]
 646 0402 0E9A     		ldr	r2, [sp, #56]
 647 0404 1278     		ldrb	r2, [r2, #0]	@ zero_extendqisi2
 648 0406 0E99     		ldr	r1, [sp, #56]
 649 0408 01F10101 		add	r1, r1, #1
 650 040c 0E91     		str	r1, [sp, #56]
 651 040e 0198     		ldr	r0, [sp, #4]
 652 0410 1146     		mov	r1, r2
 653 0412 4FF0FF32 		mov	r2, #-1
 654 0416 9847     		blx	r3
 655              		.loc 1 208 0
 656 0418 0C9B     		ldr	r3, [sp, #48]
 657 041a 03F1FF33 		add	r3, r3, #-1
 658 041e 0C93     		str	r3, [sp, #48]
 659              	.L50:
 660              		.loc 1 211 0 discriminator 1
 661 0420 019B     		ldr	r3, [sp, #4]
 662 0422 1B68     		ldr	r3, [r3, #0]
 663 0424 1B69     		ldr	r3, [r3, #16]
 664 0426 9DF83620 		ldrb	r2, [sp, #54]	@ zero_extendqisi2
 665 042a 0198     		ldr	r0, [sp, #4]
 666 042c 1146     		mov	r1, r2
 667 042e 4FF0FF32 		mov	r2, #-1
 668 0432 9847     		blx	r3
 669              		.loc 1 212 0 discriminator 1
 670 0434 0A9B     		ldr	r3, [sp, #40]
 671 0436 03F10103 		add	r3, r3, #1
 672 043a 0A93     		str	r3, [sp, #40]
 673 043c 0A9B     		ldr	r3, [sp, #40]
 674 043e 002B     		cmp	r3, #0
 675 0440 EED1     		bne	.L50
 676              		.loc 1 214 0
 677 0442 0DE0     		b	.L51
 678              	.L52:
 679              		.loc 1 215 0
 680 0444 019B     		ldr	r3, [sp, #4]
 681 0446 1B68     		ldr	r3, [r3, #0]
ARM GAS  C:\Users\z80\AppData\Local\Temp\ccB71TLf.s 			page 13


 682 0448 1B69     		ldr	r3, [r3, #16]
 683 044a 0E9A     		ldr	r2, [sp, #56]
 684 044c 1278     		ldrb	r2, [r2, #0]	@ zero_extendqisi2
 685 044e 0E99     		ldr	r1, [sp, #56]
 686 0450 01F10101 		add	r1, r1, #1
 687 0454 0E91     		str	r1, [sp, #56]
 688 0456 0198     		ldr	r0, [sp, #4]
 689 0458 1146     		mov	r1, r2
 690 045a 4FF0FF32 		mov	r2, #-1
 691 045e 9847     		blx	r3
 692              	.L51:
 693              		.loc 1 214 0 discriminator 1
 694 0460 0C9B     		ldr	r3, [sp, #48]
 695 0462 03F1FF33 		add	r3, r3, #-1
 696 0466 0C93     		str	r3, [sp, #48]
 697 0468 0C9B     		ldr	r3, [sp, #48]
 698 046a 002B     		cmp	r3, #0
 699 046c EADA     		bge	.L52
 700              		.loc 1 217 0
 701 046e 0DE0     		b	.L53
 702              	.L54:
 703              		.loc 1 218 0
 704 0470 019B     		ldr	r3, [sp, #4]
 705 0472 1B68     		ldr	r3, [r3, #0]
 706 0474 1B69     		ldr	r3, [r3, #16]
 707 0476 9DF83620 		ldrb	r2, [sp, #54]	@ zero_extendqisi2
 708 047a 0198     		ldr	r0, [sp, #4]
 709 047c 1146     		mov	r1, r2
 710 047e 4FF0FF32 		mov	r2, #-1
 711 0482 9847     		blx	r3
 712              		.loc 1 219 0
 713 0484 0A9B     		ldr	r3, [sp, #40]
 714 0486 03F1FF33 		add	r3, r3, #-1
 715 048a 0A93     		str	r3, [sp, #40]
 716              	.L53:
 717              		.loc 1 217 0 discriminator 1
 718 048c 0A9B     		ldr	r3, [sp, #40]
 719 048e 002B     		cmp	r3, #0
 720 0490 EED1     		bne	.L54
 721              		.loc 1 221 0
 722 0492 BBE5     		b	.L55
 723              	.L57:
 724              		.loc 1 99 0
 725 0494 00BF     		nop
 726              	.L56:
 727              		.loc 1 222 0
 728 0496 10B0     		add	sp, sp, #64
 729 0498 5DF804EB 		pop	{lr}
 730 049c 03B0     		add	sp, sp, #12
 731 049e 7047     		bx	lr
 732              		.cfi_endproc
 733              	.LFE8:
 734              		.size	chprintf, .-chprintf
 735              		.text
 736              	.Letext0:
 737              		.file 2 "c:\\programs\\codesourcery\\2011.03-56\\bin\\../lib/gcc/arm-none-eabi/4.6.3/include/stdar
 738              		.file 3 "c:\\programs\\codesourcery\\2011.03-56\\bin\\../lib/gcc/arm-none-eabi/4.6.3/include/stdde
ARM GAS  C:\Users\z80\AppData\Local\Temp\ccB71TLf.s 			page 14


 739              		.file 4 "c:\\programs\\codesourcery\\2011.03-56\\bin\\../lib/gcc/arm-none-eabi/4.6.3/../../../../a
 740              		.file 5 "../chibios_2.4.x/os/ports/GCC/ARMCMx/chtypes.h"
 741              		.file 6 "<built-in>"
 742              		.file 7 "../chibios_2.4.x/os/kernel/include/chioch.h"
 743              		.section	.debug_info,"",%progbits
 744              	.Ldebug_info0:
 745 0000 E9030000 		.4byte	0x3e9
 746 0004 0200     		.2byte	0x2
 747 0006 00000000 		.4byte	.Ldebug_abbrev0
 748 000a 04       		.byte	0x4
 749 000b 01       		.uleb128 0x1
 750 000c 8D010000 		.4byte	.LASF35
 751 0010 01       		.byte	0x1
 752 0011 FD000000 		.4byte	.LASF36
 753 0015 B9000000 		.4byte	.LASF37
 754 0019 00000000 		.4byte	0
 755 001d 00000000 		.4byte	0
 756 0021 00000000 		.4byte	.Ldebug_ranges0+0
 757 0025 00000000 		.4byte	.Ldebug_line0
 758 0029 02       		.uleb128 0x2
 759 002a 91000000 		.4byte	.LASF0
 760 002e 02       		.byte	0x2
 761 002f 28       		.byte	0x28
 762 0030 34000000 		.4byte	0x34
 763 0034 03       		.uleb128 0x3
 764 0035 5B010000 		.4byte	.LASF19
 765 0039 04       		.byte	0x4
 766 003a 06       		.byte	0x6
 767 003b 00       		.byte	0
 768 003c 4E000000 		.4byte	0x4e
 769 0040 04       		.uleb128 0x4
 770 0041 24010000 		.4byte	.LASF38
 771 0045 4E000000 		.4byte	0x4e
 772 0049 02       		.byte	0x2
 773 004a 23       		.byte	0x23
 774 004b 00       		.uleb128 0
 775 004c 01       		.byte	0x1
 776 004d 00       		.byte	0
 777 004e 05       		.uleb128 0x5
 778 004f 04       		.byte	0x4
 779 0050 02       		.uleb128 0x2
 780 0051 2D000000 		.4byte	.LASF1
 781 0055 02       		.byte	0x2
 782 0056 66       		.byte	0x66
 783 0057 29000000 		.4byte	0x29
 784 005b 06       		.uleb128 0x6
 785 005c 04       		.byte	0x4
 786 005d 05       		.byte	0x5
 787 005e 696E7400 		.ascii	"int\000"
 788 0062 02       		.uleb128 0x2
 789 0063 00000000 		.4byte	.LASF2
 790 0067 03       		.byte	0x3
 791 0068 D4       		.byte	0xd4
 792 0069 6D000000 		.4byte	0x6d
 793 006d 07       		.uleb128 0x7
 794 006e 04       		.byte	0x4
 795 006f 07       		.byte	0x7
ARM GAS  C:\Users\z80\AppData\Local\Temp\ccB71TLf.s 			page 15


 796 0070 AC000000 		.4byte	.LASF3
 797 0074 07       		.uleb128 0x7
 798 0075 01       		.byte	0x1
 799 0076 06       		.byte	0x6
 800 0077 CD010000 		.4byte	.LASF4
 801 007b 02       		.uleb128 0x2
 802 007c A3010000 		.4byte	.LASF5
 803 0080 04       		.byte	0x4
 804 0081 2A       		.byte	0x2a
 805 0082 86000000 		.4byte	0x86
 806 0086 07       		.uleb128 0x7
 807 0087 01       		.byte	0x1
 808 0088 08       		.byte	0x8
 809 0089 35000000 		.4byte	.LASF6
 810 008d 07       		.uleb128 0x7
 811 008e 02       		.byte	0x2
 812 008f 05       		.byte	0x5
 813 0090 99010000 		.4byte	.LASF7
 814 0094 07       		.uleb128 0x7
 815 0095 02       		.byte	0x2
 816 0096 07       		.byte	0x7
 817 0097 5B000000 		.4byte	.LASF8
 818 009b 02       		.uleb128 0x2
 819 009c 4C010000 		.4byte	.LASF9
 820 00a0 04       		.byte	0x4
 821 00a1 4F       		.byte	0x4f
 822 00a2 A6000000 		.4byte	0xa6
 823 00a6 07       		.uleb128 0x7
 824 00a7 04       		.byte	0x4
 825 00a8 05       		.byte	0x5
 826 00a9 C4010000 		.4byte	.LASF10
 827 00ad 02       		.uleb128 0x2
 828 00ae BB010000 		.4byte	.LASF11
 829 00b2 04       		.byte	0x4
 830 00b3 50       		.byte	0x50
 831 00b4 B8000000 		.4byte	0xb8
 832 00b8 07       		.uleb128 0x7
 833 00b9 04       		.byte	0x4
 834 00ba 07       		.byte	0x7
 835 00bb 49000000 		.4byte	.LASF12
 836 00bf 07       		.uleb128 0x7
 837 00c0 08       		.byte	0x8
 838 00c1 05       		.byte	0x5
 839 00c2 65010000 		.4byte	.LASF13
 840 00c6 07       		.uleb128 0x7
 841 00c7 08       		.byte	0x8
 842 00c8 07       		.byte	0x7
 843 00c9 E6000000 		.4byte	.LASF14
 844 00cd 02       		.uleb128 0x2
 845 00ce 1F000000 		.4byte	.LASF15
 846 00d2 05       		.byte	0x5
 847 00d3 2E       		.byte	0x2e
 848 00d4 9B000000 		.4byte	0x9b
 849 00d8 02       		.uleb128 0x2
 850 00d9 37010000 		.4byte	.LASF16
 851 00dd 05       		.byte	0x5
 852 00de 33       		.byte	0x33
ARM GAS  C:\Users\z80\AppData\Local\Temp\ccB71TLf.s 			page 16


 853 00df 9B000000 		.4byte	0x9b
 854 00e3 02       		.uleb128 0x2
 855 00e4 07000000 		.4byte	.LASF17
 856 00e8 05       		.byte	0x5
 857 00e9 36       		.byte	0x36
 858 00ea AD000000 		.4byte	0xad
 859 00ee 08       		.uleb128 0x8
 860 00ef 04       		.byte	0x4
 861 00f0 F4000000 		.4byte	0xf4
 862 00f4 09       		.uleb128 0x9
 863 00f5 F9000000 		.4byte	0xf9
 864 00f9 07       		.uleb128 0x7
 865 00fa 01       		.byte	0x1
 866 00fb 08       		.byte	0x8
 867 00fc 7D010000 		.4byte	.LASF18
 868 0100 08       		.uleb128 0x8
 869 0101 04       		.byte	0x4
 870 0102 7B000000 		.4byte	0x7b
 871 0106 0A       		.uleb128 0xa
 872 0107 01       		.byte	0x1
 873 0108 62000000 		.4byte	0x62
 874 010c 20010000 		.4byte	0x120
 875 0110 0B       		.uleb128 0xb
 876 0111 4E000000 		.4byte	0x4e
 877 0115 0B       		.uleb128 0xb
 878 0116 20010000 		.4byte	0x120
 879 011a 0B       		.uleb128 0xb
 880 011b 62000000 		.4byte	0x62
 881 011f 00       		.byte	0
 882 0120 08       		.uleb128 0x8
 883 0121 04       		.byte	0x4
 884 0122 26010000 		.4byte	0x126
 885 0126 09       		.uleb128 0x9
 886 0127 7B000000 		.4byte	0x7b
 887 012b 08       		.uleb128 0x8
 888 012c 04       		.byte	0x4
 889 012d 06010000 		.4byte	0x106
 890 0131 0A       		.uleb128 0xa
 891 0132 01       		.byte	0x1
 892 0133 62000000 		.4byte	0x62
 893 0137 4B010000 		.4byte	0x14b
 894 013b 0B       		.uleb128 0xb
 895 013c 4E000000 		.4byte	0x4e
 896 0140 0B       		.uleb128 0xb
 897 0141 00010000 		.4byte	0x100
 898 0145 0B       		.uleb128 0xb
 899 0146 62000000 		.4byte	0x62
 900 014a 00       		.byte	0
 901 014b 08       		.uleb128 0x8
 902 014c 04       		.byte	0x4
 903 014d 31010000 		.4byte	0x131
 904 0151 03       		.uleb128 0x3
 905 0152 3D010000 		.4byte	.LASF20
 906 0156 20       		.byte	0x20
 907 0157 07       		.byte	0x7
 908 0158 51       		.byte	0x51
 909 0159 CE010000 		.4byte	0x1ce
ARM GAS  C:\Users\z80\AppData\Local\Temp\ccB71TLf.s 			page 17


 910 015d 0C       		.uleb128 0xc
 911 015e 6E000000 		.4byte	.LASF21
 912 0162 07       		.byte	0x7
 913 0163 52       		.byte	0x52
 914 0164 2B010000 		.4byte	0x12b
 915 0168 02       		.byte	0x2
 916 0169 23       		.byte	0x23
 917 016a 00       		.uleb128 0
 918 016b 0C       		.uleb128 0xc
 919 016c A0000000 		.4byte	.LASF22
 920 0170 07       		.byte	0x7
 921 0171 52       		.byte	0x52
 922 0172 4B010000 		.4byte	0x14b
 923 0176 02       		.byte	0x2
 924 0177 23       		.byte	0x23
 925 0178 04       		.uleb128 0x4
 926 0179 0C       		.uleb128 0xc
 927 017a 83000000 		.4byte	.LASF23
 928 017e 07       		.byte	0x7
 929 017f 52       		.byte	0x52
 930 0180 DE010000 		.4byte	0x1de
 931 0184 02       		.byte	0x2
 932 0185 23       		.byte	0x23
 933 0186 08       		.uleb128 0x8
 934 0187 0C       		.uleb128 0xc
 935 0188 29010000 		.4byte	.LASF24
 936 018c 07       		.byte	0x7
 937 018d 52       		.byte	0x52
 938 018e DE010000 		.4byte	0x1de
 939 0192 02       		.byte	0x2
 940 0193 23       		.byte	0x23
 941 0194 0C       		.uleb128 0xc
 942 0195 0D       		.uleb128 0xd
 943 0196 70757400 		.ascii	"put\000"
 944 019a 07       		.byte	0x7
 945 019b 52       		.byte	0x52
 946 019c FE010000 		.4byte	0x1fe
 947 01a0 02       		.byte	0x2
 948 01a1 23       		.byte	0x23
 949 01a2 10       		.uleb128 0x10
 950 01a3 0D       		.uleb128 0xd
 951 01a4 67657400 		.ascii	"get\000"
 952 01a8 07       		.byte	0x7
 953 01a9 52       		.byte	0x52
 954 01aa 19020000 		.4byte	0x219
 955 01ae 02       		.byte	0x2
 956 01af 23       		.byte	0x23
 957 01b0 14       		.uleb128 0x14
 958 01b1 0C       		.uleb128 0xc
 959 01b2 26000000 		.4byte	.LASF25
 960 01b6 07       		.byte	0x7
 961 01b7 52       		.byte	0x52
 962 01b8 3E020000 		.4byte	0x23e
 963 01bc 02       		.byte	0x2
 964 01bd 23       		.byte	0x23
 965 01be 18       		.uleb128 0x18
 966 01bf 0C       		.uleb128 0xc
ARM GAS  C:\Users\z80\AppData\Local\Temp\ccB71TLf.s 			page 18


 967 01c0 43000000 		.4byte	.LASF26
 968 01c4 07       		.byte	0x7
 969 01c5 52       		.byte	0x52
 970 01c6 63020000 		.4byte	0x263
 971 01ca 02       		.byte	0x2
 972 01cb 23       		.byte	0x23
 973 01cc 1C       		.uleb128 0x1c
 974 01cd 00       		.byte	0
 975 01ce 0A       		.uleb128 0xa
 976 01cf 01       		.byte	0x1
 977 01d0 CD000000 		.4byte	0xcd
 978 01d4 DE010000 		.4byte	0x1de
 979 01d8 0B       		.uleb128 0xb
 980 01d9 4E000000 		.4byte	0x4e
 981 01dd 00       		.byte	0
 982 01de 08       		.uleb128 0x8
 983 01df 04       		.byte	0x4
 984 01e0 CE010000 		.4byte	0x1ce
 985 01e4 0A       		.uleb128 0xa
 986 01e5 01       		.byte	0x1
 987 01e6 D8000000 		.4byte	0xd8
 988 01ea FE010000 		.4byte	0x1fe
 989 01ee 0B       		.uleb128 0xb
 990 01ef 4E000000 		.4byte	0x4e
 991 01f3 0B       		.uleb128 0xb
 992 01f4 7B000000 		.4byte	0x7b
 993 01f8 0B       		.uleb128 0xb
 994 01f9 E3000000 		.4byte	0xe3
 995 01fd 00       		.byte	0
 996 01fe 08       		.uleb128 0x8
 997 01ff 04       		.byte	0x4
 998 0200 E4010000 		.4byte	0x1e4
 999 0204 0A       		.uleb128 0xa
 1000 0205 01       		.byte	0x1
 1001 0206 D8000000 		.4byte	0xd8
 1002 020a 19020000 		.4byte	0x219
 1003 020e 0B       		.uleb128 0xb
 1004 020f 4E000000 		.4byte	0x4e
 1005 0213 0B       		.uleb128 0xb
 1006 0214 E3000000 		.4byte	0xe3
 1007 0218 00       		.byte	0
 1008 0219 08       		.uleb128 0x8
 1009 021a 04       		.byte	0x4
 1010 021b 04020000 		.4byte	0x204
 1011 021f 0A       		.uleb128 0xa
 1012 0220 01       		.byte	0x1
 1013 0221 62000000 		.4byte	0x62
 1014 0225 3E020000 		.4byte	0x23e
 1015 0229 0B       		.uleb128 0xb
 1016 022a 4E000000 		.4byte	0x4e
 1017 022e 0B       		.uleb128 0xb
 1018 022f 20010000 		.4byte	0x120
 1019 0233 0B       		.uleb128 0xb
 1020 0234 62000000 		.4byte	0x62
 1021 0238 0B       		.uleb128 0xb
 1022 0239 E3000000 		.4byte	0xe3
 1023 023d 00       		.byte	0
ARM GAS  C:\Users\z80\AppData\Local\Temp\ccB71TLf.s 			page 19


 1024 023e 08       		.uleb128 0x8
 1025 023f 04       		.byte	0x4
 1026 0240 1F020000 		.4byte	0x21f
 1027 0244 0A       		.uleb128 0xa
 1028 0245 01       		.byte	0x1
 1029 0246 62000000 		.4byte	0x62
 1030 024a 63020000 		.4byte	0x263
 1031 024e 0B       		.uleb128 0xb
 1032 024f 4E000000 		.4byte	0x4e
 1033 0253 0B       		.uleb128 0xb
 1034 0254 00010000 		.4byte	0x100
 1035 0258 0B       		.uleb128 0xb
 1036 0259 62000000 		.4byte	0x62
 1037 025d 0B       		.uleb128 0xb
 1038 025e E3000000 		.4byte	0xe3
 1039 0262 00       		.byte	0
 1040 0263 08       		.uleb128 0x8
 1041 0264 04       		.byte	0x4
 1042 0265 44020000 		.4byte	0x244
 1043 0269 0E       		.uleb128 0xe
 1044 026a 04       		.byte	0x4
 1045 026b 07       		.byte	0x7
 1046 026c 5C       		.byte	0x5c
 1047 026d 80020000 		.4byte	0x280
 1048 0271 0D       		.uleb128 0xd
 1049 0272 766D7400 		.ascii	"vmt\000"
 1050 0276 07       		.byte	0x7
 1051 0277 5E       		.byte	0x5e
 1052 0278 80020000 		.4byte	0x280
 1053 027c 02       		.byte	0x2
 1054 027d 23       		.byte	0x23
 1055 027e 00       		.uleb128 0
 1056 027f 00       		.byte	0
 1057 0280 08       		.uleb128 0x8
 1058 0281 04       		.byte	0x4
 1059 0282 86020000 		.4byte	0x286
 1060 0286 09       		.uleb128 0x9
 1061 0287 51010000 		.4byte	0x151
 1062 028b 02       		.uleb128 0x2
 1063 028c DE010000 		.4byte	.LASF27
 1064 0290 07       		.byte	0x7
 1065 0291 60       		.byte	0x60
 1066 0292 69020000 		.4byte	0x269
 1067 0296 0F       		.uleb128 0xf
 1068 0297 D9010000 		.4byte	.LASF39
 1069 029b 01       		.byte	0x1
 1070 029c 2A       		.byte	0x2a
 1071 029d 01       		.byte	0x1
 1072 029e F3020000 		.4byte	0x2f3
 1073 02a2 00000000 		.4byte	.LFB7
 1074 02a6 94000000 		.4byte	.LFE7
 1075 02aa 00000000 		.4byte	.LLST0
 1076 02ae F3020000 		.4byte	0x2f3
 1077 02b2 10       		.uleb128 0x10
 1078 02b3 7000     		.ascii	"p\000"
 1079 02b5 01       		.byte	0x1
 1080 02b6 2A       		.byte	0x2a
ARM GAS  C:\Users\z80\AppData\Local\Temp\ccB71TLf.s 			page 20


 1081 02b7 F3020000 		.4byte	0x2f3
 1082 02bb 02       		.byte	0x2
 1083 02bc 91       		.byte	0x91
 1084 02bd 74       		.sleb128 -12
 1085 02be 10       		.uleb128 0x10
 1086 02bf 6E756D00 		.ascii	"num\000"
 1087 02c3 01       		.byte	0x1
 1088 02c4 2A       		.byte	0x2a
 1089 02c5 A6000000 		.4byte	0xa6
 1090 02c9 02       		.byte	0x2
 1091 02ca 91       		.byte	0x91
 1092 02cb 70       		.sleb128 -16
 1093 02cc 11       		.uleb128 0x11
 1094 02cd 19000000 		.4byte	.LASF28
 1095 02d1 01       		.byte	0x1
 1096 02d2 2A       		.byte	0x2a
 1097 02d3 6D000000 		.4byte	0x6d
 1098 02d7 02       		.byte	0x2
 1099 02d8 91       		.byte	0x91
 1100 02d9 6C       		.sleb128 -20
 1101 02da 12       		.uleb128 0x12
 1102 02db 6900     		.ascii	"i\000"
 1103 02dd 01       		.byte	0x1
 1104 02de 2B       		.byte	0x2b
 1105 02df 5B000000 		.4byte	0x5b
 1106 02e3 02       		.byte	0x2
 1107 02e4 91       		.byte	0x91
 1108 02e5 7C       		.sleb128 -4
 1109 02e6 12       		.uleb128 0x12
 1110 02e7 7100     		.ascii	"q\000"
 1111 02e9 01       		.byte	0x1
 1112 02ea 2C       		.byte	0x2c
 1113 02eb F3020000 		.4byte	0x2f3
 1114 02ef 02       		.byte	0x2
 1115 02f0 91       		.byte	0x91
 1116 02f1 78       		.sleb128 -8
 1117 02f2 00       		.byte	0
 1118 02f3 08       		.uleb128 0x8
 1119 02f4 04       		.byte	0x4
 1120 02f5 F9000000 		.4byte	0xf9
 1121 02f9 13       		.uleb128 0x13
 1122 02fa 01       		.byte	0x1
 1123 02fb 7A000000 		.4byte	.LASF40
 1124 02ff 01       		.byte	0x1
 1125 0300 56       		.byte	0x56
 1126 0301 01       		.byte	0x1
 1127 0302 00000000 		.4byte	.LFB8
 1128 0306 A0040000 		.4byte	.LFE8
 1129 030a 20000000 		.4byte	.LLST1
 1130 030e DA030000 		.4byte	0x3da
 1131 0312 10       		.uleb128 0x10
 1132 0313 63687000 		.ascii	"chp\000"
 1133 0317 01       		.byte	0x1
 1134 0318 56       		.byte	0x56
 1135 0319 DA030000 		.4byte	0x3da
 1136 031d 03       		.byte	0x3
 1137 031e 91       		.byte	0x91
ARM GAS  C:\Users\z80\AppData\Local\Temp\ccB71TLf.s 			page 21


 1138 031f B47F     		.sleb128 -76
 1139 0321 10       		.uleb128 0x10
 1140 0322 666D7400 		.ascii	"fmt\000"
 1141 0326 01       		.byte	0x1
 1142 0327 56       		.byte	0x56
 1143 0328 EE000000 		.4byte	0xee
 1144 032c 02       		.byte	0x2
 1145 032d 91       		.byte	0x91
 1146 032e 74       		.sleb128 -12
 1147 032f 14       		.uleb128 0x14
 1148 0330 12       		.uleb128 0x12
 1149 0331 617000   		.ascii	"ap\000"
 1150 0334 01       		.byte	0x1
 1151 0335 57       		.byte	0x57
 1152 0336 50000000 		.4byte	0x50
 1153 033a 02       		.byte	0x2
 1154 033b 91       		.byte	0x91
 1155 033c 48       		.sleb128 -56
 1156 033d 15       		.uleb128 0x15
 1157 033e 54010000 		.4byte	.LASF29
 1158 0342 01       		.byte	0x1
 1159 0343 58       		.byte	0x58
 1160 0344 E0030000 		.4byte	0x3e0
 1161 0348 03       		.byte	0x3
 1162 0349 91       		.byte	0x91
 1163 034a BC7F     		.sleb128 -68
 1164 034c 12       		.uleb128 0x12
 1165 034d 7000     		.ascii	"p\000"
 1166 034f 01       		.byte	0x1
 1167 0350 59       		.byte	0x59
 1168 0351 F3020000 		.4byte	0x2f3
 1169 0355 02       		.byte	0x2
 1170 0356 91       		.byte	0x91
 1171 0357 6C       		.sleb128 -20
 1172 0358 12       		.uleb128 0x12
 1173 0359 7300     		.ascii	"s\000"
 1174 035b 01       		.byte	0x1
 1175 035c 59       		.byte	0x59
 1176 035d F3020000 		.4byte	0x2f3
 1177 0361 02       		.byte	0x2
 1178 0362 91       		.byte	0x91
 1179 0363 68       		.sleb128 -24
 1180 0364 12       		.uleb128 0x12
 1181 0365 6300     		.ascii	"c\000"
 1182 0367 01       		.byte	0x1
 1183 0368 59       		.byte	0x59
 1184 0369 F9000000 		.4byte	0xf9
 1185 036d 02       		.byte	0x2
 1186 036e 91       		.byte	0x91
 1187 036f 67       		.sleb128 -25
 1188 0370 15       		.uleb128 0x15
 1189 0371 A5000000 		.4byte	.LASF30
 1190 0375 01       		.byte	0x1
 1191 0376 59       		.byte	0x59
 1192 0377 F9000000 		.4byte	0xf9
 1193 037b 02       		.byte	0x2
 1194 037c 91       		.byte	0x91
ARM GAS  C:\Users\z80\AppData\Local\Temp\ccB71TLf.s 			page 22


 1195 037d 66       		.sleb128 -26
 1196 037e 12       		.uleb128 0x12
 1197 037f 6900     		.ascii	"i\000"
 1198 0381 01       		.byte	0x1
 1199 0382 5A       		.byte	0x5a
 1200 0383 5B000000 		.4byte	0x5b
 1201 0387 02       		.byte	0x2
 1202 0388 91       		.byte	0x91
 1203 0389 60       		.sleb128 -32
 1204 038a 15       		.uleb128 0x15
 1205 038b 73010000 		.4byte	.LASF31
 1206 038f 01       		.byte	0x1
 1207 0390 5A       		.byte	0x5a
 1208 0391 5B000000 		.4byte	0x5b
 1209 0395 02       		.byte	0x2
 1210 0396 91       		.byte	0x91
 1211 0397 5C       		.sleb128 -36
 1212 0398 15       		.uleb128 0x15
 1213 0399 74000000 		.4byte	.LASF32
 1214 039d 01       		.byte	0x1
 1215 039e 5A       		.byte	0x5a
 1216 039f 5B000000 		.4byte	0x5b
 1217 03a3 02       		.byte	0x2
 1218 03a4 91       		.byte	0x91
 1219 03a5 58       		.sleb128 -40
 1220 03a6 15       		.uleb128 0x15
 1221 03a7 11000000 		.4byte	.LASF33
 1222 03ab 01       		.byte	0x1
 1223 03ac 5B       		.byte	0x5b
 1224 03ad CD000000 		.4byte	0xcd
 1225 03b1 02       		.byte	0x2
 1226 03b2 91       		.byte	0x91
 1227 03b3 54       		.sleb128 -44
 1228 03b4 15       		.uleb128 0x15
 1229 03b5 82010000 		.4byte	.LASF34
 1230 03b9 01       		.byte	0x1
 1231 03ba 5B       		.byte	0x5b
 1232 03bb CD000000 		.4byte	0xcd
 1233 03bf 02       		.byte	0x2
 1234 03c0 91       		.byte	0x91
 1235 03c1 50       		.sleb128 -48
 1236 03c2 12       		.uleb128 0x12
 1237 03c3 6C00     		.ascii	"l\000"
 1238 03c5 01       		.byte	0x1
 1239 03c6 5C       		.byte	0x5c
 1240 03c7 A6000000 		.4byte	0xa6
 1241 03cb 02       		.byte	0x2
 1242 03cc 91       		.byte	0x91
 1243 03cd 4C       		.sleb128 -52
 1244 03ce 16       		.uleb128 0x16
 1245 03cf AB010000 		.4byte	.LASF41
 1246 03d3 01       		.byte	0x1
 1247 03d4 BD       		.byte	0xbd
 1248 03d5 76030000 		.4byte	.L44
 1249 03d9 00       		.byte	0
 1250 03da 08       		.uleb128 0x8
 1251 03db 04       		.byte	0x4
ARM GAS  C:\Users\z80\AppData\Local\Temp\ccB71TLf.s 			page 23


 1252 03dc 8B020000 		.4byte	0x28b
 1253 03e0 17       		.uleb128 0x17
 1254 03e1 F9000000 		.4byte	0xf9
 1255 03e5 18       		.uleb128 0x18
 1256 03e6 6D000000 		.4byte	0x6d
 1257 03ea 0B       		.byte	0xb
 1258 03eb 00       		.byte	0
 1259 03ec 00       		.byte	0
 1260              		.section	.debug_abbrev,"",%progbits
 1261              	.Ldebug_abbrev0:
 1262 0000 01       		.uleb128 0x1
 1263 0001 11       		.uleb128 0x11
 1264 0002 01       		.byte	0x1
 1265 0003 25       		.uleb128 0x25
 1266 0004 0E       		.uleb128 0xe
 1267 0005 13       		.uleb128 0x13
 1268 0006 0B       		.uleb128 0xb
 1269 0007 03       		.uleb128 0x3
 1270 0008 0E       		.uleb128 0xe
 1271 0009 1B       		.uleb128 0x1b
 1272 000a 0E       		.uleb128 0xe
 1273 000b 11       		.uleb128 0x11
 1274 000c 01       		.uleb128 0x1
 1275 000d 52       		.uleb128 0x52
 1276 000e 01       		.uleb128 0x1
 1277 000f 55       		.uleb128 0x55
 1278 0010 06       		.uleb128 0x6
 1279 0011 10       		.uleb128 0x10
 1280 0012 06       		.uleb128 0x6
 1281 0013 00       		.byte	0
 1282 0014 00       		.byte	0
 1283 0015 02       		.uleb128 0x2
 1284 0016 16       		.uleb128 0x16
 1285 0017 00       		.byte	0
 1286 0018 03       		.uleb128 0x3
 1287 0019 0E       		.uleb128 0xe
 1288 001a 3A       		.uleb128 0x3a
 1289 001b 0B       		.uleb128 0xb
 1290 001c 3B       		.uleb128 0x3b
 1291 001d 0B       		.uleb128 0xb
 1292 001e 49       		.uleb128 0x49
 1293 001f 13       		.uleb128 0x13
 1294 0020 00       		.byte	0
 1295 0021 00       		.byte	0
 1296 0022 03       		.uleb128 0x3
 1297 0023 13       		.uleb128 0x13
 1298 0024 01       		.byte	0x1
 1299 0025 03       		.uleb128 0x3
 1300 0026 0E       		.uleb128 0xe
 1301 0027 0B       		.uleb128 0xb
 1302 0028 0B       		.uleb128 0xb
 1303 0029 3A       		.uleb128 0x3a
 1304 002a 0B       		.uleb128 0xb
 1305 002b 3B       		.uleb128 0x3b
 1306 002c 0B       		.uleb128 0xb
 1307 002d 01       		.uleb128 0x1
 1308 002e 13       		.uleb128 0x13
ARM GAS  C:\Users\z80\AppData\Local\Temp\ccB71TLf.s 			page 24


 1309 002f 00       		.byte	0
 1310 0030 00       		.byte	0
 1311 0031 04       		.uleb128 0x4
 1312 0032 0D       		.uleb128 0xd
 1313 0033 00       		.byte	0
 1314 0034 03       		.uleb128 0x3
 1315 0035 0E       		.uleb128 0xe
 1316 0036 49       		.uleb128 0x49
 1317 0037 13       		.uleb128 0x13
 1318 0038 38       		.uleb128 0x38
 1319 0039 0A       		.uleb128 0xa
 1320 003a 34       		.uleb128 0x34
 1321 003b 0C       		.uleb128 0xc
 1322 003c 00       		.byte	0
 1323 003d 00       		.byte	0
 1324 003e 05       		.uleb128 0x5
 1325 003f 0F       		.uleb128 0xf
 1326 0040 00       		.byte	0
 1327 0041 0B       		.uleb128 0xb
 1328 0042 0B       		.uleb128 0xb
 1329 0043 00       		.byte	0
 1330 0044 00       		.byte	0
 1331 0045 06       		.uleb128 0x6
 1332 0046 24       		.uleb128 0x24
 1333 0047 00       		.byte	0
 1334 0048 0B       		.uleb128 0xb
 1335 0049 0B       		.uleb128 0xb
 1336 004a 3E       		.uleb128 0x3e
 1337 004b 0B       		.uleb128 0xb
 1338 004c 03       		.uleb128 0x3
 1339 004d 08       		.uleb128 0x8
 1340 004e 00       		.byte	0
 1341 004f 00       		.byte	0
 1342 0050 07       		.uleb128 0x7
 1343 0051 24       		.uleb128 0x24
 1344 0052 00       		.byte	0
 1345 0053 0B       		.uleb128 0xb
 1346 0054 0B       		.uleb128 0xb
 1347 0055 3E       		.uleb128 0x3e
 1348 0056 0B       		.uleb128 0xb
 1349 0057 03       		.uleb128 0x3
 1350 0058 0E       		.uleb128 0xe
 1351 0059 00       		.byte	0
 1352 005a 00       		.byte	0
 1353 005b 08       		.uleb128 0x8
 1354 005c 0F       		.uleb128 0xf
 1355 005d 00       		.byte	0
 1356 005e 0B       		.uleb128 0xb
 1357 005f 0B       		.uleb128 0xb
 1358 0060 49       		.uleb128 0x49
 1359 0061 13       		.uleb128 0x13
 1360 0062 00       		.byte	0
 1361 0063 00       		.byte	0
 1362 0064 09       		.uleb128 0x9
 1363 0065 26       		.uleb128 0x26
 1364 0066 00       		.byte	0
 1365 0067 49       		.uleb128 0x49
ARM GAS  C:\Users\z80\AppData\Local\Temp\ccB71TLf.s 			page 25


 1366 0068 13       		.uleb128 0x13
 1367 0069 00       		.byte	0
 1368 006a 00       		.byte	0
 1369 006b 0A       		.uleb128 0xa
 1370 006c 15       		.uleb128 0x15
 1371 006d 01       		.byte	0x1
 1372 006e 27       		.uleb128 0x27
 1373 006f 0C       		.uleb128 0xc
 1374 0070 49       		.uleb128 0x49
 1375 0071 13       		.uleb128 0x13
 1376 0072 01       		.uleb128 0x1
 1377 0073 13       		.uleb128 0x13
 1378 0074 00       		.byte	0
 1379 0075 00       		.byte	0
 1380 0076 0B       		.uleb128 0xb
 1381 0077 05       		.uleb128 0x5
 1382 0078 00       		.byte	0
 1383 0079 49       		.uleb128 0x49
 1384 007a 13       		.uleb128 0x13
 1385 007b 00       		.byte	0
 1386 007c 00       		.byte	0
 1387 007d 0C       		.uleb128 0xc
 1388 007e 0D       		.uleb128 0xd
 1389 007f 00       		.byte	0
 1390 0080 03       		.uleb128 0x3
 1391 0081 0E       		.uleb128 0xe
 1392 0082 3A       		.uleb128 0x3a
 1393 0083 0B       		.uleb128 0xb
 1394 0084 3B       		.uleb128 0x3b
 1395 0085 0B       		.uleb128 0xb
 1396 0086 49       		.uleb128 0x49
 1397 0087 13       		.uleb128 0x13
 1398 0088 38       		.uleb128 0x38
 1399 0089 0A       		.uleb128 0xa
 1400 008a 00       		.byte	0
 1401 008b 00       		.byte	0
 1402 008c 0D       		.uleb128 0xd
 1403 008d 0D       		.uleb128 0xd
 1404 008e 00       		.byte	0
 1405 008f 03       		.uleb128 0x3
 1406 0090 08       		.uleb128 0x8
 1407 0091 3A       		.uleb128 0x3a
 1408 0092 0B       		.uleb128 0xb
 1409 0093 3B       		.uleb128 0x3b
 1410 0094 0B       		.uleb128 0xb
 1411 0095 49       		.uleb128 0x49
 1412 0096 13       		.uleb128 0x13
 1413 0097 38       		.uleb128 0x38
 1414 0098 0A       		.uleb128 0xa
 1415 0099 00       		.byte	0
 1416 009a 00       		.byte	0
 1417 009b 0E       		.uleb128 0xe
 1418 009c 13       		.uleb128 0x13
 1419 009d 01       		.byte	0x1
 1420 009e 0B       		.uleb128 0xb
 1421 009f 0B       		.uleb128 0xb
 1422 00a0 3A       		.uleb128 0x3a
ARM GAS  C:\Users\z80\AppData\Local\Temp\ccB71TLf.s 			page 26


 1423 00a1 0B       		.uleb128 0xb
 1424 00a2 3B       		.uleb128 0x3b
 1425 00a3 0B       		.uleb128 0xb
 1426 00a4 01       		.uleb128 0x1
 1427 00a5 13       		.uleb128 0x13
 1428 00a6 00       		.byte	0
 1429 00a7 00       		.byte	0
 1430 00a8 0F       		.uleb128 0xf
 1431 00a9 2E       		.uleb128 0x2e
 1432 00aa 01       		.byte	0x1
 1433 00ab 03       		.uleb128 0x3
 1434 00ac 0E       		.uleb128 0xe
 1435 00ad 3A       		.uleb128 0x3a
 1436 00ae 0B       		.uleb128 0xb
 1437 00af 3B       		.uleb128 0x3b
 1438 00b0 0B       		.uleb128 0xb
 1439 00b1 27       		.uleb128 0x27
 1440 00b2 0C       		.uleb128 0xc
 1441 00b3 49       		.uleb128 0x49
 1442 00b4 13       		.uleb128 0x13
 1443 00b5 11       		.uleb128 0x11
 1444 00b6 01       		.uleb128 0x1
 1445 00b7 12       		.uleb128 0x12
 1446 00b8 01       		.uleb128 0x1
 1447 00b9 40       		.uleb128 0x40
 1448 00ba 06       		.uleb128 0x6
 1449 00bb 01       		.uleb128 0x1
 1450 00bc 13       		.uleb128 0x13
 1451 00bd 00       		.byte	0
 1452 00be 00       		.byte	0
 1453 00bf 10       		.uleb128 0x10
 1454 00c0 05       		.uleb128 0x5
 1455 00c1 00       		.byte	0
 1456 00c2 03       		.uleb128 0x3
 1457 00c3 08       		.uleb128 0x8
 1458 00c4 3A       		.uleb128 0x3a
 1459 00c5 0B       		.uleb128 0xb
 1460 00c6 3B       		.uleb128 0x3b
 1461 00c7 0B       		.uleb128 0xb
 1462 00c8 49       		.uleb128 0x49
 1463 00c9 13       		.uleb128 0x13
 1464 00ca 02       		.uleb128 0x2
 1465 00cb 0A       		.uleb128 0xa
 1466 00cc 00       		.byte	0
 1467 00cd 00       		.byte	0
 1468 00ce 11       		.uleb128 0x11
 1469 00cf 05       		.uleb128 0x5
 1470 00d0 00       		.byte	0
 1471 00d1 03       		.uleb128 0x3
 1472 00d2 0E       		.uleb128 0xe
 1473 00d3 3A       		.uleb128 0x3a
 1474 00d4 0B       		.uleb128 0xb
 1475 00d5 3B       		.uleb128 0x3b
 1476 00d6 0B       		.uleb128 0xb
 1477 00d7 49       		.uleb128 0x49
 1478 00d8 13       		.uleb128 0x13
 1479 00d9 02       		.uleb128 0x2
ARM GAS  C:\Users\z80\AppData\Local\Temp\ccB71TLf.s 			page 27


 1480 00da 0A       		.uleb128 0xa
 1481 00db 00       		.byte	0
 1482 00dc 00       		.byte	0
 1483 00dd 12       		.uleb128 0x12
 1484 00de 34       		.uleb128 0x34
 1485 00df 00       		.byte	0
 1486 00e0 03       		.uleb128 0x3
 1487 00e1 08       		.uleb128 0x8
 1488 00e2 3A       		.uleb128 0x3a
 1489 00e3 0B       		.uleb128 0xb
 1490 00e4 3B       		.uleb128 0x3b
 1491 00e5 0B       		.uleb128 0xb
 1492 00e6 49       		.uleb128 0x49
 1493 00e7 13       		.uleb128 0x13
 1494 00e8 02       		.uleb128 0x2
 1495 00e9 0A       		.uleb128 0xa
 1496 00ea 00       		.byte	0
 1497 00eb 00       		.byte	0
 1498 00ec 13       		.uleb128 0x13
 1499 00ed 2E       		.uleb128 0x2e
 1500 00ee 01       		.byte	0x1
 1501 00ef 3F       		.uleb128 0x3f
 1502 00f0 0C       		.uleb128 0xc
 1503 00f1 03       		.uleb128 0x3
 1504 00f2 0E       		.uleb128 0xe
 1505 00f3 3A       		.uleb128 0x3a
 1506 00f4 0B       		.uleb128 0xb
 1507 00f5 3B       		.uleb128 0x3b
 1508 00f6 0B       		.uleb128 0xb
 1509 00f7 27       		.uleb128 0x27
 1510 00f8 0C       		.uleb128 0xc
 1511 00f9 11       		.uleb128 0x11
 1512 00fa 01       		.uleb128 0x1
 1513 00fb 12       		.uleb128 0x12
 1514 00fc 01       		.uleb128 0x1
 1515 00fd 40       		.uleb128 0x40
 1516 00fe 06       		.uleb128 0x6
 1517 00ff 01       		.uleb128 0x1
 1518 0100 13       		.uleb128 0x13
 1519 0101 00       		.byte	0
 1520 0102 00       		.byte	0
 1521 0103 14       		.uleb128 0x14
 1522 0104 18       		.uleb128 0x18
 1523 0105 00       		.byte	0
 1524 0106 00       		.byte	0
 1525 0107 00       		.byte	0
 1526 0108 15       		.uleb128 0x15
 1527 0109 34       		.uleb128 0x34
 1528 010a 00       		.byte	0
 1529 010b 03       		.uleb128 0x3
 1530 010c 0E       		.uleb128 0xe
 1531 010d 3A       		.uleb128 0x3a
 1532 010e 0B       		.uleb128 0xb
 1533 010f 3B       		.uleb128 0x3b
 1534 0110 0B       		.uleb128 0xb
 1535 0111 49       		.uleb128 0x49
 1536 0112 13       		.uleb128 0x13
ARM GAS  C:\Users\z80\AppData\Local\Temp\ccB71TLf.s 			page 28


 1537 0113 02       		.uleb128 0x2
 1538 0114 0A       		.uleb128 0xa
 1539 0115 00       		.byte	0
 1540 0116 00       		.byte	0
 1541 0117 16       		.uleb128 0x16
 1542 0118 0A       		.uleb128 0xa
 1543 0119 00       		.byte	0
 1544 011a 03       		.uleb128 0x3
 1545 011b 0E       		.uleb128 0xe
 1546 011c 3A       		.uleb128 0x3a
 1547 011d 0B       		.uleb128 0xb
 1548 011e 3B       		.uleb128 0x3b
 1549 011f 0B       		.uleb128 0xb
 1550 0120 11       		.uleb128 0x11
 1551 0121 01       		.uleb128 0x1
 1552 0122 00       		.byte	0
 1553 0123 00       		.byte	0
 1554 0124 17       		.uleb128 0x17
 1555 0125 01       		.uleb128 0x1
 1556 0126 01       		.byte	0x1
 1557 0127 49       		.uleb128 0x49
 1558 0128 13       		.uleb128 0x13
 1559 0129 00       		.byte	0
 1560 012a 00       		.byte	0
 1561 012b 18       		.uleb128 0x18
 1562 012c 21       		.uleb128 0x21
 1563 012d 00       		.byte	0
 1564 012e 49       		.uleb128 0x49
 1565 012f 13       		.uleb128 0x13
 1566 0130 2F       		.uleb128 0x2f
 1567 0131 0B       		.uleb128 0xb
 1568 0132 00       		.byte	0
 1569 0133 00       		.byte	0
 1570 0134 00       		.byte	0
 1571              		.section	.debug_loc,"",%progbits
 1572              	.Ldebug_loc0:
 1573              	.LLST0:
 1574 0000 00000000 		.4byte	.LFB7
 1575 0004 02000000 		.4byte	.LCFI0
 1576 0008 0200     		.2byte	0x2
 1577 000a 7D       		.byte	0x7d
 1578 000b 00       		.sleb128 0
 1579 000c 02000000 		.4byte	.LCFI0
 1580 0010 94000000 		.4byte	.LFE7
 1581 0014 0200     		.2byte	0x2
 1582 0016 7D       		.byte	0x7d
 1583 0017 18       		.sleb128 24
 1584 0018 00000000 		.4byte	0
 1585 001c 00000000 		.4byte	0
 1586              	.LLST1:
 1587 0020 00000000 		.4byte	.LFB8
 1588 0024 02000000 		.4byte	.LCFI1
 1589 0028 0200     		.2byte	0x2
 1590 002a 7D       		.byte	0x7d
 1591 002b 00       		.sleb128 0
 1592 002c 02000000 		.4byte	.LCFI1
 1593 0030 04000000 		.4byte	.LCFI2
ARM GAS  C:\Users\z80\AppData\Local\Temp\ccB71TLf.s 			page 29


 1594 0034 0200     		.2byte	0x2
 1595 0036 7D       		.byte	0x7d
 1596 0037 0C       		.sleb128 12
 1597 0038 04000000 		.4byte	.LCFI2
 1598 003c 06000000 		.4byte	.LCFI3
 1599 0040 0200     		.2byte	0x2
 1600 0042 7D       		.byte	0x7d
 1601 0043 10       		.sleb128 16
 1602 0044 06000000 		.4byte	.LCFI3
 1603 0048 A0040000 		.4byte	.LFE8
 1604 004c 0300     		.2byte	0x3
 1605 004e 7D       		.byte	0x7d
 1606 004f D000     		.sleb128 80
 1607 0051 00000000 		.4byte	0
 1608 0055 00000000 		.4byte	0
 1609              		.section	.debug_aranges,"",%progbits
 1610 0000 24000000 		.4byte	0x24
 1611 0004 0200     		.2byte	0x2
 1612 0006 00000000 		.4byte	.Ldebug_info0
 1613 000a 04       		.byte	0x4
 1614 000b 00       		.byte	0
 1615 000c 0000     		.2byte	0
 1616 000e 0000     		.2byte	0
 1617 0010 00000000 		.4byte	.LFB7
 1618 0014 94000000 		.4byte	.LFE7-.LFB7
 1619 0018 00000000 		.4byte	.LFB8
 1620 001c A0040000 		.4byte	.LFE8-.LFB8
 1621 0020 00000000 		.4byte	0
 1622 0024 00000000 		.4byte	0
 1623              		.section	.debug_ranges,"",%progbits
 1624              	.Ldebug_ranges0:
 1625 0000 00000000 		.4byte	.LFB7
 1626 0004 94000000 		.4byte	.LFE7
 1627 0008 00000000 		.4byte	.LFB8
 1628 000c A0040000 		.4byte	.LFE8
 1629 0010 00000000 		.4byte	0
 1630 0014 00000000 		.4byte	0
 1631              		.section	.debug_line,"",%progbits
 1632              	.Ldebug_line0:
 1633 0000 7C020000 		.section	.debug_str,"MS",%progbits,1
 1633      02008801 
 1633      00000201 
 1633      FB0E0D00 
 1633      01010101 
 1634              	.LASF2:
 1635 0000 73697A65 		.ascii	"size_t\000"
 1635      5F7400
 1636              	.LASF17:
 1637 0007 73797374 		.ascii	"systime_t\000"
 1637      696D655F 
 1637      7400
 1638              	.LASF33:
 1639 0011 69735F6C 		.ascii	"is_long\000"
 1639      6F6E6700 
 1640              	.LASF28:
 1641 0019 72616469 		.ascii	"radix\000"
 1641      7800
ARM GAS  C:\Users\z80\AppData\Local\Temp\ccB71TLf.s 			page 30


 1642              	.LASF15:
 1643 001f 626F6F6C 		.ascii	"bool_t\000"
 1643      5F7400
 1644              	.LASF25:
 1645 0026 77726974 		.ascii	"writet\000"
 1645      657400
 1646              	.LASF1:
 1647 002d 76615F6C 		.ascii	"va_list\000"
 1647      69737400 
 1648              	.LASF6:
 1649 0035 756E7369 		.ascii	"unsigned char\000"
 1649      676E6564 
 1649      20636861 
 1649      7200
 1650              	.LASF26:
 1651 0043 72656164 		.ascii	"readt\000"
 1651      7400
 1652              	.LASF12:
 1653 0049 6C6F6E67 		.ascii	"long unsigned int\000"
 1653      20756E73 
 1653      69676E65 
 1653      6420696E 
 1653      7400
 1654              	.LASF8:
 1655 005b 73686F72 		.ascii	"short unsigned int\000"
 1655      7420756E 
 1655      7369676E 
 1655      65642069 
 1655      6E7400
 1656              	.LASF21:
 1657 006e 77726974 		.ascii	"write\000"
 1657      6500
 1658              	.LASF32:
 1659 0074 77696474 		.ascii	"width\000"
 1659      6800
 1660              	.LASF40:
 1661 007a 63687072 		.ascii	"chprintf\000"
 1661      696E7466 
 1661      00
 1662              	.LASF23:
 1663 0083 70757477 		.ascii	"putwouldblock\000"
 1663      6F756C64 
 1663      626C6F63 
 1663      6B00
 1664              	.LASF0:
 1665 0091 5F5F676E 		.ascii	"__gnuc_va_list\000"
 1665      75635F76 
 1665      615F6C69 
 1665      737400
 1666              	.LASF22:
 1667 00a0 72656164 		.ascii	"read\000"
 1667      00
 1668              	.LASF30:
 1669 00a5 66696C6C 		.ascii	"filler\000"
 1669      657200
 1670              	.LASF3:
 1671 00ac 756E7369 		.ascii	"unsigned int\000"
ARM GAS  C:\Users\z80\AppData\Local\Temp\ccB71TLf.s 			page 31


 1671      676E6564 
 1671      20696E74 
 1671      00
 1672              	.LASF37:
 1673 00b9 433A5C70 		.ascii	"C:\\projects\\digitizer.git\\firmware\\digitizer\000"
 1673      726F6A65 
 1673      6374735C 
 1673      64696769 
 1673      74697A65 
 1674              	.LASF14:
 1675 00e6 6C6F6E67 		.ascii	"long long unsigned int\000"
 1675      206C6F6E 
 1675      6720756E 
 1675      7369676E 
 1675      65642069 
 1676              	.LASF36:
 1677 00fd 2E2E2F63 		.ascii	"../chibios_2.4.x/os/various/chprintf.c\000"
 1677      68696269 
 1677      6F735F32 
 1677      2E342E78 
 1677      2F6F732F 
 1678              	.LASF38:
 1679 0124 5F5F6170 		.ascii	"__ap\000"
 1679      00
 1680              	.LASF24:
 1681 0129 67657477 		.ascii	"getwouldblock\000"
 1681      6F756C64 
 1681      626C6F63 
 1681      6B00
 1682              	.LASF16:
 1683 0137 6D73675F 		.ascii	"msg_t\000"
 1683      7400
 1684              	.LASF20:
 1685 013d 42617365 		.ascii	"BaseChannelVMT\000"
 1685      4368616E 
 1685      6E656C56 
 1685      4D5400
 1686              	.LASF9:
 1687 014c 696E7433 		.ascii	"int32_t\000"
 1687      325F7400 
 1688              	.LASF29:
 1689 0154 746D7062 		.ascii	"tmpbuf\000"
 1689      756600
 1690              	.LASF19:
 1691 015b 5F5F7661 		.ascii	"__va_list\000"
 1691      5F6C6973 
 1691      7400
 1692              	.LASF13:
 1693 0165 6C6F6E67 		.ascii	"long long int\000"
 1693      206C6F6E 
 1693      6720696E 
 1693      7400
 1694              	.LASF31:
 1695 0173 70726563 		.ascii	"precision\000"
 1695      6973696F 
 1695      6E00
 1696              	.LASF18:
ARM GAS  C:\Users\z80\AppData\Local\Temp\ccB71TLf.s 			page 32


 1697 017d 63686172 		.ascii	"char\000"
 1697      00
 1698              	.LASF34:
 1699 0182 6C656674 		.ascii	"left_align\000"
 1699      5F616C69 
 1699      676E00
 1700              	.LASF35:
 1701 018d 474E5520 		.ascii	"GNU C 4.6.3\000"
 1701      4320342E 
 1701      362E3300 
 1702              	.LASF7:
 1703 0199 73686F72 		.ascii	"short int\000"
 1703      7420696E 
 1703      7400
 1704              	.LASF5:
 1705 01a3 75696E74 		.ascii	"uint8_t\000"
 1705      385F7400 
 1706              	.LASF41:
 1707 01ab 756E7369 		.ascii	"unsigned_common\000"
 1707      676E6564 
 1707      5F636F6D 
 1707      6D6F6E00 
 1708              	.LASF11:
 1709 01bb 75696E74 		.ascii	"uint32_t\000"
 1709      33325F74 
 1709      00
 1710              	.LASF10:
 1711 01c4 6C6F6E67 		.ascii	"long int\000"
 1711      20696E74 
 1711      00
 1712              	.LASF4:
 1713 01cd 7369676E 		.ascii	"signed char\000"
 1713      65642063 
 1713      68617200 
 1714              	.LASF39:
 1715 01d9 6C746F61 		.ascii	"ltoa\000"
 1715      00
 1716              	.LASF27:
 1717 01de 42617365 		.ascii	"BaseChannel\000"
 1717      4368616E 
 1717      6E656C00 
 1718              		.ident	"GCC: (Sourcery CodeBench Lite 2012.03-56) 4.6.3"
ARM GAS  C:\Users\z80\AppData\Local\Temp\ccB71TLf.s 			page 33


DEFINED SYMBOLS
                            *ABS*:00000000 chprintf.c
C:\Users\z80\AppData\Local\Temp\ccB71TLf.s:19     .text.ltoa:00000000 $t
C:\Users\z80\AppData\Local\Temp\ccB71TLf.s:24     .text.ltoa:00000000 ltoa
C:\Users\z80\AppData\Local\Temp\ccB71TLf.s:116    .rodata:00000000 $d
C:\Users\z80\AppData\Local\Temp\ccB71TLf.s:117    .rodata:00000000 .LC0
C:\Users\z80\AppData\Local\Temp\ccB71TLf.s:120    .text.chprintf:00000000 $t
C:\Users\z80\AppData\Local\Temp\ccB71TLf.s:126    .text.chprintf:00000000 chprintf
C:\Users\z80\AppData\Local\Temp\ccB71TLf.s:381    .text.chprintf:000001c0 $d
C:\Users\z80\AppData\Local\Temp\ccB71TLf.s:436    .text.chprintf:00000294 $t
                     .debug_frame:00000010 $d

NO UNDEFINED SYMBOLS
