ARM GAS  C:\Users\z80\AppData\Local\Temp\ccKDl7lk.s 			page 1


   1              		.syntax unified
   2              		.cpu cortex-m3
   3              		.fpu softvfp
   4              		.eabi_attribute 20, 1
   5              		.eabi_attribute 21, 1
   6              		.eabi_attribute 23, 3
   7              		.eabi_attribute 24, 1
   8              		.eabi_attribute 25, 1
   9              		.eabi_attribute 26, 1
  10              		.eabi_attribute 30, 2
  11              		.eabi_attribute 34, 1
  12              		.eabi_attribute 18, 4
  13              		.thumb
  14              		.file	"chprintf.c"
  15              		.text
  16              	.Ltext0:
  17              		.cfi_sections	.debug_frame
  18              		.section	.text.chprintf,"ax",%progbits
  19              		.align	2
  20              		.p2align 4,,15
  21              		.global	chprintf
  22              		.thumb
  23              		.thumb_func
  24              		.type	chprintf, %function
  25              	chprintf:
  26              	.LFB8:
  27              		.file 1 "../chibios_2.4.x/os/various/chprintf.c"
  28              		.loc 1 86 0
  29              		.cfi_startproc
  30              		@ args = 4, pretend = 12, frame = 40
  31              		@ frame_needed = 0, uses_anonymous_args = 1
  32              	.LVL0:
  33 0000 0EB4     		push	{r1, r2, r3}
  34              	.LCFI0:
  35              		.cfi_def_cfa_offset 12
  36              		.cfi_offset 3, -4
  37              		.cfi_offset 2, -8
  38              		.cfi_offset 1, -12
  39 0002 2DE9F04F 		push	{r4, r5, r6, r7, r8, r9, sl, fp, lr}
  40              	.LCFI1:
  41              		.cfi_def_cfa_offset 48
  42              		.cfi_offset 14, -16
  43              		.cfi_offset 11, -20
  44              		.cfi_offset 10, -24
  45              		.cfi_offset 9, -28
  46              		.cfi_offset 8, -32
  47              		.cfi_offset 7, -36
  48              		.cfi_offset 6, -40
  49              		.cfi_offset 5, -44
  50              		.cfi_offset 4, -48
  51 0006 8AB0     		sub	sp, sp, #40
  52              	.LCFI2:
  53              		.cfi_def_cfa_offset 88
  54              		.loc 1 197 0
  55 0008 0DF11906 		add	r6, sp, #25
  56 000c 0196     		str	r6, [sp, #4]
  57              		.loc 1 86 0
ARM GAS  C:\Users\z80\AppData\Local\Temp\ccKDl7lk.s 			page 2


  58 000e 13A9     		add	r1, sp, #76
  59 0010 0546     		mov	r5, r0
  60              		.loc 1 197 0
  61 0012 0198     		ldr	r0, [sp, #4]
  62              	.LVL1:
  63              		.loc 1 86 0
  64 0014 51F8044B 		ldr	r4, [r1], #4
  65              		.loc 1 105 0
  66 0018 0DF1180B 		add	fp, sp, #24
  67              	.LBB6:
  68              	.LBB7:
  69              		.loc 1 48 0
  70 001c 4CF6CD46 		movw	r6, #52429
  71              	.LBE7:
  72              	.LBE6:
  73              		.loc 1 160 0
  74 0020 40F20007 		movw	r7, #:lower16:.LC0
  75              		.loc 1 197 0
  76 0024 CBEB0003 		rsb	r3, fp, r0
  77              	.LBB13:
  78              	.LBB8:
  79              		.loc 1 48 0
  80 0028 CCF6CC46 		movt	r6, 52428
  81              	.LBE8:
  82              	.LBE13:
  83              		.loc 1 160 0
  84 002c C0F20007 		movt	r7, #:upper16:.LC0
  85              		.loc 1 94 0
  86 0030 0991     		str	r1, [sp, #36]
  87              		.loc 1 197 0
  88 0032 0493     		str	r3, [sp, #16]
  89              	.LBB14:
  90              	.LBB9:
  91              		.loc 1 48 0
  92 0034 0396     		str	r6, [sp, #12]
  93              	.LBE9:
  94              	.LBE14:
  95              		.loc 1 160 0
  96 0036 0297     		str	r7, [sp, #8]
  97              	.LVL2:
  98              	.L98:
  99              		.loc 1 96 0
 100 0038 2178     		ldrb	r1, [r4, #0]	@ zero_extendqisi2
 101              	.LVL3:
 102              		.loc 1 97 0
 103 003a 61B1     		cbz	r1, .L99
 104              	.LVL4:
 105              	.L118:
 106              		.loc 1 96 0
 107 003c 661C     		adds	r6, r4, #1
 108              		.loc 1 101 0
 109 003e 2529     		cmp	r1, #37
 110 0040 0ED0     		beq	.L4
 111              		.loc 1 102 0
 112 0042 2A68     		ldr	r2, [r5, #0]
 113 0044 2846     		mov	r0, r5
 114 0046 1469     		ldr	r4, [r2, #16]
ARM GAS  C:\Users\z80\AppData\Local\Temp\ccKDl7lk.s 			page 3


 115 0048 4FF0FF32 		mov	r2, #-1
 116 004c A047     		blx	r4
 117              		.loc 1 96 0
 118 004e 3446     		mov	r4, r6
 119              	.LVL5:
 120 0050 2178     		ldrb	r1, [r4, #0]	@ zero_extendqisi2
 121              	.LVL6:
 122              		.loc 1 97 0
 123 0052 0029     		cmp	r1, #0
 124 0054 F2D1     		bne	.L118
 125              	.LVL7:
 126              	.L99:
 127              		.loc 1 222 0
 128 0056 0AB0     		add	sp, sp, #40
 129 0058 BDE8F04F 		pop	{r4, r5, r6, r7, r8, r9, sl, fp, lr}
 130 005c 03B0     		add	sp, sp, #12
 131 005e 7047     		bx	lr
 132              	.L4:
 133              	.LVL8:
 134              		.loc 1 108 0
 135 0060 6378     		ldrb	r3, [r4, #1]	@ zero_extendqisi2
 136              		.loc 1 107 0
 137 0062 0020     		movs	r0, #0
 138              		.loc 1 108 0
 139 0064 2D2B     		cmp	r3, #45
 140 0066 00F00982 		beq	.L119
 141              	.LVL9:
 142              	.L6:
 143              		.loc 1 113 0
 144 006a 2E2B     		cmp	r3, #46
 145              		.loc 1 112 0
 146 006c 11BF     		iteee	ne
 147 006e 4FF02008 		movne	r8, #32
 148              		.loc 1 114 0
 149 0072 7378     		ldrbeq	r3, [r6, #1]	@ zero_extendqisi2
 150              		.loc 1 115 0
 151 0074 4FF03008 		moveq	r8, #48
 152              		.loc 1 114 0
 153 0078 0136     		addeq	r6, r6, #1
 154              	.LVL10:
 155 007a 099A     		ldr	r2, [sp, #36]
 156              		.loc 1 86 0
 157 007c 3446     		mov	r4, r6
 158              		.loc 1 117 0
 159 007e 4FF0000A 		mov	sl, #0
 160 0082 07E0     		b	.L10
 161              	.LVL11:
 162              	.L120:
 163              		.loc 1 123 0
 164 0084 1178     		ldrb	r1, [r2, #0]	@ zero_extendqisi2
 165              	.LVL12:
 166 0086 0432     		adds	r2, r2, #4
 167              	.LVL13:
 168              	.L8:
 169              		.loc 1 126 0
 170 0088 0AEB8A03 		add	r3, sl, sl, lsl #2
 171 008c 01EB430A 		add	sl, r1, r3, lsl #1
ARM GAS  C:\Users\z80\AppData\Local\Temp\ccKDl7lk.s 			page 4


 172              	.LVL14:
 173 0090 16F8013F 		ldrb	r3, [r6, #1]!	@ zero_extendqisi2
 174              	.LVL15:
 175              	.L10:
 176              		.loc 1 120 0
 177 0094 A3F13007 		sub	r7, r3, #48
 178 0098 F9B2     		uxtb	r1, r7
 179              		.loc 1 119 0
 180 009a 0134     		adds	r4, r4, #1
 181              	.LVL16:
 182              		.loc 1 120 0
 183 009c 0929     		cmp	r1, #9
 184 009e F3D9     		bls	.L8
 185              		.loc 1 122 0
 186 00a0 2A2B     		cmp	r3, #42
 187 00a2 EFD0     		beq	.L120
 188              		.loc 1 129 0
 189 00a4 0026     		movs	r6, #0
 190 00a6 2E2B     		cmp	r3, #46
 191              		.loc 1 127 0
 192 00a8 0992     		str	r2, [sp, #36]
 193              	.LVL17:
 194              		.loc 1 129 0
 195 00aa 51D0     		beq	.L14
 196              	.LVL18:
 197              	.L11:
 198              		.loc 1 143 0
 199 00ac A3F16C07 		sub	r7, r3, #108
 200 00b0 7A42     		rsbs	r2, r7, #0
 201 00b2 42EB0701 		adc	r1, r2, r7
 202 00b6 4C2B     		cmp	r3, #76
 203 00b8 08BF     		it	eq
 204 00ba 41F00101 		orreq	r1, r1, #1
 205 00be 0029     		cmp	r1, #0
 206 00c0 00F0D281 		beq	.L15
 207              	.LVL19:
 208              		.loc 1 145 0
 209 00c4 2278     		ldrb	r2, [r4, #0]	@ zero_extendqisi2
 210 00c6 002A     		cmp	r2, #0
 211 00c8 00F0DC81 		beq	.L51
 212              	.LVL20:
 213              		.loc 1 146 0
 214 00cc 1346     		mov	r3, r2
 215 00ce 0134     		adds	r4, r4, #1
 216              	.LVL21:
 217              		.loc 1 144 0
 218 00d0 0122     		movs	r2, #1
 219              	.LVL22:
 220              	.L16:
 221              		.loc 1 152 0
 222 00d2 A3F14409 		sub	r9, r3, #68
 223 00d6 B9F1340F 		cmp	r9, #52
 224 00da 00F27B81 		bhi	.L17
 225 00de DFE819F0 		tbh	[pc, r9, lsl #1]
 226              	.L24:
 227 00e2 3801     		.2byte	(.L18-.L24)/2
 228 00e4 7901     		.2byte	(.L17-.L24)/2
ARM GAS  C:\Users\z80\AppData\Local\Temp\ccKDl7lk.s 			page 5


 229 00e6 7901     		.2byte	(.L17-.L24)/2
 230 00e8 7901     		.2byte	(.L17-.L24)/2
 231 00ea 7901     		.2byte	(.L17-.L24)/2
 232 00ec 7901     		.2byte	(.L17-.L24)/2
 233 00ee 7901     		.2byte	(.L17-.L24)/2
 234 00f0 7901     		.2byte	(.L17-.L24)/2
 235 00f2 7901     		.2byte	(.L17-.L24)/2
 236 00f4 7901     		.2byte	(.L17-.L24)/2
 237 00f6 7901     		.2byte	(.L17-.L24)/2
 238 00f8 B901     		.2byte	(.L19-.L24)/2
 239 00fa 7901     		.2byte	(.L17-.L24)/2
 240 00fc 7901     		.2byte	(.L17-.L24)/2
 241 00fe 7901     		.2byte	(.L17-.L24)/2
 242 0100 7901     		.2byte	(.L17-.L24)/2
 243 0102 7901     		.2byte	(.L17-.L24)/2
 244 0104 7F01     		.2byte	(.L52-.L24)/2
 245 0106 7901     		.2byte	(.L17-.L24)/2
 246 0108 7901     		.2byte	(.L17-.L24)/2
 247 010a C101     		.2byte	(.L21-.L24)/2
 248 010c 7901     		.2byte	(.L17-.L24)/2
 249 010e 7901     		.2byte	(.L17-.L24)/2
 250 0110 7901     		.2byte	(.L17-.L24)/2
 251 0112 7901     		.2byte	(.L17-.L24)/2
 252 0114 7901     		.2byte	(.L17-.L24)/2
 253 0116 7901     		.2byte	(.L17-.L24)/2
 254 0118 7901     		.2byte	(.L17-.L24)/2
 255 011a 7901     		.2byte	(.L17-.L24)/2
 256 011c 7901     		.2byte	(.L17-.L24)/2
 257 011e 7901     		.2byte	(.L17-.L24)/2
 258 0120 E400     		.2byte	(.L22-.L24)/2
 259 0122 3801     		.2byte	(.L18-.L24)/2
 260 0124 7901     		.2byte	(.L17-.L24)/2
 261 0126 7901     		.2byte	(.L17-.L24)/2
 262 0128 7901     		.2byte	(.L17-.L24)/2
 263 012a 7901     		.2byte	(.L17-.L24)/2
 264 012c 7901     		.2byte	(.L17-.L24)/2
 265 012e 7901     		.2byte	(.L17-.L24)/2
 266 0130 7901     		.2byte	(.L17-.L24)/2
 267 0132 7901     		.2byte	(.L17-.L24)/2
 268 0134 7901     		.2byte	(.L17-.L24)/2
 269 0136 7901     		.2byte	(.L17-.L24)/2
 270 0138 B901     		.2byte	(.L19-.L24)/2
 271 013a 7901     		.2byte	(.L17-.L24)/2
 272 013c 7901     		.2byte	(.L17-.L24)/2
 273 013e 7901     		.2byte	(.L17-.L24)/2
 274 0140 4900     		.2byte	(.L23-.L24)/2
 275 0142 7901     		.2byte	(.L17-.L24)/2
 276 0144 7F01     		.2byte	(.L52-.L24)/2
 277 0146 7901     		.2byte	(.L17-.L24)/2
 278 0148 7901     		.2byte	(.L17-.L24)/2
 279 014a C101     		.2byte	(.L21-.L24)/2
 280              	.LVL23:
 281              	.L12:
 282              		.loc 1 139 0
 283 014c 01EB4706 		add	r6, r1, r7, lsl #1
 284              	.LVL24:
 285              	.L14:
ARM GAS  C:\Users\z80\AppData\Local\Temp\ccKDl7lk.s 			page 6


 286              		.loc 1 131 0
 287 0150 14F8013B 		ldrb	r3, [r4], #1	@ zero_extendqisi2
 288              	.LVL25:
 289              		.loc 1 138 0
 290 0154 06EB8607 		add	r7, r6, r6, lsl #2
 291              		.loc 1 132 0
 292 0158 A3F13009 		sub	r9, r3, #48
 293 015c 5FFA89F1 		uxtb	r1, r9
 294 0160 0929     		cmp	r1, #9
 295 0162 F3D9     		bls	.L12
 296              		.loc 1 134 0
 297 0164 2A2B     		cmp	r3, #42
 298 0166 40F08781 		bne	.L121
 299              		.loc 1 135 0
 300 016a 1178     		ldrb	r1, [r2, #0]	@ zero_extendqisi2
 301              	.LVL26:
 302 016c 0432     		adds	r2, r2, #4
 303              	.LVL27:
 304              		.loc 1 139 0
 305 016e 01EB4706 		add	r6, r1, r7, lsl #1
 306              	.LVL28:
 307 0172 EDE7     		b	.L14
 308              	.LVL29:
 309              	.L23:
 310              		.loc 1 159 0
 311 0174 099B     		ldr	r3, [sp, #36]
 312              	.LVL30:
 313              		.loc 1 160 0
 314 0176 029A     		ldr	r2, [sp, #8]
 315              	.LVL31:
 316              		.loc 1 159 0
 317 0178 1F1D     		adds	r7, r3, #4
 318 017a 0997     		str	r7, [sp, #36]
 319 017c 1F68     		ldr	r7, [r3, #0]
 320              	.LVL32:
 321              		.loc 1 162 0
 322 017e 47F6FF78 		movw	r8, #32767
 323              		.loc 1 160 0
 324 0182 002F     		cmp	r7, #0
 325 0184 08BF     		it	eq
 326 0186 1746     		moveq	r7, r2
 327              	.LVL33:
 328              		.loc 1 163 0
 329 0188 3978     		ldrb	r1, [r7, #0]	@ zero_extendqisi2
 330              		.loc 1 162 0
 331 018a 002E     		cmp	r6, #0
 332 018c 08BF     		it	eq
 333 018e 4646     		moveq	r6, r8
 334              	.LVL34:
 335              		.loc 1 163 0
 336 0190 8946     		mov	r9, r1
 337              	.LVL35:
 338              		.loc 1 158 0
 339 0192 4FF02008 		mov	r8, #32
 340              		.loc 1 163 0
 341 0196 0029     		cmp	r1, #0
 342 0198 00F09280 		beq	.L25
ARM GAS  C:\Users\z80\AppData\Local\Temp\ccKDl7lk.s 			page 7


 343 019c FB43     		mvns	r3, r7
 344              		.loc 1 86 0
 345 019e B919     		adds	r1, r7, r6
 346              		.loc 1 163 0
 347 01a0 7A78     		ldrb	r2, [r7, #1]	@ zero_extendqisi2
 348 01a2 CE18     		adds	r6, r1, r3
 349 01a4 07F10109 		add	r9, r7, #1
 350 01a8 06F00106 		and	r6, r6, #1
 351 01ac 4B46     		mov	r3, r9
 352 01ae A2B1     		cbz	r2, .L103
 353 01b0 8945     		cmp	r9, r1
 354 01b2 12D0     		beq	.L103
 355 01b4 2EB1     		cbz	r6, .L29
 356 01b6 13F8012F 		ldrb	r2, [r3, #1]!	@ zero_extendqisi2
 357 01ba 09F10109 		add	r9, r9, #1
 358              	.LVL36:
 359 01be 52B9     		cbnz	r2, .L91
 360 01c0 0BE0     		b	.L103
 361              	.L29:
 362              		.loc 1 163 0 is_stmt 0 discriminator 1
 363 01c2 5A78     		ldrb	r2, [r3, #1]	@ zero_extendqisi2
 364 01c4 09F10109 		add	r9, r9, #1
 365 01c8 0133     		adds	r3, r3, #1
 366 01ca 32B1     		cbz	r2, .L103
 367              		.loc 1 163 0 discriminator 2
 368 01cc 5A78     		ldrb	r2, [r3, #1]	@ zero_extendqisi2
 369 01ce 09F10109 		add	r9, r9, #1
 370 01d2 0133     		adds	r3, r3, #1
 371 01d4 0AB1     		cbz	r2, .L103
 372              	.L91:
 373              		.loc 1 163 0
 374 01d6 8945     		cmp	r9, r1
 375 01d8 F3D1     		bne	.L29
 376              	.L103:
 377 01da C7EB0909 		rsb	r9, r7, r9
 378              		.loc 1 201 0 is_stmt 1
 379 01de C9EB0A02 		rsb	r2, r9, sl
 380              		.loc 1 158 0
 381 01e2 4FF02008 		mov	r8, #32
 382              	.LVL37:
 383              		.loc 1 201 0
 384 01e6 22EAE27A 		bic	sl, r2, r2, asr #31
 385              	.LVL38:
 386              		.loc 1 203 0
 387 01ea 0028     		cmp	r0, #0
 388 01ec 6ED0     		beq	.L122
 389              	.LVL39:
 390              	.L42:
 391              		.loc 1 214 0 discriminator 1
 392 01ee B9F1000F 		cmp	r9, #0
 393 01f2 30DD     		ble	.L45
 394              		.loc 1 215 0
 395 01f4 3E46     		mov	r6, r7
 396 01f6 2A68     		ldr	r2, [r5, #0]
 397 01f8 F843     		mvns	r0, r7
 398              		.loc 1 86 0
 399 01fa B944     		add	r9, r7, r9
ARM GAS  C:\Users\z80\AppData\Local\Temp\ccKDl7lk.s 			page 8


 400              	.LVL40:
 401              		.loc 1 215 0
 402 01fc 16F8011B 		ldrb	r1, [r6], #1	@ zero_extendqisi2
 403 0200 09EB0007 		add	r7, r9, r0
 404              	.LVL41:
 405 0204 1369     		ldr	r3, [r2, #16]
 406 0206 2846     		mov	r0, r5
 407 0208 4FF0FF32 		mov	r2, #-1
 408 020c 9847     		blx	r3
 409              		.loc 1 214 0
 410 020e 4E45     		cmp	r6, r9
 411 0210 07F00107 		and	r7, r7, #1
 412              	.LVL42:
 413 0214 1FD0     		beq	.L45
 414 0216 4FB1     		cbz	r7, .L107
 415              	.LVL43:
 416              		.loc 1 215 0
 417 0218 2868     		ldr	r0, [r5, #0]
 418 021a 16F8011B 		ldrb	r1, [r6], #1	@ zero_extendqisi2
 419 021e 0369     		ldr	r3, [r0, #16]
 420 0220 4FF0FF32 		mov	r2, #-1
 421 0224 2846     		mov	r0, r5
 422 0226 9847     		blx	r3
 423              		.loc 1 214 0
 424 0228 4E45     		cmp	r6, r9
 425 022a 14D0     		beq	.L45
 426              	.L107:
 427 022c 2746     		mov	r7, r4
 428              	.LVL44:
 429              	.L46:
 430              		.loc 1 215 0
 431 022e 2868     		ldr	r0, [r5, #0]
 432 0230 3446     		mov	r4, r6
 433 0232 14F8011B 		ldrb	r1, [r4], #1	@ zero_extendqisi2
 434 0236 0369     		ldr	r3, [r0, #16]
 435 0238 4FF0FF32 		mov	r2, #-1
 436 023c 2846     		mov	r0, r5
 437 023e 9847     		blx	r3
 438 0240 2B68     		ldr	r3, [r5, #0]
 439 0242 7178     		ldrb	r1, [r6, #1]	@ zero_extendqisi2
 440 0244 2846     		mov	r0, r5
 441 0246 661C     		adds	r6, r4, #1
 442 0248 4FF0FF32 		mov	r2, #-1
 443 024c 1C69     		ldr	r4, [r3, #16]
 444 024e A047     		blx	r4
 445              		.loc 1 214 0
 446 0250 4E45     		cmp	r6, r9
 447 0252 ECD1     		bne	.L46
 448 0254 3C46     		mov	r4, r7
 449              	.LVL45:
 450              	.L45:
 451              		.loc 1 217 0 discriminator 1
 452 0256 BAF1000F 		cmp	sl, #0
 453 025a 3FF4EDAE 		beq	.L98
 454              		.loc 1 218 0
 455 025e 2E68     		ldr	r6, [r5, #0]
 456 0260 0AF1FF3E 		add	lr, sl, #-1
ARM GAS  C:\Users\z80\AppData\Local\Temp\ccKDl7lk.s 			page 9


 457 0264 3369     		ldr	r3, [r6, #16]
 458 0266 2846     		mov	r0, r5
 459              		.loc 1 217 0
 460 0268 7646     		mov	r6, lr
 461              		.loc 1 218 0
 462 026a 4146     		mov	r1, r8
 463 026c 4FF0FF32 		mov	r2, #-1
 464 0270 0EF00107 		and	r7, lr, #1
 465 0274 9847     		blx	r3
 466              		.loc 1 217 0
 467 0276 002E     		cmp	r6, #0
 468 0278 3FF4DEAE 		beq	.L98
 469 027c 1FB1     		cbz	r7, .L58
 470              		.loc 1 218 0
 471 027e 2A68     		ldr	r2, [r5, #0]
 472 0280 2846     		mov	r0, r5
 473 0282 1369     		ldr	r3, [r2, #16]
 474 0284 0AE0     		b	.L113
 475              	.LVL46:
 476              	.L58:
 477 0286 2868     		ldr	r0, [r5, #0]
 478 0288 4146     		mov	r1, r8
 479 028a 0369     		ldr	r3, [r0, #16]
 480 028c 4FF0FF32 		mov	r2, #-1
 481 0290 2846     		mov	r0, r5
 482 0292 9847     		blx	r3
 483 0294 2968     		ldr	r1, [r5, #0]
 484              		.loc 1 219 0
 485 0296 013E     		subs	r6, r6, #1
 486              		.loc 1 218 0
 487 0298 0B69     		ldr	r3, [r1, #16]
 488 029a 2846     		mov	r0, r5
 489              	.L113:
 490 029c 4146     		mov	r1, r8
 491 029e 4FF0FF32 		mov	r2, #-1
 492 02a2 9847     		blx	r3
 493              		.loc 1 217 0
 494 02a4 013E     		subs	r6, r6, #1
 495 02a6 EED1     		bne	.L58
 496 02a8 C6E6     		b	.L98
 497              	.LVL47:
 498              	.L22:
 499              		.loc 1 155 0
 500 02aa 099F     		ldr	r7, [sp, #36]
 501 02ac DDF81090 		ldr	r9, [sp, #16]
 502 02b0 3A68     		ldr	r2, [r7, #0]
 503              	.LVL48:
 504 02b2 3B1D     		adds	r3, r7, #4
 505              	.LVL49:
 506 02b4 0993     		str	r3, [sp, #36]
 507 02b6 8DF81820 		strb	r2, [sp, #24]
 508              	.LVL50:
 509              		.loc 1 154 0
 510 02ba 4FF02008 		mov	r8, #32
 511              		.loc 1 106 0
 512 02be 5F46     		mov	r7, fp
 513              	.LVL51:
ARM GAS  C:\Users\z80\AppData\Local\Temp\ccKDl7lk.s 			page 10


 514              	.L25:
 515              		.loc 1 201 0
 516 02c0 C9EB0A02 		rsb	r2, r9, sl
 517              	.LVL52:
 518 02c4 22EAE27A 		bic	sl, r2, r2, asr #31
 519              	.LVL53:
 520              		.loc 1 203 0
 521 02c8 0028     		cmp	r0, #0
 522 02ca 90D1     		bne	.L42
 523              	.LVL54:
 524              	.L122:
 525              		.loc 1 204 0
 526 02cc CAF1000A 		rsb	sl, sl, #0
 527              	.LVL55:
 528              		.loc 1 205 0
 529 02d0 BAF1000F 		cmp	sl, #0
 530 02d4 8BD0     		beq	.L42
 531              		.loc 1 206 0
 532 02d6 A8F13003 		sub	r3, r8, #48
 533 02da D3F1000E 		rsbs	lr, r3, #0
 534 02de 3E78     		ldrb	r6, [r7, #0]	@ zero_extendqisi2
 535 02e0 4EEB0300 		adc	r0, lr, r3
 536              	.LVL56:
 537 02e4 2D2E     		cmp	r6, #45
 538 02e6 14BF     		ite	ne
 539 02e8 0020     		movne	r0, #0
 540 02ea 00F00100 		andeq	r0, r0, #1
 541 02ee 0028     		cmp	r0, #0
 542 02f0 40F0D980 		bne	.L123
 543              	.L44:
 544              		.loc 1 211 0 discriminator 1
 545 02f4 2A68     		ldr	r2, [r5, #0]
 546 02f6 6FEA0A0C 		mvn	ip, sl
 547 02fa 1369     		ldr	r3, [r2, #16]
 548 02fc 2846     		mov	r0, r5
 549 02fe 4146     		mov	r1, r8
 550 0300 4FF0FF32 		mov	r2, #-1
 551 0304 0CF00106 		and	r6, ip, #1
 552              	.LVL57:
 553 0308 9847     		blx	r3
 554              	.LVL58:
 555              		.loc 1 212 0 discriminator 1
 556 030a 1AF1010A 		adds	sl, sl, #1
 557              	.LVL59:
 558 030e 3FF46EAF 		beq	.L42
 559 0312 56B1     		cbz	r6, .L59
 560              		.loc 1 211 0
 561 0314 2968     		ldr	r1, [r5, #0]
 562 0316 2846     		mov	r0, r5
 563 0318 0B69     		ldr	r3, [r1, #16]
 564 031a 4FF0FF32 		mov	r2, #-1
 565 031e 4146     		mov	r1, r8
 566 0320 9847     		blx	r3
 567              	.LVL60:
 568              		.loc 1 212 0
 569 0322 1AF1010A 		adds	sl, sl, #1
 570              	.LVL61:
ARM GAS  C:\Users\z80\AppData\Local\Temp\ccKDl7lk.s 			page 11


 571 0326 3FF462AF 		beq	.L42
 572              	.L59:
 573              		.loc 1 211 0 discriminator 1
 574 032a 2868     		ldr	r0, [r5, #0]
 575 032c 4146     		mov	r1, r8
 576 032e 0369     		ldr	r3, [r0, #16]
 577 0330 4FF0FF32 		mov	r2, #-1
 578 0334 2846     		mov	r0, r5
 579 0336 9847     		blx	r3
 580 0338 2868     		ldr	r0, [r5, #0]
 581              		.loc 1 212 0 discriminator 1
 582 033a 0AF1010A 		add	sl, sl, #1
 583              	.LVL62:
 584              		.loc 1 211 0 discriminator 1
 585 033e 0369     		ldr	r3, [r0, #16]
 586 0340 4146     		mov	r1, r8
 587 0342 2846     		mov	r0, r5
 588 0344 4FF0FF32 		mov	r2, #-1
 589 0348 9847     		blx	r3
 590              	.LVL63:
 591              		.loc 1 212 0 discriminator 1
 592 034a 1AF1010A 		adds	sl, sl, #1
 593              	.LVL64:
 594 034e ECD1     		bne	.L59
 595 0350 4DE7     		b	.L42
 596              	.LVL65:
 597              	.L18:
 598              		.loc 1 169 0
 599 0352 099B     		ldr	r3, [sp, #36]
 600              	.LVL66:
 601              		.loc 1 168 0
 602 0354 002A     		cmp	r2, #0
 603 0356 40F09780 		bne	.L124
 604              		.loc 1 171 0
 605 035a 1F1D     		adds	r7, r3, #4
 606 035c 1B68     		ldr	r3, [r3, #0]
 607              	.LVL67:
 608 035e 0997     		str	r7, [sp, #36]
 609              		.loc 1 172 0
 610 0360 002B     		cmp	r3, #0
 611              		.loc 1 105 0
 612 0362 A8BF     		it	ge
 613 0364 DC46     		movge	ip, fp
 614              		.loc 1 172 0
 615 0366 C0F29780 		blt	.L125
 616              	.LVL68:
 617              	.L32:
 618              	.LBB15:
 619              	.LBB10:
 620              		.loc 1 46 0
 621 036a 0CF10B07 		add	r7, ip, #11
 622              	.LVL69:
 623              		.loc 1 86 0
 624 036e DDF80C90 		ldr	r9, [sp, #12]
 625              	.LVL70:
 626 0372 3946     		mov	r1, r7
 627              	.LVL71:
ARM GAS  C:\Users\z80\AppData\Local\Temp\ccKDl7lk.s 			page 12


 628              	.L33:
 629              		.loc 1 48 0
 630 0374 A9FB0362 		umull	r6, r2, r9, r3
 631 0378 D208     		lsrs	r2, r2, #3
 632 037a 02EB8206 		add	r6, r2, r2, lsl #2
 633 037e A3EB4603 		sub	r3, r3, r6, lsl #1
 634              	.LVL72:
 635              		.loc 1 49 0
 636 0382 03F13006 		add	r6, r3, #48
 637              		.loc 1 86 0
 638 0386 0139     		subs	r1, r1, #1
 639              	.LVL73:
 640              		.loc 1 53 0
 641 0388 1346     		mov	r3, r2
 642              		.loc 1 52 0
 643 038a 0E70     		strb	r6, [r1, #0]
 644              		.loc 1 53 0
 645 038c 002A     		cmp	r2, #0
 646 038e F1D1     		bne	.L33
 647              		.loc 1 55 0
 648 0390 7A1A     		subs	r2, r7, r1
 649              	.LVL74:
 650              		.loc 1 86 0
 651 0392 0CEB0209 		add	r9, ip, r2
 652 0396 6FEA0C03 		mvn	r3, ip
 653              	.LVL75:
 654 039a 09EB0307 		add	r7, r9, r3
 655 039e FB07     		lsls	r3, r7, #31
 656              		.loc 1 55 0
 657 03a0 0592     		str	r2, [sp, #20]
 658              	.LVL76:
 659              	.LBE10:
 660              	.LBE15:
 661              		.loc 1 86 0
 662 03a2 6246     		mov	r2, ip
 663              	.LVL77:
 664 03a4 0BD5     		bpl	.L35
 665              	.LVL78:
 666              	.LBB16:
 667              	.LBB11:
 668              		.loc 1 57 0
 669 03a6 6246     		mov	r2, ip
 670 03a8 02F8016B 		strb	r6, [r2], #1
 671              	.LVL79:
 672              		.loc 1 58 0
 673 03ac 11F8016F 		ldrb	r6, [r1, #1]!	@ zero_extendqisi2
 674 03b0 05E0     		b	.L35
 675              	.L126:
 676 03b2 4F78     		ldrb	r7, [r1, #1]	@ zero_extendqisi2
 677              	.LVL80:
 678 03b4 4E1C     		adds	r6, r1, #1
 679              		.loc 1 57 0
 680 03b6 5770     		strb	r7, [r2, #1]
 681              		.loc 1 58 0
 682 03b8 7678     		ldrb	r6, [r6, #1]	@ zero_extendqisi2
 683 03ba 0231     		adds	r1, r1, #2
 684              		.loc 1 57 0
ARM GAS  C:\Users\z80\AppData\Local\Temp\ccKDl7lk.s 			page 13


 685 03bc 5A1C     		adds	r2, r3, #1
 686              	.LVL81:
 687              	.L35:
 688 03be 1346     		mov	r3, r2
 689 03c0 03F8016B 		strb	r6, [r3], #1
 690              		.loc 1 58 0
 691 03c4 4B45     		cmp	r3, r9
 692 03c6 F4D1     		bne	.L126
 693              	.LVL82:
 694              		.loc 1 176 0
 695 03c8 0599     		ldr	r1, [sp, #20]
 696              	.LBE11:
 697              	.LBE16:
 698              		.loc 1 106 0
 699 03ca 5F46     		mov	r7, fp
 700              	.LBB17:
 701              	.LBB12:
 702              		.loc 1 176 0
 703 03cc 8C44     		add	ip, ip, r1
 704              		.loc 1 58 0
 705 03ce CBEB0C09 		rsb	r9, fp, ip
 706              	.LBE12:
 707              	.LBE17:
 708              		.loc 1 177 0
 709 03d2 75E7     		b	.L25
 710              	.LVL83:
 711              	.L17:
 712              		.loc 1 197 0
 713 03d4 8DF81830 		strb	r3, [sp, #24]
 714              	.LVL84:
 715 03d8 DDF81090 		ldr	r9, [sp, #16]
 716              		.loc 1 106 0
 717 03dc 5F46     		mov	r7, fp
 718              		.loc 1 198 0
 719 03de 6FE7     		b	.L25
 720              	.LVL85:
 721              	.L52:
 722              		.loc 1 152 0
 723 03e0 0A27     		movs	r7, #10
 724              	.L20:
 725              	.LVL86:
 726              		.loc 1 191 0
 727 03e2 099B     		ldr	r3, [sp, #36]
 728              		.loc 1 190 0
 729 03e4 002A     		cmp	r2, #0
 730 03e6 39D0     		beq	.L36
 731              	.L128:
 732              		.loc 1 191 0
 733 03e8 1A1D     		adds	r2, r3, #4
 734              	.LVL87:
 735 03ea 1B68     		ldr	r3, [r3, #0]
 736              	.LVL88:
 737 03ec 0992     		str	r2, [sp, #36]
 738              	.LVL89:
 739              	.L37:
 740              		.loc 1 193 0
 741 03ee 0DF12201 		add	r1, sp, #34
ARM GAS  C:\Users\z80\AppData\Local\Temp\ccKDl7lk.s 			page 14


 742              	.LVL90:
 743              	.L39:
 744              	.LBB18:
 745              	.LBB19:
 746              		.loc 1 48 0
 747 03f2 B3FBF7FC 		udiv	ip, r3, r7
 748 03f6 07FB1C39 		mls	r9, r7, ip, r3
 749              	.LVL91:
 750              		.loc 1 49 0
 751 03fa 09F13006 		add	r6, r9, #48
 752              	.LVL92:
 753              		.loc 1 50 0
 754 03fe 392E     		cmp	r6, #57
 755              		.loc 1 51 0
 756 0400 C8BF     		it	gt
 757 0402 09F13706 		addgt	r6, r9, #55
 758              	.LVL93:
 759              		.loc 1 53 0
 760 0406 6346     		mov	r3, ip
 761              	.LVL94:
 762              		.loc 1 52 0
 763 0408 0A46     		mov	r2, r1
 764              	.LVL95:
 765 040a 01F80169 		strb	r6, [r1], #-1
 766              	.LVL96:
 767              		.loc 1 53 0
 768 040e 002B     		cmp	r3, #0
 769 0410 EFD1     		bne	.L39
 770              		.loc 1 55 0
 771 0412 0DF12301 		add	r1, sp, #35
 772 0416 C2EB0109 		rsb	r9, r2, r1
 773              	.LVL97:
 774 041a 6FEA0B07 		mvn	r7, fp
 775              	.LVL98:
 776              		.loc 1 86 0
 777 041e 0BEB090C 		add	ip, fp, r9
 778              	.LVL99:
 779 0422 0CEB0703 		add	r3, ip, r7
 780              	.LVL100:
 781 0426 DF07     		lsls	r7, r3, #31
 782              	.LBE19:
 783              	.LBE18:
 784              		.loc 1 105 0
 785 0428 5946     		mov	r1, fp
 786 042a 0CD5     		bpl	.L41
 787              	.LVL101:
 788              	.LBB21:
 789              	.LBB20:
 790              		.loc 1 57 0
 791 042c 8BF80060 		strb	r6, [fp, #0]
 792 0430 0DF11901 		add	r1, sp, #25
 793              	.LVL102:
 794              		.loc 1 58 0
 795 0434 12F8016F 		ldrb	r6, [r2, #1]!	@ zero_extendqisi2
 796 0438 05E0     		b	.L41
 797              	.LVL103:
 798              	.L127:
ARM GAS  C:\Users\z80\AppData\Local\Temp\ccKDl7lk.s 			page 15


 799 043a 5778     		ldrb	r7, [r2, #1]	@ zero_extendqisi2
 800              	.LVL104:
 801 043c 561C     		adds	r6, r2, #1
 802              		.loc 1 57 0
 803 043e 4F70     		strb	r7, [r1, #1]
 804              		.loc 1 58 0
 805 0440 7678     		ldrb	r6, [r6, #1]	@ zero_extendqisi2
 806 0442 0232     		adds	r2, r2, #2
 807              		.loc 1 57 0
 808 0444 591C     		adds	r1, r3, #1
 809              	.LVL105:
 810              	.L41:
 811 0446 0B46     		mov	r3, r1
 812 0448 03F8016B 		strb	r6, [r3], #1
 813              		.loc 1 58 0
 814 044c 6345     		cmp	r3, ip
 815 044e F4D1     		bne	.L127
 816              	.LBE20:
 817              	.LBE21:
 818              		.loc 1 106 0
 819 0450 5F46     		mov	r7, fp
 820 0452 35E7     		b	.L25
 821              	.LVL106:
 822              	.L19:
 823 0454 0827     		movs	r7, #8
 824              	.LVL107:
 825              		.loc 1 191 0
 826 0456 099B     		ldr	r3, [sp, #36]
 827              		.loc 1 190 0
 828 0458 002A     		cmp	r2, #0
 829 045a C5D1     		bne	.L128
 830              	.L36:
 831              		.loc 1 193 0
 832 045c 1E1D     		adds	r6, r3, #4
 833              	.LVL108:
 834 045e 1B68     		ldr	r3, [r3, #0]
 835              	.LVL109:
 836 0460 0996     		str	r6, [sp, #36]
 837 0462 C4E7     		b	.L37
 838              	.LVL110:
 839              	.L21:
 840              		.loc 1 152 0
 841 0464 1027     		movs	r7, #16
 842 0466 BCE7     		b	.L20
 843              	.LVL111:
 844              	.L15:
 845              		.loc 1 149 0
 846 0468 A3F14101 		sub	r1, r3, #65
 847 046c CAB2     		uxtb	r2, r1
 848 046e 192A     		cmp	r2, #25
 849 0470 8CBF     		ite	hi
 850 0472 0022     		movhi	r2, #0
 851 0474 0122     		movls	r2, #1
 852              	.LVL112:
 853 0476 2CE6     		b	.L16
 854              	.LVL113:
 855              	.L121:
ARM GAS  C:\Users\z80\AppData\Local\Temp\ccKDl7lk.s 			page 16


 856              		.loc 1 134 0
 857 0478 0992     		str	r2, [sp, #36]
 858 047a 17E6     		b	.L11
 859              	.LVL114:
 860              	.L119:
 861              		.loc 1 109 0
 862 047c A61C     		adds	r6, r4, #2
 863              	.LVL115:
 864 047e A378     		ldrb	r3, [r4, #2]	@ zero_extendqisi2
 865              		.loc 1 110 0
 866 0480 0120     		movs	r0, #1
 867 0482 F2E5     		b	.L6
 868              	.LVL116:
 869              	.L51:
 870              		.loc 1 144 0
 871 0484 0122     		movs	r2, #1
 872 0486 24E6     		b	.L16
 873              	.LVL117:
 874              	.L124:
 875              		.loc 1 169 0
 876 0488 191D     		adds	r1, r3, #4
 877 048a 1B68     		ldr	r3, [r3, #0]
 878              	.LVL118:
 879 048c 0991     		str	r1, [sp, #36]
 880              		.loc 1 172 0
 881 048e 002B     		cmp	r3, #0
 882              		.loc 1 105 0
 883 0490 A8BF     		it	ge
 884 0492 DC46     		movge	ip, fp
 885              		.loc 1 172 0
 886 0494 BFF669AF 		bge	.L32
 887              	.LVL119:
 888              	.L125:
 889              		.loc 1 173 0
 890 0498 2D26     		movs	r6, #45
 891              	.LVL120:
 892 049a 8DF81860 		strb	r6, [sp, #24]
 893              	.LVL121:
 894              		.loc 1 174 0
 895 049e 5B42     		negs	r3, r3
 896              	.LVL122:
 897              		.loc 1 173 0
 898 04a0 0DF1190C 		add	ip, sp, #25
 899 04a4 61E7     		b	.L32
 900              	.LVL123:
 901              	.L123:
 902              		.loc 1 207 0
 903 04a6 2968     		ldr	r1, [r5, #0]
 904 04a8 2846     		mov	r0, r5
 905 04aa 0E69     		ldr	r6, [r1, #16]
 906 04ac 4FF0FF32 		mov	r2, #-1
 907 04b0 2D21     		movs	r1, #45
 908 04b2 B047     		blx	r6
 909 04b4 0137     		adds	r7, r7, #1
 910              	.LVL124:
 911              		.loc 1 208 0
 912 04b6 09F1FF39 		add	r9, r9, #-1
ARM GAS  C:\Users\z80\AppData\Local\Temp\ccKDl7lk.s 			page 17


 913              	.LVL125:
 914 04ba 1BE7     		b	.L44
 915              		.cfi_endproc
 916              	.LFE8:
 917              		.size	chprintf, .-chprintf
 918 04bc AFF30080 		.section	.rodata.str1.4,"aMS",%progbits,1
 919              		.align	2
 920              	.LC0:
 921 0000 286E756C 		.ascii	"(null)\000"
 921      6C2900
 922 0007 00       		.text
 923              	.Letext0:
 924              		.file 2 "c:\\programs\\codesourcery\\2011.03-56\\bin\\../lib/gcc/arm-none-eabi/4.6.3/include/stdar
 925              		.file 3 "c:\\programs\\codesourcery\\2011.03-56\\bin\\../lib/gcc/arm-none-eabi/4.6.3/include/stdde
 926              		.file 4 "c:\\programs\\codesourcery\\2011.03-56\\bin\\../lib/gcc/arm-none-eabi/4.6.3/../../../../a
 927              		.file 5 "../chibios_2.4.x/os/ports/GCC/ARMCMx/chtypes.h"
 928              		.file 6 "<built-in>"
 929              		.file 7 "../chibios_2.4.x/os/kernel/include/chioch.h"