ARM GAS  C:\Users\z80\AppData\Local\Temp\ccwXiAvJ.s 			page 1


   1              		.syntax unified
   2              		.cpu cortex-m3
   3              		.fpu softvfp
   4              		.eabi_attribute 20, 1
   5              		.eabi_attribute 21, 1
   6              		.eabi_attribute 23, 3
   7              		.eabi_attribute 24, 1
   8              		.eabi_attribute 25, 1
   9              		.eabi_attribute 26, 1
  10              		.eabi_attribute 30, 6
  11              		.eabi_attribute 34, 1
  12              		.eabi_attribute 18, 4
  13              		.thumb
  14              		.file	"chqueues.c"
  15              		.text
  16              	.Ltext0:
  17              		.cfi_sections	.debug_frame
  18              		.section	.text.queue_insert,"ax",%progbits
  19              		.align	2
  20              		.p2align 4,,15
  21              		.thumb
  22              		.thumb_func
  23              		.type	queue_insert, %function
  24              	queue_insert:
  25              	.LFB1:
  26              		.file 1 "../chibios_2.4.x/os/kernel/include/chinline.h"
  27              		.loc 1 52 0
  28              		.cfi_startproc
  29              		@ args = 0, pretend = 0, frame = 8
  30              		@ frame_needed = 0, uses_anonymous_args = 0
  31              		@ link register save eliminated.
  32 0000 82B0     		sub	sp, sp, #8
  33              	.LCFI0:
  34              		.cfi_def_cfa_offset 8
  35 0002 0190     		str	r0, [sp, #4]
  36 0004 0091     		str	r1, [sp, #0]
  37              		.loc 1 54 0
  38 0006 019B     		ldr	r3, [sp, #4]
  39 0008 009A     		ldr	r2, [sp, #0]
  40 000a 1A60     		str	r2, [r3, #0]
  41              		.loc 1 55 0
  42 000c 009B     		ldr	r3, [sp, #0]
  43 000e 5A68     		ldr	r2, [r3, #4]
  44 0010 019B     		ldr	r3, [sp, #4]
  45 0012 5A60     		str	r2, [r3, #4]
  46              		.loc 1 56 0
  47 0014 019B     		ldr	r3, [sp, #4]
  48 0016 5B68     		ldr	r3, [r3, #4]
  49 0018 009A     		ldr	r2, [sp, #0]
  50 001a 0199     		ldr	r1, [sp, #4]
  51 001c 5160     		str	r1, [r2, #4]
  52 001e 009A     		ldr	r2, [sp, #0]
  53 0020 5268     		ldr	r2, [r2, #4]
  54 0022 1A60     		str	r2, [r3, #0]
  55              		.loc 1 57 0
  56 0024 02B0     		add	sp, sp, #8
  57 0026 7047     		bx	lr
ARM GAS  C:\Users\z80\AppData\Local\Temp\ccwXiAvJ.s 			page 2


  58              		.cfi_endproc
  59              	.LFE1:
  60              		.size	queue_insert, .-queue_insert
  61 0028 AFF30080 		.section	.text.fifo_remove,"ax",%progbits
  61      AFF30080 
  62              		.align	2
  63              		.p2align 4,,15
  64              		.thumb
  65              		.thumb_func
  66              		.type	fifo_remove, %function
  67              	fifo_remove:
  68              	.LFB2:
  69              		.loc 1 59 0
  70              		.cfi_startproc
  71              		@ args = 0, pretend = 0, frame = 16
  72              		@ frame_needed = 0, uses_anonymous_args = 0
  73              		@ link register save eliminated.
  74 0000 84B0     		sub	sp, sp, #16
  75              	.LCFI1:
  76              		.cfi_def_cfa_offset 16
  77 0002 0190     		str	r0, [sp, #4]
  78              		.loc 1 60 0
  79 0004 019B     		ldr	r3, [sp, #4]
  80 0006 1B68     		ldr	r3, [r3, #0]
  81 0008 0393     		str	r3, [sp, #12]
  82              		.loc 1 62 0
  83 000a 039B     		ldr	r3, [sp, #12]
  84 000c 1A68     		ldr	r2, [r3, #0]
  85 000e 019B     		ldr	r3, [sp, #4]
  86 0010 1A60     		str	r2, [r3, #0]
  87 0012 019B     		ldr	r3, [sp, #4]
  88 0014 1B68     		ldr	r3, [r3, #0]
  89 0016 019A     		ldr	r2, [sp, #4]
  90 0018 5A60     		str	r2, [r3, #4]
  91              		.loc 1 63 0
  92 001a 039B     		ldr	r3, [sp, #12]
  93              		.loc 1 64 0
  94 001c 1846     		mov	r0, r3
  95 001e 04B0     		add	sp, sp, #16
  96 0020 7047     		bx	lr
  97              		.cfi_endproc
  98              	.LFE2:
  99              		.size	fifo_remove, .-fifo_remove
 100 0022 00BFAFF3 		.section	.text.qwait,"ax",%progbits
 100      0080AFF3 
 100      0080AFF3 
 100      0080
 101              		.align	2
 102              		.p2align 4,,15
 103              		.thumb
 104              		.thumb_func
 105              		.type	qwait, %function
 106              	qwait:
 107              	.LFB7:
 108              		.file 2 "../chibios_2.4.x/os/kernel/src/chqueues.c"
 109              		.loc 2 72 0
 110              		.cfi_startproc
ARM GAS  C:\Users\z80\AppData\Local\Temp\ccwXiAvJ.s 			page 3


 111              		@ args = 0, pretend = 0, frame = 8
 112              		@ frame_needed = 0, uses_anonymous_args = 0
 113 0000 00B5     		push	{lr}
 114              	.LCFI2:
 115              		.cfi_def_cfa_offset 4
 116              		.cfi_offset 14, -4
 117 0002 83B0     		sub	sp, sp, #12
 118              	.LCFI3:
 119              		.cfi_def_cfa_offset 16
 120 0004 0190     		str	r0, [sp, #4]
 121 0006 0091     		str	r1, [sp, #0]
 122              		.loc 2 74 0
 123 0008 009B     		ldr	r3, [sp, #0]
 124 000a 002B     		cmp	r3, #0
 125 000c 02D1     		bne	.L4
 126              		.loc 2 75 0
 127 000e 4FF0FF33 		mov	r3, #-1
 128 0012 16E0     		b	.L5
 129              	.L4:
 130              		.loc 2 76 0
 131 0014 40F20003 		movw	r3, #:lower16:rlist
 132 0018 C0F20003 		movt	r3, #:upper16:rlist
 133 001c DB69     		ldr	r3, [r3, #28]
 134 001e 019A     		ldr	r2, [sp, #4]
 135 0020 9A62     		str	r2, [r3, #40]
 136              		.loc 2 77 0
 137 0022 40F20003 		movw	r3, #:lower16:rlist
 138 0026 C0F20003 		movt	r3, #:upper16:rlist
 139 002a DA69     		ldr	r2, [r3, #28]
 140 002c 019B     		ldr	r3, [sp, #4]
 141 002e 1046     		mov	r0, r2
 142 0030 1946     		mov	r1, r3
 143 0032 FFF7FEFF 		bl	queue_insert
 144              		.loc 2 78 0
 145 0036 4FF00D00 		mov	r0, #13
 146 003a 0099     		ldr	r1, [sp, #0]
 147 003c FFF7FEFF 		bl	chSchGoSleepTimeoutS
 148 0040 0346     		mov	r3, r0
 149              	.L5:
 150              		.loc 2 79 0
 151 0042 1846     		mov	r0, r3
 152 0044 03B0     		add	sp, sp, #12
 153 0046 00BD     		pop	{pc}
 154              		.cfi_endproc
 155              	.LFE7:
 156              		.size	qwait, .-qwait
 157 0048 AFF30080 		.section	.text.chIQInit,"ax",%progbits
 157      AFF30080 
 158              		.align	2
 159              		.p2align 4,,15
 160              		.global	chIQInit
 161              		.thumb
 162              		.thumb_func
 163              		.type	chIQInit, %function
 164              	chIQInit:
 165              	.LFB8:
 166              		.loc 2 96 0
ARM GAS  C:\Users\z80\AppData\Local\Temp\ccwXiAvJ.s 			page 4


 167              		.cfi_startproc
 168              		@ args = 0, pretend = 0, frame = 16
 169              		@ frame_needed = 0, uses_anonymous_args = 0
 170              		@ link register save eliminated.
 171 0000 84B0     		sub	sp, sp, #16
 172              	.LCFI4:
 173              		.cfi_def_cfa_offset 16
 174 0002 0390     		str	r0, [sp, #12]
 175 0004 0291     		str	r1, [sp, #8]
 176 0006 0192     		str	r2, [sp, #4]
 177 0008 0093     		str	r3, [sp, #0]
 178              		.loc 2 98 0
 179 000a 039A     		ldr	r2, [sp, #12]
 180 000c 039B     		ldr	r3, [sp, #12]
 181 000e 5A60     		str	r2, [r3, #4]
 182 0010 039B     		ldr	r3, [sp, #12]
 183 0012 5A68     		ldr	r2, [r3, #4]
 184 0014 039B     		ldr	r3, [sp, #12]
 185 0016 1A60     		str	r2, [r3, #0]
 186              		.loc 2 99 0
 187 0018 039B     		ldr	r3, [sp, #12]
 188 001a 4FF00002 		mov	r2, #0
 189 001e 9A60     		str	r2, [r3, #8]
 190              		.loc 2 100 0
 191 0020 039B     		ldr	r3, [sp, #12]
 192 0022 029A     		ldr	r2, [sp, #8]
 193 0024 5A61     		str	r2, [r3, #20]
 194 0026 039B     		ldr	r3, [sp, #12]
 195 0028 5A69     		ldr	r2, [r3, #20]
 196 002a 039B     		ldr	r3, [sp, #12]
 197 002c 9A61     		str	r2, [r3, #24]
 198 002e 039B     		ldr	r3, [sp, #12]
 199 0030 9A69     		ldr	r2, [r3, #24]
 200 0032 039B     		ldr	r3, [sp, #12]
 201 0034 DA60     		str	r2, [r3, #12]
 202              		.loc 2 101 0
 203 0036 029A     		ldr	r2, [sp, #8]
 204 0038 019B     		ldr	r3, [sp, #4]
 205 003a D218     		adds	r2, r2, r3
 206 003c 039B     		ldr	r3, [sp, #12]
 207 003e 1A61     		str	r2, [r3, #16]
 208              		.loc 2 102 0
 209 0040 039B     		ldr	r3, [sp, #12]
 210 0042 009A     		ldr	r2, [sp, #0]
 211 0044 DA61     		str	r2, [r3, #28]
 212              		.loc 2 103 0
 213 0046 04B0     		add	sp, sp, #16
 214 0048 7047     		bx	lr
 215              		.cfi_endproc
 216              	.LFE8:
 217              		.size	chIQInit, .-chIQInit
 218 004a 00BFAFF3 		.section	.text.chIQResetI,"ax",%progbits
 218      0080
 219              		.align	2
 220              		.p2align 4,,15
 221              		.global	chIQResetI
 222              		.thumb
ARM GAS  C:\Users\z80\AppData\Local\Temp\ccwXiAvJ.s 			page 5


 223              		.thumb_func
 224              		.type	chIQResetI, %function
 225              	chIQResetI:
 226              	.LFB9:
 227              		.loc 2 116 0
 228              		.cfi_startproc
 229              		@ args = 0, pretend = 0, frame = 8
 230              		@ frame_needed = 0, uses_anonymous_args = 0
 231 0000 00B5     		push	{lr}
 232              	.LCFI5:
 233              		.cfi_def_cfa_offset 4
 234              		.cfi_offset 14, -4
 235 0002 83B0     		sub	sp, sp, #12
 236              	.LCFI6:
 237              		.cfi_def_cfa_offset 16
 238 0004 0190     		str	r0, [sp, #4]
 239              		.loc 2 118 0
 240 0006 FFF7FEFF 		bl	chDbgCheckClassI
 241              		.loc 2 120 0
 242 000a 019B     		ldr	r3, [sp, #4]
 243 000c DA68     		ldr	r2, [r3, #12]
 244 000e 019B     		ldr	r3, [sp, #4]
 245 0010 5A61     		str	r2, [r3, #20]
 246 0012 019B     		ldr	r3, [sp, #4]
 247 0014 5A69     		ldr	r2, [r3, #20]
 248 0016 019B     		ldr	r3, [sp, #4]
 249 0018 9A61     		str	r2, [r3, #24]
 250              		.loc 2 121 0
 251 001a 019B     		ldr	r3, [sp, #4]
 252 001c 4FF00002 		mov	r2, #0
 253 0020 9A60     		str	r2, [r3, #8]
 254              		.loc 2 122 0
 255 0022 0BE0     		b	.L8
 256              	.L9:
 257              		.loc 2 123 0
 258 0024 019B     		ldr	r3, [sp, #4]
 259 0026 1846     		mov	r0, r3
 260 0028 FFF7FEFF 		bl	fifo_remove
 261 002c 0346     		mov	r3, r0
 262 002e 1846     		mov	r0, r3
 263 0030 FFF7FEFF 		bl	chSchReadyI
 264 0034 0346     		mov	r3, r0
 265 0036 6FF00102 		mvn	r2, #1
 266 003a 9A62     		str	r2, [r3, #40]
 267              	.L8:
 268              		.loc 2 122 0 discriminator 1
 269 003c 019B     		ldr	r3, [sp, #4]
 270 003e 1A68     		ldr	r2, [r3, #0]
 271 0040 019B     		ldr	r3, [sp, #4]
 272 0042 9A42     		cmp	r2, r3
 273 0044 EED1     		bne	.L9
 274              		.loc 2 124 0
 275 0046 03B0     		add	sp, sp, #12
 276 0048 00BD     		pop	{pc}
 277              		.cfi_endproc
 278              	.LFE9:
 279              		.size	chIQResetI, .-chIQResetI
ARM GAS  C:\Users\z80\AppData\Local\Temp\ccwXiAvJ.s 			page 6


 280 004a 00BFAFF3 		.section	.text.chIQPutI,"ax",%progbits
 280      0080
 281              		.align	2
 282              		.p2align 4,,15
 283              		.global	chIQPutI
 284              		.thumb
 285              		.thumb_func
 286              		.type	chIQPutI, %function
 287              	chIQPutI:
 288              	.LFB10:
 289              		.loc 2 139 0
 290              		.cfi_startproc
 291              		@ args = 0, pretend = 0, frame = 8
 292              		@ frame_needed = 0, uses_anonymous_args = 0
 293 0000 00B5     		push	{lr}
 294              	.LCFI7:
 295              		.cfi_def_cfa_offset 4
 296              		.cfi_offset 14, -4
 297 0002 83B0     		sub	sp, sp, #12
 298              	.LCFI8:
 299              		.cfi_def_cfa_offset 16
 300 0004 0190     		str	r0, [sp, #4]
 301 0006 0B46     		mov	r3, r1
 302 0008 8DF80330 		strb	r3, [sp, #3]
 303              		.loc 2 141 0
 304 000c FFF7FEFF 		bl	chDbgCheckClassI
 305              		.loc 2 143 0
 306 0010 019B     		ldr	r3, [sp, #4]
 307 0012 5A69     		ldr	r2, [r3, #20]
 308 0014 019B     		ldr	r3, [sp, #4]
 309 0016 9B69     		ldr	r3, [r3, #24]
 310 0018 9A42     		cmp	r2, r3
 311 001a 06D1     		bne	.L11
 312              		.loc 2 143 0 is_stmt 0 discriminator 1
 313 001c 019B     		ldr	r3, [sp, #4]
 314 001e 9B68     		ldr	r3, [r3, #8]
 315 0020 002B     		cmp	r3, #0
 316 0022 02D0     		beq	.L11
 317              		.loc 2 144 0 is_stmt 1
 318 0024 6FF00303 		mvn	r3, #3
 319 0028 2BE0     		b	.L12
 320              	.L11:
 321              		.loc 2 146 0
 322 002a 019B     		ldr	r3, [sp, #4]
 323 002c 9B68     		ldr	r3, [r3, #8]
 324 002e 03F10102 		add	r2, r3, #1
 325 0032 019B     		ldr	r3, [sp, #4]
 326 0034 9A60     		str	r2, [r3, #8]
 327              		.loc 2 147 0
 328 0036 019B     		ldr	r3, [sp, #4]
 329 0038 5B69     		ldr	r3, [r3, #20]
 330 003a 9DF80320 		ldrb	r2, [sp, #3]
 331 003e 1A70     		strb	r2, [r3, #0]
 332 0040 03F10102 		add	r2, r3, #1
 333 0044 019B     		ldr	r3, [sp, #4]
 334 0046 5A61     		str	r2, [r3, #20]
 335              		.loc 2 148 0
ARM GAS  C:\Users\z80\AppData\Local\Temp\ccwXiAvJ.s 			page 7


 336 0048 019B     		ldr	r3, [sp, #4]
 337 004a 5A69     		ldr	r2, [r3, #20]
 338 004c 019B     		ldr	r3, [sp, #4]
 339 004e 1B69     		ldr	r3, [r3, #16]
 340 0050 9A42     		cmp	r2, r3
 341 0052 03D3     		bcc	.L13
 342              		.loc 2 149 0
 343 0054 019B     		ldr	r3, [sp, #4]
 344 0056 DA68     		ldr	r2, [r3, #12]
 345 0058 019B     		ldr	r3, [sp, #4]
 346 005a 5A61     		str	r2, [r3, #20]
 347              	.L13:
 348              		.loc 2 151 0
 349 005c 019B     		ldr	r3, [sp, #4]
 350 005e 1A68     		ldr	r2, [r3, #0]
 351 0060 019B     		ldr	r3, [sp, #4]
 352 0062 9A42     		cmp	r2, r3
 353 0064 0BD0     		beq	.L14
 354              		.loc 2 152 0
 355 0066 019B     		ldr	r3, [sp, #4]
 356 0068 1846     		mov	r0, r3
 357 006a FFF7FEFF 		bl	fifo_remove
 358 006e 0346     		mov	r3, r0
 359 0070 1846     		mov	r0, r3
 360 0072 FFF7FEFF 		bl	chSchReadyI
 361 0076 0346     		mov	r3, r0
 362 0078 4FF00002 		mov	r2, #0
 363 007c 9A62     		str	r2, [r3, #40]
 364              	.L14:
 365              		.loc 2 154 0
 366 007e 4FF00003 		mov	r3, #0
 367              	.L12:
 368              		.loc 2 155 0
 369 0082 1846     		mov	r0, r3
 370 0084 03B0     		add	sp, sp, #12
 371 0086 00BD     		pop	{pc}
 372              		.cfi_endproc
 373              	.LFE10:
 374              		.size	chIQPutI, .-chIQPutI
 375 0088 AFF30080 		.section	.text.chIQGetTimeout,"ax",%progbits
 375      AFF30080 
 376              		.align	2
 377              		.p2align 4,,15
 378              		.global	chIQGetTimeout
 379              		.thumb
 380              		.thumb_func
 381              		.type	chIQGetTimeout, %function
 382              	chIQGetTimeout:
 383              	.LFB11:
 384              		.loc 2 177 0
 385              		.cfi_startproc
 386              		@ args = 0, pretend = 0, frame = 16
 387              		@ frame_needed = 0, uses_anonymous_args = 0
 388 0000 00B5     		push	{lr}
 389              	.LCFI9:
 390              		.cfi_def_cfa_offset 4
 391              		.cfi_offset 14, -4
ARM GAS  C:\Users\z80\AppData\Local\Temp\ccwXiAvJ.s 			page 8


 392 0002 85B0     		sub	sp, sp, #20
 393              	.LCFI10:
 394              		.cfi_def_cfa_offset 24
 395 0004 0190     		str	r0, [sp, #4]
 396 0006 0091     		str	r1, [sp, #0]
 397              	.LBB2:
 398              		.loc 2 180 0
 399 0008 4FF02003 		mov	r3, #32
 400              	@ 180 "../chibios_2.4.x/os/kernel/src/chqueues.c" 1
 401 000c 83F31188 		msr     BASEPRI, r3
 402              	@ 0 "" 2
 403              		.thumb
 404              	.LBE2:
 405 0010 FFF7FEFF 		bl	dbg_check_lock
 406              		.loc 2 181 0
 407 0014 019B     		ldr	r3, [sp, #4]
 408 0016 DB69     		ldr	r3, [r3, #28]
 409 0018 002B     		cmp	r3, #0
 410 001a 14D0     		beq	.L21
 411              		.loc 2 182 0
 412 001c 019B     		ldr	r3, [sp, #4]
 413 001e DB69     		ldr	r3, [r3, #28]
 414 0020 0198     		ldr	r0, [sp, #4]
 415 0022 9847     		blx	r3
 416              		.loc 2 184 0
 417 0024 0FE0     		b	.L21
 418              	.L19:
 419              	.LBB3:
 420              		.loc 2 186 0
 421 0026 0198     		ldr	r0, [sp, #4]
 422 0028 0099     		ldr	r1, [sp, #0]
 423 002a FFF7FEFF 		bl	qwait
 424 002e 0390     		str	r0, [sp, #12]
 425 0030 039B     		ldr	r3, [sp, #12]
 426 0032 002B     		cmp	r3, #0
 427 0034 08DA     		bge	.L17
 428              		.loc 2 187 0
 429 0036 FFF7FEFF 		bl	dbg_check_unlock
 430              	.LBB4:
 431 003a 4FF00003 		mov	r3, #0
 432              	@ 187 "../chibios_2.4.x/os/kernel/src/chqueues.c" 1
 433 003e 83F31188 		msr     BASEPRI, r3
 434              	@ 0 "" 2
 435              		.thumb
 436              	.LBE4:
 437              		.loc 2 188 0
 438 0042 039B     		ldr	r3, [sp, #12]
 439 0044 25E0     		b	.L18
 440              	.L21:
 441              	.LBE3:
 442              		.loc 2 184 0
 443 0046 00BF     		nop
 444              	.L17:
 445              		.loc 2 184 0 is_stmt 0 discriminator 1
 446 0048 019B     		ldr	r3, [sp, #4]
 447 004a 9B68     		ldr	r3, [r3, #8]
 448 004c 002B     		cmp	r3, #0
ARM GAS  C:\Users\z80\AppData\Local\Temp\ccwXiAvJ.s 			page 9


 449 004e EAD0     		beq	.L19
 450              		.loc 2 192 0 is_stmt 1
 451 0050 019B     		ldr	r3, [sp, #4]
 452 0052 9B68     		ldr	r3, [r3, #8]
 453 0054 03F1FF32 		add	r2, r3, #-1
 454 0058 019B     		ldr	r3, [sp, #4]
 455 005a 9A60     		str	r2, [r3, #8]
 456              		.loc 2 193 0
 457 005c 019B     		ldr	r3, [sp, #4]
 458 005e 9B69     		ldr	r3, [r3, #24]
 459 0060 1A78     		ldrb	r2, [r3, #0]
 460 0062 8DF80B20 		strb	r2, [sp, #11]
 461 0066 03F10102 		add	r2, r3, #1
 462 006a 019B     		ldr	r3, [sp, #4]
 463 006c 9A61     		str	r2, [r3, #24]
 464              		.loc 2 194 0
 465 006e 019B     		ldr	r3, [sp, #4]
 466 0070 9A69     		ldr	r2, [r3, #24]
 467 0072 019B     		ldr	r3, [sp, #4]
 468 0074 1B69     		ldr	r3, [r3, #16]
 469 0076 9A42     		cmp	r2, r3
 470 0078 03D3     		bcc	.L20
 471              		.loc 2 195 0
 472 007a 019B     		ldr	r3, [sp, #4]
 473 007c DA68     		ldr	r2, [r3, #12]
 474 007e 019B     		ldr	r3, [sp, #4]
 475 0080 9A61     		str	r2, [r3, #24]
 476              	.L20:
 477              		.loc 2 197 0
 478 0082 FFF7FEFF 		bl	dbg_check_unlock
 479              	.LBB5:
 480 0086 4FF00003 		mov	r3, #0
 481              	@ 197 "../chibios_2.4.x/os/kernel/src/chqueues.c" 1
 482 008a 83F31188 		msr     BASEPRI, r3
 483              	@ 0 "" 2
 484              		.thumb
 485              	.LBE5:
 486              		.loc 2 198 0
 487 008e 9DF80B30 		ldrb	r3, [sp, #11]	@ zero_extendqisi2
 488              	.L18:
 489              		.loc 2 199 0
 490 0092 1846     		mov	r0, r3
 491 0094 05B0     		add	sp, sp, #20
 492 0096 00BD     		pop	{pc}
 493              		.cfi_endproc
 494              	.LFE11:
 495              		.size	chIQGetTimeout, .-chIQGetTimeout
 496 0098 AFF30080 		.section	.rodata
 496      AFF30080 
 497              		.align	2
 498              	.LC0:
 499 0000 22636849 		.ascii	"\"chIQReadTimeout\"()\000"
 499      51526561 
 499      6454696D 
 499      656F7574 
 499      22282900 
 500              		.section	.text.chIQReadTimeout,"ax",%progbits
ARM GAS  C:\Users\z80\AppData\Local\Temp\ccwXiAvJ.s 			page 10


 501              		.align	2
 502              		.p2align 4,,15
 503              		.global	chIQReadTimeout
 504              		.thumb
 505              		.thumb_func
 506              		.type	chIQReadTimeout, %function
 507              	chIQReadTimeout:
 508              	.LFB12:
 509              		.loc 2 226 0
 510              		.cfi_startproc
 511              		@ args = 0, pretend = 0, frame = 24
 512              		@ frame_needed = 0, uses_anonymous_args = 0
 513 0000 00B5     		push	{lr}
 514              	.LCFI11:
 515              		.cfi_def_cfa_offset 4
 516              		.cfi_offset 14, -4
 517 0002 87B0     		sub	sp, sp, #28
 518              	.LCFI12:
 519              		.cfi_def_cfa_offset 32
 520 0004 0390     		str	r0, [sp, #12]
 521 0006 0291     		str	r1, [sp, #8]
 522 0008 0192     		str	r2, [sp, #4]
 523 000a 0093     		str	r3, [sp, #0]
 524              		.loc 2 227 0
 525 000c 039B     		ldr	r3, [sp, #12]
 526 000e DB69     		ldr	r3, [r3, #28]
 527 0010 0493     		str	r3, [sp, #16]
 528              		.loc 2 228 0
 529 0012 4FF00003 		mov	r3, #0
 530 0016 0593     		str	r3, [sp, #20]
 531              		.loc 2 230 0
 532 0018 019B     		ldr	r3, [sp, #4]
 533 001a 002B     		cmp	r3, #0
 534 001c 05D1     		bne	.L23
 535              		.loc 2 230 0 is_stmt 0 discriminator 1
 536 001e 40F20000 		movw	r0, #:lower16:.LC0
 537 0022 C0F20000 		movt	r0, #:upper16:.LC0
 538 0026 FFF7FEFF 		bl	chDbgPanic
 539              	.L23:
 540              	.LBB6:
 541              		.loc 2 232 0 is_stmt 1
 542 002a 4FF02003 		mov	r3, #32
 543              	@ 232 "../chibios_2.4.x/os/kernel/src/chqueues.c" 1
 544 002e 83F31188 		msr     BASEPRI, r3
 545              	@ 0 "" 2
 546              		.thumb
 547              	.LBE6:
 548 0032 FFF7FEFF 		bl	dbg_check_lock
 549              	.L30:
 550              		.loc 2 234 0
 551 0036 049B     		ldr	r3, [sp, #16]
 552 0038 002B     		cmp	r3, #0
 553 003a 12D0     		beq	.L31
 554              		.loc 2 235 0
 555 003c 049B     		ldr	r3, [sp, #16]
 556 003e 0398     		ldr	r0, [sp, #12]
 557 0040 9847     		blx	r3
ARM GAS  C:\Users\z80\AppData\Local\Temp\ccwXiAvJ.s 			page 11


 558              		.loc 2 237 0
 559 0042 0EE0     		b	.L31
 560              	.L27:
 561              		.loc 2 238 0
 562 0044 0398     		ldr	r0, [sp, #12]
 563 0046 0099     		ldr	r1, [sp, #0]
 564 0048 FFF7FEFF 		bl	qwait
 565 004c 0346     		mov	r3, r0
 566 004e 002B     		cmp	r3, #0
 567 0050 08D0     		beq	.L25
 568              		.loc 2 239 0
 569 0052 FFF7FEFF 		bl	dbg_check_unlock
 570              	.LBB7:
 571 0056 4FF00003 		mov	r3, #0
 572              	@ 239 "../chibios_2.4.x/os/kernel/src/chqueues.c" 1
 573 005a 83F31188 		msr     BASEPRI, r3
 574              	@ 0 "" 2
 575              		.thumb
 576              	.LBE7:
 577              		.loc 2 240 0
 578 005e 059B     		ldr	r3, [sp, #20]
 579 0060 3BE0     		b	.L26
 580              	.L31:
 581              		.loc 2 237 0
 582 0062 00BF     		nop
 583              	.L25:
 584              		.loc 2 237 0 is_stmt 0 discriminator 1
 585 0064 039B     		ldr	r3, [sp, #12]
 586 0066 9B68     		ldr	r3, [r3, #8]
 587 0068 002B     		cmp	r3, #0
 588 006a EBD0     		beq	.L27
 589              		.loc 2 244 0 is_stmt 1
 590 006c 039B     		ldr	r3, [sp, #12]
 591 006e 9B68     		ldr	r3, [r3, #8]
 592 0070 03F1FF32 		add	r2, r3, #-1
 593 0074 039B     		ldr	r3, [sp, #12]
 594 0076 9A60     		str	r2, [r3, #8]
 595              		.loc 2 245 0
 596 0078 039B     		ldr	r3, [sp, #12]
 597 007a 9B69     		ldr	r3, [r3, #24]
 598 007c 1978     		ldrb	r1, [r3, #0]	@ zero_extendqisi2
 599 007e 029A     		ldr	r2, [sp, #8]
 600 0080 1170     		strb	r1, [r2, #0]
 601 0082 029A     		ldr	r2, [sp, #8]
 602 0084 02F10102 		add	r2, r2, #1
 603 0088 0292     		str	r2, [sp, #8]
 604 008a 03F10102 		add	r2, r3, #1
 605 008e 039B     		ldr	r3, [sp, #12]
 606 0090 9A61     		str	r2, [r3, #24]
 607              		.loc 2 246 0
 608 0092 039B     		ldr	r3, [sp, #12]
 609 0094 9A69     		ldr	r2, [r3, #24]
 610 0096 039B     		ldr	r3, [sp, #12]
 611 0098 1B69     		ldr	r3, [r3, #16]
 612 009a 9A42     		cmp	r2, r3
 613 009c 03D3     		bcc	.L28
 614              		.loc 2 247 0
ARM GAS  C:\Users\z80\AppData\Local\Temp\ccwXiAvJ.s 			page 12


 615 009e 039B     		ldr	r3, [sp, #12]
 616 00a0 DA68     		ldr	r2, [r3, #12]
 617 00a2 039B     		ldr	r3, [sp, #12]
 618 00a4 9A61     		str	r2, [r3, #24]
 619              	.L28:
 620              		.loc 2 249 0
 621 00a6 FFF7FEFF 		bl	dbg_check_unlock
 622              	.LBB8:
 623 00aa 4FF00003 		mov	r3, #0
 624              	@ 249 "../chibios_2.4.x/os/kernel/src/chqueues.c" 1
 625 00ae 83F31188 		msr     BASEPRI, r3
 626              	@ 0 "" 2
 627              		.thumb
 628              	.LBE8:
 629              		.loc 2 250 0
 630 00b2 059B     		ldr	r3, [sp, #20]
 631 00b4 03F10103 		add	r3, r3, #1
 632 00b8 0593     		str	r3, [sp, #20]
 633              		.loc 2 251 0
 634 00ba 019B     		ldr	r3, [sp, #4]
 635 00bc 03F1FF33 		add	r3, r3, #-1
 636 00c0 0193     		str	r3, [sp, #4]
 637 00c2 019B     		ldr	r3, [sp, #4]
 638 00c4 002B     		cmp	r3, #0
 639 00c6 01D1     		bne	.L29
 640              		.loc 2 252 0
 641 00c8 059B     		ldr	r3, [sp, #20]
 642 00ca 06E0     		b	.L26
 643              	.L29:
 644              	.LBB9:
 645              		.loc 2 254 0
 646 00cc 4FF02003 		mov	r3, #32
 647              	@ 254 "../chibios_2.4.x/os/kernel/src/chqueues.c" 1
 648 00d0 83F31188 		msr     BASEPRI, r3
 649              	@ 0 "" 2
 650              		.thumb
 651              	.LBE9:
 652 00d4 FFF7FEFF 		bl	dbg_check_lock
 653              		.loc 2 255 0
 654 00d8 ADE7     		b	.L30
 655              	.L26:
 656              		.loc 2 256 0
 657 00da 1846     		mov	r0, r3
 658 00dc 07B0     		add	sp, sp, #28
 659 00de 00BD     		pop	{pc}
 660              		.cfi_endproc
 661              	.LFE12:
 662              		.size	chIQReadTimeout, .-chIQReadTimeout
 663              		.section	.text.chOQInit,"ax",%progbits
 664              		.align	2
 665              		.p2align 4,,15
 666              		.global	chOQInit
 667              		.thumb
 668              		.thumb_func
 669              		.type	chOQInit, %function
 670              	chOQInit:
 671              	.LFB13:
ARM GAS  C:\Users\z80\AppData\Local\Temp\ccwXiAvJ.s 			page 13


 672              		.loc 2 273 0
 673              		.cfi_startproc
 674              		@ args = 0, pretend = 0, frame = 16
 675              		@ frame_needed = 0, uses_anonymous_args = 0
 676              		@ link register save eliminated.
 677 0000 84B0     		sub	sp, sp, #16
 678              	.LCFI13:
 679              		.cfi_def_cfa_offset 16
 680 0002 0390     		str	r0, [sp, #12]
 681 0004 0291     		str	r1, [sp, #8]
 682 0006 0192     		str	r2, [sp, #4]
 683 0008 0093     		str	r3, [sp, #0]
 684              		.loc 2 275 0
 685 000a 039A     		ldr	r2, [sp, #12]
 686 000c 039B     		ldr	r3, [sp, #12]
 687 000e 5A60     		str	r2, [r3, #4]
 688 0010 039B     		ldr	r3, [sp, #12]
 689 0012 5A68     		ldr	r2, [r3, #4]
 690 0014 039B     		ldr	r3, [sp, #12]
 691 0016 1A60     		str	r2, [r3, #0]
 692              		.loc 2 276 0
 693 0018 039B     		ldr	r3, [sp, #12]
 694 001a 019A     		ldr	r2, [sp, #4]
 695 001c 9A60     		str	r2, [r3, #8]
 696              		.loc 2 277 0
 697 001e 039B     		ldr	r3, [sp, #12]
 698 0020 029A     		ldr	r2, [sp, #8]
 699 0022 5A61     		str	r2, [r3, #20]
 700 0024 039B     		ldr	r3, [sp, #12]
 701 0026 5A69     		ldr	r2, [r3, #20]
 702 0028 039B     		ldr	r3, [sp, #12]
 703 002a 9A61     		str	r2, [r3, #24]
 704 002c 039B     		ldr	r3, [sp, #12]
 705 002e 9A69     		ldr	r2, [r3, #24]
 706 0030 039B     		ldr	r3, [sp, #12]
 707 0032 DA60     		str	r2, [r3, #12]
 708              		.loc 2 278 0
 709 0034 029A     		ldr	r2, [sp, #8]
 710 0036 019B     		ldr	r3, [sp, #4]
 711 0038 D218     		adds	r2, r2, r3
 712 003a 039B     		ldr	r3, [sp, #12]
 713 003c 1A61     		str	r2, [r3, #16]
 714              		.loc 2 279 0
 715 003e 039B     		ldr	r3, [sp, #12]
 716 0040 009A     		ldr	r2, [sp, #0]
 717 0042 DA61     		str	r2, [r3, #28]
 718              		.loc 2 280 0
 719 0044 04B0     		add	sp, sp, #16
 720 0046 7047     		bx	lr
 721              		.cfi_endproc
 722              	.LFE13:
 723              		.size	chOQInit, .-chOQInit
 724 0048 AFF30080 		.section	.text.chOQResetI,"ax",%progbits
 724      AFF30080 
 725              		.align	2
 726              		.p2align 4,,15
 727              		.global	chOQResetI
ARM GAS  C:\Users\z80\AppData\Local\Temp\ccwXiAvJ.s 			page 14


 728              		.thumb
 729              		.thumb_func
 730              		.type	chOQResetI, %function
 731              	chOQResetI:
 732              	.LFB14:
 733              		.loc 2 293 0
 734              		.cfi_startproc
 735              		@ args = 0, pretend = 0, frame = 8
 736              		@ frame_needed = 0, uses_anonymous_args = 0
 737 0000 00B5     		push	{lr}
 738              	.LCFI14:
 739              		.cfi_def_cfa_offset 4
 740              		.cfi_offset 14, -4
 741 0002 83B0     		sub	sp, sp, #12
 742              	.LCFI15:
 743              		.cfi_def_cfa_offset 16
 744 0004 0190     		str	r0, [sp, #4]
 745              		.loc 2 295 0
 746 0006 FFF7FEFF 		bl	chDbgCheckClassI
 747              		.loc 2 297 0
 748 000a 019B     		ldr	r3, [sp, #4]
 749 000c DA68     		ldr	r2, [r3, #12]
 750 000e 019B     		ldr	r3, [sp, #4]
 751 0010 5A61     		str	r2, [r3, #20]
 752 0012 019B     		ldr	r3, [sp, #4]
 753 0014 5A69     		ldr	r2, [r3, #20]
 754 0016 019B     		ldr	r3, [sp, #4]
 755 0018 9A61     		str	r2, [r3, #24]
 756              		.loc 2 298 0
 757 001a 019B     		ldr	r3, [sp, #4]
 758 001c 1B69     		ldr	r3, [r3, #16]
 759 001e 1A46     		mov	r2, r3
 760 0020 019B     		ldr	r3, [sp, #4]
 761 0022 DB68     		ldr	r3, [r3, #12]
 762 0024 D31A     		subs	r3, r2, r3
 763 0026 1A46     		mov	r2, r3
 764 0028 019B     		ldr	r3, [sp, #4]
 765 002a 9A60     		str	r2, [r3, #8]
 766              		.loc 2 299 0
 767 002c 0BE0     		b	.L34
 768              	.L35:
 769              		.loc 2 300 0
 770 002e 019B     		ldr	r3, [sp, #4]
 771 0030 1846     		mov	r0, r3
 772 0032 FFF7FEFF 		bl	fifo_remove
 773 0036 0346     		mov	r3, r0
 774 0038 1846     		mov	r0, r3
 775 003a FFF7FEFF 		bl	chSchReadyI
 776 003e 0346     		mov	r3, r0
 777 0040 6FF00102 		mvn	r2, #1
 778 0044 9A62     		str	r2, [r3, #40]
 779              	.L34:
 780              		.loc 2 299 0 discriminator 1
 781 0046 019B     		ldr	r3, [sp, #4]
 782 0048 1A68     		ldr	r2, [r3, #0]
 783 004a 019B     		ldr	r3, [sp, #4]
 784 004c 9A42     		cmp	r2, r3
ARM GAS  C:\Users\z80\AppData\Local\Temp\ccwXiAvJ.s 			page 15


 785 004e EED1     		bne	.L35
 786              		.loc 2 301 0
 787 0050 03B0     		add	sp, sp, #12
 788 0052 00BD     		pop	{pc}
 789              		.cfi_endproc
 790              	.LFE14:
 791              		.size	chOQResetI, .-chOQResetI
 792 0054 AFF30080 		.section	.text.chOQPutTimeout,"ax",%progbits
 792      AFF30080 
 792      AFF30080 
 793              		.align	2
 794              		.p2align 4,,15
 795              		.global	chOQPutTimeout
 796              		.thumb
 797              		.thumb_func
 798              		.type	chOQPutTimeout, %function
 799              	chOQPutTimeout:
 800              	.LFB15:
 801              		.loc 2 325 0
 802              		.cfi_startproc
 803              		@ args = 0, pretend = 0, frame = 24
 804              		@ frame_needed = 0, uses_anonymous_args = 0
 805 0000 00B5     		push	{lr}
 806              	.LCFI16:
 807              		.cfi_def_cfa_offset 4
 808              		.cfi_offset 14, -4
 809 0002 87B0     		sub	sp, sp, #28
 810              	.LCFI17:
 811              		.cfi_def_cfa_offset 32
 812 0004 0390     		str	r0, [sp, #12]
 813 0006 0B46     		mov	r3, r1
 814 0008 0192     		str	r2, [sp, #4]
 815 000a 8DF80B30 		strb	r3, [sp, #11]
 816              	.LBB10:
 817              		.loc 2 327 0
 818 000e 4FF02003 		mov	r3, #32
 819              	@ 327 "../chibios_2.4.x/os/kernel/src/chqueues.c" 1
 820 0012 83F31188 		msr     BASEPRI, r3
 821              	@ 0 "" 2
 822              		.thumb
 823              	.LBE10:
 824 0016 FFF7FEFF 		bl	dbg_check_lock
 825              		.loc 2 328 0
 826 001a 0FE0     		b	.L37
 827              	.L39:
 828              	.LBB11:
 829              		.loc 2 331 0
 830 001c 0398     		ldr	r0, [sp, #12]
 831 001e 0199     		ldr	r1, [sp, #4]
 832 0020 FFF7FEFF 		bl	qwait
 833 0024 0590     		str	r0, [sp, #20]
 834 0026 059B     		ldr	r3, [sp, #20]
 835 0028 002B     		cmp	r3, #0
 836 002a 07DA     		bge	.L37
 837              		.loc 2 332 0
 838 002c FFF7FEFF 		bl	dbg_check_unlock
 839              	.LBB12:
ARM GAS  C:\Users\z80\AppData\Local\Temp\ccwXiAvJ.s 			page 16


 840 0030 4FF00003 		mov	r3, #0
 841              	@ 332 "../chibios_2.4.x/os/kernel/src/chqueues.c" 1
 842 0034 83F31188 		msr     BASEPRI, r3
 843              	@ 0 "" 2
 844              		.thumb
 845              	.LBE12:
 846              		.loc 2 333 0
 847 0038 059B     		ldr	r3, [sp, #20]
 848 003a 2CE0     		b	.L38
 849              	.L37:
 850              	.LBE11:
 851              		.loc 2 328 0 discriminator 1
 852 003c 039B     		ldr	r3, [sp, #12]
 853 003e 9B68     		ldr	r3, [r3, #8]
 854 0040 002B     		cmp	r3, #0
 855 0042 EBD0     		beq	.L39
 856              		.loc 2 337 0
 857 0044 039B     		ldr	r3, [sp, #12]
 858 0046 9B68     		ldr	r3, [r3, #8]
 859 0048 03F1FF32 		add	r2, r3, #-1
 860 004c 039B     		ldr	r3, [sp, #12]
 861 004e 9A60     		str	r2, [r3, #8]
 862              		.loc 2 338 0
 863 0050 039B     		ldr	r3, [sp, #12]
 864 0052 5B69     		ldr	r3, [r3, #20]
 865 0054 9DF80B20 		ldrb	r2, [sp, #11]
 866 0058 1A70     		strb	r2, [r3, #0]
 867 005a 03F10102 		add	r2, r3, #1
 868 005e 039B     		ldr	r3, [sp, #12]
 869 0060 5A61     		str	r2, [r3, #20]
 870              		.loc 2 339 0
 871 0062 039B     		ldr	r3, [sp, #12]
 872 0064 5A69     		ldr	r2, [r3, #20]
 873 0066 039B     		ldr	r3, [sp, #12]
 874 0068 1B69     		ldr	r3, [r3, #16]
 875 006a 9A42     		cmp	r2, r3
 876 006c 03D3     		bcc	.L40
 877              		.loc 2 340 0
 878 006e 039B     		ldr	r3, [sp, #12]
 879 0070 DA68     		ldr	r2, [r3, #12]
 880 0072 039B     		ldr	r3, [sp, #12]
 881 0074 5A61     		str	r2, [r3, #20]
 882              	.L40:
 883              		.loc 2 342 0
 884 0076 039B     		ldr	r3, [sp, #12]
 885 0078 DB69     		ldr	r3, [r3, #28]
 886 007a 002B     		cmp	r3, #0
 887 007c 03D0     		beq	.L41
 888              		.loc 2 343 0
 889 007e 039B     		ldr	r3, [sp, #12]
 890 0080 DB69     		ldr	r3, [r3, #28]
 891 0082 0398     		ldr	r0, [sp, #12]
 892 0084 9847     		blx	r3
 893              	.L41:
 894              		.loc 2 345 0
 895 0086 FFF7FEFF 		bl	dbg_check_unlock
 896              	.LBB13:
ARM GAS  C:\Users\z80\AppData\Local\Temp\ccwXiAvJ.s 			page 17


 897 008a 4FF00003 		mov	r3, #0
 898              	@ 345 "../chibios_2.4.x/os/kernel/src/chqueues.c" 1
 899 008e 83F31188 		msr     BASEPRI, r3
 900              	@ 0 "" 2
 901              		.thumb
 902              	.LBE13:
 903              		.loc 2 346 0
 904 0092 4FF00003 		mov	r3, #0
 905              	.L38:
 906              		.loc 2 347 0
 907 0096 1846     		mov	r0, r3
 908 0098 07B0     		add	sp, sp, #28
 909 009a 00BD     		pop	{pc}
 910              		.cfi_endproc
 911              	.LFE15:
 912              		.size	chOQPutTimeout, .-chOQPutTimeout
 913 009c AFF30080 		.section	.text.chOQGetI,"ax",%progbits
 914              		.align	2
 915              		.p2align 4,,15
 916              		.global	chOQGetI
 917              		.thumb
 918              		.thumb_func
 919              		.type	chOQGetI, %function
 920              	chOQGetI:
 921              	.LFB16:
 922              		.loc 2 359 0
 923              		.cfi_startproc
 924              		@ args = 0, pretend = 0, frame = 16
 925              		@ frame_needed = 0, uses_anonymous_args = 0
 926 0000 00B5     		push	{lr}
 927              	.LCFI18:
 928              		.cfi_def_cfa_offset 4
 929              		.cfi_offset 14, -4
 930 0002 85B0     		sub	sp, sp, #20
 931              	.LCFI19:
 932              		.cfi_def_cfa_offset 24
 933 0004 0190     		str	r0, [sp, #4]
 934              		.loc 2 362 0
 935 0006 FFF7FEFF 		bl	chDbgCheckClassI
 936              		.loc 2 364 0
 937 000a 019B     		ldr	r3, [sp, #4]
 938 000c 5A69     		ldr	r2, [r3, #20]
 939 000e 019B     		ldr	r3, [sp, #4]
 940 0010 9B69     		ldr	r3, [r3, #24]
 941 0012 9A42     		cmp	r2, r3
 942 0014 06D1     		bne	.L43
 943              		.loc 2 364 0 is_stmt 0 discriminator 1
 944 0016 019B     		ldr	r3, [sp, #4]
 945 0018 9B68     		ldr	r3, [r3, #8]
 946 001a 002B     		cmp	r3, #0
 947 001c 02D0     		beq	.L43
 948              		.loc 2 365 0 is_stmt 1
 949 001e 6FF00203 		mvn	r3, #2
 950 0022 2BE0     		b	.L44
 951              	.L43:
 952              		.loc 2 367 0
 953 0024 019B     		ldr	r3, [sp, #4]
ARM GAS  C:\Users\z80\AppData\Local\Temp\ccwXiAvJ.s 			page 18


 954 0026 9B68     		ldr	r3, [r3, #8]
 955 0028 03F10102 		add	r2, r3, #1
 956 002c 019B     		ldr	r3, [sp, #4]
 957 002e 9A60     		str	r2, [r3, #8]
 958              		.loc 2 368 0
 959 0030 019B     		ldr	r3, [sp, #4]
 960 0032 9B69     		ldr	r3, [r3, #24]
 961 0034 1A78     		ldrb	r2, [r3, #0]
 962 0036 8DF80F20 		strb	r2, [sp, #15]
 963 003a 03F10102 		add	r2, r3, #1
 964 003e 019B     		ldr	r3, [sp, #4]
 965 0040 9A61     		str	r2, [r3, #24]
 966              		.loc 2 369 0
 967 0042 019B     		ldr	r3, [sp, #4]
 968 0044 9A69     		ldr	r2, [r3, #24]
 969 0046 019B     		ldr	r3, [sp, #4]
 970 0048 1B69     		ldr	r3, [r3, #16]
 971 004a 9A42     		cmp	r2, r3
 972 004c 03D3     		bcc	.L45
 973              		.loc 2 370 0
 974 004e 019B     		ldr	r3, [sp, #4]
 975 0050 DA68     		ldr	r2, [r3, #12]
 976 0052 019B     		ldr	r3, [sp, #4]
 977 0054 9A61     		str	r2, [r3, #24]
 978              	.L45:
 979              		.loc 2 372 0
 980 0056 019B     		ldr	r3, [sp, #4]
 981 0058 1A68     		ldr	r2, [r3, #0]
 982 005a 019B     		ldr	r3, [sp, #4]
 983 005c 9A42     		cmp	r2, r3
 984 005e 0BD0     		beq	.L46
 985              		.loc 2 373 0
 986 0060 019B     		ldr	r3, [sp, #4]
 987 0062 1846     		mov	r0, r3
 988 0064 FFF7FEFF 		bl	fifo_remove
 989 0068 0346     		mov	r3, r0
 990 006a 1846     		mov	r0, r3
 991 006c FFF7FEFF 		bl	chSchReadyI
 992 0070 0346     		mov	r3, r0
 993 0072 4FF00002 		mov	r2, #0
 994 0076 9A62     		str	r2, [r3, #40]
 995              	.L46:
 996              		.loc 2 375 0
 997 0078 9DF80F30 		ldrb	r3, [sp, #15]	@ zero_extendqisi2
 998              	.L44:
 999              		.loc 2 376 0
 1000 007c 1846     		mov	r0, r3
 1001 007e 05B0     		add	sp, sp, #20
 1002 0080 00BD     		pop	{pc}
 1003              		.cfi_endproc
 1004              	.LFE16:
 1005              		.size	chOQGetI, .-chOQGetI
 1006 0082 00BFAFF3 		.section	.rodata
 1006      0080AFF3 
 1006      0080AFF3 
 1006      0080
 1007              		.align	2
ARM GAS  C:\Users\z80\AppData\Local\Temp\ccwXiAvJ.s 			page 19


 1008              	.LC1:
 1009 0014 2263684F 		.ascii	"\"chOQWriteTimeout\"()\000"
 1009      51577269 
 1009      74655469 
 1009      6D656F75 
 1009      74222829 
 1010 0029 000000   		.section	.text.chOQWriteTimeout,"ax",%progbits
 1011              		.align	2
 1012              		.p2align 4,,15
 1013              		.global	chOQWriteTimeout
 1014              		.thumb
 1015              		.thumb_func
 1016              		.type	chOQWriteTimeout, %function
 1017              	chOQWriteTimeout:
 1018              	.LFB17:
 1019              		.loc 2 403 0
 1020              		.cfi_startproc
 1021              		@ args = 0, pretend = 0, frame = 24
 1022              		@ frame_needed = 0, uses_anonymous_args = 0
 1023 0000 00B5     		push	{lr}
 1024              	.LCFI20:
 1025              		.cfi_def_cfa_offset 4
 1026              		.cfi_offset 14, -4
 1027 0002 87B0     		sub	sp, sp, #28
 1028              	.LCFI21:
 1029              		.cfi_def_cfa_offset 32
 1030 0004 0390     		str	r0, [sp, #12]
 1031 0006 0291     		str	r1, [sp, #8]
 1032 0008 0192     		str	r2, [sp, #4]
 1033 000a 0093     		str	r3, [sp, #0]
 1034              		.loc 2 404 0
 1035 000c 039B     		ldr	r3, [sp, #12]
 1036 000e DB69     		ldr	r3, [r3, #28]
 1037 0010 0493     		str	r3, [sp, #16]
 1038              		.loc 2 405 0
 1039 0012 4FF00003 		mov	r3, #0
 1040 0016 0593     		str	r3, [sp, #20]
 1041              		.loc 2 407 0
 1042 0018 019B     		ldr	r3, [sp, #4]
 1043 001a 002B     		cmp	r3, #0
 1044 001c 05D1     		bne	.L48
 1045              		.loc 2 407 0 is_stmt 0 discriminator 1
 1046 001e 40F20000 		movw	r0, #:lower16:.LC1
 1047 0022 C0F20000 		movt	r0, #:upper16:.LC1
 1048 0026 FFF7FEFF 		bl	chDbgPanic
 1049              	.L48:
 1050              	.LBB14:
 1051              		.loc 2 409 0 is_stmt 1
 1052 002a 4FF02003 		mov	r3, #32
 1053              	@ 409 "../chibios_2.4.x/os/kernel/src/chqueues.c" 1
 1054 002e 83F31188 		msr     BASEPRI, r3
 1055              	@ 0 "" 2
 1056              		.thumb
 1057              	.LBE14:
 1058 0032 FFF7FEFF 		bl	dbg_check_lock
 1059              		.loc 2 411 0
 1060 0036 0EE0     		b	.L49
ARM GAS  C:\Users\z80\AppData\Local\Temp\ccwXiAvJ.s 			page 20


 1061              	.L51:
 1062              		.loc 2 412 0
 1063 0038 0398     		ldr	r0, [sp, #12]
 1064 003a 0099     		ldr	r1, [sp, #0]
 1065 003c FFF7FEFF 		bl	qwait
 1066 0040 0346     		mov	r3, r0
 1067 0042 002B     		cmp	r3, #0
 1068 0044 07D0     		beq	.L49
 1069              		.loc 2 413 0
 1070 0046 FFF7FEFF 		bl	dbg_check_unlock
 1071              	.LBB15:
 1072 004a 4FF00003 		mov	r3, #0
 1073              	@ 413 "../chibios_2.4.x/os/kernel/src/chqueues.c" 1
 1074 004e 83F31188 		msr     BASEPRI, r3
 1075              	@ 0 "" 2
 1076              		.thumb
 1077              	.LBE15:
 1078              		.loc 2 414 0
 1079 0052 059B     		ldr	r3, [sp, #20]
 1080 0054 41E0     		b	.L50
 1081              	.L49:
 1082              		.loc 2 411 0 discriminator 1
 1083 0056 039B     		ldr	r3, [sp, #12]
 1084 0058 9B68     		ldr	r3, [r3, #8]
 1085 005a 002B     		cmp	r3, #0
 1086 005c ECD0     		beq	.L51
 1087              		.loc 2 417 0
 1088 005e 039B     		ldr	r3, [sp, #12]
 1089 0060 9B68     		ldr	r3, [r3, #8]
 1090 0062 03F1FF32 		add	r2, r3, #-1
 1091 0066 039B     		ldr	r3, [sp, #12]
 1092 0068 9A60     		str	r2, [r3, #8]
 1093              		.loc 2 418 0
 1094 006a 039B     		ldr	r3, [sp, #12]
 1095 006c 5B69     		ldr	r3, [r3, #20]
 1096 006e 029A     		ldr	r2, [sp, #8]
 1097 0070 1278     		ldrb	r2, [r2, #0]	@ zero_extendqisi2
 1098 0072 1A70     		strb	r2, [r3, #0]
 1099 0074 03F10102 		add	r2, r3, #1
 1100 0078 039B     		ldr	r3, [sp, #12]
 1101 007a 5A61     		str	r2, [r3, #20]
 1102 007c 029B     		ldr	r3, [sp, #8]
 1103 007e 03F10103 		add	r3, r3, #1
 1104 0082 0293     		str	r3, [sp, #8]
 1105              		.loc 2 419 0
 1106 0084 039B     		ldr	r3, [sp, #12]
 1107 0086 5A69     		ldr	r2, [r3, #20]
 1108 0088 039B     		ldr	r3, [sp, #12]
 1109 008a 1B69     		ldr	r3, [r3, #16]
 1110 008c 9A42     		cmp	r2, r3
 1111 008e 03D3     		bcc	.L52
 1112              		.loc 2 420 0
 1113 0090 039B     		ldr	r3, [sp, #12]
 1114 0092 DA68     		ldr	r2, [r3, #12]
 1115 0094 039B     		ldr	r3, [sp, #12]
 1116 0096 5A61     		str	r2, [r3, #20]
 1117              	.L52:
ARM GAS  C:\Users\z80\AppData\Local\Temp\ccwXiAvJ.s 			page 21


 1118              		.loc 2 422 0
 1119 0098 049B     		ldr	r3, [sp, #16]
 1120 009a 002B     		cmp	r3, #0
 1121 009c 02D0     		beq	.L53
 1122              		.loc 2 423 0
 1123 009e 049B     		ldr	r3, [sp, #16]
 1124 00a0 0398     		ldr	r0, [sp, #12]
 1125 00a2 9847     		blx	r3
 1126              	.L53:
 1127              		.loc 2 425 0
 1128 00a4 FFF7FEFF 		bl	dbg_check_unlock
 1129              	.LBB16:
 1130 00a8 4FF00003 		mov	r3, #0
 1131              	@ 425 "../chibios_2.4.x/os/kernel/src/chqueues.c" 1
 1132 00ac 83F31188 		msr     BASEPRI, r3
 1133              	@ 0 "" 2
 1134              		.thumb
 1135              	.LBE16:
 1136              		.loc 2 426 0
 1137 00b0 059B     		ldr	r3, [sp, #20]
 1138 00b2 03F10103 		add	r3, r3, #1
 1139 00b6 0593     		str	r3, [sp, #20]
 1140              		.loc 2 427 0
 1141 00b8 019B     		ldr	r3, [sp, #4]
 1142 00ba 03F1FF33 		add	r3, r3, #-1
 1143 00be 0193     		str	r3, [sp, #4]
 1144 00c0 019B     		ldr	r3, [sp, #4]
 1145 00c2 002B     		cmp	r3, #0
 1146 00c4 01D1     		bne	.L54
 1147              		.loc 2 428 0
 1148 00c6 059B     		ldr	r3, [sp, #20]
 1149 00c8 07E0     		b	.L50
 1150              	.L54:
 1151              	.LBB17:
 1152              		.loc 2 429 0
 1153 00ca 4FF02003 		mov	r3, #32
 1154              	@ 429 "../chibios_2.4.x/os/kernel/src/chqueues.c" 1
 1155 00ce 83F31188 		msr     BASEPRI, r3
 1156              	@ 0 "" 2
 1157              		.thumb
 1158              	.LBE17:
 1159 00d2 FFF7FEFF 		bl	dbg_check_lock
 1160              		.loc 2 430 0
 1161 00d6 00BF     		nop
 1162              		.loc 2 411 0
 1163 00d8 BDE7     		b	.L49
 1164              	.L50:
 1165              		.loc 2 431 0
 1166 00da 1846     		mov	r0, r3
 1167 00dc 07B0     		add	sp, sp, #28
 1168 00de 00BD     		pop	{pc}
 1169              		.cfi_endproc
 1170              	.LFE17:
 1171              		.size	chOQWriteTimeout, .-chOQWriteTimeout
 1172              		.text
 1173              	.Letext0:
 1174              		.file 3 "c:\\programs\\codesourcery\\2011.03-56\\bin\\../lib/gcc/arm-none-eabi/4.6.3/include/stdde
ARM GAS  C:\Users\z80\AppData\Local\Temp\ccwXiAvJ.s 			page 22


 1175              		.file 4 "c:\\programs\\codesourcery\\2011.03-56\\bin\\../lib/gcc/arm-none-eabi/4.6.3/../../../../a
 1176              		.file 5 "../chibios_2.4.x/os/ports/GCC/ARMCMx/chtypes.h"
 1177              		.file 6 "../chibios_2.4.x/os/kernel/include/chlists.h"
 1178              		.file 7 "../chibios_2.4.x/os/kernel/include/chthreads.h"
 1179              		.file 8 "../chibios_2.4.x/os/ports/GCC/ARMCMx/chcore_v7m.h"
 1180              		.file 9 "../chibios_2.4.x/os/kernel/include/chschd.h"
 1181              		.file 10 "../chibios_2.4.x/os/kernel/include/chmtx.h"
 1182              		.file 11 "../chibios_2.4.x/os/kernel/include/chqueues.h"