ARM GAS  C:\Users\z80\AppData\Local\Temp\ccwXiAvJ.s 			page 1


   1              		.syntax unified
   2              		.cpu cortex-m3
   3              		.fpu softvfp
   4              		.eabi_attribute 20, 1
   5              		.eabi_attribute 21, 1
   6              		.eabi_attribute 23, 3
   7              		.eabi_attribute 24, 1
   8              		.eabi_attribute 25, 1
   9              		.eabi_attribute 26, 1
  10              		.eabi_attribute 30, 6
  11              		.eabi_attribute 34, 1
  12              		.eabi_attribute 18, 4
  13              		.thumb
  14              		.file	"chqueues.c"
  15              		.text
  16              	.Ltext0:
  17              		.cfi_sections	.debug_frame
  18              		.section	.text.queue_insert,"ax",%progbits
  19              		.align	2
  20              		.p2align 4,,15
  21              		.thumb
  22              		.thumb_func
  23              		.type	queue_insert, %function
  24              	queue_insert:
  25              	.LFB1:
  26              		.file 1 "../chibios_2.4.x/os/kernel/include/chinline.h"
  27              		.loc 1 52 0
  28              		.cfi_startproc
  29              		@ args = 0, pretend = 0, frame = 8
  30              		@ frame_needed = 0, uses_anonymous_args = 0
  31              		@ link register save eliminated.
  32 0000 82B0     		sub	sp, sp, #8
  33              	.LCFI0:
  34              		.cfi_def_cfa_offset 8
  35 0002 0190     		str	r0, [sp, #4]
  36 0004 0091     		str	r1, [sp, #0]
  37              		.loc 1 54 0
  38 0006 019B     		ldr	r3, [sp, #4]
  39 0008 009A     		ldr	r2, [sp, #0]
  40 000a 1A60     		str	r2, [r3, #0]
  41              		.loc 1 55 0
  42 000c 009B     		ldr	r3, [sp, #0]
  43 000e 5A68     		ldr	r2, [r3, #4]
  44 0010 019B     		ldr	r3, [sp, #4]
  45 0012 5A60     		str	r2, [r3, #4]
  46              		.loc 1 56 0
  47 0014 019B     		ldr	r3, [sp, #4]
  48 0016 5B68     		ldr	r3, [r3, #4]
  49 0018 009A     		ldr	r2, [sp, #0]
  50 001a 0199     		ldr	r1, [sp, #4]
  51 001c 5160     		str	r1, [r2, #4]
  52 001e 009A     		ldr	r2, [sp, #0]
  53 0020 5268     		ldr	r2, [r2, #4]
  54 0022 1A60     		str	r2, [r3, #0]
  55              		.loc 1 57 0
  56 0024 02B0     		add	sp, sp, #8
  57 0026 7047     		bx	lr
ARM GAS  C:\Users\z80\AppData\Local\Temp\ccwXiAvJ.s 			page 2


  58              		.cfi_endproc
  59              	.LFE1:
  60              		.size	queue_insert, .-queue_insert
  61 0028 AFF30080 		.section	.text.fifo_remove,"ax",%progbits
  61      AFF30080 
  62              		.align	2
  63              		.p2align 4,,15
  64              		.thumb
  65              		.thumb_func
  66              		.type	fifo_remove, %function
  67              	fifo_remove:
  68              	.LFB2:
  69              		.loc 1 59 0
  70              		.cfi_startproc
  71              		@ args = 0, pretend = 0, frame = 16
  72              		@ frame_needed = 0, uses_anonymous_args = 0
  73              		@ link register save eliminated.
  74 0000 84B0     		sub	sp, sp, #16
  75              	.LCFI1:
  76              		.cfi_def_cfa_offset 16
  77 0002 0190     		str	r0, [sp, #4]
  78              		.loc 1 60 0
  79 0004 019B     		ldr	r3, [sp, #4]
  80 0006 1B68     		ldr	r3, [r3, #0]
  81 0008 0393     		str	r3, [sp, #12]
  82              		.loc 1 62 0
  83 000a 039B     		ldr	r3, [sp, #12]
  84 000c 1A68     		ldr	r2, [r3, #0]
  85 000e 019B     		ldr	r3, [sp, #4]
  86 0010 1A60     		str	r2, [r3, #0]
  87 0012 019B     		ldr	r3, [sp, #4]
  88 0014 1B68     		ldr	r3, [r3, #0]
  89 0016 019A     		ldr	r2, [sp, #4]
  90 0018 5A60     		str	r2, [r3, #4]
  91              		.loc 1 63 0
  92 001a 039B     		ldr	r3, [sp, #12]
  93              		.loc 1 64 0
  94 001c 1846     		mov	r0, r3
  95 001e 04B0     		add	sp, sp, #16
  96 0020 7047     		bx	lr
  97              		.cfi_endproc
  98              	.LFE2:
  99              		.size	fifo_remove, .-fifo_remove
 100 0022 00BFAFF3 		.section	.text.qwait,"ax",%progbits
 100      0080AFF3 
 100      0080AFF3 
 100      0080
 101              		.align	2
 102              		.p2align 4,,15
 103              		.thumb
 104              		.thumb_func
 105              		.type	qwait, %function
 106              	qwait:
 107              	.LFB7:
 108              		.file 2 "../chibios_2.4.x/os/kernel/src/chqueues.c"
 109              		.loc 2 72 0
 110              		.cfi_startproc
ARM GAS  C:\Users\z80\AppData\Local\Temp\ccwXiAvJ.s 			page 3


 111              		@ args = 0, pretend = 0, frame = 8
 112              		@ frame_needed = 0, uses_anonymous_args = 0
 113 0000 00B5     		push	{lr}
 114              	.LCFI2:
 115              		.cfi_def_cfa_offset 4
 116              		.cfi_offset 14, -4
 117 0002 83B0     		sub	sp, sp, #12
 118              	.LCFI3:
 119              		.cfi_def_cfa_offset 16
 120 0004 0190     		str	r0, [sp, #4]
 121 0006 0091     		str	r1, [sp, #0]
 122              		.loc 2 74 0
 123 0008 009B     		ldr	r3, [sp, #0]
 124 000a 002B     		cmp	r3, #0
 125 000c 02D1     		bne	.L4
 126              		.loc 2 75 0
 127 000e 4FF0FF33 		mov	r3, #-1
 128 0012 16E0     		b	.L5
 129              	.L4:
 130              		.loc 2 76 0
 131 0014 40F20003 		movw	r3, #:lower16:rlist
 132 0018 C0F20003 		movt	r3, #:upper16:rlist
 133 001c DB69     		ldr	r3, [r3, #28]
 134 001e 019A     		ldr	r2, [sp, #4]
 135 0020 9A62     		str	r2, [r3, #40]
 136              		.loc 2 77 0
 137 0022 40F20003 		movw	r3, #:lower16:rlist
 138 0026 C0F20003 		movt	r3, #:upper16:rlist
 139 002a DA69     		ldr	r2, [r3, #28]
 140 002c 019B     		ldr	r3, [sp, #4]
 141 002e 1046     		mov	r0, r2
 142 0030 1946     		mov	r1, r3
 143 0032 FFF7FEFF 		bl	queue_insert
 144              		.loc 2 78 0
 145 0036 4FF00D00 		mov	r0, #13
 146 003a 0099     		ldr	r1, [sp, #0]
 147 003c FFF7FEFF 		bl	chSchGoSleepTimeoutS
 148 0040 0346     		mov	r3, r0
 149              	.L5:
 150              		.loc 2 79 0
 151 0042 1846     		mov	r0, r3
 152 0044 03B0     		add	sp, sp, #12
 153 0046 00BD     		pop	{pc}
 154              		.cfi_endproc
 155              	.LFE7:
 156              		.size	qwait, .-qwait
 157 0048 AFF30080 		.section	.text.chIQInit,"ax",%progbits
 157      AFF30080 
 158              		.align	2
 159              		.p2align 4,,15
 160              		.global	chIQInit
 161              		.thumb
 162              		.thumb_func
 163              		.type	chIQInit, %function
 164              	chIQInit:
 165              	.LFB8:
 166              		.loc 2 96 0
ARM GAS  C:\Users\z80\AppData\Local\Temp\ccwXiAvJ.s 			page 4


 167              		.cfi_startproc
 168              		@ args = 0, pretend = 0, frame = 16
 169              		@ frame_needed = 0, uses_anonymous_args = 0
 170              		@ link register save eliminated.
 171 0000 84B0     		sub	sp, sp, #16
 172              	.LCFI4:
 173              		.cfi_def_cfa_offset 16
 174 0002 0390     		str	r0, [sp, #12]
 175 0004 0291     		str	r1, [sp, #8]
 176 0006 0192     		str	r2, [sp, #4]
 177 0008 0093     		str	r3, [sp, #0]
 178              		.loc 2 98 0
 179 000a 039A     		ldr	r2, [sp, #12]
 180 000c 039B     		ldr	r3, [sp, #12]
 181 000e 5A60     		str	r2, [r3, #4]
 182 0010 039B     		ldr	r3, [sp, #12]
 183 0012 5A68     		ldr	r2, [r3, #4]
 184 0014 039B     		ldr	r3, [sp, #12]
 185 0016 1A60     		str	r2, [r3, #0]
 186              		.loc 2 99 0
 187 0018 039B     		ldr	r3, [sp, #12]
 188 001a 4FF00002 		mov	r2, #0
 189 001e 9A60     		str	r2, [r3, #8]
 190              		.loc 2 100 0
 191 0020 039B     		ldr	r3, [sp, #12]
 192 0022 029A     		ldr	r2, [sp, #8]
 193 0024 5A61     		str	r2, [r3, #20]
 194 0026 039B     		ldr	r3, [sp, #12]
 195 0028 5A69     		ldr	r2, [r3, #20]
 196 002a 039B     		ldr	r3, [sp, #12]
 197 002c 9A61     		str	r2, [r3, #24]
 198 002e 039B     		ldr	r3, [sp, #12]
 199 0030 9A69     		ldr	r2, [r3, #24]
 200 0032 039B     		ldr	r3, [sp, #12]
 201 0034 DA60     		str	r2, [r3, #12]
 202              		.loc 2 101 0
 203 0036 029A     		ldr	r2, [sp, #8]
 204 0038 019B     		ldr	r3, [sp, #4]
 205 003a D218     		adds	r2, r2, r3
 206 003c 039B     		ldr	r3, [sp, #12]
 207 003e 1A61     		str	r2, [r3, #16]
 208              		.loc 2 102 0
 209 0040 039B     		ldr	r3, [sp, #12]
 210 0042 009A     		ldr	r2, [sp, #0]
 211 0044 DA61     		str	r2, [r3, #28]
 212              		.loc 2 103 0
 213 0046 04B0     		add	sp, sp, #16
 214 0048 7047     		bx	lr
 215              		.cfi_endproc
 216              	.LFE8:
 217              		.size	chIQInit, .-chIQInit
 218 004a 00BFAFF3 		.section	.text.chIQResetI,"ax",%progbits
 218      0080
 219              		.align	2
 220              		.p2align 4,,15
 221              		.global	chIQResetI
 222              		.thumb
ARM GAS  C:\Users\z80\AppData\Local\Temp\ccwXiAvJ.s 			page 5


 223              		.thumb_func
 224              		.type	chIQResetI, %function
 225              	chIQResetI:
 226              	.LFB9:
 227              		.loc 2 116 0
 228              		.cfi_startproc
 229              		@ args = 0, pretend = 0, frame = 8
 230              		@ frame_needed = 0, uses_anonymous_args = 0
 231 0000 00B5     		push	{lr}
 232              	.LCFI5:
 233              		.cfi_def_cfa_offset 4
 234              		.cfi_offset 14, -4
 235 0002 83B0     		sub	sp, sp, #12
 236              	.LCFI6:
 237              		.cfi_def_cfa_offset 16
 238 0004 0190     		str	r0, [sp, #4]
 239              		.loc 2 118 0
 240 0006 FFF7FEFF 		bl	chDbgCheckClassI
 241              		.loc 2 120 0
 242 000a 019B     		ldr	r3, [sp, #4]
 243 000c DA68     		ldr	r2, [r3, #12]
 244 000e 019B     		ldr	r3, [sp, #4]
 245 0010 5A61     		str	r2, [r3, #20]
 246 0012 019B     		ldr	r3, [sp, #4]
 247 0014 5A69     		ldr	r2, [r3, #20]
 248 0016 019B     		ldr	r3, [sp, #4]
 249 0018 9A61     		str	r2, [r3, #24]
 250              		.loc 2 121 0
 251 001a 019B     		ldr	r3, [sp, #4]
 252 001c 4FF00002 		mov	r2, #0
 253 0020 9A60     		str	r2, [r3, #8]
 254              		.loc 2 122 0
 255 0022 0BE0     		b	.L8
 256              	.L9:
 257              		.loc 2 123 0
 258 0024 019B     		ldr	r3, [sp, #4]
 259 0026 1846     		mov	r0, r3
 260 0028 FFF7FEFF 		bl	fifo_remove
 261 002c 0346     		mov	r3, r0
 262 002e 1846     		mov	r0, r3
 263 0030 FFF7FEFF 		bl	chSchReadyI
 264 0034 0346     		mov	r3, r0
 265 0036 6FF00102 		mvn	r2, #1
 266 003a 9A62     		str	r2, [r3, #40]
 267              	.L8:
 268              		.loc 2 122 0 discriminator 1
 269 003c 019B     		ldr	r3, [sp, #4]
 270 003e 1A68     		ldr	r2, [r3, #0]
 271 0040 019B     		ldr	r3, [sp, #4]
 272 0042 9A42     		cmp	r2, r3
 273 0044 EED1     		bne	.L9
 274              		.loc 2 124 0
 275 0046 03B0     		add	sp, sp, #12
 276 0048 00BD     		pop	{pc}
 277              		.cfi_endproc
 278              	.LFE9:
 279              		.size	chIQResetI, .-chIQResetI
ARM GAS  C:\Users\z80\AppData\Local\Temp\ccwXiAvJ.s 			page 6


 280 004a 00BFAFF3 		.section	.text.chIQPutI,"ax",%progbits
 280      0080
 281              		.align	2
 282              		.p2align 4,,15
 283              		.global	chIQPutI
 284              		.thumb
 285              		.thumb_func
 286              		.type	chIQPutI, %function
 287              	chIQPutI:
 288              	.LFB10:
 289              		.loc 2 139 0
 290              		.cfi_startproc
 291              		@ args = 0, pretend = 0, frame = 8
 292              		@ frame_needed = 0, uses_anonymous_args = 0
 293 0000 00B5     		push	{lr}
 294              	.LCFI7:
 295              		.cfi_def_cfa_offset 4
 296              		.cfi_offset 14, -4
 297 0002 83B0     		sub	sp, sp, #12
 298              	.LCFI8:
 299              		.cfi_def_cfa_offset 16
 300 0004 0190     		str	r0, [sp, #4]
 301 0006 0B46     		mov	r3, r1
 302 0008 8DF80330 		strb	r3, [sp, #3]
 303              		.loc 2 141 0
 304 000c FFF7FEFF 		bl	chDbgCheckClassI
 305              		.loc 2 143 0
 306 0010 019B     		ldr	r3, [sp, #4]
 307 0012 5A69     		ldr	r2, [r3, #20]
 308 0014 019B     		ldr	r3, [sp, #4]
 309 0016 9B69     		ldr	r3, [r3, #24]
 310 0018 9A42     		cmp	r2, r3
 311 001a 06D1     		bne	.L11
 312              		.loc 2 143 0 is_stmt 0 discriminator 1
 313 001c 019B     		ldr	r3, [sp, #4]
 314 001e 9B68     		ldr	r3, [r3, #8]
 315 0020 002B     		cmp	r3, #0
 316 0022 02D0     		beq	.L11
 317              		.loc 2 144 0 is_stmt 1
 318 0024 6FF00303 		mvn	r3, #3
 319 0028 2BE0     		b	.L12
 320              	.L11:
 321              		.loc 2 146 0
 322 002a 019B     		ldr	r3, [sp, #4]
 323 002c 9B68     		ldr	r3, [r3, #8]
 324 002e 03F10102 		add	r2, r3, #1
 325 0032 019B     		ldr	r3, [sp, #4]
 326 0034 9A60     		str	r2, [r3, #8]
 327              		.loc 2 147 0
 328 0036 019B     		ldr	r3, [sp, #4]
 329 0038 5B69     		ldr	r3, [r3, #20]
 330 003a 9DF80320 		ldrb	r2, [sp, #3]
 331 003e 1A70     		strb	r2, [r3, #0]
 332 0040 03F10102 		add	r2, r3, #1
 333 0044 019B     		ldr	r3, [sp, #4]
 334 0046 5A61     		str	r2, [r3, #20]
 335              		.loc 2 148 0
ARM GAS  C:\Users\z80\AppData\Local\Temp\ccwXiAvJ.s 			page 7


 336 0048 019B     		ldr	r3, [sp, #4]
 337 004a 5A69     		ldr	r2, [r3, #20]
 338 004c 019B     		ldr	r3, [sp, #4]
 339 004e 1B69     		ldr	r3, [r3, #16]
 340 0050 9A42     		cmp	r2, r3
 341 0052 03D3     		bcc	.L13
 342              		.loc 2 149 0
 343 0054 019B     		ldr	r3, [sp, #4]
 344 0056 DA68     		ldr	r2, [r3, #12]
 345 0058 019B     		ldr	r3, [sp, #4]
 346 005a 5A61     		str	r2, [r3, #20]
 347              	.L13:
 348              		.loc 2 151 0
 349 005c 019B     		ldr	r3, [sp, #4]
 350 005e 1A68     		ldr	r2, [r3, #0]
 351 0060 019B     		ldr	r3, [sp, #4]
 352 0062 9A42     		cmp	r2, r3
 353 0064 0BD0     		beq	.L14
 354              		.loc 2 152 0
 355 0066 019B     		ldr	r3, [sp, #4]
 356 0068 1846     		mov	r0, r3
 357 006a FFF7FEFF 		bl	fifo_remove
 358 006e 0346     		mov	r3, r0
 359 0070 1846     		mov	r0, r3
 360 0072 FFF7FEFF 		bl	chSchReadyI
 361 0076 0346     		mov	r3, r0
 362 0078 4FF00002 		mov	r2, #0
 363 007c 9A62     		str	r2, [r3, #40]
 364              	.L14:
 365              		.loc 2 154 0
 366 007e 4FF00003 		mov	r3, #0
 367              	.L12:
 368              		.loc 2 155 0
 369 0082 1846     		mov	r0, r3
 370 0084 03B0     		add	sp, sp, #12
 371 0086 00BD     		pop	{pc}
 372              		.cfi_endproc
 373              	.LFE10:
 374              		.size	chIQPutI, .-chIQPutI
 375 0088 AFF30080 		.section	.text.chIQGetTimeout,"ax",%progbits
 375      AFF30080 
 376              		.align	2
 377              		.p2align 4,,15
 378              		.global	chIQGetTimeout
 379              		.thumb
 380              		.thumb_func
 381              		.type	chIQGetTimeout, %function
 382              	chIQGetTimeout:
 383              	.LFB11:
 384              		.loc 2 177 0
 385              		.cfi_startproc
 386              		@ args = 0, pretend = 0, frame = 16
 387              		@ frame_needed = 0, uses_anonymous_args = 0
 388 0000 00B5     		push	{lr}
 389              	.LCFI9:
 390              		.cfi_def_cfa_offset 4
 391              		.cfi_offset 14, -4
ARM GAS  C:\Users\z80\AppData\Local\Temp\ccwXiAvJ.s 			page 8


 392 0002 85B0     		sub	sp, sp, #20
 393              	.LCFI10:
 394              		.cfi_def_cfa_offset 24
 395 0004 0190     		str	r0, [sp, #4]
 396 0006 0091     		str	r1, [sp, #0]
 397              	.LBB2:
 398              		.loc 2 180 0
 399 0008 4FF02003 		mov	r3, #32
 400              	@ 180 "../chibios_2.4.x/os/kernel/src/chqueues.c" 1
 401 000c 83F31188 		msr     BASEPRI, r3
 402              	@ 0 "" 2
 403              		.thumb
 404              	.LBE2:
 405 0010 FFF7FEFF 		bl	dbg_check_lock
 406              		.loc 2 181 0
 407 0014 019B     		ldr	r3, [sp, #4]
 408 0016 DB69     		ldr	r3, [r3, #28]
 409 0018 002B     		cmp	r3, #0
 410 001a 14D0     		beq	.L21
 411              		.loc 2 182 0
 412 001c 019B     		ldr	r3, [sp, #4]
 413 001e DB69     		ldr	r3, [r3, #28]
 414 0020 0198     		ldr	r0, [sp, #4]
 415 0022 9847     		blx	r3
 416              		.loc 2 184 0
 417 0024 0FE0     		b	.L21
 418              	.L19:
 419              	.LBB3:
 420              		.loc 2 186 0
 421 0026 0198     		ldr	r0, [sp, #4]
 422 0028 0099     		ldr	r1, [sp, #0]
 423 002a FFF7FEFF 		bl	qwait
 424 002e 0390     		str	r0, [sp, #12]
 425 0030 039B     		ldr	r3, [sp, #12]
 426 0032 002B     		cmp	r3, #0
 427 0034 08DA     		bge	.L17
 428              		.loc 2 187 0
 429 0036 FFF7FEFF 		bl	dbg_check_unlock
 430              	.LBB4:
 431 003a 4FF00003 		mov	r3, #0
 432              	@ 187 "../chibios_2.4.x/os/kernel/src/chqueues.c" 1
 433 003e 83F31188 		msr     BASEPRI, r3
 434              	@ 0 "" 2
 435              		.thumb
 436              	.LBE4:
 437              		.loc 2 188 0
 438 0042 039B     		ldr	r3, [sp, #12]
 439 0044 25E0     		b	.L18
 440              	.L21:
 441              	.LBE3:
 442              		.loc 2 184 0
 443 0046 00BF     		nop
 444              	.L17:
 445              		.loc 2 184 0 is_stmt 0 discriminator 1
 446 0048 019B     		ldr	r3, [sp, #4]
 447 004a 9B68     		ldr	r3, [r3, #8]
 448 004c 002B     		cmp	r3, #0
ARM GAS  C:\Users\z80\AppData\Local\Temp\ccwXiAvJ.s 			page 9


 449 004e EAD0     		beq	.L19
 450              		.loc 2 192 0 is_stmt 1
 451 0050 019B     		ldr	r3, [sp, #4]
 452 0052 9B68     		ldr	r3, [r3, #8]
 453 0054 03F1FF32 		add	r2, r3, #-1
 454 0058 019B     		ldr	r3, [sp, #4]
 455 005a 9A60     		str	r2, [r3, #8]
 456              		.loc 2 193 0
 457 005c 019B     		ldr	r3, [sp, #4]
 458 005e 9B69     		ldr	r3, [r3, #24]
 459 0060 1A78     		ldrb	r2, [r3, #0]
 460 0062 8DF80B20 		strb	r2, [sp, #11]
 461 0066 03F10102 		add	r2, r3, #1
 462 006a 019B     		ldr	r3, [sp, #4]
 463 006c 9A61     		str	r2, [r3, #24]
 464              		.loc 2 194 0
 465 006e 019B     		ldr	r3, [sp, #4]
 466 0070 9A69     		ldr	r2, [r3, #24]
 467 0072 019B     		ldr	r3, [sp, #4]
 468 0074 1B69     		ldr	r3, [r3, #16]
 469 0076 9A42     		cmp	r2, r3
 470 0078 03D3     		bcc	.L20
 471              		.loc 2 195 0
 472 007a 019B     		ldr	r3, [sp, #4]
 473 007c DA68     		ldr	r2, [r3, #12]
 474 007e 019B     		ldr	r3, [sp, #4]
 475 0080 9A61     		str	r2, [r3, #24]
 476              	.L20:
 477              		.loc 2 197 0
 478 0082 FFF7FEFF 		bl	dbg_check_unlock
 479              	.LBB5:
 480 0086 4FF00003 		mov	r3, #0
 481              	@ 197 "../chibios_2.4.x/os/kernel/src/chqueues.c" 1
 482 008a 83F31188 		msr     BASEPRI, r3
 483              	@ 0 "" 2
 484              		.thumb
 485              	.LBE5:
 486              		.loc 2 198 0
 487 008e 9DF80B30 		ldrb	r3, [sp, #11]	@ zero_extendqisi2
 488              	.L18:
 489              		.loc 2 199 0
 490 0092 1846     		mov	r0, r3
 491 0094 05B0     		add	sp, sp, #20
 492 0096 00BD     		pop	{pc}
 493              		.cfi_endproc
 494              	.LFE11:
 495              		.size	chIQGetTimeout, .-chIQGetTimeout
 496 0098 AFF30080 		.section	.rodata
 496      AFF30080 
 497              		.align	2
 498              	.LC0:
 499 0000 22636849 		.ascii	"\"chIQReadTimeout\"()\000"
 499      51526561 
 499      6454696D 
 499      656F7574 
 499      22282900 
 500              		.section	.text.chIQReadTimeout,"ax",%progbits
ARM GAS  C:\Users\z80\AppData\Local\Temp\ccwXiAvJ.s 			page 10


 501              		.align	2
 502              		.p2align 4,,15
 503              		.global	chIQReadTimeout
 504              		.thumb
 505              		.thumb_func
 506              		.type	chIQReadTimeout, %function
 507              	chIQReadTimeout:
 508              	.LFB12:
 509              		.loc 2 226 0
 510              		.cfi_startproc
 511              		@ args = 0, pretend = 0, frame = 24
 512              		@ frame_needed = 0, uses_anonymous_args = 0
 513 0000 00B5     		push	{lr}
 514              	.LCFI11:
 515              		.cfi_def_cfa_offset 4
 516              		.cfi_offset 14, -4
 517 0002 87B0     		sub	sp, sp, #28
 518              	.LCFI12:
 519              		.cfi_def_cfa_offset 32
 520 0004 0390     		str	r0, [sp, #12]
 521 0006 0291     		str	r1, [sp, #8]
 522 0008 0192     		str	r2, [sp, #4]
 523 000a 0093     		str	r3, [sp, #0]
 524              		.loc 2 227 0
 525 000c 039B     		ldr	r3, [sp, #12]
 526 000e DB69     		ldr	r3, [r3, #28]
 527 0010 0493     		str	r3, [sp, #16]
 528              		.loc 2 228 0
 529 0012 4FF00003 		mov	r3, #0
 530 0016 0593     		str	r3, [sp, #20]
 531              		.loc 2 230 0
 532 0018 019B     		ldr	r3, [sp, #4]
 533 001a 002B     		cmp	r3, #0
 534 001c 05D1     		bne	.L23
 535              		.loc 2 230 0 is_stmt 0 discriminator 1
 536 001e 40F20000 		movw	r0, #:lower16:.LC0
 537 0022 C0F20000 		movt	r0, #:upper16:.LC0
 538 0026 FFF7FEFF 		bl	chDbgPanic
 539              	.L23:
 540              	.LBB6:
 541              		.loc 2 232 0 is_stmt 1
 542 002a 4FF02003 		mov	r3, #32
 543              	@ 232 "../chibios_2.4.x/os/kernel/src/chqueues.c" 1
 544 002e 83F31188 		msr     BASEPRI, r3
 545              	@ 0 "" 2
 546              		.thumb
 547              	.LBE6:
 548 0032 FFF7FEFF 		bl	dbg_check_lock
 549              	.L30:
 550              		.loc 2 234 0
 551 0036 049B     		ldr	r3, [sp, #16]
 552 0038 002B     		cmp	r3, #0
 553 003a 12D0     		beq	.L31
 554              		.loc 2 235 0
 555 003c 049B     		ldr	r3, [sp, #16]
 556 003e 0398     		ldr	r0, [sp, #12]
 557 0040 9847     		blx	r3
ARM GAS  C:\Users\z80\AppData\Local\Temp\ccwXiAvJ.s 			page 11


 558              		.loc 2 237 0
 559 0042 0EE0     		b	.L31
 560              	.L27:
 561              		.loc 2 238 0
 562 0044 0398     		ldr	r0, [sp, #12]
 563 0046 0099     		ldr	r1, [sp, #0]
 564 0048 FFF7FEFF 		bl	qwait
 565 004c 0346     		mov	r3, r0
 566 004e 002B     		cmp	r3, #0
 567 0050 08D0     		beq	.L25
 568              		.loc 2 239 0
 569 0052 FFF7FEFF 		bl	dbg_check_unlock
 570              	.LBB7:
 571 0056 4FF00003 		mov	r3, #0
 572              	@ 239 "../chibios_2.4.x/os/kernel/src/chqueues.c" 1
 573 005a 83F31188 		msr     BASEPRI, r3
 574              	@ 0 "" 2
 575              		.thumb
 576              	.LBE7:
 577              		.loc 2 240 0
 578 005e 059B     		ldr	r3, [sp, #20]
 579 0060 3BE0     		b	.L26
 580              	.L31:
 581              		.loc 2 237 0
 582 0062 00BF     		nop
 583              	.L25:
 584              		.loc 2 237 0 is_stmt 0 discriminator 1
 585 0064 039B     		ldr	r3, [sp, #12]
 586 0066 9B68     		ldr	r3, [r3, #8]
 587 0068 002B     		cmp	r3, #0
 588 006a EBD0     		beq	.L27
 589              		.loc 2 244 0 is_stmt 1
 590 006c 039B     		ldr	r3, [sp, #12]
 591 006e 9B68     		ldr	r3, [r3, #8]
 592 0070 03F1FF32 		add	r2, r3, #-1
 593 0074 039B     		ldr	r3, [sp, #12]
 594 0076 9A60     		str	r2, [r3, #8]
 595              		.loc 2 245 0
 596 0078 039B     		ldr	r3, [sp, #12]
 597 007a 9B69     		ldr	r3, [r3, #24]
 598 007c 1978     		ldrb	r1, [r3, #0]	@ zero_extendqisi2
 599 007e 029A     		ldr	r2, [sp, #8]
 600 0080 1170     		strb	r1, [r2, #0]
 601 0082 029A     		ldr	r2, [sp, #8]
 602 0084 02F10102 		add	r2, r2, #1
 603 0088 0292     		str	r2, [sp, #8]
 604 008a 03F10102 		add	r2, r3, #1
 605 008e 039B     		ldr	r3, [sp, #12]
 606 0090 9A61     		str	r2, [r3, #24]
 607              		.loc 2 246 0
 608 0092 039B     		ldr	r3, [sp, #12]
 609 0094 9A69     		ldr	r2, [r3, #24]
 610 0096 039B     		ldr	r3, [sp, #12]
 611 0098 1B69     		ldr	r3, [r3, #16]
 612 009a 9A42     		cmp	r2, r3
 613 009c 03D3     		bcc	.L28
 614              		.loc 2 247 0
ARM GAS  C:\Users\z80\AppData\Local\Temp\ccwXiAvJ.s 			page 12


 615 009e 039B     		ldr	r3, [sp, #12]
 616 00a0 DA68     		ldr	r2, [r3, #12]
 617 00a2 039B     		ldr	r3, [sp, #12]
 618 00a4 9A61     		str	r2, [r3, #24]
 619              	.L28:
 620              		.loc 2 249 0
 621 00a6 FFF7FEFF 		bl	dbg_check_unlock
 622              	.LBB8:
 623 00aa 4FF00003 		mov	r3, #0
 624              	@ 249 "../chibios_2.4.x/os/kernel/src/chqueues.c" 1
 625 00ae 83F31188 		msr     BASEPRI, r3
 626              	@ 0 "" 2
 627              		.thumb
 628              	.LBE8:
 629              		.loc 2 250 0
 630 00b2 059B     		ldr	r3, [sp, #20]
 631 00b4 03F10103 		add	r3, r3, #1
 632 00b8 0593     		str	r3, [sp, #20]
 633              		.loc 2 251 0
 634 00ba 019B     		ldr	r3, [sp, #4]
 635 00bc 03F1FF33 		add	r3, r3, #-1
 636 00c0 0193     		str	r3, [sp, #4]
 637 00c2 019B     		ldr	r3, [sp, #4]
 638 00c4 002B     		cmp	r3, #0
 639 00c6 01D1     		bne	.L29
 640              		.loc 2 252 0
 641 00c8 059B     		ldr	r3, [sp, #20]
 642 00ca 06E0     		b	.L26
 643              	.L29:
 644              	.LBB9:
 645              		.loc 2 254 0
 646 00cc 4FF02003 		mov	r3, #32
 647              	@ 254 "../chibios_2.4.x/os/kernel/src/chqueues.c" 1
 648 00d0 83F31188 		msr     BASEPRI, r3
 649              	@ 0 "" 2
 650              		.thumb
 651              	.LBE9:
 652 00d4 FFF7FEFF 		bl	dbg_check_lock
 653              		.loc 2 255 0
 654 00d8 ADE7     		b	.L30
 655              	.L26:
 656              		.loc 2 256 0
 657 00da 1846     		mov	r0, r3
 658 00dc 07B0     		add	sp, sp, #28
 659 00de 00BD     		pop	{pc}
 660              		.cfi_endproc
 661              	.LFE12:
 662              		.size	chIQReadTimeout, .-chIQReadTimeout
 663              		.section	.text.chOQInit,"ax",%progbits
 664              		.align	2
 665              		.p2align 4,,15
 666              		.global	chOQInit
 667              		.thumb
 668              		.thumb_func
 669              		.type	chOQInit, %function
 670              	chOQInit:
 671              	.LFB13:
ARM GAS  C:\Users\z80\AppData\Local\Temp\ccwXiAvJ.s 			page 13


 672              		.loc 2 273 0
 673              		.cfi_startproc
 674              		@ args = 0, pretend = 0, frame = 16
 675              		@ frame_needed = 0, uses_anonymous_args = 0
 676              		@ link register save eliminated.
 677 0000 84B0     		sub	sp, sp, #16
 678              	.LCFI13:
 679              		.cfi_def_cfa_offset 16
 680 0002 0390     		str	r0, [sp, #12]
 681 0004 0291     		str	r1, [sp, #8]
 682 0006 0192     		str	r2, [sp, #4]
 683 0008 0093     		str	r3, [sp, #0]
 684              		.loc 2 275 0
 685 000a 039A     		ldr	r2, [sp, #12]
 686 000c 039B     		ldr	r3, [sp, #12]
 687 000e 5A60     		str	r2, [r3, #4]
 688 0010 039B     		ldr	r3, [sp, #12]
 689 0012 5A68     		ldr	r2, [r3, #4]
 690 0014 039B     		ldr	r3, [sp, #12]
 691 0016 1A60     		str	r2, [r3, #0]
 692              		.loc 2 276 0
 693 0018 039B     		ldr	r3, [sp, #12]
 694 001a 019A     		ldr	r2, [sp, #4]
 695 001c 9A60     		str	r2, [r3, #8]
 696              		.loc 2 277 0
 697 001e 039B     		ldr	r3, [sp, #12]
 698 0020 029A     		ldr	r2, [sp, #8]
 699 0022 5A61     		str	r2, [r3, #20]
 700 0024 039B     		ldr	r3, [sp, #12]
 701 0026 5A69     		ldr	r2, [r3, #20]
 702 0028 039B     		ldr	r3, [sp, #12]
 703 002a 9A61     		str	r2, [r3, #24]
 704 002c 039B     		ldr	r3, [sp, #12]
 705 002e 9A69     		ldr	r2, [r3, #24]
 706 0030 039B     		ldr	r3, [sp, #12]
 707 0032 DA60     		str	r2, [r3, #12]
 708              		.loc 2 278 0
 709 0034 029A     		ldr	r2, [sp, #8]
 710 0036 019B     		ldr	r3, [sp, #4]
 711 0038 D218     		adds	r2, r2, r3
 712 003a 039B     		ldr	r3, [sp, #12]
 713 003c 1A61     		str	r2, [r3, #16]
 714              		.loc 2 279 0
 715 003e 039B     		ldr	r3, [sp, #12]
 716 0040 009A     		ldr	r2, [sp, #0]
 717 0042 DA61     		str	r2, [r3, #28]
 718              		.loc 2 280 0
 719 0044 04B0     		add	sp, sp, #16
 720 0046 7047     		bx	lr
 721              		.cfi_endproc
 722              	.LFE13:
 723              		.size	chOQInit, .-chOQInit
 724 0048 AFF30080 		.section	.text.chOQResetI,"ax",%progbits
 724      AFF30080 
 725              		.align	2
 726              		.p2align 4,,15
 727              		.global	chOQResetI
ARM GAS  C:\Users\z80\AppData\Local\Temp\ccwXiAvJ.s 			page 14


 728              		.thumb
 729              		.thumb_func
 730              		.type	chOQResetI, %function
 731              	chOQResetI:
 732              	.LFB14:
 733              		.loc 2 293 0
 734              		.cfi_startproc
 735              		@ args = 0, pretend = 0, frame = 8
 736              		@ frame_needed = 0, uses_anonymous_args = 0
 737 0000 00B5     		push	{lr}
 738              	.LCFI14:
 739              		.cfi_def_cfa_offset 4
 740              		.cfi_offset 14, -4
 741 0002 83B0     		sub	sp, sp, #12
 742              	.LCFI15:
 743              		.cfi_def_cfa_offset 16
 744 0004 0190     		str	r0, [sp, #4]
 745              		.loc 2 295 0
 746 0006 FFF7FEFF 		bl	chDbgCheckClassI
 747              		.loc 2 297 0
 748 000a 019B     		ldr	r3, [sp, #4]
 749 000c DA68     		ldr	r2, [r3, #12]
 750 000e 019B     		ldr	r3, [sp, #4]
 751 0010 5A61     		str	r2, [r3, #20]
 752 0012 019B     		ldr	r3, [sp, #4]
 753 0014 5A69     		ldr	r2, [r3, #20]
 754 0016 019B     		ldr	r3, [sp, #4]
 755 0018 9A61     		str	r2, [r3, #24]
 756              		.loc 2 298 0
 757 001a 019B     		ldr	r3, [sp, #4]
 758 001c 1B69     		ldr	r3, [r3, #16]
 759 001e 1A46     		mov	r2, r3
 760 0020 019B     		ldr	r3, [sp, #4]
 761 0022 DB68     		ldr	r3, [r3, #12]
 762 0024 D31A     		subs	r3, r2, r3
 763 0026 1A46     		mov	r2, r3
 764 0028 019B     		ldr	r3, [sp, #4]
 765 002a 9A60     		str	r2, [r3, #8]
 766              		.loc 2 299 0
 767 002c 0BE0     		b	.L34
 768              	.L35:
 769              		.loc 2 300 0
 770 002e 019B     		ldr	r3, [sp, #4]
 771 0030 1846     		mov	r0, r3
 772 0032 FFF7FEFF 		bl	fifo_remove
 773 0036 0346     		mov	r3, r0
 774 0038 1846     		mov	r0, r3
 775 003a FFF7FEFF 		bl	chSchReadyI
 776 003e 0346     		mov	r3, r0
 777 0040 6FF00102 		mvn	r2, #1
 778 0044 9A62     		str	r2, [r3, #40]
 779              	.L34:
 780              		.loc 2 299 0 discriminator 1
 781 0046 019B     		ldr	r3, [sp, #4]
 782 0048 1A68     		ldr	r2, [r3, #0]
 783 004a 019B     		ldr	r3, [sp, #4]
 784 004c 9A42     		cmp	r2, r3
ARM GAS  C:\Users\z80\AppData\Local\Temp\ccwXiAvJ.s 			page 15


 785 004e EED1     		bne	.L35
 786              		.loc 2 301 0
 787 0050 03B0     		add	sp, sp, #12
 788 0052 00BD     		pop	{pc}
 789              		.cfi_endproc
 790              	.LFE14:
 791              		.size	chOQResetI, .-chOQResetI
 792 0054 AFF30080 		.section	.text.chOQPutTimeout,"ax",%progbits
 792      AFF30080 
 792      AFF30080 
 793              		.align	2
 794              		.p2align 4,,15
 795              		.global	chOQPutTimeout
 796              		.thumb
 797              		.thumb_func
 798              		.type	chOQPutTimeout, %function
 799              	chOQPutTimeout:
 800              	.LFB15:
 801              		.loc 2 325 0
 802              		.cfi_startproc
 803              		@ args = 0, pretend = 0, frame = 24
 804              		@ frame_needed = 0, uses_anonymous_args = 0
 805 0000 00B5     		push	{lr}
 806              	.LCFI16:
 807              		.cfi_def_cfa_offset 4
 808              		.cfi_offset 14, -4
 809 0002 87B0     		sub	sp, sp, #28
 810              	.LCFI17:
 811              		.cfi_def_cfa_offset 32
 812 0004 0390     		str	r0, [sp, #12]
 813 0006 0B46     		mov	r3, r1
 814 0008 0192     		str	r2, [sp, #4]
 815 000a 8DF80B30 		strb	r3, [sp, #11]
 816              	.LBB10:
 817              		.loc 2 327 0
 818 000e 4FF02003 		mov	r3, #32
 819              	@ 327 "../chibios_2.4.x/os/kernel/src/chqueues.c" 1
 820 0012 83F31188 		msr     BASEPRI, r3
 821              	@ 0 "" 2
 822              		.thumb
 823              	.LBE10:
 824 0016 FFF7FEFF 		bl	dbg_check_lock
 825              		.loc 2 328 0
 826 001a 0FE0     		b	.L37
 827              	.L39:
 828              	.LBB11:
 829              		.loc 2 331 0
 830 001c 0398     		ldr	r0, [sp, #12]
 831 001e 0199     		ldr	r1, [sp, #4]
 832 0020 FFF7FEFF 		bl	qwait
 833 0024 0590     		str	r0, [sp, #20]
 834 0026 059B     		ldr	r3, [sp, #20]
 835 0028 002B     		cmp	r3, #0
 836 002a 07DA     		bge	.L37
 837              		.loc 2 332 0
 838 002c FFF7FEFF 		bl	dbg_check_unlock
 839              	.LBB12:
ARM GAS  C:\Users\z80\AppData\Local\Temp\ccwXiAvJ.s 			page 16


 840 0030 4FF00003 		mov	r3, #0
 841              	@ 332 "../chibios_2.4.x/os/kernel/src/chqueues.c" 1
 842 0034 83F31188 		msr     BASEPRI, r3
 843              	@ 0 "" 2
 844              		.thumb
 845              	.LBE12:
 846              		.loc 2 333 0
 847 0038 059B     		ldr	r3, [sp, #20]
 848 003a 2CE0     		b	.L38
 849              	.L37:
 850              	.LBE11:
 851              		.loc 2 328 0 discriminator 1
 852 003c 039B     		ldr	r3, [sp, #12]
 853 003e 9B68     		ldr	r3, [r3, #8]
 854 0040 002B     		cmp	r3, #0
 855 0042 EBD0     		beq	.L39
 856              		.loc 2 337 0
 857 0044 039B     		ldr	r3, [sp, #12]
 858 0046 9B68     		ldr	r3, [r3, #8]
 859 0048 03F1FF32 		add	r2, r3, #-1
 860 004c 039B     		ldr	r3, [sp, #12]
 861 004e 9A60     		str	r2, [r3, #8]
 862              		.loc 2 338 0
 863 0050 039B     		ldr	r3, [sp, #12]
 864 0052 5B69     		ldr	r3, [r3, #20]
 865 0054 9DF80B20 		ldrb	r2, [sp, #11]
 866 0058 1A70     		strb	r2, [r3, #0]
 867 005a 03F10102 		add	r2, r3, #1
 868 005e 039B     		ldr	r3, [sp, #12]
 869 0060 5A61     		str	r2, [r3, #20]
 870              		.loc 2 339 0
 871 0062 039B     		ldr	r3, [sp, #12]
 872 0064 5A69     		ldr	r2, [r3, #20]
 873 0066 039B     		ldr	r3, [sp, #12]
 874 0068 1B69     		ldr	r3, [r3, #16]
 875 006a 9A42     		cmp	r2, r3
 876 006c 03D3     		bcc	.L40
 877              		.loc 2 340 0
 878 006e 039B     		ldr	r3, [sp, #12]
 879 0070 DA68     		ldr	r2, [r3, #12]
 880 0072 039B     		ldr	r3, [sp, #12]
 881 0074 5A61     		str	r2, [r3, #20]
 882              	.L40:
 883              		.loc 2 342 0
 884 0076 039B     		ldr	r3, [sp, #12]
 885 0078 DB69     		ldr	r3, [r3, #28]
 886 007a 002B     		cmp	r3, #0
 887 007c 03D0     		beq	.L41
 888              		.loc 2 343 0
 889 007e 039B     		ldr	r3, [sp, #12]
 890 0080 DB69     		ldr	r3, [r3, #28]
 891 0082 0398     		ldr	r0, [sp, #12]
 892 0084 9847     		blx	r3
 893              	.L41:
 894              		.loc 2 345 0
 895 0086 FFF7FEFF 		bl	dbg_check_unlock
 896              	.LBB13:
ARM GAS  C:\Users\z80\AppData\Local\Temp\ccwXiAvJ.s 			page 17


 897 008a 4FF00003 		mov	r3, #0
 898              	@ 345 "../chibios_2.4.x/os/kernel/src/chqueues.c" 1
 899 008e 83F31188 		msr     BASEPRI, r3
 900              	@ 0 "" 2
 901              		.thumb
 902              	.LBE13:
 903              		.loc 2 346 0
 904 0092 4FF00003 		mov	r3, #0
 905              	.L38:
 906              		.loc 2 347 0
 907 0096 1846     		mov	r0, r3
 908 0098 07B0     		add	sp, sp, #28
 909 009a 00BD     		pop	{pc}
 910              		.cfi_endproc
 911              	.LFE15:
 912              		.size	chOQPutTimeout, .-chOQPutTimeout
 913 009c AFF30080 		.section	.text.chOQGetI,"ax",%progbits
 914              		.align	2
 915              		.p2align 4,,15
 916              		.global	chOQGetI
 917              		.thumb
 918              		.thumb_func
 919              		.type	chOQGetI, %function
 920              	chOQGetI:
 921              	.LFB16:
 922              		.loc 2 359 0
 923              		.cfi_startproc
 924              		@ args = 0, pretend = 0, frame = 16
 925              		@ frame_needed = 0, uses_anonymous_args = 0
 926 0000 00B5     		push	{lr}
 927              	.LCFI18:
 928              		.cfi_def_cfa_offset 4
 929              		.cfi_offset 14, -4
 930 0002 85B0     		sub	sp, sp, #20
 931              	.LCFI19:
 932              		.cfi_def_cfa_offset 24
 933 0004 0190     		str	r0, [sp, #4]
 934              		.loc 2 362 0
 935 0006 FFF7FEFF 		bl	chDbgCheckClassI
 936              		.loc 2 364 0
 937 000a 019B     		ldr	r3, [sp, #4]
 938 000c 5A69     		ldr	r2, [r3, #20]
 939 000e 019B     		ldr	r3, [sp, #4]
 940 0010 9B69     		ldr	r3, [r3, #24]
 941 0012 9A42     		cmp	r2, r3
 942 0014 06D1     		bne	.L43
 943              		.loc 2 364 0 is_stmt 0 discriminator 1
 944 0016 019B     		ldr	r3, [sp, #4]
 945 0018 9B68     		ldr	r3, [r3, #8]
 946 001a 002B     		cmp	r3, #0
 947 001c 02D0     		beq	.L43
 948              		.loc 2 365 0 is_stmt 1
 949 001e 6FF00203 		mvn	r3, #2
 950 0022 2BE0     		b	.L44
 951              	.L43:
 952              		.loc 2 367 0
 953 0024 019B     		ldr	r3, [sp, #4]
ARM GAS  C:\Users\z80\AppData\Local\Temp\ccwXiAvJ.s 			page 18


 954 0026 9B68     		ldr	r3, [r3, #8]
 955 0028 03F10102 		add	r2, r3, #1
 956 002c 019B     		ldr	r3, [sp, #4]
 957 002e 9A60     		str	r2, [r3, #8]
 958              		.loc 2 368 0
 959 0030 019B     		ldr	r3, [sp, #4]
 960 0032 9B69     		ldr	r3, [r3, #24]
 961 0034 1A78     		ldrb	r2, [r3, #0]
 962 0036 8DF80F20 		strb	r2, [sp, #15]
 963 003a 03F10102 		add	r2, r3, #1
 964 003e 019B     		ldr	r3, [sp, #4]
 965 0040 9A61     		str	r2, [r3, #24]
 966              		.loc 2 369 0
 967 0042 019B     		ldr	r3, [sp, #4]
 968 0044 9A69     		ldr	r2, [r3, #24]
 969 0046 019B     		ldr	r3, [sp, #4]
 970 0048 1B69     		ldr	r3, [r3, #16]
 971 004a 9A42     		cmp	r2, r3
 972 004c 03D3     		bcc	.L45
 973              		.loc 2 370 0
 974 004e 019B     		ldr	r3, [sp, #4]
 975 0050 DA68     		ldr	r2, [r3, #12]
 976 0052 019B     		ldr	r3, [sp, #4]
 977 0054 9A61     		str	r2, [r3, #24]
 978              	.L45:
 979              		.loc 2 372 0
 980 0056 019B     		ldr	r3, [sp, #4]
 981 0058 1A68     		ldr	r2, [r3, #0]
 982 005a 019B     		ldr	r3, [sp, #4]
 983 005c 9A42     		cmp	r2, r3
 984 005e 0BD0     		beq	.L46
 985              		.loc 2 373 0
 986 0060 019B     		ldr	r3, [sp, #4]
 987 0062 1846     		mov	r0, r3
 988 0064 FFF7FEFF 		bl	fifo_remove
 989 0068 0346     		mov	r3, r0
 990 006a 1846     		mov	r0, r3
 991 006c FFF7FEFF 		bl	chSchReadyI
 992 0070 0346     		mov	r3, r0
 993 0072 4FF00002 		mov	r2, #0
 994 0076 9A62     		str	r2, [r3, #40]
 995              	.L46:
 996              		.loc 2 375 0
 997 0078 9DF80F30 		ldrb	r3, [sp, #15]	@ zero_extendqisi2
 998              	.L44:
 999              		.loc 2 376 0
 1000 007c 1846     		mov	r0, r3
 1001 007e 05B0     		add	sp, sp, #20
 1002 0080 00BD     		pop	{pc}
 1003              		.cfi_endproc
 1004              	.LFE16:
 1005              		.size	chOQGetI, .-chOQGetI
 1006 0082 00BFAFF3 		.section	.rodata
 1006      0080AFF3 
 1006      0080AFF3 
 1006      0080
 1007              		.align	2
ARM GAS  C:\Users\z80\AppData\Local\Temp\ccwXiAvJ.s 			page 19


 1008              	.LC1:
 1009 0014 2263684F 		.ascii	"\"chOQWriteTimeout\"()\000"
 1009      51577269 
 1009      74655469 
 1009      6D656F75 
 1009      74222829 
 1010 0029 000000   		.section	.text.chOQWriteTimeout,"ax",%progbits
 1011              		.align	2
 1012              		.p2align 4,,15
 1013              		.global	chOQWriteTimeout
 1014              		.thumb
 1015              		.thumb_func
 1016              		.type	chOQWriteTimeout, %function
 1017              	chOQWriteTimeout:
 1018              	.LFB17:
 1019              		.loc 2 403 0
 1020              		.cfi_startproc
 1021              		@ args = 0, pretend = 0, frame = 24
 1022              		@ frame_needed = 0, uses_anonymous_args = 0
 1023 0000 00B5     		push	{lr}
 1024              	.LCFI20:
 1025              		.cfi_def_cfa_offset 4
 1026              		.cfi_offset 14, -4
 1027 0002 87B0     		sub	sp, sp, #28
 1028              	.LCFI21:
 1029              		.cfi_def_cfa_offset 32
 1030 0004 0390     		str	r0, [sp, #12]
 1031 0006 0291     		str	r1, [sp, #8]
 1032 0008 0192     		str	r2, [sp, #4]
 1033 000a 0093     		str	r3, [sp, #0]
 1034              		.loc 2 404 0
 1035 000c 039B     		ldr	r3, [sp, #12]
 1036 000e DB69     		ldr	r3, [r3, #28]
 1037 0010 0493     		str	r3, [sp, #16]
 1038              		.loc 2 405 0
 1039 0012 4FF00003 		mov	r3, #0
 1040 0016 0593     		str	r3, [sp, #20]
 1041              		.loc 2 407 0
 1042 0018 019B     		ldr	r3, [sp, #4]
 1043 001a 002B     		cmp	r3, #0
 1044 001c 05D1     		bne	.L48
 1045              		.loc 2 407 0 is_stmt 0 discriminator 1
 1046 001e 40F20000 		movw	r0, #:lower16:.LC1
 1047 0022 C0F20000 		movt	r0, #:upper16:.LC1
 1048 0026 FFF7FEFF 		bl	chDbgPanic
 1049              	.L48:
 1050              	.LBB14:
 1051              		.loc 2 409 0 is_stmt 1
 1052 002a 4FF02003 		mov	r3, #32
 1053              	@ 409 "../chibios_2.4.x/os/kernel/src/chqueues.c" 1
 1054 002e 83F31188 		msr     BASEPRI, r3
 1055              	@ 0 "" 2
 1056              		.thumb
 1057              	.LBE14:
 1058 0032 FFF7FEFF 		bl	dbg_check_lock
 1059              		.loc 2 411 0
 1060 0036 0EE0     		b	.L49
ARM GAS  C:\Users\z80\AppData\Local\Temp\ccwXiAvJ.s 			page 20


 1061              	.L51:
 1062              		.loc 2 412 0
 1063 0038 0398     		ldr	r0, [sp, #12]
 1064 003a 0099     		ldr	r1, [sp, #0]
 1065 003c FFF7FEFF 		bl	qwait
 1066 0040 0346     		mov	r3, r0
 1067 0042 002B     		cmp	r3, #0
 1068 0044 07D0     		beq	.L49
 1069              		.loc 2 413 0
 1070 0046 FFF7FEFF 		bl	dbg_check_unlock
 1071              	.LBB15:
 1072 004a 4FF00003 		mov	r3, #0
 1073              	@ 413 "../chibios_2.4.x/os/kernel/src/chqueues.c" 1
 1074 004e 83F31188 		msr     BASEPRI, r3
 1075              	@ 0 "" 2
 1076              		.thumb
 1077              	.LBE15:
 1078              		.loc 2 414 0
 1079 0052 059B     		ldr	r3, [sp, #20]
 1080 0054 41E0     		b	.L50
 1081              	.L49:
 1082              		.loc 2 411 0 discriminator 1
 1083 0056 039B     		ldr	r3, [sp, #12]
 1084 0058 9B68     		ldr	r3, [r3, #8]
 1085 005a 002B     		cmp	r3, #0
 1086 005c ECD0     		beq	.L51
 1087              		.loc 2 417 0
 1088 005e 039B     		ldr	r3, [sp, #12]
 1089 0060 9B68     		ldr	r3, [r3, #8]
 1090 0062 03F1FF32 		add	r2, r3, #-1
 1091 0066 039B     		ldr	r3, [sp, #12]
 1092 0068 9A60     		str	r2, [r3, #8]
 1093              		.loc 2 418 0
 1094 006a 039B     		ldr	r3, [sp, #12]
 1095 006c 5B69     		ldr	r3, [r3, #20]
 1096 006e 029A     		ldr	r2, [sp, #8]
 1097 0070 1278     		ldrb	r2, [r2, #0]	@ zero_extendqisi2
 1098 0072 1A70     		strb	r2, [r3, #0]
 1099 0074 03F10102 		add	r2, r3, #1
 1100 0078 039B     		ldr	r3, [sp, #12]
 1101 007a 5A61     		str	r2, [r3, #20]
 1102 007c 029B     		ldr	r3, [sp, #8]
 1103 007e 03F10103 		add	r3, r3, #1
 1104 0082 0293     		str	r3, [sp, #8]
 1105              		.loc 2 419 0
 1106 0084 039B     		ldr	r3, [sp, #12]
 1107 0086 5A69     		ldr	r2, [r3, #20]
 1108 0088 039B     		ldr	r3, [sp, #12]
 1109 008a 1B69     		ldr	r3, [r3, #16]
 1110 008c 9A42     		cmp	r2, r3
 1111 008e 03D3     		bcc	.L52
 1112              		.loc 2 420 0
 1113 0090 039B     		ldr	r3, [sp, #12]
 1114 0092 DA68     		ldr	r2, [r3, #12]
 1115 0094 039B     		ldr	r3, [sp, #12]
 1116 0096 5A61     		str	r2, [r3, #20]
 1117              	.L52:
ARM GAS  C:\Users\z80\AppData\Local\Temp\ccwXiAvJ.s 			page 21


 1118              		.loc 2 422 0
 1119 0098 049B     		ldr	r3, [sp, #16]
 1120 009a 002B     		cmp	r3, #0
 1121 009c 02D0     		beq	.L53
 1122              		.loc 2 423 0
 1123 009e 049B     		ldr	r3, [sp, #16]
 1124 00a0 0398     		ldr	r0, [sp, #12]
 1125 00a2 9847     		blx	r3
 1126              	.L53:
 1127              		.loc 2 425 0
 1128 00a4 FFF7FEFF 		bl	dbg_check_unlock
 1129              	.LBB16:
 1130 00a8 4FF00003 		mov	r3, #0
 1131              	@ 425 "../chibios_2.4.x/os/kernel/src/chqueues.c" 1
 1132 00ac 83F31188 		msr     BASEPRI, r3
 1133              	@ 0 "" 2
 1134              		.thumb
 1135              	.LBE16:
 1136              		.loc 2 426 0
 1137 00b0 059B     		ldr	r3, [sp, #20]
 1138 00b2 03F10103 		add	r3, r3, #1
 1139 00b6 0593     		str	r3, [sp, #20]
 1140              		.loc 2 427 0
 1141 00b8 019B     		ldr	r3, [sp, #4]
 1142 00ba 03F1FF33 		add	r3, r3, #-1
 1143 00be 0193     		str	r3, [sp, #4]
 1144 00c0 019B     		ldr	r3, [sp, #4]
 1145 00c2 002B     		cmp	r3, #0
 1146 00c4 01D1     		bne	.L54
 1147              		.loc 2 428 0
 1148 00c6 059B     		ldr	r3, [sp, #20]
 1149 00c8 07E0     		b	.L50
 1150              	.L54:
 1151              	.LBB17:
 1152              		.loc 2 429 0
 1153 00ca 4FF02003 		mov	r3, #32
 1154              	@ 429 "../chibios_2.4.x/os/kernel/src/chqueues.c" 1
 1155 00ce 83F31188 		msr     BASEPRI, r3
 1156              	@ 0 "" 2
 1157              		.thumb
 1158              	.LBE17:
 1159 00d2 FFF7FEFF 		bl	dbg_check_lock
 1160              		.loc 2 430 0
 1161 00d6 00BF     		nop
 1162              		.loc 2 411 0
 1163 00d8 BDE7     		b	.L49
 1164              	.L50:
 1165              		.loc 2 431 0
 1166 00da 1846     		mov	r0, r3
 1167 00dc 07B0     		add	sp, sp, #28
 1168 00de 00BD     		pop	{pc}
 1169              		.cfi_endproc
 1170              	.LFE17:
 1171              		.size	chOQWriteTimeout, .-chOQWriteTimeout
 1172              		.text
 1173              	.Letext0:
 1174              		.file 3 "c:\\programs\\codesourcery\\2011.03-56\\bin\\../lib/gcc/arm-none-eabi/4.6.3/include/stdde
ARM GAS  C:\Users\z80\AppData\Local\Temp\ccwXiAvJ.s 			page 22


 1175              		.file 4 "c:\\programs\\codesourcery\\2011.03-56\\bin\\../lib/gcc/arm-none-eabi/4.6.3/../../../../a
 1176              		.file 5 "../chibios_2.4.x/os/ports/GCC/ARMCMx/chtypes.h"
 1177              		.file 6 "../chibios_2.4.x/os/kernel/include/chlists.h"
 1178              		.file 7 "../chibios_2.4.x/os/kernel/include/chthreads.h"
 1179              		.file 8 "../chibios_2.4.x/os/ports/GCC/ARMCMx/chcore_v7m.h"
 1180              		.file 9 "../chibios_2.4.x/os/kernel/include/chschd.h"
 1181              		.file 10 "../chibios_2.4.x/os/kernel/include/chmtx.h"
 1182              		.file 11 "../chibios_2.4.x/os/kernel/include/chqueues.h"
 1183              		.section	.debug_info,"",%progbits
 1184              	.Ldebug_info0:
 1185 0000 4B0A0000 		.4byte	0xa4b
 1186 0004 0200     		.2byte	0x2
 1187 0006 00000000 		.4byte	.Ldebug_abbrev0
 1188 000a 04       		.byte	0x4
 1189 000b 01       		.uleb128 0x1
 1190 000c D6020000 		.4byte	.LASF90
 1191 0010 01       		.byte	0x1
 1192 0011 7A030000 		.4byte	.LASF91
 1193 0015 B7000000 		.4byte	.LASF92
 1194 0019 00000000 		.4byte	0
 1195 001d 00000000 		.4byte	0
 1196 0021 00000000 		.4byte	.Ldebug_ranges0+0
 1197 0025 00000000 		.4byte	.Ldebug_line0
 1198 0029 02       		.uleb128 0x2
 1199 002a 04       		.byte	0x4
 1200 002b 05       		.byte	0x5
 1201 002c 696E7400 		.ascii	"int\000"
 1202 0030 03       		.uleb128 0x3
 1203 0031 21000000 		.4byte	.LASF2
 1204 0035 03       		.byte	0x3
 1205 0036 D4       		.byte	0xd4
 1206 0037 3B000000 		.4byte	0x3b
 1207 003b 04       		.uleb128 0x4
 1208 003c 04       		.byte	0x4
 1209 003d 07       		.byte	0x7
 1210 003e 52010000 		.4byte	.LASF0
 1211 0042 04       		.uleb128 0x4
 1212 0043 01       		.byte	0x1
 1213 0044 06       		.byte	0x6
 1214 0045 9C000000 		.4byte	.LASF1
 1215 0049 03       		.uleb128 0x3
 1216 004a 5A030000 		.4byte	.LASF3
 1217 004e 04       		.byte	0x4
 1218 004f 2A       		.byte	0x2a
 1219 0050 54000000 		.4byte	0x54
 1220 0054 04       		.uleb128 0x4
 1221 0055 01       		.byte	0x1
 1222 0056 08       		.byte	0x8
 1223 0057 67020000 		.4byte	.LASF4
 1224 005b 04       		.uleb128 0x4
 1225 005c 02       		.byte	0x2
 1226 005d 05       		.byte	0x5
 1227 005e 7F020000 		.4byte	.LASF5
 1228 0062 04       		.uleb128 0x4
 1229 0063 02       		.byte	0x2
 1230 0064 07       		.byte	0x7
 1231 0065 89010000 		.4byte	.LASF6
ARM GAS  C:\Users\z80\AppData\Local\Temp\ccwXiAvJ.s 			page 23


 1232 0069 03       		.uleb128 0x3
 1233 006a 5F020000 		.4byte	.LASF7
 1234 006e 04       		.byte	0x4
 1235 006f 4F       		.byte	0x4f
 1236 0070 74000000 		.4byte	0x74
 1237 0074 04       		.uleb128 0x4
 1238 0075 04       		.byte	0x4
 1239 0076 05       		.byte	0x5
 1240 0077 E4000000 		.4byte	.LASF8
 1241 007b 03       		.uleb128 0x3
 1242 007c C5020000 		.4byte	.LASF9
 1243 0080 04       		.byte	0x4
 1244 0081 50       		.byte	0x50
 1245 0082 86000000 		.4byte	0x86
 1246 0086 04       		.uleb128 0x4
 1247 0087 04       		.byte	0x4
 1248 0088 07       		.byte	0x7
 1249 0089 6A010000 		.4byte	.LASF10
 1250 008d 04       		.uleb128 0x4
 1251 008e 08       		.byte	0x8
 1252 008f 05       		.byte	0x5
 1253 0090 8E000000 		.4byte	.LASF11
 1254 0094 03       		.uleb128 0x3
 1255 0095 38000000 		.4byte	.LASF12
 1256 0099 04       		.byte	0x4
 1257 009a 78       		.byte	0x78
 1258 009b 9F000000 		.4byte	0x9f
 1259 009f 04       		.uleb128 0x4
 1260 00a0 08       		.byte	0x8
 1261 00a1 07       		.byte	0x7
 1262 00a2 5D000000 		.4byte	.LASF13
 1263 00a6 03       		.uleb128 0x3
 1264 00a7 A8000000 		.4byte	.LASF14
 1265 00ab 05       		.byte	0x5
 1266 00ac 2E       		.byte	0x2e
 1267 00ad 69000000 		.4byte	0x69
 1268 00b1 03       		.uleb128 0x3
 1269 00b2 A8010000 		.4byte	.LASF15
 1270 00b6 05       		.byte	0x5
 1271 00b7 2F       		.byte	0x2f
 1272 00b8 49000000 		.4byte	0x49
 1273 00bc 03       		.uleb128 0x3
 1274 00bd ED000000 		.4byte	.LASF16
 1275 00c1 05       		.byte	0x5
 1276 00c2 30       		.byte	0x30
 1277 00c3 49000000 		.4byte	0x49
 1278 00c7 03       		.uleb128 0x3
 1279 00c8 4F020000 		.4byte	.LASF17
 1280 00cc 05       		.byte	0x5
 1281 00cd 32       		.byte	0x32
 1282 00ce 7B000000 		.4byte	0x7b
 1283 00d2 03       		.uleb128 0x3
 1284 00d3 A2010000 		.4byte	.LASF18
 1285 00d7 05       		.byte	0x5
 1286 00d8 33       		.byte	0x33
 1287 00d9 69000000 		.4byte	0x69
 1288 00dd 03       		.uleb128 0x3
ARM GAS  C:\Users\z80\AppData\Local\Temp\ccwXiAvJ.s 			page 24


 1289 00de BC010000 		.4byte	.LASF19
 1290 00e2 05       		.byte	0x5
 1291 00e3 35       		.byte	0x35
 1292 00e4 7B000000 		.4byte	0x7b
 1293 00e8 03       		.uleb128 0x3
 1294 00e9 FA020000 		.4byte	.LASF20
 1295 00ed 05       		.byte	0x5
 1296 00ee 36       		.byte	0x36
 1297 00ef 7B000000 		.4byte	0x7b
 1298 00f3 03       		.uleb128 0x3
 1299 00f4 41010000 		.4byte	.LASF21
 1300 00f8 05       		.byte	0x5
 1301 00f9 37       		.byte	0x37
 1302 00fa 69000000 		.4byte	0x69
 1303 00fe 03       		.uleb128 0x3
 1304 00ff B3020000 		.4byte	.LASF22
 1305 0103 06       		.byte	0x6
 1306 0104 2A       		.byte	0x2a
 1307 0105 09010000 		.4byte	0x109
 1308 0109 05       		.uleb128 0x5
 1309 010a B3020000 		.4byte	.LASF22
 1310 010e 48       		.byte	0x48
 1311 010f 07       		.byte	0x7
 1312 0110 5E       		.byte	0x5e
 1313 0111 12020000 		.4byte	0x212
 1314 0115 06       		.uleb128 0x6
 1315 0116 9F020000 		.4byte	.LASF23
 1316 011a 07       		.byte	0x7
 1317 011b 5F       		.byte	0x5f
 1318 011c 37020000 		.4byte	0x237
 1319 0120 02       		.byte	0x2
 1320 0121 23       		.byte	0x23
 1321 0122 00       		.uleb128 0
 1322 0123 06       		.uleb128 0x6
 1323 0124 48020000 		.4byte	.LASF24
 1324 0128 07       		.byte	0x7
 1325 0129 61       		.byte	0x61
 1326 012a 37020000 		.4byte	0x237
 1327 012e 02       		.byte	0x2
 1328 012f 23       		.byte	0x23
 1329 0130 04       		.uleb128 0x4
 1330 0131 06       		.uleb128 0x6
 1331 0132 7D000000 		.4byte	.LASF25
 1332 0136 07       		.byte	0x7
 1333 0137 63       		.byte	0x63
 1334 0138 C7000000 		.4byte	0xc7
 1335 013c 02       		.byte	0x2
 1336 013d 23       		.byte	0x23
 1337 013e 08       		.uleb128 0x8
 1338 013f 06       		.uleb128 0x6
 1339 0140 A4030000 		.4byte	.LASF26
 1340 0144 07       		.byte	0x7
 1341 0145 64       		.byte	0x64
 1342 0146 0F030000 		.4byte	0x30f
 1343 014a 02       		.byte	0x2
 1344 014b 23       		.byte	0x23
 1345 014c 0C       		.uleb128 0xc
ARM GAS  C:\Users\z80\AppData\Local\Temp\ccwXiAvJ.s 			page 25


 1346 014d 06       		.uleb128 0x6
 1347 014e 10010000 		.4byte	.LASF27
 1348 0152 07       		.byte	0x7
 1349 0153 66       		.byte	0x66
 1350 0154 37020000 		.4byte	0x237
 1351 0158 02       		.byte	0x2
 1352 0159 23       		.byte	0x23
 1353 015a 10       		.uleb128 0x10
 1354 015b 06       		.uleb128 0x6
 1355 015c 0C020000 		.4byte	.LASF28
 1356 0160 07       		.byte	0x7
 1357 0161 67       		.byte	0x67
 1358 0162 37020000 		.4byte	0x237
 1359 0166 02       		.byte	0x2
 1360 0167 23       		.byte	0x23
 1361 0168 14       		.uleb128 0x14
 1362 0169 06       		.uleb128 0x6
 1363 016a 69030000 		.4byte	.LASF29
 1364 016e 07       		.byte	0x7
 1365 016f 6E       		.byte	0x6e
 1366 0170 2A040000 		.4byte	0x42a
 1367 0174 02       		.byte	0x2
 1368 0175 23       		.byte	0x23
 1369 0176 18       		.uleb128 0x18
 1370 0177 06       		.uleb128 0x6
 1371 0178 47010000 		.4byte	.LASF30
 1372 017c 07       		.byte	0x7
 1373 017d 74       		.byte	0x74
 1374 017e 3C040000 		.4byte	0x43c
 1375 0182 02       		.byte	0x2
 1376 0183 23       		.byte	0x23
 1377 0184 1C       		.uleb128 0x1c
 1378 0185 06       		.uleb128 0x6
 1379 0186 89020000 		.4byte	.LASF31
 1380 018a 07       		.byte	0x7
 1381 018b 79       		.byte	0x79
 1382 018c BC000000 		.4byte	0xbc
 1383 0190 02       		.byte	0x2
 1384 0191 23       		.byte	0x23
 1385 0192 20       		.uleb128 0x20
 1386 0193 06       		.uleb128 0x6
 1387 0194 AB020000 		.4byte	.LASF32
 1388 0198 07       		.byte	0x7
 1389 0199 7D       		.byte	0x7d
 1390 019a B1000000 		.4byte	0xb1
 1391 019e 02       		.byte	0x2
 1392 019f 23       		.byte	0x23
 1393 01a0 21       		.uleb128 0x21
 1394 01a1 06       		.uleb128 0x6
 1395 01a2 1A030000 		.4byte	.LASF33
 1396 01a6 07       		.byte	0x7
 1397 01a7 89       		.byte	0x89
 1398 01a8 32030000 		.4byte	0x332
 1399 01ac 02       		.byte	0x2
 1400 01ad 23       		.byte	0x23
 1401 01ae 24       		.uleb128 0x24
 1402 01af 07       		.uleb128 0x7
ARM GAS  C:\Users\z80\AppData\Local\Temp\ccwXiAvJ.s 			page 26


 1403 01b0 705F7500 		.ascii	"p_u\000"
 1404 01b4 07       		.byte	0x7
 1405 01b5 AE       		.byte	0xae
 1406 01b6 F5030000 		.4byte	0x3f5
 1407 01ba 02       		.byte	0x2
 1408 01bb 23       		.byte	0x23
 1409 01bc 28       		.uleb128 0x28
 1410 01bd 06       		.uleb128 0x6
 1411 01be AA030000 		.4byte	.LASF34
 1412 01c2 07       		.byte	0x7
 1413 01c3 B3       		.byte	0xb3
 1414 01c4 5F020000 		.4byte	0x25f
 1415 01c8 02       		.byte	0x2
 1416 01c9 23       		.byte	0x23
 1417 01ca 2C       		.uleb128 0x2c
 1418 01cb 06       		.uleb128 0x6
 1419 01cc 28030000 		.4byte	.LASF35
 1420 01d0 07       		.byte	0x7
 1421 01d1 B9       		.byte	0xb9
 1422 01d2 3D020000 		.4byte	0x23d
 1423 01d6 02       		.byte	0x2
 1424 01d7 23       		.byte	0x23
 1425 01d8 30       		.uleb128 0x30
 1426 01d9 06       		.uleb128 0x6
 1427 01da 09000000 		.4byte	.LASF36
 1428 01de 07       		.byte	0x7
 1429 01df BD       		.byte	0xbd
 1430 01e0 D2000000 		.4byte	0xd2
 1431 01e4 02       		.byte	0x2
 1432 01e5 23       		.byte	0x23
 1433 01e6 38       		.uleb128 0x38
 1434 01e7 06       		.uleb128 0x6
 1435 01e8 BA020000 		.4byte	.LASF37
 1436 01ec 07       		.byte	0x7
 1437 01ed C3       		.byte	0xc3
 1438 01ee DD000000 		.4byte	0xdd
 1439 01f2 02       		.byte	0x2
 1440 01f3 23       		.byte	0x23
 1441 01f4 3C       		.uleb128 0x3c
 1442 01f5 06       		.uleb128 0x6
 1443 01f6 75020000 		.4byte	.LASF38
 1444 01fa 07       		.byte	0x7
 1445 01fb CA       		.byte	0xca
 1446 01fc 42040000 		.4byte	0x442
 1447 0200 02       		.byte	0x2
 1448 0201 23       		.byte	0x23
 1449 0202 40       		.uleb128 0x40
 1450 0203 06       		.uleb128 0x6
 1451 0204 04030000 		.4byte	.LASF39
 1452 0208 07       		.byte	0x7
 1453 0209 CE       		.byte	0xce
 1454 020a C7000000 		.4byte	0xc7
 1455 020e 02       		.byte	0x2
 1456 020f 23       		.byte	0x23
 1457 0210 44       		.uleb128 0x44
 1458 0211 00       		.byte	0
 1459 0212 08       		.uleb128 0x8
ARM GAS  C:\Users\z80\AppData\Local\Temp\ccwXiAvJ.s 			page 27


 1460 0213 08       		.byte	0x8
 1461 0214 06       		.byte	0x6
 1462 0215 61       		.byte	0x61
 1463 0216 37020000 		.4byte	0x237
 1464 021a 06       		.uleb128 0x6
 1465 021b 9F020000 		.4byte	.LASF23
 1466 021f 06       		.byte	0x6
 1467 0220 62       		.byte	0x62
 1468 0221 37020000 		.4byte	0x237
 1469 0225 02       		.byte	0x2
 1470 0226 23       		.byte	0x23
 1471 0227 00       		.uleb128 0
 1472 0228 06       		.uleb128 0x6
 1473 0229 48020000 		.4byte	.LASF24
 1474 022d 06       		.byte	0x6
 1475 022e 64       		.byte	0x64
 1476 022f 37020000 		.4byte	0x237
 1477 0233 02       		.byte	0x2
 1478 0234 23       		.byte	0x23
 1479 0235 04       		.uleb128 0x4
 1480 0236 00       		.byte	0
 1481 0237 09       		.uleb128 0x9
 1482 0238 04       		.byte	0x4
 1483 0239 FE000000 		.4byte	0xfe
 1484 023d 03       		.uleb128 0x3
 1485 023e 1A020000 		.4byte	.LASF40
 1486 0242 06       		.byte	0x6
 1487 0243 66       		.byte	0x66
 1488 0244 12020000 		.4byte	0x212
 1489 0248 08       		.uleb128 0x8
 1490 0249 04       		.byte	0x4
 1491 024a 06       		.byte	0x6
 1492 024b 6B       		.byte	0x6b
 1493 024c 5F020000 		.4byte	0x25f
 1494 0250 06       		.uleb128 0x6
 1495 0251 9F020000 		.4byte	.LASF23
 1496 0255 06       		.byte	0x6
 1497 0256 6D       		.byte	0x6d
 1498 0257 37020000 		.4byte	0x237
 1499 025b 02       		.byte	0x2
 1500 025c 23       		.byte	0x23
 1501 025d 00       		.uleb128 0
 1502 025e 00       		.byte	0
 1503 025f 03       		.uleb128 0x3
 1504 0260 B0010000 		.4byte	.LASF41
 1505 0264 06       		.byte	0x6
 1506 0265 70       		.byte	0x70
 1507 0266 48020000 		.4byte	0x248
 1508 026a 03       		.uleb128 0x3
 1509 026b 20010000 		.4byte	.LASF42
 1510 026f 08       		.byte	0x8
 1511 0270 D7       		.byte	0xd7
 1512 0271 75020000 		.4byte	0x275
 1513 0275 0A       		.uleb128 0xa
 1514 0276 04       		.byte	0x4
 1515 0277 03       		.uleb128 0x3
 1516 0278 E6010000 		.4byte	.LASF43
ARM GAS  C:\Users\z80\AppData\Local\Temp\ccwXiAvJ.s 			page 28


 1517 027c 08       		.byte	0x8
 1518 027d DD       		.byte	0xdd
 1519 027e 94000000 		.4byte	0x94
 1520 0282 05       		.uleb128 0x5
 1521 0283 21030000 		.4byte	.LASF44
 1522 0287 24       		.byte	0x24
 1523 0288 08       		.byte	0x8
 1524 0289 FE       		.byte	0xfe
 1525 028a 0F030000 		.4byte	0x30f
 1526 028e 0B       		.uleb128 0xb
 1527 028f 723400   		.ascii	"r4\000"
 1528 0292 08       		.byte	0x8
 1529 0293 1101     		.2byte	0x111
 1530 0295 6A020000 		.4byte	0x26a
 1531 0299 02       		.byte	0x2
 1532 029a 23       		.byte	0x23
 1533 029b 00       		.uleb128 0
 1534 029c 0B       		.uleb128 0xb
 1535 029d 723500   		.ascii	"r5\000"
 1536 02a0 08       		.byte	0x8
 1537 02a1 1201     		.2byte	0x112
 1538 02a3 6A020000 		.4byte	0x26a
 1539 02a7 02       		.byte	0x2
 1540 02a8 23       		.byte	0x23
 1541 02a9 04       		.uleb128 0x4
 1542 02aa 0B       		.uleb128 0xb
 1543 02ab 723600   		.ascii	"r6\000"
 1544 02ae 08       		.byte	0x8
 1545 02af 1301     		.2byte	0x113
 1546 02b1 6A020000 		.4byte	0x26a
 1547 02b5 02       		.byte	0x2
 1548 02b6 23       		.byte	0x23
 1549 02b7 08       		.uleb128 0x8
 1550 02b8 0B       		.uleb128 0xb
 1551 02b9 723700   		.ascii	"r7\000"
 1552 02bc 08       		.byte	0x8
 1553 02bd 1401     		.2byte	0x114
 1554 02bf 6A020000 		.4byte	0x26a
 1555 02c3 02       		.byte	0x2
 1556 02c4 23       		.byte	0x23
 1557 02c5 0C       		.uleb128 0xc
 1558 02c6 0B       		.uleb128 0xb
 1559 02c7 723800   		.ascii	"r8\000"
 1560 02ca 08       		.byte	0x8
 1561 02cb 1501     		.2byte	0x115
 1562 02cd 6A020000 		.4byte	0x26a
 1563 02d1 02       		.byte	0x2
 1564 02d2 23       		.byte	0x23
 1565 02d3 10       		.uleb128 0x10
 1566 02d4 0B       		.uleb128 0xb
 1567 02d5 723900   		.ascii	"r9\000"
 1568 02d8 08       		.byte	0x8
 1569 02d9 1601     		.2byte	0x116
 1570 02db 6A020000 		.4byte	0x26a
 1571 02df 02       		.byte	0x2
 1572 02e0 23       		.byte	0x23
 1573 02e1 14       		.uleb128 0x14
ARM GAS  C:\Users\z80\AppData\Local\Temp\ccwXiAvJ.s 			page 29


 1574 02e2 0B       		.uleb128 0xb
 1575 02e3 72313000 		.ascii	"r10\000"
 1576 02e7 08       		.byte	0x8
 1577 02e8 1701     		.2byte	0x117
 1578 02ea 6A020000 		.4byte	0x26a
 1579 02ee 02       		.byte	0x2
 1580 02ef 23       		.byte	0x23
 1581 02f0 18       		.uleb128 0x18
 1582 02f1 0B       		.uleb128 0xb
 1583 02f2 72313100 		.ascii	"r11\000"
 1584 02f6 08       		.byte	0x8
 1585 02f7 1801     		.2byte	0x118
 1586 02f9 6A020000 		.4byte	0x26a
 1587 02fd 02       		.byte	0x2
 1588 02fe 23       		.byte	0x23
 1589 02ff 1C       		.uleb128 0x1c
 1590 0300 0B       		.uleb128 0xb
 1591 0301 6C7200   		.ascii	"lr\000"
 1592 0304 08       		.byte	0x8
 1593 0305 1901     		.2byte	0x119
 1594 0307 6A020000 		.4byte	0x26a
 1595 030b 02       		.byte	0x2
 1596 030c 23       		.byte	0x23
 1597 030d 20       		.uleb128 0x20
 1598 030e 00       		.byte	0
 1599 030f 0C       		.uleb128 0xc
 1600 0310 7C010000 		.4byte	.LASF45
 1601 0314 04       		.byte	0x4
 1602 0315 08       		.byte	0x8
 1603 0316 2301     		.2byte	0x123
 1604 0318 2C030000 		.4byte	0x32c
 1605 031c 0B       		.uleb128 0xb
 1606 031d 72313300 		.ascii	"r13\000"
 1607 0321 08       		.byte	0x8
 1608 0322 2401     		.2byte	0x124
 1609 0324 2C030000 		.4byte	0x32c
 1610 0328 02       		.byte	0x2
 1611 0329 23       		.byte	0x23
 1612 032a 00       		.uleb128 0
 1613 032b 00       		.byte	0
 1614 032c 09       		.uleb128 0x9
 1615 032d 04       		.byte	0x4
 1616 032e 82020000 		.4byte	0x282
 1617 0332 0D       		.uleb128 0xd
 1618 0333 E8000000 		.4byte	0xe8
 1619 0337 08       		.uleb128 0x8
 1620 0338 20       		.byte	0x20
 1621 0339 09       		.byte	0x9
 1622 033a 5E       		.byte	0x5e
 1623 033b A2030000 		.4byte	0x3a2
 1624 033f 06       		.uleb128 0x6
 1625 0340 CE020000 		.4byte	.LASF46
 1626 0344 09       		.byte	0x9
 1627 0345 5F       		.byte	0x5f
 1628 0346 3D020000 		.4byte	0x23d
 1629 034a 02       		.byte	0x2
 1630 034b 23       		.byte	0x23
ARM GAS  C:\Users\z80\AppData\Local\Temp\ccwXiAvJ.s 			page 30


 1631 034c 00       		.uleb128 0
 1632 034d 06       		.uleb128 0x6
 1633 034e 91020000 		.4byte	.LASF47
 1634 0352 09       		.byte	0x9
 1635 0353 60       		.byte	0x60
 1636 0354 C7000000 		.4byte	0xc7
 1637 0358 02       		.byte	0x2
 1638 0359 23       		.byte	0x23
 1639 035a 08       		.uleb128 0x8
 1640 035b 06       		.uleb128 0x6
 1641 035c 14020000 		.4byte	.LASF48
 1642 0360 09       		.byte	0x9
 1643 0361 62       		.byte	0x62
 1644 0362 0F030000 		.4byte	0x30f
 1645 0366 02       		.byte	0x2
 1646 0367 23       		.byte	0x23
 1647 0368 0C       		.uleb128 0xc
 1648 0369 06       		.uleb128 0x6
 1649 036a 18010000 		.4byte	.LASF49
 1650 036e 09       		.byte	0x9
 1651 036f 65       		.byte	0x65
 1652 0370 37020000 		.4byte	0x237
 1653 0374 02       		.byte	0x2
 1654 0375 23       		.byte	0x23
 1655 0376 10       		.uleb128 0x10
 1656 0377 06       		.uleb128 0x6
 1657 0378 36020000 		.4byte	.LASF50
 1658 037c 09       		.byte	0x9
 1659 037d 66       		.byte	0x66
 1660 037e 37020000 		.4byte	0x237
 1661 0382 02       		.byte	0x2
 1662 0383 23       		.byte	0x23
 1663 0384 14       		.uleb128 0x14
 1664 0385 06       		.uleb128 0x6
 1665 0386 70030000 		.4byte	.LASF51
 1666 038a 09       		.byte	0x9
 1667 038b 6A       		.byte	0x6a
 1668 038c F3000000 		.4byte	0xf3
 1669 0390 02       		.byte	0x2
 1670 0391 23       		.byte	0x23
 1671 0392 18       		.uleb128 0x18
 1672 0393 06       		.uleb128 0x6
 1673 0394 2C020000 		.4byte	.LASF52
 1674 0398 09       		.byte	0x9
 1675 0399 6C       		.byte	0x6c
 1676 039a 37020000 		.4byte	0x237
 1677 039e 02       		.byte	0x2
 1678 039f 23       		.byte	0x23
 1679 03a0 1C       		.uleb128 0x1c
 1680 03a1 00       		.byte	0
 1681 03a2 03       		.uleb128 0x3
 1682 03a3 39030000 		.4byte	.LASF53
 1683 03a7 09       		.byte	0x9
 1684 03a8 6E       		.byte	0x6e
 1685 03a9 37030000 		.4byte	0x337
 1686 03ad 05       		.uleb128 0x5
 1687 03ae D3010000 		.4byte	.LASF54
ARM GAS  C:\Users\z80\AppData\Local\Temp\ccwXiAvJ.s 			page 31


 1688 03b2 10       		.byte	0x10
 1689 03b3 0A       		.byte	0xa
 1690 03b4 2C       		.byte	0x2c
 1691 03b5 E4030000 		.4byte	0x3e4
 1692 03b9 06       		.uleb128 0x6
 1693 03ba AF000000 		.4byte	.LASF55
 1694 03be 0A       		.byte	0xa
 1695 03bf 2D       		.byte	0x2d
 1696 03c0 3D020000 		.4byte	0x23d
 1697 03c4 02       		.byte	0x2
 1698 03c5 23       		.byte	0x23
 1699 03c6 00       		.uleb128 0
 1700 03c7 06       		.uleb128 0x6
 1701 03c8 52030000 		.4byte	.LASF56
 1702 03cc 0A       		.byte	0xa
 1703 03cd 2F       		.byte	0x2f
 1704 03ce 37020000 		.4byte	0x237
 1705 03d2 02       		.byte	0x2
 1706 03d3 23       		.byte	0x23
 1707 03d4 08       		.uleb128 0x8
 1708 03d5 06       		.uleb128 0x6
 1709 03d6 F3020000 		.4byte	.LASF57
 1710 03da 0A       		.byte	0xa
 1711 03db 31       		.byte	0x31
 1712 03dc E4030000 		.4byte	0x3e4
 1713 03e0 02       		.byte	0x2
 1714 03e1 23       		.byte	0x23
 1715 03e2 0C       		.uleb128 0xc
 1716 03e3 00       		.byte	0
 1717 03e4 09       		.uleb128 0x9
 1718 03e5 04       		.byte	0x4
 1719 03e6 AD030000 		.4byte	0x3ad
 1720 03ea 03       		.uleb128 0x3
 1721 03eb D3010000 		.4byte	.LASF54
 1722 03ef 0A       		.byte	0xa
 1723 03f0 33       		.byte	0x33
 1724 03f1 AD030000 		.4byte	0x3ad
 1725 03f5 0E       		.uleb128 0xe
 1726 03f6 04       		.byte	0x4
 1727 03f7 07       		.byte	0x7
 1728 03f8 90       		.byte	0x90
 1729 03f9 2A040000 		.4byte	0x42a
 1730 03fd 0F       		.uleb128 0xf
 1731 03fe 28000000 		.4byte	.LASF58
 1732 0402 07       		.byte	0x7
 1733 0403 97       		.byte	0x97
 1734 0404 D2000000 		.4byte	0xd2
 1735 0408 0F       		.uleb128 0xf
 1736 0409 74000000 		.4byte	.LASF59
 1737 040d 07       		.byte	0x7
 1738 040e 9E       		.byte	0x9e
 1739 040f D2000000 		.4byte	0xd2
 1740 0413 0F       		.uleb128 0xf
 1741 0414 62030000 		.4byte	.LASF60
 1742 0418 07       		.byte	0x7
 1743 0419 A5       		.byte	0xa5
 1744 041a 75020000 		.4byte	0x275
ARM GAS  C:\Users\z80\AppData\Local\Temp\ccwXiAvJ.s 			page 32


 1745 041e 0F       		.uleb128 0xf
 1746 041f 98020000 		.4byte	.LASF61
 1747 0423 07       		.byte	0x7
 1748 0424 AC       		.byte	0xac
 1749 0425 DD000000 		.4byte	0xdd
 1750 0429 00       		.byte	0
 1751 042a 09       		.uleb128 0x9
 1752 042b 04       		.byte	0x4
 1753 042c 30040000 		.4byte	0x430
 1754 0430 10       		.uleb128 0x10
 1755 0431 35040000 		.4byte	0x435
 1756 0435 04       		.uleb128 0x4
 1757 0436 01       		.byte	0x1
 1758 0437 08       		.byte	0x8
 1759 0438 E2020000 		.4byte	.LASF62
 1760 043c 09       		.uleb128 0x9
 1761 043d 04       		.byte	0x4
 1762 043e 77020000 		.4byte	0x277
 1763 0442 09       		.uleb128 0x9
 1764 0443 04       		.byte	0x4
 1765 0444 EA030000 		.4byte	0x3ea
 1766 0448 03       		.uleb128 0x3
 1767 0449 D9010000 		.4byte	.LASF63
 1768 044d 0B       		.byte	0xb
 1769 044e 37       		.byte	0x37
 1770 044f 53040000 		.4byte	0x453
 1771 0453 05       		.uleb128 0x5
 1772 0454 D9010000 		.4byte	.LASF63
 1773 0458 20       		.byte	0x20
 1774 0459 0B       		.byte	0xb
 1775 045a 45       		.byte	0x45
 1776 045b C2040000 		.4byte	0x4c2
 1777 045f 06       		.uleb128 0x6
 1778 0460 84000000 		.4byte	.LASF64
 1779 0464 0B       		.byte	0xb
 1780 0465 46       		.byte	0x46
 1781 0466 3D020000 		.4byte	0x23d
 1782 046a 02       		.byte	0x2
 1783 046b 23       		.byte	0x23
 1784 046c 00       		.uleb128 0
 1785 046d 06       		.uleb128 0x6
 1786 046e 02020000 		.4byte	.LASF65
 1787 0472 0B       		.byte	0xb
 1788 0473 47       		.byte	0x47
 1789 0474 30000000 		.4byte	0x30
 1790 0478 02       		.byte	0x2
 1791 0479 23       		.byte	0x23
 1792 047a 08       		.uleb128 0x8
 1793 047b 06       		.uleb128 0x6
 1794 047c FF000000 		.4byte	.LASF66
 1795 0480 0B       		.byte	0xb
 1796 0481 48       		.byte	0x48
 1797 0482 E5040000 		.4byte	0x4e5
 1798 0486 02       		.byte	0x2
 1799 0487 23       		.byte	0x23
 1800 0488 0C       		.uleb128 0xc
 1801 0489 06       		.uleb128 0x6
ARM GAS  C:\Users\z80\AppData\Local\Temp\ccwXiAvJ.s 			page 33


 1802 048a 33030000 		.4byte	.LASF67
 1803 048e 0B       		.byte	0xb
 1804 048f 49       		.byte	0x49
 1805 0490 E5040000 		.4byte	0x4e5
 1806 0494 02       		.byte	0x2
 1807 0495 23       		.byte	0x23
 1808 0496 10       		.uleb128 0x10
 1809 0497 06       		.uleb128 0x6
 1810 0498 08010000 		.4byte	.LASF68
 1811 049c 0B       		.byte	0xb
 1812 049d 4B       		.byte	0x4b
 1813 049e E5040000 		.4byte	0x4e5
 1814 04a2 02       		.byte	0x2
 1815 04a3 23       		.byte	0x23
 1816 04a4 14       		.uleb128 0x14
 1817 04a5 06       		.uleb128 0x6
 1818 04a6 57020000 		.4byte	.LASF69
 1819 04aa 0B       		.byte	0xb
 1820 04ab 4C       		.byte	0x4c
 1821 04ac E5040000 		.4byte	0x4e5
 1822 04b0 02       		.byte	0x2
 1823 04b1 23       		.byte	0x23
 1824 04b2 18       		.uleb128 0x18
 1825 04b3 06       		.uleb128 0x6
 1826 04b4 43030000 		.4byte	.LASF70
 1827 04b8 0B       		.byte	0xb
 1828 04b9 4D       		.byte	0x4d
 1829 04ba C2040000 		.4byte	0x4c2
 1830 04be 02       		.byte	0x2
 1831 04bf 23       		.byte	0x23
 1832 04c0 1C       		.uleb128 0x1c
 1833 04c1 00       		.byte	0
 1834 04c2 03       		.uleb128 0x3
 1835 04c3 3E020000 		.4byte	.LASF71
 1836 04c7 0B       		.byte	0xb
 1837 04c8 3A       		.byte	0x3a
 1838 04c9 CD040000 		.4byte	0x4cd
 1839 04cd 09       		.uleb128 0x9
 1840 04ce 04       		.byte	0x4
 1841 04cf D3040000 		.4byte	0x4d3
 1842 04d3 11       		.uleb128 0x11
 1843 04d4 01       		.byte	0x1
 1844 04d5 DF040000 		.4byte	0x4df
 1845 04d9 12       		.uleb128 0x12
 1846 04da DF040000 		.4byte	0x4df
 1847 04de 00       		.byte	0
 1848 04df 09       		.uleb128 0x9
 1849 04e0 04       		.byte	0x4
 1850 04e1 48040000 		.4byte	0x448
 1851 04e5 09       		.uleb128 0x9
 1852 04e6 04       		.byte	0x4
 1853 04e7 49000000 		.4byte	0x49
 1854 04eb 03       		.uleb128 0x3
 1855 04ec C8010000 		.4byte	.LASF72
 1856 04f0 0B       		.byte	0xb
 1857 04f1 76       		.byte	0x76
 1858 04f2 48040000 		.4byte	0x448
ARM GAS  C:\Users\z80\AppData\Local\Temp\ccwXiAvJ.s 			page 34


 1859 04f6 03       		.uleb128 0x3
 1860 04f7 41000000 		.4byte	.LASF73
 1861 04fb 0B       		.byte	0xb
 1862 04fc E6       		.byte	0xe6
 1863 04fd 48040000 		.4byte	0x448
 1864 0501 09       		.uleb128 0x9
 1865 0502 04       		.byte	0x4
 1866 0503 07050000 		.4byte	0x507
 1867 0507 10       		.uleb128 0x10
 1868 0508 49000000 		.4byte	0x49
 1869 050c 13       		.uleb128 0x13
 1870 050d 0F000000 		.4byte	.LASF93
 1871 0511 01       		.byte	0x1
 1872 0512 34       		.byte	0x34
 1873 0513 01       		.byte	0x1
 1874 0514 00000000 		.4byte	.LFB1
 1875 0518 28000000 		.4byte	.LFE1
 1876 051c 00000000 		.4byte	.LLST0
 1877 0520 40050000 		.4byte	0x540
 1878 0524 14       		.uleb128 0x14
 1879 0525 747000   		.ascii	"tp\000"
 1880 0528 01       		.byte	0x1
 1881 0529 34       		.byte	0x34
 1882 052a 37020000 		.4byte	0x237
 1883 052e 02       		.byte	0x2
 1884 052f 91       		.byte	0x91
 1885 0530 7C       		.sleb128 -4
 1886 0531 14       		.uleb128 0x14
 1887 0532 74717000 		.ascii	"tqp\000"
 1888 0536 01       		.byte	0x1
 1889 0537 34       		.byte	0x34
 1890 0538 40050000 		.4byte	0x540
 1891 053c 02       		.byte	0x2
 1892 053d 91       		.byte	0x91
 1893 053e 78       		.sleb128 -8
 1894 053f 00       		.byte	0
 1895 0540 09       		.uleb128 0x9
 1896 0541 04       		.byte	0x4
 1897 0542 3D020000 		.4byte	0x23d
 1898 0546 15       		.uleb128 0x15
 1899 0547 E7020000 		.4byte	.LASF74
 1900 054b 01       		.byte	0x1
 1901 054c 3B       		.byte	0x3b
 1902 054d 01       		.byte	0x1
 1903 054e 37020000 		.4byte	0x237
 1904 0552 00000000 		.4byte	.LFB2
 1905 0556 22000000 		.4byte	.LFE2
 1906 055a 20000000 		.4byte	.LLST1
 1907 055e 7E050000 		.4byte	0x57e
 1908 0562 14       		.uleb128 0x14
 1909 0563 74717000 		.ascii	"tqp\000"
 1910 0567 01       		.byte	0x1
 1911 0568 3B       		.byte	0x3b
 1912 0569 40050000 		.4byte	0x540
 1913 056d 02       		.byte	0x2
 1914 056e 91       		.byte	0x91
 1915 056f 74       		.sleb128 -12
ARM GAS  C:\Users\z80\AppData\Local\Temp\ccwXiAvJ.s 			page 35


 1916 0570 16       		.uleb128 0x16
 1917 0571 747000   		.ascii	"tp\000"
 1918 0574 01       		.byte	0x1
 1919 0575 3C       		.byte	0x3c
 1920 0576 37020000 		.4byte	0x237
 1921 057a 02       		.byte	0x2
 1922 057b 91       		.byte	0x91
 1923 057c 7C       		.sleb128 -4
 1924 057d 00       		.byte	0
 1925 057e 15       		.uleb128 0x15
 1926 057f 9C010000 		.4byte	.LASF75
 1927 0583 02       		.byte	0x2
 1928 0584 48       		.byte	0x48
 1929 0585 01       		.byte	0x1
 1930 0586 D2000000 		.4byte	0xd2
 1931 058a 00000000 		.4byte	.LFB7
 1932 058e 48000000 		.4byte	.LFE7
 1933 0592 40000000 		.4byte	.LLST2
 1934 0596 B6050000 		.4byte	0x5b6
 1935 059a 14       		.uleb128 0x14
 1936 059b 717000   		.ascii	"qp\000"
 1937 059e 02       		.byte	0x2
 1938 059f 48       		.byte	0x48
 1939 05a0 DF040000 		.4byte	0x4df
 1940 05a4 02       		.byte	0x2
 1941 05a5 91       		.byte	0x91
 1942 05a6 74       		.sleb128 -12
 1943 05a7 17       		.uleb128 0x17
 1944 05a8 27020000 		.4byte	.LASF76
 1945 05ac 02       		.byte	0x2
 1946 05ad 48       		.byte	0x48
 1947 05ae E8000000 		.4byte	0xe8
 1948 05b2 02       		.byte	0x2
 1949 05b3 91       		.byte	0x91
 1950 05b4 70       		.sleb128 -16
 1951 05b5 00       		.byte	0
 1952 05b6 18       		.uleb128 0x18
 1953 05b7 01       		.byte	0x1
 1954 05b8 2F000000 		.4byte	.LASF79
 1955 05bc 02       		.byte	0x2
 1956 05bd 60       		.byte	0x60
 1957 05be 01       		.byte	0x1
 1958 05bf 00000000 		.4byte	.LFB8
 1959 05c3 4A000000 		.4byte	.LFE8
 1960 05c7 6C000000 		.4byte	.LLST3
 1961 05cb 07060000 		.4byte	0x607
 1962 05cf 14       		.uleb128 0x14
 1963 05d0 69717000 		.ascii	"iqp\000"
 1964 05d4 02       		.byte	0x2
 1965 05d5 60       		.byte	0x60
 1966 05d6 07060000 		.4byte	0x607
 1967 05da 02       		.byte	0x2
 1968 05db 91       		.byte	0x91
 1969 05dc 7C       		.sleb128 -4
 1970 05dd 14       		.uleb128 0x14
 1971 05de 627000   		.ascii	"bp\000"
 1972 05e1 02       		.byte	0x2
ARM GAS  C:\Users\z80\AppData\Local\Temp\ccwXiAvJ.s 			page 36


 1973 05e2 60       		.byte	0x60
 1974 05e3 E5040000 		.4byte	0x4e5
 1975 05e7 02       		.byte	0x2
 1976 05e8 91       		.byte	0x91
 1977 05e9 78       		.sleb128 -8
 1978 05ea 17       		.uleb128 0x17
 1979 05eb 84010000 		.4byte	.LASF77
 1980 05ef 02       		.byte	0x2
 1981 05f0 60       		.byte	0x60
 1982 05f1 30000000 		.4byte	0x30
 1983 05f5 02       		.byte	0x2
 1984 05f6 91       		.byte	0x91
 1985 05f7 74       		.sleb128 -12
 1986 05f8 17       		.uleb128 0x17
 1987 05f9 A6020000 		.4byte	.LASF78
 1988 05fd 02       		.byte	0x2
 1989 05fe 60       		.byte	0x60
 1990 05ff C2040000 		.4byte	0x4c2
 1991 0603 02       		.byte	0x2
 1992 0604 91       		.byte	0x91
 1993 0605 70       		.sleb128 -16
 1994 0606 00       		.byte	0
 1995 0607 09       		.uleb128 0x9
 1996 0608 04       		.byte	0x4
 1997 0609 EB040000 		.4byte	0x4eb
 1998 060d 18       		.uleb128 0x18
 1999 060e 01       		.byte	0x1
 2000 060f 5F010000 		.4byte	.LASF80
 2001 0613 02       		.byte	0x2
 2002 0614 74       		.byte	0x74
 2003 0615 01       		.byte	0x1
 2004 0616 00000000 		.4byte	.LFB9
 2005 061a 4A000000 		.4byte	.LFE9
 2006 061e 8C000000 		.4byte	.LLST4
 2007 0622 35060000 		.4byte	0x635
 2008 0626 14       		.uleb128 0x14
 2009 0627 69717000 		.ascii	"iqp\000"
 2010 062b 02       		.byte	0x2
 2011 062c 74       		.byte	0x74
 2012 062d 07060000 		.4byte	0x607
 2013 0631 02       		.byte	0x2
 2014 0632 91       		.byte	0x91
 2015 0633 74       		.sleb128 -12
 2016 0634 00       		.byte	0
 2017 0635 19       		.uleb128 0x19
 2018 0636 01       		.byte	0x1
 2019 0637 38010000 		.4byte	.LASF81
 2020 063b 02       		.byte	0x2
 2021 063c 8B       		.byte	0x8b
 2022 063d 01       		.byte	0x1
 2023 063e D2000000 		.4byte	0xd2
 2024 0642 00000000 		.4byte	.LFB10
 2025 0646 88000000 		.4byte	.LFE10
 2026 064a B8000000 		.4byte	.LLST5
 2027 064e 6D060000 		.4byte	0x66d
 2028 0652 14       		.uleb128 0x14
 2029 0653 69717000 		.ascii	"iqp\000"
ARM GAS  C:\Users\z80\AppData\Local\Temp\ccwXiAvJ.s 			page 37


 2030 0657 02       		.byte	0x2
 2031 0658 8B       		.byte	0x8b
 2032 0659 07060000 		.4byte	0x607
 2033 065d 02       		.byte	0x2
 2034 065e 91       		.byte	0x91
 2035 065f 74       		.sleb128 -12
 2036 0660 14       		.uleb128 0x14
 2037 0661 6200     		.ascii	"b\000"
 2038 0663 02       		.byte	0x2
 2039 0664 8B       		.byte	0x8b
 2040 0665 49000000 		.4byte	0x49
 2041 0669 02       		.byte	0x2
 2042 066a 91       		.byte	0x91
 2043 066b 73       		.sleb128 -13
 2044 066c 00       		.byte	0
 2045 066d 19       		.uleb128 0x19
 2046 066e 01       		.byte	0x1
 2047 066f B4030000 		.4byte	.LASF82
 2048 0673 02       		.byte	0x2
 2049 0674 B1       		.byte	0xb1
 2050 0675 01       		.byte	0x1
 2051 0676 D2000000 		.4byte	0xd2
 2052 067a 00000000 		.4byte	.LFB11
 2053 067e 98000000 		.4byte	.LFE11
 2054 0682 E4000000 		.4byte	.LLST6
 2055 0686 18070000 		.4byte	0x718
 2056 068a 14       		.uleb128 0x14
 2057 068b 69717000 		.ascii	"iqp\000"
 2058 068f 02       		.byte	0x2
 2059 0690 B1       		.byte	0xb1
 2060 0691 07060000 		.4byte	0x607
 2061 0695 02       		.byte	0x2
 2062 0696 91       		.byte	0x91
 2063 0697 6C       		.sleb128 -20
 2064 0698 17       		.uleb128 0x17
 2065 0699 27020000 		.4byte	.LASF76
 2066 069d 02       		.byte	0x2
 2067 069e B1       		.byte	0xb1
 2068 069f E8000000 		.4byte	0xe8
 2069 06a3 02       		.byte	0x2
 2070 06a4 91       		.byte	0x91
 2071 06a5 68       		.sleb128 -24
 2072 06a6 16       		.uleb128 0x16
 2073 06a7 6200     		.ascii	"b\000"
 2074 06a9 02       		.byte	0x2
 2075 06aa B2       		.byte	0xb2
 2076 06ab 49000000 		.4byte	0x49
 2077 06af 02       		.byte	0x2
 2078 06b0 91       		.byte	0x91
 2079 06b1 73       		.sleb128 -13
 2080 06b2 1A       		.uleb128 0x1a
 2081 06b3 08000000 		.4byte	.LBB2
 2082 06b7 10000000 		.4byte	.LBE2
 2083 06bb CD060000 		.4byte	0x6cd
 2084 06bf 16       		.uleb128 0x16
 2085 06c0 746D7000 		.ascii	"tmp\000"
 2086 06c4 02       		.byte	0x2
ARM GAS  C:\Users\z80\AppData\Local\Temp\ccwXiAvJ.s 			page 38


 2087 06c5 B4       		.byte	0xb4
 2088 06c6 7B000000 		.4byte	0x7b
 2089 06ca 01       		.byte	0x1
 2090 06cb 53       		.byte	0x53
 2091 06cc 00       		.byte	0
 2092 06cd 1A       		.uleb128 0x1a
 2093 06ce 26000000 		.4byte	.LBB3
 2094 06d2 46000000 		.4byte	.LBE3
 2095 06d6 00070000 		.4byte	0x700
 2096 06da 16       		.uleb128 0x16
 2097 06db 6D736700 		.ascii	"msg\000"
 2098 06df 02       		.byte	0x2
 2099 06e0 B9       		.byte	0xb9
 2100 06e1 D2000000 		.4byte	0xd2
 2101 06e5 02       		.byte	0x2
 2102 06e6 91       		.byte	0x91
 2103 06e7 74       		.sleb128 -12
 2104 06e8 1B       		.uleb128 0x1b
 2105 06e9 3A000000 		.4byte	.LBB4
 2106 06ed 42000000 		.4byte	.LBE4
 2107 06f1 16       		.uleb128 0x16
 2108 06f2 746D7000 		.ascii	"tmp\000"
 2109 06f6 02       		.byte	0x2
 2110 06f7 BB       		.byte	0xbb
 2111 06f8 7B000000 		.4byte	0x7b
 2112 06fc 01       		.byte	0x1
 2113 06fd 53       		.byte	0x53
 2114 06fe 00       		.byte	0
 2115 06ff 00       		.byte	0
 2116 0700 1B       		.uleb128 0x1b
 2117 0701 86000000 		.4byte	.LBB5
 2118 0705 8E000000 		.4byte	.LBE5
 2119 0709 16       		.uleb128 0x16
 2120 070a 746D7000 		.ascii	"tmp\000"
 2121 070e 02       		.byte	0x2
 2122 070f C5       		.byte	0xc5
 2123 0710 7B000000 		.4byte	0x7b
 2124 0714 01       		.byte	0x1
 2125 0715 53       		.byte	0x53
 2126 0716 00       		.byte	0
 2127 0717 00       		.byte	0
 2128 0718 19       		.uleb128 0x19
 2129 0719 01       		.byte	0x1
 2130 071a 4D000000 		.4byte	.LASF83
 2131 071e 02       		.byte	0x2
 2132 071f E1       		.byte	0xe1
 2133 0720 01       		.byte	0x1
 2134 0721 30000000 		.4byte	0x30
 2135 0725 00000000 		.4byte	.LFB12
 2136 0729 E0000000 		.4byte	.LFE12
 2137 072d 10010000 		.4byte	.LLST7
 2138 0731 ED070000 		.4byte	0x7ed
 2139 0735 14       		.uleb128 0x14
 2140 0736 69717000 		.ascii	"iqp\000"
 2141 073a 02       		.byte	0x2
 2142 073b E1       		.byte	0xe1
 2143 073c 07060000 		.4byte	0x607
ARM GAS  C:\Users\z80\AppData\Local\Temp\ccwXiAvJ.s 			page 39


 2144 0740 02       		.byte	0x2
 2145 0741 91       		.byte	0x91
 2146 0742 6C       		.sleb128 -20
 2147 0743 14       		.uleb128 0x14
 2148 0744 627000   		.ascii	"bp\000"
 2149 0747 02       		.byte	0x2
 2150 0748 E1       		.byte	0xe1
 2151 0749 E5040000 		.4byte	0x4e5
 2152 074d 02       		.byte	0x2
 2153 074e 91       		.byte	0x91
 2154 074f 68       		.sleb128 -24
 2155 0750 14       		.uleb128 0x14
 2156 0751 6E00     		.ascii	"n\000"
 2157 0753 02       		.byte	0x2
 2158 0754 E2       		.byte	0xe2
 2159 0755 30000000 		.4byte	0x30
 2160 0759 02       		.byte	0x2
 2161 075a 91       		.byte	0x91
 2162 075b 64       		.sleb128 -28
 2163 075c 17       		.uleb128 0x17
 2164 075d 27020000 		.4byte	.LASF76
 2165 0761 02       		.byte	0x2
 2166 0762 E2       		.byte	0xe2
 2167 0763 E8000000 		.4byte	0xe8
 2168 0767 02       		.byte	0x2
 2169 0768 91       		.byte	0x91
 2170 0769 60       		.sleb128 -32
 2171 076a 16       		.uleb128 0x16
 2172 076b 6E667900 		.ascii	"nfy\000"
 2173 076f 02       		.byte	0x2
 2174 0770 E3       		.byte	0xe3
 2175 0771 C2040000 		.4byte	0x4c2
 2176 0775 02       		.byte	0x2
 2177 0776 91       		.byte	0x91
 2178 0777 70       		.sleb128 -16
 2179 0778 16       		.uleb128 0x16
 2180 0779 7200     		.ascii	"r\000"
 2181 077b 02       		.byte	0x2
 2182 077c E4       		.byte	0xe4
 2183 077d 30000000 		.4byte	0x30
 2184 0781 02       		.byte	0x2
 2185 0782 91       		.byte	0x91
 2186 0783 74       		.sleb128 -12
 2187 0784 1A       		.uleb128 0x1a
 2188 0785 2A000000 		.4byte	.LBB6
 2189 0789 32000000 		.4byte	.LBE6
 2190 078d 9F070000 		.4byte	0x79f
 2191 0791 16       		.uleb128 0x16
 2192 0792 746D7000 		.ascii	"tmp\000"
 2193 0796 02       		.byte	0x2
 2194 0797 E8       		.byte	0xe8
 2195 0798 7B000000 		.4byte	0x7b
 2196 079c 01       		.byte	0x1
 2197 079d 53       		.byte	0x53
 2198 079e 00       		.byte	0
 2199 079f 1A       		.uleb128 0x1a
 2200 07a0 56000000 		.4byte	.LBB7
ARM GAS  C:\Users\z80\AppData\Local\Temp\ccwXiAvJ.s 			page 40


 2201 07a4 5E000000 		.4byte	.LBE7
 2202 07a8 BA070000 		.4byte	0x7ba
 2203 07ac 16       		.uleb128 0x16
 2204 07ad 746D7000 		.ascii	"tmp\000"
 2205 07b1 02       		.byte	0x2
 2206 07b2 EF       		.byte	0xef
 2207 07b3 7B000000 		.4byte	0x7b
 2208 07b7 01       		.byte	0x1
 2209 07b8 53       		.byte	0x53
 2210 07b9 00       		.byte	0
 2211 07ba 1A       		.uleb128 0x1a
 2212 07bb AA000000 		.4byte	.LBB8
 2213 07bf B2000000 		.4byte	.LBE8
 2214 07c3 D5070000 		.4byte	0x7d5
 2215 07c7 16       		.uleb128 0x16
 2216 07c8 746D7000 		.ascii	"tmp\000"
 2217 07cc 02       		.byte	0x2
 2218 07cd F9       		.byte	0xf9
 2219 07ce 7B000000 		.4byte	0x7b
 2220 07d2 01       		.byte	0x1
 2221 07d3 53       		.byte	0x53
 2222 07d4 00       		.byte	0
 2223 07d5 1B       		.uleb128 0x1b
 2224 07d6 CC000000 		.4byte	.LBB9
 2225 07da D4000000 		.4byte	.LBE9
 2226 07de 16       		.uleb128 0x16
 2227 07df 746D7000 		.ascii	"tmp\000"
 2228 07e3 02       		.byte	0x2
 2229 07e4 FE       		.byte	0xfe
 2230 07e5 7B000000 		.4byte	0x7b
 2231 07e9 01       		.byte	0x1
 2232 07ea 53       		.byte	0x53
 2233 07eb 00       		.byte	0
 2234 07ec 00       		.byte	0
 2235 07ed 1C       		.uleb128 0x1c
 2236 07ee 01       		.byte	0x1
 2237 07ef 00000000 		.4byte	.LASF84
 2238 07f3 02       		.byte	0x2
 2239 07f4 1101     		.2byte	0x111
 2240 07f6 01       		.byte	0x1
 2241 07f7 00000000 		.4byte	.LFB13
 2242 07fb 48000000 		.4byte	.LFE13
 2243 07ff 3C010000 		.4byte	.LLST8
 2244 0803 43080000 		.4byte	0x843
 2245 0807 1D       		.uleb128 0x1d
 2246 0808 6F717000 		.ascii	"oqp\000"
 2247 080c 02       		.byte	0x2
 2248 080d 1101     		.2byte	0x111
 2249 080f 43080000 		.4byte	0x843
 2250 0813 02       		.byte	0x2
 2251 0814 91       		.byte	0x91
 2252 0815 7C       		.sleb128 -4
 2253 0816 1D       		.uleb128 0x1d
 2254 0817 627000   		.ascii	"bp\000"
 2255 081a 02       		.byte	0x2
 2256 081b 1101     		.2byte	0x111
 2257 081d E5040000 		.4byte	0x4e5
ARM GAS  C:\Users\z80\AppData\Local\Temp\ccwXiAvJ.s 			page 41


 2258 0821 02       		.byte	0x2
 2259 0822 91       		.byte	0x91
 2260 0823 78       		.sleb128 -8
 2261 0824 1E       		.uleb128 0x1e
 2262 0825 84010000 		.4byte	.LASF77
 2263 0829 02       		.byte	0x2
 2264 082a 1101     		.2byte	0x111
 2265 082c 30000000 		.4byte	0x30
 2266 0830 02       		.byte	0x2
 2267 0831 91       		.byte	0x91
 2268 0832 74       		.sleb128 -12
 2269 0833 1E       		.uleb128 0x1e
 2270 0834 1C000000 		.4byte	.LASF85
 2271 0838 02       		.byte	0x2
 2272 0839 1101     		.2byte	0x111
 2273 083b C2040000 		.4byte	0x4c2
 2274 083f 02       		.byte	0x2
 2275 0840 91       		.byte	0x91
 2276 0841 70       		.sleb128 -16
 2277 0842 00       		.byte	0
 2278 0843 09       		.uleb128 0x9
 2279 0844 04       		.byte	0x4
 2280 0845 F6040000 		.4byte	0x4f6
 2281 0849 1C       		.uleb128 0x1c
 2282 084a 01       		.byte	0x1
 2283 084b 0F030000 		.4byte	.LASF86
 2284 084f 02       		.byte	0x2
 2285 0850 2501     		.2byte	0x125
 2286 0852 01       		.byte	0x1
 2287 0853 00000000 		.4byte	.LFB14
 2288 0857 54000000 		.4byte	.LFE14
 2289 085b 5C010000 		.4byte	.LLST9
 2290 085f 73080000 		.4byte	0x873
 2291 0863 1D       		.uleb128 0x1d
 2292 0864 6F717000 		.ascii	"oqp\000"
 2293 0868 02       		.byte	0x2
 2294 0869 2501     		.2byte	0x125
 2295 086b 43080000 		.4byte	0x843
 2296 086f 02       		.byte	0x2
 2297 0870 91       		.byte	0x91
 2298 0871 74       		.sleb128 -12
 2299 0872 00       		.byte	0
 2300 0873 1F       		.uleb128 0x1f
 2301 0874 01       		.byte	0x1
 2302 0875 29010000 		.4byte	.LASF87
 2303 0879 02       		.byte	0x2
 2304 087a 4501     		.2byte	0x145
 2305 087c 01       		.byte	0x1
 2306 087d D2000000 		.4byte	0xd2
 2307 0881 00000000 		.4byte	.LFB15
 2308 0885 9C000000 		.4byte	.LFE15
 2309 0889 88010000 		.4byte	.LLST10
 2310 088d 26090000 		.4byte	0x926
 2311 0891 1D       		.uleb128 0x1d
 2312 0892 6F717000 		.ascii	"oqp\000"
 2313 0896 02       		.byte	0x2
 2314 0897 4501     		.2byte	0x145
ARM GAS  C:\Users\z80\AppData\Local\Temp\ccwXiAvJ.s 			page 42


 2315 0899 43080000 		.4byte	0x843
 2316 089d 02       		.byte	0x2
 2317 089e 91       		.byte	0x91
 2318 089f 6C       		.sleb128 -20
 2319 08a0 1D       		.uleb128 0x1d
 2320 08a1 6200     		.ascii	"b\000"
 2321 08a3 02       		.byte	0x2
 2322 08a4 4501     		.2byte	0x145
 2323 08a6 49000000 		.4byte	0x49
 2324 08aa 02       		.byte	0x2
 2325 08ab 91       		.byte	0x91
 2326 08ac 6B       		.sleb128 -21
 2327 08ad 1E       		.uleb128 0x1e
 2328 08ae 27020000 		.4byte	.LASF76
 2329 08b2 02       		.byte	0x2
 2330 08b3 4501     		.2byte	0x145
 2331 08b5 E8000000 		.4byte	0xe8
 2332 08b9 02       		.byte	0x2
 2333 08ba 91       		.byte	0x91
 2334 08bb 64       		.sleb128 -28
 2335 08bc 1A       		.uleb128 0x1a
 2336 08bd 0E000000 		.4byte	.LBB10
 2337 08c1 16000000 		.4byte	.LBE10
 2338 08c5 D8080000 		.4byte	0x8d8
 2339 08c9 20       		.uleb128 0x20
 2340 08ca 746D7000 		.ascii	"tmp\000"
 2341 08ce 02       		.byte	0x2
 2342 08cf 4701     		.2byte	0x147
 2343 08d1 7B000000 		.4byte	0x7b
 2344 08d5 01       		.byte	0x1
 2345 08d6 53       		.byte	0x53
 2346 08d7 00       		.byte	0
 2347 08d8 1A       		.uleb128 0x1a
 2348 08d9 1C000000 		.4byte	.LBB11
 2349 08dd 3C000000 		.4byte	.LBE11
 2350 08e1 0D090000 		.4byte	0x90d
 2351 08e5 20       		.uleb128 0x20
 2352 08e6 6D736700 		.ascii	"msg\000"
 2353 08ea 02       		.byte	0x2
 2354 08eb 4901     		.2byte	0x149
 2355 08ed D2000000 		.4byte	0xd2
 2356 08f1 02       		.byte	0x2
 2357 08f2 91       		.byte	0x91
 2358 08f3 74       		.sleb128 -12
 2359 08f4 1B       		.uleb128 0x1b
 2360 08f5 30000000 		.4byte	.LBB12
 2361 08f9 38000000 		.4byte	.LBE12
 2362 08fd 20       		.uleb128 0x20
 2363 08fe 746D7000 		.ascii	"tmp\000"
 2364 0902 02       		.byte	0x2
 2365 0903 4C01     		.2byte	0x14c
 2366 0905 7B000000 		.4byte	0x7b
 2367 0909 01       		.byte	0x1
 2368 090a 53       		.byte	0x53
 2369 090b 00       		.byte	0
 2370 090c 00       		.byte	0
 2371 090d 1B       		.uleb128 0x1b
ARM GAS  C:\Users\z80\AppData\Local\Temp\ccwXiAvJ.s 			page 43


 2372 090e 8A000000 		.4byte	.LBB13
 2373 0912 92000000 		.4byte	.LBE13
 2374 0916 20       		.uleb128 0x20
 2375 0917 746D7000 		.ascii	"tmp\000"
 2376 091b 02       		.byte	0x2
 2377 091c 5901     		.2byte	0x159
 2378 091e 7B000000 		.4byte	0x7b
 2379 0922 01       		.byte	0x1
 2380 0923 53       		.byte	0x53
 2381 0924 00       		.byte	0
 2382 0925 00       		.byte	0
 2383 0926 1F       		.uleb128 0x1f
 2384 0927 01       		.byte	0x1
 2385 0928 F6000000 		.4byte	.LASF88
 2386 092c 02       		.byte	0x2
 2387 092d 6701     		.2byte	0x167
 2388 092f 01       		.byte	0x1
 2389 0930 D2000000 		.4byte	0xd2
 2390 0934 00000000 		.4byte	.LFB16
 2391 0938 82000000 		.4byte	.LFE16
 2392 093c B4010000 		.4byte	.LLST11
 2393 0940 61090000 		.4byte	0x961
 2394 0944 1D       		.uleb128 0x1d
 2395 0945 6F717000 		.ascii	"oqp\000"
 2396 0949 02       		.byte	0x2
 2397 094a 6701     		.2byte	0x167
 2398 094c 43080000 		.4byte	0x843
 2399 0950 02       		.byte	0x2
 2400 0951 91       		.byte	0x91
 2401 0952 6C       		.sleb128 -20
 2402 0953 20       		.uleb128 0x20
 2403 0954 6200     		.ascii	"b\000"
 2404 0956 02       		.byte	0x2
 2405 0957 6801     		.2byte	0x168
 2406 0959 49000000 		.4byte	0x49
 2407 095d 02       		.byte	0x2
 2408 095e 91       		.byte	0x91
 2409 095f 77       		.sleb128 -9
 2410 0960 00       		.byte	0
 2411 0961 1F       		.uleb128 0x1f
 2412 0962 01       		.byte	0x1
 2413 0963 F1010000 		.4byte	.LASF89
 2414 0967 02       		.byte	0x2
 2415 0968 9201     		.2byte	0x192
 2416 096a 01       		.byte	0x1
 2417 096b 30000000 		.4byte	0x30
 2418 096f 00000000 		.4byte	.LFB17
 2419 0973 E0000000 		.4byte	.LFE17
 2420 0977 E0010000 		.4byte	.LLST12
 2421 097b 410A0000 		.4byte	0xa41
 2422 097f 1D       		.uleb128 0x1d
 2423 0980 6F717000 		.ascii	"oqp\000"
 2424 0984 02       		.byte	0x2
 2425 0985 9201     		.2byte	0x192
 2426 0987 43080000 		.4byte	0x843
 2427 098b 02       		.byte	0x2
 2428 098c 91       		.byte	0x91
ARM GAS  C:\Users\z80\AppData\Local\Temp\ccwXiAvJ.s 			page 44


 2429 098d 6C       		.sleb128 -20
 2430 098e 1D       		.uleb128 0x1d
 2431 098f 627000   		.ascii	"bp\000"
 2432 0992 02       		.byte	0x2
 2433 0993 9201     		.2byte	0x192
 2434 0995 01050000 		.4byte	0x501
 2435 0999 02       		.byte	0x2
 2436 099a 91       		.byte	0x91
 2437 099b 68       		.sleb128 -24
 2438 099c 1D       		.uleb128 0x1d
 2439 099d 6E00     		.ascii	"n\000"
 2440 099f 02       		.byte	0x2
 2441 09a0 9301     		.2byte	0x193
 2442 09a2 30000000 		.4byte	0x30
 2443 09a6 02       		.byte	0x2
 2444 09a7 91       		.byte	0x91
 2445 09a8 64       		.sleb128 -28
 2446 09a9 1E       		.uleb128 0x1e
 2447 09aa 27020000 		.4byte	.LASF76
 2448 09ae 02       		.byte	0x2
 2449 09af 9301     		.2byte	0x193
 2450 09b1 E8000000 		.4byte	0xe8
 2451 09b5 02       		.byte	0x2
 2452 09b6 91       		.byte	0x91
 2453 09b7 60       		.sleb128 -32
 2454 09b8 20       		.uleb128 0x20
 2455 09b9 6E667900 		.ascii	"nfy\000"
 2456 09bd 02       		.byte	0x2
 2457 09be 9401     		.2byte	0x194
 2458 09c0 C2040000 		.4byte	0x4c2
 2459 09c4 02       		.byte	0x2
 2460 09c5 91       		.byte	0x91
 2461 09c6 70       		.sleb128 -16
 2462 09c7 20       		.uleb128 0x20
 2463 09c8 7700     		.ascii	"w\000"
 2464 09ca 02       		.byte	0x2
 2465 09cb 9501     		.2byte	0x195
 2466 09cd 30000000 		.4byte	0x30
 2467 09d1 02       		.byte	0x2
 2468 09d2 91       		.byte	0x91
 2469 09d3 74       		.sleb128 -12
 2470 09d4 1A       		.uleb128 0x1a
 2471 09d5 2A000000 		.4byte	.LBB14
 2472 09d9 32000000 		.4byte	.LBE14
 2473 09dd F0090000 		.4byte	0x9f0
 2474 09e1 20       		.uleb128 0x20
 2475 09e2 746D7000 		.ascii	"tmp\000"
 2476 09e6 02       		.byte	0x2
 2477 09e7 9901     		.2byte	0x199
 2478 09e9 7B000000 		.4byte	0x7b
 2479 09ed 01       		.byte	0x1
 2480 09ee 53       		.byte	0x53
 2481 09ef 00       		.byte	0
 2482 09f0 1A       		.uleb128 0x1a
 2483 09f1 4A000000 		.4byte	.LBB15
 2484 09f5 52000000 		.4byte	.LBE15
 2485 09f9 0C0A0000 		.4byte	0xa0c
ARM GAS  C:\Users\z80\AppData\Local\Temp\ccwXiAvJ.s 			page 45


 2486 09fd 20       		.uleb128 0x20
 2487 09fe 746D7000 		.ascii	"tmp\000"
 2488 0a02 02       		.byte	0x2
 2489 0a03 9D01     		.2byte	0x19d
 2490 0a05 7B000000 		.4byte	0x7b
 2491 0a09 01       		.byte	0x1
 2492 0a0a 53       		.byte	0x53
 2493 0a0b 00       		.byte	0
 2494 0a0c 1A       		.uleb128 0x1a
 2495 0a0d A8000000 		.4byte	.LBB16
 2496 0a11 B0000000 		.4byte	.LBE16
 2497 0a15 280A0000 		.4byte	0xa28
 2498 0a19 20       		.uleb128 0x20
 2499 0a1a 746D7000 		.ascii	"tmp\000"
 2500 0a1e 02       		.byte	0x2
 2501 0a1f A901     		.2byte	0x1a9
 2502 0a21 7B000000 		.4byte	0x7b
 2503 0a25 01       		.byte	0x1
 2504 0a26 53       		.byte	0x53
 2505 0a27 00       		.byte	0
 2506 0a28 1B       		.uleb128 0x1b
 2507 0a29 CA000000 		.4byte	.LBB17
 2508 0a2d D2000000 		.4byte	.LBE17
 2509 0a31 20       		.uleb128 0x20
 2510 0a32 746D7000 		.ascii	"tmp\000"
 2511 0a36 02       		.byte	0x2
 2512 0a37 AD01     		.2byte	0x1ad
 2513 0a39 7B000000 		.4byte	0x7b
 2514 0a3d 01       		.byte	0x1
 2515 0a3e 53       		.byte	0x53
 2516 0a3f 00       		.byte	0
 2517 0a40 00       		.byte	0
 2518 0a41 21       		.uleb128 0x21
 2519 0a42 4C030000 		.4byte	.LASF94
 2520 0a46 09       		.byte	0x9
 2521 0a47 72       		.byte	0x72
 2522 0a48 A2030000 		.4byte	0x3a2
 2523 0a4c 01       		.byte	0x1
 2524 0a4d 01       		.byte	0x1
 2525 0a4e 00       		.byte	0
 2526              		.section	.debug_abbrev,"",%progbits
 2527              	.Ldebug_abbrev0:
 2528 0000 01       		.uleb128 0x1
 2529 0001 11       		.uleb128 0x11
 2530 0002 01       		.byte	0x1
 2531 0003 25       		.uleb128 0x25
 2532 0004 0E       		.uleb128 0xe
 2533 0005 13       		.uleb128 0x13
 2534 0006 0B       		.uleb128 0xb
 2535 0007 03       		.uleb128 0x3
 2536 0008 0E       		.uleb128 0xe
 2537 0009 1B       		.uleb128 0x1b
 2538 000a 0E       		.uleb128 0xe
 2539 000b 11       		.uleb128 0x11
 2540 000c 01       		.uleb128 0x1
 2541 000d 52       		.uleb128 0x52
 2542 000e 01       		.uleb128 0x1
ARM GAS  C:\Users\z80\AppData\Local\Temp\ccwXiAvJ.s 			page 46


 2543 000f 55       		.uleb128 0x55
 2544 0010 06       		.uleb128 0x6
 2545 0011 10       		.uleb128 0x10
 2546 0012 06       		.uleb128 0x6
 2547 0013 00       		.byte	0
 2548 0014 00       		.byte	0
 2549 0015 02       		.uleb128 0x2
 2550 0016 24       		.uleb128 0x24
 2551 0017 00       		.byte	0
 2552 0018 0B       		.uleb128 0xb
 2553 0019 0B       		.uleb128 0xb
 2554 001a 3E       		.uleb128 0x3e
 2555 001b 0B       		.uleb128 0xb
 2556 001c 03       		.uleb128 0x3
 2557 001d 08       		.uleb128 0x8
 2558 001e 00       		.byte	0
 2559 001f 00       		.byte	0
 2560 0020 03       		.uleb128 0x3
 2561 0021 16       		.uleb128 0x16
 2562 0022 00       		.byte	0
 2563 0023 03       		.uleb128 0x3
 2564 0024 0E       		.uleb128 0xe
 2565 0025 3A       		.uleb128 0x3a
 2566 0026 0B       		.uleb128 0xb
 2567 0027 3B       		.uleb128 0x3b
 2568 0028 0B       		.uleb128 0xb
 2569 0029 49       		.uleb128 0x49
 2570 002a 13       		.uleb128 0x13
 2571 002b 00       		.byte	0
 2572 002c 00       		.byte	0
 2573 002d 04       		.uleb128 0x4
 2574 002e 24       		.uleb128 0x24
 2575 002f 00       		.byte	0
 2576 0030 0B       		.uleb128 0xb
 2577 0031 0B       		.uleb128 0xb
 2578 0032 3E       		.uleb128 0x3e
 2579 0033 0B       		.uleb128 0xb
 2580 0034 03       		.uleb128 0x3
 2581 0035 0E       		.uleb128 0xe
 2582 0036 00       		.byte	0
 2583 0037 00       		.byte	0
 2584 0038 05       		.uleb128 0x5
 2585 0039 13       		.uleb128 0x13
 2586 003a 01       		.byte	0x1
 2587 003b 03       		.uleb128 0x3
 2588 003c 0E       		.uleb128 0xe
 2589 003d 0B       		.uleb128 0xb
 2590 003e 0B       		.uleb128 0xb
 2591 003f 3A       		.uleb128 0x3a
 2592 0040 0B       		.uleb128 0xb
 2593 0041 3B       		.uleb128 0x3b
 2594 0042 0B       		.uleb128 0xb
 2595 0043 01       		.uleb128 0x1
 2596 0044 13       		.uleb128 0x13
 2597 0045 00       		.byte	0
 2598 0046 00       		.byte	0
 2599 0047 06       		.uleb128 0x6
ARM GAS  C:\Users\z80\AppData\Local\Temp\ccwXiAvJ.s 			page 47


 2600 0048 0D       		.uleb128 0xd
 2601 0049 00       		.byte	0
 2602 004a 03       		.uleb128 0x3
 2603 004b 0E       		.uleb128 0xe
 2604 004c 3A       		.uleb128 0x3a
 2605 004d 0B       		.uleb128 0xb
 2606 004e 3B       		.uleb128 0x3b
 2607 004f 0B       		.uleb128 0xb
 2608 0050 49       		.uleb128 0x49
 2609 0051 13       		.uleb128 0x13
 2610 0052 38       		.uleb128 0x38
 2611 0053 0A       		.uleb128 0xa
 2612 0054 00       		.byte	0
 2613 0055 00       		.byte	0
 2614 0056 07       		.uleb128 0x7
 2615 0057 0D       		.uleb128 0xd
 2616 0058 00       		.byte	0
 2617 0059 03       		.uleb128 0x3
 2618 005a 08       		.uleb128 0x8
 2619 005b 3A       		.uleb128 0x3a
 2620 005c 0B       		.uleb128 0xb
 2621 005d 3B       		.uleb128 0x3b
 2622 005e 0B       		.uleb128 0xb
 2623 005f 49       		.uleb128 0x49
 2624 0060 13       		.uleb128 0x13
 2625 0061 38       		.uleb128 0x38
 2626 0062 0A       		.uleb128 0xa
 2627 0063 00       		.byte	0
 2628 0064 00       		.byte	0
 2629 0065 08       		.uleb128 0x8
 2630 0066 13       		.uleb128 0x13
 2631 0067 01       		.byte	0x1
 2632 0068 0B       		.uleb128 0xb
 2633 0069 0B       		.uleb128 0xb
 2634 006a 3A       		.uleb128 0x3a
 2635 006b 0B       		.uleb128 0xb
 2636 006c 3B       		.uleb128 0x3b
 2637 006d 0B       		.uleb128 0xb
 2638 006e 01       		.uleb128 0x1
 2639 006f 13       		.uleb128 0x13
 2640 0070 00       		.byte	0
 2641 0071 00       		.byte	0
 2642 0072 09       		.uleb128 0x9
 2643 0073 0F       		.uleb128 0xf
 2644 0074 00       		.byte	0
 2645 0075 0B       		.uleb128 0xb
 2646 0076 0B       		.uleb128 0xb
 2647 0077 49       		.uleb128 0x49
 2648 0078 13       		.uleb128 0x13
 2649 0079 00       		.byte	0
 2650 007a 00       		.byte	0
 2651 007b 0A       		.uleb128 0xa
 2652 007c 0F       		.uleb128 0xf
 2653 007d 00       		.byte	0
 2654 007e 0B       		.uleb128 0xb
 2655 007f 0B       		.uleb128 0xb
 2656 0080 00       		.byte	0
ARM GAS  C:\Users\z80\AppData\Local\Temp\ccwXiAvJ.s 			page 48


 2657 0081 00       		.byte	0
 2658 0082 0B       		.uleb128 0xb
 2659 0083 0D       		.uleb128 0xd
 2660 0084 00       		.byte	0
 2661 0085 03       		.uleb128 0x3
 2662 0086 08       		.uleb128 0x8
 2663 0087 3A       		.uleb128 0x3a
 2664 0088 0B       		.uleb128 0xb
 2665 0089 3B       		.uleb128 0x3b
 2666 008a 05       		.uleb128 0x5
 2667 008b 49       		.uleb128 0x49
 2668 008c 13       		.uleb128 0x13
 2669 008d 38       		.uleb128 0x38
 2670 008e 0A       		.uleb128 0xa
 2671 008f 00       		.byte	0
 2672 0090 00       		.byte	0
 2673 0091 0C       		.uleb128 0xc
 2674 0092 13       		.uleb128 0x13
 2675 0093 01       		.byte	0x1
 2676 0094 03       		.uleb128 0x3
 2677 0095 0E       		.uleb128 0xe
 2678 0096 0B       		.uleb128 0xb
 2679 0097 0B       		.uleb128 0xb
 2680 0098 3A       		.uleb128 0x3a
 2681 0099 0B       		.uleb128 0xb
 2682 009a 3B       		.uleb128 0x3b
 2683 009b 05       		.uleb128 0x5
 2684 009c 01       		.uleb128 0x1
 2685 009d 13       		.uleb128 0x13
 2686 009e 00       		.byte	0
 2687 009f 00       		.byte	0
 2688 00a0 0D       		.uleb128 0xd
 2689 00a1 35       		.uleb128 0x35
 2690 00a2 00       		.byte	0
 2691 00a3 49       		.uleb128 0x49
 2692 00a4 13       		.uleb128 0x13
 2693 00a5 00       		.byte	0
 2694 00a6 00       		.byte	0
 2695 00a7 0E       		.uleb128 0xe
 2696 00a8 17       		.uleb128 0x17
 2697 00a9 01       		.byte	0x1
 2698 00aa 0B       		.uleb128 0xb
 2699 00ab 0B       		.uleb128 0xb
 2700 00ac 3A       		.uleb128 0x3a
 2701 00ad 0B       		.uleb128 0xb
 2702 00ae 3B       		.uleb128 0x3b
 2703 00af 0B       		.uleb128 0xb
 2704 00b0 01       		.uleb128 0x1
 2705 00b1 13       		.uleb128 0x13
 2706 00b2 00       		.byte	0
 2707 00b3 00       		.byte	0
 2708 00b4 0F       		.uleb128 0xf
 2709 00b5 0D       		.uleb128 0xd
 2710 00b6 00       		.byte	0
 2711 00b7 03       		.uleb128 0x3
 2712 00b8 0E       		.uleb128 0xe
 2713 00b9 3A       		.uleb128 0x3a
ARM GAS  C:\Users\z80\AppData\Local\Temp\ccwXiAvJ.s 			page 49


 2714 00ba 0B       		.uleb128 0xb
 2715 00bb 3B       		.uleb128 0x3b
 2716 00bc 0B       		.uleb128 0xb
 2717 00bd 49       		.uleb128 0x49
 2718 00be 13       		.uleb128 0x13
 2719 00bf 00       		.byte	0
 2720 00c0 00       		.byte	0
 2721 00c1 10       		.uleb128 0x10
 2722 00c2 26       		.uleb128 0x26
 2723 00c3 00       		.byte	0
 2724 00c4 49       		.uleb128 0x49
 2725 00c5 13       		.uleb128 0x13
 2726 00c6 00       		.byte	0
 2727 00c7 00       		.byte	0
 2728 00c8 11       		.uleb128 0x11
 2729 00c9 15       		.uleb128 0x15
 2730 00ca 01       		.byte	0x1
 2731 00cb 27       		.uleb128 0x27
 2732 00cc 0C       		.uleb128 0xc
 2733 00cd 01       		.uleb128 0x1
 2734 00ce 13       		.uleb128 0x13
 2735 00cf 00       		.byte	0
 2736 00d0 00       		.byte	0
 2737 00d1 12       		.uleb128 0x12
 2738 00d2 05       		.uleb128 0x5
 2739 00d3 00       		.byte	0
 2740 00d4 49       		.uleb128 0x49
 2741 00d5 13       		.uleb128 0x13
 2742 00d6 00       		.byte	0
 2743 00d7 00       		.byte	0
 2744 00d8 13       		.uleb128 0x13
 2745 00d9 2E       		.uleb128 0x2e
 2746 00da 01       		.byte	0x1
 2747 00db 03       		.uleb128 0x3
 2748 00dc 0E       		.uleb128 0xe
 2749 00dd 3A       		.uleb128 0x3a
 2750 00de 0B       		.uleb128 0xb
 2751 00df 3B       		.uleb128 0x3b
 2752 00e0 0B       		.uleb128 0xb
 2753 00e1 27       		.uleb128 0x27
 2754 00e2 0C       		.uleb128 0xc
 2755 00e3 11       		.uleb128 0x11
 2756 00e4 01       		.uleb128 0x1
 2757 00e5 12       		.uleb128 0x12
 2758 00e6 01       		.uleb128 0x1
 2759 00e7 40       		.uleb128 0x40
 2760 00e8 06       		.uleb128 0x6
 2761 00e9 01       		.uleb128 0x1
 2762 00ea 13       		.uleb128 0x13
 2763 00eb 00       		.byte	0
 2764 00ec 00       		.byte	0
 2765 00ed 14       		.uleb128 0x14
 2766 00ee 05       		.uleb128 0x5
 2767 00ef 00       		.byte	0
 2768 00f0 03       		.uleb128 0x3
 2769 00f1 08       		.uleb128 0x8
 2770 00f2 3A       		.uleb128 0x3a
ARM GAS  C:\Users\z80\AppData\Local\Temp\ccwXiAvJ.s 			page 50


 2771 00f3 0B       		.uleb128 0xb
 2772 00f4 3B       		.uleb128 0x3b
 2773 00f5 0B       		.uleb128 0xb
 2774 00f6 49       		.uleb128 0x49
 2775 00f7 13       		.uleb128 0x13
 2776 00f8 02       		.uleb128 0x2
 2777 00f9 0A       		.uleb128 0xa
 2778 00fa 00       		.byte	0
 2779 00fb 00       		.byte	0
 2780 00fc 15       		.uleb128 0x15
 2781 00fd 2E       		.uleb128 0x2e
 2782 00fe 01       		.byte	0x1
 2783 00ff 03       		.uleb128 0x3
 2784 0100 0E       		.uleb128 0xe
 2785 0101 3A       		.uleb128 0x3a
 2786 0102 0B       		.uleb128 0xb
 2787 0103 3B       		.uleb128 0x3b
 2788 0104 0B       		.uleb128 0xb
 2789 0105 27       		.uleb128 0x27
 2790 0106 0C       		.uleb128 0xc
 2791 0107 49       		.uleb128 0x49
 2792 0108 13       		.uleb128 0x13
 2793 0109 11       		.uleb128 0x11
 2794 010a 01       		.uleb128 0x1
 2795 010b 12       		.uleb128 0x12
 2796 010c 01       		.uleb128 0x1
 2797 010d 40       		.uleb128 0x40
 2798 010e 06       		.uleb128 0x6
 2799 010f 01       		.uleb128 0x1
 2800 0110 13       		.uleb128 0x13
 2801 0111 00       		.byte	0
 2802 0112 00       		.byte	0
 2803 0113 16       		.uleb128 0x16
 2804 0114 34       		.uleb128 0x34
 2805 0115 00       		.byte	0
 2806 0116 03       		.uleb128 0x3
 2807 0117 08       		.uleb128 0x8
 2808 0118 3A       		.uleb128 0x3a
 2809 0119 0B       		.uleb128 0xb
 2810 011a 3B       		.uleb128 0x3b
 2811 011b 0B       		.uleb128 0xb
 2812 011c 49       		.uleb128 0x49
 2813 011d 13       		.uleb128 0x13
 2814 011e 02       		.uleb128 0x2
 2815 011f 0A       		.uleb128 0xa
 2816 0120 00       		.byte	0
 2817 0121 00       		.byte	0
 2818 0122 17       		.uleb128 0x17
 2819 0123 05       		.uleb128 0x5
 2820 0124 00       		.byte	0
 2821 0125 03       		.uleb128 0x3
 2822 0126 0E       		.uleb128 0xe
 2823 0127 3A       		.uleb128 0x3a
 2824 0128 0B       		.uleb128 0xb
 2825 0129 3B       		.uleb128 0x3b
 2826 012a 0B       		.uleb128 0xb
 2827 012b 49       		.uleb128 0x49
ARM GAS  C:\Users\z80\AppData\Local\Temp\ccwXiAvJ.s 			page 51


 2828 012c 13       		.uleb128 0x13
 2829 012d 02       		.uleb128 0x2
 2830 012e 0A       		.uleb128 0xa
 2831 012f 00       		.byte	0
 2832 0130 00       		.byte	0
 2833 0131 18       		.uleb128 0x18
 2834 0132 2E       		.uleb128 0x2e
 2835 0133 01       		.byte	0x1
 2836 0134 3F       		.uleb128 0x3f
 2837 0135 0C       		.uleb128 0xc
 2838 0136 03       		.uleb128 0x3
 2839 0137 0E       		.uleb128 0xe
 2840 0138 3A       		.uleb128 0x3a
 2841 0139 0B       		.uleb128 0xb
 2842 013a 3B       		.uleb128 0x3b
 2843 013b 0B       		.uleb128 0xb
 2844 013c 27       		.uleb128 0x27
 2845 013d 0C       		.uleb128 0xc
 2846 013e 11       		.uleb128 0x11
 2847 013f 01       		.uleb128 0x1
 2848 0140 12       		.uleb128 0x12
 2849 0141 01       		.uleb128 0x1
 2850 0142 40       		.uleb128 0x40
 2851 0143 06       		.uleb128 0x6
 2852 0144 01       		.uleb128 0x1
 2853 0145 13       		.uleb128 0x13
 2854 0146 00       		.byte	0
 2855 0147 00       		.byte	0
 2856 0148 19       		.uleb128 0x19
 2857 0149 2E       		.uleb128 0x2e
 2858 014a 01       		.byte	0x1
 2859 014b 3F       		.uleb128 0x3f
 2860 014c 0C       		.uleb128 0xc
 2861 014d 03       		.uleb128 0x3
 2862 014e 0E       		.uleb128 0xe
 2863 014f 3A       		.uleb128 0x3a
 2864 0150 0B       		.uleb128 0xb
 2865 0151 3B       		.uleb128 0x3b
 2866 0152 0B       		.uleb128 0xb
 2867 0153 27       		.uleb128 0x27
 2868 0154 0C       		.uleb128 0xc
 2869 0155 49       		.uleb128 0x49
 2870 0156 13       		.uleb128 0x13
 2871 0157 11       		.uleb128 0x11
 2872 0158 01       		.uleb128 0x1
 2873 0159 12       		.uleb128 0x12
 2874 015a 01       		.uleb128 0x1
 2875 015b 40       		.uleb128 0x40
 2876 015c 06       		.uleb128 0x6
 2877 015d 01       		.uleb128 0x1
 2878 015e 13       		.uleb128 0x13
 2879 015f 00       		.byte	0
 2880 0160 00       		.byte	0
 2881 0161 1A       		.uleb128 0x1a
 2882 0162 0B       		.uleb128 0xb
 2883 0163 01       		.byte	0x1
 2884 0164 11       		.uleb128 0x11
ARM GAS  C:\Users\z80\AppData\Local\Temp\ccwXiAvJ.s 			page 52


 2885 0165 01       		.uleb128 0x1
 2886 0166 12       		.uleb128 0x12
 2887 0167 01       		.uleb128 0x1
 2888 0168 01       		.uleb128 0x1
 2889 0169 13       		.uleb128 0x13
 2890 016a 00       		.byte	0
 2891 016b 00       		.byte	0
 2892 016c 1B       		.uleb128 0x1b
 2893 016d 0B       		.uleb128 0xb
 2894 016e 01       		.byte	0x1
 2895 016f 11       		.uleb128 0x11
 2896 0170 01       		.uleb128 0x1
 2897 0171 12       		.uleb128 0x12
 2898 0172 01       		.uleb128 0x1
 2899 0173 00       		.byte	0
 2900 0174 00       		.byte	0
 2901 0175 1C       		.uleb128 0x1c
 2902 0176 2E       		.uleb128 0x2e
 2903 0177 01       		.byte	0x1
 2904 0178 3F       		.uleb128 0x3f
 2905 0179 0C       		.uleb128 0xc
 2906 017a 03       		.uleb128 0x3
 2907 017b 0E       		.uleb128 0xe
 2908 017c 3A       		.uleb128 0x3a
 2909 017d 0B       		.uleb128 0xb
 2910 017e 3B       		.uleb128 0x3b
 2911 017f 05       		.uleb128 0x5
 2912 0180 27       		.uleb128 0x27
 2913 0181 0C       		.uleb128 0xc
 2914 0182 11       		.uleb128 0x11
 2915 0183 01       		.uleb128 0x1
 2916 0184 12       		.uleb128 0x12
 2917 0185 01       		.uleb128 0x1
 2918 0186 40       		.uleb128 0x40
 2919 0187 06       		.uleb128 0x6
 2920 0188 01       		.uleb128 0x1
 2921 0189 13       		.uleb128 0x13
 2922 018a 00       		.byte	0
 2923 018b 00       		.byte	0
 2924 018c 1D       		.uleb128 0x1d
 2925 018d 05       		.uleb128 0x5
 2926 018e 00       		.byte	0
 2927 018f 03       		.uleb128 0x3
 2928 0190 08       		.uleb128 0x8
 2929 0191 3A       		.uleb128 0x3a
 2930 0192 0B       		.uleb128 0xb
 2931 0193 3B       		.uleb128 0x3b
 2932 0194 05       		.uleb128 0x5
 2933 0195 49       		.uleb128 0x49
 2934 0196 13       		.uleb128 0x13
 2935 0197 02       		.uleb128 0x2
 2936 0198 0A       		.uleb128 0xa
 2937 0199 00       		.byte	0
 2938 019a 00       		.byte	0
 2939 019b 1E       		.uleb128 0x1e
 2940 019c 05       		.uleb128 0x5
 2941 019d 00       		.byte	0
ARM GAS  C:\Users\z80\AppData\Local\Temp\ccwXiAvJ.s 			page 53


 2942 019e 03       		.uleb128 0x3
 2943 019f 0E       		.uleb128 0xe
 2944 01a0 3A       		.uleb128 0x3a
 2945 01a1 0B       		.uleb128 0xb
 2946 01a2 3B       		.uleb128 0x3b
 2947 01a3 05       		.uleb128 0x5
 2948 01a4 49       		.uleb128 0x49
 2949 01a5 13       		.uleb128 0x13
 2950 01a6 02       		.uleb128 0x2
 2951 01a7 0A       		.uleb128 0xa
 2952 01a8 00       		.byte	0
 2953 01a9 00       		.byte	0
 2954 01aa 1F       		.uleb128 0x1f
 2955 01ab 2E       		.uleb128 0x2e
 2956 01ac 01       		.byte	0x1
 2957 01ad 3F       		.uleb128 0x3f
 2958 01ae 0C       		.uleb128 0xc
 2959 01af 03       		.uleb128 0x3
 2960 01b0 0E       		.uleb128 0xe
 2961 01b1 3A       		.uleb128 0x3a
 2962 01b2 0B       		.uleb128 0xb
 2963 01b3 3B       		.uleb128 0x3b
 2964 01b4 05       		.uleb128 0x5
 2965 01b5 27       		.uleb128 0x27
 2966 01b6 0C       		.uleb128 0xc
 2967 01b7 49       		.uleb128 0x49
 2968 01b8 13       		.uleb128 0x13
 2969 01b9 11       		.uleb128 0x11
 2970 01ba 01       		.uleb128 0x1
 2971 01bb 12       		.uleb128 0x12
 2972 01bc 01       		.uleb128 0x1
 2973 01bd 40       		.uleb128 0x40
 2974 01be 06       		.uleb128 0x6
 2975 01bf 01       		.uleb128 0x1
 2976 01c0 13       		.uleb128 0x13
 2977 01c1 00       		.byte	0
 2978 01c2 00       		.byte	0
 2979 01c3 20       		.uleb128 0x20
 2980 01c4 34       		.uleb128 0x34
 2981 01c5 00       		.byte	0
 2982 01c6 03       		.uleb128 0x3
 2983 01c7 08       		.uleb128 0x8
 2984 01c8 3A       		.uleb128 0x3a
 2985 01c9 0B       		.uleb128 0xb
 2986 01ca 3B       		.uleb128 0x3b
 2987 01cb 05       		.uleb128 0x5
 2988 01cc 49       		.uleb128 0x49
 2989 01cd 13       		.uleb128 0x13
 2990 01ce 02       		.uleb128 0x2
 2991 01cf 0A       		.uleb128 0xa
 2992 01d0 00       		.byte	0
 2993 01d1 00       		.byte	0
 2994 01d2 21       		.uleb128 0x21
 2995 01d3 34       		.uleb128 0x34
 2996 01d4 00       		.byte	0
 2997 01d5 03       		.uleb128 0x3
 2998 01d6 0E       		.uleb128 0xe
ARM GAS  C:\Users\z80\AppData\Local\Temp\ccwXiAvJ.s 			page 54


 2999 01d7 3A       		.uleb128 0x3a
 3000 01d8 0B       		.uleb128 0xb
 3001 01d9 3B       		.uleb128 0x3b
 3002 01da 0B       		.uleb128 0xb
 3003 01db 49       		.uleb128 0x49
 3004 01dc 13       		.uleb128 0x13
 3005 01dd 3F       		.uleb128 0x3f
 3006 01de 0C       		.uleb128 0xc
 3007 01df 3C       		.uleb128 0x3c
 3008 01e0 0C       		.uleb128 0xc
 3009 01e1 00       		.byte	0
 3010 01e2 00       		.byte	0
 3011 01e3 00       		.byte	0
 3012              		.section	.debug_loc,"",%progbits
 3013              	.Ldebug_loc0:
 3014              	.LLST0:
 3015 0000 00000000 		.4byte	.LFB1
 3016 0004 02000000 		.4byte	.LCFI0
 3017 0008 0200     		.2byte	0x2
 3018 000a 7D       		.byte	0x7d
 3019 000b 00       		.sleb128 0
 3020 000c 02000000 		.4byte	.LCFI0
 3021 0010 28000000 		.4byte	.LFE1
 3022 0014 0200     		.2byte	0x2
 3023 0016 7D       		.byte	0x7d
 3024 0017 08       		.sleb128 8
 3025 0018 00000000 		.4byte	0
 3026 001c 00000000 		.4byte	0
 3027              	.LLST1:
 3028 0020 00000000 		.4byte	.LFB2
 3029 0024 02000000 		.4byte	.LCFI1
 3030 0028 0200     		.2byte	0x2
 3031 002a 7D       		.byte	0x7d
 3032 002b 00       		.sleb128 0
 3033 002c 02000000 		.4byte	.LCFI1
 3034 0030 22000000 		.4byte	.LFE2
 3035 0034 0200     		.2byte	0x2
 3036 0036 7D       		.byte	0x7d
 3037 0037 10       		.sleb128 16
 3038 0038 00000000 		.4byte	0
 3039 003c 00000000 		.4byte	0
 3040              	.LLST2:
 3041 0040 00000000 		.4byte	.LFB7
 3042 0044 02000000 		.4byte	.LCFI2
 3043 0048 0200     		.2byte	0x2
 3044 004a 7D       		.byte	0x7d
 3045 004b 00       		.sleb128 0
 3046 004c 02000000 		.4byte	.LCFI2
 3047 0050 04000000 		.4byte	.LCFI3
 3048 0054 0200     		.2byte	0x2
 3049 0056 7D       		.byte	0x7d
 3050 0057 04       		.sleb128 4
 3051 0058 04000000 		.4byte	.LCFI3
 3052 005c 48000000 		.4byte	.LFE7
 3053 0060 0200     		.2byte	0x2
 3054 0062 7D       		.byte	0x7d
 3055 0063 10       		.sleb128 16
ARM GAS  C:\Users\z80\AppData\Local\Temp\ccwXiAvJ.s 			page 55


 3056 0064 00000000 		.4byte	0
 3057 0068 00000000 		.4byte	0
 3058              	.LLST3:
 3059 006c 00000000 		.4byte	.LFB8
 3060 0070 02000000 		.4byte	.LCFI4
 3061 0074 0200     		.2byte	0x2
 3062 0076 7D       		.byte	0x7d
 3063 0077 00       		.sleb128 0
 3064 0078 02000000 		.4byte	.LCFI4
 3065 007c 4A000000 		.4byte	.LFE8
 3066 0080 0200     		.2byte	0x2
 3067 0082 7D       		.byte	0x7d
 3068 0083 10       		.sleb128 16
 3069 0084 00000000 		.4byte	0
 3070 0088 00000000 		.4byte	0
 3071              	.LLST4:
 3072 008c 00000000 		.4byte	.LFB9
 3073 0090 02000000 		.4byte	.LCFI5
 3074 0094 0200     		.2byte	0x2
 3075 0096 7D       		.byte	0x7d
 3076 0097 00       		.sleb128 0
 3077 0098 02000000 		.4byte	.LCFI5
 3078 009c 04000000 		.4byte	.LCFI6
 3079 00a0 0200     		.2byte	0x2
 3080 00a2 7D       		.byte	0x7d
 3081 00a3 04       		.sleb128 4
 3082 00a4 04000000 		.4byte	.LCFI6
 3083 00a8 4A000000 		.4byte	.LFE9
 3084 00ac 0200     		.2byte	0x2
 3085 00ae 7D       		.byte	0x7d
 3086 00af 10       		.sleb128 16
 3087 00b0 00000000 		.4byte	0
 3088 00b4 00000000 		.4byte	0
 3089              	.LLST5:
 3090 00b8 00000000 		.4byte	.LFB10
 3091 00bc 02000000 		.4byte	.LCFI7
 3092 00c0 0200     		.2byte	0x2
 3093 00c2 7D       		.byte	0x7d
 3094 00c3 00       		.sleb128 0
 3095 00c4 02000000 		.4byte	.LCFI7
 3096 00c8 04000000 		.4byte	.LCFI8
 3097 00cc 0200     		.2byte	0x2
 3098 00ce 7D       		.byte	0x7d
 3099 00cf 04       		.sleb128 4
 3100 00d0 04000000 		.4byte	.LCFI8
 3101 00d4 88000000 		.4byte	.LFE10
 3102 00d8 0200     		.2byte	0x2
 3103 00da 7D       		.byte	0x7d
 3104 00db 10       		.sleb128 16
 3105 00dc 00000000 		.4byte	0
 3106 00e0 00000000 		.4byte	0
 3107              	.LLST6:
 3108 00e4 00000000 		.4byte	.LFB11
 3109 00e8 02000000 		.4byte	.LCFI9
 3110 00ec 0200     		.2byte	0x2
 3111 00ee 7D       		.byte	0x7d
 3112 00ef 00       		.sleb128 0
ARM GAS  C:\Users\z80\AppData\Local\Temp\ccwXiAvJ.s 			page 56


 3113 00f0 02000000 		.4byte	.LCFI9
 3114 00f4 04000000 		.4byte	.LCFI10
 3115 00f8 0200     		.2byte	0x2
 3116 00fa 7D       		.byte	0x7d
 3117 00fb 04       		.sleb128 4
 3118 00fc 04000000 		.4byte	.LCFI10
 3119 0100 98000000 		.4byte	.LFE11
 3120 0104 0200     		.2byte	0x2
 3121 0106 7D       		.byte	0x7d
 3122 0107 18       		.sleb128 24
 3123 0108 00000000 		.4byte	0
 3124 010c 00000000 		.4byte	0
 3125              	.LLST7:
 3126 0110 00000000 		.4byte	.LFB12
 3127 0114 02000000 		.4byte	.LCFI11
 3128 0118 0200     		.2byte	0x2
 3129 011a 7D       		.byte	0x7d
 3130 011b 00       		.sleb128 0
 3131 011c 02000000 		.4byte	.LCFI11
 3132 0120 04000000 		.4byte	.LCFI12
 3133 0124 0200     		.2byte	0x2
 3134 0126 7D       		.byte	0x7d
 3135 0127 04       		.sleb128 4
 3136 0128 04000000 		.4byte	.LCFI12
 3137 012c E0000000 		.4byte	.LFE12
 3138 0130 0200     		.2byte	0x2
 3139 0132 7D       		.byte	0x7d
 3140 0133 20       		.sleb128 32
 3141 0134 00000000 		.4byte	0
 3142 0138 00000000 		.4byte	0
 3143              	.LLST8:
 3144 013c 00000000 		.4byte	.LFB13
 3145 0140 02000000 		.4byte	.LCFI13
 3146 0144 0200     		.2byte	0x2
 3147 0146 7D       		.byte	0x7d
 3148 0147 00       		.sleb128 0
 3149 0148 02000000 		.4byte	.LCFI13
 3150 014c 48000000 		.4byte	.LFE13
 3151 0150 0200     		.2byte	0x2
 3152 0152 7D       		.byte	0x7d
 3153 0153 10       		.sleb128 16
 3154 0154 00000000 		.4byte	0
 3155 0158 00000000 		.4byte	0
 3156              	.LLST9:
 3157 015c 00000000 		.4byte	.LFB14
 3158 0160 02000000 		.4byte	.LCFI14
 3159 0164 0200     		.2byte	0x2
 3160 0166 7D       		.byte	0x7d
 3161 0167 00       		.sleb128 0
 3162 0168 02000000 		.4byte	.LCFI14
 3163 016c 04000000 		.4byte	.LCFI15
 3164 0170 0200     		.2byte	0x2
 3165 0172 7D       		.byte	0x7d
 3166 0173 04       		.sleb128 4
 3167 0174 04000000 		.4byte	.LCFI15
 3168 0178 54000000 		.4byte	.LFE14
 3169 017c 0200     		.2byte	0x2
ARM GAS  C:\Users\z80\AppData\Local\Temp\ccwXiAvJ.s 			page 57


 3170 017e 7D       		.byte	0x7d
 3171 017f 10       		.sleb128 16
 3172 0180 00000000 		.4byte	0
 3173 0184 00000000 		.4byte	0
 3174              	.LLST10:
 3175 0188 00000000 		.4byte	.LFB15
 3176 018c 02000000 		.4byte	.LCFI16
 3177 0190 0200     		.2byte	0x2
 3178 0192 7D       		.byte	0x7d
 3179 0193 00       		.sleb128 0
 3180 0194 02000000 		.4byte	.LCFI16
 3181 0198 04000000 		.4byte	.LCFI17
 3182 019c 0200     		.2byte	0x2
 3183 019e 7D       		.byte	0x7d
 3184 019f 04       		.sleb128 4
 3185 01a0 04000000 		.4byte	.LCFI17
 3186 01a4 9C000000 		.4byte	.LFE15
 3187 01a8 0200     		.2byte	0x2
 3188 01aa 7D       		.byte	0x7d
 3189 01ab 20       		.sleb128 32
 3190 01ac 00000000 		.4byte	0
 3191 01b0 00000000 		.4byte	0
 3192              	.LLST11:
 3193 01b4 00000000 		.4byte	.LFB16
 3194 01b8 02000000 		.4byte	.LCFI18
 3195 01bc 0200     		.2byte	0x2
 3196 01be 7D       		.byte	0x7d
 3197 01bf 00       		.sleb128 0
 3198 01c0 02000000 		.4byte	.LCFI18
 3199 01c4 04000000 		.4byte	.LCFI19
 3200 01c8 0200     		.2byte	0x2
 3201 01ca 7D       		.byte	0x7d
 3202 01cb 04       		.sleb128 4
 3203 01cc 04000000 		.4byte	.LCFI19
 3204 01d0 82000000 		.4byte	.LFE16
 3205 01d4 0200     		.2byte	0x2
 3206 01d6 7D       		.byte	0x7d
 3207 01d7 18       		.sleb128 24
 3208 01d8 00000000 		.4byte	0
 3209 01dc 00000000 		.4byte	0
 3210              	.LLST12:
 3211 01e0 00000000 		.4byte	.LFB17
 3212 01e4 02000000 		.4byte	.LCFI20
 3213 01e8 0200     		.2byte	0x2
 3214 01ea 7D       		.byte	0x7d
 3215 01eb 00       		.sleb128 0
 3216 01ec 02000000 		.4byte	.LCFI20
 3217 01f0 04000000 		.4byte	.LCFI21
 3218 01f4 0200     		.2byte	0x2
 3219 01f6 7D       		.byte	0x7d
 3220 01f7 04       		.sleb128 4
 3221 01f8 04000000 		.4byte	.LCFI21
 3222 01fc E0000000 		.4byte	.LFE17
 3223 0200 0200     		.2byte	0x2
 3224 0202 7D       		.byte	0x7d
 3225 0203 20       		.sleb128 32
 3226 0204 00000000 		.4byte	0
ARM GAS  C:\Users\z80\AppData\Local\Temp\ccwXiAvJ.s 			page 58


 3227 0208 00000000 		.4byte	0
 3228              		.section	.debug_aranges,"",%progbits
 3229 0000 7C000000 		.4byte	0x7c
 3230 0004 0200     		.2byte	0x2
 3231 0006 00000000 		.4byte	.Ldebug_info0
 3232 000a 04       		.byte	0x4
 3233 000b 00       		.byte	0
 3234 000c 0000     		.2byte	0
 3235 000e 0000     		.2byte	0
 3236 0010 00000000 		.4byte	.LFB1
 3237 0014 28000000 		.4byte	.LFE1-.LFB1
 3238 0018 00000000 		.4byte	.LFB2
 3239 001c 22000000 		.4byte	.LFE2-.LFB2
 3240 0020 00000000 		.4byte	.LFB7
 3241 0024 48000000 		.4byte	.LFE7-.LFB7
 3242 0028 00000000 		.4byte	.LFB8
 3243 002c 4A000000 		.4byte	.LFE8-.LFB8
 3244 0030 00000000 		.4byte	.LFB9
 3245 0034 4A000000 		.4byte	.LFE9-.LFB9
 3246 0038 00000000 		.4byte	.LFB10
 3247 003c 88000000 		.4byte	.LFE10-.LFB10
 3248 0040 00000000 		.4byte	.LFB11
 3249 0044 98000000 		.4byte	.LFE11-.LFB11
 3250 0048 00000000 		.4byte	.LFB12
 3251 004c E0000000 		.4byte	.LFE12-.LFB12
 3252 0050 00000000 		.4byte	.LFB13
 3253 0054 48000000 		.4byte	.LFE13-.LFB13
 3254 0058 00000000 		.4byte	.LFB14
 3255 005c 54000000 		.4byte	.LFE14-.LFB14
 3256 0060 00000000 		.4byte	.LFB15
 3257 0064 9C000000 		.4byte	.LFE15-.LFB15
 3258 0068 00000000 		.4byte	.LFB16
 3259 006c 82000000 		.4byte	.LFE16-.LFB16
 3260 0070 00000000 		.4byte	.LFB17
 3261 0074 E0000000 		.4byte	.LFE17-.LFB17
 3262 0078 00000000 		.4byte	0
 3263 007c 00000000 		.4byte	0
 3264              		.section	.debug_ranges,"",%progbits
 3265              	.Ldebug_ranges0:
 3266 0000 00000000 		.4byte	.LFB1
 3267 0004 28000000 		.4byte	.LFE1
 3268 0008 00000000 		.4byte	.LFB2
 3269 000c 22000000 		.4byte	.LFE2
 3270 0010 00000000 		.4byte	.LFB7
 3271 0014 48000000 		.4byte	.LFE7
 3272 0018 00000000 		.4byte	.LFB8
 3273 001c 4A000000 		.4byte	.LFE8
 3274 0020 00000000 		.4byte	.LFB9
 3275 0024 4A000000 		.4byte	.LFE9
 3276 0028 00000000 		.4byte	.LFB10
 3277 002c 88000000 		.4byte	.LFE10
 3278 0030 00000000 		.4byte	.LFB11
 3279 0034 98000000 		.4byte	.LFE11
 3280 0038 00000000 		.4byte	.LFB12
 3281 003c E0000000 		.4byte	.LFE12
 3282 0040 00000000 		.4byte	.LFB13
 3283 0044 48000000 		.4byte	.LFE13
ARM GAS  C:\Users\z80\AppData\Local\Temp\ccwXiAvJ.s 			page 59


 3284 0048 00000000 		.4byte	.LFB14
 3285 004c 54000000 		.4byte	.LFE14
 3286 0050 00000000 		.4byte	.LFB15
 3287 0054 9C000000 		.4byte	.LFE15
 3288 0058 00000000 		.4byte	.LFB16
 3289 005c 82000000 		.4byte	.LFE16
 3290 0060 00000000 		.4byte	.LFB17
 3291 0064 E0000000 		.4byte	.LFE17
 3292 0068 00000000 		.4byte	0
 3293 006c 00000000 		.4byte	0
 3294              		.section	.debug_line,"",%progbits
 3295              	.Ldebug_line0:
 3296 0000 77030000 		.section	.debug_str,"MS",%progbits,1
 3296      0200C401 
 3296      00000201 
 3296      FB0E0D00 
 3296      01010101 
 3297              	.LASF84:
 3298 0000 63684F51 		.ascii	"chOQInit\000"
 3298      496E6974 
 3298      00
 3299              	.LASF36:
 3300 0009 705F6D73 		.ascii	"p_msg\000"
 3300      6700
 3301              	.LASF93:
 3302 000f 71756575 		.ascii	"queue_insert\000"
 3302      655F696E 
 3302      73657274 
 3302      00
 3303              	.LASF85:
 3304 001c 6F6E6679 		.ascii	"onfy\000"
 3304      00
 3305              	.LASF2:
 3306 0021 73697A65 		.ascii	"size_t\000"
 3306      5F7400
 3307              	.LASF58:
 3308 0028 7264796D 		.ascii	"rdymsg\000"
 3308      736700
 3309              	.LASF79:
 3310 002f 63684951 		.ascii	"chIQInit\000"
 3310      496E6974 
 3310      00
 3311              	.LASF12:
 3312 0038 75696E74 		.ascii	"uint64_t\000"
 3312      36345F74 
 3312      00
 3313              	.LASF73:
 3314 0041 4F757470 		.ascii	"OutputQueue\000"
 3314      75745175 
 3314      65756500 
 3315              	.LASF83:
 3316 004d 63684951 		.ascii	"chIQReadTimeout\000"
 3316      52656164 
 3316      54696D65 
 3316      6F757400 
 3317              	.LASF13:
 3318 005d 6C6F6E67 		.ascii	"long long unsigned int\000"
ARM GAS  C:\Users\z80\AppData\Local\Temp\ccwXiAvJ.s 			page 60


 3318      206C6F6E 
 3318      6720756E 
 3318      7369676E 
 3318      65642069 
 3319              	.LASF59:
 3320 0074 65786974 		.ascii	"exitcode\000"
 3320      636F6465 
 3320      00
 3321              	.LASF25:
 3322 007d 705F7072 		.ascii	"p_prio\000"
 3322      696F00
 3323              	.LASF64:
 3324 0084 715F7761 		.ascii	"q_waiting\000"
 3324      6974696E 
 3324      6700
 3325              	.LASF11:
 3326 008e 6C6F6E67 		.ascii	"long long int\000"
 3326      206C6F6E 
 3326      6720696E 
 3326      7400
 3327              	.LASF1:
 3328 009c 7369676E 		.ascii	"signed char\000"
 3328      65642063 
 3328      68617200 
 3329              	.LASF14:
 3330 00a8 626F6F6C 		.ascii	"bool_t\000"
 3330      5F7400
 3331              	.LASF55:
 3332 00af 6D5F7175 		.ascii	"m_queue\000"
 3332      65756500 
 3333              	.LASF92:
 3334 00b7 433A5C70 		.ascii	"C:\\projects\\digitizer.git\\firmware\\digitizer\000"
 3334      726F6A65 
 3334      6374735C 
 3334      64696769 
 3334      74697A65 
 3335              	.LASF8:
 3336 00e4 6C6F6E67 		.ascii	"long int\000"
 3336      20696E74 
 3336      00
 3337              	.LASF16:
 3338 00ed 74737461 		.ascii	"tstate_t\000"
 3338      74655F74 
 3338      00
 3339              	.LASF88:
 3340 00f6 63684F51 		.ascii	"chOQGetI\000"
 3340      47657449 
 3340      00
 3341              	.LASF66:
 3342 00ff 715F6275 		.ascii	"q_buffer\000"
 3342      66666572 
 3342      00
 3343              	.LASF68:
 3344 0108 715F7772 		.ascii	"q_wrptr\000"
 3344      70747200 
 3345              	.LASF27:
 3346 0110 705F6E65 		.ascii	"p_newer\000"
ARM GAS  C:\Users\z80\AppData\Local\Temp\ccwXiAvJ.s 			page 61


 3346      77657200 
 3347              	.LASF49:
 3348 0118 725F6E65 		.ascii	"r_newer\000"
 3348      77657200 
 3349              	.LASF42:
 3350 0120 72656761 		.ascii	"regarm_t\000"
 3350      726D5F74 
 3350      00
 3351              	.LASF87:
 3352 0129 63684F51 		.ascii	"chOQPutTimeout\000"
 3352      50757454 
 3352      696D656F 
 3352      757400
 3353              	.LASF81:
 3354 0138 63684951 		.ascii	"chIQPutI\000"
 3354      50757449 
 3354      00
 3355              	.LASF21:
 3356 0141 636E745F 		.ascii	"cnt_t\000"
 3356      7400
 3357              	.LASF30:
 3358 0147 705F7374 		.ascii	"p_stklimit\000"
 3358      6B6C696D 
 3358      697400
 3359              	.LASF0:
 3360 0152 756E7369 		.ascii	"unsigned int\000"
 3360      676E6564 
 3360      20696E74 
 3360      00
 3361              	.LASF80:
 3362 015f 63684951 		.ascii	"chIQResetI\000"
 3362      52657365 
 3362      744900
 3363              	.LASF10:
 3364 016a 6C6F6E67 		.ascii	"long unsigned int\000"
 3364      20756E73 
 3364      69676E65 
 3364      6420696E 
 3364      7400
 3365              	.LASF45:
 3366 017c 636F6E74 		.ascii	"context\000"
 3366      65787400 
 3367              	.LASF77:
 3368 0184 73697A65 		.ascii	"size\000"
 3368      00
 3369              	.LASF6:
 3370 0189 73686F72 		.ascii	"short unsigned int\000"
 3370      7420756E 
 3370      7369676E 
 3370      65642069 
 3370      6E7400
 3371              	.LASF75:
 3372 019c 71776169 		.ascii	"qwait\000"
 3372      7400
 3373              	.LASF18:
 3374 01a2 6D73675F 		.ascii	"msg_t\000"
 3374      7400
ARM GAS  C:\Users\z80\AppData\Local\Temp\ccwXiAvJ.s 			page 62


 3375              	.LASF15:
 3376 01a8 746D6F64 		.ascii	"tmode_t\000"
 3376      655F7400 
 3377              	.LASF41:
 3378 01b0 54687265 		.ascii	"ThreadsList\000"
 3378      6164734C 
 3378      69737400 
 3379              	.LASF19:
 3380 01bc 6576656E 		.ascii	"eventmask_t\000"
 3380      746D6173 
 3380      6B5F7400 
 3381              	.LASF72:
 3382 01c8 496E7075 		.ascii	"InputQueue\000"
 3382      74517565 
 3382      756500
 3383              	.LASF54:
 3384 01d3 4D757465 		.ascii	"Mutex\000"
 3384      7800
 3385              	.LASF63:
 3386 01d9 47656E65 		.ascii	"GenericQueue\000"
 3386      72696351 
 3386      75657565 
 3386      00
 3387              	.LASF43:
 3388 01e6 73746B61 		.ascii	"stkalign_t\000"
 3388      6C69676E 
 3388      5F7400
 3389              	.LASF89:
 3390 01f1 63684F51 		.ascii	"chOQWriteTimeout\000"
 3390      57726974 
 3390      6554696D 
 3390      656F7574 
 3390      00
 3391              	.LASF65:
 3392 0202 715F636F 		.ascii	"q_counter\000"
 3392      756E7465 
 3392      7200
 3393              	.LASF28:
 3394 020c 705F6F6C 		.ascii	"p_older\000"
 3394      64657200 
 3395              	.LASF48:
 3396 0214 725F6374 		.ascii	"r_ctx\000"
 3396      7800
 3397              	.LASF40:
 3398 021a 54687265 		.ascii	"ThreadsQueue\000"
 3398      61647351 
 3398      75657565 
 3398      00
 3399              	.LASF76:
 3400 0227 74696D65 		.ascii	"time\000"
 3400      00
 3401              	.LASF52:
 3402 022c 725F6375 		.ascii	"r_current\000"
 3402      7272656E 
 3402      7400
 3403              	.LASF50:
 3404 0236 725F6F6C 		.ascii	"r_older\000"
ARM GAS  C:\Users\z80\AppData\Local\Temp\ccwXiAvJ.s 			page 63


 3404      64657200 
 3405              	.LASF71:
 3406 023e 716E6F74 		.ascii	"qnotify_t\000"
 3406      6966795F 
 3406      7400
 3407              	.LASF24:
 3408 0248 705F7072 		.ascii	"p_prev\000"
 3408      657600
 3409              	.LASF17:
 3410 024f 74707269 		.ascii	"tprio_t\000"
 3410      6F5F7400 
 3411              	.LASF69:
 3412 0257 715F7264 		.ascii	"q_rdptr\000"
 3412      70747200 
 3413              	.LASF7:
 3414 025f 696E7433 		.ascii	"int32_t\000"
 3414      325F7400 
 3415              	.LASF4:
 3416 0267 756E7369 		.ascii	"unsigned char\000"
 3416      676E6564 
 3416      20636861 
 3416      7200
 3417              	.LASF38:
 3418 0275 705F6D74 		.ascii	"p_mtxlist\000"
 3418      786C6973 
 3418      7400
 3419              	.LASF5:
 3420 027f 73686F72 		.ascii	"short int\000"
 3420      7420696E 
 3420      7400
 3421              	.LASF31:
 3422 0289 705F7374 		.ascii	"p_state\000"
 3422      61746500 
 3423              	.LASF47:
 3424 0291 725F7072 		.ascii	"r_prio\000"
 3424      696F00
 3425              	.LASF61:
 3426 0298 65776D61 		.ascii	"ewmask\000"
 3426      736B00
 3427              	.LASF23:
 3428 029f 705F6E65 		.ascii	"p_next\000"
 3428      787400
 3429              	.LASF78:
 3430 02a6 696E6679 		.ascii	"infy\000"
 3430      00
 3431              	.LASF32:
 3432 02ab 705F666C 		.ascii	"p_flags\000"
 3432      61677300 
 3433              	.LASF22:
 3434 02b3 54687265 		.ascii	"Thread\000"
 3434      616400
 3435              	.LASF37:
 3436 02ba 705F6570 		.ascii	"p_epending\000"
 3436      656E6469 
 3436      6E6700
 3437              	.LASF9:
 3438 02c5 75696E74 		.ascii	"uint32_t\000"
ARM GAS  C:\Users\z80\AppData\Local\Temp\ccwXiAvJ.s 			page 64


 3438      33325F74 
 3438      00
 3439              	.LASF46:
 3440 02ce 725F7175 		.ascii	"r_queue\000"
 3440      65756500 
 3441              	.LASF90:
 3442 02d6 474E5520 		.ascii	"GNU C 4.6.3\000"
 3442      4320342E 
 3442      362E3300 
 3443              	.LASF62:
 3444 02e2 63686172 		.ascii	"char\000"
 3444      00
 3445              	.LASF74:
 3446 02e7 6669666F 		.ascii	"fifo_remove\000"
 3446      5F72656D 
 3446      6F766500 
 3447              	.LASF57:
 3448 02f3 6D5F6E65 		.ascii	"m_next\000"
 3448      787400
 3449              	.LASF20:
 3450 02fa 73797374 		.ascii	"systime_t\000"
 3450      696D655F 
 3450      7400
 3451              	.LASF39:
 3452 0304 705F7265 		.ascii	"p_realprio\000"
 3452      616C7072 
 3452      696F00
 3453              	.LASF86:
 3454 030f 63684F51 		.ascii	"chOQResetI\000"
 3454      52657365 
 3454      744900
 3455              	.LASF33:
 3456 031a 705F7469 		.ascii	"p_time\000"
 3456      6D6500
 3457              	.LASF44:
 3458 0321 696E7463 		.ascii	"intctx\000"
 3458      747800
 3459              	.LASF35:
 3460 0328 705F6D73 		.ascii	"p_msgqueue\000"
 3460      67717565 
 3460      756500
 3461              	.LASF67:
 3462 0333 715F746F 		.ascii	"q_top\000"
 3462      7000
 3463              	.LASF53:
 3464 0339 52656164 		.ascii	"ReadyList\000"
 3464      794C6973 
 3464      7400
 3465              	.LASF70:
 3466 0343 715F6E6F 		.ascii	"q_notify\000"
 3466      74696679 
 3466      00
 3467              	.LASF94:
 3468 034c 726C6973 		.ascii	"rlist\000"
 3468      7400
 3469              	.LASF56:
 3470 0352 6D5F6F77 		.ascii	"m_owner\000"
ARM GAS  C:\Users\z80\AppData\Local\Temp\ccwXiAvJ.s 			page 65


 3470      6E657200 
 3471              	.LASF3:
 3472 035a 75696E74 		.ascii	"uint8_t\000"
 3472      385F7400 
 3473              	.LASF60:
 3474 0362 77746F62 		.ascii	"wtobjp\000"
 3474      6A7000
 3475              	.LASF29:
 3476 0369 705F6E61 		.ascii	"p_name\000"
 3476      6D6500
 3477              	.LASF51:
 3478 0370 725F7072 		.ascii	"r_preempt\000"
 3478      65656D70 
 3478      7400
 3479              	.LASF91:
 3480 037a 2E2E2F63 		.ascii	"../chibios_2.4.x/os/kernel/src/chqueues.c\000"
 3480      68696269 
 3480      6F735F32 
 3480      2E342E78 
 3480      2F6F732F 
 3481              	.LASF26:
 3482 03a4 705F6374 		.ascii	"p_ctx\000"
 3482      7800
 3483              	.LASF34:
 3484 03aa 705F7761 		.ascii	"p_waiting\000"
 3484      6974696E 
 3484      6700
 3485              	.LASF82:
 3486 03b4 63684951 		.ascii	"chIQGetTimeout\000"
 3486      47657454 
 3486      696D656F 
 3486      757400
 3487              		.ident	"GCC: (Sourcery CodeBench Lite 2012.03-56) 4.6.3"
ARM GAS  C:\Users\z80\AppData\Local\Temp\ccwXiAvJ.s 			page 66


DEFINED SYMBOLS
                            *ABS*:00000000 chqueues.c
C:\Users\z80\AppData\Local\Temp\ccwXiAvJ.s:19     .text.queue_insert:00000000 $t
C:\Users\z80\AppData\Local\Temp\ccwXiAvJ.s:24     .text.queue_insert:00000000 queue_insert
C:\Users\z80\AppData\Local\Temp\ccwXiAvJ.s:62     .text.fifo_remove:00000000 $t
C:\Users\z80\AppData\Local\Temp\ccwXiAvJ.s:67     .text.fifo_remove:00000000 fifo_remove
C:\Users\z80\AppData\Local\Temp\ccwXiAvJ.s:101    .text.qwait:00000000 $t
C:\Users\z80\AppData\Local\Temp\ccwXiAvJ.s:106    .text.qwait:00000000 qwait
C:\Users\z80\AppData\Local\Temp\ccwXiAvJ.s:158    .text.chIQInit:00000000 $t
C:\Users\z80\AppData\Local\Temp\ccwXiAvJ.s:164    .text.chIQInit:00000000 chIQInit
C:\Users\z80\AppData\Local\Temp\ccwXiAvJ.s:219    .text.chIQResetI:00000000 $t
C:\Users\z80\AppData\Local\Temp\ccwXiAvJ.s:225    .text.chIQResetI:00000000 chIQResetI
C:\Users\z80\AppData\Local\Temp\ccwXiAvJ.s:281    .text.chIQPutI:00000000 $t
C:\Users\z80\AppData\Local\Temp\ccwXiAvJ.s:287    .text.chIQPutI:00000000 chIQPutI
C:\Users\z80\AppData\Local\Temp\ccwXiAvJ.s:376    .text.chIQGetTimeout:00000000 $t
C:\Users\z80\AppData\Local\Temp\ccwXiAvJ.s:382    .text.chIQGetTimeout:00000000 chIQGetTimeout
C:\Users\z80\AppData\Local\Temp\ccwXiAvJ.s:497    .rodata:00000000 $d
C:\Users\z80\AppData\Local\Temp\ccwXiAvJ.s:498    .rodata:00000000 .LC0
C:\Users\z80\AppData\Local\Temp\ccwXiAvJ.s:501    .text.chIQReadTimeout:00000000 $t
C:\Users\z80\AppData\Local\Temp\ccwXiAvJ.s:507    .text.chIQReadTimeout:00000000 chIQReadTimeout
C:\Users\z80\AppData\Local\Temp\ccwXiAvJ.s:664    .text.chOQInit:00000000 $t
C:\Users\z80\AppData\Local\Temp\ccwXiAvJ.s:670    .text.chOQInit:00000000 chOQInit
C:\Users\z80\AppData\Local\Temp\ccwXiAvJ.s:725    .text.chOQResetI:00000000 $t
C:\Users\z80\AppData\Local\Temp\ccwXiAvJ.s:731    .text.chOQResetI:00000000 chOQResetI
C:\Users\z80\AppData\Local\Temp\ccwXiAvJ.s:793    .text.chOQPutTimeout:00000000 $t
C:\Users\z80\AppData\Local\Temp\ccwXiAvJ.s:799    .text.chOQPutTimeout:00000000 chOQPutTimeout
C:\Users\z80\AppData\Local\Temp\ccwXiAvJ.s:914    .text.chOQGetI:00000000 $t
C:\Users\z80\AppData\Local\Temp\ccwXiAvJ.s:920    .text.chOQGetI:00000000 chOQGetI
C:\Users\z80\AppData\Local\Temp\ccwXiAvJ.s:1008   .rodata:00000014 .LC1
C:\Users\z80\AppData\Local\Temp\ccwXiAvJ.s:1011   .text.chOQWriteTimeout:00000000 $t
C:\Users\z80\AppData\Local\Temp\ccwXiAvJ.s:1017   .text.chOQWriteTimeout:00000000 chOQWriteTimeout
                     .debug_frame:00000010 $d

UNDEFINED SYMBOLS
rlist
chSchGoSleepTimeoutS
chDbgCheckClassI
chSchReadyI
dbg_check_lock
dbg_check_unlock
chDbgPanic
