ARM GAS  C:\Users\z80\AppData\Local\Temp\cc8Y1Xdk.s 			page 1


   1              		.syntax unified
   2              		.cpu cortex-m3
   3              		.fpu softvfp
   4              		.eabi_attribute 20, 1
   5              		.eabi_attribute 21, 1
   6              		.eabi_attribute 23, 3
   7              		.eabi_attribute 24, 1
   8              		.eabi_attribute 25, 1
   9              		.eabi_attribute 26, 1
  10              		.eabi_attribute 30, 2
  11              		.eabi_attribute 34, 1
  12              		.eabi_attribute 18, 4
  13              		.thumb
  14              		.file	"chregistry.c"
  15              		.text
  16              	.Ltext0:
  17              		.cfi_sections	.debug_frame
  18              		.section	.text.chRegFirstThread,"ax",%progbits
  19              		.align	2
  20              		.p2align 4,,15
  21              		.global	chRegFirstThread
  22              		.thumb
  23              		.thumb_func
  24              		.type	chRegFirstThread, %function
  25              	chRegFirstThread:
  26              	.LFB7:
  27              		.file 1 "../chibios_2.4.x/os/kernel/src/chregistry.c"
  28              		.loc 1 72 0
  29              		.cfi_startproc
  30              		@ args = 0, pretend = 0, frame = 0
  31              		@ frame_needed = 0, uses_anonymous_args = 0
  32 0000 10B5     		push	{r4, lr}
  33              	.LCFI0:
  34              		.cfi_def_cfa_offset 8
  35              		.cfi_offset 14, -4
  36              		.cfi_offset 4, -8
  37              	.LBB2:
  38              		.loc 1 75 0
  39 0002 2023     		movs	r3, #32
  40              	.LVL0:
  41              	@ 75 "../chibios_2.4.x/os/kernel/src/chregistry.c" 1
  42 0004 83F31188 		msr     BASEPRI, r3
  43              	@ 0 "" 2
  44              	.LVL1:
  45              		.thumb
  46              	.LBE2:
  47 0008 FFF7FEFF 		bl	dbg_check_lock
  48              	.LVL2:
  49              		.loc 1 76 0
  50 000c 40F20003 		movw	r3, #:lower16:rlist
  51 0010 C0F20003 		movt	r3, #:upper16:rlist
  52 0014 1C69     		ldr	r4, [r3, #16]
  53              	.LVL3:
  54              		.loc 1 80 0
  55 0016 FFF7FEFF 		bl	dbg_check_unlock
  56              	.LVL4:
  57              	.LBB3:
ARM GAS  C:\Users\z80\AppData\Local\Temp\cc8Y1Xdk.s 			page 2


  58 001a 0023     		movs	r3, #0
  59              	.LVL5:
  60              	@ 80 "../chibios_2.4.x/os/kernel/src/chregistry.c" 1
  61 001c 83F31188 		msr     BASEPRI, r3
  62              	@ 0 "" 2
  63              	.LVL6:
  64              		.thumb
  65              	.LBE3:
  66              		.loc 1 82 0
  67 0020 2046     		mov	r0, r4
  68 0022 10BD     		pop	{r4, pc}
  69              		.cfi_endproc
  70              	.LFE7:
  71              		.size	chRegFirstThread, .-chRegFirstThread
  72 0024 AFF30080 		.section	.text.chRegNextThread,"ax",%progbits
  72      AFF30080 
  72      AFF30080 
  73              		.align	2
  74              		.p2align 4,,15
  75              		.global	chRegNextThread
  76              		.thumb
  77              		.thumb_func
  78              		.type	chRegNextThread, %function
  79              	chRegNextThread:
  80              	.LFB8:
  81              		.loc 1 95 0
  82              		.cfi_startproc
  83              		@ args = 0, pretend = 0, frame = 0
  84              		@ frame_needed = 0, uses_anonymous_args = 0
  85              	.LVL7:
  86 0000 10B5     		push	{r4, lr}
  87              	.LCFI1:
  88              		.cfi_def_cfa_offset 8
  89              		.cfi_offset 14, -4
  90              		.cfi_offset 4, -8
  91              	.LBB4:
  92              		.loc 1 98 0
  93 0002 2023     		movs	r3, #32
  94              	.LVL8:
  95              	.LBE4:
  96              		.loc 1 95 0
  97 0004 0446     		mov	r4, r0
  98              	.LBB5:
  99              		.loc 1 98 0
 100              	@ 98 "../chibios_2.4.x/os/kernel/src/chregistry.c" 1
 101 0006 83F31188 		msr     BASEPRI, r3
 102              	@ 0 "" 2
 103              	.LVL9:
 104              		.thumb
 105              	.LBE5:
 106 000a FFF7FEFF 		bl	dbg_check_lock
 107              	.LVL10:
 108              		.loc 1 99 0
 109 000e 2469     		ldr	r4, [r4, #16]
 110              	.LVL11:
 111              		.loc 1 100 0
 112 0010 40F20003 		movw	r3, #:lower16:rlist
ARM GAS  C:\Users\z80\AppData\Local\Temp\cc8Y1Xdk.s 			page 3


 113 0014 C0F20003 		movt	r3, #:upper16:rlist
 114              		.loc 1 101 0
 115 0018 9C42     		cmp	r4, r3
 116 001a 08BF     		it	eq
 117 001c 0024     		moveq	r4, #0
 118              	.LVL12:
 119              		.loc 1 109 0
 120 001e FFF7FEFF 		bl	dbg_check_unlock
 121              	.LBB6:
 122 0022 0023     		movs	r3, #0
 123              	.LVL13:
 124              	@ 109 "../chibios_2.4.x/os/kernel/src/chregistry.c" 1
 125 0024 83F31188 		msr     BASEPRI, r3
 126              	@ 0 "" 2
 127              	.LVL14:
 128              		.thumb
 129              	.LBE6:
 130              		.loc 1 114 0
 131 0028 2046     		mov	r0, r4
 132 002a 10BD     		pop	{r4, pc}
 133              		.cfi_endproc
 134              	.LFE8:
 135              		.size	chRegNextThread, .-chRegNextThread
 136 002c AFF30080 		.text
 137              	.Letext0:
 138              		.file 2 "c:\\programs\\codesourcery\\2011.03-56\\bin\\../lib/gcc/arm-none-eabi/4.6.3/../../../../a
 139              		.file 3 "../chibios_2.4.x/os/ports/GCC/ARMCMx/chtypes.h"
 140              		.file 4 "../chibios_2.4.x/os/kernel/include/chlists.h"
 141              		.file 5 "../chibios_2.4.x/os/kernel/include/chthreads.h"
 142              		.file 6 "../chibios_2.4.x/os/ports/GCC/ARMCMx/chcore_v7m.h"
 143              		.file 7 "../chibios_2.4.x/os/kernel/include/chschd.h"
 144              		.file 8 "../chibios_2.4.x/os/kernel/include/chmtx.h"
 145              		.section	.debug_info,"",%progbits
 146              	.Ldebug_info0:
 147 0000 0B050000 		.4byte	0x50b
 148 0004 0200     		.2byte	0x2
 149 0006 00000000 		.4byte	.Ldebug_abbrev0
 150 000a 04       		.byte	0x4
 151 000b 01       		.uleb128 0x1
 152 000c 24020000 		.4byte	.LASF63
 153 0010 01       		.byte	0x1
 154 0011 77010000 		.4byte	.LASF64
 155 0015 70000000 		.4byte	.LASF65
 156 0019 00000000 		.4byte	0
 157 001d 00000000 		.4byte	0
 158 0021 18000000 		.4byte	.Ldebug_ranges0+0x18
 159 0025 00000000 		.4byte	.Ldebug_line0
 160 0029 02       		.uleb128 0x2
 161 002a 04       		.byte	0x4
 162 002b 05       		.byte	0x5
 163 002c 696E7400 		.ascii	"int\000"
 164 0030 03       		.uleb128 0x3
 165 0031 04       		.byte	0x4
 166 0032 07       		.byte	0x7
 167 0033 D9000000 		.4byte	.LASF0
 168 0037 03       		.uleb128 0x3
 169 0038 01       		.byte	0x1
ARM GAS  C:\Users\z80\AppData\Local\Temp\cc8Y1Xdk.s 			page 4


 170 0039 06       		.byte	0x6
 171 003a 5C000000 		.4byte	.LASF1
 172 003e 04       		.uleb128 0x4
 173 003f 8A020000 		.4byte	.LASF5
 174 0043 02       		.byte	0x2
 175 0044 2A       		.byte	0x2a
 176 0045 49000000 		.4byte	0x49
 177 0049 03       		.uleb128 0x3
 178 004a 01       		.byte	0x1
 179 004b 08       		.byte	0x8
 180 004c BA010000 		.4byte	.LASF2
 181 0050 03       		.uleb128 0x3
 182 0051 02       		.byte	0x2
 183 0052 05       		.byte	0x5
 184 0053 D2010000 		.4byte	.LASF3
 185 0057 03       		.uleb128 0x3
 186 0058 02       		.byte	0x2
 187 0059 07       		.byte	0x7
 188 005a 00010000 		.4byte	.LASF4
 189 005e 04       		.uleb128 0x4
 190 005f B2010000 		.4byte	.LASF6
 191 0063 02       		.byte	0x2
 192 0064 4F       		.byte	0x4f
 193 0065 69000000 		.4byte	0x69
 194 0069 03       		.uleb128 0x3
 195 006a 04       		.byte	0x4
 196 006b 05       		.byte	0x5
 197 006c 9D000000 		.4byte	.LASF7
 198 0070 04       		.uleb128 0x4
 199 0071 13020000 		.4byte	.LASF8
 200 0075 02       		.byte	0x2
 201 0076 50       		.byte	0x50
 202 0077 7B000000 		.4byte	0x7b
 203 007b 03       		.uleb128 0x3
 204 007c 04       		.byte	0x4
 205 007d 07       		.byte	0x7
 206 007e E6000000 		.4byte	.LASF9
 207 0082 03       		.uleb128 0x3
 208 0083 08       		.byte	0x8
 209 0084 05       		.byte	0x5
 210 0085 4E000000 		.4byte	.LASF10
 211 0089 04       		.uleb128 0x4
 212 008a 0D000000 		.4byte	.LASF11
 213 008e 02       		.byte	0x2
 214 008f 78       		.byte	0x78
 215 0090 94000000 		.4byte	0x94
 216 0094 03       		.uleb128 0x3
 217 0095 08       		.byte	0x8
 218 0096 07       		.byte	0x7
 219 0097 16000000 		.4byte	.LASF12
 220 009b 04       		.uleb128 0x4
 221 009c 19010000 		.4byte	.LASF13
 222 00a0 03       		.byte	0x3
 223 00a1 2F       		.byte	0x2f
 224 00a2 3E000000 		.4byte	0x3e
 225 00a6 04       		.uleb128 0x4
 226 00a7 A6000000 		.4byte	.LASF14
ARM GAS  C:\Users\z80\AppData\Local\Temp\cc8Y1Xdk.s 			page 5


 227 00ab 03       		.byte	0x3
 228 00ac 30       		.byte	0x30
 229 00ad 3E000000 		.4byte	0x3e
 230 00b1 04       		.uleb128 0x4
 231 00b2 AA010000 		.4byte	.LASF15
 232 00b6 03       		.byte	0x3
 233 00b7 32       		.byte	0x32
 234 00b8 70000000 		.4byte	0x70
 235 00bc 04       		.uleb128 0x4
 236 00bd 13010000 		.4byte	.LASF16
 237 00c1 03       		.byte	0x3
 238 00c2 33       		.byte	0x33
 239 00c3 5E000000 		.4byte	0x5e
 240 00c7 04       		.uleb128 0x4
 241 00c8 2D010000 		.4byte	.LASF17
 242 00cc 03       		.byte	0x3
 243 00cd 35       		.byte	0x35
 244 00ce 70000000 		.4byte	0x70
 245 00d2 04       		.uleb128 0x4
 246 00d3 4C020000 		.4byte	.LASF18
 247 00d7 03       		.byte	0x3
 248 00d8 36       		.byte	0x36
 249 00d9 70000000 		.4byte	0x70
 250 00dd 04       		.uleb128 0x4
 251 00de C8000000 		.4byte	.LASF19
 252 00e2 03       		.byte	0x3
 253 00e3 37       		.byte	0x37
 254 00e4 5E000000 		.4byte	0x5e
 255 00e8 04       		.uleb128 0x4
 256 00e9 01020000 		.4byte	.LASF20
 257 00ed 04       		.byte	0x4
 258 00ee 2A       		.byte	0x2a
 259 00ef F3000000 		.4byte	0xf3
 260 00f3 05       		.uleb128 0x5
 261 00f4 01020000 		.4byte	.LASF20
 262 00f8 48       		.byte	0x48
 263 00f9 05       		.byte	0x5
 264 00fa 5E       		.byte	0x5e
 265 00fb FC010000 		.4byte	0x1fc
 266 00ff 06       		.uleb128 0x6
 267 0100 F2010000 		.4byte	.LASF21
 268 0104 05       		.byte	0x5
 269 0105 5F       		.byte	0x5f
 270 0106 21020000 		.4byte	0x221
 271 010a 02       		.byte	0x2
 272 010b 23       		.byte	0x23
 273 010c 00       		.uleb128 0
 274 010d 06       		.uleb128 0x6
 275 010e A3010000 		.4byte	.LASF22
 276 0112 05       		.byte	0x5
 277 0113 61       		.byte	0x61
 278 0114 21020000 		.4byte	0x221
 279 0118 02       		.byte	0x2
 280 0119 23       		.byte	0x23
 281 011a 04       		.uleb128 0x4
 282 011b 06       		.uleb128 0x6
 283 011c 47000000 		.4byte	.LASF23
ARM GAS  C:\Users\z80\AppData\Local\Temp\cc8Y1Xdk.s 			page 6


 284 0120 05       		.byte	0x5
 285 0121 63       		.byte	0x63
 286 0122 B1000000 		.4byte	0xb1
 287 0126 02       		.byte	0x2
 288 0127 23       		.byte	0x23
 289 0128 08       		.uleb128 0x8
 290 0129 06       		.uleb128 0x6
 291 012a B2020000 		.4byte	.LASF24
 292 012e 05       		.byte	0x5
 293 012f 64       		.byte	0x64
 294 0130 F9020000 		.4byte	0x2f9
 295 0134 02       		.byte	0x2
 296 0135 23       		.byte	0x23
 297 0136 0C       		.uleb128 0xc
 298 0137 06       		.uleb128 0x6
 299 0138 AF000000 		.4byte	.LASF25
 300 013c 05       		.byte	0x5
 301 013d 66       		.byte	0x66
 302 013e 21020000 		.4byte	0x221
 303 0142 02       		.byte	0x2
 304 0143 23       		.byte	0x23
 305 0144 10       		.uleb128 0x10
 306 0145 06       		.uleb128 0x6
 307 0146 4A010000 		.4byte	.LASF26
 308 014a 05       		.byte	0x5
 309 014b 67       		.byte	0x67
 310 014c 21020000 		.4byte	0x221
 311 0150 02       		.byte	0x2
 312 0151 23       		.byte	0x23
 313 0152 14       		.uleb128 0x14
 314 0153 06       		.uleb128 0x6
 315 0154 99020000 		.4byte	.LASF27
 316 0158 05       		.byte	0x5
 317 0159 6E       		.byte	0x6e
 318 015a 14040000 		.4byte	0x414
 319 015e 02       		.byte	0x2
 320 015f 23       		.byte	0x23
 321 0160 18       		.uleb128 0x18
 322 0161 06       		.uleb128 0x6
 323 0162 CE000000 		.4byte	.LASF28
 324 0166 05       		.byte	0x5
 325 0167 74       		.byte	0x74
 326 0168 26040000 		.4byte	0x426
 327 016c 02       		.byte	0x2
 328 016d 23       		.byte	0x23
 329 016e 1C       		.uleb128 0x1c
 330 016f 06       		.uleb128 0x6
 331 0170 DC010000 		.4byte	.LASF29
 332 0174 05       		.byte	0x5
 333 0175 79       		.byte	0x79
 334 0176 A6000000 		.4byte	0xa6
 335 017a 02       		.byte	0x2
 336 017b 23       		.byte	0x23
 337 017c 20       		.uleb128 0x20
 338 017d 06       		.uleb128 0x6
 339 017e F9010000 		.4byte	.LASF30
 340 0182 05       		.byte	0x5
ARM GAS  C:\Users\z80\AppData\Local\Temp\cc8Y1Xdk.s 			page 7


 341 0183 7D       		.byte	0x7d
 342 0184 9B000000 		.4byte	0x9b
 343 0188 02       		.byte	0x2
 344 0189 23       		.byte	0x23
 345 018a 21       		.uleb128 0x21
 346 018b 06       		.uleb128 0x6
 347 018c 61020000 		.4byte	.LASF31
 348 0190 05       		.byte	0x5
 349 0191 89       		.byte	0x89
 350 0192 1C030000 		.4byte	0x31c
 351 0196 02       		.byte	0x2
 352 0197 23       		.byte	0x23
 353 0198 24       		.uleb128 0x24
 354 0199 07       		.uleb128 0x7
 355 019a 705F7500 		.ascii	"p_u\000"
 356 019e 05       		.byte	0x5
 357 019f AE       		.byte	0xae
 358 01a0 DF030000 		.4byte	0x3df
 359 01a4 02       		.byte	0x2
 360 01a5 23       		.byte	0x23
 361 01a6 28       		.uleb128 0x28
 362 01a7 06       		.uleb128 0x6
 363 01a8 B8020000 		.4byte	.LASF32
 364 01ac 05       		.byte	0x5
 365 01ad B3       		.byte	0xb3
 366 01ae 49020000 		.4byte	0x249
 367 01b2 02       		.byte	0x2
 368 01b3 23       		.byte	0x23
 369 01b4 2C       		.uleb128 0x2c
 370 01b5 06       		.uleb128 0x6
 371 01b6 6F020000 		.4byte	.LASF33
 372 01ba 05       		.byte	0x5
 373 01bb B9       		.byte	0xb9
 374 01bc 27020000 		.4byte	0x227
 375 01c0 02       		.byte	0x2
 376 01c1 23       		.byte	0x23
 377 01c2 30       		.uleb128 0x30
 378 01c3 06       		.uleb128 0x6
 379 01c4 00000000 		.4byte	.LASF34
 380 01c8 05       		.byte	0x5
 381 01c9 BD       		.byte	0xbd
 382 01ca BC000000 		.4byte	0xbc
 383 01ce 02       		.byte	0x2
 384 01cf 23       		.byte	0x23
 385 01d0 38       		.uleb128 0x38
 386 01d1 06       		.uleb128 0x6
 387 01d2 08020000 		.4byte	.LASF35
 388 01d6 05       		.byte	0x5
 389 01d7 C3       		.byte	0xc3
 390 01d8 C7000000 		.4byte	0xc7
 391 01dc 02       		.byte	0x2
 392 01dd 23       		.byte	0x23
 393 01de 3C       		.uleb128 0x3c
 394 01df 06       		.uleb128 0x6
 395 01e0 C8010000 		.4byte	.LASF36
 396 01e4 05       		.byte	0x5
 397 01e5 CA       		.byte	0xca
ARM GAS  C:\Users\z80\AppData\Local\Temp\cc8Y1Xdk.s 			page 8


 398 01e6 2C040000 		.4byte	0x42c
 399 01ea 02       		.byte	0x2
 400 01eb 23       		.byte	0x23
 401 01ec 40       		.uleb128 0x40
 402 01ed 06       		.uleb128 0x6
 403 01ee 56020000 		.4byte	.LASF37
 404 01f2 05       		.byte	0x5
 405 01f3 CE       		.byte	0xce
 406 01f4 B1000000 		.4byte	0xb1
 407 01f8 02       		.byte	0x2
 408 01f9 23       		.byte	0x23
 409 01fa 44       		.uleb128 0x44
 410 01fb 00       		.byte	0
 411 01fc 08       		.uleb128 0x8
 412 01fd 08       		.byte	0x8
 413 01fe 04       		.byte	0x4
 414 01ff 61       		.byte	0x61
 415 0200 21020000 		.4byte	0x221
 416 0204 06       		.uleb128 0x6
 417 0205 F2010000 		.4byte	.LASF21
 418 0209 04       		.byte	0x4
 419 020a 62       		.byte	0x62
 420 020b 21020000 		.4byte	0x221
 421 020f 02       		.byte	0x2
 422 0210 23       		.byte	0x23
 423 0211 00       		.uleb128 0
 424 0212 06       		.uleb128 0x6
 425 0213 A3010000 		.4byte	.LASF22
 426 0217 04       		.byte	0x4
 427 0218 64       		.byte	0x64
 428 0219 21020000 		.4byte	0x221
 429 021d 02       		.byte	0x2
 430 021e 23       		.byte	0x23
 431 021f 04       		.uleb128 0x4
 432 0220 00       		.byte	0
 433 0221 09       		.uleb128 0x9
 434 0222 04       		.byte	0x4
 435 0223 E8000000 		.4byte	0xe8
 436 0227 04       		.uleb128 0x4
 437 0228 58010000 		.4byte	.LASF38
 438 022c 04       		.byte	0x4
 439 022d 66       		.byte	0x66
 440 022e FC010000 		.4byte	0x1fc
 441 0232 08       		.uleb128 0x8
 442 0233 04       		.byte	0x4
 443 0234 04       		.byte	0x4
 444 0235 6B       		.byte	0x6b
 445 0236 49020000 		.4byte	0x249
 446 023a 06       		.uleb128 0x6
 447 023b F2010000 		.4byte	.LASF21
 448 023f 04       		.byte	0x4
 449 0240 6D       		.byte	0x6d
 450 0241 21020000 		.4byte	0x221
 451 0245 02       		.byte	0x2
 452 0246 23       		.byte	0x23
 453 0247 00       		.uleb128 0
 454 0248 00       		.byte	0
ARM GAS  C:\Users\z80\AppData\Local\Temp\cc8Y1Xdk.s 			page 9


 455 0249 04       		.uleb128 0x4
 456 024a 21010000 		.4byte	.LASF39
 457 024e 04       		.byte	0x4
 458 024f 70       		.byte	0x70
 459 0250 32020000 		.4byte	0x232
 460 0254 04       		.uleb128 0x4
 461 0255 BF000000 		.4byte	.LASF40
 462 0259 06       		.byte	0x6
 463 025a D7       		.byte	0xd7
 464 025b 5F020000 		.4byte	0x25f
 465 025f 0A       		.uleb128 0xa
 466 0260 04       		.byte	0x4
 467 0261 04       		.uleb128 0x4
 468 0262 3F010000 		.4byte	.LASF41
 469 0266 06       		.byte	0x6
 470 0267 DD       		.byte	0xdd
 471 0268 89000000 		.4byte	0x89
 472 026c 05       		.uleb128 0x5
 473 026d 68020000 		.4byte	.LASF42
 474 0271 24       		.byte	0x24
 475 0272 06       		.byte	0x6
 476 0273 FE       		.byte	0xfe
 477 0274 F9020000 		.4byte	0x2f9
 478 0278 0B       		.uleb128 0xb
 479 0279 723400   		.ascii	"r4\000"
 480 027c 06       		.byte	0x6
 481 027d 1101     		.2byte	0x111
 482 027f 54020000 		.4byte	0x254
 483 0283 02       		.byte	0x2
 484 0284 23       		.byte	0x23
 485 0285 00       		.uleb128 0
 486 0286 0B       		.uleb128 0xb
 487 0287 723500   		.ascii	"r5\000"
 488 028a 06       		.byte	0x6
 489 028b 1201     		.2byte	0x112
 490 028d 54020000 		.4byte	0x254
 491 0291 02       		.byte	0x2
 492 0292 23       		.byte	0x23
 493 0293 04       		.uleb128 0x4
 494 0294 0B       		.uleb128 0xb
 495 0295 723600   		.ascii	"r6\000"
 496 0298 06       		.byte	0x6
 497 0299 1301     		.2byte	0x113
 498 029b 54020000 		.4byte	0x254
 499 029f 02       		.byte	0x2
 500 02a0 23       		.byte	0x23
 501 02a1 08       		.uleb128 0x8
 502 02a2 0B       		.uleb128 0xb
 503 02a3 723700   		.ascii	"r7\000"
 504 02a6 06       		.byte	0x6
 505 02a7 1401     		.2byte	0x114
 506 02a9 54020000 		.4byte	0x254
 507 02ad 02       		.byte	0x2
 508 02ae 23       		.byte	0x23
 509 02af 0C       		.uleb128 0xc
 510 02b0 0B       		.uleb128 0xb
 511 02b1 723800   		.ascii	"r8\000"
ARM GAS  C:\Users\z80\AppData\Local\Temp\cc8Y1Xdk.s 			page 10


 512 02b4 06       		.byte	0x6
 513 02b5 1501     		.2byte	0x115
 514 02b7 54020000 		.4byte	0x254
 515 02bb 02       		.byte	0x2
 516 02bc 23       		.byte	0x23
 517 02bd 10       		.uleb128 0x10
 518 02be 0B       		.uleb128 0xb
 519 02bf 723900   		.ascii	"r9\000"
 520 02c2 06       		.byte	0x6
 521 02c3 1601     		.2byte	0x116
 522 02c5 54020000 		.4byte	0x254
 523 02c9 02       		.byte	0x2
 524 02ca 23       		.byte	0x23
 525 02cb 14       		.uleb128 0x14
 526 02cc 0B       		.uleb128 0xb
 527 02cd 72313000 		.ascii	"r10\000"
 528 02d1 06       		.byte	0x6
 529 02d2 1701     		.2byte	0x117
 530 02d4 54020000 		.4byte	0x254
 531 02d8 02       		.byte	0x2
 532 02d9 23       		.byte	0x23
 533 02da 18       		.uleb128 0x18
 534 02db 0B       		.uleb128 0xb
 535 02dc 72313100 		.ascii	"r11\000"
 536 02e0 06       		.byte	0x6
 537 02e1 1801     		.2byte	0x118
 538 02e3 54020000 		.4byte	0x254
 539 02e7 02       		.byte	0x2
 540 02e8 23       		.byte	0x23
 541 02e9 1C       		.uleb128 0x1c
 542 02ea 0B       		.uleb128 0xb
 543 02eb 6C7200   		.ascii	"lr\000"
 544 02ee 06       		.byte	0x6
 545 02ef 1901     		.2byte	0x119
 546 02f1 54020000 		.4byte	0x254
 547 02f5 02       		.byte	0x2
 548 02f6 23       		.byte	0x23
 549 02f7 20       		.uleb128 0x20
 550 02f8 00       		.byte	0
 551 02f9 0C       		.uleb128 0xc
 552 02fa F8000000 		.4byte	.LASF43
 553 02fe 04       		.byte	0x4
 554 02ff 06       		.byte	0x6
 555 0300 2301     		.2byte	0x123
 556 0302 16030000 		.4byte	0x316
 557 0306 0B       		.uleb128 0xb
 558 0307 72313300 		.ascii	"r13\000"
 559 030b 06       		.byte	0x6
 560 030c 2401     		.2byte	0x124
 561 030e 16030000 		.4byte	0x316
 562 0312 02       		.byte	0x2
 563 0313 23       		.byte	0x23
 564 0314 00       		.uleb128 0
 565 0315 00       		.byte	0
 566 0316 09       		.uleb128 0x9
 567 0317 04       		.byte	0x4
 568 0318 6C020000 		.4byte	0x26c
ARM GAS  C:\Users\z80\AppData\Local\Temp\cc8Y1Xdk.s 			page 11


 569 031c 0D       		.uleb128 0xd
 570 031d D2000000 		.4byte	0xd2
 571 0321 08       		.uleb128 0x8
 572 0322 20       		.byte	0x20
 573 0323 07       		.byte	0x7
 574 0324 5E       		.byte	0x5e
 575 0325 8C030000 		.4byte	0x38c
 576 0329 06       		.uleb128 0x6
 577 032a 1C020000 		.4byte	.LASF44
 578 032e 07       		.byte	0x7
 579 032f 5F       		.byte	0x5f
 580 0330 27020000 		.4byte	0x227
 581 0334 02       		.byte	0x2
 582 0335 23       		.byte	0x23
 583 0336 00       		.uleb128 0
 584 0337 06       		.uleb128 0x6
 585 0338 E4010000 		.4byte	.LASF45
 586 033c 07       		.byte	0x7
 587 033d 60       		.byte	0x60
 588 033e B1000000 		.4byte	0xb1
 589 0342 02       		.byte	0x2
 590 0343 23       		.byte	0x23
 591 0344 08       		.uleb128 0x8
 592 0345 06       		.uleb128 0x6
 593 0346 52010000 		.4byte	.LASF46
 594 034a 07       		.byte	0x7
 595 034b 62       		.byte	0x62
 596 034c F9020000 		.4byte	0x2f9
 597 0350 02       		.byte	0x2
 598 0351 23       		.byte	0x23
 599 0352 0C       		.uleb128 0xc
 600 0353 06       		.uleb128 0x6
 601 0354 B7000000 		.4byte	.LASF47
 602 0358 07       		.byte	0x7
 603 0359 65       		.byte	0x65
 604 035a 21020000 		.4byte	0x221
 605 035e 02       		.byte	0x2
 606 035f 23       		.byte	0x23
 607 0360 10       		.uleb128 0x10
 608 0361 06       		.uleb128 0x6
 609 0362 6F010000 		.4byte	.LASF48
 610 0366 07       		.byte	0x7
 611 0367 66       		.byte	0x66
 612 0368 21020000 		.4byte	0x221
 613 036c 02       		.byte	0x2
 614 036d 23       		.byte	0x23
 615 036e 14       		.uleb128 0x14
 616 036f 06       		.uleb128 0x6
 617 0370 A0020000 		.4byte	.LASF49
 618 0374 07       		.byte	0x7
 619 0375 6A       		.byte	0x6a
 620 0376 DD000000 		.4byte	0xdd
 621 037a 02       		.byte	0x2
 622 037b 23       		.byte	0x23
 623 037c 18       		.uleb128 0x18
 624 037d 06       		.uleb128 0x6
 625 037e 65010000 		.4byte	.LASF50
ARM GAS  C:\Users\z80\AppData\Local\Temp\cc8Y1Xdk.s 			page 12


 626 0382 07       		.byte	0x7
 627 0383 6C       		.byte	0x6c
 628 0384 21020000 		.4byte	0x221
 629 0388 02       		.byte	0x2
 630 0389 23       		.byte	0x23
 631 038a 1C       		.uleb128 0x1c
 632 038b 00       		.byte	0
 633 038c 04       		.uleb128 0x4
 634 038d 7A020000 		.4byte	.LASF51
 635 0391 07       		.byte	0x7
 636 0392 6E       		.byte	0x6e
 637 0393 21030000 		.4byte	0x321
 638 0397 05       		.uleb128 0x5
 639 0398 39010000 		.4byte	.LASF52
 640 039c 10       		.byte	0x10
 641 039d 08       		.byte	0x8
 642 039e 2C       		.byte	0x2c
 643 039f CE030000 		.4byte	0x3ce
 644 03a3 06       		.uleb128 0x6
 645 03a4 68000000 		.4byte	.LASF53
 646 03a8 08       		.byte	0x8
 647 03a9 2D       		.byte	0x2d
 648 03aa 27020000 		.4byte	0x227
 649 03ae 02       		.byte	0x2
 650 03af 23       		.byte	0x23
 651 03b0 00       		.uleb128 0
 652 03b1 06       		.uleb128 0x6
 653 03b2 AA020000 		.4byte	.LASF54
 654 03b6 08       		.byte	0x8
 655 03b7 2F       		.byte	0x2f
 656 03b8 21020000 		.4byte	0x221
 657 03bc 02       		.byte	0x2
 658 03bd 23       		.byte	0x23
 659 03be 08       		.uleb128 0x8
 660 03bf 06       		.uleb128 0x6
 661 03c0 45020000 		.4byte	.LASF55
 662 03c4 08       		.byte	0x8
 663 03c5 31       		.byte	0x31
 664 03c6 CE030000 		.4byte	0x3ce
 665 03ca 02       		.byte	0x2
 666 03cb 23       		.byte	0x23
 667 03cc 0C       		.uleb128 0xc
 668 03cd 00       		.byte	0
 669 03ce 09       		.uleb128 0x9
 670 03cf 04       		.byte	0x4
 671 03d0 97030000 		.4byte	0x397
 672 03d4 04       		.uleb128 0x4
 673 03d5 39010000 		.4byte	.LASF52
 674 03d9 08       		.byte	0x8
 675 03da 33       		.byte	0x33
 676 03db 97030000 		.4byte	0x397
 677 03df 0E       		.uleb128 0xe
 678 03e0 04       		.byte	0x4
 679 03e1 05       		.byte	0x5
 680 03e2 90       		.byte	0x90
 681 03e3 14040000 		.4byte	0x414
 682 03e7 0F       		.uleb128 0xf
ARM GAS  C:\Users\z80\AppData\Local\Temp\cc8Y1Xdk.s 			page 13


 683 03e8 06000000 		.4byte	.LASF56
 684 03ec 05       		.byte	0x5
 685 03ed 97       		.byte	0x97
 686 03ee BC000000 		.4byte	0xbc
 687 03f2 0F       		.uleb128 0xf
 688 03f3 2D000000 		.4byte	.LASF57
 689 03f7 05       		.byte	0x5
 690 03f8 9E       		.byte	0x9e
 691 03f9 BC000000 		.4byte	0xbc
 692 03fd 0F       		.uleb128 0xf
 693 03fe 92020000 		.4byte	.LASF58
 694 0402 05       		.byte	0x5
 695 0403 A5       		.byte	0xa5
 696 0404 5F020000 		.4byte	0x25f
 697 0408 0F       		.uleb128 0xf
 698 0409 EB010000 		.4byte	.LASF59
 699 040d 05       		.byte	0x5
 700 040e AC       		.byte	0xac
 701 040f C7000000 		.4byte	0xc7
 702 0413 00       		.byte	0
 703 0414 09       		.uleb128 0x9
 704 0415 04       		.byte	0x4
 705 0416 1A040000 		.4byte	0x41a
 706 041a 10       		.uleb128 0x10
 707 041b 1F040000 		.4byte	0x41f
 708 041f 03       		.uleb128 0x3
 709 0420 01       		.byte	0x1
 710 0421 08       		.byte	0x8
 711 0422 30020000 		.4byte	.LASF60
 712 0426 09       		.uleb128 0x9
 713 0427 04       		.byte	0x4
 714 0428 61020000 		.4byte	0x261
 715 042c 09       		.uleb128 0x9
 716 042d 04       		.byte	0x4
 717 042e D4030000 		.4byte	0x3d4
 718 0432 11       		.uleb128 0x11
 719 0433 01       		.byte	0x1
 720 0434 36000000 		.4byte	.LASF61
 721 0438 01       		.byte	0x1
 722 0439 48       		.byte	0x48
 723 043a 01       		.byte	0x1
 724 043b 21020000 		.4byte	0x221
 725 043f 00000000 		.4byte	.LFB7
 726 0443 24000000 		.4byte	.LFE7
 727 0447 00000000 		.4byte	.LLST0
 728 044b 94040000 		.4byte	0x494
 729 044f 12       		.uleb128 0x12
 730 0450 747000   		.ascii	"tp\000"
 731 0453 01       		.byte	0x1
 732 0454 49       		.byte	0x49
 733 0455 21020000 		.4byte	0x221
 734 0459 20000000 		.4byte	.LLST1
 735 045d 13       		.uleb128 0x13
 736 045e 02000000 		.4byte	.LBB2
 737 0462 08000000 		.4byte	.LBE2
 738 0466 7A040000 		.4byte	0x47a
 739 046a 12       		.uleb128 0x12
ARM GAS  C:\Users\z80\AppData\Local\Temp\cc8Y1Xdk.s 			page 14


 740 046b 746D7000 		.ascii	"tmp\000"
 741 046f 01       		.byte	0x1
 742 0470 4B       		.byte	0x4b
 743 0471 70000000 		.4byte	0x70
 744 0475 3F000000 		.4byte	.LLST2
 745 0479 00       		.byte	0
 746 047a 14       		.uleb128 0x14
 747 047b 1A000000 		.4byte	.LBB3
 748 047f 20000000 		.4byte	.LBE3
 749 0483 12       		.uleb128 0x12
 750 0484 746D7000 		.ascii	"tmp\000"
 751 0488 01       		.byte	0x1
 752 0489 50       		.byte	0x50
 753 048a 70000000 		.4byte	0x70
 754 048e 52000000 		.4byte	.LLST3
 755 0492 00       		.byte	0
 756 0493 00       		.byte	0
 757 0494 11       		.uleb128 0x11
 758 0495 01       		.byte	0x1
 759 0496 35020000 		.4byte	.LASF62
 760 049a 01       		.byte	0x1
 761 049b 5F       		.byte	0x5f
 762 049c 01       		.byte	0x1
 763 049d 21020000 		.4byte	0x221
 764 04a1 00000000 		.4byte	.LFB8
 765 04a5 2C000000 		.4byte	.LFE8
 766 04a9 65000000 		.4byte	.LLST4
 767 04ad 01050000 		.4byte	0x501
 768 04b1 15       		.uleb128 0x15
 769 04b2 747000   		.ascii	"tp\000"
 770 04b5 01       		.byte	0x1
 771 04b6 5F       		.byte	0x5f
 772 04b7 21020000 		.4byte	0x221
 773 04bb 85000000 		.4byte	.LLST5
 774 04bf 12       		.uleb128 0x12
 775 04c0 6E747000 		.ascii	"ntp\000"
 776 04c4 01       		.byte	0x1
 777 04c5 60       		.byte	0x60
 778 04c6 21020000 		.4byte	0x221
 779 04ca A3000000 		.4byte	.LLST6
 780 04ce 16       		.uleb128 0x16
 781 04cf 00000000 		.4byte	.Ldebug_ranges0+0
 782 04d3 E7040000 		.4byte	0x4e7
 783 04d7 12       		.uleb128 0x12
 784 04d8 746D7000 		.ascii	"tmp\000"
 785 04dc 01       		.byte	0x1
 786 04dd 62       		.byte	0x62
 787 04de 70000000 		.4byte	0x70
 788 04e2 B6000000 		.4byte	.LLST7
 789 04e6 00       		.byte	0
 790 04e7 14       		.uleb128 0x14
 791 04e8 22000000 		.4byte	.LBB6
 792 04ec 28000000 		.4byte	.LBE6
 793 04f0 12       		.uleb128 0x12
 794 04f1 746D7000 		.ascii	"tmp\000"
 795 04f5 01       		.byte	0x1
 796 04f6 6D       		.byte	0x6d
ARM GAS  C:\Users\z80\AppData\Local\Temp\cc8Y1Xdk.s 			page 15


 797 04f7 70000000 		.4byte	0x70
 798 04fb C9000000 		.4byte	.LLST8
 799 04ff 00       		.byte	0
 800 0500 00       		.byte	0
 801 0501 17       		.uleb128 0x17
 802 0502 84020000 		.4byte	.LASF66
 803 0506 07       		.byte	0x7
 804 0507 72       		.byte	0x72
 805 0508 8C030000 		.4byte	0x38c
 806 050c 01       		.byte	0x1
 807 050d 01       		.byte	0x1
 808 050e 00       		.byte	0
 809              		.section	.debug_abbrev,"",%progbits
 810              	.Ldebug_abbrev0:
 811 0000 01       		.uleb128 0x1
 812 0001 11       		.uleb128 0x11
 813 0002 01       		.byte	0x1
 814 0003 25       		.uleb128 0x25
 815 0004 0E       		.uleb128 0xe
 816 0005 13       		.uleb128 0x13
 817 0006 0B       		.uleb128 0xb
 818 0007 03       		.uleb128 0x3
 819 0008 0E       		.uleb128 0xe
 820 0009 1B       		.uleb128 0x1b
 821 000a 0E       		.uleb128 0xe
 822 000b 11       		.uleb128 0x11
 823 000c 01       		.uleb128 0x1
 824 000d 52       		.uleb128 0x52
 825 000e 01       		.uleb128 0x1
 826 000f 55       		.uleb128 0x55
 827 0010 06       		.uleb128 0x6
 828 0011 10       		.uleb128 0x10
 829 0012 06       		.uleb128 0x6
 830 0013 00       		.byte	0
 831 0014 00       		.byte	0
 832 0015 02       		.uleb128 0x2
 833 0016 24       		.uleb128 0x24
 834 0017 00       		.byte	0
 835 0018 0B       		.uleb128 0xb
 836 0019 0B       		.uleb128 0xb
 837 001a 3E       		.uleb128 0x3e
 838 001b 0B       		.uleb128 0xb
 839 001c 03       		.uleb128 0x3
 840 001d 08       		.uleb128 0x8
 841 001e 00       		.byte	0
 842 001f 00       		.byte	0
 843 0020 03       		.uleb128 0x3
 844 0021 24       		.uleb128 0x24
 845 0022 00       		.byte	0
 846 0023 0B       		.uleb128 0xb
 847 0024 0B       		.uleb128 0xb
 848 0025 3E       		.uleb128 0x3e
 849 0026 0B       		.uleb128 0xb
 850 0027 03       		.uleb128 0x3
 851 0028 0E       		.uleb128 0xe
 852 0029 00       		.byte	0
 853 002a 00       		.byte	0
ARM GAS  C:\Users\z80\AppData\Local\Temp\cc8Y1Xdk.s 			page 16


 854 002b 04       		.uleb128 0x4
 855 002c 16       		.uleb128 0x16
 856 002d 00       		.byte	0
 857 002e 03       		.uleb128 0x3
 858 002f 0E       		.uleb128 0xe
 859 0030 3A       		.uleb128 0x3a
 860 0031 0B       		.uleb128 0xb
 861 0032 3B       		.uleb128 0x3b
 862 0033 0B       		.uleb128 0xb
 863 0034 49       		.uleb128 0x49
 864 0035 13       		.uleb128 0x13
 865 0036 00       		.byte	0
 866 0037 00       		.byte	0
 867 0038 05       		.uleb128 0x5
 868 0039 13       		.uleb128 0x13
 869 003a 01       		.byte	0x1
 870 003b 03       		.uleb128 0x3
 871 003c 0E       		.uleb128 0xe
 872 003d 0B       		.uleb128 0xb
 873 003e 0B       		.uleb128 0xb
 874 003f 3A       		.uleb128 0x3a
 875 0040 0B       		.uleb128 0xb
 876 0041 3B       		.uleb128 0x3b
 877 0042 0B       		.uleb128 0xb
 878 0043 01       		.uleb128 0x1
 879 0044 13       		.uleb128 0x13
 880 0045 00       		.byte	0
 881 0046 00       		.byte	0
 882 0047 06       		.uleb128 0x6
 883 0048 0D       		.uleb128 0xd
 884 0049 00       		.byte	0
 885 004a 03       		.uleb128 0x3
 886 004b 0E       		.uleb128 0xe
 887 004c 3A       		.uleb128 0x3a
 888 004d 0B       		.uleb128 0xb
 889 004e 3B       		.uleb128 0x3b
 890 004f 0B       		.uleb128 0xb
 891 0050 49       		.uleb128 0x49
 892 0051 13       		.uleb128 0x13
 893 0052 38       		.uleb128 0x38
 894 0053 0A       		.uleb128 0xa
 895 0054 00       		.byte	0
 896 0055 00       		.byte	0
 897 0056 07       		.uleb128 0x7
 898 0057 0D       		.uleb128 0xd
 899 0058 00       		.byte	0
 900 0059 03       		.uleb128 0x3
 901 005a 08       		.uleb128 0x8
 902 005b 3A       		.uleb128 0x3a
 903 005c 0B       		.uleb128 0xb
 904 005d 3B       		.uleb128 0x3b
 905 005e 0B       		.uleb128 0xb
 906 005f 49       		.uleb128 0x49
 907 0060 13       		.uleb128 0x13
 908 0061 38       		.uleb128 0x38
 909 0062 0A       		.uleb128 0xa
 910 0063 00       		.byte	0
ARM GAS  C:\Users\z80\AppData\Local\Temp\cc8Y1Xdk.s 			page 17


 911 0064 00       		.byte	0
 912 0065 08       		.uleb128 0x8
 913 0066 13       		.uleb128 0x13
 914 0067 01       		.byte	0x1
 915 0068 0B       		.uleb128 0xb
 916 0069 0B       		.uleb128 0xb
 917 006a 3A       		.uleb128 0x3a
 918 006b 0B       		.uleb128 0xb
 919 006c 3B       		.uleb128 0x3b
 920 006d 0B       		.uleb128 0xb
 921 006e 01       		.uleb128 0x1
 922 006f 13       		.uleb128 0x13
 923 0070 00       		.byte	0
 924 0071 00       		.byte	0
 925 0072 09       		.uleb128 0x9
 926 0073 0F       		.uleb128 0xf
 927 0074 00       		.byte	0
 928 0075 0B       		.uleb128 0xb
 929 0076 0B       		.uleb128 0xb
 930 0077 49       		.uleb128 0x49
 931 0078 13       		.uleb128 0x13
 932 0079 00       		.byte	0
 933 007a 00       		.byte	0
 934 007b 0A       		.uleb128 0xa
 935 007c 0F       		.uleb128 0xf
 936 007d 00       		.byte	0
 937 007e 0B       		.uleb128 0xb
 938 007f 0B       		.uleb128 0xb
 939 0080 00       		.byte	0
 940 0081 00       		.byte	0
 941 0082 0B       		.uleb128 0xb
 942 0083 0D       		.uleb128 0xd
 943 0084 00       		.byte	0
 944 0085 03       		.uleb128 0x3
 945 0086 08       		.uleb128 0x8
 946 0087 3A       		.uleb128 0x3a
 947 0088 0B       		.uleb128 0xb
 948 0089 3B       		.uleb128 0x3b
 949 008a 05       		.uleb128 0x5
 950 008b 49       		.uleb128 0x49
 951 008c 13       		.uleb128 0x13
 952 008d 38       		.uleb128 0x38
 953 008e 0A       		.uleb128 0xa
 954 008f 00       		.byte	0
 955 0090 00       		.byte	0
 956 0091 0C       		.uleb128 0xc
 957 0092 13       		.uleb128 0x13
 958 0093 01       		.byte	0x1
 959 0094 03       		.uleb128 0x3
 960 0095 0E       		.uleb128 0xe
 961 0096 0B       		.uleb128 0xb
 962 0097 0B       		.uleb128 0xb
 963 0098 3A       		.uleb128 0x3a
 964 0099 0B       		.uleb128 0xb
 965 009a 3B       		.uleb128 0x3b
 966 009b 05       		.uleb128 0x5
 967 009c 01       		.uleb128 0x1
ARM GAS  C:\Users\z80\AppData\Local\Temp\cc8Y1Xdk.s 			page 18


 968 009d 13       		.uleb128 0x13
 969 009e 00       		.byte	0
 970 009f 00       		.byte	0
 971 00a0 0D       		.uleb128 0xd
 972 00a1 35       		.uleb128 0x35
 973 00a2 00       		.byte	0
 974 00a3 49       		.uleb128 0x49
 975 00a4 13       		.uleb128 0x13
 976 00a5 00       		.byte	0
 977 00a6 00       		.byte	0
 978 00a7 0E       		.uleb128 0xe
 979 00a8 17       		.uleb128 0x17
 980 00a9 01       		.byte	0x1
 981 00aa 0B       		.uleb128 0xb
 982 00ab 0B       		.uleb128 0xb
 983 00ac 3A       		.uleb128 0x3a
 984 00ad 0B       		.uleb128 0xb
 985 00ae 3B       		.uleb128 0x3b
 986 00af 0B       		.uleb128 0xb
 987 00b0 01       		.uleb128 0x1
 988 00b1 13       		.uleb128 0x13
 989 00b2 00       		.byte	0
 990 00b3 00       		.byte	0
 991 00b4 0F       		.uleb128 0xf
 992 00b5 0D       		.uleb128 0xd
 993 00b6 00       		.byte	0
 994 00b7 03       		.uleb128 0x3
 995 00b8 0E       		.uleb128 0xe
 996 00b9 3A       		.uleb128 0x3a
 997 00ba 0B       		.uleb128 0xb
 998 00bb 3B       		.uleb128 0x3b
 999 00bc 0B       		.uleb128 0xb
 1000 00bd 49       		.uleb128 0x49
 1001 00be 13       		.uleb128 0x13
 1002 00bf 00       		.byte	0
 1003 00c0 00       		.byte	0
 1004 00c1 10       		.uleb128 0x10
 1005 00c2 26       		.uleb128 0x26
 1006 00c3 00       		.byte	0
 1007 00c4 49       		.uleb128 0x49
 1008 00c5 13       		.uleb128 0x13
 1009 00c6 00       		.byte	0
 1010 00c7 00       		.byte	0
 1011 00c8 11       		.uleb128 0x11
 1012 00c9 2E       		.uleb128 0x2e
 1013 00ca 01       		.byte	0x1
 1014 00cb 3F       		.uleb128 0x3f
 1015 00cc 0C       		.uleb128 0xc
 1016 00cd 03       		.uleb128 0x3
 1017 00ce 0E       		.uleb128 0xe
 1018 00cf 3A       		.uleb128 0x3a
 1019 00d0 0B       		.uleb128 0xb
 1020 00d1 3B       		.uleb128 0x3b
 1021 00d2 0B       		.uleb128 0xb
 1022 00d3 27       		.uleb128 0x27
 1023 00d4 0C       		.uleb128 0xc
 1024 00d5 49       		.uleb128 0x49
ARM GAS  C:\Users\z80\AppData\Local\Temp\cc8Y1Xdk.s 			page 19


 1025 00d6 13       		.uleb128 0x13
 1026 00d7 11       		.uleb128 0x11
 1027 00d8 01       		.uleb128 0x1
 1028 00d9 12       		.uleb128 0x12
 1029 00da 01       		.uleb128 0x1
 1030 00db 40       		.uleb128 0x40
 1031 00dc 06       		.uleb128 0x6
 1032 00dd 01       		.uleb128 0x1
 1033 00de 13       		.uleb128 0x13
 1034 00df 00       		.byte	0
 1035 00e0 00       		.byte	0
 1036 00e1 12       		.uleb128 0x12
 1037 00e2 34       		.uleb128 0x34
 1038 00e3 00       		.byte	0
 1039 00e4 03       		.uleb128 0x3
 1040 00e5 08       		.uleb128 0x8
 1041 00e6 3A       		.uleb128 0x3a
 1042 00e7 0B       		.uleb128 0xb
 1043 00e8 3B       		.uleb128 0x3b
 1044 00e9 0B       		.uleb128 0xb
 1045 00ea 49       		.uleb128 0x49
 1046 00eb 13       		.uleb128 0x13
 1047 00ec 02       		.uleb128 0x2
 1048 00ed 06       		.uleb128 0x6
 1049 00ee 00       		.byte	0
 1050 00ef 00       		.byte	0
 1051 00f0 13       		.uleb128 0x13
 1052 00f1 0B       		.uleb128 0xb
 1053 00f2 01       		.byte	0x1
 1054 00f3 11       		.uleb128 0x11
 1055 00f4 01       		.uleb128 0x1
 1056 00f5 12       		.uleb128 0x12
 1057 00f6 01       		.uleb128 0x1
 1058 00f7 01       		.uleb128 0x1
 1059 00f8 13       		.uleb128 0x13
 1060 00f9 00       		.byte	0
 1061 00fa 00       		.byte	0
 1062 00fb 14       		.uleb128 0x14
 1063 00fc 0B       		.uleb128 0xb
 1064 00fd 01       		.byte	0x1
 1065 00fe 11       		.uleb128 0x11
 1066 00ff 01       		.uleb128 0x1
 1067 0100 12       		.uleb128 0x12
 1068 0101 01       		.uleb128 0x1
 1069 0102 00       		.byte	0
 1070 0103 00       		.byte	0
 1071 0104 15       		.uleb128 0x15
 1072 0105 05       		.uleb128 0x5
 1073 0106 00       		.byte	0
 1074 0107 03       		.uleb128 0x3
 1075 0108 08       		.uleb128 0x8
 1076 0109 3A       		.uleb128 0x3a
 1077 010a 0B       		.uleb128 0xb
 1078 010b 3B       		.uleb128 0x3b
 1079 010c 0B       		.uleb128 0xb
 1080 010d 49       		.uleb128 0x49
 1081 010e 13       		.uleb128 0x13
ARM GAS  C:\Users\z80\AppData\Local\Temp\cc8Y1Xdk.s 			page 20


 1082 010f 02       		.uleb128 0x2
 1083 0110 06       		.uleb128 0x6
 1084 0111 00       		.byte	0
 1085 0112 00       		.byte	0
 1086 0113 16       		.uleb128 0x16
 1087 0114 0B       		.uleb128 0xb
 1088 0115 01       		.byte	0x1
 1089 0116 55       		.uleb128 0x55
 1090 0117 06       		.uleb128 0x6
 1091 0118 01       		.uleb128 0x1
 1092 0119 13       		.uleb128 0x13
 1093 011a 00       		.byte	0
 1094 011b 00       		.byte	0
 1095 011c 17       		.uleb128 0x17
 1096 011d 34       		.uleb128 0x34
 1097 011e 00       		.byte	0
 1098 011f 03       		.uleb128 0x3
 1099 0120 0E       		.uleb128 0xe
 1100 0121 3A       		.uleb128 0x3a
 1101 0122 0B       		.uleb128 0xb
 1102 0123 3B       		.uleb128 0x3b
 1103 0124 0B       		.uleb128 0xb
 1104 0125 49       		.uleb128 0x49
 1105 0126 13       		.uleb128 0x13
 1106 0127 3F       		.uleb128 0x3f
 1107 0128 0C       		.uleb128 0xc
 1108 0129 3C       		.uleb128 0x3c
 1109 012a 0C       		.uleb128 0xc
 1110 012b 00       		.byte	0
 1111 012c 00       		.byte	0
 1112 012d 00       		.byte	0
 1113              		.section	.debug_loc,"",%progbits
 1114              	.Ldebug_loc0:
 1115              	.LLST0:
 1116 0000 00000000 		.4byte	.LFB7
 1117 0004 02000000 		.4byte	.LCFI0
 1118 0008 0200     		.2byte	0x2
 1119 000a 7D       		.byte	0x7d
 1120 000b 00       		.sleb128 0
 1121 000c 02000000 		.4byte	.LCFI0
 1122 0010 24000000 		.4byte	.LFE7
 1123 0014 0200     		.2byte	0x2
 1124 0016 7D       		.byte	0x7d
 1125 0017 08       		.sleb128 8
 1126 0018 00000000 		.4byte	0
 1127 001c 00000000 		.4byte	0
 1128              	.LLST1:
 1129 0020 16000000 		.4byte	.LVL3
 1130 0024 19000000 		.4byte	.LVL4-1
 1131 0028 0200     		.2byte	0x2
 1132 002a 73       		.byte	0x73
 1133 002b 10       		.sleb128 16
 1134 002c 19000000 		.4byte	.LVL4-1
 1135 0030 24000000 		.4byte	.LFE7
 1136 0034 0100     		.2byte	0x1
 1137 0036 54       		.byte	0x54
 1138 0037 00000000 		.4byte	0
ARM GAS  C:\Users\z80\AppData\Local\Temp\cc8Y1Xdk.s 			page 21


 1139 003b 00000000 		.4byte	0
 1140              	.LLST2:
 1141 003f 08000000 		.4byte	.LVL1
 1142 0043 0B000000 		.4byte	.LVL2-1
 1143 0047 0100     		.2byte	0x1
 1144 0049 53       		.byte	0x53
 1145 004a 00000000 		.4byte	0
 1146 004e 00000000 		.4byte	0
 1147              	.LLST3:
 1148 0052 20000000 		.4byte	.LVL6
 1149 0056 24000000 		.4byte	.LFE7
 1150 005a 0100     		.2byte	0x1
 1151 005c 53       		.byte	0x53
 1152 005d 00000000 		.4byte	0
 1153 0061 00000000 		.4byte	0
 1154              	.LLST4:
 1155 0065 00000000 		.4byte	.LFB8
 1156 0069 02000000 		.4byte	.LCFI1
 1157 006d 0200     		.2byte	0x2
 1158 006f 7D       		.byte	0x7d
 1159 0070 00       		.sleb128 0
 1160 0071 02000000 		.4byte	.LCFI1
 1161 0075 2C000000 		.4byte	.LFE8
 1162 0079 0200     		.2byte	0x2
 1163 007b 7D       		.byte	0x7d
 1164 007c 08       		.sleb128 8
 1165 007d 00000000 		.4byte	0
 1166 0081 00000000 		.4byte	0
 1167              	.LLST5:
 1168 0085 00000000 		.4byte	.LVL7
 1169 0089 0D000000 		.4byte	.LVL10-1
 1170 008d 0100     		.2byte	0x1
 1171 008f 50       		.byte	0x50
 1172 0090 0D000000 		.4byte	.LVL10-1
 1173 0094 10000000 		.4byte	.LVL11
 1174 0098 0100     		.2byte	0x1
 1175 009a 54       		.byte	0x54
 1176 009b 00000000 		.4byte	0
 1177 009f 00000000 		.4byte	0
 1178              	.LLST6:
 1179 00a3 10000000 		.4byte	.LVL11
 1180 00a7 1E000000 		.4byte	.LVL12
 1181 00ab 0100     		.2byte	0x1
 1182 00ad 54       		.byte	0x54
 1183 00ae 00000000 		.4byte	0
 1184 00b2 00000000 		.4byte	0
 1185              	.LLST7:
 1186 00b6 0A000000 		.4byte	.LVL9
 1187 00ba 0D000000 		.4byte	.LVL10-1
 1188 00be 0100     		.2byte	0x1
 1189 00c0 53       		.byte	0x53
 1190 00c1 00000000 		.4byte	0
 1191 00c5 00000000 		.4byte	0
 1192              	.LLST8:
 1193 00c9 28000000 		.4byte	.LVL14
 1194 00cd 2C000000 		.4byte	.LFE8
 1195 00d1 0100     		.2byte	0x1
ARM GAS  C:\Users\z80\AppData\Local\Temp\cc8Y1Xdk.s 			page 22


 1196 00d3 53       		.byte	0x53
 1197 00d4 00000000 		.4byte	0
 1198 00d8 00000000 		.4byte	0
 1199              		.section	.debug_aranges,"",%progbits
 1200 0000 24000000 		.4byte	0x24
 1201 0004 0200     		.2byte	0x2
 1202 0006 00000000 		.4byte	.Ldebug_info0
 1203 000a 04       		.byte	0x4
 1204 000b 00       		.byte	0
 1205 000c 0000     		.2byte	0
 1206 000e 0000     		.2byte	0
 1207 0010 00000000 		.4byte	.LFB7
 1208 0014 24000000 		.4byte	.LFE7-.LFB7
 1209 0018 00000000 		.4byte	.LFB8
 1210 001c 2C000000 		.4byte	.LFE8-.LFB8
 1211 0020 00000000 		.4byte	0
 1212 0024 00000000 		.4byte	0
 1213              		.section	.debug_ranges,"",%progbits
 1214              	.Ldebug_ranges0:
 1215 0000 02000000 		.4byte	.LBB4
 1216 0004 04000000 		.4byte	.LBE4
 1217 0008 06000000 		.4byte	.LBB5
 1218 000c 0A000000 		.4byte	.LBE5
 1219 0010 00000000 		.4byte	0
 1220 0014 00000000 		.4byte	0
 1221 0018 00000000 		.4byte	.LFB7
 1222 001c 24000000 		.4byte	.LFE7
 1223 0020 00000000 		.4byte	.LFB8
 1224 0024 2C000000 		.4byte	.LFE8
 1225 0028 00000000 		.4byte	0
 1226 002c 00000000 		.4byte	0
 1227              		.section	.debug_line,"",%progbits
 1228              	.Ldebug_line0:
 1229 0000 81010000 		.section	.debug_str,"MS",%progbits,1
 1229      02004F01 
 1229      00000201 
 1229      FB0E0D00 
 1229      01010101 
 1230              	.LASF34:
 1231 0000 705F6D73 		.ascii	"p_msg\000"
 1231      6700
 1232              	.LASF56:
 1233 0006 7264796D 		.ascii	"rdymsg\000"
 1233      736700
 1234              	.LASF11:
 1235 000d 75696E74 		.ascii	"uint64_t\000"
 1235      36345F74 
 1235      00
 1236              	.LASF12:
 1237 0016 6C6F6E67 		.ascii	"long long unsigned int\000"
 1237      206C6F6E 
 1237      6720756E 
 1237      7369676E 
 1237      65642069 
 1238              	.LASF57:
 1239 002d 65786974 		.ascii	"exitcode\000"
 1239      636F6465 
ARM GAS  C:\Users\z80\AppData\Local\Temp\cc8Y1Xdk.s 			page 23


 1239      00
 1240              	.LASF61:
 1241 0036 63685265 		.ascii	"chRegFirstThread\000"
 1241      67466972 
 1241      73745468 
 1241      72656164 
 1241      00
 1242              	.LASF23:
 1243 0047 705F7072 		.ascii	"p_prio\000"
 1243      696F00
 1244              	.LASF10:
 1245 004e 6C6F6E67 		.ascii	"long long int\000"
 1245      206C6F6E 
 1245      6720696E 
 1245      7400
 1246              	.LASF1:
 1247 005c 7369676E 		.ascii	"signed char\000"
 1247      65642063 
 1247      68617200 
 1248              	.LASF53:
 1249 0068 6D5F7175 		.ascii	"m_queue\000"
 1249      65756500 
 1250              	.LASF65:
 1251 0070 433A5C70 		.ascii	"C:\\projects\\digitizer.git\\firmware\\digitizer\000"
 1251      726F6A65 
 1251      6374735C 
 1251      64696769 
 1251      74697A65 
 1252              	.LASF7:
 1253 009d 6C6F6E67 		.ascii	"long int\000"
 1253      20696E74 
 1253      00
 1254              	.LASF14:
 1255 00a6 74737461 		.ascii	"tstate_t\000"
 1255      74655F74 
 1255      00
 1256              	.LASF25:
 1257 00af 705F6E65 		.ascii	"p_newer\000"
 1257      77657200 
 1258              	.LASF47:
 1259 00b7 725F6E65 		.ascii	"r_newer\000"
 1259      77657200 
 1260              	.LASF40:
 1261 00bf 72656761 		.ascii	"regarm_t\000"
 1261      726D5F74 
 1261      00
 1262              	.LASF19:
 1263 00c8 636E745F 		.ascii	"cnt_t\000"
 1263      7400
 1264              	.LASF28:
 1265 00ce 705F7374 		.ascii	"p_stklimit\000"
 1265      6B6C696D 
 1265      697400
 1266              	.LASF0:
 1267 00d9 756E7369 		.ascii	"unsigned int\000"
 1267      676E6564 
 1267      20696E74 
ARM GAS  C:\Users\z80\AppData\Local\Temp\cc8Y1Xdk.s 			page 24


 1267      00
 1268              	.LASF9:
 1269 00e6 6C6F6E67 		.ascii	"long unsigned int\000"
 1269      20756E73 
 1269      69676E65 
 1269      6420696E 
 1269      7400
 1270              	.LASF43:
 1271 00f8 636F6E74 		.ascii	"context\000"
 1271      65787400 
 1272              	.LASF4:
 1273 0100 73686F72 		.ascii	"short unsigned int\000"
 1273      7420756E 
 1273      7369676E 
 1273      65642069 
 1273      6E7400
 1274              	.LASF16:
 1275 0113 6D73675F 		.ascii	"msg_t\000"
 1275      7400
 1276              	.LASF13:
 1277 0119 746D6F64 		.ascii	"tmode_t\000"
 1277      655F7400 
 1278              	.LASF39:
 1279 0121 54687265 		.ascii	"ThreadsList\000"
 1279      6164734C 
 1279      69737400 
 1280              	.LASF17:
 1281 012d 6576656E 		.ascii	"eventmask_t\000"
 1281      746D6173 
 1281      6B5F7400 
 1282              	.LASF52:
 1283 0139 4D757465 		.ascii	"Mutex\000"
 1283      7800
 1284              	.LASF41:
 1285 013f 73746B61 		.ascii	"stkalign_t\000"
 1285      6C69676E 
 1285      5F7400
 1286              	.LASF26:
 1287 014a 705F6F6C 		.ascii	"p_older\000"
 1287      64657200 
 1288              	.LASF46:
 1289 0152 725F6374 		.ascii	"r_ctx\000"
 1289      7800
 1290              	.LASF38:
 1291 0158 54687265 		.ascii	"ThreadsQueue\000"
 1291      61647351 
 1291      75657565 
 1291      00
 1292              	.LASF50:
 1293 0165 725F6375 		.ascii	"r_current\000"
 1293      7272656E 
 1293      7400
 1294              	.LASF48:
 1295 016f 725F6F6C 		.ascii	"r_older\000"
 1295      64657200 
 1296              	.LASF64:
 1297 0177 2E2E2F63 		.ascii	"../chibios_2.4.x/os/kernel/src/chregistry.c\000"
ARM GAS  C:\Users\z80\AppData\Local\Temp\cc8Y1Xdk.s 			page 25


 1297      68696269 
 1297      6F735F32 
 1297      2E342E78 
 1297      2F6F732F 
 1298              	.LASF22:
 1299 01a3 705F7072 		.ascii	"p_prev\000"
 1299      657600
 1300              	.LASF15:
 1301 01aa 74707269 		.ascii	"tprio_t\000"
 1301      6F5F7400 
 1302              	.LASF6:
 1303 01b2 696E7433 		.ascii	"int32_t\000"
 1303      325F7400 
 1304              	.LASF2:
 1305 01ba 756E7369 		.ascii	"unsigned char\000"
 1305      676E6564 
 1305      20636861 
 1305      7200
 1306              	.LASF36:
 1307 01c8 705F6D74 		.ascii	"p_mtxlist\000"
 1307      786C6973 
 1307      7400
 1308              	.LASF3:
 1309 01d2 73686F72 		.ascii	"short int\000"
 1309      7420696E 
 1309      7400
 1310              	.LASF29:
 1311 01dc 705F7374 		.ascii	"p_state\000"
 1311      61746500 
 1312              	.LASF45:
 1313 01e4 725F7072 		.ascii	"r_prio\000"
 1313      696F00
 1314              	.LASF59:
 1315 01eb 65776D61 		.ascii	"ewmask\000"
 1315      736B00
 1316              	.LASF21:
 1317 01f2 705F6E65 		.ascii	"p_next\000"
 1317      787400
 1318              	.LASF30:
 1319 01f9 705F666C 		.ascii	"p_flags\000"
 1319      61677300 
 1320              	.LASF20:
 1321 0201 54687265 		.ascii	"Thread\000"
 1321      616400
 1322              	.LASF35:
 1323 0208 705F6570 		.ascii	"p_epending\000"
 1323      656E6469 
 1323      6E6700
 1324              	.LASF8:
 1325 0213 75696E74 		.ascii	"uint32_t\000"
 1325      33325F74 
 1325      00
 1326              	.LASF44:
 1327 021c 725F7175 		.ascii	"r_queue\000"
 1327      65756500 
 1328              	.LASF63:
 1329 0224 474E5520 		.ascii	"GNU C 4.6.3\000"
ARM GAS  C:\Users\z80\AppData\Local\Temp\cc8Y1Xdk.s 			page 26


 1329      4320342E 
 1329      362E3300 
 1330              	.LASF60:
 1331 0230 63686172 		.ascii	"char\000"
 1331      00
 1332              	.LASF62:
 1333 0235 63685265 		.ascii	"chRegNextThread\000"
 1333      674E6578 
 1333      74546872 
 1333      65616400 
 1334              	.LASF55:
 1335 0245 6D5F6E65 		.ascii	"m_next\000"
 1335      787400
 1336              	.LASF18:
 1337 024c 73797374 		.ascii	"systime_t\000"
 1337      696D655F 
 1337      7400
 1338              	.LASF37:
 1339 0256 705F7265 		.ascii	"p_realprio\000"
 1339      616C7072 
 1339      696F00
 1340              	.LASF31:
 1341 0261 705F7469 		.ascii	"p_time\000"
 1341      6D6500
 1342              	.LASF42:
 1343 0268 696E7463 		.ascii	"intctx\000"
 1343      747800
 1344              	.LASF33:
 1345 026f 705F6D73 		.ascii	"p_msgqueue\000"
 1345      67717565 
 1345      756500
 1346              	.LASF51:
 1347 027a 52656164 		.ascii	"ReadyList\000"
 1347      794C6973 
 1347      7400
 1348              	.LASF66:
 1349 0284 726C6973 		.ascii	"rlist\000"
 1349      7400
 1350              	.LASF5:
 1351 028a 75696E74 		.ascii	"uint8_t\000"
 1351      385F7400 
 1352              	.LASF58:
 1353 0292 77746F62 		.ascii	"wtobjp\000"
 1353      6A7000
 1354              	.LASF27:
 1355 0299 705F6E61 		.ascii	"p_name\000"
 1355      6D6500
 1356              	.LASF49:
 1357 02a0 725F7072 		.ascii	"r_preempt\000"
 1357      65656D70 
 1357      7400
 1358              	.LASF54:
 1359 02aa 6D5F6F77 		.ascii	"m_owner\000"
 1359      6E657200 
 1360              	.LASF24:
 1361 02b2 705F6374 		.ascii	"p_ctx\000"
 1361      7800
ARM GAS  C:\Users\z80\AppData\Local\Temp\cc8Y1Xdk.s 			page 27


 1362              	.LASF32:
 1363 02b8 705F7761 		.ascii	"p_waiting\000"
 1363      6974696E 
 1363      6700
 1364              		.ident	"GCC: (Sourcery CodeBench Lite 2012.03-56) 4.6.3"
ARM GAS  C:\Users\z80\AppData\Local\Temp\cc8Y1Xdk.s 			page 28


DEFINED SYMBOLS
                            *ABS*:00000000 chregistry.c
C:\Users\z80\AppData\Local\Temp\cc8Y1Xdk.s:19     .text.chRegFirstThread:00000000 $t
C:\Users\z80\AppData\Local\Temp\cc8Y1Xdk.s:25     .text.chRegFirstThread:00000000 chRegFirstThread
C:\Users\z80\AppData\Local\Temp\cc8Y1Xdk.s:73     .text.chRegNextThread:00000000 $t
C:\Users\z80\AppData\Local\Temp\cc8Y1Xdk.s:79     .text.chRegNextThread:00000000 chRegNextThread
                     .debug_frame:00000010 $d

UNDEFINED SYMBOLS
dbg_check_lock
rlist
dbg_check_unlock
