ARM GAS  C:\Users\z80\AppData\Local\Temp\cc8Y1Xdk.s 			page 1


   1              		.syntax unified
   2              		.cpu cortex-m3
   3              		.fpu softvfp
   4              		.eabi_attribute 20, 1
   5              		.eabi_attribute 21, 1
   6              		.eabi_attribute 23, 3
   7              		.eabi_attribute 24, 1
   8              		.eabi_attribute 25, 1
   9              		.eabi_attribute 26, 1
  10              		.eabi_attribute 30, 2
  11              		.eabi_attribute 34, 1
  12              		.eabi_attribute 18, 4
  13              		.thumb
  14              		.file	"chregistry.c"
  15              		.text
  16              	.Ltext0:
  17              		.cfi_sections	.debug_frame
  18              		.section	.text.chRegFirstThread,"ax",%progbits
  19              		.align	2
  20              		.p2align 4,,15
  21              		.global	chRegFirstThread
  22              		.thumb
  23              		.thumb_func
  24              		.type	chRegFirstThread, %function
  25              	chRegFirstThread:
  26              	.LFB7:
  27              		.file 1 "../chibios_2.4.x/os/kernel/src/chregistry.c"
  28              		.loc 1 72 0
  29              		.cfi_startproc
  30              		@ args = 0, pretend = 0, frame = 0
  31              		@ frame_needed = 0, uses_anonymous_args = 0
  32 0000 10B5     		push	{r4, lr}
  33              	.LCFI0:
  34              		.cfi_def_cfa_offset 8
  35              		.cfi_offset 14, -4
  36              		.cfi_offset 4, -8
  37              	.LBB2:
  38              		.loc 1 75 0
  39 0002 2023     		movs	r3, #32
  40              	.LVL0:
  41              	@ 75 "../chibios_2.4.x/os/kernel/src/chregistry.c" 1
  42 0004 83F31188 		msr     BASEPRI, r3
  43              	@ 0 "" 2
  44              	.LVL1:
  45              		.thumb
  46              	.LBE2:
  47 0008 FFF7FEFF 		bl	dbg_check_lock
  48              	.LVL2:
  49              		.loc 1 76 0
  50 000c 40F20003 		movw	r3, #:lower16:rlist
  51 0010 C0F20003 		movt	r3, #:upper16:rlist
  52 0014 1C69     		ldr	r4, [r3, #16]
  53              	.LVL3:
  54              		.loc 1 80 0
  55 0016 FFF7FEFF 		bl	dbg_check_unlock
  56              	.LVL4:
  57              	.LBB3:
ARM GAS  C:\Users\z80\AppData\Local\Temp\cc8Y1Xdk.s 			page 2


  58 001a 0023     		movs	r3, #0
  59              	.LVL5:
  60              	@ 80 "../chibios_2.4.x/os/kernel/src/chregistry.c" 1
  61 001c 83F31188 		msr     BASEPRI, r3
  62              	@ 0 "" 2
  63              	.LVL6:
  64              		.thumb
  65              	.LBE3:
  66              		.loc 1 82 0
  67 0020 2046     		mov	r0, r4
  68 0022 10BD     		pop	{r4, pc}
  69              		.cfi_endproc
  70              	.LFE7:
  71              		.size	chRegFirstThread, .-chRegFirstThread
  72 0024 AFF30080 		.section	.text.chRegNextThread,"ax",%progbits
  72      AFF30080 
  72      AFF30080 
  73              		.align	2
  74              		.p2align 4,,15
  75              		.global	chRegNextThread
  76              		.thumb
  77              		.thumb_func
  78              		.type	chRegNextThread, %function
  79              	chRegNextThread:
  80              	.LFB8:
  81              		.loc 1 95 0
  82              		.cfi_startproc
  83              		@ args = 0, pretend = 0, frame = 0
  84              		@ frame_needed = 0, uses_anonymous_args = 0
  85              	.LVL7:
  86 0000 10B5     		push	{r4, lr}
  87              	.LCFI1:
  88              		.cfi_def_cfa_offset 8
  89              		.cfi_offset 14, -4
  90              		.cfi_offset 4, -8
  91              	.LBB4:
  92              		.loc 1 98 0
  93 0002 2023     		movs	r3, #32
  94              	.LVL8:
  95              	.LBE4:
  96              		.loc 1 95 0
  97 0004 0446     		mov	r4, r0
  98              	.LBB5:
  99              		.loc 1 98 0
 100              	@ 98 "../chibios_2.4.x/os/kernel/src/chregistry.c" 1
 101 0006 83F31188 		msr     BASEPRI, r3
 102              	@ 0 "" 2
 103              	.LVL9:
 104              		.thumb
 105              	.LBE5:
 106 000a FFF7FEFF 		bl	dbg_check_lock
 107              	.LVL10:
 108              		.loc 1 99 0
 109 000e 2469     		ldr	r4, [r4, #16]
 110              	.LVL11:
 111              		.loc 1 100 0
 112 0010 40F20003 		movw	r3, #:lower16:rlist
ARM GAS  C:\Users\z80\AppData\Local\Temp\cc8Y1Xdk.s 			page 3


 113 0014 C0F20003 		movt	r3, #:upper16:rlist
 114              		.loc 1 101 0
 115 0018 9C42     		cmp	r4, r3
 116 001a 08BF     		it	eq
 117 001c 0024     		moveq	r4, #0
 118              	.LVL12:
 119              		.loc 1 109 0
 120 001e FFF7FEFF 		bl	dbg_check_unlock
 121              	.LBB6:
 122 0022 0023     		movs	r3, #0
 123              	.LVL13:
 124              	@ 109 "../chibios_2.4.x/os/kernel/src/chregistry.c" 1
 125 0024 83F31188 		msr     BASEPRI, r3
 126              	@ 0 "" 2
 127              	.LVL14:
 128              		.thumb
 129              	.LBE6:
 130              		.loc 1 114 0
 131 0028 2046     		mov	r0, r4
 132 002a 10BD     		pop	{r4, pc}
 133              		.cfi_endproc
 134              	.LFE8:
 135              		.size	chRegNextThread, .-chRegNextThread
 136 002c AFF30080 		.text
 137              	.Letext0:
 138              		.file 2 "c:\\programs\\codesourcery\\2011.03-56\\bin\\../lib/gcc/arm-none-eabi/4.6.3/../../../../a
 139              		.file 3 "../chibios_2.4.x/os/ports/GCC/ARMCMx/chtypes.h"
 140              		.file 4 "../chibios_2.4.x/os/kernel/include/chlists.h"
 141              		.file 5 "../chibios_2.4.x/os/kernel/include/chthreads.h"
 142              		.file 6 "../chibios_2.4.x/os/ports/GCC/ARMCMx/chcore_v7m.h"
 143              		.file 7 "../chibios_2.4.x/os/kernel/include/chschd.h"
 144              		.file 8 "../chibios_2.4.x/os/kernel/include/chmtx.h"