ARM GAS  C:\Users\z80\AppData\Local\Temp\ccpkiOUa.s 			page 1


   1              		.syntax unified
   2              		.cpu cortex-m3
   3              		.fpu softvfp
   4              		.eabi_attribute 20, 1
   5              		.eabi_attribute 21, 1
   6              		.eabi_attribute 23, 3
   7              		.eabi_attribute 24, 1
   8              		.eabi_attribute 25, 1
   9              		.eabi_attribute 26, 1
  10              		.eabi_attribute 30, 2
  11              		.eabi_attribute 34, 1
  12              		.eabi_attribute 18, 4
  13              		.thumb
  14              		.file	"chschd.c"
  15              		.text
  16              	.Ltext0:
  17              		.cfi_sections	.debug_frame
  18              		.section	.text._scheduler_init,"ax",%progbits
  19              		.align	2
  20              		.p2align 4,,15
  21              		.global	_scheduler_init
  22              		.thumb
  23              		.thumb_func
  24              		.type	_scheduler_init, %function
  25              	_scheduler_init:
  26              	.LFB7:
  27              		.file 1 "../chibios_2.4.x/os/kernel/src/chschd.c"
  28              		.loc 1 55 0
  29              		.cfi_startproc
  30              		@ args = 0, pretend = 0, frame = 0
  31              		@ frame_needed = 0, uses_anonymous_args = 0
  32              		@ link register save eliminated.
  33              		.loc 1 57 0
  34 0000 40F20003 		movw	r3, #:lower16:.LANCHOR0
  35 0004 C0F20003 		movt	r3, #:upper16:.LANCHOR0
  36              		.loc 1 58 0
  37 0008 0020     		movs	r0, #0
  38              		.loc 1 60 0
  39 000a 1422     		movs	r2, #20
  40              		.loc 1 57 0
  41 000c 5B60     		str	r3, [r3, #4]
  42 000e 1B60     		str	r3, [r3, #0]
  43              		.loc 1 58 0
  44 0010 9860     		str	r0, [r3, #8]
  45              		.loc 1 60 0
  46 0012 9A61     		str	r2, [r3, #24]
  47              		.loc 1 63 0
  48 0014 5B61     		str	r3, [r3, #20]
  49 0016 1B61     		str	r3, [r3, #16]
  50              		.loc 1 65 0
  51 0018 7047     		bx	lr
  52              		.cfi_endproc
  53              	.LFE7:
  54              		.size	_scheduler_init, .-_scheduler_init
  55 001a 00BFAFF3 		.section	.text.chSchReadyI,"ax",%progbits
  55      0080
  56              		.align	2
ARM GAS  C:\Users\z80\AppData\Local\Temp\ccpkiOUa.s 			page 2


  57              		.p2align 4,,15
  58              		.global	chSchReadyI
  59              		.thumb
  60              		.thumb_func
  61              		.type	chSchReadyI, %function
  62              	chSchReadyI:
  63              	.LFB8:
  64              		.loc 1 82 0
  65              		.cfi_startproc
  66              		@ args = 0, pretend = 0, frame = 0
  67              		@ frame_needed = 0, uses_anonymous_args = 0
  68              	.LVL0:
  69 0000 10B5     		push	{r4, lr}
  70              	.LCFI0:
  71              		.cfi_def_cfa_offset 8
  72              		.cfi_offset 14, -4
  73              		.cfi_offset 4, -8
  74              		.loc 1 82 0
  75 0002 0446     		mov	r4, r0
  76              		.loc 1 86 0
  77 0004 90F82000 		ldrb	r0, [r0, #32]	@ zero_extendqisi2
  78              	.LVL1:
  79 0008 D0F10102 		rsbs	r2, r0, #1
  80 000c 38BF     		it	cc
  81 000e 0022     		movcc	r2, #0
  82 0010 0E28     		cmp	r0, #14
  83 0012 14BF     		ite	ne
  84 0014 1346     		movne	r3, r2
  85 0016 42F00103 		orreq	r3, r2, #1
  86 001a 93B9     		cbnz	r3, .L7
  87              	.L3:
  88              		.loc 1 92 0
  89 001c 40F20003 		movw	r3, #:lower16:.LANCHOR0
  90              		.loc 1 91 0
  91 0020 0020     		movs	r0, #0
  92 0022 A168     		ldr	r1, [r4, #8]
  93 0024 84F82000 		strb	r0, [r4, #32]
  94              	.LVL2:
  95              		.loc 1 92 0
  96 0028 C0F20003 		movt	r3, #:upper16:.LANCHOR0
  97              	.LVL3:
  98              	.L4:
  99              		.loc 1 94 0 discriminator 1
 100 002c 1B68     		ldr	r3, [r3, #0]
 101              	.LVL4:
 102              		.loc 1 95 0 discriminator 1
 103 002e 9A68     		ldr	r2, [r3, #8]
 104 0030 8A42     		cmp	r2, r1
 105 0032 FBD2     		bcs	.L4
 106              		.loc 1 98 0
 107 0034 5968     		ldr	r1, [r3, #4]
 108              		.loc 1 97 0
 109 0036 2360     		str	r3, [r4, #0]
 110              		.loc 1 98 0
 111 0038 6160     		str	r1, [r4, #4]
 112              		.loc 1 99 0
 113 003a 0C60     		str	r4, [r1, #0]
ARM GAS  C:\Users\z80\AppData\Local\Temp\ccpkiOUa.s 			page 3


 114 003c 5C60     		str	r4, [r3, #4]
 115              		.loc 1 101 0
 116 003e 2046     		mov	r0, r4
 117 0040 10BD     		pop	{r4, pc}
 118              	.LVL5:
 119              	.L7:
 120              		.loc 1 86 0 discriminator 1
 121 0042 40F20000 		movw	r0, #:lower16:.LC0
 122 0046 C0F20000 		movt	r0, #:upper16:.LC0
 123 004a FFF7FEFF 		bl	chDbgPanic
 124 004e E5E7     		b	.L3
 125              		.cfi_endproc
 126              	.LFE8:
 127              		.size	chSchReadyI, .-chSchReadyI
 128              		.section	.text.wakeup,"ax",%progbits
 129              		.align	2
 130              		.p2align 4,,15
 131              		.thumb
 132              		.thumb_func
 133              		.type	wakeup, %function
 134              	wakeup:
 135              	.LFB10:
 136              		.loc 1 133 0
 137              		.cfi_startproc
 138              		@ args = 0, pretend = 0, frame = 0
 139              		@ frame_needed = 0, uses_anonymous_args = 0
 140              		@ link register save eliminated.
 141              	.LVL6:
 142              		.loc 1 136 0
 143 0000 90F82030 		ldrb	r3, [r0, #32]	@ zero_extendqisi2
 144 0004 0D2B     		cmp	r3, #13
 145 0006 11D8     		bhi	.L9
 146 0008 DFE803F0 		tbb	[pc, r3]
 147              	.L13:
 148 000c 15       		.byte	(.L8-.L13)/2
 149 000d 10       		.byte	(.L9-.L13)/2
 150 000e 10       		.byte	(.L9-.L13)/2
 151 000f 07       		.byte	(.L11-.L13)/2
 152 0010 10       		.byte	(.L9-.L13)/2
 153 0011 0B       		.byte	(.L12-.L13)/2
 154 0012 10       		.byte	(.L9-.L13)/2
 155 0013 10       		.byte	(.L9-.L13)/2
 156 0014 10       		.byte	(.L9-.L13)/2
 157 0015 10       		.byte	(.L9-.L13)/2
 158 0016 10       		.byte	(.L9-.L13)/2
 159 0017 10       		.byte	(.L9-.L13)/2
 160 0018 10       		.byte	(.L9-.L13)/2
 161 0019 0B       		.byte	(.L12-.L13)/2
 162              		.align	1
 163              	.L11:
 164              		.loc 1 145 0
 165 001a 816A     		ldr	r1, [r0, #40]
 166 001c 8B68     		ldr	r3, [r1, #8]
 167 001e 5A1C     		adds	r2, r3, #1
 168 0020 8A60     		str	r2, [r1, #8]
 169              	.L12:
 170              	.LVL7:
ARM GAS  C:\Users\z80\AppData\Local\Temp\ccpkiOUa.s 			page 4


 171              	.LBB10:
 172              	.LBB11:
 173              		.file 2 "../chibios_2.4.x/os/kernel/include/chinline.h"
 174              		.loc 2 75 0
 175 0022 90E80C00 		ldmia	r0, {r2, r3}
 176 0026 1A60     		str	r2, [r3, #0]
 177              		.loc 2 76 0
 178 0028 0268     		ldr	r2, [r0, #0]
 179 002a 5360     		str	r3, [r2, #4]
 180              	.LVL8:
 181              	.L9:
 182              	.LBE11:
 183              	.LBE10:
 184              		.loc 1 158 0
 185 002c 4FF0FF31 		mov	r1, #-1
 186 0030 8162     		str	r1, [r0, #40]
 187              		.loc 1 160 0
 188              		.loc 1 159 0
 189 0032 FFF7FEBF 		b	chSchReadyI
 190              	.LVL9:
 191              	.L8:
 192 0036 7047     		bx	lr
 193              		.cfi_endproc
 194              	.LFE10:
 195              		.size	wakeup, .-wakeup
 196 0038 AFF30080 		.section	.text.chSchGoSleepS,"ax",%progbits
 196      AFF30080 
 197              		.align	2
 198              		.p2align 4,,15
 199              		.global	chSchGoSleepS
 200              		.thumb
 201              		.thumb_func
 202              		.type	chSchGoSleepS, %function
 203              	chSchGoSleepS:
 204              	.LFB9:
 205              		.loc 1 114 0
 206              		.cfi_startproc
 207              		@ args = 0, pretend = 0, frame = 0
 208              		@ frame_needed = 0, uses_anonymous_args = 0
 209              	.LVL10:
 210 0000 70B5     		push	{r4, r5, r6, lr}
 211              	.LCFI1:
 212              		.cfi_def_cfa_offset 16
 213              		.cfi_offset 14, -4
 214              		.cfi_offset 6, -8
 215              		.cfi_offset 5, -12
 216              		.cfi_offset 4, -16
 217              		.loc 1 119 0
 218 0002 40F20004 		movw	r4, #:lower16:.LANCHOR0
 219 0006 C0F20004 		movt	r4, #:upper16:.LANCHOR0
 220              		.loc 1 114 0
 221 000a 0646     		mov	r6, r0
 222              		.loc 1 117 0
 223 000c FFF7FEFF 		bl	chDbgCheckClassS
 224              	.LVL11:
 225              	.LBB12:
 226              	.LBB13:
ARM GAS  C:\Users\z80\AppData\Local\Temp\ccpkiOUa.s 			page 5


 227              		.loc 2 60 0
 228 0010 2368     		ldr	r3, [r4, #0]
 229              	.LBE13:
 230              	.LBE12:
 231              		.loc 1 119 0
 232 0012 E569     		ldr	r5, [r4, #28]
 233              	.LVL12:
 234              	.LBB17:
 235              	.LBB14:
 236              		.loc 2 62 0
 237 0014 1A68     		ldr	r2, [r3, #0]
 238              	.LBE14:
 239              	.LBE17:
 240              		.loc 1 121 0
 241 0016 1420     		movs	r0, #20
 242              		.loc 1 124 0
 243 0018 0121     		movs	r1, #1
 244              		.loc 1 121 0
 245 001a A061     		str	r0, [r4, #24]
 246              	.LVL13:
 247              		.loc 1 119 0
 248 001c 85F82060 		strb	r6, [r5, #32]
 249              	.LBB18:
 250              	.LBB15:
 251              		.loc 2 62 0
 252 0020 5460     		str	r4, [r2, #4]
 253              	.LBE15:
 254              	.LBE18:
 255              		.loc 1 124 0
 256 0022 83F82010 		strb	r1, [r3, #32]
 257              		.loc 1 125 0
 258 0026 2846     		mov	r0, r5
 259              	.LBB19:
 260              	.LBB16:
 261              		.loc 2 62 0
 262 0028 2260     		str	r2, [r4, #0]
 263              	.LBE16:
 264              	.LBE19:
 265              		.loc 1 123 0
 266 002a E361     		str	r3, [r4, #28]
 267              		.loc 1 125 0
 268 002c FFF7FEFF 		bl	dbg_trace
 269              	.LVL14:
 270              	.LBB20:
 271 0030 EA69     		ldr	r2, [r5, #28]
 272 0032 ADF12403 		sub	r3, sp, #36
 273 0036 9A42     		cmp	r2, r3
 274 0038 05D9     		bls	.L15
 275              		.loc 1 125 0 is_stmt 0 discriminator 1
 276 003a 40F20000 		movw	r0, #:lower16:.LC1
 277 003e C0F20000 		movt	r0, #:upper16:.LC1
 278 0042 FFF7FEFF 		bl	chDbgPanic
 279              	.L15:
 280              		.loc 1 125 0 discriminator 2
 281 0046 E069     		ldr	r0, [r4, #28]
 282 0048 2946     		mov	r1, r5
 283              	.LBE20:
ARM GAS  C:\Users\z80\AppData\Local\Temp\ccpkiOUa.s 			page 6


 284              		.loc 1 126 0 is_stmt 1 discriminator 2
 285 004a BDE87040 		pop	{r4, r5, r6, lr}
 286              	.LBB21:
 287              		.loc 1 125 0 discriminator 2
 288 004e FFF7FEBF 		b	_port_switch
 289              	.LBE21:
 290              		.cfi_endproc
 291              	.LFE9:
 292              		.size	chSchGoSleepS, .-chSchGoSleepS
 293 0052 00BFAFF3 		.section	.text.chSchGoSleepTimeoutS,"ax",%progbits
 293      0080AFF3 
 293      0080AFF3 
 293      0080
 294              		.align	2
 295              		.p2align 4,,15
 296              		.global	chSchGoSleepTimeoutS
 297              		.thumb
 298              		.thumb_func
 299              		.type	chSchGoSleepTimeoutS, %function
 300              	chSchGoSleepTimeoutS:
 301              	.LFB11:
 302              		.loc 1 183 0
 303              		.cfi_startproc
 304              		@ args = 0, pretend = 0, frame = 24
 305              		@ frame_needed = 0, uses_anonymous_args = 0
 306              	.LVL15:
 307 0000 70B5     		push	{r4, r5, r6, lr}
 308              	.LCFI2:
 309              		.cfi_def_cfa_offset 16
 310              		.cfi_offset 14, -4
 311              		.cfi_offset 6, -8
 312              		.cfi_offset 5, -12
 313              		.cfi_offset 4, -16
 314 0002 0E46     		mov	r6, r1
 315 0004 86B0     		sub	sp, sp, #24
 316              	.LCFI3:
 317              		.cfi_def_cfa_offset 40
 318              		.loc 1 183 0
 319 0006 0546     		mov	r5, r0
 320              		.loc 1 185 0
 321 0008 FFF7FEFF 		bl	chDbgCheckClassS
 322              	.LVL16:
 323              		.loc 1 187 0
 324 000c 731C     		adds	r3, r6, #1
 325 000e 18D0     		beq	.L17
 326              	.LBB22:
 327              		.loc 1 190 0
 328 0010 40F20004 		movw	r4, #:lower16:.LANCHOR0
 329 0014 C0F20004 		movt	r4, #:upper16:.LANCHOR0
 330 0018 40F20002 		movw	r2, #:lower16:wakeup
 331 001c E369     		ldr	r3, [r4, #28]
 332 001e 3146     		mov	r1, r6
 333 0020 C0F20002 		movt	r2, #:upper16:wakeup
 334 0024 01A8     		add	r0, sp, #4
 335 0026 FFF7FEFF 		bl	chVTSetI
 336              		.loc 1 191 0
 337 002a 2846     		mov	r0, r5
ARM GAS  C:\Users\z80\AppData\Local\Temp\ccpkiOUa.s 			page 7


 338 002c FFF7FEFF 		bl	chSchGoSleepS
 339              		.loc 1 192 0
 340 0030 049B     		ldr	r3, [sp, #16]
 341 0032 13B1     		cbz	r3, .L18
 342              		.loc 1 193 0
 343 0034 01A8     		add	r0, sp, #4
 344 0036 FFF7FEFF 		bl	chVTResetI
 345              	.L18:
 346              	.LBE22:
 347              		.loc 1 197 0
 348 003a E069     		ldr	r0, [r4, #28]
 349              		.loc 1 198 0
 350 003c 806A     		ldr	r0, [r0, #40]
 351 003e 06B0     		add	sp, sp, #24
 352 0040 70BD     		pop	{r4, r5, r6, pc}
 353              	.L17:
 354              		.loc 1 196 0
 355 0042 2846     		mov	r0, r5
 356 0044 40F20004 		movw	r4, #:lower16:.LANCHOR0
 357 0048 FFF7FEFF 		bl	chSchGoSleepS
 358 004c C0F20004 		movt	r4, #:upper16:.LANCHOR0
 359 0050 F3E7     		b	.L18
 360              		.cfi_endproc
 361              	.LFE11:
 362              		.size	chSchGoSleepTimeoutS, .-chSchGoSleepTimeoutS
 363 0052 00BFAFF3 		.section	.text.chSchWakeupS,"ax",%progbits
 363      0080AFF3 
 363      0080AFF3 
 363      0080
 364              		.align	2
 365              		.p2align 4,,15
 366              		.global	chSchWakeupS
 367              		.thumb
 368              		.thumb_func
 369              		.type	chSchWakeupS, %function
 370              	chSchWakeupS:
 371              	.LFB12:
 372              		.loc 1 219 0
 373              		.cfi_startproc
 374              		@ args = 0, pretend = 0, frame = 0
 375              		@ frame_needed = 0, uses_anonymous_args = 0
 376              	.LVL17:
 377 0000 70B5     		push	{r4, r5, r6, lr}
 378              	.LCFI4:
 379              		.cfi_def_cfa_offset 16
 380              		.cfi_offset 14, -4
 381              		.cfi_offset 6, -8
 382              		.cfi_offset 5, -12
 383              		.cfi_offset 4, -16
 384              		.loc 1 228 0
 385 0002 40F20005 		movw	r5, #:lower16:.LANCHOR0
 386 0006 C0F20005 		movt	r5, #:upper16:.LANCHOR0
 387              		.loc 1 219 0
 388 000a 0446     		mov	r4, r0
 389 000c 0E46     		mov	r6, r1
 390              		.loc 1 221 0
 391 000e FFF7FEFF 		bl	chDbgCheckClassS
ARM GAS  C:\Users\z80\AppData\Local\Temp\ccpkiOUa.s 			page 8


 392              	.LVL18:
 393              		.loc 1 228 0
 394 0012 E869     		ldr	r0, [r5, #28]
 395 0014 A268     		ldr	r2, [r4, #8]
 396 0016 8368     		ldr	r3, [r0, #8]
 397              		.loc 1 223 0
 398 0018 A662     		str	r6, [r4, #40]
 399              		.loc 1 228 0
 400 001a 9A42     		cmp	r2, r3
 401 001c 15D9     		bls	.L22
 402              	.LBB23:
 403              		.loc 1 231 0
 404 001e FFF7FEFF 		bl	chSchReadyI
 405              		.loc 1 236 0
 406 0022 0123     		movs	r3, #1
 407              		.loc 1 233 0
 408 0024 1422     		movs	r2, #20
 409              		.loc 1 231 0
 410 0026 0646     		mov	r6, r0
 411              	.LVL19:
 412              		.loc 1 236 0
 413 0028 84F82030 		strb	r3, [r4, #32]
 414              		.loc 1 233 0
 415 002c AA61     		str	r2, [r5, #24]
 416              		.loc 1 235 0
 417 002e EC61     		str	r4, [r5, #28]
 418              		.loc 1 237 0
 419 0030 FFF7FEFF 		bl	dbg_trace
 420              	.LVL20:
 421              	.LBB24:
 422 0034 F069     		ldr	r0, [r6, #28]
 423 0036 ADF12401 		sub	r1, sp, #36
 424 003a 8842     		cmp	r0, r1
 425 003c 0AD8     		bhi	.L23
 426              	.L21:
 427              		.loc 1 237 0 is_stmt 0 discriminator 2
 428 003e 2046     		mov	r0, r4
 429 0040 3146     		mov	r1, r6
 430              	.LBE24:
 431              	.LBE23:
 432              		.loc 1 239 0 is_stmt 1 discriminator 2
 433 0042 BDE87040 		pop	{r4, r5, r6, lr}
 434              	.LBB27:
 435              	.LBB25:
 436              		.loc 1 237 0 discriminator 2
 437 0046 FFF7FEBF 		b	_port_switch
 438              	.LVL21:
 439              	.L22:
 440              	.LBE25:
 441              	.LBE27:
 442              		.loc 1 229 0
 443 004a 2046     		mov	r0, r4
 444              		.loc 1 239 0
 445 004c BDE87040 		pop	{r4, r5, r6, lr}
 446              		.loc 1 229 0
 447 0050 FFF7FEBF 		b	chSchReadyI
 448              	.LVL22:
ARM GAS  C:\Users\z80\AppData\Local\Temp\ccpkiOUa.s 			page 9


 449              	.L23:
 450              	.LBB28:
 451              	.LBB26:
 452              		.loc 1 237 0 discriminator 1
 453 0054 40F20000 		movw	r0, #:lower16:.LC1
 454 0058 C0F20000 		movt	r0, #:upper16:.LC1
 455 005c FFF7FEFF 		bl	chDbgPanic
 456 0060 EDE7     		b	.L21
 457              	.LBE26:
 458              	.LBE28:
 459              		.cfi_endproc
 460              	.LFE12:
 461              		.size	chSchWakeupS, .-chSchWakeupS
 462 0062 00BFAFF3 		.section	.text.chSchDoReschedule,"ax",%progbits
 462      0080AFF3 
 462      0080AFF3 
 462      0080
 463              		.align	2
 464              		.p2align 4,,15
 465              		.global	chSchDoReschedule
 466              		.thumb
 467              		.thumb_func
 468              		.type	chSchDoReschedule, %function
 469              	chSchDoReschedule:
 470              	.LFB14:
 471              		.loc 1 298 0
 472              		.cfi_startproc
 473              		@ args = 0, pretend = 0, frame = 0
 474              		@ frame_needed = 0, uses_anonymous_args = 0
 475 0000 38B5     		push	{r3, r4, r5, lr}
 476              	.LCFI5:
 477              		.cfi_def_cfa_offset 16
 478              		.cfi_offset 14, -4
 479              		.cfi_offset 5, -8
 480              		.cfi_offset 4, -12
 481              		.cfi_offset 3, -16
 482              		.loc 1 302 0
 483 0002 40F20004 		movw	r4, #:lower16:.LANCHOR0
 484 0006 C0F20004 		movt	r4, #:upper16:.LANCHOR0
 485              	.LBB29:
 486              	.LBB30:
 487              		.loc 2 60 0
 488 000a 2368     		ldr	r3, [r4, #0]
 489              	.LBE30:
 490              	.LBE29:
 491              		.loc 1 304 0
 492 000c E569     		ldr	r5, [r4, #28]
 493              	.LVL23:
 494              	.LBB34:
 495              	.LBB31:
 496              		.loc 2 62 0
 497 000e 1A68     		ldr	r2, [r3, #0]
 498              	.LBE31:
 499              	.LBE34:
 500              		.loc 1 307 0
 501 0010 0121     		movs	r1, #1
 502              		.loc 1 302 0
ARM GAS  C:\Users\z80\AppData\Local\Temp\ccpkiOUa.s 			page 10


 503 0012 1420     		movs	r0, #20
 504 0014 A061     		str	r0, [r4, #24]
 505              		.loc 1 307 0
 506 0016 83F82010 		strb	r1, [r3, #32]
 507              	.LBB35:
 508              	.LBB32:
 509              		.loc 2 62 0
 510 001a 5460     		str	r4, [r2, #4]
 511              	.LBE32:
 512              	.LBE35:
 513              		.loc 1 308 0
 514 001c 2846     		mov	r0, r5
 515              	.LBB36:
 516              	.LBB33:
 517              		.loc 2 62 0
 518 001e 2260     		str	r2, [r4, #0]
 519              	.LBE33:
 520              	.LBE36:
 521              		.loc 1 306 0
 522 0020 E361     		str	r3, [r4, #28]
 523              		.loc 1 308 0
 524 0022 FFF7FEFF 		bl	chSchReadyI
 525              	.LVL24:
 526              		.loc 1 309 0
 527 0026 2846     		mov	r0, r5
 528 0028 FFF7FEFF 		bl	dbg_trace
 529              	.LBB37:
 530 002c EA69     		ldr	r2, [r5, #28]
 531 002e ADF12403 		sub	r3, sp, #36
 532 0032 9A42     		cmp	r2, r3
 533 0034 05D9     		bls	.L25
 534              		.loc 1 309 0 is_stmt 0 discriminator 1
 535 0036 40F20000 		movw	r0, #:lower16:.LC1
 536 003a C0F20000 		movt	r0, #:upper16:.LC1
 537 003e FFF7FEFF 		bl	chDbgPanic
 538              	.L25:
 539              		.loc 1 309 0 discriminator 2
 540 0042 E069     		ldr	r0, [r4, #28]
 541 0044 2946     		mov	r1, r5
 542              	.LBE37:
 543              		.loc 1 310 0 is_stmt 1 discriminator 2
 544 0046 BDE83840 		pop	{r3, r4, r5, lr}
 545              	.LBB38:
 546              		.loc 1 309 0 discriminator 2
 547 004a FFF7FEBF 		b	_port_switch
 548              	.LBE38:
 549              		.cfi_endproc
 550              	.LFE14:
 551              		.size	chSchDoReschedule, .-chSchDoReschedule
 552 004e 00BF     		.section	.text.chSchRescheduleS,"ax",%progbits
 553              		.align	2
 554              		.p2align 4,,15
 555              		.global	chSchRescheduleS
 556              		.thumb
 557              		.thumb_func
 558              		.type	chSchRescheduleS, %function
 559              	chSchRescheduleS:
ARM GAS  C:\Users\z80\AppData\Local\Temp\ccpkiOUa.s 			page 11


 560              	.LFB13:
 561              		.loc 1 250 0
 562              		.cfi_startproc
 563              		@ args = 0, pretend = 0, frame = 0
 564              		@ frame_needed = 0, uses_anonymous_args = 0
 565 0000 08B5     		push	{r3, lr}
 566              	.LCFI6:
 567              		.cfi_def_cfa_offset 8
 568              		.cfi_offset 14, -4
 569              		.cfi_offset 3, -8
 570              		.loc 1 252 0
 571 0002 FFF7FEFF 		bl	chDbgCheckClassS
 572              		.loc 1 254 0
 573 0006 40F2000C 		movw	ip, #:lower16:.LANCHOR0
 574 000a C0F2000C 		movt	ip, #:upper16:.LANCHOR0
 575 000e DCF80010 		ldr	r1, [ip, #0]
 576 0012 DCF81C00 		ldr	r0, [ip, #28]
 577 0016 8A68     		ldr	r2, [r1, #8]
 578 0018 8368     		ldr	r3, [r0, #8]
 579 001a 9A42     		cmp	r2, r3
 580 001c 00D8     		bhi	.L28
 581 001e 08BD     		pop	{r3, pc}
 582              	.L28:
 583              		.loc 1 256 0
 584 0020 BDE80840 		pop	{r3, lr}
 585              		.loc 1 255 0
 586 0024 FFF7FEBF 		b	chSchDoReschedule
 587              		.cfi_endproc
 588              	.LFE13:
 589              		.size	chSchRescheduleS, .-chSchRescheduleS
 590              		.global	rlist
 591 0028 AFF30080 		.section	.rodata.str1.4,"aMS",%progbits,1
 591      AFF30080 
 592              		.align	2
 593              	.LC0:
 594 0000 63685363 		.ascii	"chSchReadyI(), #1\000"
 594      68526561 
 594      64794928 
 594      292C2023 
 594      3100
 595 0012 0000     		.space	2
 596              	.LC1:
 597 0014 73746163 		.ascii	"stack overflow\000"
 597      6B206F76 
 597      6572666C 
 597      6F7700
 598 0023 00       		.section	.bss.rlist,"aw",%nobits
 599              		.align	2
 600              		.set	.LANCHOR0,. + 0
 601              		.type	rlist, %object
 602              		.size	rlist, 32
 603              	rlist:
 604 0000 00000000 		.space	32
 604      00000000 
 604      00000000 
 604      00000000 
 604      00000000 
ARM GAS  C:\Users\z80\AppData\Local\Temp\ccpkiOUa.s 			page 12


 605              		.text
 606              	.Letext0:
 607              		.file 3 "c:\\programs\\codesourcery\\2011.03-56\\bin\\../lib/gcc/arm-none-eabi/4.6.3/../../../../a
 608              		.file 4 "../chibios_2.4.x/os/ports/GCC/ARMCMx/chtypes.h"
 609              		.file 5 "../chibios_2.4.x/os/kernel/include/chlists.h"
 610              		.file 6 "../chibios_2.4.x/os/kernel/include/chthreads.h"
 611              		.file 7 "../chibios_2.4.x/os/ports/GCC/ARMCMx/chcore_v7m.h"
 612              		.file 8 "../chibios_2.4.x/os/kernel/include/chvt.h"
 613              		.file 9 "../chibios_2.4.x/os/kernel/include/chschd.h"
 614              		.file 10 "../chibios_2.4.x/os/kernel/include/chsem.h"
 615              		.file 11 "../chibios_2.4.x/os/kernel/include/chmtx.h"
 616              		.section	.debug_info,"",%progbits
 617              	.Ldebug_info0:
 618 0000 8A070000 		.4byte	0x78a
 619 0004 0200     		.2byte	0x2
 620 0006 00000000 		.4byte	.Ldebug_abbrev0
 621 000a 04       		.byte	0x4
 622 000b 01       		.uleb128 0x1
 623 000c A8020000 		.4byte	.LASF82
 624 0010 01       		.byte	0x1
 625 0011 3F010000 		.4byte	.LASF83
 626 0015 6F000000 		.4byte	.LASF84
 627 0019 00000000 		.4byte	0
 628 001d 00000000 		.4byte	0
 629 0021 10010000 		.4byte	.Ldebug_ranges0+0x110
 630 0025 00000000 		.4byte	.Ldebug_line0
 631 0029 02       		.uleb128 0x2
 632 002a 04       		.byte	0x4
 633 002b 05       		.byte	0x5
 634 002c 696E7400 		.ascii	"int\000"
 635 0030 03       		.uleb128 0x3
 636 0031 04       		.byte	0x4
 637 0032 07       		.byte	0x7
 638 0033 0B010000 		.4byte	.LASF0
 639 0037 03       		.uleb128 0x3
 640 0038 01       		.byte	0x1
 641 0039 06       		.byte	0x6
 642 003a 5B000000 		.4byte	.LASF1
 643 003e 04       		.uleb128 0x4
 644 003f 35030000 		.4byte	.LASF5
 645 0043 03       		.byte	0x3
 646 0044 2A       		.byte	0x2a
 647 0045 49000000 		.4byte	0x49
 648 0049 03       		.uleb128 0x3
 649 004a 01       		.byte	0x1
 650 004b 08       		.byte	0x8
 651 004c 1A020000 		.4byte	.LASF2
 652 0050 03       		.uleb128 0x3
 653 0051 02       		.byte	0x2
 654 0052 05       		.byte	0x5
 655 0053 3B020000 		.4byte	.LASF3
 656 0057 03       		.uleb128 0x3
 657 0058 02       		.byte	0x2
 658 0059 07       		.byte	0x7
 659 005a 67010000 		.4byte	.LASF4
 660 005e 04       		.uleb128 0x4
 661 005f 12020000 		.4byte	.LASF6
ARM GAS  C:\Users\z80\AppData\Local\Temp\ccpkiOUa.s 			page 13


 662 0063 03       		.byte	0x3
 663 0064 4F       		.byte	0x4f
 664 0065 69000000 		.4byte	0x69
 665 0069 03       		.uleb128 0x3
 666 006a 04       		.byte	0x4
 667 006b 05       		.byte	0x5
 668 006c 9C000000 		.4byte	.LASF7
 669 0070 04       		.uleb128 0x4
 670 0071 8A020000 		.4byte	.LASF8
 671 0075 03       		.byte	0x3
 672 0076 50       		.byte	0x50
 673 0077 7B000000 		.4byte	0x7b
 674 007b 03       		.uleb128 0x3
 675 007c 04       		.byte	0x4
 676 007d 07       		.byte	0x7
 677 007e 27010000 		.4byte	.LASF9
 678 0082 03       		.uleb128 0x3
 679 0083 08       		.byte	0x8
 680 0084 05       		.byte	0x5
 681 0085 4D000000 		.4byte	.LASF10
 682 0089 04       		.uleb128 0x4
 683 008a 0D000000 		.4byte	.LASF11
 684 008e 03       		.byte	0x3
 685 008f 78       		.byte	0x78
 686 0090 94000000 		.4byte	0x94
 687 0094 03       		.uleb128 0x3
 688 0095 08       		.byte	0x8
 689 0096 07       		.byte	0x7
 690 0097 16000000 		.4byte	.LASF12
 691 009b 04       		.uleb128 0x4
 692 009c 8D010000 		.4byte	.LASF13
 693 00a0 04       		.byte	0x4
 694 00a1 2F       		.byte	0x2f
 695 00a2 3E000000 		.4byte	0x3e
 696 00a6 04       		.uleb128 0x4
 697 00a7 A5000000 		.4byte	.LASF14
 698 00ab 04       		.byte	0x4
 699 00ac 30       		.byte	0x30
 700 00ad 3E000000 		.4byte	0x3e
 701 00b1 04       		.uleb128 0x4
 702 00b2 0A020000 		.4byte	.LASF15
 703 00b6 04       		.byte	0x4
 704 00b7 32       		.byte	0x32
 705 00b8 70000000 		.4byte	0x70
 706 00bc 04       		.uleb128 0x4
 707 00bd 87010000 		.4byte	.LASF16
 708 00c1 04       		.byte	0x4
 709 00c2 33       		.byte	0x33
 710 00c3 5E000000 		.4byte	0x5e
 711 00c7 04       		.uleb128 0x4
 712 00c8 A1010000 		.4byte	.LASF17
 713 00cc 04       		.byte	0x4
 714 00cd 35       		.byte	0x35
 715 00ce 70000000 		.4byte	0x70
 716 00d2 04       		.uleb128 0x4
 717 00d3 D8020000 		.4byte	.LASF18
 718 00d7 04       		.byte	0x4
ARM GAS  C:\Users\z80\AppData\Local\Temp\ccpkiOUa.s 			page 14


 719 00d8 36       		.byte	0x36
 720 00d9 70000000 		.4byte	0x70
 721 00dd 04       		.uleb128 0x4
 722 00de FA000000 		.4byte	.LASF19
 723 00e2 04       		.byte	0x4
 724 00e3 37       		.byte	0x37
 725 00e4 5E000000 		.4byte	0x5e
 726 00e8 04       		.uleb128 0x4
 727 00e9 6A020000 		.4byte	.LASF20
 728 00ed 05       		.byte	0x5
 729 00ee 2A       		.byte	0x2a
 730 00ef F3000000 		.4byte	0xf3
 731 00f3 05       		.uleb128 0x5
 732 00f4 6A020000 		.4byte	.LASF20
 733 00f8 48       		.byte	0x48
 734 00f9 06       		.byte	0x6
 735 00fa 5E       		.byte	0x5e
 736 00fb FC010000 		.4byte	0x1fc
 737 00ff 06       		.uleb128 0x6
 738 0100 5B020000 		.4byte	.LASF21
 739 0104 06       		.byte	0x6
 740 0105 5F       		.byte	0x5f
 741 0106 21020000 		.4byte	0x221
 742 010a 02       		.byte	0x2
 743 010b 23       		.byte	0x23
 744 010c 00       		.uleb128 0
 745 010d 06       		.uleb128 0x6
 746 010e 03020000 		.4byte	.LASF22
 747 0112 06       		.byte	0x6
 748 0113 61       		.byte	0x61
 749 0114 21020000 		.4byte	0x221
 750 0118 02       		.byte	0x2
 751 0119 23       		.byte	0x23
 752 011a 04       		.uleb128 0x4
 753 011b 06       		.uleb128 0x6
 754 011c 36000000 		.4byte	.LASF23
 755 0120 06       		.byte	0x6
 756 0121 63       		.byte	0x63
 757 0122 B1000000 		.4byte	0xb1
 758 0126 02       		.byte	0x2
 759 0127 23       		.byte	0x23
 760 0128 08       		.uleb128 0x8
 761 0129 06       		.uleb128 0x6
 762 012a 7A030000 		.4byte	.LASF24
 763 012e 06       		.byte	0x6
 764 012f 64       		.byte	0x64
 765 0130 F9020000 		.4byte	0x2f9
 766 0134 02       		.byte	0x2
 767 0135 23       		.byte	0x23
 768 0136 0C       		.uleb128 0xc
 769 0137 06       		.uleb128 0x6
 770 0138 AE000000 		.4byte	.LASF25
 771 013c 06       		.byte	0x6
 772 013d 66       		.byte	0x66
 773 013e 21020000 		.4byte	0x221
 774 0142 02       		.byte	0x2
 775 0143 23       		.byte	0x23
ARM GAS  C:\Users\z80\AppData\Local\Temp\ccpkiOUa.s 			page 15


 776 0144 10       		.uleb128 0x10
 777 0145 06       		.uleb128 0x6
 778 0146 CE010000 		.4byte	.LASF26
 779 014a 06       		.byte	0x6
 780 014b 67       		.byte	0x67
 781 014c 21020000 		.4byte	0x221
 782 0150 02       		.byte	0x2
 783 0151 23       		.byte	0x23
 784 0152 14       		.uleb128 0x14
 785 0153 06       		.uleb128 0x6
 786 0154 44030000 		.4byte	.LASF27
 787 0158 06       		.byte	0x6
 788 0159 6E       		.byte	0x6e
 789 015a C9040000 		.4byte	0x4c9
 790 015e 02       		.byte	0x2
 791 015f 23       		.byte	0x23
 792 0160 18       		.uleb128 0x18
 793 0161 06       		.uleb128 0x6
 794 0162 00010000 		.4byte	.LASF28
 795 0166 06       		.byte	0x6
 796 0167 74       		.byte	0x74
 797 0168 DB040000 		.4byte	0x4db
 798 016c 02       		.byte	0x2
 799 016d 23       		.byte	0x23
 800 016e 1C       		.uleb128 0x1c
 801 016f 06       		.uleb128 0x6
 802 0170 45020000 		.4byte	.LASF29
 803 0174 06       		.byte	0x6
 804 0175 79       		.byte	0x79
 805 0176 A6000000 		.4byte	0xa6
 806 017a 02       		.byte	0x2
 807 017b 23       		.byte	0x23
 808 017c 20       		.uleb128 0x20
 809 017d 06       		.uleb128 0x6
 810 017e 62020000 		.4byte	.LASF30
 811 0182 06       		.byte	0x6
 812 0183 7D       		.byte	0x7d
 813 0184 9B000000 		.4byte	0x9b
 814 0188 02       		.byte	0x2
 815 0189 23       		.byte	0x23
 816 018a 21       		.uleb128 0x21
 817 018b 06       		.uleb128 0x6
 818 018c F6020000 		.4byte	.LASF31
 819 0190 06       		.byte	0x6
 820 0191 89       		.byte	0x89
 821 0192 9D030000 		.4byte	0x39d
 822 0196 02       		.byte	0x2
 823 0197 23       		.byte	0x23
 824 0198 24       		.uleb128 0x24
 825 0199 07       		.uleb128 0x7
 826 019a 705F7500 		.ascii	"p_u\000"
 827 019e 06       		.byte	0x6
 828 019f AE       		.byte	0xae
 829 01a0 94040000 		.4byte	0x494
 830 01a4 02       		.byte	0x2
 831 01a5 23       		.byte	0x23
 832 01a6 28       		.uleb128 0x28
ARM GAS  C:\Users\z80\AppData\Local\Temp\ccpkiOUa.s 			page 16


 833 01a7 06       		.uleb128 0x6
 834 01a8 80030000 		.4byte	.LASF32
 835 01ac 06       		.byte	0x6
 836 01ad B3       		.byte	0xb3
 837 01ae 49020000 		.4byte	0x249
 838 01b2 02       		.byte	0x2
 839 01b3 23       		.byte	0x23
 840 01b4 2C       		.uleb128 0x2c
 841 01b5 06       		.uleb128 0x6
 842 01b6 04030000 		.4byte	.LASF33
 843 01ba 06       		.byte	0x6
 844 01bb B9       		.byte	0xb9
 845 01bc 27020000 		.4byte	0x227
 846 01c0 02       		.byte	0x2
 847 01c1 23       		.byte	0x23
 848 01c2 30       		.uleb128 0x30
 849 01c3 06       		.uleb128 0x6
 850 01c4 00000000 		.4byte	.LASF34
 851 01c8 06       		.byte	0x6
 852 01c9 BD       		.byte	0xbd
 853 01ca BC000000 		.4byte	0xbc
 854 01ce 02       		.byte	0x2
 855 01cf 23       		.byte	0x23
 856 01d0 38       		.uleb128 0x38
 857 01d1 06       		.uleb128 0x6
 858 01d2 7F020000 		.4byte	.LASF35
 859 01d6 06       		.byte	0x6
 860 01d7 C3       		.byte	0xc3
 861 01d8 C7000000 		.4byte	0xc7
 862 01dc 02       		.byte	0x2
 863 01dd 23       		.byte	0x23
 864 01de 3C       		.uleb128 0x3c
 865 01df 06       		.uleb128 0x6
 866 01e0 31020000 		.4byte	.LASF36
 867 01e4 06       		.byte	0x6
 868 01e5 CA       		.byte	0xca
 869 01e6 E1040000 		.4byte	0x4e1
 870 01ea 02       		.byte	0x2
 871 01eb 23       		.byte	0x23
 872 01ec 40       		.uleb128 0x40
 873 01ed 06       		.uleb128 0x6
 874 01ee E2020000 		.4byte	.LASF37
 875 01f2 06       		.byte	0x6
 876 01f3 CE       		.byte	0xce
 877 01f4 B1000000 		.4byte	0xb1
 878 01f8 02       		.byte	0x2
 879 01f9 23       		.byte	0x23
 880 01fa 44       		.uleb128 0x44
 881 01fb 00       		.byte	0
 882 01fc 08       		.uleb128 0x8
 883 01fd 08       		.byte	0x8
 884 01fe 05       		.byte	0x5
 885 01ff 61       		.byte	0x61
 886 0200 21020000 		.4byte	0x221
 887 0204 06       		.uleb128 0x6
 888 0205 5B020000 		.4byte	.LASF21
 889 0209 05       		.byte	0x5
ARM GAS  C:\Users\z80\AppData\Local\Temp\ccpkiOUa.s 			page 17


 890 020a 62       		.byte	0x62
 891 020b 21020000 		.4byte	0x221
 892 020f 02       		.byte	0x2
 893 0210 23       		.byte	0x23
 894 0211 00       		.uleb128 0
 895 0212 06       		.uleb128 0x6
 896 0213 03020000 		.4byte	.LASF22
 897 0217 05       		.byte	0x5
 898 0218 64       		.byte	0x64
 899 0219 21020000 		.4byte	0x221
 900 021d 02       		.byte	0x2
 901 021e 23       		.byte	0x23
 902 021f 04       		.uleb128 0x4
 903 0220 00       		.byte	0
 904 0221 09       		.uleb128 0x9
 905 0222 04       		.byte	0x4
 906 0223 E8000000 		.4byte	0xe8
 907 0227 04       		.uleb128 0x4
 908 0228 DC010000 		.4byte	.LASF38
 909 022c 05       		.byte	0x5
 910 022d 66       		.byte	0x66
 911 022e FC010000 		.4byte	0x1fc
 912 0232 08       		.uleb128 0x8
 913 0233 04       		.byte	0x4
 914 0234 05       		.byte	0x5
 915 0235 6B       		.byte	0x6b
 916 0236 49020000 		.4byte	0x249
 917 023a 06       		.uleb128 0x6
 918 023b 5B020000 		.4byte	.LASF21
 919 023f 05       		.byte	0x5
 920 0240 6D       		.byte	0x6d
 921 0241 21020000 		.4byte	0x221
 922 0245 02       		.byte	0x2
 923 0246 23       		.byte	0x23
 924 0247 00       		.uleb128 0
 925 0248 00       		.byte	0
 926 0249 04       		.uleb128 0x4
 927 024a 95010000 		.4byte	.LASF39
 928 024e 05       		.byte	0x5
 929 024f 70       		.byte	0x70
 930 0250 32020000 		.4byte	0x232
 931 0254 04       		.uleb128 0x4
 932 0255 D7000000 		.4byte	.LASF40
 933 0259 07       		.byte	0x7
 934 025a D7       		.byte	0xd7
 935 025b 5F020000 		.4byte	0x25f
 936 025f 0A       		.uleb128 0xa
 937 0260 04       		.byte	0x4
 938 0261 04       		.uleb128 0x4
 939 0262 B3010000 		.4byte	.LASF41
 940 0266 07       		.byte	0x7
 941 0267 DD       		.byte	0xdd
 942 0268 89000000 		.4byte	0x89
 943 026c 05       		.uleb128 0x5
 944 026d FD020000 		.4byte	.LASF42
 945 0271 24       		.byte	0x24
 946 0272 07       		.byte	0x7
ARM GAS  C:\Users\z80\AppData\Local\Temp\ccpkiOUa.s 			page 18


 947 0273 FE       		.byte	0xfe
 948 0274 F9020000 		.4byte	0x2f9
 949 0278 0B       		.uleb128 0xb
 950 0279 723400   		.ascii	"r4\000"
 951 027c 07       		.byte	0x7
 952 027d 1101     		.2byte	0x111
 953 027f 54020000 		.4byte	0x254
 954 0283 02       		.byte	0x2
 955 0284 23       		.byte	0x23
 956 0285 00       		.uleb128 0
 957 0286 0B       		.uleb128 0xb
 958 0287 723500   		.ascii	"r5\000"
 959 028a 07       		.byte	0x7
 960 028b 1201     		.2byte	0x112
 961 028d 54020000 		.4byte	0x254
 962 0291 02       		.byte	0x2
 963 0292 23       		.byte	0x23
 964 0293 04       		.uleb128 0x4
 965 0294 0B       		.uleb128 0xb
 966 0295 723600   		.ascii	"r6\000"
 967 0298 07       		.byte	0x7
 968 0299 1301     		.2byte	0x113
 969 029b 54020000 		.4byte	0x254
 970 029f 02       		.byte	0x2
 971 02a0 23       		.byte	0x23
 972 02a1 08       		.uleb128 0x8
 973 02a2 0B       		.uleb128 0xb
 974 02a3 723700   		.ascii	"r7\000"
 975 02a6 07       		.byte	0x7
 976 02a7 1401     		.2byte	0x114
 977 02a9 54020000 		.4byte	0x254
 978 02ad 02       		.byte	0x2
 979 02ae 23       		.byte	0x23
 980 02af 0C       		.uleb128 0xc
 981 02b0 0B       		.uleb128 0xb
 982 02b1 723800   		.ascii	"r8\000"
 983 02b4 07       		.byte	0x7
 984 02b5 1501     		.2byte	0x115
 985 02b7 54020000 		.4byte	0x254
 986 02bb 02       		.byte	0x2
 987 02bc 23       		.byte	0x23
 988 02bd 10       		.uleb128 0x10
 989 02be 0B       		.uleb128 0xb
 990 02bf 723900   		.ascii	"r9\000"
 991 02c2 07       		.byte	0x7
 992 02c3 1601     		.2byte	0x116
 993 02c5 54020000 		.4byte	0x254
 994 02c9 02       		.byte	0x2
 995 02ca 23       		.byte	0x23
 996 02cb 14       		.uleb128 0x14
 997 02cc 0B       		.uleb128 0xb
 998 02cd 72313000 		.ascii	"r10\000"
 999 02d1 07       		.byte	0x7
 1000 02d2 1701     		.2byte	0x117
 1001 02d4 54020000 		.4byte	0x254
 1002 02d8 02       		.byte	0x2
 1003 02d9 23       		.byte	0x23
ARM GAS  C:\Users\z80\AppData\Local\Temp\ccpkiOUa.s 			page 19


 1004 02da 18       		.uleb128 0x18
 1005 02db 0B       		.uleb128 0xb
 1006 02dc 72313100 		.ascii	"r11\000"
 1007 02e0 07       		.byte	0x7
 1008 02e1 1801     		.2byte	0x118
 1009 02e3 54020000 		.4byte	0x254
 1010 02e7 02       		.byte	0x2
 1011 02e8 23       		.byte	0x23
 1012 02e9 1C       		.uleb128 0x1c
 1013 02ea 0B       		.uleb128 0xb
 1014 02eb 6C7200   		.ascii	"lr\000"
 1015 02ee 07       		.byte	0x7
 1016 02ef 1901     		.2byte	0x119
 1017 02f1 54020000 		.4byte	0x254
 1018 02f5 02       		.byte	0x2
 1019 02f6 23       		.byte	0x23
 1020 02f7 20       		.uleb128 0x20
 1021 02f8 00       		.byte	0
 1022 02f9 0C       		.uleb128 0xc
 1023 02fa 4B030000 		.4byte	.LASF43
 1024 02fe 04       		.byte	0x4
 1025 02ff 07       		.byte	0x7
 1026 0300 2301     		.2byte	0x123
 1027 0302 16030000 		.4byte	0x316
 1028 0306 0B       		.uleb128 0xb
 1029 0307 72313300 		.ascii	"r13\000"
 1030 030b 07       		.byte	0x7
 1031 030c 2401     		.2byte	0x124
 1032 030e 16030000 		.4byte	0x316
 1033 0312 02       		.byte	0x2
 1034 0313 23       		.byte	0x23
 1035 0314 00       		.uleb128 0
 1036 0315 00       		.byte	0
 1037 0316 09       		.uleb128 0x9
 1038 0317 04       		.byte	0x4
 1039 0318 6C020000 		.4byte	0x26c
 1040 031c 04       		.uleb128 0x4
 1041 031d ED020000 		.4byte	.LASF44
 1042 0321 08       		.byte	0x8
 1043 0322 53       		.byte	0x53
 1044 0323 27030000 		.4byte	0x327
 1045 0327 09       		.uleb128 0x9
 1046 0328 04       		.byte	0x4
 1047 0329 2D030000 		.4byte	0x32d
 1048 032d 0D       		.uleb128 0xd
 1049 032e 01       		.byte	0x1
 1050 032f 39030000 		.4byte	0x339
 1051 0333 0E       		.uleb128 0xe
 1052 0334 5F020000 		.4byte	0x25f
 1053 0338 00       		.byte	0
 1054 0339 04       		.uleb128 0x4
 1055 033a 9B020000 		.4byte	.LASF45
 1056 033e 08       		.byte	0x8
 1057 033f 58       		.byte	0x58
 1058 0340 44030000 		.4byte	0x344
 1059 0344 05       		.uleb128 0x5
 1060 0345 9B020000 		.4byte	.LASF45
ARM GAS  C:\Users\z80\AppData\Local\Temp\ccpkiOUa.s 			page 20


 1061 0349 14       		.byte	0x14
 1062 034a 08       		.byte	0x8
 1063 034b 5F       		.byte	0x5f
 1064 034c 97030000 		.4byte	0x397
 1065 0350 06       		.uleb128 0x6
 1066 0351 1F010000 		.4byte	.LASF46
 1067 0355 08       		.byte	0x8
 1068 0356 60       		.byte	0x60
 1069 0357 97030000 		.4byte	0x397
 1070 035b 02       		.byte	0x2
 1071 035c 23       		.byte	0x23
 1072 035d 00       		.uleb128 0
 1073 035e 06       		.uleb128 0x6
 1074 035f E0000000 		.4byte	.LASF47
 1075 0363 08       		.byte	0x8
 1076 0364 62       		.byte	0x62
 1077 0365 97030000 		.4byte	0x397
 1078 0369 02       		.byte	0x2
 1079 036a 23       		.byte	0x23
 1080 036b 04       		.uleb128 0x4
 1081 036c 06       		.uleb128 0x6
 1082 036d BE010000 		.4byte	.LASF48
 1083 0371 08       		.byte	0x8
 1084 0372 64       		.byte	0x64
 1085 0373 D2000000 		.4byte	0xd2
 1086 0377 02       		.byte	0x2
 1087 0378 23       		.byte	0x23
 1088 0379 08       		.uleb128 0x8
 1089 037a 06       		.uleb128 0x6
 1090 037b C6010000 		.4byte	.LASF49
 1091 037f 08       		.byte	0x8
 1092 0380 65       		.byte	0x65
 1093 0381 1C030000 		.4byte	0x31c
 1094 0385 02       		.byte	0x2
 1095 0386 23       		.byte	0x23
 1096 0387 0C       		.uleb128 0xc
 1097 0388 06       		.uleb128 0x6
 1098 0389 14030000 		.4byte	.LASF50
 1099 038d 08       		.byte	0x8
 1100 038e 67       		.byte	0x67
 1101 038f 5F020000 		.4byte	0x25f
 1102 0393 02       		.byte	0x2
 1103 0394 23       		.byte	0x23
 1104 0395 10       		.uleb128 0x10
 1105 0396 00       		.byte	0
 1106 0397 09       		.uleb128 0x9
 1107 0398 04       		.byte	0x4
 1108 0399 39030000 		.4byte	0x339
 1109 039d 0F       		.uleb128 0xf
 1110 039e D2000000 		.4byte	0xd2
 1111 03a2 08       		.uleb128 0x8
 1112 03a3 20       		.byte	0x20
 1113 03a4 09       		.byte	0x9
 1114 03a5 5E       		.byte	0x5e
 1115 03a6 0D040000 		.4byte	0x40d
 1116 03aa 06       		.uleb128 0x6
 1117 03ab 93020000 		.4byte	.LASF51
ARM GAS  C:\Users\z80\AppData\Local\Temp\ccpkiOUa.s 			page 21


 1118 03af 09       		.byte	0x9
 1119 03b0 5F       		.byte	0x5f
 1120 03b1 27020000 		.4byte	0x227
 1121 03b5 02       		.byte	0x2
 1122 03b6 23       		.byte	0x23
 1123 03b7 00       		.uleb128 0
 1124 03b8 06       		.uleb128 0x6
 1125 03b9 4D020000 		.4byte	.LASF52
 1126 03bd 09       		.byte	0x9
 1127 03be 60       		.byte	0x60
 1128 03bf B1000000 		.4byte	0xb1
 1129 03c3 02       		.byte	0x2
 1130 03c4 23       		.byte	0x23
 1131 03c5 08       		.uleb128 0x8
 1132 03c6 06       		.uleb128 0x6
 1133 03c7 D6010000 		.4byte	.LASF53
 1134 03cb 09       		.byte	0x9
 1135 03cc 62       		.byte	0x62
 1136 03cd F9020000 		.4byte	0x2f9
 1137 03d1 02       		.byte	0x2
 1138 03d2 23       		.byte	0x23
 1139 03d3 0C       		.uleb128 0xc
 1140 03d4 06       		.uleb128 0x6
 1141 03d5 CF000000 		.4byte	.LASF54
 1142 03d9 09       		.byte	0x9
 1143 03da 65       		.byte	0x65
 1144 03db 21020000 		.4byte	0x221
 1145 03df 02       		.byte	0x2
 1146 03e0 23       		.byte	0x23
 1147 03e1 10       		.uleb128 0x10
 1148 03e2 06       		.uleb128 0x6
 1149 03e3 FB010000 		.4byte	.LASF55
 1150 03e7 09       		.byte	0x9
 1151 03e8 66       		.byte	0x66
 1152 03e9 21020000 		.4byte	0x221
 1153 03ed 02       		.byte	0x2
 1154 03ee 23       		.byte	0x23
 1155 03ef 14       		.uleb128 0x14
 1156 03f0 06       		.uleb128 0x6
 1157 03f1 68030000 		.4byte	.LASF56
 1158 03f5 09       		.byte	0x9
 1159 03f6 6A       		.byte	0x6a
 1160 03f7 DD000000 		.4byte	0xdd
 1161 03fb 02       		.byte	0x2
 1162 03fc 23       		.byte	0x23
 1163 03fd 18       		.uleb128 0x18
 1164 03fe 06       		.uleb128 0x6
 1165 03ff F1010000 		.4byte	.LASF57
 1166 0403 09       		.byte	0x9
 1167 0404 6C       		.byte	0x6c
 1168 0405 21020000 		.4byte	0x221
 1169 0409 02       		.byte	0x2
 1170 040a 23       		.byte	0x23
 1171 040b 1C       		.uleb128 0x1c
 1172 040c 00       		.byte	0
 1173 040d 04       		.uleb128 0x4
 1174 040e 25030000 		.4byte	.LASF58
ARM GAS  C:\Users\z80\AppData\Local\Temp\ccpkiOUa.s 			page 22


 1175 0412 09       		.byte	0x9
 1176 0413 6E       		.byte	0x6e
 1177 0414 A2030000 		.4byte	0x3a2
 1178 0418 05       		.uleb128 0x5
 1179 0419 1B030000 		.4byte	.LASF59
 1180 041d 0C       		.byte	0xc
 1181 041e 0A       		.byte	0xa
 1182 041f 2C       		.byte	0x2c
 1183 0420 41040000 		.4byte	0x441
 1184 0424 06       		.uleb128 0x6
 1185 0425 B6000000 		.4byte	.LASF60
 1186 0429 0A       		.byte	0xa
 1187 042a 2D       		.byte	0x2d
 1188 042b 27020000 		.4byte	0x227
 1189 042f 02       		.byte	0x2
 1190 0430 23       		.byte	0x23
 1191 0431 00       		.uleb128 0
 1192 0432 06       		.uleb128 0x6
 1193 0433 39010000 		.4byte	.LASF61
 1194 0437 0A       		.byte	0xa
 1195 0438 2F       		.byte	0x2f
 1196 0439 DD000000 		.4byte	0xdd
 1197 043d 02       		.byte	0x2
 1198 043e 23       		.byte	0x23
 1199 043f 08       		.uleb128 0x8
 1200 0440 00       		.byte	0
 1201 0441 04       		.uleb128 0x4
 1202 0442 1B030000 		.4byte	.LASF59
 1203 0446 0A       		.byte	0xa
 1204 0447 30       		.byte	0x30
 1205 0448 18040000 		.4byte	0x418
 1206 044c 05       		.uleb128 0x5
 1207 044d AD010000 		.4byte	.LASF62
 1208 0451 10       		.byte	0x10
 1209 0452 0B       		.byte	0xb
 1210 0453 2C       		.byte	0x2c
 1211 0454 83040000 		.4byte	0x483
 1212 0458 06       		.uleb128 0x6
 1213 0459 67000000 		.4byte	.LASF63
 1214 045d 0B       		.byte	0xb
 1215 045e 2D       		.byte	0x2d
 1216 045f 27020000 		.4byte	0x227
 1217 0463 02       		.byte	0x2
 1218 0464 23       		.byte	0x23
 1219 0465 00       		.uleb128 0
 1220 0466 06       		.uleb128 0x6
 1221 0467 72030000 		.4byte	.LASF64
 1222 046b 0B       		.byte	0xb
 1223 046c 2F       		.byte	0x2f
 1224 046d 21020000 		.4byte	0x221
 1225 0471 02       		.byte	0x2
 1226 0472 23       		.byte	0x23
 1227 0473 08       		.uleb128 0x8
 1228 0474 06       		.uleb128 0x6
 1229 0475 D1020000 		.4byte	.LASF65
 1230 0479 0B       		.byte	0xb
 1231 047a 31       		.byte	0x31
ARM GAS  C:\Users\z80\AppData\Local\Temp\ccpkiOUa.s 			page 23


 1232 047b 83040000 		.4byte	0x483
 1233 047f 02       		.byte	0x2
 1234 0480 23       		.byte	0x23
 1235 0481 0C       		.uleb128 0xc
 1236 0482 00       		.byte	0
 1237 0483 09       		.uleb128 0x9
 1238 0484 04       		.byte	0x4
 1239 0485 4C040000 		.4byte	0x44c
 1240 0489 04       		.uleb128 0x4
 1241 048a AD010000 		.4byte	.LASF62
 1242 048e 0B       		.byte	0xb
 1243 048f 33       		.byte	0x33
 1244 0490 4C040000 		.4byte	0x44c
 1245 0494 10       		.uleb128 0x10
 1246 0495 04       		.byte	0x4
 1247 0496 06       		.byte	0x6
 1248 0497 90       		.byte	0x90
 1249 0498 C9040000 		.4byte	0x4c9
 1250 049c 11       		.uleb128 0x11
 1251 049d 06000000 		.4byte	.LASF66
 1252 04a1 06       		.byte	0x6
 1253 04a2 97       		.byte	0x97
 1254 04a3 BC000000 		.4byte	0xbc
 1255 04a7 11       		.uleb128 0x11
 1256 04a8 2D000000 		.4byte	.LASF67
 1257 04ac 06       		.byte	0x6
 1258 04ad 9E       		.byte	0x9e
 1259 04ae BC000000 		.4byte	0xbc
 1260 04b2 11       		.uleb128 0x11
 1261 04b3 3D030000 		.4byte	.LASF68
 1262 04b7 06       		.byte	0x6
 1263 04b8 A5       		.byte	0xa5
 1264 04b9 5F020000 		.4byte	0x25f
 1265 04bd 11       		.uleb128 0x11
 1266 04be 54020000 		.4byte	.LASF69
 1267 04c2 06       		.byte	0x6
 1268 04c3 AC       		.byte	0xac
 1269 04c4 C7000000 		.4byte	0xc7
 1270 04c8 00       		.byte	0
 1271 04c9 09       		.uleb128 0x9
 1272 04ca 04       		.byte	0x4
 1273 04cb CF040000 		.4byte	0x4cf
 1274 04cf 12       		.uleb128 0x12
 1275 04d0 D4040000 		.4byte	0x4d4
 1276 04d4 03       		.uleb128 0x3
 1277 04d5 01       		.byte	0x1
 1278 04d6 08       		.byte	0x8
 1279 04d7 B4020000 		.4byte	.LASF70
 1280 04db 09       		.uleb128 0x9
 1281 04dc 04       		.byte	0x4
 1282 04dd 61020000 		.4byte	0x261
 1283 04e1 09       		.uleb128 0x9
 1284 04e2 04       		.byte	0x4
 1285 04e3 89040000 		.4byte	0x489
 1286 04e7 13       		.uleb128 0x13
 1287 04e8 E9010000 		.4byte	.LASF71
 1288 04ec 02       		.byte	0x2
ARM GAS  C:\Users\z80\AppData\Local\Temp\ccpkiOUa.s 			page 24


 1289 04ed 49       		.byte	0x49
 1290 04ee 01       		.byte	0x1
 1291 04ef 21020000 		.4byte	0x221
 1292 04f3 03       		.byte	0x3
 1293 04f4 03050000 		.4byte	0x503
 1294 04f8 14       		.uleb128 0x14
 1295 04f9 747000   		.ascii	"tp\000"
 1296 04fc 02       		.byte	0x2
 1297 04fd 49       		.byte	0x49
 1298 04fe 21020000 		.4byte	0x221
 1299 0502 00       		.byte	0
 1300 0503 13       		.uleb128 0x13
 1301 0504 B9020000 		.4byte	.LASF72
 1302 0508 02       		.byte	0x2
 1303 0509 3B       		.byte	0x3b
 1304 050a 01       		.byte	0x1
 1305 050b 21020000 		.4byte	0x221
 1306 050f 03       		.byte	0x3
 1307 0510 2A050000 		.4byte	0x52a
 1308 0514 14       		.uleb128 0x14
 1309 0515 74717000 		.ascii	"tqp\000"
 1310 0519 02       		.byte	0x2
 1311 051a 3B       		.byte	0x3b
 1312 051b 2A050000 		.4byte	0x52a
 1313 051f 15       		.uleb128 0x15
 1314 0520 747000   		.ascii	"tp\000"
 1315 0523 02       		.byte	0x2
 1316 0524 3C       		.byte	0x3c
 1317 0525 21020000 		.4byte	0x221
 1318 0529 00       		.byte	0
 1319 052a 09       		.uleb128 0x9
 1320 052b 04       		.byte	0x4
 1321 052c 27020000 		.4byte	0x227
 1322 0530 16       		.uleb128 0x16
 1323 0531 01       		.byte	0x1
 1324 0532 3D000000 		.4byte	.LASF80
 1325 0536 01       		.byte	0x1
 1326 0537 37       		.byte	0x37
 1327 0538 01       		.byte	0x1
 1328 0539 00000000 		.4byte	.LFB7
 1329 053d 1A000000 		.4byte	.LFE7
 1330 0541 02       		.byte	0x2
 1331 0542 7D       		.byte	0x7d
 1332 0543 00       		.sleb128 0
 1333 0544 17       		.uleb128 0x17
 1334 0545 01       		.byte	0x1
 1335 0546 C5020000 		.4byte	.LASF74
 1336 054a 01       		.byte	0x1
 1337 054b 52       		.byte	0x52
 1338 054c 01       		.byte	0x1
 1339 054d 21020000 		.4byte	0x221
 1340 0551 00000000 		.4byte	.LFB8
 1341 0555 50000000 		.4byte	.LFE8
 1342 0559 00000000 		.4byte	.LLST0
 1343 055d 7E050000 		.4byte	0x57e
 1344 0561 18       		.uleb128 0x18
 1345 0562 747000   		.ascii	"tp\000"
ARM GAS  C:\Users\z80\AppData\Local\Temp\ccpkiOUa.s 			page 25


 1346 0565 01       		.byte	0x1
 1347 0566 52       		.byte	0x52
 1348 0567 21020000 		.4byte	0x221
 1349 056b 20000000 		.4byte	.LLST1
 1350 056f 19       		.uleb128 0x19
 1351 0570 637000   		.ascii	"cp\000"
 1352 0573 01       		.byte	0x1
 1353 0574 53       		.byte	0x53
 1354 0575 21020000 		.4byte	0x221
 1355 0579 3E000000 		.4byte	.LLST2
 1356 057d 00       		.byte	0
 1357 057e 1A       		.uleb128 0x1a
 1358 057f 18010000 		.4byte	.LASF85
 1359 0583 01       		.byte	0x1
 1360 0584 85       		.byte	0x85
 1361 0585 01       		.byte	0x1
 1362 0586 00000000 		.4byte	.LFB10
 1363 058a 38000000 		.4byte	.LFE10
 1364 058e 02       		.byte	0x2
 1365 058f 7D       		.byte	0x7d
 1366 0590 00       		.sleb128 0
 1367 0591 CA050000 		.4byte	0x5ca
 1368 0595 18       		.uleb128 0x18
 1369 0596 7000     		.ascii	"p\000"
 1370 0598 01       		.byte	0x1
 1371 0599 85       		.byte	0x85
 1372 059a 5F020000 		.4byte	0x25f
 1373 059e 61000000 		.4byte	.LLST3
 1374 05a2 19       		.uleb128 0x19
 1375 05a3 747000   		.ascii	"tp\000"
 1376 05a6 01       		.byte	0x1
 1377 05a7 86       		.byte	0x86
 1378 05a8 21020000 		.4byte	0x221
 1379 05ac 61000000 		.4byte	.LLST3
 1380 05b0 1B       		.uleb128 0x1b
 1381 05b1 E7040000 		.4byte	0x4e7
 1382 05b5 22000000 		.4byte	.LBB10
 1383 05b9 2C000000 		.4byte	.LBE10
 1384 05bd 01       		.byte	0x1
 1385 05be 9B       		.byte	0x9b
 1386 05bf 1C       		.uleb128 0x1c
 1387 05c0 F8040000 		.4byte	0x4f8
 1388 05c4 7F000000 		.4byte	.LLST5
 1389 05c8 00       		.byte	0
 1390 05c9 00       		.byte	0
 1391 05ca 1D       		.uleb128 0x1d
 1392 05cb 01       		.byte	0x1
 1393 05cc 71020000 		.4byte	.LASF77
 1394 05d0 01       		.byte	0x1
 1395 05d1 72       		.byte	0x72
 1396 05d2 01       		.byte	0x1
 1397 05d3 00000000 		.4byte	.LFB9
 1398 05d7 52000000 		.4byte	.LFE9
 1399 05db 92000000 		.4byte	.LLST6
 1400 05df 44060000 		.4byte	0x644
 1401 05e3 1E       		.uleb128 0x1e
 1402 05e4 28020000 		.4byte	.LASF73
ARM GAS  C:\Users\z80\AppData\Local\Temp\ccpkiOUa.s 			page 26


 1403 05e8 01       		.byte	0x1
 1404 05e9 72       		.byte	0x72
 1405 05ea A6000000 		.4byte	0xa6
 1406 05ee B2000000 		.4byte	.LLST7
 1407 05f2 19       		.uleb128 0x19
 1408 05f3 6F747000 		.ascii	"otp\000"
 1409 05f7 01       		.byte	0x1
 1410 05f8 73       		.byte	0x73
 1411 05f9 21020000 		.4byte	0x221
 1412 05fd C5000000 		.4byte	.LLST8
 1413 0601 1F       		.uleb128 0x1f
 1414 0602 03050000 		.4byte	0x503
 1415 0606 10000000 		.4byte	.LBB12
 1416 060a 00000000 		.4byte	.Ldebug_ranges0+0
 1417 060e 01       		.byte	0x1
 1418 060f 7B       		.byte	0x7b
 1419 0610 30060000 		.4byte	0x630
 1420 0614 20       		.uleb128 0x20
 1421 0615 14050000 		.4byte	0x514
 1422 0619 06       		.byte	0x6
 1423 061a 03       		.byte	0x3
 1424 061b 00000000 		.4byte	rlist
 1425 061f 9F       		.byte	0x9f
 1426 0620 21       		.uleb128 0x21
 1427 0621 28000000 		.4byte	.Ldebug_ranges0+0x28
 1428 0625 22       		.uleb128 0x22
 1429 0626 1F050000 		.4byte	0x51f
 1430 062a E7000000 		.4byte	.LLST9
 1431 062e 00       		.byte	0
 1432 062f 00       		.byte	0
 1433 0630 21       		.uleb128 0x21
 1434 0631 50000000 		.4byte	.Ldebug_ranges0+0x50
 1435 0635 23       		.uleb128 0x23
 1436 0636 72313300 		.ascii	"r13\000"
 1437 063a 01       		.byte	0x1
 1438 063b 7D       		.byte	0x7d
 1439 063c 16030000 		.4byte	0x316
 1440 0640 01       		.byte	0x1
 1441 0641 5D       		.byte	0x5d
 1442 0642 00       		.byte	0
 1443 0643 00       		.byte	0
 1444 0644 17       		.uleb128 0x17
 1445 0645 01       		.byte	0x1
 1446 0646 53030000 		.4byte	.LASF75
 1447 064a 01       		.byte	0x1
 1448 064b B7       		.byte	0xb7
 1449 064c 01       		.byte	0x1
 1450 064d BC000000 		.4byte	0xbc
 1451 0651 00000000 		.4byte	.LFB11
 1452 0655 52000000 		.4byte	.LFE11
 1453 0659 FE000000 		.4byte	.LLST10
 1454 065d 97060000 		.4byte	0x697
 1455 0661 1E       		.uleb128 0x1e
 1456 0662 28020000 		.4byte	.LASF73
 1457 0666 01       		.byte	0x1
 1458 0667 B7       		.byte	0xb7
 1459 0668 A6000000 		.4byte	0xa6
ARM GAS  C:\Users\z80\AppData\Local\Temp\ccpkiOUa.s 			page 27


 1460 066c 2A010000 		.4byte	.LLST11
 1461 0670 1E       		.uleb128 0x1e
 1462 0671 0F030000 		.4byte	.LASF76
 1463 0675 01       		.byte	0x1
 1464 0676 B7       		.byte	0xb7
 1465 0677 D2000000 		.4byte	0xd2
 1466 067b 3D010000 		.4byte	.LLST12
 1467 067f 24       		.uleb128 0x24
 1468 0680 10000000 		.4byte	.LBB22
 1469 0684 3A000000 		.4byte	.LBE22
 1470 0688 23       		.uleb128 0x23
 1471 0689 767400   		.ascii	"vt\000"
 1472 068c 01       		.byte	0x1
 1473 068d BC       		.byte	0xbc
 1474 068e 39030000 		.4byte	0x339
 1475 0692 02       		.byte	0x2
 1476 0693 91       		.byte	0x91
 1477 0694 5C       		.sleb128 -36
 1478 0695 00       		.byte	0
 1479 0696 00       		.byte	0
 1480 0697 1D       		.uleb128 0x1d
 1481 0698 01       		.byte	0x1
 1482 0699 7A010000 		.4byte	.LASF78
 1483 069d 01       		.byte	0x1
 1484 069e DB       		.byte	0xdb
 1485 069f 01       		.byte	0x1
 1486 06a0 00000000 		.4byte	.LFB12
 1487 06a4 62000000 		.4byte	.LFE12
 1488 06a8 5B010000 		.4byte	.LLST13
 1489 06ac F7060000 		.4byte	0x6f7
 1490 06b0 18       		.uleb128 0x18
 1491 06b1 6E747000 		.ascii	"ntp\000"
 1492 06b5 01       		.byte	0x1
 1493 06b6 DB       		.byte	0xdb
 1494 06b7 21020000 		.4byte	0x221
 1495 06bb 7B010000 		.4byte	.LLST14
 1496 06bf 18       		.uleb128 0x18
 1497 06c0 6D736700 		.ascii	"msg\000"
 1498 06c4 01       		.byte	0x1
 1499 06c5 DB       		.byte	0xdb
 1500 06c6 BC000000 		.4byte	0xbc
 1501 06ca 99010000 		.4byte	.LLST15
 1502 06ce 21       		.uleb128 0x21
 1503 06cf 68000000 		.4byte	.Ldebug_ranges0+0x68
 1504 06d3 19       		.uleb128 0x19
 1505 06d4 6F747000 		.ascii	"otp\000"
 1506 06d8 01       		.byte	0x1
 1507 06d9 E7       		.byte	0xe7
 1508 06da 21020000 		.4byte	0x221
 1509 06de C2010000 		.4byte	.LLST16
 1510 06e2 21       		.uleb128 0x21
 1511 06e3 88000000 		.4byte	.Ldebug_ranges0+0x88
 1512 06e7 23       		.uleb128 0x23
 1513 06e8 72313300 		.ascii	"r13\000"
 1514 06ec 01       		.byte	0x1
 1515 06ed ED       		.byte	0xed
 1516 06ee 16030000 		.4byte	0x316
ARM GAS  C:\Users\z80\AppData\Local\Temp\ccpkiOUa.s 			page 28


 1517 06f2 01       		.byte	0x1
 1518 06f3 5D       		.byte	0x5d
 1519 06f4 00       		.byte	0
 1520 06f5 00       		.byte	0
 1521 06f6 00       		.byte	0
 1522 06f7 25       		.uleb128 0x25
 1523 06f8 01       		.byte	0x1
 1524 06f9 E8000000 		.4byte	.LASF79
 1525 06fd 01       		.byte	0x1
 1526 06fe 2A01     		.2byte	0x12a
 1527 0700 01       		.byte	0x1
 1528 0701 00000000 		.4byte	.LFB14
 1529 0705 4E000000 		.4byte	.LFE14
 1530 0709 EB010000 		.4byte	.LLST17
 1531 070d 66070000 		.4byte	0x766
 1532 0711 26       		.uleb128 0x26
 1533 0712 6F747000 		.ascii	"otp\000"
 1534 0716 01       		.byte	0x1
 1535 0717 2B01     		.2byte	0x12b
 1536 0719 21020000 		.4byte	0x221
 1537 071d 0B020000 		.4byte	.LLST18
 1538 0721 27       		.uleb128 0x27
 1539 0722 03050000 		.4byte	0x503
 1540 0726 0A000000 		.4byte	.LBB29
 1541 072a A8000000 		.4byte	.Ldebug_ranges0+0xa8
 1542 072e 01       		.byte	0x1
 1543 072f 3201     		.2byte	0x132
 1544 0731 51070000 		.4byte	0x751
 1545 0735 20       		.uleb128 0x20
 1546 0736 14050000 		.4byte	0x514
 1547 073a 06       		.byte	0x6
 1548 073b 03       		.byte	0x3
 1549 073c 00000000 		.4byte	rlist
 1550 0740 9F       		.byte	0x9f
 1551 0741 21       		.uleb128 0x21
 1552 0742 D0000000 		.4byte	.Ldebug_ranges0+0xd0
 1553 0746 22       		.uleb128 0x22
 1554 0747 1F050000 		.4byte	0x51f
 1555 074b 2D020000 		.4byte	.LLST19
 1556 074f 00       		.byte	0
 1557 0750 00       		.byte	0
 1558 0751 21       		.uleb128 0x21
 1559 0752 F8000000 		.4byte	.Ldebug_ranges0+0xf8
 1560 0756 28       		.uleb128 0x28
 1561 0757 72313300 		.ascii	"r13\000"
 1562 075b 01       		.byte	0x1
 1563 075c 3501     		.2byte	0x135
 1564 075e 16030000 		.4byte	0x316
 1565 0762 01       		.byte	0x1
 1566 0763 5D       		.byte	0x5d
 1567 0764 00       		.byte	0
 1568 0765 00       		.byte	0
 1569 0766 29       		.uleb128 0x29
 1570 0767 01       		.byte	0x1
 1571 0768 BE000000 		.4byte	.LASF81
 1572 076c 01       		.byte	0x1
 1573 076d FA       		.byte	0xfa
ARM GAS  C:\Users\z80\AppData\Local\Temp\ccpkiOUa.s 			page 29


 1574 076e 01       		.byte	0x1
 1575 076f 00000000 		.4byte	.LFB13
 1576 0773 28000000 		.4byte	.LFE13
 1577 0777 44020000 		.4byte	.LLST20
 1578 077b 2A       		.uleb128 0x2a
 1579 077c 2F030000 		.4byte	.LASF86
 1580 0780 01       		.byte	0x1
 1581 0781 2F       		.byte	0x2f
 1582 0782 0D040000 		.4byte	0x40d
 1583 0786 01       		.byte	0x1
 1584 0787 05       		.byte	0x5
 1585 0788 03       		.byte	0x3
 1586 0789 00000000 		.4byte	rlist
 1587 078d 00       		.byte	0
 1588              		.section	.debug_abbrev,"",%progbits
 1589              	.Ldebug_abbrev0:
 1590 0000 01       		.uleb128 0x1
 1591 0001 11       		.uleb128 0x11
 1592 0002 01       		.byte	0x1
 1593 0003 25       		.uleb128 0x25
 1594 0004 0E       		.uleb128 0xe
 1595 0005 13       		.uleb128 0x13
 1596 0006 0B       		.uleb128 0xb
 1597 0007 03       		.uleb128 0x3
 1598 0008 0E       		.uleb128 0xe
 1599 0009 1B       		.uleb128 0x1b
 1600 000a 0E       		.uleb128 0xe
 1601 000b 11       		.uleb128 0x11
 1602 000c 01       		.uleb128 0x1
 1603 000d 52       		.uleb128 0x52
 1604 000e 01       		.uleb128 0x1
 1605 000f 55       		.uleb128 0x55
 1606 0010 06       		.uleb128 0x6
 1607 0011 10       		.uleb128 0x10
 1608 0012 06       		.uleb128 0x6
 1609 0013 00       		.byte	0
 1610 0014 00       		.byte	0
 1611 0015 02       		.uleb128 0x2
 1612 0016 24       		.uleb128 0x24
 1613 0017 00       		.byte	0
 1614 0018 0B       		.uleb128 0xb
 1615 0019 0B       		.uleb128 0xb
 1616 001a 3E       		.uleb128 0x3e
 1617 001b 0B       		.uleb128 0xb
 1618 001c 03       		.uleb128 0x3
 1619 001d 08       		.uleb128 0x8
 1620 001e 00       		.byte	0
 1621 001f 00       		.byte	0
 1622 0020 03       		.uleb128 0x3
 1623 0021 24       		.uleb128 0x24
 1624 0022 00       		.byte	0
 1625 0023 0B       		.uleb128 0xb
 1626 0024 0B       		.uleb128 0xb
 1627 0025 3E       		.uleb128 0x3e
 1628 0026 0B       		.uleb128 0xb
 1629 0027 03       		.uleb128 0x3
 1630 0028 0E       		.uleb128 0xe
ARM GAS  C:\Users\z80\AppData\Local\Temp\ccpkiOUa.s 			page 30


 1631 0029 00       		.byte	0
 1632 002a 00       		.byte	0
 1633 002b 04       		.uleb128 0x4
 1634 002c 16       		.uleb128 0x16
 1635 002d 00       		.byte	0
 1636 002e 03       		.uleb128 0x3
 1637 002f 0E       		.uleb128 0xe
 1638 0030 3A       		.uleb128 0x3a
 1639 0031 0B       		.uleb128 0xb
 1640 0032 3B       		.uleb128 0x3b
 1641 0033 0B       		.uleb128 0xb
 1642 0034 49       		.uleb128 0x49
 1643 0035 13       		.uleb128 0x13
 1644 0036 00       		.byte	0
 1645 0037 00       		.byte	0
 1646 0038 05       		.uleb128 0x5
 1647 0039 13       		.uleb128 0x13
 1648 003a 01       		.byte	0x1
 1649 003b 03       		.uleb128 0x3
 1650 003c 0E       		.uleb128 0xe
 1651 003d 0B       		.uleb128 0xb
 1652 003e 0B       		.uleb128 0xb
 1653 003f 3A       		.uleb128 0x3a
 1654 0040 0B       		.uleb128 0xb
 1655 0041 3B       		.uleb128 0x3b
 1656 0042 0B       		.uleb128 0xb
 1657 0043 01       		.uleb128 0x1
 1658 0044 13       		.uleb128 0x13
 1659 0045 00       		.byte	0
 1660 0046 00       		.byte	0
 1661 0047 06       		.uleb128 0x6
 1662 0048 0D       		.uleb128 0xd
 1663 0049 00       		.byte	0
 1664 004a 03       		.uleb128 0x3
 1665 004b 0E       		.uleb128 0xe
 1666 004c 3A       		.uleb128 0x3a
 1667 004d 0B       		.uleb128 0xb
 1668 004e 3B       		.uleb128 0x3b
 1669 004f 0B       		.uleb128 0xb
 1670 0050 49       		.uleb128 0x49
 1671 0051 13       		.uleb128 0x13
 1672 0052 38       		.uleb128 0x38
 1673 0053 0A       		.uleb128 0xa
 1674 0054 00       		.byte	0
 1675 0055 00       		.byte	0
 1676 0056 07       		.uleb128 0x7
 1677 0057 0D       		.uleb128 0xd
 1678 0058 00       		.byte	0
 1679 0059 03       		.uleb128 0x3
 1680 005a 08       		.uleb128 0x8
 1681 005b 3A       		.uleb128 0x3a
 1682 005c 0B       		.uleb128 0xb
 1683 005d 3B       		.uleb128 0x3b
 1684 005e 0B       		.uleb128 0xb
 1685 005f 49       		.uleb128 0x49
 1686 0060 13       		.uleb128 0x13
 1687 0061 38       		.uleb128 0x38
ARM GAS  C:\Users\z80\AppData\Local\Temp\ccpkiOUa.s 			page 31


 1688 0062 0A       		.uleb128 0xa
 1689 0063 00       		.byte	0
 1690 0064 00       		.byte	0
 1691 0065 08       		.uleb128 0x8
 1692 0066 13       		.uleb128 0x13
 1693 0067 01       		.byte	0x1
 1694 0068 0B       		.uleb128 0xb
 1695 0069 0B       		.uleb128 0xb
 1696 006a 3A       		.uleb128 0x3a
 1697 006b 0B       		.uleb128 0xb
 1698 006c 3B       		.uleb128 0x3b
 1699 006d 0B       		.uleb128 0xb
 1700 006e 01       		.uleb128 0x1
 1701 006f 13       		.uleb128 0x13
 1702 0070 00       		.byte	0
 1703 0071 00       		.byte	0
 1704 0072 09       		.uleb128 0x9
 1705 0073 0F       		.uleb128 0xf
 1706 0074 00       		.byte	0
 1707 0075 0B       		.uleb128 0xb
 1708 0076 0B       		.uleb128 0xb
 1709 0077 49       		.uleb128 0x49
 1710 0078 13       		.uleb128 0x13
 1711 0079 00       		.byte	0
 1712 007a 00       		.byte	0
 1713 007b 0A       		.uleb128 0xa
 1714 007c 0F       		.uleb128 0xf
 1715 007d 00       		.byte	0
 1716 007e 0B       		.uleb128 0xb
 1717 007f 0B       		.uleb128 0xb
 1718 0080 00       		.byte	0
 1719 0081 00       		.byte	0
 1720 0082 0B       		.uleb128 0xb
 1721 0083 0D       		.uleb128 0xd
 1722 0084 00       		.byte	0
 1723 0085 03       		.uleb128 0x3
 1724 0086 08       		.uleb128 0x8
 1725 0087 3A       		.uleb128 0x3a
 1726 0088 0B       		.uleb128 0xb
 1727 0089 3B       		.uleb128 0x3b
 1728 008a 05       		.uleb128 0x5
 1729 008b 49       		.uleb128 0x49
 1730 008c 13       		.uleb128 0x13
 1731 008d 38       		.uleb128 0x38
 1732 008e 0A       		.uleb128 0xa
 1733 008f 00       		.byte	0
 1734 0090 00       		.byte	0
 1735 0091 0C       		.uleb128 0xc
 1736 0092 13       		.uleb128 0x13
 1737 0093 01       		.byte	0x1
 1738 0094 03       		.uleb128 0x3
 1739 0095 0E       		.uleb128 0xe
 1740 0096 0B       		.uleb128 0xb
 1741 0097 0B       		.uleb128 0xb
 1742 0098 3A       		.uleb128 0x3a
 1743 0099 0B       		.uleb128 0xb
 1744 009a 3B       		.uleb128 0x3b
ARM GAS  C:\Users\z80\AppData\Local\Temp\ccpkiOUa.s 			page 32


 1745 009b 05       		.uleb128 0x5
 1746 009c 01       		.uleb128 0x1
 1747 009d 13       		.uleb128 0x13
 1748 009e 00       		.byte	0
 1749 009f 00       		.byte	0
 1750 00a0 0D       		.uleb128 0xd
 1751 00a1 15       		.uleb128 0x15
 1752 00a2 01       		.byte	0x1
 1753 00a3 27       		.uleb128 0x27
 1754 00a4 0C       		.uleb128 0xc
 1755 00a5 01       		.uleb128 0x1
 1756 00a6 13       		.uleb128 0x13
 1757 00a7 00       		.byte	0
 1758 00a8 00       		.byte	0
 1759 00a9 0E       		.uleb128 0xe
 1760 00aa 05       		.uleb128 0x5
 1761 00ab 00       		.byte	0
 1762 00ac 49       		.uleb128 0x49
 1763 00ad 13       		.uleb128 0x13
 1764 00ae 00       		.byte	0
 1765 00af 00       		.byte	0
 1766 00b0 0F       		.uleb128 0xf
 1767 00b1 35       		.uleb128 0x35
 1768 00b2 00       		.byte	0
 1769 00b3 49       		.uleb128 0x49
 1770 00b4 13       		.uleb128 0x13
 1771 00b5 00       		.byte	0
 1772 00b6 00       		.byte	0
 1773 00b7 10       		.uleb128 0x10
 1774 00b8 17       		.uleb128 0x17
 1775 00b9 01       		.byte	0x1
 1776 00ba 0B       		.uleb128 0xb
 1777 00bb 0B       		.uleb128 0xb
 1778 00bc 3A       		.uleb128 0x3a
 1779 00bd 0B       		.uleb128 0xb
 1780 00be 3B       		.uleb128 0x3b
 1781 00bf 0B       		.uleb128 0xb
 1782 00c0 01       		.uleb128 0x1
 1783 00c1 13       		.uleb128 0x13
 1784 00c2 00       		.byte	0
 1785 00c3 00       		.byte	0
 1786 00c4 11       		.uleb128 0x11
 1787 00c5 0D       		.uleb128 0xd
 1788 00c6 00       		.byte	0
 1789 00c7 03       		.uleb128 0x3
 1790 00c8 0E       		.uleb128 0xe
 1791 00c9 3A       		.uleb128 0x3a
 1792 00ca 0B       		.uleb128 0xb
 1793 00cb 3B       		.uleb128 0x3b
 1794 00cc 0B       		.uleb128 0xb
 1795 00cd 49       		.uleb128 0x49
 1796 00ce 13       		.uleb128 0x13
 1797 00cf 00       		.byte	0
 1798 00d0 00       		.byte	0
 1799 00d1 12       		.uleb128 0x12
 1800 00d2 26       		.uleb128 0x26
 1801 00d3 00       		.byte	0
ARM GAS  C:\Users\z80\AppData\Local\Temp\ccpkiOUa.s 			page 33


 1802 00d4 49       		.uleb128 0x49
 1803 00d5 13       		.uleb128 0x13
 1804 00d6 00       		.byte	0
 1805 00d7 00       		.byte	0
 1806 00d8 13       		.uleb128 0x13
 1807 00d9 2E       		.uleb128 0x2e
 1808 00da 01       		.byte	0x1
 1809 00db 03       		.uleb128 0x3
 1810 00dc 0E       		.uleb128 0xe
 1811 00dd 3A       		.uleb128 0x3a
 1812 00de 0B       		.uleb128 0xb
 1813 00df 3B       		.uleb128 0x3b
 1814 00e0 0B       		.uleb128 0xb
 1815 00e1 27       		.uleb128 0x27
 1816 00e2 0C       		.uleb128 0xc
 1817 00e3 49       		.uleb128 0x49
 1818 00e4 13       		.uleb128 0x13
 1819 00e5 20       		.uleb128 0x20
 1820 00e6 0B       		.uleb128 0xb
 1821 00e7 01       		.uleb128 0x1
 1822 00e8 13       		.uleb128 0x13
 1823 00e9 00       		.byte	0
 1824 00ea 00       		.byte	0
 1825 00eb 14       		.uleb128 0x14
 1826 00ec 05       		.uleb128 0x5
 1827 00ed 00       		.byte	0
 1828 00ee 03       		.uleb128 0x3
 1829 00ef 08       		.uleb128 0x8
 1830 00f0 3A       		.uleb128 0x3a
 1831 00f1 0B       		.uleb128 0xb
 1832 00f2 3B       		.uleb128 0x3b
 1833 00f3 0B       		.uleb128 0xb
 1834 00f4 49       		.uleb128 0x49
 1835 00f5 13       		.uleb128 0x13
 1836 00f6 00       		.byte	0
 1837 00f7 00       		.byte	0
 1838 00f8 15       		.uleb128 0x15
 1839 00f9 34       		.uleb128 0x34
 1840 00fa 00       		.byte	0
 1841 00fb 03       		.uleb128 0x3
 1842 00fc 08       		.uleb128 0x8
 1843 00fd 3A       		.uleb128 0x3a
 1844 00fe 0B       		.uleb128 0xb
 1845 00ff 3B       		.uleb128 0x3b
 1846 0100 0B       		.uleb128 0xb
 1847 0101 49       		.uleb128 0x49
 1848 0102 13       		.uleb128 0x13
 1849 0103 00       		.byte	0
 1850 0104 00       		.byte	0
 1851 0105 16       		.uleb128 0x16
 1852 0106 2E       		.uleb128 0x2e
 1853 0107 00       		.byte	0
 1854 0108 3F       		.uleb128 0x3f
 1855 0109 0C       		.uleb128 0xc
 1856 010a 03       		.uleb128 0x3
 1857 010b 0E       		.uleb128 0xe
 1858 010c 3A       		.uleb128 0x3a
ARM GAS  C:\Users\z80\AppData\Local\Temp\ccpkiOUa.s 			page 34


 1859 010d 0B       		.uleb128 0xb
 1860 010e 3B       		.uleb128 0x3b
 1861 010f 0B       		.uleb128 0xb
 1862 0110 27       		.uleb128 0x27
 1863 0111 0C       		.uleb128 0xc
 1864 0112 11       		.uleb128 0x11
 1865 0113 01       		.uleb128 0x1
 1866 0114 12       		.uleb128 0x12
 1867 0115 01       		.uleb128 0x1
 1868 0116 40       		.uleb128 0x40
 1869 0117 0A       		.uleb128 0xa
 1870 0118 00       		.byte	0
 1871 0119 00       		.byte	0
 1872 011a 17       		.uleb128 0x17
 1873 011b 2E       		.uleb128 0x2e
 1874 011c 01       		.byte	0x1
 1875 011d 3F       		.uleb128 0x3f
 1876 011e 0C       		.uleb128 0xc
 1877 011f 03       		.uleb128 0x3
 1878 0120 0E       		.uleb128 0xe
 1879 0121 3A       		.uleb128 0x3a
 1880 0122 0B       		.uleb128 0xb
 1881 0123 3B       		.uleb128 0x3b
 1882 0124 0B       		.uleb128 0xb
 1883 0125 27       		.uleb128 0x27
 1884 0126 0C       		.uleb128 0xc
 1885 0127 49       		.uleb128 0x49
 1886 0128 13       		.uleb128 0x13
 1887 0129 11       		.uleb128 0x11
 1888 012a 01       		.uleb128 0x1
 1889 012b 12       		.uleb128 0x12
 1890 012c 01       		.uleb128 0x1
 1891 012d 40       		.uleb128 0x40
 1892 012e 06       		.uleb128 0x6
 1893 012f 01       		.uleb128 0x1
 1894 0130 13       		.uleb128 0x13
 1895 0131 00       		.byte	0
 1896 0132 00       		.byte	0
 1897 0133 18       		.uleb128 0x18
 1898 0134 05       		.uleb128 0x5
 1899 0135 00       		.byte	0
 1900 0136 03       		.uleb128 0x3
 1901 0137 08       		.uleb128 0x8
 1902 0138 3A       		.uleb128 0x3a
 1903 0139 0B       		.uleb128 0xb
 1904 013a 3B       		.uleb128 0x3b
 1905 013b 0B       		.uleb128 0xb
 1906 013c 49       		.uleb128 0x49
 1907 013d 13       		.uleb128 0x13
 1908 013e 02       		.uleb128 0x2
 1909 013f 06       		.uleb128 0x6
 1910 0140 00       		.byte	0
 1911 0141 00       		.byte	0
 1912 0142 19       		.uleb128 0x19
 1913 0143 34       		.uleb128 0x34
 1914 0144 00       		.byte	0
 1915 0145 03       		.uleb128 0x3
ARM GAS  C:\Users\z80\AppData\Local\Temp\ccpkiOUa.s 			page 35


 1916 0146 08       		.uleb128 0x8
 1917 0147 3A       		.uleb128 0x3a
 1918 0148 0B       		.uleb128 0xb
 1919 0149 3B       		.uleb128 0x3b
 1920 014a 0B       		.uleb128 0xb
 1921 014b 49       		.uleb128 0x49
 1922 014c 13       		.uleb128 0x13
 1923 014d 02       		.uleb128 0x2
 1924 014e 06       		.uleb128 0x6
 1925 014f 00       		.byte	0
 1926 0150 00       		.byte	0
 1927 0151 1A       		.uleb128 0x1a
 1928 0152 2E       		.uleb128 0x2e
 1929 0153 01       		.byte	0x1
 1930 0154 03       		.uleb128 0x3
 1931 0155 0E       		.uleb128 0xe
 1932 0156 3A       		.uleb128 0x3a
 1933 0157 0B       		.uleb128 0xb
 1934 0158 3B       		.uleb128 0x3b
 1935 0159 0B       		.uleb128 0xb
 1936 015a 27       		.uleb128 0x27
 1937 015b 0C       		.uleb128 0xc
 1938 015c 11       		.uleb128 0x11
 1939 015d 01       		.uleb128 0x1
 1940 015e 12       		.uleb128 0x12
 1941 015f 01       		.uleb128 0x1
 1942 0160 40       		.uleb128 0x40
 1943 0161 0A       		.uleb128 0xa
 1944 0162 01       		.uleb128 0x1
 1945 0163 13       		.uleb128 0x13
 1946 0164 00       		.byte	0
 1947 0165 00       		.byte	0
 1948 0166 1B       		.uleb128 0x1b
 1949 0167 1D       		.uleb128 0x1d
 1950 0168 01       		.byte	0x1
 1951 0169 31       		.uleb128 0x31
 1952 016a 13       		.uleb128 0x13
 1953 016b 11       		.uleb128 0x11
 1954 016c 01       		.uleb128 0x1
 1955 016d 12       		.uleb128 0x12
 1956 016e 01       		.uleb128 0x1
 1957 016f 58       		.uleb128 0x58
 1958 0170 0B       		.uleb128 0xb
 1959 0171 59       		.uleb128 0x59
 1960 0172 0B       		.uleb128 0xb
 1961 0173 00       		.byte	0
 1962 0174 00       		.byte	0
 1963 0175 1C       		.uleb128 0x1c
 1964 0176 05       		.uleb128 0x5
 1965 0177 00       		.byte	0
 1966 0178 31       		.uleb128 0x31
 1967 0179 13       		.uleb128 0x13
 1968 017a 02       		.uleb128 0x2
 1969 017b 06       		.uleb128 0x6
 1970 017c 00       		.byte	0
 1971 017d 00       		.byte	0
 1972 017e 1D       		.uleb128 0x1d
ARM GAS  C:\Users\z80\AppData\Local\Temp\ccpkiOUa.s 			page 36


 1973 017f 2E       		.uleb128 0x2e
 1974 0180 01       		.byte	0x1
 1975 0181 3F       		.uleb128 0x3f
 1976 0182 0C       		.uleb128 0xc
 1977 0183 03       		.uleb128 0x3
 1978 0184 0E       		.uleb128 0xe
 1979 0185 3A       		.uleb128 0x3a
 1980 0186 0B       		.uleb128 0xb
 1981 0187 3B       		.uleb128 0x3b
 1982 0188 0B       		.uleb128 0xb
 1983 0189 27       		.uleb128 0x27
 1984 018a 0C       		.uleb128 0xc
 1985 018b 11       		.uleb128 0x11
 1986 018c 01       		.uleb128 0x1
 1987 018d 12       		.uleb128 0x12
 1988 018e 01       		.uleb128 0x1
 1989 018f 40       		.uleb128 0x40
 1990 0190 06       		.uleb128 0x6
 1991 0191 01       		.uleb128 0x1
 1992 0192 13       		.uleb128 0x13
 1993 0193 00       		.byte	0
 1994 0194 00       		.byte	0
 1995 0195 1E       		.uleb128 0x1e
 1996 0196 05       		.uleb128 0x5
 1997 0197 00       		.byte	0
 1998 0198 03       		.uleb128 0x3
 1999 0199 0E       		.uleb128 0xe
 2000 019a 3A       		.uleb128 0x3a
 2001 019b 0B       		.uleb128 0xb
 2002 019c 3B       		.uleb128 0x3b
 2003 019d 0B       		.uleb128 0xb
 2004 019e 49       		.uleb128 0x49
 2005 019f 13       		.uleb128 0x13
 2006 01a0 02       		.uleb128 0x2
 2007 01a1 06       		.uleb128 0x6
 2008 01a2 00       		.byte	0
 2009 01a3 00       		.byte	0
 2010 01a4 1F       		.uleb128 0x1f
 2011 01a5 1D       		.uleb128 0x1d
 2012 01a6 01       		.byte	0x1
 2013 01a7 31       		.uleb128 0x31
 2014 01a8 13       		.uleb128 0x13
 2015 01a9 52       		.uleb128 0x52
 2016 01aa 01       		.uleb128 0x1
 2017 01ab 55       		.uleb128 0x55
 2018 01ac 06       		.uleb128 0x6
 2019 01ad 58       		.uleb128 0x58
 2020 01ae 0B       		.uleb128 0xb
 2021 01af 59       		.uleb128 0x59
 2022 01b0 0B       		.uleb128 0xb
 2023 01b1 01       		.uleb128 0x1
 2024 01b2 13       		.uleb128 0x13
 2025 01b3 00       		.byte	0
 2026 01b4 00       		.byte	0
 2027 01b5 20       		.uleb128 0x20
 2028 01b6 05       		.uleb128 0x5
 2029 01b7 00       		.byte	0
ARM GAS  C:\Users\z80\AppData\Local\Temp\ccpkiOUa.s 			page 37


 2030 01b8 31       		.uleb128 0x31
 2031 01b9 13       		.uleb128 0x13
 2032 01ba 02       		.uleb128 0x2
 2033 01bb 0A       		.uleb128 0xa
 2034 01bc 00       		.byte	0
 2035 01bd 00       		.byte	0
 2036 01be 21       		.uleb128 0x21
 2037 01bf 0B       		.uleb128 0xb
 2038 01c0 01       		.byte	0x1
 2039 01c1 55       		.uleb128 0x55
 2040 01c2 06       		.uleb128 0x6
 2041 01c3 00       		.byte	0
 2042 01c4 00       		.byte	0
 2043 01c5 22       		.uleb128 0x22
 2044 01c6 34       		.uleb128 0x34
 2045 01c7 00       		.byte	0
 2046 01c8 31       		.uleb128 0x31
 2047 01c9 13       		.uleb128 0x13
 2048 01ca 02       		.uleb128 0x2
 2049 01cb 06       		.uleb128 0x6
 2050 01cc 00       		.byte	0
 2051 01cd 00       		.byte	0
 2052 01ce 23       		.uleb128 0x23
 2053 01cf 34       		.uleb128 0x34
 2054 01d0 00       		.byte	0
 2055 01d1 03       		.uleb128 0x3
 2056 01d2 08       		.uleb128 0x8
 2057 01d3 3A       		.uleb128 0x3a
 2058 01d4 0B       		.uleb128 0xb
 2059 01d5 3B       		.uleb128 0x3b
 2060 01d6 0B       		.uleb128 0xb
 2061 01d7 49       		.uleb128 0x49
 2062 01d8 13       		.uleb128 0x13
 2063 01d9 02       		.uleb128 0x2
 2064 01da 0A       		.uleb128 0xa
 2065 01db 00       		.byte	0
 2066 01dc 00       		.byte	0
 2067 01dd 24       		.uleb128 0x24
 2068 01de 0B       		.uleb128 0xb
 2069 01df 01       		.byte	0x1
 2070 01e0 11       		.uleb128 0x11
 2071 01e1 01       		.uleb128 0x1
 2072 01e2 12       		.uleb128 0x12
 2073 01e3 01       		.uleb128 0x1
 2074 01e4 00       		.byte	0
 2075 01e5 00       		.byte	0
 2076 01e6 25       		.uleb128 0x25
 2077 01e7 2E       		.uleb128 0x2e
 2078 01e8 01       		.byte	0x1
 2079 01e9 3F       		.uleb128 0x3f
 2080 01ea 0C       		.uleb128 0xc
 2081 01eb 03       		.uleb128 0x3
 2082 01ec 0E       		.uleb128 0xe
 2083 01ed 3A       		.uleb128 0x3a
 2084 01ee 0B       		.uleb128 0xb
 2085 01ef 3B       		.uleb128 0x3b
 2086 01f0 05       		.uleb128 0x5
ARM GAS  C:\Users\z80\AppData\Local\Temp\ccpkiOUa.s 			page 38


 2087 01f1 27       		.uleb128 0x27
 2088 01f2 0C       		.uleb128 0xc
 2089 01f3 11       		.uleb128 0x11
 2090 01f4 01       		.uleb128 0x1
 2091 01f5 12       		.uleb128 0x12
 2092 01f6 01       		.uleb128 0x1
 2093 01f7 40       		.uleb128 0x40
 2094 01f8 06       		.uleb128 0x6
 2095 01f9 01       		.uleb128 0x1
 2096 01fa 13       		.uleb128 0x13
 2097 01fb 00       		.byte	0
 2098 01fc 00       		.byte	0
 2099 01fd 26       		.uleb128 0x26
 2100 01fe 34       		.uleb128 0x34
 2101 01ff 00       		.byte	0
 2102 0200 03       		.uleb128 0x3
 2103 0201 08       		.uleb128 0x8
 2104 0202 3A       		.uleb128 0x3a
 2105 0203 0B       		.uleb128 0xb
 2106 0204 3B       		.uleb128 0x3b
 2107 0205 05       		.uleb128 0x5
 2108 0206 49       		.uleb128 0x49
 2109 0207 13       		.uleb128 0x13
 2110 0208 02       		.uleb128 0x2
 2111 0209 06       		.uleb128 0x6
 2112 020a 00       		.byte	0
 2113 020b 00       		.byte	0
 2114 020c 27       		.uleb128 0x27
 2115 020d 1D       		.uleb128 0x1d
 2116 020e 01       		.byte	0x1
 2117 020f 31       		.uleb128 0x31
 2118 0210 13       		.uleb128 0x13
 2119 0211 52       		.uleb128 0x52
 2120 0212 01       		.uleb128 0x1
 2121 0213 55       		.uleb128 0x55
 2122 0214 06       		.uleb128 0x6
 2123 0215 58       		.uleb128 0x58
 2124 0216 0B       		.uleb128 0xb
 2125 0217 59       		.uleb128 0x59
 2126 0218 05       		.uleb128 0x5
 2127 0219 01       		.uleb128 0x1
 2128 021a 13       		.uleb128 0x13
 2129 021b 00       		.byte	0
 2130 021c 00       		.byte	0
 2131 021d 28       		.uleb128 0x28
 2132 021e 34       		.uleb128 0x34
 2133 021f 00       		.byte	0
 2134 0220 03       		.uleb128 0x3
 2135 0221 08       		.uleb128 0x8
 2136 0222 3A       		.uleb128 0x3a
 2137 0223 0B       		.uleb128 0xb
 2138 0224 3B       		.uleb128 0x3b
 2139 0225 05       		.uleb128 0x5
 2140 0226 49       		.uleb128 0x49
 2141 0227 13       		.uleb128 0x13
 2142 0228 02       		.uleb128 0x2
 2143 0229 0A       		.uleb128 0xa
ARM GAS  C:\Users\z80\AppData\Local\Temp\ccpkiOUa.s 			page 39


 2144 022a 00       		.byte	0
 2145 022b 00       		.byte	0
 2146 022c 29       		.uleb128 0x29
 2147 022d 2E       		.uleb128 0x2e
 2148 022e 00       		.byte	0
 2149 022f 3F       		.uleb128 0x3f
 2150 0230 0C       		.uleb128 0xc
 2151 0231 03       		.uleb128 0x3
 2152 0232 0E       		.uleb128 0xe
 2153 0233 3A       		.uleb128 0x3a
 2154 0234 0B       		.uleb128 0xb
 2155 0235 3B       		.uleb128 0x3b
 2156 0236 0B       		.uleb128 0xb
 2157 0237 27       		.uleb128 0x27
 2158 0238 0C       		.uleb128 0xc
 2159 0239 11       		.uleb128 0x11
 2160 023a 01       		.uleb128 0x1
 2161 023b 12       		.uleb128 0x12
 2162 023c 01       		.uleb128 0x1
 2163 023d 40       		.uleb128 0x40
 2164 023e 06       		.uleb128 0x6
 2165 023f 00       		.byte	0
 2166 0240 00       		.byte	0
 2167 0241 2A       		.uleb128 0x2a
 2168 0242 34       		.uleb128 0x34
 2169 0243 00       		.byte	0
 2170 0244 03       		.uleb128 0x3
 2171 0245 0E       		.uleb128 0xe
 2172 0246 3A       		.uleb128 0x3a
 2173 0247 0B       		.uleb128 0xb
 2174 0248 3B       		.uleb128 0x3b
 2175 0249 0B       		.uleb128 0xb
 2176 024a 49       		.uleb128 0x49
 2177 024b 13       		.uleb128 0x13
 2178 024c 3F       		.uleb128 0x3f
 2179 024d 0C       		.uleb128 0xc
 2180 024e 02       		.uleb128 0x2
 2181 024f 0A       		.uleb128 0xa
 2182 0250 00       		.byte	0
 2183 0251 00       		.byte	0
 2184 0252 00       		.byte	0
 2185              		.section	.debug_loc,"",%progbits
 2186              	.Ldebug_loc0:
 2187              	.LLST0:
 2188 0000 00000000 		.4byte	.LFB8
 2189 0004 02000000 		.4byte	.LCFI0
 2190 0008 0200     		.2byte	0x2
 2191 000a 7D       		.byte	0x7d
 2192 000b 00       		.sleb128 0
 2193 000c 02000000 		.4byte	.LCFI0
 2194 0010 50000000 		.4byte	.LFE8
 2195 0014 0200     		.2byte	0x2
 2196 0016 7D       		.byte	0x7d
 2197 0017 08       		.sleb128 8
 2198 0018 00000000 		.4byte	0
 2199 001c 00000000 		.4byte	0
 2200              	.LLST1:
ARM GAS  C:\Users\z80\AppData\Local\Temp\ccpkiOUa.s 			page 40


 2201 0020 00000000 		.4byte	.LVL0
 2202 0024 08000000 		.4byte	.LVL1
 2203 0028 0100     		.2byte	0x1
 2204 002a 50       		.byte	0x50
 2205 002b 08000000 		.4byte	.LVL1
 2206 002f 50000000 		.4byte	.LFE8
 2207 0033 0100     		.2byte	0x1
 2208 0035 54       		.byte	0x54
 2209 0036 00000000 		.4byte	0
 2210 003a 00000000 		.4byte	0
 2211              	.LLST2:
 2212 003e 28000000 		.4byte	.LVL2
 2213 0042 2C000000 		.4byte	.LVL3
 2214 0046 0600     		.2byte	0x6
 2215 0048 03       		.byte	0x3
 2216 0049 00000000 		.4byte	rlist
 2217 004d 9F       		.byte	0x9f
 2218 004e 2C000000 		.4byte	.LVL3
 2219 0052 42000000 		.4byte	.LVL5
 2220 0056 0100     		.2byte	0x1
 2221 0058 53       		.byte	0x53
 2222 0059 00000000 		.4byte	0
 2223 005d 00000000 		.4byte	0
 2224              	.LLST3:
 2225 0061 00000000 		.4byte	.LVL6
 2226 0065 35000000 		.4byte	.LVL9-1
 2227 0069 0100     		.2byte	0x1
 2228 006b 50       		.byte	0x50
 2229 006c 36000000 		.4byte	.LVL9
 2230 0070 38000000 		.4byte	.LFE10
 2231 0074 0100     		.2byte	0x1
 2232 0076 50       		.byte	0x50
 2233 0077 00000000 		.4byte	0
 2234 007b 00000000 		.4byte	0
 2235              	.LLST5:
 2236 007f 22000000 		.4byte	.LVL7
 2237 0083 2C000000 		.4byte	.LVL8
 2238 0087 0100     		.2byte	0x1
 2239 0089 50       		.byte	0x50
 2240 008a 00000000 		.4byte	0
 2241 008e 00000000 		.4byte	0
 2242              	.LLST6:
 2243 0092 00000000 		.4byte	.LFB9
 2244 0096 02000000 		.4byte	.LCFI1
 2245 009a 0200     		.2byte	0x2
 2246 009c 7D       		.byte	0x7d
 2247 009d 00       		.sleb128 0
 2248 009e 02000000 		.4byte	.LCFI1
 2249 00a2 52000000 		.4byte	.LFE9
 2250 00a6 0200     		.2byte	0x2
 2251 00a8 7D       		.byte	0x7d
 2252 00a9 10       		.sleb128 16
 2253 00aa 00000000 		.4byte	0
 2254 00ae 00000000 		.4byte	0
 2255              	.LLST7:
 2256 00b2 00000000 		.4byte	.LVL10
 2257 00b6 0F000000 		.4byte	.LVL11-1
ARM GAS  C:\Users\z80\AppData\Local\Temp\ccpkiOUa.s 			page 41


 2258 00ba 0100     		.2byte	0x1
 2259 00bc 50       		.byte	0x50
 2260 00bd 00000000 		.4byte	0
 2261 00c1 00000000 		.4byte	0
 2262              	.LLST8:
 2263 00c5 14000000 		.4byte	.LVL12
 2264 00c9 2F000000 		.4byte	.LVL14-1
 2265 00cd 0500     		.2byte	0x5
 2266 00cf 03       		.byte	0x3
 2267 00d0 1C000000 		.4byte	rlist+28
 2268 00d4 2F000000 		.4byte	.LVL14-1
 2269 00d8 52000000 		.4byte	.LFE9
 2270 00dc 0100     		.2byte	0x1
 2271 00de 55       		.byte	0x55
 2272 00df 00000000 		.4byte	0
 2273 00e3 00000000 		.4byte	0
 2274              	.LLST9:
 2275 00e7 1C000000 		.4byte	.LVL13
 2276 00eb 2F000000 		.4byte	.LVL14-1
 2277 00ef 0500     		.2byte	0x5
 2278 00f1 03       		.byte	0x3
 2279 00f2 00000000 		.4byte	rlist
 2280 00f6 00000000 		.4byte	0
 2281 00fa 00000000 		.4byte	0
 2282              	.LLST10:
 2283 00fe 00000000 		.4byte	.LFB11
 2284 0102 02000000 		.4byte	.LCFI2
 2285 0106 0200     		.2byte	0x2
 2286 0108 7D       		.byte	0x7d
 2287 0109 00       		.sleb128 0
 2288 010a 02000000 		.4byte	.LCFI2
 2289 010e 06000000 		.4byte	.LCFI3
 2290 0112 0200     		.2byte	0x2
 2291 0114 7D       		.byte	0x7d
 2292 0115 10       		.sleb128 16
 2293 0116 06000000 		.4byte	.LCFI3
 2294 011a 52000000 		.4byte	.LFE11
 2295 011e 0200     		.2byte	0x2
 2296 0120 7D       		.byte	0x7d
 2297 0121 28       		.sleb128 40
 2298 0122 00000000 		.4byte	0
 2299 0126 00000000 		.4byte	0
 2300              	.LLST11:
 2301 012a 00000000 		.4byte	.LVL15
 2302 012e 0B000000 		.4byte	.LVL16-1
 2303 0132 0100     		.2byte	0x1
 2304 0134 50       		.byte	0x50
 2305 0135 00000000 		.4byte	0
 2306 0139 00000000 		.4byte	0
 2307              	.LLST12:
 2308 013d 00000000 		.4byte	.LVL15
 2309 0141 0B000000 		.4byte	.LVL16-1
 2310 0145 0100     		.2byte	0x1
 2311 0147 51       		.byte	0x51
 2312 0148 0B000000 		.4byte	.LVL16-1
 2313 014c 52000000 		.4byte	.LFE11
 2314 0150 0100     		.2byte	0x1
ARM GAS  C:\Users\z80\AppData\Local\Temp\ccpkiOUa.s 			page 42


 2315 0152 56       		.byte	0x56
 2316 0153 00000000 		.4byte	0
 2317 0157 00000000 		.4byte	0
 2318              	.LLST13:
 2319 015b 00000000 		.4byte	.LFB12
 2320 015f 02000000 		.4byte	.LCFI4
 2321 0163 0200     		.2byte	0x2
 2322 0165 7D       		.byte	0x7d
 2323 0166 00       		.sleb128 0
 2324 0167 02000000 		.4byte	.LCFI4
 2325 016b 62000000 		.4byte	.LFE12
 2326 016f 0200     		.2byte	0x2
 2327 0171 7D       		.byte	0x7d
 2328 0172 10       		.sleb128 16
 2329 0173 00000000 		.4byte	0
 2330 0177 00000000 		.4byte	0
 2331              	.LLST14:
 2332 017b 00000000 		.4byte	.LVL17
 2333 017f 11000000 		.4byte	.LVL18-1
 2334 0183 0100     		.2byte	0x1
 2335 0185 50       		.byte	0x50
 2336 0186 11000000 		.4byte	.LVL18-1
 2337 018a 62000000 		.4byte	.LFE12
 2338 018e 0100     		.2byte	0x1
 2339 0190 54       		.byte	0x54
 2340 0191 00000000 		.4byte	0
 2341 0195 00000000 		.4byte	0
 2342              	.LLST15:
 2343 0199 00000000 		.4byte	.LVL17
 2344 019d 11000000 		.4byte	.LVL18-1
 2345 01a1 0100     		.2byte	0x1
 2346 01a3 51       		.byte	0x51
 2347 01a4 11000000 		.4byte	.LVL18-1
 2348 01a8 28000000 		.4byte	.LVL19
 2349 01ac 0100     		.2byte	0x1
 2350 01ae 56       		.byte	0x56
 2351 01af 4A000000 		.4byte	.LVL21
 2352 01b3 54000000 		.4byte	.LVL22
 2353 01b7 0100     		.2byte	0x1
 2354 01b9 56       		.byte	0x56
 2355 01ba 00000000 		.4byte	0
 2356 01be 00000000 		.4byte	0
 2357              	.LLST16:
 2358 01c2 28000000 		.4byte	.LVL19
 2359 01c6 33000000 		.4byte	.LVL20-1
 2360 01ca 0100     		.2byte	0x1
 2361 01cc 50       		.byte	0x50
 2362 01cd 33000000 		.4byte	.LVL20-1
 2363 01d1 4A000000 		.4byte	.LVL21
 2364 01d5 0100     		.2byte	0x1
 2365 01d7 56       		.byte	0x56
 2366 01d8 54000000 		.4byte	.LVL22
 2367 01dc 62000000 		.4byte	.LFE12
 2368 01e0 0100     		.2byte	0x1
 2369 01e2 56       		.byte	0x56
 2370 01e3 00000000 		.4byte	0
 2371 01e7 00000000 		.4byte	0
ARM GAS  C:\Users\z80\AppData\Local\Temp\ccpkiOUa.s 			page 43


 2372              	.LLST17:
 2373 01eb 00000000 		.4byte	.LFB14
 2374 01ef 02000000 		.4byte	.LCFI5
 2375 01f3 0200     		.2byte	0x2
 2376 01f5 7D       		.byte	0x7d
 2377 01f6 00       		.sleb128 0
 2378 01f7 02000000 		.4byte	.LCFI5
 2379 01fb 4E000000 		.4byte	.LFE14
 2380 01ff 0200     		.2byte	0x2
 2381 0201 7D       		.byte	0x7d
 2382 0202 10       		.sleb128 16
 2383 0203 00000000 		.4byte	0
 2384 0207 00000000 		.4byte	0
 2385              	.LLST18:
 2386 020b 0E000000 		.4byte	.LVL23
 2387 020f 25000000 		.4byte	.LVL24-1
 2388 0213 0500     		.2byte	0x5
 2389 0215 03       		.byte	0x3
 2390 0216 1C000000 		.4byte	rlist+28
 2391 021a 25000000 		.4byte	.LVL24-1
 2392 021e 4E000000 		.4byte	.LFE14
 2393 0222 0100     		.2byte	0x1
 2394 0224 55       		.byte	0x55
 2395 0225 00000000 		.4byte	0
 2396 0229 00000000 		.4byte	0
 2397              	.LLST19:
 2398 022d 0E000000 		.4byte	.LVL23
 2399 0231 25000000 		.4byte	.LVL24-1
 2400 0235 0500     		.2byte	0x5
 2401 0237 03       		.byte	0x3
 2402 0238 00000000 		.4byte	rlist
 2403 023c 00000000 		.4byte	0
 2404 0240 00000000 		.4byte	0
 2405              	.LLST20:
 2406 0244 00000000 		.4byte	.LFB13
 2407 0248 02000000 		.4byte	.LCFI6
 2408 024c 0200     		.2byte	0x2
 2409 024e 7D       		.byte	0x7d
 2410 024f 00       		.sleb128 0
 2411 0250 02000000 		.4byte	.LCFI6
 2412 0254 28000000 		.4byte	.LFE13
 2413 0258 0200     		.2byte	0x2
 2414 025a 7D       		.byte	0x7d
 2415 025b 08       		.sleb128 8
 2416 025c 00000000 		.4byte	0
 2417 0260 00000000 		.4byte	0
 2418              		.section	.debug_aranges,"",%progbits
 2419 0000 54000000 		.4byte	0x54
 2420 0004 0200     		.2byte	0x2
 2421 0006 00000000 		.4byte	.Ldebug_info0
 2422 000a 04       		.byte	0x4
 2423 000b 00       		.byte	0
 2424 000c 0000     		.2byte	0
 2425 000e 0000     		.2byte	0
 2426 0010 00000000 		.4byte	.LFB7
 2427 0014 1A000000 		.4byte	.LFE7-.LFB7
 2428 0018 00000000 		.4byte	.LFB8
ARM GAS  C:\Users\z80\AppData\Local\Temp\ccpkiOUa.s 			page 44


 2429 001c 50000000 		.4byte	.LFE8-.LFB8
 2430 0020 00000000 		.4byte	.LFB10
 2431 0024 38000000 		.4byte	.LFE10-.LFB10
 2432 0028 00000000 		.4byte	.LFB9
 2433 002c 52000000 		.4byte	.LFE9-.LFB9
 2434 0030 00000000 		.4byte	.LFB11
 2435 0034 52000000 		.4byte	.LFE11-.LFB11
 2436 0038 00000000 		.4byte	.LFB12
 2437 003c 62000000 		.4byte	.LFE12-.LFB12
 2438 0040 00000000 		.4byte	.LFB14
 2439 0044 4E000000 		.4byte	.LFE14-.LFB14
 2440 0048 00000000 		.4byte	.LFB13
 2441 004c 28000000 		.4byte	.LFE13-.LFB13
 2442 0050 00000000 		.4byte	0
 2443 0054 00000000 		.4byte	0
 2444              		.section	.debug_ranges,"",%progbits
 2445              	.Ldebug_ranges0:
 2446 0000 10000000 		.4byte	.LBB12
 2447 0004 12000000 		.4byte	.LBE12
 2448 0008 14000000 		.4byte	.LBB17
 2449 000c 16000000 		.4byte	.LBE17
 2450 0010 20000000 		.4byte	.LBB18
 2451 0014 22000000 		.4byte	.LBE18
 2452 0018 28000000 		.4byte	.LBB19
 2453 001c 2A000000 		.4byte	.LBE19
 2454 0020 00000000 		.4byte	0
 2455 0024 00000000 		.4byte	0
 2456 0028 10000000 		.4byte	.LBB13
 2457 002c 12000000 		.4byte	.LBE13
 2458 0030 14000000 		.4byte	.LBB14
 2459 0034 16000000 		.4byte	.LBE14
 2460 0038 20000000 		.4byte	.LBB15
 2461 003c 22000000 		.4byte	.LBE15
 2462 0040 28000000 		.4byte	.LBB16
 2463 0044 2A000000 		.4byte	.LBE16
 2464 0048 00000000 		.4byte	0
 2465 004c 00000000 		.4byte	0
 2466 0050 30000000 		.4byte	.LBB20
 2467 0054 4A000000 		.4byte	.LBE20
 2468 0058 4E000000 		.4byte	.LBB21
 2469 005c 52000000 		.4byte	.LBE21
 2470 0060 00000000 		.4byte	0
 2471 0064 00000000 		.4byte	0
 2472 0068 1E000000 		.4byte	.LBB23
 2473 006c 42000000 		.4byte	.LBE23
 2474 0070 46000000 		.4byte	.LBB27
 2475 0074 4A000000 		.4byte	.LBE27
 2476 0078 54000000 		.4byte	.LBB28
 2477 007c 62000000 		.4byte	.LBE28
 2478 0080 00000000 		.4byte	0
 2479 0084 00000000 		.4byte	0
 2480 0088 34000000 		.4byte	.LBB24
 2481 008c 42000000 		.4byte	.LBE24
 2482 0090 46000000 		.4byte	.LBB25
 2483 0094 4A000000 		.4byte	.LBE25
 2484 0098 54000000 		.4byte	.LBB26
 2485 009c 62000000 		.4byte	.LBE26
ARM GAS  C:\Users\z80\AppData\Local\Temp\ccpkiOUa.s 			page 45


 2486 00a0 00000000 		.4byte	0
 2487 00a4 00000000 		.4byte	0
 2488 00a8 0A000000 		.4byte	.LBB29
 2489 00ac 0C000000 		.4byte	.LBE29
 2490 00b0 0E000000 		.4byte	.LBB34
 2491 00b4 10000000 		.4byte	.LBE34
 2492 00b8 1A000000 		.4byte	.LBB35
 2493 00bc 1C000000 		.4byte	.LBE35
 2494 00c0 1E000000 		.4byte	.LBB36
 2495 00c4 20000000 		.4byte	.LBE36
 2496 00c8 00000000 		.4byte	0
 2497 00cc 00000000 		.4byte	0
 2498 00d0 0A000000 		.4byte	.LBB30
 2499 00d4 0C000000 		.4byte	.LBE30
 2500 00d8 0E000000 		.4byte	.LBB31
 2501 00dc 10000000 		.4byte	.LBE31
 2502 00e0 1A000000 		.4byte	.LBB32
 2503 00e4 1C000000 		.4byte	.LBE32
 2504 00e8 1E000000 		.4byte	.LBB33
 2505 00ec 20000000 		.4byte	.LBE33
 2506 00f0 00000000 		.4byte	0
 2507 00f4 00000000 		.4byte	0
 2508 00f8 2C000000 		.4byte	.LBB37
 2509 00fc 46000000 		.4byte	.LBE37
 2510 0100 4A000000 		.4byte	.LBB38
 2511 0104 4E000000 		.4byte	.LBE38
 2512 0108 00000000 		.4byte	0
 2513 010c 00000000 		.4byte	0
 2514 0110 00000000 		.4byte	.LFB7
 2515 0114 1A000000 		.4byte	.LFE7
 2516 0118 00000000 		.4byte	.LFB8
 2517 011c 50000000 		.4byte	.LFE8
 2518 0120 00000000 		.4byte	.LFB10
 2519 0124 38000000 		.4byte	.LFE10
 2520 0128 00000000 		.4byte	.LFB9
 2521 012c 52000000 		.4byte	.LFE9
 2522 0130 00000000 		.4byte	.LFB11
 2523 0134 52000000 		.4byte	.LFE11
 2524 0138 00000000 		.4byte	.LFB12
 2525 013c 62000000 		.4byte	.LFE12
 2526 0140 00000000 		.4byte	.LFB14
 2527 0144 4E000000 		.4byte	.LFE14
 2528 0148 00000000 		.4byte	.LFB13
 2529 014c 28000000 		.4byte	.LFE13
 2530 0150 00000000 		.4byte	0
 2531 0154 00000000 		.4byte	0
 2532              		.section	.debug_line,"",%progbits
 2533              	.Ldebug_line0:
 2534 0000 F9020000 		.section	.debug_str,"MS",%progbits,1
 2534      02006E01 
 2534      00000201 
 2534      FB0E0D00 
 2534      01010101 
 2535              	.LASF34:
 2536 0000 705F6D73 		.ascii	"p_msg\000"
 2536      6700
 2537              	.LASF66:
ARM GAS  C:\Users\z80\AppData\Local\Temp\ccpkiOUa.s 			page 46


 2538 0006 7264796D 		.ascii	"rdymsg\000"
 2538      736700
 2539              	.LASF11:
 2540 000d 75696E74 		.ascii	"uint64_t\000"
 2540      36345F74 
 2540      00
 2541              	.LASF12:
 2542 0016 6C6F6E67 		.ascii	"long long unsigned int\000"
 2542      206C6F6E 
 2542      6720756E 
 2542      7369676E 
 2542      65642069 
 2543              	.LASF67:
 2544 002d 65786974 		.ascii	"exitcode\000"
 2544      636F6465 
 2544      00
 2545              	.LASF23:
 2546 0036 705F7072 		.ascii	"p_prio\000"
 2546      696F00
 2547              	.LASF80:
 2548 003d 5F736368 		.ascii	"_scheduler_init\000"
 2548      6564756C 
 2548      65725F69 
 2548      6E697400 
 2549              	.LASF10:
 2550 004d 6C6F6E67 		.ascii	"long long int\000"
 2550      206C6F6E 
 2550      6720696E 
 2550      7400
 2551              	.LASF1:
 2552 005b 7369676E 		.ascii	"signed char\000"
 2552      65642063 
 2552      68617200 
 2553              	.LASF63:
 2554 0067 6D5F7175 		.ascii	"m_queue\000"
 2554      65756500 
 2555              	.LASF84:
 2556 006f 433A5C70 		.ascii	"C:\\projects\\digitizer.git\\firmware\\digitizer\000"
 2556      726F6A65 
 2556      6374735C 
 2556      64696769 
 2556      74697A65 
 2557              	.LASF7:
 2558 009c 6C6F6E67 		.ascii	"long int\000"
 2558      20696E74 
 2558      00
 2559              	.LASF14:
 2560 00a5 74737461 		.ascii	"tstate_t\000"
 2560      74655F74 
 2560      00
 2561              	.LASF25:
 2562 00ae 705F6E65 		.ascii	"p_newer\000"
 2562      77657200 
 2563              	.LASF60:
 2564 00b6 735F7175 		.ascii	"s_queue\000"
 2564      65756500 
 2565              	.LASF81:
ARM GAS  C:\Users\z80\AppData\Local\Temp\ccpkiOUa.s 			page 47


 2566 00be 63685363 		.ascii	"chSchRescheduleS\000"
 2566      68526573 
 2566      63686564 
 2566      756C6553 
 2566      00
 2567              	.LASF54:
 2568 00cf 725F6E65 		.ascii	"r_newer\000"
 2568      77657200 
 2569              	.LASF40:
 2570 00d7 72656761 		.ascii	"regarm_t\000"
 2570      726D5F74 
 2570      00
 2571              	.LASF47:
 2572 00e0 76745F70 		.ascii	"vt_prev\000"
 2572      72657600 
 2573              	.LASF79:
 2574 00e8 63685363 		.ascii	"chSchDoReschedule\000"
 2574      68446F52 
 2574      65736368 
 2574      6564756C 
 2574      6500
 2575              	.LASF19:
 2576 00fa 636E745F 		.ascii	"cnt_t\000"
 2576      7400
 2577              	.LASF28:
 2578 0100 705F7374 		.ascii	"p_stklimit\000"
 2578      6B6C696D 
 2578      697400
 2579              	.LASF0:
 2580 010b 756E7369 		.ascii	"unsigned int\000"
 2580      676E6564 
 2580      20696E74 
 2580      00
 2581              	.LASF85:
 2582 0118 77616B65 		.ascii	"wakeup\000"
 2582      757000
 2583              	.LASF46:
 2584 011f 76745F6E 		.ascii	"vt_next\000"
 2584      65787400 
 2585              	.LASF9:
 2586 0127 6C6F6E67 		.ascii	"long unsigned int\000"
 2586      20756E73 
 2586      69676E65 
 2586      6420696E 
 2586      7400
 2587              	.LASF61:
 2588 0139 735F636E 		.ascii	"s_cnt\000"
 2588      7400
 2589              	.LASF83:
 2590 013f 2E2E2F63 		.ascii	"../chibios_2.4.x/os/kernel/src/chschd.c\000"
 2590      68696269 
 2590      6F735F32 
 2590      2E342E78 
 2590      2F6F732F 
 2591              	.LASF4:
 2592 0167 73686F72 		.ascii	"short unsigned int\000"
 2592      7420756E 
ARM GAS  C:\Users\z80\AppData\Local\Temp\ccpkiOUa.s 			page 48


 2592      7369676E 
 2592      65642069 
 2592      6E7400
 2593              	.LASF78:
 2594 017a 63685363 		.ascii	"chSchWakeupS\000"
 2594      6857616B 
 2594      65757053 
 2594      00
 2595              	.LASF16:
 2596 0187 6D73675F 		.ascii	"msg_t\000"
 2596      7400
 2597              	.LASF13:
 2598 018d 746D6F64 		.ascii	"tmode_t\000"
 2598      655F7400 
 2599              	.LASF39:
 2600 0195 54687265 		.ascii	"ThreadsList\000"
 2600      6164734C 
 2600      69737400 
 2601              	.LASF17:
 2602 01a1 6576656E 		.ascii	"eventmask_t\000"
 2602      746D6173 
 2602      6B5F7400 
 2603              	.LASF62:
 2604 01ad 4D757465 		.ascii	"Mutex\000"
 2604      7800
 2605              	.LASF41:
 2606 01b3 73746B61 		.ascii	"stkalign_t\000"
 2606      6C69676E 
 2606      5F7400
 2607              	.LASF48:
 2608 01be 76745F74 		.ascii	"vt_time\000"
 2608      696D6500 
 2609              	.LASF49:
 2610 01c6 76745F66 		.ascii	"vt_func\000"
 2610      756E6300 
 2611              	.LASF26:
 2612 01ce 705F6F6C 		.ascii	"p_older\000"
 2612      64657200 
 2613              	.LASF53:
 2614 01d6 725F6374 		.ascii	"r_ctx\000"
 2614      7800
 2615              	.LASF38:
 2616 01dc 54687265 		.ascii	"ThreadsQueue\000"
 2616      61647351 
 2616      75657565 
 2616      00
 2617              	.LASF71:
 2618 01e9 64657175 		.ascii	"dequeue\000"
 2618      65756500 
 2619              	.LASF57:
 2620 01f1 725F6375 		.ascii	"r_current\000"
 2620      7272656E 
 2620      7400
 2621              	.LASF55:
 2622 01fb 725F6F6C 		.ascii	"r_older\000"
 2622      64657200 
 2623              	.LASF22:
ARM GAS  C:\Users\z80\AppData\Local\Temp\ccpkiOUa.s 			page 49


 2624 0203 705F7072 		.ascii	"p_prev\000"
 2624      657600
 2625              	.LASF15:
 2626 020a 74707269 		.ascii	"tprio_t\000"
 2626      6F5F7400 
 2627              	.LASF6:
 2628 0212 696E7433 		.ascii	"int32_t\000"
 2628      325F7400 
 2629              	.LASF2:
 2630 021a 756E7369 		.ascii	"unsigned char\000"
 2630      676E6564 
 2630      20636861 
 2630      7200
 2631              	.LASF73:
 2632 0228 6E657773 		.ascii	"newstate\000"
 2632      74617465 
 2632      00
 2633              	.LASF36:
 2634 0231 705F6D74 		.ascii	"p_mtxlist\000"
 2634      786C6973 
 2634      7400
 2635              	.LASF3:
 2636 023b 73686F72 		.ascii	"short int\000"
 2636      7420696E 
 2636      7400
 2637              	.LASF29:
 2638 0245 705F7374 		.ascii	"p_state\000"
 2638      61746500 
 2639              	.LASF52:
 2640 024d 725F7072 		.ascii	"r_prio\000"
 2640      696F00
 2641              	.LASF69:
 2642 0254 65776D61 		.ascii	"ewmask\000"
 2642      736B00
 2643              	.LASF21:
 2644 025b 705F6E65 		.ascii	"p_next\000"
 2644      787400
 2645              	.LASF30:
 2646 0262 705F666C 		.ascii	"p_flags\000"
 2646      61677300 
 2647              	.LASF20:
 2648 026a 54687265 		.ascii	"Thread\000"
 2648      616400
 2649              	.LASF77:
 2650 0271 63685363 		.ascii	"chSchGoSleepS\000"
 2650      68476F53 
 2650      6C656570 
 2650      5300
 2651              	.LASF35:
 2652 027f 705F6570 		.ascii	"p_epending\000"
 2652      656E6469 
 2652      6E6700
 2653              	.LASF8:
 2654 028a 75696E74 		.ascii	"uint32_t\000"
 2654      33325F74 
 2654      00
 2655              	.LASF51:
ARM GAS  C:\Users\z80\AppData\Local\Temp\ccpkiOUa.s 			page 50


 2656 0293 725F7175 		.ascii	"r_queue\000"
 2656      65756500 
 2657              	.LASF45:
 2658 029b 56697274 		.ascii	"VirtualTimer\000"
 2658      75616C54 
 2658      696D6572 
 2658      00
 2659              	.LASF82:
 2660 02a8 474E5520 		.ascii	"GNU C 4.6.3\000"
 2660      4320342E 
 2660      362E3300 
 2661              	.LASF70:
 2662 02b4 63686172 		.ascii	"char\000"
 2662      00
 2663              	.LASF72:
 2664 02b9 6669666F 		.ascii	"fifo_remove\000"
 2664      5F72656D 
 2664      6F766500 
 2665              	.LASF74:
 2666 02c5 63685363 		.ascii	"chSchReadyI\000"
 2666      68526561 
 2666      64794900 
 2667              	.LASF65:
 2668 02d1 6D5F6E65 		.ascii	"m_next\000"
 2668      787400
 2669              	.LASF18:
 2670 02d8 73797374 		.ascii	"systime_t\000"
 2670      696D655F 
 2670      7400
 2671              	.LASF37:
 2672 02e2 705F7265 		.ascii	"p_realprio\000"
 2672      616C7072 
 2672      696F00
 2673              	.LASF44:
 2674 02ed 76746675 		.ascii	"vtfunc_t\000"
 2674      6E635F74 
 2674      00
 2675              	.LASF31:
 2676 02f6 705F7469 		.ascii	"p_time\000"
 2676      6D6500
 2677              	.LASF42:
 2678 02fd 696E7463 		.ascii	"intctx\000"
 2678      747800
 2679              	.LASF33:
 2680 0304 705F6D73 		.ascii	"p_msgqueue\000"
 2680      67717565 
 2680      756500
 2681              	.LASF76:
 2682 030f 74696D65 		.ascii	"time\000"
 2682      00
 2683              	.LASF50:
 2684 0314 76745F70 		.ascii	"vt_par\000"
 2684      617200
 2685              	.LASF59:
 2686 031b 53656D61 		.ascii	"Semaphore\000"
 2686      70686F72 
 2686      6500
ARM GAS  C:\Users\z80\AppData\Local\Temp\ccpkiOUa.s 			page 51


 2687              	.LASF58:
 2688 0325 52656164 		.ascii	"ReadyList\000"
 2688      794C6973 
 2688      7400
 2689              	.LASF86:
 2690 032f 726C6973 		.ascii	"rlist\000"
 2690      7400
 2691              	.LASF5:
 2692 0335 75696E74 		.ascii	"uint8_t\000"
 2692      385F7400 
 2693              	.LASF68:
 2694 033d 77746F62 		.ascii	"wtobjp\000"
 2694      6A7000
 2695              	.LASF27:
 2696 0344 705F6E61 		.ascii	"p_name\000"
 2696      6D6500
 2697              	.LASF43:
 2698 034b 636F6E74 		.ascii	"context\000"
 2698      65787400 
 2699              	.LASF75:
 2700 0353 63685363 		.ascii	"chSchGoSleepTimeoutS\000"
 2700      68476F53 
 2700      6C656570 
 2700      54696D65 
 2700      6F757453 
 2701              	.LASF56:
 2702 0368 725F7072 		.ascii	"r_preempt\000"
 2702      65656D70 
 2702      7400
 2703              	.LASF64:
 2704 0372 6D5F6F77 		.ascii	"m_owner\000"
 2704      6E657200 
 2705              	.LASF24:
 2706 037a 705F6374 		.ascii	"p_ctx\000"
 2706      7800
 2707              	.LASF32:
 2708 0380 705F7761 		.ascii	"p_waiting\000"
 2708      6974696E 
 2708      6700
 2709              		.ident	"GCC: (Sourcery CodeBench Lite 2012.03-56) 4.6.3"
ARM GAS  C:\Users\z80\AppData\Local\Temp\ccpkiOUa.s 			page 52


DEFINED SYMBOLS
                            *ABS*:00000000 chschd.c
C:\Users\z80\AppData\Local\Temp\ccpkiOUa.s:19     .text._scheduler_init:00000000 $t
C:\Users\z80\AppData\Local\Temp\ccpkiOUa.s:25     .text._scheduler_init:00000000 _scheduler_init
C:\Users\z80\AppData\Local\Temp\ccpkiOUa.s:600    .bss.rlist:00000000 .LANCHOR0
C:\Users\z80\AppData\Local\Temp\ccpkiOUa.s:56     .text.chSchReadyI:00000000 $t
C:\Users\z80\AppData\Local\Temp\ccpkiOUa.s:62     .text.chSchReadyI:00000000 chSchReadyI
C:\Users\z80\AppData\Local\Temp\ccpkiOUa.s:593    .rodata.str1.4:00000000 .LC0
C:\Users\z80\AppData\Local\Temp\ccpkiOUa.s:129    .text.wakeup:00000000 $t
C:\Users\z80\AppData\Local\Temp\ccpkiOUa.s:134    .text.wakeup:00000000 wakeup
C:\Users\z80\AppData\Local\Temp\ccpkiOUa.s:148    .text.wakeup:0000000c $d
C:\Users\z80\AppData\Local\Temp\ccpkiOUa.s:162    .text.wakeup:0000001a $t
C:\Users\z80\AppData\Local\Temp\ccpkiOUa.s:197    .text.chSchGoSleepS:00000000 $t
C:\Users\z80\AppData\Local\Temp\ccpkiOUa.s:203    .text.chSchGoSleepS:00000000 chSchGoSleepS
C:\Users\z80\AppData\Local\Temp\ccpkiOUa.s:596    .rodata.str1.4:00000014 .LC1
C:\Users\z80\AppData\Local\Temp\ccpkiOUa.s:294    .text.chSchGoSleepTimeoutS:00000000 $t
C:\Users\z80\AppData\Local\Temp\ccpkiOUa.s:300    .text.chSchGoSleepTimeoutS:00000000 chSchGoSleepTimeoutS
C:\Users\z80\AppData\Local\Temp\ccpkiOUa.s:364    .text.chSchWakeupS:00000000 $t
C:\Users\z80\AppData\Local\Temp\ccpkiOUa.s:370    .text.chSchWakeupS:00000000 chSchWakeupS
C:\Users\z80\AppData\Local\Temp\ccpkiOUa.s:463    .text.chSchDoReschedule:00000000 $t
C:\Users\z80\AppData\Local\Temp\ccpkiOUa.s:469    .text.chSchDoReschedule:00000000 chSchDoReschedule
C:\Users\z80\AppData\Local\Temp\ccpkiOUa.s:553    .text.chSchRescheduleS:00000000 $t
C:\Users\z80\AppData\Local\Temp\ccpkiOUa.s:559    .text.chSchRescheduleS:00000000 chSchRescheduleS
C:\Users\z80\AppData\Local\Temp\ccpkiOUa.s:603    .bss.rlist:00000000 rlist
C:\Users\z80\AppData\Local\Temp\ccpkiOUa.s:592    .rodata.str1.4:00000000 $d
C:\Users\z80\AppData\Local\Temp\ccpkiOUa.s:599    .bss.rlist:00000000 $d
                     .debug_frame:00000010 $d

UNDEFINED SYMBOLS
chDbgPanic
chDbgCheckClassS
dbg_trace
_port_switch
chVTSetI
chVTResetI
