ARM GAS  C:\Users\z80\AppData\Local\Temp\ccpkiOUa.s 			page 1


   1              		.syntax unified
   2              		.cpu cortex-m3
   3              		.fpu softvfp
   4              		.eabi_attribute 20, 1
   5              		.eabi_attribute 21, 1
   6              		.eabi_attribute 23, 3
   7              		.eabi_attribute 24, 1
   8              		.eabi_attribute 25, 1
   9              		.eabi_attribute 26, 1
  10              		.eabi_attribute 30, 2
  11              		.eabi_attribute 34, 1
  12              		.eabi_attribute 18, 4
  13              		.thumb
  14              		.file	"chschd.c"
  15              		.text
  16              	.Ltext0:
  17              		.cfi_sections	.debug_frame
  18              		.section	.text._scheduler_init,"ax",%progbits
  19              		.align	2
  20              		.p2align 4,,15
  21              		.global	_scheduler_init
  22              		.thumb
  23              		.thumb_func
  24              		.type	_scheduler_init, %function
  25              	_scheduler_init:
  26              	.LFB7:
  27              		.file 1 "../chibios_2.4.x/os/kernel/src/chschd.c"
  28              		.loc 1 55 0
  29              		.cfi_startproc
  30              		@ args = 0, pretend = 0, frame = 0
  31              		@ frame_needed = 0, uses_anonymous_args = 0
  32              		@ link register save eliminated.
  33              		.loc 1 57 0
  34 0000 40F20003 		movw	r3, #:lower16:.LANCHOR0
  35 0004 C0F20003 		movt	r3, #:upper16:.LANCHOR0
  36              		.loc 1 58 0
  37 0008 0020     		movs	r0, #0
  38              		.loc 1 60 0
  39 000a 1422     		movs	r2, #20
  40              		.loc 1 57 0
  41 000c 5B60     		str	r3, [r3, #4]
  42 000e 1B60     		str	r3, [r3, #0]
  43              		.loc 1 58 0
  44 0010 9860     		str	r0, [r3, #8]
  45              		.loc 1 60 0
  46 0012 9A61     		str	r2, [r3, #24]
  47              		.loc 1 63 0
  48 0014 5B61     		str	r3, [r3, #20]
  49 0016 1B61     		str	r3, [r3, #16]
  50              		.loc 1 65 0
  51 0018 7047     		bx	lr
  52              		.cfi_endproc
  53              	.LFE7:
  54              		.size	_scheduler_init, .-_scheduler_init
  55 001a 00BFAFF3 		.section	.text.chSchReadyI,"ax",%progbits
  55      0080
  56              		.align	2
ARM GAS  C:\Users\z80\AppData\Local\Temp\ccpkiOUa.s 			page 2


  57              		.p2align 4,,15
  58              		.global	chSchReadyI
  59              		.thumb
  60              		.thumb_func
  61              		.type	chSchReadyI, %function
  62              	chSchReadyI:
  63              	.LFB8:
  64              		.loc 1 82 0
  65              		.cfi_startproc
  66              		@ args = 0, pretend = 0, frame = 0
  67              		@ frame_needed = 0, uses_anonymous_args = 0
  68              	.LVL0:
  69 0000 10B5     		push	{r4, lr}
  70              	.LCFI0:
  71              		.cfi_def_cfa_offset 8
  72              		.cfi_offset 14, -4
  73              		.cfi_offset 4, -8
  74              		.loc 1 82 0
  75 0002 0446     		mov	r4, r0
  76              		.loc 1 86 0
  77 0004 90F82000 		ldrb	r0, [r0, #32]	@ zero_extendqisi2
  78              	.LVL1:
  79 0008 D0F10102 		rsbs	r2, r0, #1
  80 000c 38BF     		it	cc
  81 000e 0022     		movcc	r2, #0
  82 0010 0E28     		cmp	r0, #14
  83 0012 14BF     		ite	ne
  84 0014 1346     		movne	r3, r2
  85 0016 42F00103 		orreq	r3, r2, #1
  86 001a 93B9     		cbnz	r3, .L7
  87              	.L3:
  88              		.loc 1 92 0
  89 001c 40F20003 		movw	r3, #:lower16:.LANCHOR0
  90              		.loc 1 91 0
  91 0020 0020     		movs	r0, #0
  92 0022 A168     		ldr	r1, [r4, #8]
  93 0024 84F82000 		strb	r0, [r4, #32]
  94              	.LVL2:
  95              		.loc 1 92 0
  96 0028 C0F20003 		movt	r3, #:upper16:.LANCHOR0
  97              	.LVL3:
  98              	.L4:
  99              		.loc 1 94 0 discriminator 1
 100 002c 1B68     		ldr	r3, [r3, #0]
 101              	.LVL4:
 102              		.loc 1 95 0 discriminator 1
 103 002e 9A68     		ldr	r2, [r3, #8]
 104 0030 8A42     		cmp	r2, r1
 105 0032 FBD2     		bcs	.L4
 106              		.loc 1 98 0
 107 0034 5968     		ldr	r1, [r3, #4]
 108              		.loc 1 97 0
 109 0036 2360     		str	r3, [r4, #0]
 110              		.loc 1 98 0
 111 0038 6160     		str	r1, [r4, #4]
 112              		.loc 1 99 0
 113 003a 0C60     		str	r4, [r1, #0]
ARM GAS  C:\Users\z80\AppData\Local\Temp\ccpkiOUa.s 			page 3


 114 003c 5C60     		str	r4, [r3, #4]
 115              		.loc 1 101 0
 116 003e 2046     		mov	r0, r4
 117 0040 10BD     		pop	{r4, pc}
 118              	.LVL5:
 119              	.L7:
 120              		.loc 1 86 0 discriminator 1
 121 0042 40F20000 		movw	r0, #:lower16:.LC0
 122 0046 C0F20000 		movt	r0, #:upper16:.LC0
 123 004a FFF7FEFF 		bl	chDbgPanic
 124 004e E5E7     		b	.L3
 125              		.cfi_endproc
 126              	.LFE8:
 127              		.size	chSchReadyI, .-chSchReadyI
 128              		.section	.text.wakeup,"ax",%progbits
 129              		.align	2
 130              		.p2align 4,,15
 131              		.thumb
 132              		.thumb_func
 133              		.type	wakeup, %function
 134              	wakeup:
 135              	.LFB10:
 136              		.loc 1 133 0
 137              		.cfi_startproc
 138              		@ args = 0, pretend = 0, frame = 0
 139              		@ frame_needed = 0, uses_anonymous_args = 0
 140              		@ link register save eliminated.
 141              	.LVL6:
 142              		.loc 1 136 0
 143 0000 90F82030 		ldrb	r3, [r0, #32]	@ zero_extendqisi2
 144 0004 0D2B     		cmp	r3, #13
 145 0006 11D8     		bhi	.L9
 146 0008 DFE803F0 		tbb	[pc, r3]
 147              	.L13:
 148 000c 15       		.byte	(.L8-.L13)/2
 149 000d 10       		.byte	(.L9-.L13)/2
 150 000e 10       		.byte	(.L9-.L13)/2
 151 000f 07       		.byte	(.L11-.L13)/2
 152 0010 10       		.byte	(.L9-.L13)/2
 153 0011 0B       		.byte	(.L12-.L13)/2
 154 0012 10       		.byte	(.L9-.L13)/2
 155 0013 10       		.byte	(.L9-.L13)/2
 156 0014 10       		.byte	(.L9-.L13)/2
 157 0015 10       		.byte	(.L9-.L13)/2
 158 0016 10       		.byte	(.L9-.L13)/2
 159 0017 10       		.byte	(.L9-.L13)/2
 160 0018 10       		.byte	(.L9-.L13)/2
 161 0019 0B       		.byte	(.L12-.L13)/2
 162              		.align	1
 163              	.L11:
 164              		.loc 1 145 0
 165 001a 816A     		ldr	r1, [r0, #40]
 166 001c 8B68     		ldr	r3, [r1, #8]
 167 001e 5A1C     		adds	r2, r3, #1
 168 0020 8A60     		str	r2, [r1, #8]
 169              	.L12:
 170              	.LVL7:
ARM GAS  C:\Users\z80\AppData\Local\Temp\ccpkiOUa.s 			page 4


 171              	.LBB10:
 172              	.LBB11:
 173              		.file 2 "../chibios_2.4.x/os/kernel/include/chinline.h"
 174              		.loc 2 75 0
 175 0022 90E80C00 		ldmia	r0, {r2, r3}
 176 0026 1A60     		str	r2, [r3, #0]
 177              		.loc 2 76 0
 178 0028 0268     		ldr	r2, [r0, #0]
 179 002a 5360     		str	r3, [r2, #4]
 180              	.LVL8:
 181              	.L9:
 182              	.LBE11:
 183              	.LBE10:
 184              		.loc 1 158 0
 185 002c 4FF0FF31 		mov	r1, #-1
 186 0030 8162     		str	r1, [r0, #40]
 187              		.loc 1 160 0
 188              		.loc 1 159 0
 189 0032 FFF7FEBF 		b	chSchReadyI
 190              	.LVL9:
 191              	.L8:
 192 0036 7047     		bx	lr
 193              		.cfi_endproc
 194              	.LFE10:
 195              		.size	wakeup, .-wakeup
 196 0038 AFF30080 		.section	.text.chSchGoSleepS,"ax",%progbits
 196      AFF30080 
 197              		.align	2
 198              		.p2align 4,,15
 199              		.global	chSchGoSleepS
 200              		.thumb
 201              		.thumb_func
 202              		.type	chSchGoSleepS, %function
 203              	chSchGoSleepS:
 204              	.LFB9:
 205              		.loc 1 114 0
 206              		.cfi_startproc
 207              		@ args = 0, pretend = 0, frame = 0
 208              		@ frame_needed = 0, uses_anonymous_args = 0
 209              	.LVL10:
 210 0000 70B5     		push	{r4, r5, r6, lr}
 211              	.LCFI1:
 212              		.cfi_def_cfa_offset 16
 213              		.cfi_offset 14, -4
 214              		.cfi_offset 6, -8
 215              		.cfi_offset 5, -12
 216              		.cfi_offset 4, -16
 217              		.loc 1 119 0
 218 0002 40F20004 		movw	r4, #:lower16:.LANCHOR0
 219 0006 C0F20004 		movt	r4, #:upper16:.LANCHOR0
 220              		.loc 1 114 0
 221 000a 0646     		mov	r6, r0
 222              		.loc 1 117 0
 223 000c FFF7FEFF 		bl	chDbgCheckClassS
 224              	.LVL11:
 225              	.LBB12:
 226              	.LBB13:
ARM GAS  C:\Users\z80\AppData\Local\Temp\ccpkiOUa.s 			page 5


 227              		.loc 2 60 0
 228 0010 2368     		ldr	r3, [r4, #0]
 229              	.LBE13:
 230              	.LBE12:
 231              		.loc 1 119 0
 232 0012 E569     		ldr	r5, [r4, #28]
 233              	.LVL12:
 234              	.LBB17:
 235              	.LBB14:
 236              		.loc 2 62 0
 237 0014 1A68     		ldr	r2, [r3, #0]
 238              	.LBE14:
 239              	.LBE17:
 240              		.loc 1 121 0
 241 0016 1420     		movs	r0, #20
 242              		.loc 1 124 0
 243 0018 0121     		movs	r1, #1
 244              		.loc 1 121 0
 245 001a A061     		str	r0, [r4, #24]
 246              	.LVL13:
 247              		.loc 1 119 0
 248 001c 85F82060 		strb	r6, [r5, #32]
 249              	.LBB18:
 250              	.LBB15:
 251              		.loc 2 62 0
 252 0020 5460     		str	r4, [r2, #4]
 253              	.LBE15:
 254              	.LBE18:
 255              		.loc 1 124 0
 256 0022 83F82010 		strb	r1, [r3, #32]
 257              		.loc 1 125 0
 258 0026 2846     		mov	r0, r5
 259              	.LBB19:
 260              	.LBB16:
 261              		.loc 2 62 0
 262 0028 2260     		str	r2, [r4, #0]
 263              	.LBE16:
 264              	.LBE19:
 265              		.loc 1 123 0
 266 002a E361     		str	r3, [r4, #28]
 267              		.loc 1 125 0
 268 002c FFF7FEFF 		bl	dbg_trace
 269              	.LVL14:
 270              	.LBB20:
 271 0030 EA69     		ldr	r2, [r5, #28]
 272 0032 ADF12403 		sub	r3, sp, #36
 273 0036 9A42     		cmp	r2, r3
 274 0038 05D9     		bls	.L15
 275              		.loc 1 125 0 is_stmt 0 discriminator 1
 276 003a 40F20000 		movw	r0, #:lower16:.LC1
 277 003e C0F20000 		movt	r0, #:upper16:.LC1
 278 0042 FFF7FEFF 		bl	chDbgPanic
 279              	.L15:
 280              		.loc 1 125 0 discriminator 2
 281 0046 E069     		ldr	r0, [r4, #28]
 282 0048 2946     		mov	r1, r5
 283              	.LBE20:
ARM GAS  C:\Users\z80\AppData\Local\Temp\ccpkiOUa.s 			page 6


 284              		.loc 1 126 0 is_stmt 1 discriminator 2
 285 004a BDE87040 		pop	{r4, r5, r6, lr}
 286              	.LBB21:
 287              		.loc 1 125 0 discriminator 2
 288 004e FFF7FEBF 		b	_port_switch
 289              	.LBE21:
 290              		.cfi_endproc
 291              	.LFE9:
 292              		.size	chSchGoSleepS, .-chSchGoSleepS
 293 0052 00BFAFF3 		.section	.text.chSchGoSleepTimeoutS,"ax",%progbits
 293      0080AFF3 
 293      0080AFF3 
 293      0080
 294              		.align	2
 295              		.p2align 4,,15
 296              		.global	chSchGoSleepTimeoutS
 297              		.thumb
 298              		.thumb_func
 299              		.type	chSchGoSleepTimeoutS, %function
 300              	chSchGoSleepTimeoutS:
 301              	.LFB11:
 302              		.loc 1 183 0
 303              		.cfi_startproc
 304              		@ args = 0, pretend = 0, frame = 24
 305              		@ frame_needed = 0, uses_anonymous_args = 0
 306              	.LVL15:
 307 0000 70B5     		push	{r4, r5, r6, lr}
 308              	.LCFI2:
 309              		.cfi_def_cfa_offset 16
 310              		.cfi_offset 14, -4
 311              		.cfi_offset 6, -8
 312              		.cfi_offset 5, -12
 313              		.cfi_offset 4, -16
 314 0002 0E46     		mov	r6, r1
 315 0004 86B0     		sub	sp, sp, #24
 316              	.LCFI3:
 317              		.cfi_def_cfa_offset 40
 318              		.loc 1 183 0
 319 0006 0546     		mov	r5, r0
 320              		.loc 1 185 0
 321 0008 FFF7FEFF 		bl	chDbgCheckClassS
 322              	.LVL16:
 323              		.loc 1 187 0
 324 000c 731C     		adds	r3, r6, #1
 325 000e 18D0     		beq	.L17
 326              	.LBB22:
 327              		.loc 1 190 0
 328 0010 40F20004 		movw	r4, #:lower16:.LANCHOR0
 329 0014 C0F20004 		movt	r4, #:upper16:.LANCHOR0
 330 0018 40F20002 		movw	r2, #:lower16:wakeup
 331 001c E369     		ldr	r3, [r4, #28]
 332 001e 3146     		mov	r1, r6
 333 0020 C0F20002 		movt	r2, #:upper16:wakeup
 334 0024 01A8     		add	r0, sp, #4
 335 0026 FFF7FEFF 		bl	chVTSetI
 336              		.loc 1 191 0
 337 002a 2846     		mov	r0, r5
ARM GAS  C:\Users\z80\AppData\Local\Temp\ccpkiOUa.s 			page 7


 338 002c FFF7FEFF 		bl	chSchGoSleepS
 339              		.loc 1 192 0
 340 0030 049B     		ldr	r3, [sp, #16]
 341 0032 13B1     		cbz	r3, .L18
 342              		.loc 1 193 0
 343 0034 01A8     		add	r0, sp, #4
 344 0036 FFF7FEFF 		bl	chVTResetI
 345              	.L18:
 346              	.LBE22:
 347              		.loc 1 197 0
 348 003a E069     		ldr	r0, [r4, #28]
 349              		.loc 1 198 0
 350 003c 806A     		ldr	r0, [r0, #40]
 351 003e 06B0     		add	sp, sp, #24
 352 0040 70BD     		pop	{r4, r5, r6, pc}
 353              	.L17:
 354              		.loc 1 196 0
 355 0042 2846     		mov	r0, r5
 356 0044 40F20004 		movw	r4, #:lower16:.LANCHOR0
 357 0048 FFF7FEFF 		bl	chSchGoSleepS
 358 004c C0F20004 		movt	r4, #:upper16:.LANCHOR0
 359 0050 F3E7     		b	.L18
 360              		.cfi_endproc
 361              	.LFE11:
 362              		.size	chSchGoSleepTimeoutS, .-chSchGoSleepTimeoutS
 363 0052 00BFAFF3 		.section	.text.chSchWakeupS,"ax",%progbits
 363      0080AFF3 
 363      0080AFF3 
 363      0080
 364              		.align	2
 365              		.p2align 4,,15
 366              		.global	chSchWakeupS
 367              		.thumb
 368              		.thumb_func
 369              		.type	chSchWakeupS, %function
 370              	chSchWakeupS:
 371              	.LFB12:
 372              		.loc 1 219 0
 373              		.cfi_startproc
 374              		@ args = 0, pretend = 0, frame = 0
 375              		@ frame_needed = 0, uses_anonymous_args = 0
 376              	.LVL17:
 377 0000 70B5     		push	{r4, r5, r6, lr}
 378              	.LCFI4:
 379              		.cfi_def_cfa_offset 16
 380              		.cfi_offset 14, -4
 381              		.cfi_offset 6, -8
 382              		.cfi_offset 5, -12
 383              		.cfi_offset 4, -16
 384              		.loc 1 228 0
 385 0002 40F20005 		movw	r5, #:lower16:.LANCHOR0
 386 0006 C0F20005 		movt	r5, #:upper16:.LANCHOR0
 387              		.loc 1 219 0
 388 000a 0446     		mov	r4, r0
 389 000c 0E46     		mov	r6, r1
 390              		.loc 1 221 0
 391 000e FFF7FEFF 		bl	chDbgCheckClassS
ARM GAS  C:\Users\z80\AppData\Local\Temp\ccpkiOUa.s 			page 8


 392              	.LVL18:
 393              		.loc 1 228 0
 394 0012 E869     		ldr	r0, [r5, #28]
 395 0014 A268     		ldr	r2, [r4, #8]
 396 0016 8368     		ldr	r3, [r0, #8]
 397              		.loc 1 223 0
 398 0018 A662     		str	r6, [r4, #40]
 399              		.loc 1 228 0
 400 001a 9A42     		cmp	r2, r3
 401 001c 15D9     		bls	.L22
 402              	.LBB23:
 403              		.loc 1 231 0
 404 001e FFF7FEFF 		bl	chSchReadyI
 405              		.loc 1 236 0
 406 0022 0123     		movs	r3, #1
 407              		.loc 1 233 0
 408 0024 1422     		movs	r2, #20
 409              		.loc 1 231 0
 410 0026 0646     		mov	r6, r0
 411              	.LVL19:
 412              		.loc 1 236 0
 413 0028 84F82030 		strb	r3, [r4, #32]
 414              		.loc 1 233 0
 415 002c AA61     		str	r2, [r5, #24]
 416              		.loc 1 235 0
 417 002e EC61     		str	r4, [r5, #28]
 418              		.loc 1 237 0
 419 0030 FFF7FEFF 		bl	dbg_trace
 420              	.LVL20:
 421              	.LBB24:
 422 0034 F069     		ldr	r0, [r6, #28]
 423 0036 ADF12401 		sub	r1, sp, #36
 424 003a 8842     		cmp	r0, r1
 425 003c 0AD8     		bhi	.L23
 426              	.L21:
 427              		.loc 1 237 0 is_stmt 0 discriminator 2
 428 003e 2046     		mov	r0, r4
 429 0040 3146     		mov	r1, r6
 430              	.LBE24:
 431              	.LBE23:
 432              		.loc 1 239 0 is_stmt 1 discriminator 2
 433 0042 BDE87040 		pop	{r4, r5, r6, lr}
 434              	.LBB27:
 435              	.LBB25:
 436              		.loc 1 237 0 discriminator 2
 437 0046 FFF7FEBF 		b	_port_switch
 438              	.LVL21:
 439              	.L22:
 440              	.LBE25:
 441              	.LBE27:
 442              		.loc 1 229 0
 443 004a 2046     		mov	r0, r4
 444              		.loc 1 239 0
 445 004c BDE87040 		pop	{r4, r5, r6, lr}
 446              		.loc 1 229 0
 447 0050 FFF7FEBF 		b	chSchReadyI
 448              	.LVL22:
ARM GAS  C:\Users\z80\AppData\Local\Temp\ccpkiOUa.s 			page 9


 449              	.L23:
 450              	.LBB28:
 451              	.LBB26:
 452              		.loc 1 237 0 discriminator 1
 453 0054 40F20000 		movw	r0, #:lower16:.LC1
 454 0058 C0F20000 		movt	r0, #:upper16:.LC1
 455 005c FFF7FEFF 		bl	chDbgPanic
 456 0060 EDE7     		b	.L21
 457              	.LBE26:
 458              	.LBE28:
 459              		.cfi_endproc
 460              	.LFE12:
 461              		.size	chSchWakeupS, .-chSchWakeupS
 462 0062 00BFAFF3 		.section	.text.chSchDoReschedule,"ax",%progbits
 462      0080AFF3 
 462      0080AFF3 
 462      0080
 463              		.align	2
 464              		.p2align 4,,15
 465              		.global	chSchDoReschedule
 466              		.thumb
 467              		.thumb_func
 468              		.type	chSchDoReschedule, %function
 469              	chSchDoReschedule:
 470              	.LFB14:
 471              		.loc 1 298 0
 472              		.cfi_startproc
 473              		@ args = 0, pretend = 0, frame = 0
 474              		@ frame_needed = 0, uses_anonymous_args = 0
 475 0000 38B5     		push	{r3, r4, r5, lr}
 476              	.LCFI5:
 477              		.cfi_def_cfa_offset 16
 478              		.cfi_offset 14, -4
 479              		.cfi_offset 5, -8
 480              		.cfi_offset 4, -12
 481              		.cfi_offset 3, -16
 482              		.loc 1 302 0
 483 0002 40F20004 		movw	r4, #:lower16:.LANCHOR0
 484 0006 C0F20004 		movt	r4, #:upper16:.LANCHOR0
 485              	.LBB29:
 486              	.LBB30:
 487              		.loc 2 60 0
 488 000a 2368     		ldr	r3, [r4, #0]
 489              	.LBE30:
 490              	.LBE29:
 491              		.loc 1 304 0
 492 000c E569     		ldr	r5, [r4, #28]
 493              	.LVL23:
 494              	.LBB34:
 495              	.LBB31:
 496              		.loc 2 62 0
 497 000e 1A68     		ldr	r2, [r3, #0]
 498              	.LBE31:
 499              	.LBE34:
 500              		.loc 1 307 0
 501 0010 0121     		movs	r1, #1
 502              		.loc 1 302 0
ARM GAS  C:\Users\z80\AppData\Local\Temp\ccpkiOUa.s 			page 10


 503 0012 1420     		movs	r0, #20
 504 0014 A061     		str	r0, [r4, #24]
 505              		.loc 1 307 0
 506 0016 83F82010 		strb	r1, [r3, #32]
 507              	.LBB35:
 508              	.LBB32:
 509              		.loc 2 62 0
 510 001a 5460     		str	r4, [r2, #4]
 511              	.LBE32:
 512              	.LBE35:
 513              		.loc 1 308 0
 514 001c 2846     		mov	r0, r5
 515              	.LBB36:
 516              	.LBB33:
 517              		.loc 2 62 0
 518 001e 2260     		str	r2, [r4, #0]
 519              	.LBE33:
 520              	.LBE36:
 521              		.loc 1 306 0
 522 0020 E361     		str	r3, [r4, #28]
 523              		.loc 1 308 0
 524 0022 FFF7FEFF 		bl	chSchReadyI
 525              	.LVL24:
 526              		.loc 1 309 0
 527 0026 2846     		mov	r0, r5
 528 0028 FFF7FEFF 		bl	dbg_trace
 529              	.LBB37:
 530 002c EA69     		ldr	r2, [r5, #28]
 531 002e ADF12403 		sub	r3, sp, #36
 532 0032 9A42     		cmp	r2, r3
 533 0034 05D9     		bls	.L25
 534              		.loc 1 309 0 is_stmt 0 discriminator 1
 535 0036 40F20000 		movw	r0, #:lower16:.LC1
 536 003a C0F20000 		movt	r0, #:upper16:.LC1
 537 003e FFF7FEFF 		bl	chDbgPanic
 538              	.L25:
 539              		.loc 1 309 0 discriminator 2
 540 0042 E069     		ldr	r0, [r4, #28]
 541 0044 2946     		mov	r1, r5
 542              	.LBE37:
 543              		.loc 1 310 0 is_stmt 1 discriminator 2
 544 0046 BDE83840 		pop	{r3, r4, r5, lr}
 545              	.LBB38:
 546              		.loc 1 309 0 discriminator 2
 547 004a FFF7FEBF 		b	_port_switch
 548              	.LBE38:
 549              		.cfi_endproc
 550              	.LFE14:
 551              		.size	chSchDoReschedule, .-chSchDoReschedule
 552 004e 00BF     		.section	.text.chSchRescheduleS,"ax",%progbits
 553              		.align	2
 554              		.p2align 4,,15
 555              		.global	chSchRescheduleS
 556              		.thumb
 557              		.thumb_func
 558              		.type	chSchRescheduleS, %function
 559              	chSchRescheduleS:
ARM GAS  C:\Users\z80\AppData\Local\Temp\ccpkiOUa.s 			page 11


 560              	.LFB13:
 561              		.loc 1 250 0
 562              		.cfi_startproc
 563              		@ args = 0, pretend = 0, frame = 0
 564              		@ frame_needed = 0, uses_anonymous_args = 0
 565 0000 08B5     		push	{r3, lr}
 566              	.LCFI6:
 567              		.cfi_def_cfa_offset 8
 568              		.cfi_offset 14, -4
 569              		.cfi_offset 3, -8
 570              		.loc 1 252 0
 571 0002 FFF7FEFF 		bl	chDbgCheckClassS
 572              		.loc 1 254 0
 573 0006 40F2000C 		movw	ip, #:lower16:.LANCHOR0
 574 000a C0F2000C 		movt	ip, #:upper16:.LANCHOR0
 575 000e DCF80010 		ldr	r1, [ip, #0]
 576 0012 DCF81C00 		ldr	r0, [ip, #28]
 577 0016 8A68     		ldr	r2, [r1, #8]
 578 0018 8368     		ldr	r3, [r0, #8]
 579 001a 9A42     		cmp	r2, r3
 580 001c 00D8     		bhi	.L28
 581 001e 08BD     		pop	{r3, pc}
 582              	.L28:
 583              		.loc 1 256 0
 584 0020 BDE80840 		pop	{r3, lr}
 585              		.loc 1 255 0
 586 0024 FFF7FEBF 		b	chSchDoReschedule
 587              		.cfi_endproc
 588              	.LFE13:
 589              		.size	chSchRescheduleS, .-chSchRescheduleS
 590              		.global	rlist
 591 0028 AFF30080 		.section	.rodata.str1.4,"aMS",%progbits,1
 591      AFF30080 
 592              		.align	2
 593              	.LC0:
 594 0000 63685363 		.ascii	"chSchReadyI(), #1\000"
 594      68526561 
 594      64794928 
 594      292C2023 
 594      3100
 595 0012 0000     		.space	2
 596              	.LC1:
 597 0014 73746163 		.ascii	"stack overflow\000"
 597      6B206F76 
 597      6572666C 
 597      6F7700
 598 0023 00       		.section	.bss.rlist,"aw",%nobits
 599              		.align	2
 600              		.set	.LANCHOR0,. + 0
 601              		.type	rlist, %object
 602              		.size	rlist, 32
 603              	rlist:
 604 0000 00000000 		.space	32
 604      00000000 
 604      00000000 
 604      00000000 
 604      00000000 
ARM GAS  C:\Users\z80\AppData\Local\Temp\ccpkiOUa.s 			page 12


 605              		.text
 606              	.Letext0:
 607              		.file 3 "c:\\programs\\codesourcery\\2011.03-56\\bin\\../lib/gcc/arm-none-eabi/4.6.3/../../../../a
 608              		.file 4 "../chibios_2.4.x/os/ports/GCC/ARMCMx/chtypes.h"
 609              		.file 5 "../chibios_2.4.x/os/kernel/include/chlists.h"
 610              		.file 6 "../chibios_2.4.x/os/kernel/include/chthreads.h"
 611              		.file 7 "../chibios_2.4.x/os/ports/GCC/ARMCMx/chcore_v7m.h"
 612              		.file 8 "../chibios_2.4.x/os/kernel/include/chvt.h"
 613              		.file 9 "../chibios_2.4.x/os/kernel/include/chschd.h"
 614              		.file 10 "../chibios_2.4.x/os/kernel/include/chsem.h"
 615              		.file 11 "../chibios_2.4.x/os/kernel/include/chmtx.h"