ARM GAS  C:\Users\z80\AppData\Local\Temp\ccgPhA14.s 			page 1


   1              		.syntax unified
   2              		.cpu cortex-m3
   3              		.fpu softvfp
   4              		.eabi_attribute 20, 1
   5              		.eabi_attribute 21, 1
   6              		.eabi_attribute 23, 3
   7              		.eabi_attribute 24, 1
   8              		.eabi_attribute 25, 1
   9              		.eabi_attribute 26, 1
  10              		.eabi_attribute 30, 2
  11              		.eabi_attribute 34, 1
  12              		.eabi_attribute 18, 4
  13              		.thumb
  14              		.file	"chsem.c"
  15              		.text
  16              	.Ltext0:
  17              		.cfi_sections	.debug_frame
  18              		.section	.text.chSemInit,"ax",%progbits
  19              		.align	2
  20              		.p2align 4,,15
  21              		.global	chSemInit
  22              		.thumb
  23              		.thumb_func
  24              		.type	chSemInit, %function
  25              	chSemInit:
  26              	.LFB7:
  27              		.file 1 "../chibios_2.4.x/os/kernel/src/chsem.c"
  28              		.loc 1 86 0
  29              		.cfi_startproc
  30              		@ args = 0, pretend = 0, frame = 0
  31              		@ frame_needed = 0, uses_anonymous_args = 0
  32              	.LVL0:
  33 0000 38B5     		push	{r3, r4, r5, lr}
  34              	.LCFI0:
  35              		.cfi_def_cfa_offset 16
  36              		.cfi_offset 14, -4
  37              		.cfi_offset 5, -8
  38              		.cfi_offset 4, -12
  39              		.cfi_offset 3, -16
  40              		.loc 1 88 0
  41 0002 D0F10103 		rsbs	r3, r0, #1
  42 0006 38BF     		it	cc
  43 0008 0023     		movcc	r3, #0
  44 000a 53EAD173 		orrs	r3, r3, r1, lsr #31
  45 000e 0446     		mov	r4, r0
  46              		.loc 1 86 0
  47 0010 0D46     		mov	r5, r1
  48              		.loc 1 88 0
  49 0012 05D0     		beq	.L2
  50              		.loc 1 88 0 is_stmt 0 discriminator 1
  51 0014 40F20000 		movw	r0, #:lower16:.LC0
  52              	.LVL1:
  53 0018 C0F20000 		movt	r0, #:upper16:.LC0
  54 001c FFF7FEFF 		bl	chDbgPanic
  55              	.LVL2:
  56              	.L2:
  57              		.loc 1 90 0 is_stmt 1
ARM GAS  C:\Users\z80\AppData\Local\Temp\ccgPhA14.s 			page 2


  58 0020 6460     		str	r4, [r4, #4]
  59 0022 2460     		str	r4, [r4, #0]
  60              		.loc 1 91 0
  61 0024 A560     		str	r5, [r4, #8]
  62              		.loc 1 92 0
  63 0026 38BD     		pop	{r3, r4, r5, pc}
  64              		.cfi_endproc
  65              	.LFE7:
  66              		.size	chSemInit, .-chSemInit
  67 0028 AFF30080 		.section	.text.chSemResetI,"ax",%progbits
  67      AFF30080 
  68              		.align	2
  69              		.p2align 4,,15
  70              		.global	chSemResetI
  71              		.thumb
  72              		.thumb_func
  73              		.type	chSemResetI, %function
  74              	chSemResetI:
  75              	.LFB9:
  76              		.loc 1 136 0
  77              		.cfi_startproc
  78              		@ args = 0, pretend = 0, frame = 0
  79              		@ frame_needed = 0, uses_anonymous_args = 0
  80              	.LVL3:
  81 0000 F8B5     		push	{r3, r4, r5, r6, r7, lr}
  82              	.LCFI1:
  83              		.cfi_def_cfa_offset 24
  84              		.cfi_offset 14, -4
  85              		.cfi_offset 7, -8
  86              		.cfi_offset 6, -12
  87              		.cfi_offset 5, -16
  88              		.cfi_offset 4, -20
  89              		.cfi_offset 3, -24
  90              		.loc 1 136 0
  91 0002 0446     		mov	r4, r0
  92 0004 0E46     		mov	r6, r1
  93              		.loc 1 139 0
  94 0006 FFF7FEFF 		bl	chDbgCheckClassI
  95              	.LVL4:
  96              		.loc 1 140 0
  97 000a D4F10103 		rsbs	r3, r4, #1
  98 000e 38BF     		it	cc
  99 0010 0023     		movcc	r3, #0
 100 0012 53EAD673 		orrs	r3, r3, r6, lsr #31
 101 0016 3FD1     		bne	.L18
 102              	.L5:
 103              		.loc 1 141 0
 104 0018 A568     		ldr	r5, [r4, #8]
 105 001a 2368     		ldr	r3, [r4, #0]
 106 001c 002D     		cmp	r5, #0
 107 001e 38DB     		blt	.L6
 108              		.loc 1 141 0 is_stmt 0 discriminator 2
 109 0020 A342     		cmp	r3, r4
 110 0022 06D0     		beq	.L8
 111              	.L7:
 112              		.loc 1 141 0 discriminator 3
 113 0024 40F20000 		movw	r0, #:lower16:.LC2
ARM GAS  C:\Users\z80\AppData\Local\Temp\ccgPhA14.s 			page 3


 114 0028 C0F20000 		movt	r0, #:upper16:.LC2
 115 002c FFF7FEFF 		bl	chDbgPanic
 116 0030 A568     		ldr	r5, [r4, #8]
 117              	.L8:
 118              	.LVL5:
 119              		.loc 1 148 0 is_stmt 1
 120 0032 0135     		adds	r5, r5, #1
 121              	.LVL6:
 122 0034 002D     		cmp	r5, #0
 123              		.loc 1 147 0
 124 0036 A660     		str	r6, [r4, #8]
 125              	.LVL7:
 126              		.loc 1 148 0
 127 0038 2ADC     		bgt	.L4
 128              	.LBB24:
 129              	.LBB25:
 130              		.file 2 "../chibios_2.4.x/os/kernel/include/chinline.h"
 131              		.loc 2 67 0
 132 003a 6068     		ldr	r0, [r4, #4]
 133              	.LBE25:
 134              	.LBE24:
 135              		.loc 1 149 0
 136 003c 6FF00107 		mvn	r7, #1
 137              	.LBB34:
 138              	.LBB26:
 139              		.loc 2 69 0
 140 0040 4168     		ldr	r1, [r0, #4]
 141              	.LBE26:
 142              	.LBE34:
 143              		.loc 1 148 0
 144 0042 6E1C     		adds	r6, r5, #1
 145              	.LVL8:
 146              	.LBB35:
 147              	.LBB27:
 148              		.loc 2 69 0
 149 0044 6160     		str	r1, [r4, #4]
 150 0046 0C60     		str	r4, [r1, #0]
 151              	.LBE27:
 152              	.LBE35:
 153              		.loc 1 149 0
 154 0048 FFF7FEFF 		bl	chSchReadyI
 155              	.LVL9:
 156 004c 05F00103 		and	r3, r5, #1
 157              	.LVL10:
 158 0050 8762     		str	r7, [r0, #40]
 159              		.loc 1 148 0
 160 0052 002D     		cmp	r5, #0
 161 0054 27D0     		beq	.L19
 162 0056 4BB1     		cbz	r3, .L11
 163              	.LBB36:
 164              	.LBB28:
 165              		.loc 2 67 0
 166 0058 6068     		ldr	r0, [r4, #4]
 167              	.LVL11:
 168              	.LBE28:
 169              	.LBE36:
 170              		.loc 1 148 0
ARM GAS  C:\Users\z80\AppData\Local\Temp\ccgPhA14.s 			page 4


 171 005a 0136     		adds	r6, r6, #1
 172              	.LBB37:
 173              	.LBB29:
 174              		.loc 2 69 0
 175 005c 4168     		ldr	r1, [r0, #4]
 176 005e 6160     		str	r1, [r4, #4]
 177 0060 0C60     		str	r4, [r1, #0]
 178              	.LBE29:
 179              	.LBE37:
 180              		.loc 1 149 0
 181 0062 FFF7FEFF 		bl	chSchReadyI
 182              		.loc 1 148 0
 183 0066 012E     		cmp	r6, #1
 184              		.loc 1 149 0
 185 0068 8762     		str	r7, [r0, #40]
 186              	.LVL12:
 187              		.loc 1 148 0
 188 006a 1DD0     		beq	.L20
 189              	.L11:
 190              	.LBB38:
 191              	.LBB30:
 192              		.loc 2 67 0
 193 006c 6068     		ldr	r0, [r4, #4]
 194              	.LBE30:
 195              	.LBE38:
 196              		.loc 1 148 0
 197 006e 751C     		adds	r5, r6, #1
 198              	.LBB39:
 199              	.LBB31:
 200              		.loc 2 69 0
 201 0070 4368     		ldr	r3, [r0, #4]
 202              	.LBE31:
 203              	.LBE39:
 204              		.loc 1 148 0
 205 0072 0236     		adds	r6, r6, #2
 206              	.LBB40:
 207              	.LBB32:
 208              		.loc 2 69 0
 209 0074 6360     		str	r3, [r4, #4]
 210 0076 1C60     		str	r4, [r3, #0]
 211              	.LBE32:
 212              	.LBE40:
 213              		.loc 1 149 0
 214 0078 FFF7FEFF 		bl	chSchReadyI
 215 007c 8762     		str	r7, [r0, #40]
 216              	.LBB41:
 217              	.LBB33:
 218              		.loc 2 67 0
 219 007e 6068     		ldr	r0, [r4, #4]
 220              		.loc 2 69 0
 221 0080 4268     		ldr	r2, [r0, #4]
 222 0082 6260     		str	r2, [r4, #4]
 223 0084 1460     		str	r4, [r2, #0]
 224              	.LBE33:
 225              	.LBE41:
 226              		.loc 1 149 0
 227 0086 FFF7FEFF 		bl	chSchReadyI
ARM GAS  C:\Users\z80\AppData\Local\Temp\ccgPhA14.s 			page 5


 228 008a 8762     		str	r7, [r0, #40]
 229              		.loc 1 148 0
 230 008c 002D     		cmp	r5, #0
 231 008e EDD1     		bne	.L11
 232              	.LVL13:
 233              	.L4:
 234 0090 F8BD     		pop	{r3, r4, r5, r6, r7, pc}
 235              	.LVL14:
 236              	.L6:
 237              		.loc 1 141 0 discriminator 4
 238 0092 A342     		cmp	r3, r4
 239 0094 CDD1     		bne	.L8
 240 0096 C5E7     		b	.L7
 241              	.L18:
 242              		.loc 1 140 0 discriminator 1
 243 0098 40F20000 		movw	r0, #:lower16:.LC1
 244 009c C0F20000 		movt	r0, #:upper16:.LC1
 245 00a0 FFF7FEFF 		bl	chDbgPanic
 246 00a4 B8E7     		b	.L5
 247              	.LVL15:
 248              	.L19:
 249 00a6 F8BD     		pop	{r3, r4, r5, r6, r7, pc}
 250              	.LVL16:
 251              	.L20:
 252 00a8 F8BD     		pop	{r3, r4, r5, r6, r7, pc}
 253              		.cfi_endproc
 254              	.LFE9:
 255              		.size	chSemResetI, .-chSemResetI
 256 00aa 00BFAFF3 		.section	.text.chSemReset,"ax",%progbits
 256      0080
 257              		.align	2
 258              		.p2align 4,,15
 259              		.global	chSemReset
 260              		.thumb
 261              		.thumb_func
 262              		.type	chSemReset, %function
 263              	chSemReset:
 264              	.LFB8:
 265              		.loc 1 109 0
 266              		.cfi_startproc
 267              		@ args = 0, pretend = 0, frame = 0
 268              		@ frame_needed = 0, uses_anonymous_args = 0
 269              	.LVL17:
 270 0000 38B5     		push	{r3, r4, r5, lr}
 271              	.LCFI2:
 272              		.cfi_def_cfa_offset 16
 273              		.cfi_offset 14, -4
 274              		.cfi_offset 5, -8
 275              		.cfi_offset 4, -12
 276              		.cfi_offset 3, -16
 277              		.loc 1 109 0
 278 0002 0546     		mov	r5, r0
 279 0004 0C46     		mov	r4, r1
 280              	.LBB42:
 281              		.loc 1 111 0
 282 0006 2023     		movs	r3, #32
 283              	.LVL18:
ARM GAS  C:\Users\z80\AppData\Local\Temp\ccgPhA14.s 			page 6


 284              	@ 111 "../chibios_2.4.x/os/kernel/src/chsem.c" 1
 285 0008 83F31188 		msr     BASEPRI, r3
 286              	@ 0 "" 2
 287              	.LVL19:
 288              		.thumb
 289              	.LBE42:
 290 000c FFF7FEFF 		bl	dbg_check_lock
 291              	.LVL20:
 292              		.loc 1 112 0
 293 0010 2846     		mov	r0, r5
 294 0012 2146     		mov	r1, r4
 295 0014 FFF7FEFF 		bl	chSemResetI
 296              		.loc 1 113 0
 297 0018 FFF7FEFF 		bl	chSchRescheduleS
 298              		.loc 1 114 0
 299 001c FFF7FEFF 		bl	dbg_check_unlock
 300              	.LBB43:
 301 0020 0023     		movs	r3, #0
 302              	.LVL21:
 303              	@ 114 "../chibios_2.4.x/os/kernel/src/chsem.c" 1
 304 0022 83F31188 		msr     BASEPRI, r3
 305              	@ 0 "" 2
 306              	.LVL22:
 307              		.thumb
 308              	.LBE43:
 309              		.loc 1 115 0
 310 0026 38BD     		pop	{r3, r4, r5, pc}
 311              		.cfi_endproc
 312              	.LFE8:
 313              		.size	chSemReset, .-chSemReset
 314 0028 AFF30080 		.section	.text.chSemWaitS,"ax",%progbits
 314      AFF30080 
 315              		.align	2
 316              		.p2align 4,,15
 317              		.global	chSemWaitS
 318              		.thumb
 319              		.thumb_func
 320              		.type	chSemWaitS, %function
 321              	chSemWaitS:
 322              	.LFB11:
 323              		.loc 1 185 0
 324              		.cfi_startproc
 325              		@ args = 0, pretend = 0, frame = 0
 326              		@ frame_needed = 0, uses_anonymous_args = 0
 327              	.LVL23:
 328 0000 38B5     		push	{r3, r4, r5, lr}
 329              	.LCFI3:
 330              		.cfi_def_cfa_offset 16
 331              		.cfi_offset 14, -4
 332              		.cfi_offset 5, -8
 333              		.cfi_offset 4, -12
 334              		.cfi_offset 3, -16
 335              		.loc 1 185 0
 336 0002 0446     		mov	r4, r0
 337              		.loc 1 187 0
 338 0004 FFF7FEFF 		bl	chDbgCheckClassS
 339              	.LVL24:
ARM GAS  C:\Users\z80\AppData\Local\Temp\ccgPhA14.s 			page 7


 340              		.loc 1 188 0
 341 0008 002C     		cmp	r4, #0
 342 000a 29D0     		beq	.L30
 343              	.L23:
 344              		.loc 1 189 0
 345 000c A368     		ldr	r3, [r4, #8]
 346 000e 2268     		ldr	r2, [r4, #0]
 347 0010 002B     		cmp	r3, #0
 348 0012 0EDB     		blt	.L24
 349              		.loc 1 189 0 is_stmt 0 discriminator 2
 350 0014 A242     		cmp	r2, r4
 351 0016 06D0     		beq	.L26
 352              	.L25:
 353              		.loc 1 189 0 discriminator 3
 354 0018 40F20000 		movw	r0, #:lower16:.LC4
 355 001c C0F20000 		movt	r0, #:upper16:.LC4
 356 0020 FFF7FEFF 		bl	chDbgPanic
 357 0024 A368     		ldr	r3, [r4, #8]
 358              	.L26:
 359              		.loc 1 194 0 is_stmt 1
 360 0026 013B     		subs	r3, r3, #1
 361 0028 002B     		cmp	r3, #0
 362 002a A360     		str	r3, [r4, #8]
 363 002c 07DB     		blt	.L31
 364              	.L28:
 365              		.loc 1 200 0
 366 002e 0020     		movs	r0, #0
 367              		.loc 1 201 0
 368 0030 38BD     		pop	{r3, r4, r5, pc}
 369              	.L24:
 370              		.loc 1 189 0 discriminator 4
 371 0032 A242     		cmp	r2, r4
 372 0034 F0D0     		beq	.L25
 373              		.loc 1 194 0
 374 0036 013B     		subs	r3, r3, #1
 375 0038 002B     		cmp	r3, #0
 376 003a A360     		str	r3, [r4, #8]
 377 003c F7DA     		bge	.L28
 378              	.L31:
 379              		.loc 1 195 0
 380 003e 40F20005 		movw	r5, #:lower16:rlist
 381 0042 C0F20005 		movt	r5, #:upper16:rlist
 382 0046 E969     		ldr	r1, [r5, #28]
 383              		.loc 1 197 0
 384 0048 0320     		movs	r0, #3
 385              		.loc 1 195 0
 386 004a 8C62     		str	r4, [r1, #40]
 387              	.LVL25:
 388              	.LBB44:
 389              	.LBB45:
 390              		.loc 2 55 0
 391 004c 6268     		ldr	r2, [r4, #4]
 392              		.loc 2 54 0
 393 004e 0C60     		str	r4, [r1, #0]
 394              		.loc 2 55 0
 395 0050 4A60     		str	r2, [r1, #4]
 396              		.loc 2 56 0
ARM GAS  C:\Users\z80\AppData\Local\Temp\ccgPhA14.s 			page 8


 397 0052 6160     		str	r1, [r4, #4]
 398 0054 1160     		str	r1, [r2, #0]
 399              	.LBE45:
 400              	.LBE44:
 401              		.loc 1 197 0
 402 0056 FFF7FEFF 		bl	chSchGoSleepS
 403              	.LVL26:
 404              		.loc 1 198 0
 405 005a E869     		ldr	r0, [r5, #28]
 406 005c 806A     		ldr	r0, [r0, #40]
 407 005e 38BD     		pop	{r3, r4, r5, pc}
 408              	.LVL27:
 409              	.L30:
 410              		.loc 1 188 0 discriminator 1
 411 0060 40F20000 		movw	r0, #:lower16:.LC3
 412 0064 C0F20000 		movt	r0, #:upper16:.LC3
 413 0068 FFF7FEFF 		bl	chDbgPanic
 414 006c CEE7     		b	.L23
 415              		.cfi_endproc
 416              	.LFE11:
 417              		.size	chSemWaitS, .-chSemWaitS
 418 006e 00BF     		.section	.text.chSemWait,"ax",%progbits
 419              		.align	2
 420              		.p2align 4,,15
 421              		.global	chSemWait
 422              		.thumb
 423              		.thumb_func
 424              		.type	chSemWait, %function
 425              	chSemWait:
 426              	.LFB10:
 427              		.loc 1 164 0
 428              		.cfi_startproc
 429              		@ args = 0, pretend = 0, frame = 0
 430              		@ frame_needed = 0, uses_anonymous_args = 0
 431              	.LVL28:
 432 0000 10B5     		push	{r4, lr}
 433              	.LCFI4:
 434              		.cfi_def_cfa_offset 8
 435              		.cfi_offset 14, -4
 436              		.cfi_offset 4, -8
 437              	.LBB46:
 438              		.loc 1 167 0
 439 0002 2023     		movs	r3, #32
 440              	.LVL29:
 441              	.LBE46:
 442              		.loc 1 164 0
 443 0004 0446     		mov	r4, r0
 444              	.LBB47:
 445              		.loc 1 167 0
 446              	@ 167 "../chibios_2.4.x/os/kernel/src/chsem.c" 1
 447 0006 83F31188 		msr     BASEPRI, r3
 448              	@ 0 "" 2
 449              	.LVL30:
 450              		.thumb
 451              	.LBE47:
 452 000a FFF7FEFF 		bl	dbg_check_lock
 453              	.LVL31:
ARM GAS  C:\Users\z80\AppData\Local\Temp\ccgPhA14.s 			page 9


 454              		.loc 1 168 0
 455 000e 2046     		mov	r0, r4
 456 0010 FFF7FEFF 		bl	chSemWaitS
 457 0014 0446     		mov	r4, r0
 458              	.LVL32:
 459              		.loc 1 169 0
 460 0016 FFF7FEFF 		bl	dbg_check_unlock
 461              	.LVL33:
 462              	.LBB48:
 463 001a 0023     		movs	r3, #0
 464              	.LVL34:
 465              	@ 169 "../chibios_2.4.x/os/kernel/src/chsem.c" 1
 466 001c 83F31188 		msr     BASEPRI, r3
 467              	@ 0 "" 2
 468              	.LVL35:
 469              		.thumb
 470              	.LBE48:
 471              		.loc 1 171 0
 472 0020 2046     		mov	r0, r4
 473 0022 10BD     		pop	{r4, pc}
 474              		.cfi_endproc
 475              	.LFE10:
 476              		.size	chSemWait, .-chSemWait
 477 0024 AFF30080 		.section	.text.chSemWaitTimeoutS,"ax",%progbits
 477      AFF30080 
 477      AFF30080 
 478              		.align	2
 479              		.p2align 4,,15
 480              		.global	chSemWaitTimeoutS
 481              		.thumb
 482              		.thumb_func
 483              		.type	chSemWaitTimeoutS, %function
 484              	chSemWaitTimeoutS:
 485              	.LFB13:
 486              		.loc 1 250 0
 487              		.cfi_startproc
 488              		@ args = 0, pretend = 0, frame = 0
 489              		@ frame_needed = 0, uses_anonymous_args = 0
 490              	.LVL36:
 491 0000 38B5     		push	{r3, r4, r5, lr}
 492              	.LCFI5:
 493              		.cfi_def_cfa_offset 16
 494              		.cfi_offset 14, -4
 495              		.cfi_offset 5, -8
 496              		.cfi_offset 4, -12
 497              		.cfi_offset 3, -16
 498              		.loc 1 250 0
 499 0002 0446     		mov	r4, r0
 500 0004 0D46     		mov	r5, r1
 501              		.loc 1 252 0
 502 0006 FFF7FEFF 		bl	chDbgCheckClassS
 503              	.LVL37:
 504              		.loc 1 253 0
 505 000a 002C     		cmp	r4, #0
 506 000c 2AD0     		beq	.L42
 507              	.L34:
 508              		.loc 1 254 0
ARM GAS  C:\Users\z80\AppData\Local\Temp\ccgPhA14.s 			page 10


 509 000e A368     		ldr	r3, [r4, #8]
 510 0010 2268     		ldr	r2, [r4, #0]
 511 0012 002B     		cmp	r3, #0
 512 0014 0EDB     		blt	.L35
 513              		.loc 1 254 0 is_stmt 0 discriminator 2
 514 0016 A242     		cmp	r2, r4
 515 0018 06D0     		beq	.L37
 516              	.L36:
 517              		.loc 1 254 0 discriminator 3
 518 001a 40F20000 		movw	r0, #:lower16:.LC6
 519 001e C0F20000 		movt	r0, #:upper16:.LC6
 520 0022 FFF7FEFF 		bl	chDbgPanic
 521 0026 A368     		ldr	r3, [r4, #8]
 522              	.L37:
 523              		.loc 1 259 0 is_stmt 1
 524 0028 5A1E     		subs	r2, r3, #1
 525 002a 002A     		cmp	r2, #0
 526 002c A260     		str	r2, [r4, #8]
 527 002e 07DB     		blt	.L43
 528              	.L40:
 529              		.loc 1 268 0
 530 0030 0020     		movs	r0, #0
 531              		.loc 1 269 0
 532 0032 38BD     		pop	{r3, r4, r5, pc}
 533              	.L35:
 534              		.loc 1 254 0 discriminator 4
 535 0034 A242     		cmp	r2, r4
 536 0036 F0D0     		beq	.L36
 537              		.loc 1 259 0
 538 0038 5A1E     		subs	r2, r3, #1
 539 003a 002A     		cmp	r2, #0
 540 003c A260     		str	r2, [r4, #8]
 541 003e F7DA     		bge	.L40
 542              	.L43:
 543              		.loc 1 260 0
 544 0040 BDB1     		cbz	r5, .L44
 545              		.loc 1 264 0
 546 0042 40F20000 		movw	r0, #:lower16:rlist
 547 0046 C0F20000 		movt	r0, #:upper16:rlist
 548 004a C369     		ldr	r3, [r0, #28]
 549              		.loc 1 266 0
 550 004c 2946     		mov	r1, r5
 551              		.loc 1 264 0
 552 004e 9C62     		str	r4, [r3, #40]
 553              	.LVL38:
 554              	.LBB49:
 555              	.LBB50:
 556              		.loc 2 55 0
 557 0050 6268     		ldr	r2, [r4, #4]
 558              	.LBE50:
 559              	.LBE49:
 560              		.loc 1 266 0
 561 0052 0320     		movs	r0, #3
 562              	.LVL39:
 563              	.LBB52:
 564              	.LBB51:
 565              		.loc 2 54 0
ARM GAS  C:\Users\z80\AppData\Local\Temp\ccgPhA14.s 			page 11


 566 0054 1C60     		str	r4, [r3, #0]
 567              		.loc 2 55 0
 568 0056 5A60     		str	r2, [r3, #4]
 569              		.loc 2 56 0
 570 0058 6360     		str	r3, [r4, #4]
 571 005a 1360     		str	r3, [r2, #0]
 572              	.LBE51:
 573              	.LBE52:
 574              		.loc 1 269 0
 575 005c BDE83840 		pop	{r3, r4, r5, lr}
 576              		.loc 1 266 0
 577 0060 FFF7FEBF 		b	chSchGoSleepTimeoutS
 578              	.LVL40:
 579              	.L42:
 580              		.loc 1 253 0 discriminator 1
 581 0064 40F20000 		movw	r0, #:lower16:.LC5
 582 0068 C0F20000 		movt	r0, #:upper16:.LC5
 583 006c FFF7FEFF 		bl	chDbgPanic
 584 0070 CDE7     		b	.L34
 585              	.L44:
 586              		.loc 1 261 0
 587 0072 A360     		str	r3, [r4, #8]
 588              		.loc 1 262 0
 589 0074 4FF0FF30 		mov	r0, #-1
 590 0078 38BD     		pop	{r3, r4, r5, pc}
 591              		.cfi_endproc
 592              	.LFE13:
 593              		.size	chSemWaitTimeoutS, .-chSemWaitTimeoutS
 594 007a 00BFAFF3 		.section	.text.chSemWaitTimeout,"ax",%progbits
 594      0080
 595              		.align	2
 596              		.p2align 4,,15
 597              		.global	chSemWaitTimeout
 598              		.thumb
 599              		.thumb_func
 600              		.type	chSemWaitTimeout, %function
 601              	chSemWaitTimeout:
 602              	.LFB12:
 603              		.loc 1 222 0
 604              		.cfi_startproc
 605              		@ args = 0, pretend = 0, frame = 0
 606              		@ frame_needed = 0, uses_anonymous_args = 0
 607              	.LVL41:
 608 0000 38B5     		push	{r3, r4, r5, lr}
 609              	.LCFI6:
 610              		.cfi_def_cfa_offset 16
 611              		.cfi_offset 14, -4
 612              		.cfi_offset 5, -8
 613              		.cfi_offset 4, -12
 614              		.cfi_offset 3, -16
 615              		.loc 1 222 0
 616 0002 0546     		mov	r5, r0
 617 0004 0C46     		mov	r4, r1
 618              	.LBB53:
 619              		.loc 1 225 0
 620 0006 2023     		movs	r3, #32
 621              	.LVL42:
ARM GAS  C:\Users\z80\AppData\Local\Temp\ccgPhA14.s 			page 12


 622              	@ 225 "../chibios_2.4.x/os/kernel/src/chsem.c" 1
 623 0008 83F31188 		msr     BASEPRI, r3
 624              	@ 0 "" 2
 625              	.LVL43:
 626              		.thumb
 627              	.LBE53:
 628 000c FFF7FEFF 		bl	dbg_check_lock
 629              	.LVL44:
 630              		.loc 1 226 0
 631 0010 2146     		mov	r1, r4
 632 0012 2846     		mov	r0, r5
 633 0014 FFF7FEFF 		bl	chSemWaitTimeoutS
 634 0018 0446     		mov	r4, r0
 635              	.LVL45:
 636              		.loc 1 227 0
 637 001a FFF7FEFF 		bl	dbg_check_unlock
 638              	.LVL46:
 639              	.LBB54:
 640 001e 0023     		movs	r3, #0
 641              	.LVL47:
 642              	@ 227 "../chibios_2.4.x/os/kernel/src/chsem.c" 1
 643 0020 83F31188 		msr     BASEPRI, r3
 644              	@ 0 "" 2
 645              	.LVL48:
 646              		.thumb
 647              	.LBE54:
 648              		.loc 1 229 0
 649 0024 2046     		mov	r0, r4
 650 0026 38BD     		pop	{r3, r4, r5, pc}
 651              		.cfi_endproc
 652              	.LFE12:
 653              		.size	chSemWaitTimeout, .-chSemWaitTimeout
 654 0028 AFF30080 		.section	.text.chSemSignal,"ax",%progbits
 654      AFF30080 
 655              		.align	2
 656              		.p2align 4,,15
 657              		.global	chSemSignal
 658              		.thumb
 659              		.thumb_func
 660              		.type	chSemSignal, %function
 661              	chSemSignal:
 662              	.LFB14:
 663              		.loc 1 278 0
 664              		.cfi_startproc
 665              		@ args = 0, pretend = 0, frame = 0
 666              		@ frame_needed = 0, uses_anonymous_args = 0
 667              	.LVL49:
 668 0000 10B5     		push	{r4, lr}
 669              	.LCFI7:
 670              		.cfi_def_cfa_offset 8
 671              		.cfi_offset 14, -4
 672              		.cfi_offset 4, -8
 673              		.loc 1 280 0
 674 0002 0446     		mov	r4, r0
 675 0004 0028     		cmp	r0, #0
 676 0006 34D0     		beq	.L53
 677              	.LVL50:
ARM GAS  C:\Users\z80\AppData\Local\Temp\ccgPhA14.s 			page 13


 678              	.L47:
 679              		.loc 1 281 0
 680 0008 A368     		ldr	r3, [r4, #8]
 681 000a 002B     		cmp	r3, #0
 682 000c 2368     		ldr	r3, [r4, #0]
 683 000e 17DB     		blt	.L48
 684              		.loc 1 281 0 is_stmt 0 discriminator 2
 685 0010 A342     		cmp	r3, r4
 686 0012 05D0     		beq	.L50
 687              	.L49:
 688              		.loc 1 281 0 discriminator 3
 689 0014 40F20000 		movw	r0, #:lower16:.LC8
 690 0018 C0F20000 		movt	r0, #:upper16:.LC8
 691 001c FFF7FEFF 		bl	chDbgPanic
 692              	.L50:
 693              	.LBB55:
 694              		.loc 1 286 0 is_stmt 1
 695 0020 2023     		movs	r3, #32
 696              	.LVL51:
 697              	@ 286 "../chibios_2.4.x/os/kernel/src/chsem.c" 1
 698 0022 83F31188 		msr     BASEPRI, r3
 699              	@ 0 "" 2
 700              	.LVL52:
 701              		.thumb
 702              	.LBE55:
 703 0026 FFF7FEFF 		bl	dbg_check_lock
 704              	.LVL53:
 705              		.loc 1 287 0
 706 002a A168     		ldr	r1, [r4, #8]
 707 002c 481C     		adds	r0, r1, #1
 708 002e 0028     		cmp	r0, #0
 709 0030 A060     		str	r0, [r4, #8]
 710 0032 11DD     		ble	.L54
 711              	.L51:
 712              		.loc 1 289 0
 713 0034 FFF7FEFF 		bl	dbg_check_unlock
 714              	.LBB56:
 715 0038 0023     		movs	r3, #0
 716              	.LVL54:
 717              	@ 289 "../chibios_2.4.x/os/kernel/src/chsem.c" 1
 718 003a 83F31188 		msr     BASEPRI, r3
 719              	@ 0 "" 2
 720              	.LVL55:
 721              		.thumb
 722              	.LBE56:
 723              		.loc 1 290 0
 724 003e 10BD     		pop	{r4, pc}
 725              	.LVL56:
 726              	.L48:
 727              		.loc 1 281 0 discriminator 4
 728 0040 A342     		cmp	r3, r4
 729 0042 E7D0     		beq	.L49
 730              	.LBB57:
 731              		.loc 1 286 0
 732 0044 2023     		movs	r3, #32
 733              	@ 286 "../chibios_2.4.x/os/kernel/src/chsem.c" 1
 734 0046 83F31188 		msr     BASEPRI, r3
ARM GAS  C:\Users\z80\AppData\Local\Temp\ccgPhA14.s 			page 14


 735              	@ 0 "" 2
 736              	.LVL57:
 737              		.thumb
 738              	.LBE57:
 739 004a FFF7FEFF 		bl	dbg_check_lock
 740              	.LVL58:
 741              		.loc 1 287 0
 742 004e A168     		ldr	r1, [r4, #8]
 743 0050 481C     		adds	r0, r1, #1
 744 0052 0028     		cmp	r0, #0
 745 0054 A060     		str	r0, [r4, #8]
 746 0056 EDDC     		bgt	.L51
 747              	.L54:
 748              	.LVL59:
 749              	.LBB58:
 750              	.LBB59:
 751              		.loc 2 60 0
 752 0058 2068     		ldr	r0, [r4, #0]
 753              	.LVL60:
 754              	.LBE59:
 755              	.LBE58:
 756              		.loc 1 288 0
 757 005a 0021     		movs	r1, #0
 758              	.LBB61:
 759              	.LBB60:
 760              		.loc 2 62 0
 761 005c 0268     		ldr	r2, [r0, #0]
 762 005e 2260     		str	r2, [r4, #0]
 763 0060 5460     		str	r4, [r2, #4]
 764              	.LBE60:
 765              	.LBE61:
 766              		.loc 1 288 0
 767 0062 FFF7FEFF 		bl	chSchWakeupS
 768              	.LVL61:
 769              		.loc 1 289 0
 770 0066 FFF7FEFF 		bl	dbg_check_unlock
 771              	.LBB62:
 772 006a 0023     		movs	r3, #0
 773              	@ 289 "../chibios_2.4.x/os/kernel/src/chsem.c" 1
 774 006c 83F31188 		msr     BASEPRI, r3
 775              	@ 0 "" 2
 776              	.LVL62:
 777              		.thumb
 778              	.LBE62:
 779              		.loc 1 290 0
 780 0070 10BD     		pop	{r4, pc}
 781              	.LVL63:
 782              	.L53:
 783              		.loc 1 280 0 discriminator 1
 784 0072 40F20000 		movw	r0, #:lower16:.LC7
 785 0076 C0F20000 		movt	r0, #:upper16:.LC7
 786 007a FFF7FEFF 		bl	chDbgPanic
 787 007e C3E7     		b	.L47
 788              		.cfi_endproc
 789              	.LFE14:
 790              		.size	chSemSignal, .-chSemSignal
 791              		.section	.text.chSemSignalI,"ax",%progbits
ARM GAS  C:\Users\z80\AppData\Local\Temp\ccgPhA14.s 			page 15


 792              		.align	2
 793              		.p2align 4,,15
 794              		.global	chSemSignalI
 795              		.thumb
 796              		.thumb_func
 797              		.type	chSemSignalI, %function
 798              	chSemSignalI:
 799              	.LFB15:
 800              		.loc 1 303 0
 801              		.cfi_startproc
 802              		@ args = 0, pretend = 0, frame = 0
 803              		@ frame_needed = 0, uses_anonymous_args = 0
 804              	.LVL64:
 805 0000 10B5     		push	{r4, lr}
 806              	.LCFI8:
 807              		.cfi_def_cfa_offset 8
 808              		.cfi_offset 14, -4
 809              		.cfi_offset 4, -8
 810              		.loc 1 303 0
 811 0002 0446     		mov	r4, r0
 812              		.loc 1 305 0
 813 0004 FFF7FEFF 		bl	chDbgCheckClassI
 814              	.LVL65:
 815              		.loc 1 306 0
 816 0008 002C     		cmp	r4, #0
 817 000a 22D0     		beq	.L62
 818              	.L56:
 819              		.loc 1 307 0
 820 000c A368     		ldr	r3, [r4, #8]
 821 000e 2268     		ldr	r2, [r4, #0]
 822 0010 002B     		cmp	r3, #0
 823 0012 0DDB     		blt	.L57
 824              		.loc 1 307 0 is_stmt 0 discriminator 2
 825 0014 A242     		cmp	r2, r4
 826 0016 06D0     		beq	.L59
 827              	.L58:
 828              		.loc 1 307 0 discriminator 3
 829 0018 40F20000 		movw	r0, #:lower16:.LC10
 830 001c C0F20000 		movt	r0, #:upper16:.LC10
 831 0020 FFF7FEFF 		bl	chDbgPanic
 832 0024 A368     		ldr	r3, [r4, #8]
 833              	.L59:
 834              		.loc 1 312 0 is_stmt 1
 835 0026 0133     		adds	r3, r3, #1
 836 0028 002B     		cmp	r3, #0
 837 002a A360     		str	r3, [r4, #8]
 838 002c 06DD     		ble	.L63
 839              	.L55:
 840 002e 10BD     		pop	{r4, pc}
 841              	.L57:
 842              		.loc 1 307 0 discriminator 4
 843 0030 A242     		cmp	r2, r4
 844 0032 F1D0     		beq	.L58
 845              		.loc 1 312 0
 846 0034 0133     		adds	r3, r3, #1
 847 0036 002B     		cmp	r3, #0
 848 0038 A360     		str	r3, [r4, #8]
ARM GAS  C:\Users\z80\AppData\Local\Temp\ccgPhA14.s 			page 16


 849 003a F8DC     		bgt	.L55
 850              	.L63:
 851              	.LVL66:
 852              	.LBB63:
 853              	.LBB64:
 854              	.LBB65:
 855              		.loc 2 60 0
 856 003c 2168     		ldr	r1, [r4, #0]
 857              	.LVL67:
 858              	.LBE65:
 859              	.LBE64:
 860              		.loc 1 316 0
 861 003e 0022     		movs	r2, #0
 862              	.LBB68:
 863              	.LBB66:
 864              		.loc 2 62 0
 865 0040 0B68     		ldr	r3, [r1, #0]
 866              	.LBE66:
 867              	.LBE68:
 868              		.loc 1 317 0
 869 0042 0846     		mov	r0, r1
 870              	.LBB69:
 871              	.LBB67:
 872              		.loc 2 62 0
 873 0044 2360     		str	r3, [r4, #0]
 874 0046 5C60     		str	r4, [r3, #4]
 875              	.LBE67:
 876              	.LBE69:
 877              		.loc 1 316 0
 878 0048 8A62     		str	r2, [r1, #40]
 879              	.LBE63:
 880              		.loc 1 319 0
 881 004a BDE81040 		pop	{r4, lr}
 882              	.LBB70:
 883              		.loc 1 317 0
 884 004e FFF7FEBF 		b	chSchReadyI
 885              	.LVL68:
 886              	.L62:
 887              	.LBE70:
 888              		.loc 1 306 0 discriminator 1
 889 0052 40F20000 		movw	r0, #:lower16:.LC9
 890 0056 C0F20000 		movt	r0, #:upper16:.LC9
 891 005a FFF7FEFF 		bl	chDbgPanic
 892 005e D5E7     		b	.L56
 893              		.cfi_endproc
 894              	.LFE15:
 895              		.size	chSemSignalI, .-chSemSignalI
 896              		.section	.text.chSemAddCounterI,"ax",%progbits
 897              		.align	2
 898              		.p2align 4,,15
 899              		.global	chSemAddCounterI
 900              		.thumb
 901              		.thumb_func
 902              		.type	chSemAddCounterI, %function
 903              	chSemAddCounterI:
 904              	.LFB16:
 905              		.loc 1 334 0
ARM GAS  C:\Users\z80\AppData\Local\Temp\ccgPhA14.s 			page 17


 906              		.cfi_startproc
 907              		@ args = 0, pretend = 0, frame = 0
 908              		@ frame_needed = 0, uses_anonymous_args = 0
 909              	.LVL69:
 910 0000 F8B5     		push	{r3, r4, r5, r6, r7, lr}
 911              	.LCFI9:
 912              		.cfi_def_cfa_offset 24
 913              		.cfi_offset 14, -4
 914              		.cfi_offset 7, -8
 915              		.cfi_offset 6, -12
 916              		.cfi_offset 5, -16
 917              		.cfi_offset 4, -20
 918              		.cfi_offset 3, -24
 919              		.loc 1 334 0
 920 0002 0446     		mov	r4, r0
 921 0004 0D46     		mov	r5, r1
 922              		.loc 1 336 0
 923 0006 FFF7FEFF 		bl	chDbgCheckClassI
 924              	.LVL70:
 925              		.loc 1 337 0
 926 000a D4F10103 		rsbs	r3, r4, #1
 927 000e 38BF     		it	cc
 928 0010 0023     		movcc	r3, #0
 929 0012 002D     		cmp	r5, #0
 930 0014 D8BF     		it	le
 931 0016 43F00103 		orrle	r3, r3, #1
 932 001a 002B     		cmp	r3, #0
 933 001c 48D1     		bne	.L84
 934              	.L65:
 935              		.loc 1 338 0
 936 001e A068     		ldr	r0, [r4, #8]
 937 0020 2368     		ldr	r3, [r4, #0]
 938 0022 0028     		cmp	r0, #0
 939 0024 41DB     		blt	.L66
 940              		.loc 1 338 0 is_stmt 0 discriminator 2
 941 0026 A342     		cmp	r3, r4
 942 0028 05D0     		beq	.L68
 943              	.L67:
 944              		.loc 1 338 0 discriminator 3
 945 002a 40F20000 		movw	r0, #:lower16:.LC12
 946 002e C0F20000 		movt	r0, #:upper16:.LC12
 947 0032 FFF7FEFF 		bl	chDbgPanic
 948              	.L68:
 949              		.loc 1 343 0 is_stmt 1 discriminator 1
 950 0036 002D     		cmp	r5, #0
 951 0038 36DD     		ble	.L64
 952              		.loc 1 344 0
 953 003a A268     		ldr	r2, [r4, #8]
 954              		.loc 1 345 0
 955 003c 0026     		movs	r6, #0
 956              		.loc 1 344 0
 957 003e 511C     		adds	r1, r2, #1
 958 0040 6F1E     		subs	r7, r5, #1
 959 0042 B142     		cmp	r1, r6
 960 0044 A160     		str	r1, [r4, #8]
 961 0046 07F00107 		and	r7, r7, #1
 962 004a 38DD     		ble	.L85
ARM GAS  C:\Users\z80\AppData\Local\Temp\ccgPhA14.s 			page 18


 963              	.L74:
 964              		.loc 1 343 0
 965 004c 013D     		subs	r5, r5, #1
 966              	.LVL71:
 967 004e 2BD0     		beq	.L64
 968 0050 77B1     		cbz	r7, .L72
 969              		.loc 1 344 0
 970 0052 A268     		ldr	r2, [r4, #8]
 971 0054 501C     		adds	r0, r2, #1
 972 0056 0028     		cmp	r0, #0
 973 0058 A060     		str	r0, [r4, #8]
 974 005a 38DD     		ble	.L86
 975              	.L76:
 976              	.LVL72:
 977              		.loc 1 343 0
 978 005c 013D     		subs	r5, r5, #1
 979 005e 07D1     		bne	.L72
 980 0060 3DE0     		b	.L90
 981              	.L70:
 982              		.loc 1 344 0
 983 0062 A368     		ldr	r3, [r4, #8]
 984 0064 5A1C     		adds	r2, r3, #1
 985 0066 002A     		cmp	r2, #0
 986 0068 A260     		str	r2, [r4, #8]
 987 006a 13DD     		ble	.L88
 988              	.L79:
 989              		.loc 1 343 0
 990 006c 013D     		subs	r5, r5, #1
 991 006e 1AD0     		beq	.L89
 992              	.L72:
 993              		.loc 1 344 0
 994 0070 A068     		ldr	r0, [r4, #8]
 995              		.loc 1 346 0
 996 0072 013D     		subs	r5, r5, #1
 997              		.loc 1 344 0
 998 0074 431C     		adds	r3, r0, #1
 999 0076 002B     		cmp	r3, #0
 1000 0078 A360     		str	r3, [r4, #8]
 1001 007a F2DC     		bgt	.L70
 1002              	.LVL73:
 1003              	.LBB71:
 1004              	.LBB72:
 1005              		.loc 2 60 0
 1006 007c 2068     		ldr	r0, [r4, #0]
 1007              	.LVL74:
 1008              		.loc 2 62 0
 1009 007e 0168     		ldr	r1, [r0, #0]
 1010 0080 2160     		str	r1, [r4, #0]
 1011 0082 4C60     		str	r4, [r1, #4]
 1012              	.LBE72:
 1013              	.LBE71:
 1014              		.loc 1 345 0
 1015 0084 FFF7FEFF 		bl	chSchReadyI
 1016              	.LVL75:
 1017 0088 8662     		str	r6, [r0, #40]
 1018              		.loc 1 344 0
 1019 008a A368     		ldr	r3, [r4, #8]
ARM GAS  C:\Users\z80\AppData\Local\Temp\ccgPhA14.s 			page 19


 1020 008c 5A1C     		adds	r2, r3, #1
 1021 008e 002A     		cmp	r2, #0
 1022 0090 A260     		str	r2, [r4, #8]
 1023 0092 EBDC     		bgt	.L79
 1024              	.LVL76:
 1025              	.L88:
 1026              	.LBB76:
 1027              	.LBB73:
 1028              		.loc 2 60 0
 1029 0094 2068     		ldr	r0, [r4, #0]
 1030              		.loc 2 62 0
 1031 0096 0168     		ldr	r1, [r0, #0]
 1032 0098 2160     		str	r1, [r4, #0]
 1033 009a 4C60     		str	r4, [r1, #4]
 1034              	.LBE73:
 1035              	.LBE76:
 1036              		.loc 1 345 0
 1037 009c FFF7FEFF 		bl	chSchReadyI
 1038              		.loc 1 343 0
 1039 00a0 013D     		subs	r5, r5, #1
 1040              		.loc 1 345 0
 1041 00a2 8662     		str	r6, [r0, #40]
 1042              		.loc 1 343 0
 1043 00a4 E4D1     		bne	.L72
 1044              	.LVL77:
 1045              	.L89:
 1046 00a6 F8BD     		pop	{r3, r4, r5, r6, r7, pc}
 1047              	.L64:
 1048 00a8 F8BD     		pop	{r3, r4, r5, r6, r7, pc}
 1049              	.LVL78:
 1050              	.L66:
 1051              		.loc 1 338 0 discriminator 4
 1052 00aa A342     		cmp	r3, r4
 1053 00ac C3D1     		bne	.L68
 1054 00ae BCE7     		b	.L67
 1055              	.L84:
 1056              		.loc 1 337 0 discriminator 1
 1057 00b0 40F20000 		movw	r0, #:lower16:.LC11
 1058 00b4 C0F20000 		movt	r0, #:upper16:.LC11
 1059 00b8 FFF7FEFF 		bl	chDbgPanic
 1060 00bc AFE7     		b	.L65
 1061              	.L85:
 1062              	.LVL79:
 1063              	.LBB77:
 1064              	.LBB74:
 1065              		.loc 2 60 0
 1066 00be 2068     		ldr	r0, [r4, #0]
 1067              		.loc 2 62 0
 1068 00c0 0168     		ldr	r1, [r0, #0]
 1069 00c2 2160     		str	r1, [r4, #0]
 1070 00c4 4C60     		str	r4, [r1, #4]
 1071              	.LBE74:
 1072              	.LBE77:
 1073              		.loc 1 345 0
 1074 00c6 FFF7FEFF 		bl	chSchReadyI
 1075 00ca 8662     		str	r6, [r0, #40]
 1076 00cc BEE7     		b	.L74
ARM GAS  C:\Users\z80\AppData\Local\Temp\ccgPhA14.s 			page 20


 1077              	.LVL80:
 1078              	.L86:
 1079              	.LBB78:
 1080              	.LBB75:
 1081              		.loc 2 60 0
 1082 00ce 2068     		ldr	r0, [r4, #0]
 1083              		.loc 2 62 0
 1084 00d0 0368     		ldr	r3, [r0, #0]
 1085 00d2 2360     		str	r3, [r4, #0]
 1086 00d4 5C60     		str	r4, [r3, #4]
 1087              	.LBE75:
 1088              	.LBE78:
 1089              		.loc 1 345 0
 1090 00d6 FFF7FEFF 		bl	chSchReadyI
 1091 00da 8662     		str	r6, [r0, #40]
 1092 00dc BEE7     		b	.L76
 1093              	.LVL81:
 1094              	.L90:
 1095 00de F8BD     		pop	{r3, r4, r5, r6, r7, pc}
 1096              		.cfi_endproc
 1097              	.LFE16:
 1098              		.size	chSemAddCounterI, .-chSemAddCounterI
 1099              		.section	.text.chSemSignalWait,"ax",%progbits
 1100              		.align	2
 1101              		.p2align 4,,15
 1102              		.global	chSemSignalWait
 1103              		.thumb
 1104              		.thumb_func
 1105              		.type	chSemSignalWait, %function
 1106              	chSemSignalWait:
 1107              	.LFB17:
 1108              		.loc 1 366 0
 1109              		.cfi_startproc
 1110              		@ args = 0, pretend = 0, frame = 0
 1111              		@ frame_needed = 0, uses_anonymous_args = 0
 1112              	.LVL82:
 1113 0000 38B5     		push	{r3, r4, r5, lr}
 1114              	.LCFI10:
 1115              		.cfi_def_cfa_offset 16
 1116              		.cfi_offset 14, -4
 1117              		.cfi_offset 5, -8
 1118              		.cfi_offset 4, -12
 1119              		.cfi_offset 3, -16
 1120              		.loc 1 369 0
 1121 0002 D0F10103 		rsbs	r3, r0, #1
 1122 0006 38BF     		it	cc
 1123 0008 0023     		movcc	r3, #0
 1124 000a 0029     		cmp	r1, #0
 1125 000c 08BF     		it	eq
 1126 000e 43F00103 		orreq	r3, r3, #1
 1127 0012 0446     		mov	r4, r0
 1128 0014 0D46     		mov	r5, r1
 1129 0016 002B     		cmp	r3, #0
 1130 0018 66D1     		bne	.L104
 1131              	.LVL83:
 1132              	.L92:
 1133              		.loc 1 370 0
ARM GAS  C:\Users\z80\AppData\Local\Temp\ccgPhA14.s 			page 21


 1134 001a A068     		ldr	r0, [r4, #8]
 1135 001c 2368     		ldr	r3, [r4, #0]
 1136 001e 0028     		cmp	r0, #0
 1137 0020 2CDB     		blt	.L93
 1138              		.loc 1 370 0 is_stmt 0 discriminator 2
 1139 0022 A342     		cmp	r3, r4
 1140 0024 05D0     		beq	.L95
 1141              	.L94:
 1142              		.loc 1 370 0 discriminator 3
 1143 0026 40F20000 		movw	r0, #:lower16:.LC14
 1144 002a C0F20000 		movt	r0, #:upper16:.LC14
 1145 002e FFF7FEFF 		bl	chDbgPanic
 1146              	.L95:
 1147              		.loc 1 374 0 is_stmt 1
 1148 0032 A968     		ldr	r1, [r5, #8]
 1149 0034 2B68     		ldr	r3, [r5, #0]
 1150 0036 0029     		cmp	r1, #0
 1151 0038 26DB     		blt	.L96
 1152              	.L107:
 1153              		.loc 1 374 0 is_stmt 0 discriminator 2
 1154 003a AB42     		cmp	r3, r5
 1155 003c 05D0     		beq	.L98
 1156              	.L97:
 1157              		.loc 1 374 0 discriminator 3
 1158 003e 40F20000 		movw	r0, #:lower16:.LC15
 1159 0042 C0F20000 		movt	r0, #:upper16:.LC15
 1160 0046 FFF7FEFF 		bl	chDbgPanic
 1161              	.L98:
 1162              	.LBB79:
 1163              		.loc 1 379 0 is_stmt 1
 1164 004a 2023     		movs	r3, #32
 1165              	.LVL84:
 1166              	@ 379 "../chibios_2.4.x/os/kernel/src/chsem.c" 1
 1167 004c 83F31188 		msr     BASEPRI, r3
 1168              	@ 0 "" 2
 1169              	.LVL85:
 1170              		.thumb
 1171              	.LBE79:
 1172 0050 FFF7FEFF 		bl	dbg_check_lock
 1173              	.LVL86:
 1174              		.loc 1 380 0
 1175 0054 A368     		ldr	r3, [r4, #8]
 1176 0056 5A1C     		adds	r2, r3, #1
 1177 0058 002A     		cmp	r2, #0
 1178 005a A260     		str	r2, [r4, #8]
 1179 005c 20DD     		ble	.L105
 1180              	.L99:
 1181              		.loc 1 382 0
 1182 005e AA68     		ldr	r2, [r5, #8]
 1183 0060 501E     		subs	r0, r2, #1
 1184 0062 0028     		cmp	r0, #0
 1185 0064 A860     		str	r0, [r5, #8]
 1186 0066 28DB     		blt	.L106
 1187              	.LVL87:
 1188              	.L100:
 1189              		.loc 1 390 0
 1190 0068 FFF7FEFF 		bl	chSchRescheduleS
ARM GAS  C:\Users\z80\AppData\Local\Temp\ccgPhA14.s 			page 22


 1191              	.LVL88:
 1192              		.loc 1 391 0
 1193 006c 0024     		movs	r4, #0
 1194              	.LVL89:
 1195              		.loc 1 393 0
 1196 006e FFF7FEFF 		bl	dbg_check_unlock
 1197              	.LBB80:
 1198 0072 0023     		movs	r3, #0
 1199              	.LVL90:
 1200              	@ 393 "../chibios_2.4.x/os/kernel/src/chsem.c" 1
 1201 0074 83F31188 		msr     BASEPRI, r3
 1202              	@ 0 "" 2
 1203              	.LVL91:
 1204              		.thumb
 1205              	.LBE80:
 1206              		.loc 1 395 0
 1207 0078 2046     		mov	r0, r4
 1208 007a 38BD     		pop	{r3, r4, r5, pc}
 1209              	.LVL92:
 1210              	.L93:
 1211              		.loc 1 370 0 discriminator 4
 1212 007c A342     		cmp	r3, r4
 1213 007e D2D0     		beq	.L94
 1214              		.loc 1 374 0
 1215 0080 A968     		ldr	r1, [r5, #8]
 1216 0082 2B68     		ldr	r3, [r5, #0]
 1217 0084 0029     		cmp	r1, #0
 1218 0086 D8DA     		bge	.L107
 1219              	.L96:
 1220              		.loc 1 374 0 is_stmt 0 discriminator 4
 1221 0088 AB42     		cmp	r3, r5
 1222 008a D8D0     		beq	.L97
 1223              	.LBB81:
 1224              		.loc 1 379 0 is_stmt 1
 1225 008c 2023     		movs	r3, #32
 1226              	@ 379 "../chibios_2.4.x/os/kernel/src/chsem.c" 1
 1227 008e 83F31188 		msr     BASEPRI, r3
 1228              	@ 0 "" 2
 1229              	.LVL93:
 1230              		.thumb
 1231              	.LBE81:
 1232 0092 FFF7FEFF 		bl	dbg_check_lock
 1233              	.LVL94:
 1234              		.loc 1 380 0
 1235 0096 A368     		ldr	r3, [r4, #8]
 1236 0098 5A1C     		adds	r2, r3, #1
 1237 009a 002A     		cmp	r2, #0
 1238 009c A260     		str	r2, [r4, #8]
 1239 009e DEDC     		bgt	.L99
 1240              	.L105:
 1241              	.LVL95:
 1242              	.LBB82:
 1243              	.LBB83:
 1244              		.loc 2 60 0
 1245 00a0 2068     		ldr	r0, [r4, #0]
 1246              	.LVL96:
 1247              		.loc 2 62 0
ARM GAS  C:\Users\z80\AppData\Local\Temp\ccgPhA14.s 			page 23


 1248 00a2 0168     		ldr	r1, [r0, #0]
 1249 00a4 2160     		str	r1, [r4, #0]
 1250 00a6 4C60     		str	r4, [r1, #4]
 1251              	.LBE83:
 1252              	.LBE82:
 1253              		.loc 1 381 0
 1254 00a8 FFF7FEFF 		bl	chSchReadyI
 1255              	.LVL97:
 1256 00ac 0024     		movs	r4, #0
 1257              	.LVL98:
 1258 00ae 8462     		str	r4, [r0, #40]
 1259              		.loc 1 382 0
 1260 00b0 AA68     		ldr	r2, [r5, #8]
 1261 00b2 501E     		subs	r0, r2, #1
 1262 00b4 0028     		cmp	r0, #0
 1263 00b6 A860     		str	r0, [r5, #8]
 1264 00b8 D6DA     		bge	.L100
 1265              	.L106:
 1266              	.LBB84:
 1267              		.loc 1 383 0
 1268 00ba 40F2000C 		movw	ip, #:lower16:rlist
 1269 00be C0F2000C 		movt	ip, #:upper16:rlist
 1270 00c2 DCF81C40 		ldr	r4, [ip, #28]
 1271              	.LVL99:
 1272              	.LBB85:
 1273              	.LBB86:
 1274              		.loc 2 55 0
 1275 00c6 6B68     		ldr	r3, [r5, #4]
 1276              	.LBE86:
 1277              	.LBE85:
 1278              		.loc 1 386 0
 1279 00c8 0320     		movs	r0, #3
 1280              	.LBB88:
 1281              	.LBB87:
 1282              		.loc 2 54 0
 1283 00ca 2560     		str	r5, [r4, #0]
 1284              		.loc 2 55 0
 1285 00cc 6360     		str	r3, [r4, #4]
 1286              		.loc 2 56 0
 1287 00ce 6C60     		str	r4, [r5, #4]
 1288 00d0 1C60     		str	r4, [r3, #0]
 1289              	.LBE87:
 1290              	.LBE88:
 1291              		.loc 1 385 0
 1292 00d2 A562     		str	r5, [r4, #40]
 1293              		.loc 1 386 0
 1294 00d4 FFF7FEFF 		bl	chSchGoSleepS
 1295              	.LVL100:
 1296              		.loc 1 387 0
 1297 00d8 A46A     		ldr	r4, [r4, #40]
 1298              	.LVL101:
 1299              	.LBE84:
 1300              		.loc 1 393 0
 1301 00da FFF7FEFF 		bl	dbg_check_unlock
 1302              	.LBB89:
 1303 00de 0023     		movs	r3, #0
 1304              	@ 393 "../chibios_2.4.x/os/kernel/src/chsem.c" 1
ARM GAS  C:\Users\z80\AppData\Local\Temp\ccgPhA14.s 			page 24


 1305 00e0 83F31188 		msr     BASEPRI, r3
 1306              	@ 0 "" 2
 1307              	.LVL102:
 1308              		.thumb
 1309              	.LBE89:
 1310              		.loc 1 395 0
 1311 00e4 2046     		mov	r0, r4
 1312 00e6 38BD     		pop	{r3, r4, r5, pc}
 1313              	.LVL103:
 1314              	.L104:
 1315              		.loc 1 369 0 discriminator 1
 1316 00e8 40F20000 		movw	r0, #:lower16:.LC13
 1317              	.LVL104:
 1318 00ec C0F20000 		movt	r0, #:upper16:.LC13
 1319 00f0 FFF7FEFF 		bl	chDbgPanic
 1320 00f4 91E7     		b	.L92
 1321              		.cfi_endproc
 1322              	.LFE17:
 1323              		.size	chSemSignalWait, .-chSemSignalWait
 1324 00f6 00BFAFF3 		.section	.rodata.str1.4,"aMS",%progbits,1
 1324      0080AFF3 
 1324      0080
 1325              		.align	2
 1326              	.LC0:
 1327 0000 22636853 		.ascii	"\"chSemInit\"()\000"
 1327      656D496E 
 1327      69742228 
 1327      2900
 1328 000e 0000     		.space	2
 1329              	.LC1:
 1330 0010 22636853 		.ascii	"\"chSemResetI\"()\000"
 1330      656D5265 
 1330      73657449 
 1330      22282900 
 1331              	.LC2:
 1332 0020 63685365 		.ascii	"chSemResetI(), #1\000"
 1332      6D526573 
 1332      65744928 
 1332      292C2023 
 1332      3100
 1333 0032 0000     		.space	2
 1334              	.LC3:
 1335 0034 22636853 		.ascii	"\"chSemWaitS\"()\000"
 1335      656D5761 
 1335      69745322 
 1335      282900
 1336 0043 00       		.space	1
 1337              	.LC4:
 1338 0044 63685365 		.ascii	"chSemWaitS(), #1\000"
 1338      6D576169 
 1338      74532829 
 1338      2C202331 
 1338      00
 1339 0055 000000   		.space	3
 1340              	.LC5:
 1341 0058 22636853 		.ascii	"\"chSemWaitTimeoutS\"()\000"
 1341      656D5761 
ARM GAS  C:\Users\z80\AppData\Local\Temp\ccgPhA14.s 			page 25


 1341      69745469 
 1341      6D656F75 
 1341      74532228 
 1342 006e 0000     		.space	2
 1343              	.LC6:
 1344 0070 63685365 		.ascii	"chSemWaitTimeoutS(), #1\000"
 1344      6D576169 
 1344      7454696D 
 1344      656F7574 
 1344      5328292C 
 1345              	.LC7:
 1346 0088 22636853 		.ascii	"\"chSemSignal\"()\000"
 1346      656D5369 
 1346      676E616C 
 1346      22282900 
 1347              	.LC8:
 1348 0098 63685365 		.ascii	"chSemSignal(), #1\000"
 1348      6D536967 
 1348      6E616C28 
 1348      292C2023 
 1348      3100
 1349 00aa 0000     		.space	2
 1350              	.LC9:
 1351 00ac 22636853 		.ascii	"\"chSemSignalI\"()\000"
 1351      656D5369 
 1351      676E616C 
 1351      49222829 
 1351      00
 1352 00bd 000000   		.space	3
 1353              	.LC10:
 1354 00c0 63685365 		.ascii	"chSemSignalI(), #1\000"
 1354      6D536967 
 1354      6E616C49 
 1354      28292C20 
 1354      233100
 1355 00d3 00       		.space	1
 1356              	.LC11:
 1357 00d4 22636853 		.ascii	"\"chSemAddCounterI\"()\000"
 1357      656D4164 
 1357      64436F75 
 1357      6E746572 
 1357      49222829 
 1358 00e9 000000   		.space	3
 1359              	.LC12:
 1360 00ec 63685365 		.ascii	"chSemAddCounterI(), #1\000"
 1360      6D416464 
 1360      436F756E 
 1360      74657249 
 1360      28292C20 
 1361 0103 00       		.space	1
 1362              	.LC13:
 1363 0104 22636853 		.ascii	"\"chSemSignalWait\"()\000"
 1363      656D5369 
 1363      676E616C 
 1363      57616974 
 1363      22282900 
 1364              	.LC14:
ARM GAS  C:\Users\z80\AppData\Local\Temp\ccgPhA14.s 			page 26


 1365 0118 63685365 		.ascii	"chSemSignalWait(), #1\000"
 1365      6D536967 
 1365      6E616C57 
 1365      61697428 
 1365      292C2023 
 1366 012e 0000     		.space	2
 1367              	.LC15:
 1368 0130 63685365 		.ascii	"chSemSignalWait(), #2\000"
 1368      6D536967 
 1368      6E616C57 
 1368      61697428 
 1368      292C2023 
 1369 0146 0000     		.text
 1370              	.Letext0:
 1371              		.file 3 "c:\\programs\\codesourcery\\2011.03-56\\bin\\../lib/gcc/arm-none-eabi/4.6.3/../../../../a
 1372              		.file 4 "../chibios_2.4.x/os/ports/GCC/ARMCMx/chtypes.h"
 1373              		.file 5 "../chibios_2.4.x/os/kernel/include/chlists.h"
 1374              		.file 6 "../chibios_2.4.x/os/kernel/include/chthreads.h"
 1375              		.file 7 "../chibios_2.4.x/os/ports/GCC/ARMCMx/chcore_v7m.h"
 1376              		.file 8 "../chibios_2.4.x/os/kernel/include/chschd.h"
 1377              		.file 9 "../chibios_2.4.x/os/kernel/include/chsem.h"
 1378              		.file 10 "../chibios_2.4.x/os/kernel/include/chmtx.h"