ARM GAS  C:\Users\z80\AppData\Local\Temp\ccgPhA14.s 			page 1


   1              		.syntax unified
   2              		.cpu cortex-m3
   3              		.fpu softvfp
   4              		.eabi_attribute 20, 1
   5              		.eabi_attribute 21, 1
   6              		.eabi_attribute 23, 3
   7              		.eabi_attribute 24, 1
   8              		.eabi_attribute 25, 1
   9              		.eabi_attribute 26, 1
  10              		.eabi_attribute 30, 2
  11              		.eabi_attribute 34, 1
  12              		.eabi_attribute 18, 4
  13              		.thumb
  14              		.file	"chsem.c"
  15              		.text
  16              	.Ltext0:
  17              		.cfi_sections	.debug_frame
  18              		.section	.text.chSemInit,"ax",%progbits
  19              		.align	2
  20              		.p2align 4,,15
  21              		.global	chSemInit
  22              		.thumb
  23              		.thumb_func
  24              		.type	chSemInit, %function
  25              	chSemInit:
  26              	.LFB7:
  27              		.file 1 "../chibios_2.4.x/os/kernel/src/chsem.c"
  28              		.loc 1 86 0
  29              		.cfi_startproc
  30              		@ args = 0, pretend = 0, frame = 0
  31              		@ frame_needed = 0, uses_anonymous_args = 0
  32              	.LVL0:
  33 0000 38B5     		push	{r3, r4, r5, lr}
  34              	.LCFI0:
  35              		.cfi_def_cfa_offset 16
  36              		.cfi_offset 14, -4
  37              		.cfi_offset 5, -8
  38              		.cfi_offset 4, -12
  39              		.cfi_offset 3, -16
  40              		.loc 1 88 0
  41 0002 D0F10103 		rsbs	r3, r0, #1
  42 0006 38BF     		it	cc
  43 0008 0023     		movcc	r3, #0
  44 000a 53EAD173 		orrs	r3, r3, r1, lsr #31
  45 000e 0446     		mov	r4, r0
  46              		.loc 1 86 0
  47 0010 0D46     		mov	r5, r1
  48              		.loc 1 88 0
  49 0012 05D0     		beq	.L2
  50              		.loc 1 88 0 is_stmt 0 discriminator 1
  51 0014 40F20000 		movw	r0, #:lower16:.LC0
  52              	.LVL1:
  53 0018 C0F20000 		movt	r0, #:upper16:.LC0
  54 001c FFF7FEFF 		bl	chDbgPanic
  55              	.LVL2:
  56              	.L2:
  57              		.loc 1 90 0 is_stmt 1
ARM GAS  C:\Users\z80\AppData\Local\Temp\ccgPhA14.s 			page 2


  58 0020 6460     		str	r4, [r4, #4]
  59 0022 2460     		str	r4, [r4, #0]
  60              		.loc 1 91 0
  61 0024 A560     		str	r5, [r4, #8]
  62              		.loc 1 92 0
  63 0026 38BD     		pop	{r3, r4, r5, pc}
  64              		.cfi_endproc
  65              	.LFE7:
  66              		.size	chSemInit, .-chSemInit
  67 0028 AFF30080 		.section	.text.chSemResetI,"ax",%progbits
  67      AFF30080 
  68              		.align	2
  69              		.p2align 4,,15
  70              		.global	chSemResetI
  71              		.thumb
  72              		.thumb_func
  73              		.type	chSemResetI, %function
  74              	chSemResetI:
  75              	.LFB9:
  76              		.loc 1 136 0
  77              		.cfi_startproc
  78              		@ args = 0, pretend = 0, frame = 0
  79              		@ frame_needed = 0, uses_anonymous_args = 0
  80              	.LVL3:
  81 0000 F8B5     		push	{r3, r4, r5, r6, r7, lr}
  82              	.LCFI1:
  83              		.cfi_def_cfa_offset 24
  84              		.cfi_offset 14, -4
  85              		.cfi_offset 7, -8
  86              		.cfi_offset 6, -12
  87              		.cfi_offset 5, -16
  88              		.cfi_offset 4, -20
  89              		.cfi_offset 3, -24
  90              		.loc 1 136 0
  91 0002 0446     		mov	r4, r0
  92 0004 0E46     		mov	r6, r1
  93              		.loc 1 139 0
  94 0006 FFF7FEFF 		bl	chDbgCheckClassI
  95              	.LVL4:
  96              		.loc 1 140 0
  97 000a D4F10103 		rsbs	r3, r4, #1
  98 000e 38BF     		it	cc
  99 0010 0023     		movcc	r3, #0
 100 0012 53EAD673 		orrs	r3, r3, r6, lsr #31
 101 0016 3FD1     		bne	.L18
 102              	.L5:
 103              		.loc 1 141 0
 104 0018 A568     		ldr	r5, [r4, #8]
 105 001a 2368     		ldr	r3, [r4, #0]
 106 001c 002D     		cmp	r5, #0
 107 001e 38DB     		blt	.L6
 108              		.loc 1 141 0 is_stmt 0 discriminator 2
 109 0020 A342     		cmp	r3, r4
 110 0022 06D0     		beq	.L8
 111              	.L7:
 112              		.loc 1 141 0 discriminator 3
 113 0024 40F20000 		movw	r0, #:lower16:.LC2
ARM GAS  C:\Users\z80\AppData\Local\Temp\ccgPhA14.s 			page 3


 114 0028 C0F20000 		movt	r0, #:upper16:.LC2
 115 002c FFF7FEFF 		bl	chDbgPanic
 116 0030 A568     		ldr	r5, [r4, #8]
 117              	.L8:
 118              	.LVL5:
 119              		.loc 1 148 0 is_stmt 1
 120 0032 0135     		adds	r5, r5, #1
 121              	.LVL6:
 122 0034 002D     		cmp	r5, #0
 123              		.loc 1 147 0
 124 0036 A660     		str	r6, [r4, #8]
 125              	.LVL7:
 126              		.loc 1 148 0
 127 0038 2ADC     		bgt	.L4
 128              	.LBB24:
 129              	.LBB25:
 130              		.file 2 "../chibios_2.4.x/os/kernel/include/chinline.h"
 131              		.loc 2 67 0
 132 003a 6068     		ldr	r0, [r4, #4]
 133              	.LBE25:
 134              	.LBE24:
 135              		.loc 1 149 0
 136 003c 6FF00107 		mvn	r7, #1
 137              	.LBB34:
 138              	.LBB26:
 139              		.loc 2 69 0
 140 0040 4168     		ldr	r1, [r0, #4]
 141              	.LBE26:
 142              	.LBE34:
 143              		.loc 1 148 0
 144 0042 6E1C     		adds	r6, r5, #1
 145              	.LVL8:
 146              	.LBB35:
 147              	.LBB27:
 148              		.loc 2 69 0
 149 0044 6160     		str	r1, [r4, #4]
 150 0046 0C60     		str	r4, [r1, #0]
 151              	.LBE27:
 152              	.LBE35:
 153              		.loc 1 149 0
 154 0048 FFF7FEFF 		bl	chSchReadyI
 155              	.LVL9:
 156 004c 05F00103 		and	r3, r5, #1
 157              	.LVL10:
 158 0050 8762     		str	r7, [r0, #40]
 159              		.loc 1 148 0
 160 0052 002D     		cmp	r5, #0
 161 0054 27D0     		beq	.L19
 162 0056 4BB1     		cbz	r3, .L11
 163              	.LBB36:
 164              	.LBB28:
 165              		.loc 2 67 0
 166 0058 6068     		ldr	r0, [r4, #4]
 167              	.LVL11:
 168              	.LBE28:
 169              	.LBE36:
 170              		.loc 1 148 0
ARM GAS  C:\Users\z80\AppData\Local\Temp\ccgPhA14.s 			page 4


 171 005a 0136     		adds	r6, r6, #1
 172              	.LBB37:
 173              	.LBB29:
 174              		.loc 2 69 0
 175 005c 4168     		ldr	r1, [r0, #4]
 176 005e 6160     		str	r1, [r4, #4]
 177 0060 0C60     		str	r4, [r1, #0]
 178              	.LBE29:
 179              	.LBE37:
 180              		.loc 1 149 0
 181 0062 FFF7FEFF 		bl	chSchReadyI
 182              		.loc 1 148 0
 183 0066 012E     		cmp	r6, #1
 184              		.loc 1 149 0
 185 0068 8762     		str	r7, [r0, #40]
 186              	.LVL12:
 187              		.loc 1 148 0
 188 006a 1DD0     		beq	.L20
 189              	.L11:
 190              	.LBB38:
 191              	.LBB30:
 192              		.loc 2 67 0
 193 006c 6068     		ldr	r0, [r4, #4]
 194              	.LBE30:
 195              	.LBE38:
 196              		.loc 1 148 0
 197 006e 751C     		adds	r5, r6, #1
 198              	.LBB39:
 199              	.LBB31:
 200              		.loc 2 69 0
 201 0070 4368     		ldr	r3, [r0, #4]
 202              	.LBE31:
 203              	.LBE39:
 204              		.loc 1 148 0
 205 0072 0236     		adds	r6, r6, #2
 206              	.LBB40:
 207              	.LBB32:
 208              		.loc 2 69 0
 209 0074 6360     		str	r3, [r4, #4]
 210 0076 1C60     		str	r4, [r3, #0]
 211              	.LBE32:
 212              	.LBE40:
 213              		.loc 1 149 0
 214 0078 FFF7FEFF 		bl	chSchReadyI
 215 007c 8762     		str	r7, [r0, #40]
 216              	.LBB41:
 217              	.LBB33:
 218              		.loc 2 67 0
 219 007e 6068     		ldr	r0, [r4, #4]
 220              		.loc 2 69 0
 221 0080 4268     		ldr	r2, [r0, #4]
 222 0082 6260     		str	r2, [r4, #4]
 223 0084 1460     		str	r4, [r2, #0]
 224              	.LBE33:
 225              	.LBE41:
 226              		.loc 1 149 0
 227 0086 FFF7FEFF 		bl	chSchReadyI
ARM GAS  C:\Users\z80\AppData\Local\Temp\ccgPhA14.s 			page 5


 228 008a 8762     		str	r7, [r0, #40]
 229              		.loc 1 148 0
 230 008c 002D     		cmp	r5, #0
 231 008e EDD1     		bne	.L11
 232              	.LVL13:
 233              	.L4:
 234 0090 F8BD     		pop	{r3, r4, r5, r6, r7, pc}
 235              	.LVL14:
 236              	.L6:
 237              		.loc 1 141 0 discriminator 4
 238 0092 A342     		cmp	r3, r4
 239 0094 CDD1     		bne	.L8
 240 0096 C5E7     		b	.L7
 241              	.L18:
 242              		.loc 1 140 0 discriminator 1
 243 0098 40F20000 		movw	r0, #:lower16:.LC1
 244 009c C0F20000 		movt	r0, #:upper16:.LC1
 245 00a0 FFF7FEFF 		bl	chDbgPanic
 246 00a4 B8E7     		b	.L5
 247              	.LVL15:
 248              	.L19:
 249 00a6 F8BD     		pop	{r3, r4, r5, r6, r7, pc}
 250              	.LVL16:
 251              	.L20:
 252 00a8 F8BD     		pop	{r3, r4, r5, r6, r7, pc}
 253              		.cfi_endproc
 254              	.LFE9:
 255              		.size	chSemResetI, .-chSemResetI
 256 00aa 00BFAFF3 		.section	.text.chSemReset,"ax",%progbits
 256      0080
 257              		.align	2
 258              		.p2align 4,,15
 259              		.global	chSemReset
 260              		.thumb
 261              		.thumb_func
 262              		.type	chSemReset, %function
 263              	chSemReset:
 264              	.LFB8:
 265              		.loc 1 109 0
 266              		.cfi_startproc
 267              		@ args = 0, pretend = 0, frame = 0
 268              		@ frame_needed = 0, uses_anonymous_args = 0
 269              	.LVL17:
 270 0000 38B5     		push	{r3, r4, r5, lr}
 271              	.LCFI2:
 272              		.cfi_def_cfa_offset 16
 273              		.cfi_offset 14, -4
 274              		.cfi_offset 5, -8
 275              		.cfi_offset 4, -12
 276              		.cfi_offset 3, -16
 277              		.loc 1 109 0
 278 0002 0546     		mov	r5, r0
 279 0004 0C46     		mov	r4, r1
 280              	.LBB42:
 281              		.loc 1 111 0
 282 0006 2023     		movs	r3, #32
 283              	.LVL18:
ARM GAS  C:\Users\z80\AppData\Local\Temp\ccgPhA14.s 			page 6


 284              	@ 111 "../chibios_2.4.x/os/kernel/src/chsem.c" 1
 285 0008 83F31188 		msr     BASEPRI, r3
 286              	@ 0 "" 2
 287              	.LVL19:
 288              		.thumb
 289              	.LBE42:
 290 000c FFF7FEFF 		bl	dbg_check_lock
 291              	.LVL20:
 292              		.loc 1 112 0
 293 0010 2846     		mov	r0, r5
 294 0012 2146     		mov	r1, r4
 295 0014 FFF7FEFF 		bl	chSemResetI
 296              		.loc 1 113 0
 297 0018 FFF7FEFF 		bl	chSchRescheduleS
 298              		.loc 1 114 0
 299 001c FFF7FEFF 		bl	dbg_check_unlock
 300              	.LBB43:
 301 0020 0023     		movs	r3, #0
 302              	.LVL21:
 303              	@ 114 "../chibios_2.4.x/os/kernel/src/chsem.c" 1
 304 0022 83F31188 		msr     BASEPRI, r3
 305              	@ 0 "" 2
 306              	.LVL22:
 307              		.thumb
 308              	.LBE43:
 309              		.loc 1 115 0
 310 0026 38BD     		pop	{r3, r4, r5, pc}
 311              		.cfi_endproc
 312              	.LFE8:
 313              		.size	chSemReset, .-chSemReset
 314 0028 AFF30080 		.section	.text.chSemWaitS,"ax",%progbits
 314      AFF30080 
 315              		.align	2
 316              		.p2align 4,,15
 317              		.global	chSemWaitS
 318              		.thumb
 319              		.thumb_func
 320              		.type	chSemWaitS, %function
 321              	chSemWaitS:
 322              	.LFB11:
 323              		.loc 1 185 0
 324              		.cfi_startproc
 325              		@ args = 0, pretend = 0, frame = 0
 326              		@ frame_needed = 0, uses_anonymous_args = 0
 327              	.LVL23:
 328 0000 38B5     		push	{r3, r4, r5, lr}
 329              	.LCFI3:
 330              		.cfi_def_cfa_offset 16
 331              		.cfi_offset 14, -4
 332              		.cfi_offset 5, -8
 333              		.cfi_offset 4, -12
 334              		.cfi_offset 3, -16
 335              		.loc 1 185 0
 336 0002 0446     		mov	r4, r0
 337              		.loc 1 187 0
 338 0004 FFF7FEFF 		bl	chDbgCheckClassS
 339              	.LVL24:
ARM GAS  C:\Users\z80\AppData\Local\Temp\ccgPhA14.s 			page 7


 340              		.loc 1 188 0
 341 0008 002C     		cmp	r4, #0
 342 000a 29D0     		beq	.L30
 343              	.L23:
 344              		.loc 1 189 0
 345 000c A368     		ldr	r3, [r4, #8]
 346 000e 2268     		ldr	r2, [r4, #0]
 347 0010 002B     		cmp	r3, #0
 348 0012 0EDB     		blt	.L24
 349              		.loc 1 189 0 is_stmt 0 discriminator 2
 350 0014 A242     		cmp	r2, r4
 351 0016 06D0     		beq	.L26
 352              	.L25:
 353              		.loc 1 189 0 discriminator 3
 354 0018 40F20000 		movw	r0, #:lower16:.LC4
 355 001c C0F20000 		movt	r0, #:upper16:.LC4
 356 0020 FFF7FEFF 		bl	chDbgPanic
 357 0024 A368     		ldr	r3, [r4, #8]
 358              	.L26:
 359              		.loc 1 194 0 is_stmt 1
 360 0026 013B     		subs	r3, r3, #1
 361 0028 002B     		cmp	r3, #0
 362 002a A360     		str	r3, [r4, #8]
 363 002c 07DB     		blt	.L31
 364              	.L28:
 365              		.loc 1 200 0
 366 002e 0020     		movs	r0, #0
 367              		.loc 1 201 0
 368 0030 38BD     		pop	{r3, r4, r5, pc}
 369              	.L24:
 370              		.loc 1 189 0 discriminator 4
 371 0032 A242     		cmp	r2, r4
 372 0034 F0D0     		beq	.L25
 373              		.loc 1 194 0
 374 0036 013B     		subs	r3, r3, #1
 375 0038 002B     		cmp	r3, #0
 376 003a A360     		str	r3, [r4, #8]
 377 003c F7DA     		bge	.L28
 378              	.L31:
 379              		.loc 1 195 0
 380 003e 40F20005 		movw	r5, #:lower16:rlist
 381 0042 C0F20005 		movt	r5, #:upper16:rlist
 382 0046 E969     		ldr	r1, [r5, #28]
 383              		.loc 1 197 0
 384 0048 0320     		movs	r0, #3
 385              		.loc 1 195 0
 386 004a 8C62     		str	r4, [r1, #40]
 387              	.LVL25:
 388              	.LBB44:
 389              	.LBB45:
 390              		.loc 2 55 0
 391 004c 6268     		ldr	r2, [r4, #4]
 392              		.loc 2 54 0
 393 004e 0C60     		str	r4, [r1, #0]
 394              		.loc 2 55 0
 395 0050 4A60     		str	r2, [r1, #4]
 396              		.loc 2 56 0
ARM GAS  C:\Users\z80\AppData\Local\Temp\ccgPhA14.s 			page 8


 397 0052 6160     		str	r1, [r4, #4]
 398 0054 1160     		str	r1, [r2, #0]
 399              	.LBE45:
 400              	.LBE44:
 401              		.loc 1 197 0
 402 0056 FFF7FEFF 		bl	chSchGoSleepS
 403              	.LVL26:
 404              		.loc 1 198 0
 405 005a E869     		ldr	r0, [r5, #28]
 406 005c 806A     		ldr	r0, [r0, #40]
 407 005e 38BD     		pop	{r3, r4, r5, pc}
 408              	.LVL27:
 409              	.L30:
 410              		.loc 1 188 0 discriminator 1
 411 0060 40F20000 		movw	r0, #:lower16:.LC3
 412 0064 C0F20000 		movt	r0, #:upper16:.LC3
 413 0068 FFF7FEFF 		bl	chDbgPanic
 414 006c CEE7     		b	.L23
 415              		.cfi_endproc
 416              	.LFE11:
 417              		.size	chSemWaitS, .-chSemWaitS
 418 006e 00BF     		.section	.text.chSemWait,"ax",%progbits
 419              		.align	2
 420              		.p2align 4,,15
 421              		.global	chSemWait
 422              		.thumb
 423              		.thumb_func
 424              		.type	chSemWait, %function
 425              	chSemWait:
 426              	.LFB10:
 427              		.loc 1 164 0
 428              		.cfi_startproc
 429              		@ args = 0, pretend = 0, frame = 0
 430              		@ frame_needed = 0, uses_anonymous_args = 0
 431              	.LVL28:
 432 0000 10B5     		push	{r4, lr}
 433              	.LCFI4:
 434              		.cfi_def_cfa_offset 8
 435              		.cfi_offset 14, -4
 436              		.cfi_offset 4, -8
 437              	.LBB46:
 438              		.loc 1 167 0
 439 0002 2023     		movs	r3, #32
 440              	.LVL29:
 441              	.LBE46:
 442              		.loc 1 164 0
 443 0004 0446     		mov	r4, r0
 444              	.LBB47:
 445              		.loc 1 167 0
 446              	@ 167 "../chibios_2.4.x/os/kernel/src/chsem.c" 1
 447 0006 83F31188 		msr     BASEPRI, r3
 448              	@ 0 "" 2
 449              	.LVL30:
 450              		.thumb
 451              	.LBE47:
 452 000a FFF7FEFF 		bl	dbg_check_lock
 453              	.LVL31:
ARM GAS  C:\Users\z80\AppData\Local\Temp\ccgPhA14.s 			page 9


 454              		.loc 1 168 0
 455 000e 2046     		mov	r0, r4
 456 0010 FFF7FEFF 		bl	chSemWaitS
 457 0014 0446     		mov	r4, r0
 458              	.LVL32:
 459              		.loc 1 169 0
 460 0016 FFF7FEFF 		bl	dbg_check_unlock
 461              	.LVL33:
 462              	.LBB48:
 463 001a 0023     		movs	r3, #0
 464              	.LVL34:
 465              	@ 169 "../chibios_2.4.x/os/kernel/src/chsem.c" 1
 466 001c 83F31188 		msr     BASEPRI, r3
 467              	@ 0 "" 2
 468              	.LVL35:
 469              		.thumb
 470              	.LBE48:
 471              		.loc 1 171 0
 472 0020 2046     		mov	r0, r4
 473 0022 10BD     		pop	{r4, pc}
 474              		.cfi_endproc
 475              	.LFE10:
 476              		.size	chSemWait, .-chSemWait
 477 0024 AFF30080 		.section	.text.chSemWaitTimeoutS,"ax",%progbits
 477      AFF30080 
 477      AFF30080 
 478              		.align	2
 479              		.p2align 4,,15
 480              		.global	chSemWaitTimeoutS
 481              		.thumb
 482              		.thumb_func
 483              		.type	chSemWaitTimeoutS, %function
 484              	chSemWaitTimeoutS:
 485              	.LFB13:
 486              		.loc 1 250 0
 487              		.cfi_startproc
 488              		@ args = 0, pretend = 0, frame = 0
 489              		@ frame_needed = 0, uses_anonymous_args = 0
 490              	.LVL36:
 491 0000 38B5     		push	{r3, r4, r5, lr}
 492              	.LCFI5:
 493              		.cfi_def_cfa_offset 16
 494              		.cfi_offset 14, -4
 495              		.cfi_offset 5, -8
 496              		.cfi_offset 4, -12
 497              		.cfi_offset 3, -16
 498              		.loc 1 250 0
 499 0002 0446     		mov	r4, r0
 500 0004 0D46     		mov	r5, r1
 501              		.loc 1 252 0
 502 0006 FFF7FEFF 		bl	chDbgCheckClassS
 503              	.LVL37:
 504              		.loc 1 253 0
 505 000a 002C     		cmp	r4, #0
 506 000c 2AD0     		beq	.L42
 507              	.L34:
 508              		.loc 1 254 0
ARM GAS  C:\Users\z80\AppData\Local\Temp\ccgPhA14.s 			page 10


 509 000e A368     		ldr	r3, [r4, #8]
 510 0010 2268     		ldr	r2, [r4, #0]
 511 0012 002B     		cmp	r3, #0
 512 0014 0EDB     		blt	.L35
 513              		.loc 1 254 0 is_stmt 0 discriminator 2
 514 0016 A242     		cmp	r2, r4
 515 0018 06D0     		beq	.L37
 516              	.L36:
 517              		.loc 1 254 0 discriminator 3
 518 001a 40F20000 		movw	r0, #:lower16:.LC6
 519 001e C0F20000 		movt	r0, #:upper16:.LC6
 520 0022 FFF7FEFF 		bl	chDbgPanic
 521 0026 A368     		ldr	r3, [r4, #8]
 522              	.L37:
 523              		.loc 1 259 0 is_stmt 1
 524 0028 5A1E     		subs	r2, r3, #1
 525 002a 002A     		cmp	r2, #0
 526 002c A260     		str	r2, [r4, #8]
 527 002e 07DB     		blt	.L43
 528              	.L40:
 529              		.loc 1 268 0
 530 0030 0020     		movs	r0, #0
 531              		.loc 1 269 0
 532 0032 38BD     		pop	{r3, r4, r5, pc}
 533              	.L35:
 534              		.loc 1 254 0 discriminator 4
 535 0034 A242     		cmp	r2, r4
 536 0036 F0D0     		beq	.L36
 537              		.loc 1 259 0
 538 0038 5A1E     		subs	r2, r3, #1
 539 003a 002A     		cmp	r2, #0
 540 003c A260     		str	r2, [r4, #8]
 541 003e F7DA     		bge	.L40
 542              	.L43:
 543              		.loc 1 260 0
 544 0040 BDB1     		cbz	r5, .L44
 545              		.loc 1 264 0
 546 0042 40F20000 		movw	r0, #:lower16:rlist
 547 0046 C0F20000 		movt	r0, #:upper16:rlist
 548 004a C369     		ldr	r3, [r0, #28]
 549              		.loc 1 266 0
 550 004c 2946     		mov	r1, r5
 551              		.loc 1 264 0
 552 004e 9C62     		str	r4, [r3, #40]
 553              	.LVL38:
 554              	.LBB49:
 555              	.LBB50:
 556              		.loc 2 55 0
 557 0050 6268     		ldr	r2, [r4, #4]
 558              	.LBE50:
 559              	.LBE49:
 560              		.loc 1 266 0
 561 0052 0320     		movs	r0, #3
 562              	.LVL39:
 563              	.LBB52:
 564              	.LBB51:
 565              		.loc 2 54 0
ARM GAS  C:\Users\z80\AppData\Local\Temp\ccgPhA14.s 			page 11


 566 0054 1C60     		str	r4, [r3, #0]
 567              		.loc 2 55 0
 568 0056 5A60     		str	r2, [r3, #4]
 569              		.loc 2 56 0
 570 0058 6360     		str	r3, [r4, #4]
 571 005a 1360     		str	r3, [r2, #0]
 572              	.LBE51:
 573              	.LBE52:
 574              		.loc 1 269 0
 575 005c BDE83840 		pop	{r3, r4, r5, lr}
 576              		.loc 1 266 0
 577 0060 FFF7FEBF 		b	chSchGoSleepTimeoutS
 578              	.LVL40:
 579              	.L42:
 580              		.loc 1 253 0 discriminator 1
 581 0064 40F20000 		movw	r0, #:lower16:.LC5
 582 0068 C0F20000 		movt	r0, #:upper16:.LC5
 583 006c FFF7FEFF 		bl	chDbgPanic
 584 0070 CDE7     		b	.L34
 585              	.L44:
 586              		.loc 1 261 0
 587 0072 A360     		str	r3, [r4, #8]
 588              		.loc 1 262 0
 589 0074 4FF0FF30 		mov	r0, #-1
 590 0078 38BD     		pop	{r3, r4, r5, pc}
 591              		.cfi_endproc
 592              	.LFE13:
 593              		.size	chSemWaitTimeoutS, .-chSemWaitTimeoutS
 594 007a 00BFAFF3 		.section	.text.chSemWaitTimeout,"ax",%progbits
 594      0080
 595              		.align	2
 596              		.p2align 4,,15
 597              		.global	chSemWaitTimeout
 598              		.thumb
 599              		.thumb_func
 600              		.type	chSemWaitTimeout, %function
 601              	chSemWaitTimeout:
 602              	.LFB12:
 603              		.loc 1 222 0
 604              		.cfi_startproc
 605              		@ args = 0, pretend = 0, frame = 0
 606              		@ frame_needed = 0, uses_anonymous_args = 0
 607              	.LVL41:
 608 0000 38B5     		push	{r3, r4, r5, lr}
 609              	.LCFI6:
 610              		.cfi_def_cfa_offset 16
 611              		.cfi_offset 14, -4
 612              		.cfi_offset 5, -8
 613              		.cfi_offset 4, -12
 614              		.cfi_offset 3, -16
 615              		.loc 1 222 0
 616 0002 0546     		mov	r5, r0
 617 0004 0C46     		mov	r4, r1
 618              	.LBB53:
 619              		.loc 1 225 0
 620 0006 2023     		movs	r3, #32
 621              	.LVL42:
ARM GAS  C:\Users\z80\AppData\Local\Temp\ccgPhA14.s 			page 12


 622              	@ 225 "../chibios_2.4.x/os/kernel/src/chsem.c" 1
 623 0008 83F31188 		msr     BASEPRI, r3
 624              	@ 0 "" 2
 625              	.LVL43:
 626              		.thumb
 627              	.LBE53:
 628 000c FFF7FEFF 		bl	dbg_check_lock
 629              	.LVL44:
 630              		.loc 1 226 0
 631 0010 2146     		mov	r1, r4
 632 0012 2846     		mov	r0, r5
 633 0014 FFF7FEFF 		bl	chSemWaitTimeoutS
 634 0018 0446     		mov	r4, r0
 635              	.LVL45:
 636              		.loc 1 227 0
 637 001a FFF7FEFF 		bl	dbg_check_unlock
 638              	.LVL46:
 639              	.LBB54:
 640 001e 0023     		movs	r3, #0
 641              	.LVL47:
 642              	@ 227 "../chibios_2.4.x/os/kernel/src/chsem.c" 1
 643 0020 83F31188 		msr     BASEPRI, r3
 644              	@ 0 "" 2
 645              	.LVL48:
 646              		.thumb
 647              	.LBE54:
 648              		.loc 1 229 0
 649 0024 2046     		mov	r0, r4
 650 0026 38BD     		pop	{r3, r4, r5, pc}
 651              		.cfi_endproc
 652              	.LFE12:
 653              		.size	chSemWaitTimeout, .-chSemWaitTimeout
 654 0028 AFF30080 		.section	.text.chSemSignal,"ax",%progbits
 654      AFF30080 
 655              		.align	2
 656              		.p2align 4,,15
 657              		.global	chSemSignal
 658              		.thumb
 659              		.thumb_func
 660              		.type	chSemSignal, %function
 661              	chSemSignal:
 662              	.LFB14:
 663              		.loc 1 278 0
 664              		.cfi_startproc
 665              		@ args = 0, pretend = 0, frame = 0
 666              		@ frame_needed = 0, uses_anonymous_args = 0
 667              	.LVL49:
 668 0000 10B5     		push	{r4, lr}
 669              	.LCFI7:
 670              		.cfi_def_cfa_offset 8
 671              		.cfi_offset 14, -4
 672              		.cfi_offset 4, -8
 673              		.loc 1 280 0
 674 0002 0446     		mov	r4, r0
 675 0004 0028     		cmp	r0, #0
 676 0006 34D0     		beq	.L53
 677              	.LVL50:
ARM GAS  C:\Users\z80\AppData\Local\Temp\ccgPhA14.s 			page 13


 678              	.L47:
 679              		.loc 1 281 0
 680 0008 A368     		ldr	r3, [r4, #8]
 681 000a 002B     		cmp	r3, #0
 682 000c 2368     		ldr	r3, [r4, #0]
 683 000e 17DB     		blt	.L48
 684              		.loc 1 281 0 is_stmt 0 discriminator 2
 685 0010 A342     		cmp	r3, r4
 686 0012 05D0     		beq	.L50
 687              	.L49:
 688              		.loc 1 281 0 discriminator 3
 689 0014 40F20000 		movw	r0, #:lower16:.LC8
 690 0018 C0F20000 		movt	r0, #:upper16:.LC8
 691 001c FFF7FEFF 		bl	chDbgPanic
 692              	.L50:
 693              	.LBB55:
 694              		.loc 1 286 0 is_stmt 1
 695 0020 2023     		movs	r3, #32
 696              	.LVL51:
 697              	@ 286 "../chibios_2.4.x/os/kernel/src/chsem.c" 1
 698 0022 83F31188 		msr     BASEPRI, r3
 699              	@ 0 "" 2
 700              	.LVL52:
 701              		.thumb
 702              	.LBE55:
 703 0026 FFF7FEFF 		bl	dbg_check_lock
 704              	.LVL53:
 705              		.loc 1 287 0
 706 002a A168     		ldr	r1, [r4, #8]
 707 002c 481C     		adds	r0, r1, #1
 708 002e 0028     		cmp	r0, #0
 709 0030 A060     		str	r0, [r4, #8]
 710 0032 11DD     		ble	.L54
 711              	.L51:
 712              		.loc 1 289 0
 713 0034 FFF7FEFF 		bl	dbg_check_unlock
 714              	.LBB56:
 715 0038 0023     		movs	r3, #0
 716              	.LVL54:
 717              	@ 289 "../chibios_2.4.x/os/kernel/src/chsem.c" 1
 718 003a 83F31188 		msr     BASEPRI, r3
 719              	@ 0 "" 2
 720              	.LVL55:
 721              		.thumb
 722              	.LBE56:
 723              		.loc 1 290 0
 724 003e 10BD     		pop	{r4, pc}
 725              	.LVL56:
 726              	.L48:
 727              		.loc 1 281 0 discriminator 4
 728 0040 A342     		cmp	r3, r4
 729 0042 E7D0     		beq	.L49
 730              	.LBB57:
 731              		.loc 1 286 0
 732 0044 2023     		movs	r3, #32
 733              	@ 286 "../chibios_2.4.x/os/kernel/src/chsem.c" 1
 734 0046 83F31188 		msr     BASEPRI, r3
ARM GAS  C:\Users\z80\AppData\Local\Temp\ccgPhA14.s 			page 14


 735              	@ 0 "" 2
 736              	.LVL57:
 737              		.thumb
 738              	.LBE57:
 739 004a FFF7FEFF 		bl	dbg_check_lock
 740              	.LVL58:
 741              		.loc 1 287 0
 742 004e A168     		ldr	r1, [r4, #8]
 743 0050 481C     		adds	r0, r1, #1
 744 0052 0028     		cmp	r0, #0
 745 0054 A060     		str	r0, [r4, #8]
 746 0056 EDDC     		bgt	.L51
 747              	.L54:
 748              	.LVL59:
 749              	.LBB58:
 750              	.LBB59:
 751              		.loc 2 60 0
 752 0058 2068     		ldr	r0, [r4, #0]
 753              	.LVL60:
 754              	.LBE59:
 755              	.LBE58:
 756              		.loc 1 288 0
 757 005a 0021     		movs	r1, #0
 758              	.LBB61:
 759              	.LBB60:
 760              		.loc 2 62 0
 761 005c 0268     		ldr	r2, [r0, #0]
 762 005e 2260     		str	r2, [r4, #0]
 763 0060 5460     		str	r4, [r2, #4]
 764              	.LBE60:
 765              	.LBE61:
 766              		.loc 1 288 0
 767 0062 FFF7FEFF 		bl	chSchWakeupS
 768              	.LVL61:
 769              		.loc 1 289 0
 770 0066 FFF7FEFF 		bl	dbg_check_unlock
 771              	.LBB62:
 772 006a 0023     		movs	r3, #0
 773              	@ 289 "../chibios_2.4.x/os/kernel/src/chsem.c" 1
 774 006c 83F31188 		msr     BASEPRI, r3
 775              	@ 0 "" 2
 776              	.LVL62:
 777              		.thumb
 778              	.LBE62:
 779              		.loc 1 290 0
 780 0070 10BD     		pop	{r4, pc}
 781              	.LVL63:
 782              	.L53:
 783              		.loc 1 280 0 discriminator 1
 784 0072 40F20000 		movw	r0, #:lower16:.LC7
 785 0076 C0F20000 		movt	r0, #:upper16:.LC7
 786 007a FFF7FEFF 		bl	chDbgPanic
 787 007e C3E7     		b	.L47
 788              		.cfi_endproc
 789              	.LFE14:
 790              		.size	chSemSignal, .-chSemSignal
 791              		.section	.text.chSemSignalI,"ax",%progbits
ARM GAS  C:\Users\z80\AppData\Local\Temp\ccgPhA14.s 			page 15


 792              		.align	2
 793              		.p2align 4,,15
 794              		.global	chSemSignalI
 795              		.thumb
 796              		.thumb_func
 797              		.type	chSemSignalI, %function
 798              	chSemSignalI:
 799              	.LFB15:
 800              		.loc 1 303 0
 801              		.cfi_startproc
 802              		@ args = 0, pretend = 0, frame = 0
 803              		@ frame_needed = 0, uses_anonymous_args = 0
 804              	.LVL64:
 805 0000 10B5     		push	{r4, lr}
 806              	.LCFI8:
 807              		.cfi_def_cfa_offset 8
 808              		.cfi_offset 14, -4
 809              		.cfi_offset 4, -8
 810              		.loc 1 303 0
 811 0002 0446     		mov	r4, r0
 812              		.loc 1 305 0
 813 0004 FFF7FEFF 		bl	chDbgCheckClassI
 814              	.LVL65:
 815              		.loc 1 306 0
 816 0008 002C     		cmp	r4, #0
 817 000a 22D0     		beq	.L62
 818              	.L56:
 819              		.loc 1 307 0
 820 000c A368     		ldr	r3, [r4, #8]
 821 000e 2268     		ldr	r2, [r4, #0]
 822 0010 002B     		cmp	r3, #0
 823 0012 0DDB     		blt	.L57
 824              		.loc 1 307 0 is_stmt 0 discriminator 2
 825 0014 A242     		cmp	r2, r4
 826 0016 06D0     		beq	.L59
 827              	.L58:
 828              		.loc 1 307 0 discriminator 3
 829 0018 40F20000 		movw	r0, #:lower16:.LC10
 830 001c C0F20000 		movt	r0, #:upper16:.LC10
 831 0020 FFF7FEFF 		bl	chDbgPanic
 832 0024 A368     		ldr	r3, [r4, #8]
 833              	.L59:
 834              		.loc 1 312 0 is_stmt 1
 835 0026 0133     		adds	r3, r3, #1
 836 0028 002B     		cmp	r3, #0
 837 002a A360     		str	r3, [r4, #8]
 838 002c 06DD     		ble	.L63
 839              	.L55:
 840 002e 10BD     		pop	{r4, pc}
 841              	.L57:
 842              		.loc 1 307 0 discriminator 4
 843 0030 A242     		cmp	r2, r4
 844 0032 F1D0     		beq	.L58
 845              		.loc 1 312 0
 846 0034 0133     		adds	r3, r3, #1
 847 0036 002B     		cmp	r3, #0
 848 0038 A360     		str	r3, [r4, #8]
ARM GAS  C:\Users\z80\AppData\Local\Temp\ccgPhA14.s 			page 16


 849 003a F8DC     		bgt	.L55
 850              	.L63:
 851              	.LVL66:
 852              	.LBB63:
 853              	.LBB64:
 854              	.LBB65:
 855              		.loc 2 60 0
 856 003c 2168     		ldr	r1, [r4, #0]
 857              	.LVL67:
 858              	.LBE65:
 859              	.LBE64:
 860              		.loc 1 316 0
 861 003e 0022     		movs	r2, #0
 862              	.LBB68:
 863              	.LBB66:
 864              		.loc 2 62 0
 865 0040 0B68     		ldr	r3, [r1, #0]
 866              	.LBE66:
 867              	.LBE68:
 868              		.loc 1 317 0
 869 0042 0846     		mov	r0, r1
 870              	.LBB69:
 871              	.LBB67:
 872              		.loc 2 62 0
 873 0044 2360     		str	r3, [r4, #0]
 874 0046 5C60     		str	r4, [r3, #4]
 875              	.LBE67:
 876              	.LBE69:
 877              		.loc 1 316 0
 878 0048 8A62     		str	r2, [r1, #40]
 879              	.LBE63:
 880              		.loc 1 319 0
 881 004a BDE81040 		pop	{r4, lr}
 882              	.LBB70:
 883              		.loc 1 317 0
 884 004e FFF7FEBF 		b	chSchReadyI
 885              	.LVL68:
 886              	.L62:
 887              	.LBE70:
 888              		.loc 1 306 0 discriminator 1
 889 0052 40F20000 		movw	r0, #:lower16:.LC9
 890 0056 C0F20000 		movt	r0, #:upper16:.LC9
 891 005a FFF7FEFF 		bl	chDbgPanic
 892 005e D5E7     		b	.L56
 893              		.cfi_endproc
 894              	.LFE15:
 895              		.size	chSemSignalI, .-chSemSignalI
 896              		.section	.text.chSemAddCounterI,"ax",%progbits
 897              		.align	2
 898              		.p2align 4,,15
 899              		.global	chSemAddCounterI
 900              		.thumb
 901              		.thumb_func
 902              		.type	chSemAddCounterI, %function
 903              	chSemAddCounterI:
 904              	.LFB16:
 905              		.loc 1 334 0
ARM GAS  C:\Users\z80\AppData\Local\Temp\ccgPhA14.s 			page 17


 906              		.cfi_startproc
 907              		@ args = 0, pretend = 0, frame = 0
 908              		@ frame_needed = 0, uses_anonymous_args = 0
 909              	.LVL69:
 910 0000 F8B5     		push	{r3, r4, r5, r6, r7, lr}
 911              	.LCFI9:
 912              		.cfi_def_cfa_offset 24
 913              		.cfi_offset 14, -4
 914              		.cfi_offset 7, -8
 915              		.cfi_offset 6, -12
 916              		.cfi_offset 5, -16
 917              		.cfi_offset 4, -20
 918              		.cfi_offset 3, -24
 919              		.loc 1 334 0
 920 0002 0446     		mov	r4, r0
 921 0004 0D46     		mov	r5, r1
 922              		.loc 1 336 0
 923 0006 FFF7FEFF 		bl	chDbgCheckClassI
 924              	.LVL70:
 925              		.loc 1 337 0
 926 000a D4F10103 		rsbs	r3, r4, #1
 927 000e 38BF     		it	cc
 928 0010 0023     		movcc	r3, #0
 929 0012 002D     		cmp	r5, #0
 930 0014 D8BF     		it	le
 931 0016 43F00103 		orrle	r3, r3, #1
 932 001a 002B     		cmp	r3, #0
 933 001c 48D1     		bne	.L84
 934              	.L65:
 935              		.loc 1 338 0
 936 001e A068     		ldr	r0, [r4, #8]
 937 0020 2368     		ldr	r3, [r4, #0]
 938 0022 0028     		cmp	r0, #0
 939 0024 41DB     		blt	.L66
 940              		.loc 1 338 0 is_stmt 0 discriminator 2
 941 0026 A342     		cmp	r3, r4
 942 0028 05D0     		beq	.L68
 943              	.L67:
 944              		.loc 1 338 0 discriminator 3
 945 002a 40F20000 		movw	r0, #:lower16:.LC12
 946 002e C0F20000 		movt	r0, #:upper16:.LC12
 947 0032 FFF7FEFF 		bl	chDbgPanic
 948              	.L68:
 949              		.loc 1 343 0 is_stmt 1 discriminator 1
 950 0036 002D     		cmp	r5, #0
 951 0038 36DD     		ble	.L64
 952              		.loc 1 344 0
 953 003a A268     		ldr	r2, [r4, #8]
 954              		.loc 1 345 0
 955 003c 0026     		movs	r6, #0
 956              		.loc 1 344 0
 957 003e 511C     		adds	r1, r2, #1
 958 0040 6F1E     		subs	r7, r5, #1
 959 0042 B142     		cmp	r1, r6
 960 0044 A160     		str	r1, [r4, #8]
 961 0046 07F00107 		and	r7, r7, #1
 962 004a 38DD     		ble	.L85
ARM GAS  C:\Users\z80\AppData\Local\Temp\ccgPhA14.s 			page 18


 963              	.L74:
 964              		.loc 1 343 0
 965 004c 013D     		subs	r5, r5, #1
 966              	.LVL71:
 967 004e 2BD0     		beq	.L64
 968 0050 77B1     		cbz	r7, .L72
 969              		.loc 1 344 0
 970 0052 A268     		ldr	r2, [r4, #8]
 971 0054 501C     		adds	r0, r2, #1
 972 0056 0028     		cmp	r0, #0
 973 0058 A060     		str	r0, [r4, #8]
 974 005a 38DD     		ble	.L86
 975              	.L76:
 976              	.LVL72:
 977              		.loc 1 343 0
 978 005c 013D     		subs	r5, r5, #1
 979 005e 07D1     		bne	.L72
 980 0060 3DE0     		b	.L90
 981              	.L70:
 982              		.loc 1 344 0
 983 0062 A368     		ldr	r3, [r4, #8]
 984 0064 5A1C     		adds	r2, r3, #1
 985 0066 002A     		cmp	r2, #0
 986 0068 A260     		str	r2, [r4, #8]
 987 006a 13DD     		ble	.L88
 988              	.L79:
 989              		.loc 1 343 0
 990 006c 013D     		subs	r5, r5, #1
 991 006e 1AD0     		beq	.L89
 992              	.L72:
 993              		.loc 1 344 0
 994 0070 A068     		ldr	r0, [r4, #8]
 995              		.loc 1 346 0
 996 0072 013D     		subs	r5, r5, #1
 997              		.loc 1 344 0
 998 0074 431C     		adds	r3, r0, #1
 999 0076 002B     		cmp	r3, #0
 1000 0078 A360     		str	r3, [r4, #8]
 1001 007a F2DC     		bgt	.L70
 1002              	.LVL73:
 1003              	.LBB71:
 1004              	.LBB72:
 1005              		.loc 2 60 0
 1006 007c 2068     		ldr	r0, [r4, #0]
 1007              	.LVL74:
 1008              		.loc 2 62 0
 1009 007e 0168     		ldr	r1, [r0, #0]
 1010 0080 2160     		str	r1, [r4, #0]
 1011 0082 4C60     		str	r4, [r1, #4]
 1012              	.LBE72:
 1013              	.LBE71:
 1014              		.loc 1 345 0
 1015 0084 FFF7FEFF 		bl	chSchReadyI
 1016              	.LVL75:
 1017 0088 8662     		str	r6, [r0, #40]
 1018              		.loc 1 344 0
 1019 008a A368     		ldr	r3, [r4, #8]
ARM GAS  C:\Users\z80\AppData\Local\Temp\ccgPhA14.s 			page 19


 1020 008c 5A1C     		adds	r2, r3, #1
 1021 008e 002A     		cmp	r2, #0
 1022 0090 A260     		str	r2, [r4, #8]
 1023 0092 EBDC     		bgt	.L79
 1024              	.LVL76:
 1025              	.L88:
 1026              	.LBB76:
 1027              	.LBB73:
 1028              		.loc 2 60 0
 1029 0094 2068     		ldr	r0, [r4, #0]
 1030              		.loc 2 62 0
 1031 0096 0168     		ldr	r1, [r0, #0]
 1032 0098 2160     		str	r1, [r4, #0]
 1033 009a 4C60     		str	r4, [r1, #4]
 1034              	.LBE73:
 1035              	.LBE76:
 1036              		.loc 1 345 0
 1037 009c FFF7FEFF 		bl	chSchReadyI
 1038              		.loc 1 343 0
 1039 00a0 013D     		subs	r5, r5, #1
 1040              		.loc 1 345 0
 1041 00a2 8662     		str	r6, [r0, #40]
 1042              		.loc 1 343 0
 1043 00a4 E4D1     		bne	.L72
 1044              	.LVL77:
 1045              	.L89:
 1046 00a6 F8BD     		pop	{r3, r4, r5, r6, r7, pc}
 1047              	.L64:
 1048 00a8 F8BD     		pop	{r3, r4, r5, r6, r7, pc}
 1049              	.LVL78:
 1050              	.L66:
 1051              		.loc 1 338 0 discriminator 4
 1052 00aa A342     		cmp	r3, r4
 1053 00ac C3D1     		bne	.L68
 1054 00ae BCE7     		b	.L67
 1055              	.L84:
 1056              		.loc 1 337 0 discriminator 1
 1057 00b0 40F20000 		movw	r0, #:lower16:.LC11
 1058 00b4 C0F20000 		movt	r0, #:upper16:.LC11
 1059 00b8 FFF7FEFF 		bl	chDbgPanic
 1060 00bc AFE7     		b	.L65
 1061              	.L85:
 1062              	.LVL79:
 1063              	.LBB77:
 1064              	.LBB74:
 1065              		.loc 2 60 0
 1066 00be 2068     		ldr	r0, [r4, #0]
 1067              		.loc 2 62 0
 1068 00c0 0168     		ldr	r1, [r0, #0]
 1069 00c2 2160     		str	r1, [r4, #0]
 1070 00c4 4C60     		str	r4, [r1, #4]
 1071              	.LBE74:
 1072              	.LBE77:
 1073              		.loc 1 345 0
 1074 00c6 FFF7FEFF 		bl	chSchReadyI
 1075 00ca 8662     		str	r6, [r0, #40]
 1076 00cc BEE7     		b	.L74
ARM GAS  C:\Users\z80\AppData\Local\Temp\ccgPhA14.s 			page 20


 1077              	.LVL80:
 1078              	.L86:
 1079              	.LBB78:
 1080              	.LBB75:
 1081              		.loc 2 60 0
 1082 00ce 2068     		ldr	r0, [r4, #0]
 1083              		.loc 2 62 0
 1084 00d0 0368     		ldr	r3, [r0, #0]
 1085 00d2 2360     		str	r3, [r4, #0]
 1086 00d4 5C60     		str	r4, [r3, #4]
 1087              	.LBE75:
 1088              	.LBE78:
 1089              		.loc 1 345 0
 1090 00d6 FFF7FEFF 		bl	chSchReadyI
 1091 00da 8662     		str	r6, [r0, #40]
 1092 00dc BEE7     		b	.L76
 1093              	.LVL81:
 1094              	.L90:
 1095 00de F8BD     		pop	{r3, r4, r5, r6, r7, pc}
 1096              		.cfi_endproc
 1097              	.LFE16:
 1098              		.size	chSemAddCounterI, .-chSemAddCounterI
 1099              		.section	.text.chSemSignalWait,"ax",%progbits
 1100              		.align	2
 1101              		.p2align 4,,15
 1102              		.global	chSemSignalWait
 1103              		.thumb
 1104              		.thumb_func
 1105              		.type	chSemSignalWait, %function
 1106              	chSemSignalWait:
 1107              	.LFB17:
 1108              		.loc 1 366 0
 1109              		.cfi_startproc
 1110              		@ args = 0, pretend = 0, frame = 0
 1111              		@ frame_needed = 0, uses_anonymous_args = 0
 1112              	.LVL82:
 1113 0000 38B5     		push	{r3, r4, r5, lr}
 1114              	.LCFI10:
 1115              		.cfi_def_cfa_offset 16
 1116              		.cfi_offset 14, -4
 1117              		.cfi_offset 5, -8
 1118              		.cfi_offset 4, -12
 1119              		.cfi_offset 3, -16
 1120              		.loc 1 369 0
 1121 0002 D0F10103 		rsbs	r3, r0, #1
 1122 0006 38BF     		it	cc
 1123 0008 0023     		movcc	r3, #0
 1124 000a 0029     		cmp	r1, #0
 1125 000c 08BF     		it	eq
 1126 000e 43F00103 		orreq	r3, r3, #1
 1127 0012 0446     		mov	r4, r0
 1128 0014 0D46     		mov	r5, r1
 1129 0016 002B     		cmp	r3, #0
 1130 0018 66D1     		bne	.L104
 1131              	.LVL83:
 1132              	.L92:
 1133              		.loc 1 370 0
ARM GAS  C:\Users\z80\AppData\Local\Temp\ccgPhA14.s 			page 21


 1134 001a A068     		ldr	r0, [r4, #8]
 1135 001c 2368     		ldr	r3, [r4, #0]
 1136 001e 0028     		cmp	r0, #0
 1137 0020 2CDB     		blt	.L93
 1138              		.loc 1 370 0 is_stmt 0 discriminator 2
 1139 0022 A342     		cmp	r3, r4
 1140 0024 05D0     		beq	.L95
 1141              	.L94:
 1142              		.loc 1 370 0 discriminator 3
 1143 0026 40F20000 		movw	r0, #:lower16:.LC14
 1144 002a C0F20000 		movt	r0, #:upper16:.LC14
 1145 002e FFF7FEFF 		bl	chDbgPanic
 1146              	.L95:
 1147              		.loc 1 374 0 is_stmt 1
 1148 0032 A968     		ldr	r1, [r5, #8]
 1149 0034 2B68     		ldr	r3, [r5, #0]
 1150 0036 0029     		cmp	r1, #0
 1151 0038 26DB     		blt	.L96
 1152              	.L107:
 1153              		.loc 1 374 0 is_stmt 0 discriminator 2
 1154 003a AB42     		cmp	r3, r5
 1155 003c 05D0     		beq	.L98
 1156              	.L97:
 1157              		.loc 1 374 0 discriminator 3
 1158 003e 40F20000 		movw	r0, #:lower16:.LC15
 1159 0042 C0F20000 		movt	r0, #:upper16:.LC15
 1160 0046 FFF7FEFF 		bl	chDbgPanic
 1161              	.L98:
 1162              	.LBB79:
 1163              		.loc 1 379 0 is_stmt 1
 1164 004a 2023     		movs	r3, #32
 1165              	.LVL84:
 1166              	@ 379 "../chibios_2.4.x/os/kernel/src/chsem.c" 1
 1167 004c 83F31188 		msr     BASEPRI, r3
 1168              	@ 0 "" 2
 1169              	.LVL85:
 1170              		.thumb
 1171              	.LBE79:
 1172 0050 FFF7FEFF 		bl	dbg_check_lock
 1173              	.LVL86:
 1174              		.loc 1 380 0
 1175 0054 A368     		ldr	r3, [r4, #8]
 1176 0056 5A1C     		adds	r2, r3, #1
 1177 0058 002A     		cmp	r2, #0
 1178 005a A260     		str	r2, [r4, #8]
 1179 005c 20DD     		ble	.L105
 1180              	.L99:
 1181              		.loc 1 382 0
 1182 005e AA68     		ldr	r2, [r5, #8]
 1183 0060 501E     		subs	r0, r2, #1
 1184 0062 0028     		cmp	r0, #0
 1185 0064 A860     		str	r0, [r5, #8]
 1186 0066 28DB     		blt	.L106
 1187              	.LVL87:
 1188              	.L100:
 1189              		.loc 1 390 0
 1190 0068 FFF7FEFF 		bl	chSchRescheduleS
ARM GAS  C:\Users\z80\AppData\Local\Temp\ccgPhA14.s 			page 22


 1191              	.LVL88:
 1192              		.loc 1 391 0
 1193 006c 0024     		movs	r4, #0
 1194              	.LVL89:
 1195              		.loc 1 393 0
 1196 006e FFF7FEFF 		bl	dbg_check_unlock
 1197              	.LBB80:
 1198 0072 0023     		movs	r3, #0
 1199              	.LVL90:
 1200              	@ 393 "../chibios_2.4.x/os/kernel/src/chsem.c" 1
 1201 0074 83F31188 		msr     BASEPRI, r3
 1202              	@ 0 "" 2
 1203              	.LVL91:
 1204              		.thumb
 1205              	.LBE80:
 1206              		.loc 1 395 0
 1207 0078 2046     		mov	r0, r4
 1208 007a 38BD     		pop	{r3, r4, r5, pc}
 1209              	.LVL92:
 1210              	.L93:
 1211              		.loc 1 370 0 discriminator 4
 1212 007c A342     		cmp	r3, r4
 1213 007e D2D0     		beq	.L94
 1214              		.loc 1 374 0
 1215 0080 A968     		ldr	r1, [r5, #8]
 1216 0082 2B68     		ldr	r3, [r5, #0]
 1217 0084 0029     		cmp	r1, #0
 1218 0086 D8DA     		bge	.L107
 1219              	.L96:
 1220              		.loc 1 374 0 is_stmt 0 discriminator 4
 1221 0088 AB42     		cmp	r3, r5
 1222 008a D8D0     		beq	.L97
 1223              	.LBB81:
 1224              		.loc 1 379 0 is_stmt 1
 1225 008c 2023     		movs	r3, #32
 1226              	@ 379 "../chibios_2.4.x/os/kernel/src/chsem.c" 1
 1227 008e 83F31188 		msr     BASEPRI, r3
 1228              	@ 0 "" 2
 1229              	.LVL93:
 1230              		.thumb
 1231              	.LBE81:
 1232 0092 FFF7FEFF 		bl	dbg_check_lock
 1233              	.LVL94:
 1234              		.loc 1 380 0
 1235 0096 A368     		ldr	r3, [r4, #8]
 1236 0098 5A1C     		adds	r2, r3, #1
 1237 009a 002A     		cmp	r2, #0
 1238 009c A260     		str	r2, [r4, #8]
 1239 009e DEDC     		bgt	.L99
 1240              	.L105:
 1241              	.LVL95:
 1242              	.LBB82:
 1243              	.LBB83:
 1244              		.loc 2 60 0
 1245 00a0 2068     		ldr	r0, [r4, #0]
 1246              	.LVL96:
 1247              		.loc 2 62 0
ARM GAS  C:\Users\z80\AppData\Local\Temp\ccgPhA14.s 			page 23


 1248 00a2 0168     		ldr	r1, [r0, #0]
 1249 00a4 2160     		str	r1, [r4, #0]
 1250 00a6 4C60     		str	r4, [r1, #4]
 1251              	.LBE83:
 1252              	.LBE82:
 1253              		.loc 1 381 0
 1254 00a8 FFF7FEFF 		bl	chSchReadyI
 1255              	.LVL97:
 1256 00ac 0024     		movs	r4, #0
 1257              	.LVL98:
 1258 00ae 8462     		str	r4, [r0, #40]
 1259              		.loc 1 382 0
 1260 00b0 AA68     		ldr	r2, [r5, #8]
 1261 00b2 501E     		subs	r0, r2, #1
 1262 00b4 0028     		cmp	r0, #0
 1263 00b6 A860     		str	r0, [r5, #8]
 1264 00b8 D6DA     		bge	.L100
 1265              	.L106:
 1266              	.LBB84:
 1267              		.loc 1 383 0
 1268 00ba 40F2000C 		movw	ip, #:lower16:rlist
 1269 00be C0F2000C 		movt	ip, #:upper16:rlist
 1270 00c2 DCF81C40 		ldr	r4, [ip, #28]
 1271              	.LVL99:
 1272              	.LBB85:
 1273              	.LBB86:
 1274              		.loc 2 55 0
 1275 00c6 6B68     		ldr	r3, [r5, #4]
 1276              	.LBE86:
 1277              	.LBE85:
 1278              		.loc 1 386 0
 1279 00c8 0320     		movs	r0, #3
 1280              	.LBB88:
 1281              	.LBB87:
 1282              		.loc 2 54 0
 1283 00ca 2560     		str	r5, [r4, #0]
 1284              		.loc 2 55 0
 1285 00cc 6360     		str	r3, [r4, #4]
 1286              		.loc 2 56 0
 1287 00ce 6C60     		str	r4, [r5, #4]
 1288 00d0 1C60     		str	r4, [r3, #0]
 1289              	.LBE87:
 1290              	.LBE88:
 1291              		.loc 1 385 0
 1292 00d2 A562     		str	r5, [r4, #40]
 1293              		.loc 1 386 0
 1294 00d4 FFF7FEFF 		bl	chSchGoSleepS
 1295              	.LVL100:
 1296              		.loc 1 387 0
 1297 00d8 A46A     		ldr	r4, [r4, #40]
 1298              	.LVL101:
 1299              	.LBE84:
 1300              		.loc 1 393 0
 1301 00da FFF7FEFF 		bl	dbg_check_unlock
 1302              	.LBB89:
 1303 00de 0023     		movs	r3, #0
 1304              	@ 393 "../chibios_2.4.x/os/kernel/src/chsem.c" 1
ARM GAS  C:\Users\z80\AppData\Local\Temp\ccgPhA14.s 			page 24


 1305 00e0 83F31188 		msr     BASEPRI, r3
 1306              	@ 0 "" 2
 1307              	.LVL102:
 1308              		.thumb
 1309              	.LBE89:
 1310              		.loc 1 395 0
 1311 00e4 2046     		mov	r0, r4
 1312 00e6 38BD     		pop	{r3, r4, r5, pc}
 1313              	.LVL103:
 1314              	.L104:
 1315              		.loc 1 369 0 discriminator 1
 1316 00e8 40F20000 		movw	r0, #:lower16:.LC13
 1317              	.LVL104:
 1318 00ec C0F20000 		movt	r0, #:upper16:.LC13
 1319 00f0 FFF7FEFF 		bl	chDbgPanic
 1320 00f4 91E7     		b	.L92
 1321              		.cfi_endproc
 1322              	.LFE17:
 1323              		.size	chSemSignalWait, .-chSemSignalWait
 1324 00f6 00BFAFF3 		.section	.rodata.str1.4,"aMS",%progbits,1
 1324      0080AFF3 
 1324      0080
 1325              		.align	2
 1326              	.LC0:
 1327 0000 22636853 		.ascii	"\"chSemInit\"()\000"
 1327      656D496E 
 1327      69742228 
 1327      2900
 1328 000e 0000     		.space	2
 1329              	.LC1:
 1330 0010 22636853 		.ascii	"\"chSemResetI\"()\000"
 1330      656D5265 
 1330      73657449 
 1330      22282900 
 1331              	.LC2:
 1332 0020 63685365 		.ascii	"chSemResetI(), #1\000"
 1332      6D526573 
 1332      65744928 
 1332      292C2023 
 1332      3100
 1333 0032 0000     		.space	2
 1334              	.LC3:
 1335 0034 22636853 		.ascii	"\"chSemWaitS\"()\000"
 1335      656D5761 
 1335      69745322 
 1335      282900
 1336 0043 00       		.space	1
 1337              	.LC4:
 1338 0044 63685365 		.ascii	"chSemWaitS(), #1\000"
 1338      6D576169 
 1338      74532829 
 1338      2C202331 
 1338      00
 1339 0055 000000   		.space	3
 1340              	.LC5:
 1341 0058 22636853 		.ascii	"\"chSemWaitTimeoutS\"()\000"
 1341      656D5761 
ARM GAS  C:\Users\z80\AppData\Local\Temp\ccgPhA14.s 			page 25


 1341      69745469 
 1341      6D656F75 
 1341      74532228 
 1342 006e 0000     		.space	2
 1343              	.LC6:
 1344 0070 63685365 		.ascii	"chSemWaitTimeoutS(), #1\000"
 1344      6D576169 
 1344      7454696D 
 1344      656F7574 
 1344      5328292C 
 1345              	.LC7:
 1346 0088 22636853 		.ascii	"\"chSemSignal\"()\000"
 1346      656D5369 
 1346      676E616C 
 1346      22282900 
 1347              	.LC8:
 1348 0098 63685365 		.ascii	"chSemSignal(), #1\000"
 1348      6D536967 
 1348      6E616C28 
 1348      292C2023 
 1348      3100
 1349 00aa 0000     		.space	2
 1350              	.LC9:
 1351 00ac 22636853 		.ascii	"\"chSemSignalI\"()\000"
 1351      656D5369 
 1351      676E616C 
 1351      49222829 
 1351      00
 1352 00bd 000000   		.space	3
 1353              	.LC10:
 1354 00c0 63685365 		.ascii	"chSemSignalI(), #1\000"
 1354      6D536967 
 1354      6E616C49 
 1354      28292C20 
 1354      233100
 1355 00d3 00       		.space	1
 1356              	.LC11:
 1357 00d4 22636853 		.ascii	"\"chSemAddCounterI\"()\000"
 1357      656D4164 
 1357      64436F75 
 1357      6E746572 
 1357      49222829 
 1358 00e9 000000   		.space	3
 1359              	.LC12:
 1360 00ec 63685365 		.ascii	"chSemAddCounterI(), #1\000"
 1360      6D416464 
 1360      436F756E 
 1360      74657249 
 1360      28292C20 
 1361 0103 00       		.space	1
 1362              	.LC13:
 1363 0104 22636853 		.ascii	"\"chSemSignalWait\"()\000"
 1363      656D5369 
 1363      676E616C 
 1363      57616974 
 1363      22282900 
 1364              	.LC14:
ARM GAS  C:\Users\z80\AppData\Local\Temp\ccgPhA14.s 			page 26


 1365 0118 63685365 		.ascii	"chSemSignalWait(), #1\000"
 1365      6D536967 
 1365      6E616C57 
 1365      61697428 
 1365      292C2023 
 1366 012e 0000     		.space	2
 1367              	.LC15:
 1368 0130 63685365 		.ascii	"chSemSignalWait(), #2\000"
 1368      6D536967 
 1368      6E616C57 
 1368      61697428 
 1368      292C2023 
 1369 0146 0000     		.text
 1370              	.Letext0:
 1371              		.file 3 "c:\\programs\\codesourcery\\2011.03-56\\bin\\../lib/gcc/arm-none-eabi/4.6.3/../../../../a
 1372              		.file 4 "../chibios_2.4.x/os/ports/GCC/ARMCMx/chtypes.h"
 1373              		.file 5 "../chibios_2.4.x/os/kernel/include/chlists.h"
 1374              		.file 6 "../chibios_2.4.x/os/kernel/include/chthreads.h"
 1375              		.file 7 "../chibios_2.4.x/os/ports/GCC/ARMCMx/chcore_v7m.h"
 1376              		.file 8 "../chibios_2.4.x/os/kernel/include/chschd.h"
 1377              		.file 9 "../chibios_2.4.x/os/kernel/include/chsem.h"
 1378              		.file 10 "../chibios_2.4.x/os/kernel/include/chmtx.h"
 1379              		.section	.debug_info,"",%progbits
 1380              	.Ldebug_info0:
 1381 0000 CD090000 		.4byte	0x9cd
 1382 0004 0200     		.2byte	0x2
 1383 0006 00000000 		.4byte	.Ldebug_abbrev0
 1384 000a 04       		.byte	0x4
 1385 000b 01       		.uleb128 0x1
 1386 000c 8F020000 		.4byte	.LASF78
 1387 0010 01       		.byte	0x1
 1388 0011 47000000 		.4byte	.LASF79
 1389 0015 C1000000 		.4byte	.LASF80
 1390 0019 00000000 		.4byte	0
 1391 001d 00000000 		.4byte	0
 1392 0021 20020000 		.4byte	.Ldebug_ranges0+0x220
 1393 0025 00000000 		.4byte	.Ldebug_line0
 1394 0029 02       		.uleb128 0x2
 1395 002a 04       		.byte	0x4
 1396 002b 05       		.byte	0x5
 1397 002c 696E7400 		.ascii	"int\000"
 1398 0030 03       		.uleb128 0x3
 1399 0031 04       		.byte	0x4
 1400 0032 07       		.byte	0x7
 1401 0033 3E010000 		.4byte	.LASF0
 1402 0037 03       		.uleb128 0x3
 1403 0038 01       		.byte	0x1
 1404 0039 06       		.byte	0x6
 1405 003a 9D000000 		.4byte	.LASF1
 1406 003e 04       		.uleb128 0x4
 1407 003f 2F030000 		.4byte	.LASF5
 1408 0043 03       		.byte	0x3
 1409 0044 2A       		.byte	0x2a
 1410 0045 49000000 		.4byte	0x49
 1411 0049 03       		.uleb128 0x3
 1412 004a 01       		.byte	0x1
 1413 004b 08       		.byte	0x8
ARM GAS  C:\Users\z80\AppData\Local\Temp\ccgPhA14.s 			page 27


 1414 004c 1A020000 		.4byte	.LASF2
 1415 0050 03       		.uleb128 0x3
 1416 0051 02       		.byte	0x2
 1417 0052 05       		.byte	0x5
 1418 0053 32020000 		.4byte	.LASF3
 1419 0057 03       		.uleb128 0x3
 1420 0058 02       		.byte	0x2
 1421 0059 07       		.byte	0x7
 1422 005a 7C010000 		.4byte	.LASF4
 1423 005e 04       		.uleb128 0x4
 1424 005f 12020000 		.4byte	.LASF6
 1425 0063 03       		.byte	0x3
 1426 0064 4F       		.byte	0x4f
 1427 0065 69000000 		.4byte	0x69
 1428 0069 03       		.uleb128 0x3
 1429 006a 04       		.byte	0x4
 1430 006b 05       		.byte	0x5
 1431 006c EE000000 		.4byte	.LASF7
 1432 0070 04       		.uleb128 0x4
 1433 0071 7E020000 		.4byte	.LASF8
 1434 0075 03       		.byte	0x3
 1435 0076 50       		.byte	0x50
 1436 0077 7B000000 		.4byte	0x7b
 1437 007b 03       		.uleb128 0x3
 1438 007c 04       		.byte	0x4
 1439 007d 07       		.byte	0x7
 1440 007e 5C010000 		.4byte	.LASF9
 1441 0082 03       		.uleb128 0x3
 1442 0083 08       		.byte	0x8
 1443 0084 05       		.byte	0x5
 1444 0085 8F000000 		.4byte	.LASF10
 1445 0089 04       		.uleb128 0x4
 1446 008a 27000000 		.4byte	.LASF11
 1447 008e 03       		.byte	0x3
 1448 008f 78       		.byte	0x78
 1449 0090 94000000 		.4byte	0x94
 1450 0094 03       		.uleb128 0x3
 1451 0095 08       		.byte	0x8
 1452 0096 07       		.byte	0x7
 1453 0097 30000000 		.4byte	.LASF12
 1454 009b 04       		.uleb128 0x4
 1455 009c A0010000 		.4byte	.LASF13
 1456 00a0 04       		.byte	0x4
 1457 00a1 2F       		.byte	0x2f
 1458 00a2 3E000000 		.4byte	0x3e
 1459 00a6 04       		.uleb128 0x4
 1460 00a7 F7000000 		.4byte	.LASF14
 1461 00ab 04       		.byte	0x4
 1462 00ac 30       		.byte	0x30
 1463 00ad 3E000000 		.4byte	0x3e
 1464 00b1 04       		.uleb128 0x4
 1465 00b2 0A020000 		.4byte	.LASF15
 1466 00b6 04       		.byte	0x4
 1467 00b7 32       		.byte	0x32
 1468 00b8 70000000 		.4byte	0x70
 1469 00bc 04       		.uleb128 0x4
 1470 00bd 9A010000 		.4byte	.LASF16
ARM GAS  C:\Users\z80\AppData\Local\Temp\ccgPhA14.s 			page 28


 1471 00c1 04       		.byte	0x4
 1472 00c2 33       		.byte	0x33
 1473 00c3 5E000000 		.4byte	0x5e
 1474 00c7 04       		.uleb128 0x4
 1475 00c8 B4010000 		.4byte	.LASF17
 1476 00cc 04       		.byte	0x4
 1477 00cd 35       		.byte	0x35
 1478 00ce 70000000 		.4byte	0x70
 1479 00d2 04       		.uleb128 0x4
 1480 00d3 C5020000 		.4byte	.LASF18
 1481 00d7 04       		.byte	0x4
 1482 00d8 36       		.byte	0x36
 1483 00d9 70000000 		.4byte	0x70
 1484 00dd 04       		.uleb128 0x4
 1485 00de 2D010000 		.4byte	.LASF19
 1486 00e2 04       		.byte	0x4
 1487 00e3 37       		.byte	0x37
 1488 00e4 5E000000 		.4byte	0x5e
 1489 00e8 04       		.uleb128 0x4
 1490 00e9 6C020000 		.4byte	.LASF20
 1491 00ed 05       		.byte	0x5
 1492 00ee 2A       		.byte	0x2a
 1493 00ef F3000000 		.4byte	0xf3
 1494 00f3 05       		.uleb128 0x5
 1495 00f4 6C020000 		.4byte	.LASF20
 1496 00f8 48       		.byte	0x48
 1497 00f9 06       		.byte	0x6
 1498 00fa 5E       		.byte	0x5e
 1499 00fb FC010000 		.4byte	0x1fc
 1500 00ff 06       		.uleb128 0x6
 1501 0100 52020000 		.4byte	.LASF21
 1502 0104 06       		.byte	0x6
 1503 0105 5F       		.byte	0x5f
 1504 0106 21020000 		.4byte	0x221
 1505 010a 02       		.byte	0x2
 1506 010b 23       		.byte	0x23
 1507 010c 00       		.uleb128 0
 1508 010d 06       		.uleb128 0x6
 1509 010e 03020000 		.4byte	.LASF22
 1510 0112 06       		.byte	0x6
 1511 0113 61       		.byte	0x61
 1512 0114 21020000 		.4byte	0x221
 1513 0118 02       		.byte	0x2
 1514 0119 23       		.byte	0x23
 1515 011a 04       		.uleb128 0x4
 1516 011b 06       		.uleb128 0x6
 1517 011c 88000000 		.4byte	.LASF23
 1518 0120 06       		.byte	0x6
 1519 0121 63       		.byte	0x63
 1520 0122 B1000000 		.4byte	0xb1
 1521 0126 02       		.byte	0x2
 1522 0127 23       		.byte	0x23
 1523 0128 08       		.uleb128 0x8
 1524 0129 06       		.uleb128 0x6
 1525 012a 57030000 		.4byte	.LASF24
 1526 012e 06       		.byte	0x6
 1527 012f 64       		.byte	0x64
ARM GAS  C:\Users\z80\AppData\Local\Temp\ccgPhA14.s 			page 29


 1528 0130 F9020000 		.4byte	0x2f9
 1529 0134 02       		.byte	0x2
 1530 0135 23       		.byte	0x23
 1531 0136 0C       		.uleb128 0xc
 1532 0137 06       		.uleb128 0x6
 1533 0138 0C010000 		.4byte	.LASF25
 1534 013c 06       		.byte	0x6
 1535 013d 66       		.byte	0x66
 1536 013e 21020000 		.4byte	0x221
 1537 0142 02       		.byte	0x2
 1538 0143 23       		.byte	0x23
 1539 0144 10       		.uleb128 0x10
 1540 0145 06       		.uleb128 0x6
 1541 0146 D1010000 		.4byte	.LASF26
 1542 014a 06       		.byte	0x6
 1543 014b 67       		.byte	0x67
 1544 014c 21020000 		.4byte	0x221
 1545 0150 02       		.byte	0x2
 1546 0151 23       		.byte	0x23
 1547 0152 14       		.uleb128 0x14
 1548 0153 06       		.uleb128 0x6
 1549 0154 3E030000 		.4byte	.LASF27
 1550 0158 06       		.byte	0x6
 1551 0159 6E       		.byte	0x6e
 1552 015a 48040000 		.4byte	0x448
 1553 015e 02       		.byte	0x2
 1554 015f 23       		.byte	0x23
 1555 0160 18       		.uleb128 0x18
 1556 0161 06       		.uleb128 0x6
 1557 0162 33010000 		.4byte	.LASF28
 1558 0166 06       		.byte	0x6
 1559 0167 74       		.byte	0x74
 1560 0168 5A040000 		.4byte	0x45a
 1561 016c 02       		.byte	0x2
 1562 016d 23       		.byte	0x23
 1563 016e 1C       		.uleb128 0x1c
 1564 016f 06       		.uleb128 0x6
 1565 0170 3C020000 		.4byte	.LASF29
 1566 0174 06       		.byte	0x6
 1567 0175 79       		.byte	0x79
 1568 0176 A6000000 		.4byte	0xa6
 1569 017a 02       		.byte	0x2
 1570 017b 23       		.byte	0x23
 1571 017c 20       		.uleb128 0x20
 1572 017d 06       		.uleb128 0x6
 1573 017e 59020000 		.4byte	.LASF30
 1574 0182 06       		.byte	0x6
 1575 0183 7D       		.byte	0x7d
 1576 0184 9B000000 		.4byte	0x9b
 1577 0188 02       		.byte	0x2
 1578 0189 23       		.byte	0x23
 1579 018a 21       		.uleb128 0x21
 1580 018b 06       		.uleb128 0x6
 1581 018c E4020000 		.4byte	.LASF31
 1582 0190 06       		.byte	0x6
 1583 0191 89       		.byte	0x89
 1584 0192 1C030000 		.4byte	0x31c
ARM GAS  C:\Users\z80\AppData\Local\Temp\ccgPhA14.s 			page 30


 1585 0196 02       		.byte	0x2
 1586 0197 23       		.byte	0x23
 1587 0198 24       		.uleb128 0x24
 1588 0199 07       		.uleb128 0x7
 1589 019a 705F7500 		.ascii	"p_u\000"
 1590 019e 06       		.byte	0x6
 1591 019f AE       		.byte	0xae
 1592 01a0 13040000 		.4byte	0x413
 1593 01a4 02       		.byte	0x2
 1594 01a5 23       		.byte	0x23
 1595 01a6 28       		.uleb128 0x28
 1596 01a7 06       		.uleb128 0x6
 1597 01a8 5D030000 		.4byte	.LASF32
 1598 01ac 06       		.byte	0x6
 1599 01ad B3       		.byte	0xb3
 1600 01ae 49020000 		.4byte	0x249
 1601 01b2 02       		.byte	0x2
 1602 01b3 23       		.byte	0x23
 1603 01b4 2C       		.uleb128 0x2c
 1604 01b5 06       		.uleb128 0x6
 1605 01b6 FE020000 		.4byte	.LASF33
 1606 01ba 06       		.byte	0x6
 1607 01bb B9       		.byte	0xb9
 1608 01bc 27020000 		.4byte	0x227
 1609 01c0 02       		.byte	0x2
 1610 01c1 23       		.byte	0x23
 1611 01c2 30       		.uleb128 0x30
 1612 01c3 06       		.uleb128 0x6
 1613 01c4 00000000 		.4byte	.LASF34
 1614 01c8 06       		.byte	0x6
 1615 01c9 BD       		.byte	0xbd
 1616 01ca BC000000 		.4byte	0xbc
 1617 01ce 02       		.byte	0x2
 1618 01cf 23       		.byte	0x23
 1619 01d0 38       		.uleb128 0x38
 1620 01d1 06       		.uleb128 0x6
 1621 01d2 73020000 		.4byte	.LASF35
 1622 01d6 06       		.byte	0x6
 1623 01d7 C3       		.byte	0xc3
 1624 01d8 C7000000 		.4byte	0xc7
 1625 01dc 02       		.byte	0x2
 1626 01dd 23       		.byte	0x23
 1627 01de 3C       		.uleb128 0x3c
 1628 01df 06       		.uleb128 0x6
 1629 01e0 28020000 		.4byte	.LASF36
 1630 01e4 06       		.byte	0x6
 1631 01e5 CA       		.byte	0xca
 1632 01e6 60040000 		.4byte	0x460
 1633 01ea 02       		.byte	0x2
 1634 01eb 23       		.byte	0x23
 1635 01ec 40       		.uleb128 0x40
 1636 01ed 06       		.uleb128 0x6
 1637 01ee CF020000 		.4byte	.LASF37
 1638 01f2 06       		.byte	0x6
 1639 01f3 CE       		.byte	0xce
 1640 01f4 B1000000 		.4byte	0xb1
 1641 01f8 02       		.byte	0x2
ARM GAS  C:\Users\z80\AppData\Local\Temp\ccgPhA14.s 			page 31


 1642 01f9 23       		.byte	0x23
 1643 01fa 44       		.uleb128 0x44
 1644 01fb 00       		.byte	0
 1645 01fc 08       		.uleb128 0x8
 1646 01fd 08       		.byte	0x8
 1647 01fe 05       		.byte	0x5
 1648 01ff 61       		.byte	0x61
 1649 0200 21020000 		.4byte	0x221
 1650 0204 06       		.uleb128 0x6
 1651 0205 52020000 		.4byte	.LASF21
 1652 0209 05       		.byte	0x5
 1653 020a 62       		.byte	0x62
 1654 020b 21020000 		.4byte	0x221
 1655 020f 02       		.byte	0x2
 1656 0210 23       		.byte	0x23
 1657 0211 00       		.uleb128 0
 1658 0212 06       		.uleb128 0x6
 1659 0213 03020000 		.4byte	.LASF22
 1660 0217 05       		.byte	0x5
 1661 0218 64       		.byte	0x64
 1662 0219 21020000 		.4byte	0x221
 1663 021d 02       		.byte	0x2
 1664 021e 23       		.byte	0x23
 1665 021f 04       		.uleb128 0x4
 1666 0220 00       		.byte	0
 1667 0221 09       		.uleb128 0x9
 1668 0222 04       		.byte	0x4
 1669 0223 E8000000 		.4byte	0xe8
 1670 0227 04       		.uleb128 0x4
 1671 0228 DF010000 		.4byte	.LASF38
 1672 022c 05       		.byte	0x5
 1673 022d 66       		.byte	0x66
 1674 022e FC010000 		.4byte	0x1fc
 1675 0232 08       		.uleb128 0x8
 1676 0233 04       		.byte	0x4
 1677 0234 05       		.byte	0x5
 1678 0235 6B       		.byte	0x6b
 1679 0236 49020000 		.4byte	0x249
 1680 023a 06       		.uleb128 0x6
 1681 023b 52020000 		.4byte	.LASF21
 1682 023f 05       		.byte	0x5
 1683 0240 6D       		.byte	0x6d
 1684 0241 21020000 		.4byte	0x221
 1685 0245 02       		.byte	0x2
 1686 0246 23       		.byte	0x23
 1687 0247 00       		.uleb128 0
 1688 0248 00       		.byte	0
 1689 0249 04       		.uleb128 0x4
 1690 024a A8010000 		.4byte	.LASF39
 1691 024e 05       		.byte	0x5
 1692 024f 70       		.byte	0x70
 1693 0250 32020000 		.4byte	0x232
 1694 0254 04       		.uleb128 0x4
 1695 0255 24010000 		.4byte	.LASF40
 1696 0259 07       		.byte	0x7
 1697 025a D7       		.byte	0xd7
 1698 025b 5F020000 		.4byte	0x25f
ARM GAS  C:\Users\z80\AppData\Local\Temp\ccgPhA14.s 			page 32


 1699 025f 0A       		.uleb128 0xa
 1700 0260 04       		.byte	0x4
 1701 0261 04       		.uleb128 0x4
 1702 0262 C6010000 		.4byte	.LASF41
 1703 0266 07       		.byte	0x7
 1704 0267 DD       		.byte	0xdd
 1705 0268 89000000 		.4byte	0x89
 1706 026c 05       		.uleb128 0x5
 1707 026d F7020000 		.4byte	.LASF42
 1708 0271 24       		.byte	0x24
 1709 0272 07       		.byte	0x7
 1710 0273 FE       		.byte	0xfe
 1711 0274 F9020000 		.4byte	0x2f9
 1712 0278 0B       		.uleb128 0xb
 1713 0279 723400   		.ascii	"r4\000"
 1714 027c 07       		.byte	0x7
 1715 027d 1101     		.2byte	0x111
 1716 027f 54020000 		.4byte	0x254
 1717 0283 02       		.byte	0x2
 1718 0284 23       		.byte	0x23
 1719 0285 00       		.uleb128 0
 1720 0286 0B       		.uleb128 0xb
 1721 0287 723500   		.ascii	"r5\000"
 1722 028a 07       		.byte	0x7
 1723 028b 1201     		.2byte	0x112
 1724 028d 54020000 		.4byte	0x254
 1725 0291 02       		.byte	0x2
 1726 0292 23       		.byte	0x23
 1727 0293 04       		.uleb128 0x4
 1728 0294 0B       		.uleb128 0xb
 1729 0295 723600   		.ascii	"r6\000"
 1730 0298 07       		.byte	0x7
 1731 0299 1301     		.2byte	0x113
 1732 029b 54020000 		.4byte	0x254
 1733 029f 02       		.byte	0x2
 1734 02a0 23       		.byte	0x23
 1735 02a1 08       		.uleb128 0x8
 1736 02a2 0B       		.uleb128 0xb
 1737 02a3 723700   		.ascii	"r7\000"
 1738 02a6 07       		.byte	0x7
 1739 02a7 1401     		.2byte	0x114
 1740 02a9 54020000 		.4byte	0x254
 1741 02ad 02       		.byte	0x2
 1742 02ae 23       		.byte	0x23
 1743 02af 0C       		.uleb128 0xc
 1744 02b0 0B       		.uleb128 0xb
 1745 02b1 723800   		.ascii	"r8\000"
 1746 02b4 07       		.byte	0x7
 1747 02b5 1501     		.2byte	0x115
 1748 02b7 54020000 		.4byte	0x254
 1749 02bb 02       		.byte	0x2
 1750 02bc 23       		.byte	0x23
 1751 02bd 10       		.uleb128 0x10
 1752 02be 0B       		.uleb128 0xb
 1753 02bf 723900   		.ascii	"r9\000"
 1754 02c2 07       		.byte	0x7
 1755 02c3 1601     		.2byte	0x116
ARM GAS  C:\Users\z80\AppData\Local\Temp\ccgPhA14.s 			page 33


 1756 02c5 54020000 		.4byte	0x254
 1757 02c9 02       		.byte	0x2
 1758 02ca 23       		.byte	0x23
 1759 02cb 14       		.uleb128 0x14
 1760 02cc 0B       		.uleb128 0xb
 1761 02cd 72313000 		.ascii	"r10\000"
 1762 02d1 07       		.byte	0x7
 1763 02d2 1701     		.2byte	0x117
 1764 02d4 54020000 		.4byte	0x254
 1765 02d8 02       		.byte	0x2
 1766 02d9 23       		.byte	0x23
 1767 02da 18       		.uleb128 0x18
 1768 02db 0B       		.uleb128 0xb
 1769 02dc 72313100 		.ascii	"r11\000"
 1770 02e0 07       		.byte	0x7
 1771 02e1 1801     		.2byte	0x118
 1772 02e3 54020000 		.4byte	0x254
 1773 02e7 02       		.byte	0x2
 1774 02e8 23       		.byte	0x23
 1775 02e9 1C       		.uleb128 0x1c
 1776 02ea 0B       		.uleb128 0xb
 1777 02eb 6C7200   		.ascii	"lr\000"
 1778 02ee 07       		.byte	0x7
 1779 02ef 1901     		.2byte	0x119
 1780 02f1 54020000 		.4byte	0x254
 1781 02f5 02       		.byte	0x2
 1782 02f6 23       		.byte	0x23
 1783 02f7 20       		.uleb128 0x20
 1784 02f8 00       		.byte	0
 1785 02f9 0C       		.uleb128 0xc
 1786 02fa 74010000 		.4byte	.LASF43
 1787 02fe 04       		.byte	0x4
 1788 02ff 07       		.byte	0x7
 1789 0300 2301     		.2byte	0x123
 1790 0302 16030000 		.4byte	0x316
 1791 0306 0B       		.uleb128 0xb
 1792 0307 72313300 		.ascii	"r13\000"
 1793 030b 07       		.byte	0x7
 1794 030c 2401     		.2byte	0x124
 1795 030e 16030000 		.4byte	0x316
 1796 0312 02       		.byte	0x2
 1797 0313 23       		.byte	0x23
 1798 0314 00       		.uleb128 0
 1799 0315 00       		.byte	0
 1800 0316 09       		.uleb128 0x9
 1801 0317 04       		.byte	0x4
 1802 0318 6C020000 		.4byte	0x26c
 1803 031c 0D       		.uleb128 0xd
 1804 031d D2000000 		.4byte	0xd2
 1805 0321 08       		.uleb128 0x8
 1806 0322 20       		.byte	0x20
 1807 0323 08       		.byte	0x8
 1808 0324 5E       		.byte	0x5e
 1809 0325 8C030000 		.4byte	0x38c
 1810 0329 06       		.uleb128 0x6
 1811 032a 87020000 		.4byte	.LASF44
 1812 032e 08       		.byte	0x8
ARM GAS  C:\Users\z80\AppData\Local\Temp\ccgPhA14.s 			page 34


 1813 032f 5F       		.byte	0x5f
 1814 0330 27020000 		.4byte	0x227
 1815 0334 02       		.byte	0x2
 1816 0335 23       		.byte	0x23
 1817 0336 00       		.uleb128 0
 1818 0337 06       		.uleb128 0x6
 1819 0338 44020000 		.4byte	.LASF45
 1820 033c 08       		.byte	0x8
 1821 033d 60       		.byte	0x60
 1822 033e B1000000 		.4byte	0xb1
 1823 0342 02       		.byte	0x2
 1824 0343 23       		.byte	0x23
 1825 0344 08       		.uleb128 0x8
 1826 0345 06       		.uleb128 0x6
 1827 0346 D9010000 		.4byte	.LASF46
 1828 034a 08       		.byte	0x8
 1829 034b 62       		.byte	0x62
 1830 034c F9020000 		.4byte	0x2f9
 1831 0350 02       		.byte	0x2
 1832 0351 23       		.byte	0x23
 1833 0352 0C       		.uleb128 0xc
 1834 0353 06       		.uleb128 0x6
 1835 0354 1C010000 		.4byte	.LASF47
 1836 0358 08       		.byte	0x8
 1837 0359 65       		.byte	0x65
 1838 035a 21020000 		.4byte	0x221
 1839 035e 02       		.byte	0x2
 1840 035f 23       		.byte	0x23
 1841 0360 10       		.uleb128 0x10
 1842 0361 06       		.uleb128 0x6
 1843 0362 FB010000 		.4byte	.LASF48
 1844 0366 08       		.byte	0x8
 1845 0367 66       		.byte	0x66
 1846 0368 21020000 		.4byte	0x221
 1847 036c 02       		.byte	0x2
 1848 036d 23       		.byte	0x23
 1849 036e 14       		.uleb128 0x14
 1850 036f 06       		.uleb128 0x6
 1851 0370 45030000 		.4byte	.LASF49
 1852 0374 08       		.byte	0x8
 1853 0375 6A       		.byte	0x6a
 1854 0376 DD000000 		.4byte	0xdd
 1855 037a 02       		.byte	0x2
 1856 037b 23       		.byte	0x23
 1857 037c 18       		.uleb128 0x18
 1858 037d 06       		.uleb128 0x6
 1859 037e F1010000 		.4byte	.LASF50
 1860 0382 08       		.byte	0x8
 1861 0383 6C       		.byte	0x6c
 1862 0384 21020000 		.4byte	0x221
 1863 0388 02       		.byte	0x2
 1864 0389 23       		.byte	0x23
 1865 038a 1C       		.uleb128 0x1c
 1866 038b 00       		.byte	0
 1867 038c 04       		.uleb128 0x4
 1868 038d 13030000 		.4byte	.LASF51
 1869 0391 08       		.byte	0x8
ARM GAS  C:\Users\z80\AppData\Local\Temp\ccgPhA14.s 			page 35


 1870 0392 6E       		.byte	0x6e
 1871 0393 21030000 		.4byte	0x321
 1872 0397 05       		.uleb128 0x5
 1873 0398 09030000 		.4byte	.LASF52
 1874 039c 0C       		.byte	0xc
 1875 039d 09       		.byte	0x9
 1876 039e 2C       		.byte	0x2c
 1877 039f C0030000 		.4byte	0x3c0
 1878 03a3 06       		.uleb128 0x6
 1879 03a4 14010000 		.4byte	.LASF53
 1880 03a8 09       		.byte	0x9
 1881 03a9 2D       		.byte	0x2d
 1882 03aa 27020000 		.4byte	0x227
 1883 03ae 02       		.byte	0x2
 1884 03af 23       		.byte	0x23
 1885 03b0 00       		.uleb128 0
 1886 03b1 06       		.uleb128 0x6
 1887 03b2 6E010000 		.4byte	.LASF54
 1888 03b6 09       		.byte	0x9
 1889 03b7 2F       		.byte	0x2f
 1890 03b8 DD000000 		.4byte	0xdd
 1891 03bc 02       		.byte	0x2
 1892 03bd 23       		.byte	0x23
 1893 03be 08       		.uleb128 0x8
 1894 03bf 00       		.byte	0
 1895 03c0 04       		.uleb128 0x4
 1896 03c1 09030000 		.4byte	.LASF52
 1897 03c5 09       		.byte	0x9
 1898 03c6 30       		.byte	0x30
 1899 03c7 97030000 		.4byte	0x397
 1900 03cb 05       		.uleb128 0x5
 1901 03cc C0010000 		.4byte	.LASF55
 1902 03d0 10       		.byte	0x10
 1903 03d1 0A       		.byte	0xa
 1904 03d2 2C       		.byte	0x2c
 1905 03d3 02040000 		.4byte	0x402
 1906 03d7 06       		.uleb128 0x6
 1907 03d8 B9000000 		.4byte	.LASF56
 1908 03dc 0A       		.byte	0xa
 1909 03dd 2D       		.byte	0x2d
 1910 03de 27020000 		.4byte	0x227
 1911 03e2 02       		.byte	0x2
 1912 03e3 23       		.byte	0x23
 1913 03e4 00       		.uleb128 0
 1914 03e5 06       		.uleb128 0x6
 1915 03e6 4F030000 		.4byte	.LASF57
 1916 03ea 0A       		.byte	0xa
 1917 03eb 2F       		.byte	0x2f
 1918 03ec 21020000 		.4byte	0x221
 1919 03f0 02       		.byte	0x2
 1920 03f1 23       		.byte	0x23
 1921 03f2 08       		.uleb128 0x8
 1922 03f3 06       		.uleb128 0x6
 1923 03f4 BE020000 		.4byte	.LASF58
 1924 03f8 0A       		.byte	0xa
 1925 03f9 31       		.byte	0x31
 1926 03fa 02040000 		.4byte	0x402
ARM GAS  C:\Users\z80\AppData\Local\Temp\ccgPhA14.s 			page 36


 1927 03fe 02       		.byte	0x2
 1928 03ff 23       		.byte	0x23
 1929 0400 0C       		.uleb128 0xc
 1930 0401 00       		.byte	0
 1931 0402 09       		.uleb128 0x9
 1932 0403 04       		.byte	0x4
 1933 0404 CB030000 		.4byte	0x3cb
 1934 0408 04       		.uleb128 0x4
 1935 0409 C0010000 		.4byte	.LASF55
 1936 040d 0A       		.byte	0xa
 1937 040e 33       		.byte	0x33
 1938 040f CB030000 		.4byte	0x3cb
 1939 0413 0E       		.uleb128 0xe
 1940 0414 04       		.byte	0x4
 1941 0415 06       		.byte	0x6
 1942 0416 90       		.byte	0x90
 1943 0417 48040000 		.4byte	0x448
 1944 041b 0F       		.uleb128 0xf
 1945 041c 20000000 		.4byte	.LASF59
 1946 0420 06       		.byte	0x6
 1947 0421 97       		.byte	0x97
 1948 0422 BC000000 		.4byte	0xbc
 1949 0426 0F       		.uleb128 0xf
 1950 0427 6E000000 		.4byte	.LASF60
 1951 042b 06       		.byte	0x6
 1952 042c 9E       		.byte	0x9e
 1953 042d BC000000 		.4byte	0xbc
 1954 0431 0F       		.uleb128 0xf
 1955 0432 37030000 		.4byte	.LASF61
 1956 0436 06       		.byte	0x6
 1957 0437 A5       		.byte	0xa5
 1958 0438 5F020000 		.4byte	0x25f
 1959 043c 0F       		.uleb128 0xf
 1960 043d 4B020000 		.4byte	.LASF62
 1961 0441 06       		.byte	0x6
 1962 0442 AC       		.byte	0xac
 1963 0443 C7000000 		.4byte	0xc7
 1964 0447 00       		.byte	0
 1965 0448 09       		.uleb128 0x9
 1966 0449 04       		.byte	0x4
 1967 044a 4E040000 		.4byte	0x44e
 1968 044e 10       		.uleb128 0x10
 1969 044f 53040000 		.4byte	0x453
 1970 0453 03       		.uleb128 0x3
 1971 0454 01       		.byte	0x1
 1972 0455 08       		.byte	0x8
 1973 0456 9B020000 		.4byte	.LASF63
 1974 045a 09       		.uleb128 0x9
 1975 045b 04       		.byte	0x4
 1976 045c 61020000 		.4byte	0x261
 1977 0460 09       		.uleb128 0x9
 1978 0461 04       		.byte	0x4
 1979 0462 08040000 		.4byte	0x408
 1980 0466 11       		.uleb128 0x11
 1981 0467 EB020000 		.4byte	.LASF64
 1982 046b 02       		.byte	0x2
 1983 046c 42       		.byte	0x42
ARM GAS  C:\Users\z80\AppData\Local\Temp\ccgPhA14.s 			page 37


 1984 046d 01       		.byte	0x1
 1985 046e 21020000 		.4byte	0x221
 1986 0472 03       		.byte	0x3
 1987 0473 8D040000 		.4byte	0x48d
 1988 0477 12       		.uleb128 0x12
 1989 0478 74717000 		.ascii	"tqp\000"
 1990 047c 02       		.byte	0x2
 1991 047d 42       		.byte	0x42
 1992 047e 8D040000 		.4byte	0x48d
 1993 0482 13       		.uleb128 0x13
 1994 0483 747000   		.ascii	"tp\000"
 1995 0486 02       		.byte	0x2
 1996 0487 43       		.byte	0x43
 1997 0488 21020000 		.4byte	0x221
 1998 048c 00       		.byte	0
 1999 048d 09       		.uleb128 0x9
 2000 048e 04       		.byte	0x4
 2001 048f 27020000 		.4byte	0x227
 2002 0493 14       		.uleb128 0x14
 2003 0494 06000000 		.4byte	.LASF81
 2004 0498 02       		.byte	0x2
 2005 0499 34       		.byte	0x34
 2006 049a 01       		.byte	0x1
 2007 049b 03       		.byte	0x3
 2008 049c B6040000 		.4byte	0x4b6
 2009 04a0 12       		.uleb128 0x12
 2010 04a1 747000   		.ascii	"tp\000"
 2011 04a4 02       		.byte	0x2
 2012 04a5 34       		.byte	0x34
 2013 04a6 21020000 		.4byte	0x221
 2014 04aa 12       		.uleb128 0x12
 2015 04ab 74717000 		.ascii	"tqp\000"
 2016 04af 02       		.byte	0x2
 2017 04b0 34       		.byte	0x34
 2018 04b1 8D040000 		.4byte	0x48d
 2019 04b5 00       		.byte	0
 2020 04b6 11       		.uleb128 0x11
 2021 04b7 A0020000 		.4byte	.LASF65
 2022 04bb 02       		.byte	0x2
 2023 04bc 3B       		.byte	0x3b
 2024 04bd 01       		.byte	0x1
 2025 04be 21020000 		.4byte	0x221
 2026 04c2 03       		.byte	0x3
 2027 04c3 DD040000 		.4byte	0x4dd
 2028 04c7 12       		.uleb128 0x12
 2029 04c8 74717000 		.ascii	"tqp\000"
 2030 04cc 02       		.byte	0x2
 2031 04cd 3B       		.byte	0x3b
 2032 04ce 8D040000 		.4byte	0x48d
 2033 04d2 13       		.uleb128 0x13
 2034 04d3 747000   		.ascii	"tp\000"
 2035 04d6 02       		.byte	0x2
 2036 04d7 3C       		.byte	0x3c
 2037 04d8 21020000 		.4byte	0x221
 2038 04dc 00       		.byte	0
 2039 04dd 15       		.uleb128 0x15
 2040 04de 01       		.byte	0x1
ARM GAS  C:\Users\z80\AppData\Local\Temp\ccgPhA14.s 			page 38


 2041 04df 67030000 		.4byte	.LASF66
 2042 04e3 01       		.byte	0x1
 2043 04e4 56       		.byte	0x56
 2044 04e5 01       		.byte	0x1
 2045 04e6 00000000 		.4byte	.LFB7
 2046 04ea 28000000 		.4byte	.LFE7
 2047 04ee 00000000 		.4byte	.LLST0
 2048 04f2 12050000 		.4byte	0x512
 2049 04f6 16       		.uleb128 0x16
 2050 04f7 737000   		.ascii	"sp\000"
 2051 04fa 01       		.byte	0x1
 2052 04fb 56       		.byte	0x56
 2053 04fc 12050000 		.4byte	0x512
 2054 0500 20000000 		.4byte	.LLST1
 2055 0504 16       		.uleb128 0x16
 2056 0505 6E00     		.ascii	"n\000"
 2057 0507 01       		.byte	0x1
 2058 0508 56       		.byte	0x56
 2059 0509 DD000000 		.4byte	0xdd
 2060 050d 3E000000 		.4byte	.LLST2
 2061 0511 00       		.byte	0
 2062 0512 09       		.uleb128 0x9
 2063 0513 04       		.byte	0x4
 2064 0514 C0030000 		.4byte	0x3c0
 2065 0518 15       		.uleb128 0x15
 2066 0519 01       		.byte	0x1
 2067 051a 1D030000 		.4byte	.LASF67
 2068 051e 01       		.byte	0x1
 2069 051f 88       		.byte	0x88
 2070 0520 01       		.byte	0x1
 2071 0521 00000000 		.4byte	.LFB9
 2072 0525 AA000000 		.4byte	.LFE9
 2073 0529 5C000000 		.4byte	.LLST3
 2074 052d 80050000 		.4byte	0x580
 2075 0531 16       		.uleb128 0x16
 2076 0532 737000   		.ascii	"sp\000"
 2077 0535 01       		.byte	0x1
 2078 0536 88       		.byte	0x88
 2079 0537 12050000 		.4byte	0x512
 2080 053b 7C000000 		.4byte	.LLST4
 2081 053f 16       		.uleb128 0x16
 2082 0540 6E00     		.ascii	"n\000"
 2083 0542 01       		.byte	0x1
 2084 0543 88       		.byte	0x88
 2085 0544 DD000000 		.4byte	0xdd
 2086 0548 9A000000 		.4byte	.LLST5
 2087 054c 17       		.uleb128 0x17
 2088 054d 636E7400 		.ascii	"cnt\000"
 2089 0551 01       		.byte	0x1
 2090 0552 89       		.byte	0x89
 2091 0553 DD000000 		.4byte	0xdd
 2092 0557 CF000000 		.4byte	.LLST6
 2093 055b 18       		.uleb128 0x18
 2094 055c 66040000 		.4byte	0x466
 2095 0560 3A000000 		.4byte	.LBB24
 2096 0564 00000000 		.4byte	.Ldebug_ranges0+0
 2097 0568 01       		.byte	0x1
ARM GAS  C:\Users\z80\AppData\Local\Temp\ccgPhA14.s 			page 39


 2098 0569 95       		.byte	0x95
 2099 056a 19       		.uleb128 0x19
 2100 056b 77040000 		.4byte	0x477
 2101 056f 05010000 		.4byte	.LLST7
 2102 0573 1A       		.uleb128 0x1a
 2103 0574 50000000 		.4byte	.Ldebug_ranges0+0x50
 2104 0578 1B       		.uleb128 0x1b
 2105 0579 82040000 		.4byte	0x482
 2106 057d 00       		.byte	0
 2107 057e 00       		.byte	0
 2108 057f 00       		.byte	0
 2109 0580 15       		.uleb128 0x15
 2110 0581 01       		.byte	0x1
 2111 0582 8F010000 		.4byte	.LASF68
 2112 0586 01       		.byte	0x1
 2113 0587 6D       		.byte	0x6d
 2114 0588 01       		.byte	0x1
 2115 0589 00000000 		.4byte	.LFB8
 2116 058d 28000000 		.4byte	.LFE8
 2117 0591 23010000 		.4byte	.LLST8
 2118 0595 EB050000 		.4byte	0x5eb
 2119 0599 16       		.uleb128 0x16
 2120 059a 737000   		.ascii	"sp\000"
 2121 059d 01       		.byte	0x1
 2122 059e 6D       		.byte	0x6d
 2123 059f 12050000 		.4byte	0x512
 2124 05a3 43010000 		.4byte	.LLST9
 2125 05a7 16       		.uleb128 0x16
 2126 05a8 6E00     		.ascii	"n\000"
 2127 05aa 01       		.byte	0x1
 2128 05ab 6D       		.byte	0x6d
 2129 05ac DD000000 		.4byte	0xdd
 2130 05b0 61010000 		.4byte	.LLST10
 2131 05b4 1C       		.uleb128 0x1c
 2132 05b5 06000000 		.4byte	.LBB42
 2133 05b9 0C000000 		.4byte	.LBE42
 2134 05bd D1050000 		.4byte	0x5d1
 2135 05c1 17       		.uleb128 0x17
 2136 05c2 746D7000 		.ascii	"tmp\000"
 2137 05c6 01       		.byte	0x1
 2138 05c7 6F       		.byte	0x6f
 2139 05c8 70000000 		.4byte	0x70
 2140 05cc 7F010000 		.4byte	.LLST11
 2141 05d0 00       		.byte	0
 2142 05d1 1D       		.uleb128 0x1d
 2143 05d2 20000000 		.4byte	.LBB43
 2144 05d6 26000000 		.4byte	.LBE43
 2145 05da 17       		.uleb128 0x17
 2146 05db 746D7000 		.ascii	"tmp\000"
 2147 05df 01       		.byte	0x1
 2148 05e0 72       		.byte	0x72
 2149 05e1 70000000 		.4byte	0x70
 2150 05e5 92010000 		.4byte	.LLST12
 2151 05e9 00       		.byte	0
 2152 05ea 00       		.byte	0
 2153 05eb 1E       		.uleb128 0x1e
 2154 05ec 01       		.byte	0x1
ARM GAS  C:\Users\z80\AppData\Local\Temp\ccgPhA14.s 			page 40


 2155 05ed 61020000 		.4byte	.LASF69
 2156 05f1 01       		.byte	0x1
 2157 05f2 B9       		.byte	0xb9
 2158 05f3 01       		.byte	0x1
 2159 05f4 BC000000 		.4byte	0xbc
 2160 05f8 00000000 		.4byte	.LFB11
 2161 05fc 6E000000 		.4byte	.LFE11
 2162 0600 A5010000 		.4byte	.LLST13
 2163 0604 39060000 		.4byte	0x639
 2164 0608 16       		.uleb128 0x16
 2165 0609 737000   		.ascii	"sp\000"
 2166 060c 01       		.byte	0x1
 2167 060d B9       		.byte	0xb9
 2168 060e 12050000 		.4byte	0x512
 2169 0612 C5010000 		.4byte	.LLST14
 2170 0616 1F       		.uleb128 0x1f
 2171 0617 93040000 		.4byte	0x493
 2172 061b 4C000000 		.4byte	.LBB44
 2173 061f 56000000 		.4byte	.LBE44
 2174 0623 01       		.byte	0x1
 2175 0624 C4       		.byte	0xc4
 2176 0625 19       		.uleb128 0x19
 2177 0626 AA040000 		.4byte	0x4aa
 2178 062a E3010000 		.4byte	.LLST15
 2179 062e 19       		.uleb128 0x19
 2180 062f A0040000 		.4byte	0x4a0
 2181 0633 F6010000 		.4byte	.LLST16
 2182 0637 00       		.byte	0
 2183 0638 00       		.byte	0
 2184 0639 1E       		.uleb128 0x1e
 2185 063a 01       		.byte	0x1
 2186 063b DA020000 		.4byte	.LASF70
 2187 063f 01       		.byte	0x1
 2188 0640 A4       		.byte	0xa4
 2189 0641 01       		.byte	0x1
 2190 0642 BC000000 		.4byte	0xbc
 2191 0646 00000000 		.4byte	.LFB10
 2192 064a 24000000 		.4byte	.LFE10
 2193 064e 0A020000 		.4byte	.LLST17
 2194 0652 A6060000 		.4byte	0x6a6
 2195 0656 16       		.uleb128 0x16
 2196 0657 737000   		.ascii	"sp\000"
 2197 065a 01       		.byte	0x1
 2198 065b A4       		.byte	0xa4
 2199 065c 12050000 		.4byte	0x512
 2200 0660 2A020000 		.4byte	.LLST18
 2201 0664 17       		.uleb128 0x17
 2202 0665 6D736700 		.ascii	"msg\000"
 2203 0669 01       		.byte	0x1
 2204 066a A5       		.byte	0xa5
 2205 066b BC000000 		.4byte	0xbc
 2206 066f 48020000 		.4byte	.LLST19
 2207 0673 20       		.uleb128 0x20
 2208 0674 A0000000 		.4byte	.Ldebug_ranges0+0xa0
 2209 0678 8C060000 		.4byte	0x68c
 2210 067c 17       		.uleb128 0x17
 2211 067d 746D7000 		.ascii	"tmp\000"
ARM GAS  C:\Users\z80\AppData\Local\Temp\ccgPhA14.s 			page 41


 2212 0681 01       		.byte	0x1
 2213 0682 A7       		.byte	0xa7
 2214 0683 70000000 		.4byte	0x70
 2215 0687 66020000 		.4byte	.LLST20
 2216 068b 00       		.byte	0
 2217 068c 1D       		.uleb128 0x1d
 2218 068d 1A000000 		.4byte	.LBB48
 2219 0691 20000000 		.4byte	.LBE48
 2220 0695 17       		.uleb128 0x17
 2221 0696 746D7000 		.ascii	"tmp\000"
 2222 069a 01       		.byte	0x1
 2223 069b A9       		.byte	0xa9
 2224 069c 70000000 		.4byte	0x70
 2225 06a0 79020000 		.4byte	.LLST21
 2226 06a4 00       		.byte	0
 2227 06a5 00       		.byte	0
 2228 06a6 1E       		.uleb128 0x1e
 2229 06a7 01       		.byte	0x1
 2230 06a8 AC020000 		.4byte	.LASF71
 2231 06ac 01       		.byte	0x1
 2232 06ad FA       		.byte	0xfa
 2233 06ae 01       		.byte	0x1
 2234 06af BC000000 		.4byte	0xbc
 2235 06b3 00000000 		.4byte	.LFB13
 2236 06b7 7A000000 		.4byte	.LFE13
 2237 06bb 8C020000 		.4byte	.LLST22
 2238 06bf 04070000 		.4byte	0x704
 2239 06c3 16       		.uleb128 0x16
 2240 06c4 737000   		.ascii	"sp\000"
 2241 06c7 01       		.byte	0x1
 2242 06c8 FA       		.byte	0xfa
 2243 06c9 12050000 		.4byte	0x512
 2244 06cd AC020000 		.4byte	.LLST23
 2245 06d1 21       		.uleb128 0x21
 2246 06d2 EC010000 		.4byte	.LASF72
 2247 06d6 01       		.byte	0x1
 2248 06d7 FA       		.byte	0xfa
 2249 06d8 D2000000 		.4byte	0xd2
 2250 06dc CA020000 		.4byte	.LLST24
 2251 06e0 22       		.uleb128 0x22
 2252 06e1 93040000 		.4byte	0x493
 2253 06e5 50000000 		.4byte	.LBB49
 2254 06e9 B8000000 		.4byte	.Ldebug_ranges0+0xb8
 2255 06ed 01       		.byte	0x1
 2256 06ee 0901     		.2byte	0x109
 2257 06f0 19       		.uleb128 0x19
 2258 06f1 AA040000 		.4byte	0x4aa
 2259 06f5 E8020000 		.4byte	.LLST25
 2260 06f9 19       		.uleb128 0x19
 2261 06fa A0040000 		.4byte	0x4a0
 2262 06fe FB020000 		.4byte	.LLST26
 2263 0702 00       		.byte	0
 2264 0703 00       		.byte	0
 2265 0704 1E       		.uleb128 0x1e
 2266 0705 01       		.byte	0x1
 2267 0706 4B010000 		.4byte	.LASF73
 2268 070a 01       		.byte	0x1
ARM GAS  C:\Users\z80\AppData\Local\Temp\ccgPhA14.s 			page 42


 2269 070b DE       		.byte	0xde
 2270 070c 01       		.byte	0x1
 2271 070d BC000000 		.4byte	0xbc
 2272 0711 00000000 		.4byte	.LFB12
 2273 0715 28000000 		.4byte	.LFE12
 2274 0719 0F030000 		.4byte	.LLST27
 2275 071d 84070000 		.4byte	0x784
 2276 0721 16       		.uleb128 0x16
 2277 0722 737000   		.ascii	"sp\000"
 2278 0725 01       		.byte	0x1
 2279 0726 DE       		.byte	0xde
 2280 0727 12050000 		.4byte	0x512
 2281 072b 2F030000 		.4byte	.LLST28
 2282 072f 21       		.uleb128 0x21
 2283 0730 EC010000 		.4byte	.LASF72
 2284 0734 01       		.byte	0x1
 2285 0735 DE       		.byte	0xde
 2286 0736 D2000000 		.4byte	0xd2
 2287 073a 4D030000 		.4byte	.LLST29
 2288 073e 17       		.uleb128 0x17
 2289 073f 6D736700 		.ascii	"msg\000"
 2290 0743 01       		.byte	0x1
 2291 0744 DF       		.byte	0xdf
 2292 0745 BC000000 		.4byte	0xbc
 2293 0749 6B030000 		.4byte	.LLST30
 2294 074d 1C       		.uleb128 0x1c
 2295 074e 06000000 		.4byte	.LBB53
 2296 0752 0C000000 		.4byte	.LBE53
 2297 0756 6A070000 		.4byte	0x76a
 2298 075a 17       		.uleb128 0x17
 2299 075b 746D7000 		.ascii	"tmp\000"
 2300 075f 01       		.byte	0x1
 2301 0760 E1       		.byte	0xe1
 2302 0761 70000000 		.4byte	0x70
 2303 0765 89030000 		.4byte	.LLST31
 2304 0769 00       		.byte	0
 2305 076a 1D       		.uleb128 0x1d
 2306 076b 1E000000 		.4byte	.LBB54
 2307 076f 24000000 		.4byte	.LBE54
 2308 0773 17       		.uleb128 0x17
 2309 0774 746D7000 		.ascii	"tmp\000"
 2310 0778 01       		.byte	0x1
 2311 0779 E3       		.byte	0xe3
 2312 077a 70000000 		.4byte	0x70
 2313 077e 9C030000 		.4byte	.LLST32
 2314 0782 00       		.byte	0
 2315 0783 00       		.byte	0
 2316 0784 23       		.uleb128 0x23
 2317 0785 01       		.byte	0x1
 2318 0786 00010000 		.4byte	.LASF74
 2319 078a 01       		.byte	0x1
 2320 078b 1601     		.2byte	0x116
 2321 078d 01       		.byte	0x1
 2322 078e 00000000 		.4byte	.LFB14
 2323 0792 80000000 		.4byte	.LFE14
 2324 0796 AF030000 		.4byte	.LLST33
 2325 079a 0B080000 		.4byte	0x80b
ARM GAS  C:\Users\z80\AppData\Local\Temp\ccgPhA14.s 			page 43


 2326 079e 24       		.uleb128 0x24
 2327 079f 737000   		.ascii	"sp\000"
 2328 07a2 01       		.byte	0x1
 2329 07a3 1601     		.2byte	0x116
 2330 07a5 12050000 		.4byte	0x512
 2331 07a9 CF030000 		.4byte	.LLST34
 2332 07ad 20       		.uleb128 0x20
 2333 07ae D0000000 		.4byte	.Ldebug_ranges0+0xd0
 2334 07b2 C7070000 		.4byte	0x7c7
 2335 07b6 25       		.uleb128 0x25
 2336 07b7 746D7000 		.ascii	"tmp\000"
 2337 07bb 01       		.byte	0x1
 2338 07bc 1E01     		.2byte	0x11e
 2339 07be 70000000 		.4byte	0x70
 2340 07c2 ED030000 		.4byte	.LLST35
 2341 07c6 00       		.byte	0
 2342 07c7 20       		.uleb128 0x20
 2343 07c8 E8000000 		.4byte	.Ldebug_ranges0+0xe8
 2344 07cc E1070000 		.4byte	0x7e1
 2345 07d0 25       		.uleb128 0x25
 2346 07d1 746D7000 		.ascii	"tmp\000"
 2347 07d5 01       		.byte	0x1
 2348 07d6 2101     		.2byte	0x121
 2349 07d8 70000000 		.4byte	0x70
 2350 07dc 0B040000 		.4byte	.LLST36
 2351 07e0 00       		.byte	0
 2352 07e1 22       		.uleb128 0x22
 2353 07e2 B6040000 		.4byte	0x4b6
 2354 07e6 58000000 		.4byte	.LBB58
 2355 07ea 00010000 		.4byte	.Ldebug_ranges0+0x100
 2356 07ee 01       		.byte	0x1
 2357 07ef 2001     		.2byte	0x120
 2358 07f1 19       		.uleb128 0x19
 2359 07f2 C7040000 		.4byte	0x4c7
 2360 07f6 29040000 		.4byte	.LLST37
 2361 07fa 1A       		.uleb128 0x1a
 2362 07fb 18010000 		.4byte	.Ldebug_ranges0+0x118
 2363 07ff 26       		.uleb128 0x26
 2364 0800 D2040000 		.4byte	0x4d2
 2365 0804 3C040000 		.4byte	.LLST38
 2366 0808 00       		.byte	0
 2367 0809 00       		.byte	0
 2368 080a 00       		.byte	0
 2369 080b 23       		.uleb128 0x23
 2370 080c 01       		.byte	0x1
 2371 080d 13000000 		.4byte	.LASF75
 2372 0811 01       		.byte	0x1
 2373 0812 2F01     		.2byte	0x12f
 2374 0814 01       		.byte	0x1
 2375 0815 00000000 		.4byte	.LFB15
 2376 0819 60000000 		.4byte	.LFE15
 2377 081d 50040000 		.4byte	.LLST39
 2378 0821 71080000 		.4byte	0x871
 2379 0825 24       		.uleb128 0x24
 2380 0826 737000   		.ascii	"sp\000"
 2381 0829 01       		.byte	0x1
 2382 082a 2F01     		.2byte	0x12f
ARM GAS  C:\Users\z80\AppData\Local\Temp\ccgPhA14.s 			page 44


 2383 082c 12050000 		.4byte	0x512
 2384 0830 70040000 		.4byte	.LLST40
 2385 0834 1A       		.uleb128 0x1a
 2386 0835 30010000 		.4byte	.Ldebug_ranges0+0x130
 2387 0839 27       		.uleb128 0x27
 2388 083a 747000   		.ascii	"tp\000"
 2389 083d 01       		.byte	0x1
 2390 083e 3B01     		.2byte	0x13b
 2391 0840 21020000 		.4byte	0x221
 2392 0844 01       		.byte	0x1
 2393 0845 53       		.byte	0x53
 2394 0846 22       		.uleb128 0x22
 2395 0847 B6040000 		.4byte	0x4b6
 2396 084b 3C000000 		.4byte	.LBB64
 2397 084f 48010000 		.4byte	.Ldebug_ranges0+0x148
 2398 0853 01       		.byte	0x1
 2399 0854 3B01     		.2byte	0x13b
 2400 0856 19       		.uleb128 0x19
 2401 0857 C7040000 		.4byte	0x4c7
 2402 085b 8E040000 		.4byte	.LLST41
 2403 085f 1A       		.uleb128 0x1a
 2404 0860 68010000 		.4byte	.Ldebug_ranges0+0x168
 2405 0864 26       		.uleb128 0x26
 2406 0865 D2040000 		.4byte	0x4d2
 2407 0869 A1040000 		.4byte	.LLST42
 2408 086d 00       		.byte	0
 2409 086e 00       		.byte	0
 2410 086f 00       		.byte	0
 2411 0870 00       		.byte	0
 2412 0871 23       		.uleb128 0x23
 2413 0872 01       		.byte	0x1
 2414 0873 77000000 		.4byte	.LASF76
 2415 0877 01       		.byte	0x1
 2416 0878 4E01     		.2byte	0x14e
 2417 087a 01       		.byte	0x1
 2418 087b 00000000 		.4byte	.LFB16
 2419 087f E0000000 		.4byte	.LFE16
 2420 0883 B5040000 		.4byte	.LLST43
 2421 0887 D2080000 		.4byte	0x8d2
 2422 088b 24       		.uleb128 0x24
 2423 088c 737000   		.ascii	"sp\000"
 2424 088f 01       		.byte	0x1
 2425 0890 4E01     		.2byte	0x14e
 2426 0892 12050000 		.4byte	0x512
 2427 0896 D5040000 		.4byte	.LLST44
 2428 089a 24       		.uleb128 0x24
 2429 089b 6E00     		.ascii	"n\000"
 2430 089d 01       		.byte	0x1
 2431 089e 4E01     		.2byte	0x14e
 2432 08a0 DD000000 		.4byte	0xdd
 2433 08a4 F3040000 		.4byte	.LLST45
 2434 08a8 22       		.uleb128 0x22
 2435 08a9 B6040000 		.4byte	0x4b6
 2436 08ad 7C000000 		.4byte	.LBB71
 2437 08b1 88010000 		.4byte	.Ldebug_ranges0+0x188
 2438 08b5 01       		.byte	0x1
 2439 08b6 5901     		.2byte	0x159
ARM GAS  C:\Users\z80\AppData\Local\Temp\ccgPhA14.s 			page 45


 2440 08b8 19       		.uleb128 0x19
 2441 08b9 C7040000 		.4byte	0x4c7
 2442 08bd 36050000 		.4byte	.LLST46
 2443 08c1 1A       		.uleb128 0x1a
 2444 08c2 B0010000 		.4byte	.Ldebug_ranges0+0x1b0
 2445 08c6 26       		.uleb128 0x26
 2446 08c7 D2040000 		.4byte	0x4d2
 2447 08cb 54050000 		.4byte	.LLST47
 2448 08cf 00       		.byte	0
 2449 08d0 00       		.byte	0
 2450 08d1 00       		.byte	0
 2451 08d2 28       		.uleb128 0x28
 2452 08d3 01       		.byte	0x1
 2453 08d4 A9000000 		.4byte	.LASF77
 2454 08d8 01       		.byte	0x1
 2455 08d9 6E01     		.2byte	0x16e
 2456 08db 01       		.byte	0x1
 2457 08dc BC000000 		.4byte	0xbc
 2458 08e0 00000000 		.4byte	.LFB17
 2459 08e4 F6000000 		.4byte	.LFE17
 2460 08e8 68050000 		.4byte	.LLST48
 2461 08ec C3090000 		.4byte	0x9c3
 2462 08f0 24       		.uleb128 0x24
 2463 08f1 73707300 		.ascii	"sps\000"
 2464 08f5 01       		.byte	0x1
 2465 08f6 6E01     		.2byte	0x16e
 2466 08f8 12050000 		.4byte	0x512
 2467 08fc 88050000 		.4byte	.LLST49
 2468 0900 24       		.uleb128 0x24
 2469 0901 73707700 		.ascii	"spw\000"
 2470 0905 01       		.byte	0x1
 2471 0906 6E01     		.2byte	0x16e
 2472 0908 12050000 		.4byte	0x512
 2473 090c C7050000 		.4byte	.LLST50
 2474 0910 25       		.uleb128 0x25
 2475 0911 6D736700 		.ascii	"msg\000"
 2476 0915 01       		.byte	0x1
 2477 0916 6F01     		.2byte	0x16f
 2478 0918 BC000000 		.4byte	0xbc
 2479 091c E5050000 		.4byte	.LLST51
 2480 0920 20       		.uleb128 0x20
 2481 0921 D8010000 		.4byte	.Ldebug_ranges0+0x1d8
 2482 0925 3A090000 		.4byte	0x93a
 2483 0929 25       		.uleb128 0x25
 2484 092a 746D7000 		.ascii	"tmp\000"
 2485 092e 01       		.byte	0x1
 2486 092f 7B01     		.2byte	0x17b
 2487 0931 70000000 		.4byte	0x70
 2488 0935 0F060000 		.4byte	.LLST52
 2489 0939 00       		.byte	0
 2490 093a 20       		.uleb128 0x20
 2491 093b F0010000 		.4byte	.Ldebug_ranges0+0x1f0
 2492 093f 54090000 		.4byte	0x954
 2493 0943 25       		.uleb128 0x25
 2494 0944 746D7000 		.ascii	"tmp\000"
 2495 0948 01       		.byte	0x1
 2496 0949 8901     		.2byte	0x189
ARM GAS  C:\Users\z80\AppData\Local\Temp\ccgPhA14.s 			page 46


 2497 094b 70000000 		.4byte	0x70
 2498 094f 2D060000 		.4byte	.LLST53
 2499 0953 00       		.byte	0
 2500 0954 29       		.uleb128 0x29
 2501 0955 B6040000 		.4byte	0x4b6
 2502 0959 A0000000 		.4byte	.LBB82
 2503 095d A8000000 		.4byte	.LBE82
 2504 0961 01       		.byte	0x1
 2505 0962 7D01     		.2byte	0x17d
 2506 0964 85090000 		.4byte	0x985
 2507 0968 19       		.uleb128 0x19
 2508 0969 C7040000 		.4byte	0x4c7
 2509 096d 4B060000 		.4byte	.LLST54
 2510 0971 1D       		.uleb128 0x1d
 2511 0972 A0000000 		.4byte	.LBB83
 2512 0976 A8000000 		.4byte	.LBE83
 2513 097a 26       		.uleb128 0x26
 2514 097b D2040000 		.4byte	0x4d2
 2515 097f 5E060000 		.4byte	.LLST55
 2516 0983 00       		.byte	0
 2517 0984 00       		.byte	0
 2518 0985 1D       		.uleb128 0x1d
 2519 0986 BA000000 		.4byte	.LBB84
 2520 098a DA000000 		.4byte	.LBE84
 2521 098e 25       		.uleb128 0x25
 2522 098f 63747000 		.ascii	"ctp\000"
 2523 0993 01       		.byte	0x1
 2524 0994 7F01     		.2byte	0x17f
 2525 0996 21020000 		.4byte	0x221
 2526 099a 72060000 		.4byte	.LLST56
 2527 099e 22       		.uleb128 0x22
 2528 099f 93040000 		.4byte	0x493
 2529 09a3 C6000000 		.4byte	.LBB85
 2530 09a7 08020000 		.4byte	.Ldebug_ranges0+0x208
 2531 09ab 01       		.byte	0x1
 2532 09ac 8001     		.2byte	0x180
 2533 09ae 19       		.uleb128 0x19
 2534 09af AA040000 		.4byte	0x4aa
 2535 09b3 91060000 		.4byte	.LLST57
 2536 09b7 19       		.uleb128 0x19
 2537 09b8 A0040000 		.4byte	0x4a0
 2538 09bc 72060000 		.4byte	.LLST56
 2539 09c0 00       		.byte	0
 2540 09c1 00       		.byte	0
 2541 09c2 00       		.byte	0
 2542 09c3 2A       		.uleb128 0x2a
 2543 09c4 29030000 		.4byte	.LASF82
 2544 09c8 08       		.byte	0x8
 2545 09c9 72       		.byte	0x72
 2546 09ca 8C030000 		.4byte	0x38c
 2547 09ce 01       		.byte	0x1
 2548 09cf 01       		.byte	0x1
 2549 09d0 00       		.byte	0
 2550              		.section	.debug_abbrev,"",%progbits
 2551              	.Ldebug_abbrev0:
 2552 0000 01       		.uleb128 0x1
 2553 0001 11       		.uleb128 0x11
ARM GAS  C:\Users\z80\AppData\Local\Temp\ccgPhA14.s 			page 47


 2554 0002 01       		.byte	0x1
 2555 0003 25       		.uleb128 0x25
 2556 0004 0E       		.uleb128 0xe
 2557 0005 13       		.uleb128 0x13
 2558 0006 0B       		.uleb128 0xb
 2559 0007 03       		.uleb128 0x3
 2560 0008 0E       		.uleb128 0xe
 2561 0009 1B       		.uleb128 0x1b
 2562 000a 0E       		.uleb128 0xe
 2563 000b 11       		.uleb128 0x11
 2564 000c 01       		.uleb128 0x1
 2565 000d 52       		.uleb128 0x52
 2566 000e 01       		.uleb128 0x1
 2567 000f 55       		.uleb128 0x55
 2568 0010 06       		.uleb128 0x6
 2569 0011 10       		.uleb128 0x10
 2570 0012 06       		.uleb128 0x6
 2571 0013 00       		.byte	0
 2572 0014 00       		.byte	0
 2573 0015 02       		.uleb128 0x2
 2574 0016 24       		.uleb128 0x24
 2575 0017 00       		.byte	0
 2576 0018 0B       		.uleb128 0xb
 2577 0019 0B       		.uleb128 0xb
 2578 001a 3E       		.uleb128 0x3e
 2579 001b 0B       		.uleb128 0xb
 2580 001c 03       		.uleb128 0x3
 2581 001d 08       		.uleb128 0x8
 2582 001e 00       		.byte	0
 2583 001f 00       		.byte	0
 2584 0020 03       		.uleb128 0x3
 2585 0021 24       		.uleb128 0x24
 2586 0022 00       		.byte	0
 2587 0023 0B       		.uleb128 0xb
 2588 0024 0B       		.uleb128 0xb
 2589 0025 3E       		.uleb128 0x3e
 2590 0026 0B       		.uleb128 0xb
 2591 0027 03       		.uleb128 0x3
 2592 0028 0E       		.uleb128 0xe
 2593 0029 00       		.byte	0
 2594 002a 00       		.byte	0
 2595 002b 04       		.uleb128 0x4
 2596 002c 16       		.uleb128 0x16
 2597 002d 00       		.byte	0
 2598 002e 03       		.uleb128 0x3
 2599 002f 0E       		.uleb128 0xe
 2600 0030 3A       		.uleb128 0x3a
 2601 0031 0B       		.uleb128 0xb
 2602 0032 3B       		.uleb128 0x3b
 2603 0033 0B       		.uleb128 0xb
 2604 0034 49       		.uleb128 0x49
 2605 0035 13       		.uleb128 0x13
 2606 0036 00       		.byte	0
 2607 0037 00       		.byte	0
 2608 0038 05       		.uleb128 0x5
 2609 0039 13       		.uleb128 0x13
 2610 003a 01       		.byte	0x1
ARM GAS  C:\Users\z80\AppData\Local\Temp\ccgPhA14.s 			page 48


 2611 003b 03       		.uleb128 0x3
 2612 003c 0E       		.uleb128 0xe
 2613 003d 0B       		.uleb128 0xb
 2614 003e 0B       		.uleb128 0xb
 2615 003f 3A       		.uleb128 0x3a
 2616 0040 0B       		.uleb128 0xb
 2617 0041 3B       		.uleb128 0x3b
 2618 0042 0B       		.uleb128 0xb
 2619 0043 01       		.uleb128 0x1
 2620 0044 13       		.uleb128 0x13
 2621 0045 00       		.byte	0
 2622 0046 00       		.byte	0
 2623 0047 06       		.uleb128 0x6
 2624 0048 0D       		.uleb128 0xd
 2625 0049 00       		.byte	0
 2626 004a 03       		.uleb128 0x3
 2627 004b 0E       		.uleb128 0xe
 2628 004c 3A       		.uleb128 0x3a
 2629 004d 0B       		.uleb128 0xb
 2630 004e 3B       		.uleb128 0x3b
 2631 004f 0B       		.uleb128 0xb
 2632 0050 49       		.uleb128 0x49
 2633 0051 13       		.uleb128 0x13
 2634 0052 38       		.uleb128 0x38
 2635 0053 0A       		.uleb128 0xa
 2636 0054 00       		.byte	0
 2637 0055 00       		.byte	0
 2638 0056 07       		.uleb128 0x7
 2639 0057 0D       		.uleb128 0xd
 2640 0058 00       		.byte	0
 2641 0059 03       		.uleb128 0x3
 2642 005a 08       		.uleb128 0x8
 2643 005b 3A       		.uleb128 0x3a
 2644 005c 0B       		.uleb128 0xb
 2645 005d 3B       		.uleb128 0x3b
 2646 005e 0B       		.uleb128 0xb
 2647 005f 49       		.uleb128 0x49
 2648 0060 13       		.uleb128 0x13
 2649 0061 38       		.uleb128 0x38
 2650 0062 0A       		.uleb128 0xa
 2651 0063 00       		.byte	0
 2652 0064 00       		.byte	0
 2653 0065 08       		.uleb128 0x8
 2654 0066 13       		.uleb128 0x13
 2655 0067 01       		.byte	0x1
 2656 0068 0B       		.uleb128 0xb
 2657 0069 0B       		.uleb128 0xb
 2658 006a 3A       		.uleb128 0x3a
 2659 006b 0B       		.uleb128 0xb
 2660 006c 3B       		.uleb128 0x3b
 2661 006d 0B       		.uleb128 0xb
 2662 006e 01       		.uleb128 0x1
 2663 006f 13       		.uleb128 0x13
 2664 0070 00       		.byte	0
 2665 0071 00       		.byte	0
 2666 0072 09       		.uleb128 0x9
 2667 0073 0F       		.uleb128 0xf
ARM GAS  C:\Users\z80\AppData\Local\Temp\ccgPhA14.s 			page 49


 2668 0074 00       		.byte	0
 2669 0075 0B       		.uleb128 0xb
 2670 0076 0B       		.uleb128 0xb
 2671 0077 49       		.uleb128 0x49
 2672 0078 13       		.uleb128 0x13
 2673 0079 00       		.byte	0
 2674 007a 00       		.byte	0
 2675 007b 0A       		.uleb128 0xa
 2676 007c 0F       		.uleb128 0xf
 2677 007d 00       		.byte	0
 2678 007e 0B       		.uleb128 0xb
 2679 007f 0B       		.uleb128 0xb
 2680 0080 00       		.byte	0
 2681 0081 00       		.byte	0
 2682 0082 0B       		.uleb128 0xb
 2683 0083 0D       		.uleb128 0xd
 2684 0084 00       		.byte	0
 2685 0085 03       		.uleb128 0x3
 2686 0086 08       		.uleb128 0x8
 2687 0087 3A       		.uleb128 0x3a
 2688 0088 0B       		.uleb128 0xb
 2689 0089 3B       		.uleb128 0x3b
 2690 008a 05       		.uleb128 0x5
 2691 008b 49       		.uleb128 0x49
 2692 008c 13       		.uleb128 0x13
 2693 008d 38       		.uleb128 0x38
 2694 008e 0A       		.uleb128 0xa
 2695 008f 00       		.byte	0
 2696 0090 00       		.byte	0
 2697 0091 0C       		.uleb128 0xc
 2698 0092 13       		.uleb128 0x13
 2699 0093 01       		.byte	0x1
 2700 0094 03       		.uleb128 0x3
 2701 0095 0E       		.uleb128 0xe
 2702 0096 0B       		.uleb128 0xb
 2703 0097 0B       		.uleb128 0xb
 2704 0098 3A       		.uleb128 0x3a
 2705 0099 0B       		.uleb128 0xb
 2706 009a 3B       		.uleb128 0x3b
 2707 009b 05       		.uleb128 0x5
 2708 009c 01       		.uleb128 0x1
 2709 009d 13       		.uleb128 0x13
 2710 009e 00       		.byte	0
 2711 009f 00       		.byte	0
 2712 00a0 0D       		.uleb128 0xd
 2713 00a1 35       		.uleb128 0x35
 2714 00a2 00       		.byte	0
 2715 00a3 49       		.uleb128 0x49
 2716 00a4 13       		.uleb128 0x13
 2717 00a5 00       		.byte	0
 2718 00a6 00       		.byte	0
 2719 00a7 0E       		.uleb128 0xe
 2720 00a8 17       		.uleb128 0x17
 2721 00a9 01       		.byte	0x1
 2722 00aa 0B       		.uleb128 0xb
 2723 00ab 0B       		.uleb128 0xb
 2724 00ac 3A       		.uleb128 0x3a
ARM GAS  C:\Users\z80\AppData\Local\Temp\ccgPhA14.s 			page 50


 2725 00ad 0B       		.uleb128 0xb
 2726 00ae 3B       		.uleb128 0x3b
 2727 00af 0B       		.uleb128 0xb
 2728 00b0 01       		.uleb128 0x1
 2729 00b1 13       		.uleb128 0x13
 2730 00b2 00       		.byte	0
 2731 00b3 00       		.byte	0
 2732 00b4 0F       		.uleb128 0xf
 2733 00b5 0D       		.uleb128 0xd
 2734 00b6 00       		.byte	0
 2735 00b7 03       		.uleb128 0x3
 2736 00b8 0E       		.uleb128 0xe
 2737 00b9 3A       		.uleb128 0x3a
 2738 00ba 0B       		.uleb128 0xb
 2739 00bb 3B       		.uleb128 0x3b
 2740 00bc 0B       		.uleb128 0xb
 2741 00bd 49       		.uleb128 0x49
 2742 00be 13       		.uleb128 0x13
 2743 00bf 00       		.byte	0
 2744 00c0 00       		.byte	0
 2745 00c1 10       		.uleb128 0x10
 2746 00c2 26       		.uleb128 0x26
 2747 00c3 00       		.byte	0
 2748 00c4 49       		.uleb128 0x49
 2749 00c5 13       		.uleb128 0x13
 2750 00c6 00       		.byte	0
 2751 00c7 00       		.byte	0
 2752 00c8 11       		.uleb128 0x11
 2753 00c9 2E       		.uleb128 0x2e
 2754 00ca 01       		.byte	0x1
 2755 00cb 03       		.uleb128 0x3
 2756 00cc 0E       		.uleb128 0xe
 2757 00cd 3A       		.uleb128 0x3a
 2758 00ce 0B       		.uleb128 0xb
 2759 00cf 3B       		.uleb128 0x3b
 2760 00d0 0B       		.uleb128 0xb
 2761 00d1 27       		.uleb128 0x27
 2762 00d2 0C       		.uleb128 0xc
 2763 00d3 49       		.uleb128 0x49
 2764 00d4 13       		.uleb128 0x13
 2765 00d5 20       		.uleb128 0x20
 2766 00d6 0B       		.uleb128 0xb
 2767 00d7 01       		.uleb128 0x1
 2768 00d8 13       		.uleb128 0x13
 2769 00d9 00       		.byte	0
 2770 00da 00       		.byte	0
 2771 00db 12       		.uleb128 0x12
 2772 00dc 05       		.uleb128 0x5
 2773 00dd 00       		.byte	0
 2774 00de 03       		.uleb128 0x3
 2775 00df 08       		.uleb128 0x8
 2776 00e0 3A       		.uleb128 0x3a
 2777 00e1 0B       		.uleb128 0xb
 2778 00e2 3B       		.uleb128 0x3b
 2779 00e3 0B       		.uleb128 0xb
 2780 00e4 49       		.uleb128 0x49
 2781 00e5 13       		.uleb128 0x13
ARM GAS  C:\Users\z80\AppData\Local\Temp\ccgPhA14.s 			page 51


 2782 00e6 00       		.byte	0
 2783 00e7 00       		.byte	0
 2784 00e8 13       		.uleb128 0x13
 2785 00e9 34       		.uleb128 0x34
 2786 00ea 00       		.byte	0
 2787 00eb 03       		.uleb128 0x3
 2788 00ec 08       		.uleb128 0x8
 2789 00ed 3A       		.uleb128 0x3a
 2790 00ee 0B       		.uleb128 0xb
 2791 00ef 3B       		.uleb128 0x3b
 2792 00f0 0B       		.uleb128 0xb
 2793 00f1 49       		.uleb128 0x49
 2794 00f2 13       		.uleb128 0x13
 2795 00f3 00       		.byte	0
 2796 00f4 00       		.byte	0
 2797 00f5 14       		.uleb128 0x14
 2798 00f6 2E       		.uleb128 0x2e
 2799 00f7 01       		.byte	0x1
 2800 00f8 03       		.uleb128 0x3
 2801 00f9 0E       		.uleb128 0xe
 2802 00fa 3A       		.uleb128 0x3a
 2803 00fb 0B       		.uleb128 0xb
 2804 00fc 3B       		.uleb128 0x3b
 2805 00fd 0B       		.uleb128 0xb
 2806 00fe 27       		.uleb128 0x27
 2807 00ff 0C       		.uleb128 0xc
 2808 0100 20       		.uleb128 0x20
 2809 0101 0B       		.uleb128 0xb
 2810 0102 01       		.uleb128 0x1
 2811 0103 13       		.uleb128 0x13
 2812 0104 00       		.byte	0
 2813 0105 00       		.byte	0
 2814 0106 15       		.uleb128 0x15
 2815 0107 2E       		.uleb128 0x2e
 2816 0108 01       		.byte	0x1
 2817 0109 3F       		.uleb128 0x3f
 2818 010a 0C       		.uleb128 0xc
 2819 010b 03       		.uleb128 0x3
 2820 010c 0E       		.uleb128 0xe
 2821 010d 3A       		.uleb128 0x3a
 2822 010e 0B       		.uleb128 0xb
 2823 010f 3B       		.uleb128 0x3b
 2824 0110 0B       		.uleb128 0xb
 2825 0111 27       		.uleb128 0x27
 2826 0112 0C       		.uleb128 0xc
 2827 0113 11       		.uleb128 0x11
 2828 0114 01       		.uleb128 0x1
 2829 0115 12       		.uleb128 0x12
 2830 0116 01       		.uleb128 0x1
 2831 0117 40       		.uleb128 0x40
 2832 0118 06       		.uleb128 0x6
 2833 0119 01       		.uleb128 0x1
 2834 011a 13       		.uleb128 0x13
 2835 011b 00       		.byte	0
 2836 011c 00       		.byte	0
 2837 011d 16       		.uleb128 0x16
 2838 011e 05       		.uleb128 0x5
ARM GAS  C:\Users\z80\AppData\Local\Temp\ccgPhA14.s 			page 52


 2839 011f 00       		.byte	0
 2840 0120 03       		.uleb128 0x3
 2841 0121 08       		.uleb128 0x8
 2842 0122 3A       		.uleb128 0x3a
 2843 0123 0B       		.uleb128 0xb
 2844 0124 3B       		.uleb128 0x3b
 2845 0125 0B       		.uleb128 0xb
 2846 0126 49       		.uleb128 0x49
 2847 0127 13       		.uleb128 0x13
 2848 0128 02       		.uleb128 0x2
 2849 0129 06       		.uleb128 0x6
 2850 012a 00       		.byte	0
 2851 012b 00       		.byte	0
 2852 012c 17       		.uleb128 0x17
 2853 012d 34       		.uleb128 0x34
 2854 012e 00       		.byte	0
 2855 012f 03       		.uleb128 0x3
 2856 0130 08       		.uleb128 0x8
 2857 0131 3A       		.uleb128 0x3a
 2858 0132 0B       		.uleb128 0xb
 2859 0133 3B       		.uleb128 0x3b
 2860 0134 0B       		.uleb128 0xb
 2861 0135 49       		.uleb128 0x49
 2862 0136 13       		.uleb128 0x13
 2863 0137 02       		.uleb128 0x2
 2864 0138 06       		.uleb128 0x6
 2865 0139 00       		.byte	0
 2866 013a 00       		.byte	0
 2867 013b 18       		.uleb128 0x18
 2868 013c 1D       		.uleb128 0x1d
 2869 013d 01       		.byte	0x1
 2870 013e 31       		.uleb128 0x31
 2871 013f 13       		.uleb128 0x13
 2872 0140 52       		.uleb128 0x52
 2873 0141 01       		.uleb128 0x1
 2874 0142 55       		.uleb128 0x55
 2875 0143 06       		.uleb128 0x6
 2876 0144 58       		.uleb128 0x58
 2877 0145 0B       		.uleb128 0xb
 2878 0146 59       		.uleb128 0x59
 2879 0147 0B       		.uleb128 0xb
 2880 0148 00       		.byte	0
 2881 0149 00       		.byte	0
 2882 014a 19       		.uleb128 0x19
 2883 014b 05       		.uleb128 0x5
 2884 014c 00       		.byte	0
 2885 014d 31       		.uleb128 0x31
 2886 014e 13       		.uleb128 0x13
 2887 014f 02       		.uleb128 0x2
 2888 0150 06       		.uleb128 0x6
 2889 0151 00       		.byte	0
 2890 0152 00       		.byte	0
 2891 0153 1A       		.uleb128 0x1a
 2892 0154 0B       		.uleb128 0xb
 2893 0155 01       		.byte	0x1
 2894 0156 55       		.uleb128 0x55
 2895 0157 06       		.uleb128 0x6
ARM GAS  C:\Users\z80\AppData\Local\Temp\ccgPhA14.s 			page 53


 2896 0158 00       		.byte	0
 2897 0159 00       		.byte	0
 2898 015a 1B       		.uleb128 0x1b
 2899 015b 34       		.uleb128 0x34
 2900 015c 00       		.byte	0
 2901 015d 31       		.uleb128 0x31
 2902 015e 13       		.uleb128 0x13
 2903 015f 00       		.byte	0
 2904 0160 00       		.byte	0
 2905 0161 1C       		.uleb128 0x1c
 2906 0162 0B       		.uleb128 0xb
 2907 0163 01       		.byte	0x1
 2908 0164 11       		.uleb128 0x11
 2909 0165 01       		.uleb128 0x1
 2910 0166 12       		.uleb128 0x12
 2911 0167 01       		.uleb128 0x1
 2912 0168 01       		.uleb128 0x1
 2913 0169 13       		.uleb128 0x13
 2914 016a 00       		.byte	0
 2915 016b 00       		.byte	0
 2916 016c 1D       		.uleb128 0x1d
 2917 016d 0B       		.uleb128 0xb
 2918 016e 01       		.byte	0x1
 2919 016f 11       		.uleb128 0x11
 2920 0170 01       		.uleb128 0x1
 2921 0171 12       		.uleb128 0x12
 2922 0172 01       		.uleb128 0x1
 2923 0173 00       		.byte	0
 2924 0174 00       		.byte	0
 2925 0175 1E       		.uleb128 0x1e
 2926 0176 2E       		.uleb128 0x2e
 2927 0177 01       		.byte	0x1
 2928 0178 3F       		.uleb128 0x3f
 2929 0179 0C       		.uleb128 0xc
 2930 017a 03       		.uleb128 0x3
 2931 017b 0E       		.uleb128 0xe
 2932 017c 3A       		.uleb128 0x3a
 2933 017d 0B       		.uleb128 0xb
 2934 017e 3B       		.uleb128 0x3b
 2935 017f 0B       		.uleb128 0xb
 2936 0180 27       		.uleb128 0x27
 2937 0181 0C       		.uleb128 0xc
 2938 0182 49       		.uleb128 0x49
 2939 0183 13       		.uleb128 0x13
 2940 0184 11       		.uleb128 0x11
 2941 0185 01       		.uleb128 0x1
 2942 0186 12       		.uleb128 0x12
 2943 0187 01       		.uleb128 0x1
 2944 0188 40       		.uleb128 0x40
 2945 0189 06       		.uleb128 0x6
 2946 018a 01       		.uleb128 0x1
 2947 018b 13       		.uleb128 0x13
 2948 018c 00       		.byte	0
 2949 018d 00       		.byte	0
 2950 018e 1F       		.uleb128 0x1f
 2951 018f 1D       		.uleb128 0x1d
 2952 0190 01       		.byte	0x1
ARM GAS  C:\Users\z80\AppData\Local\Temp\ccgPhA14.s 			page 54


 2953 0191 31       		.uleb128 0x31
 2954 0192 13       		.uleb128 0x13
 2955 0193 11       		.uleb128 0x11
 2956 0194 01       		.uleb128 0x1
 2957 0195 12       		.uleb128 0x12
 2958 0196 01       		.uleb128 0x1
 2959 0197 58       		.uleb128 0x58
 2960 0198 0B       		.uleb128 0xb
 2961 0199 59       		.uleb128 0x59
 2962 019a 0B       		.uleb128 0xb
 2963 019b 00       		.byte	0
 2964 019c 00       		.byte	0
 2965 019d 20       		.uleb128 0x20
 2966 019e 0B       		.uleb128 0xb
 2967 019f 01       		.byte	0x1
 2968 01a0 55       		.uleb128 0x55
 2969 01a1 06       		.uleb128 0x6
 2970 01a2 01       		.uleb128 0x1
 2971 01a3 13       		.uleb128 0x13
 2972 01a4 00       		.byte	0
 2973 01a5 00       		.byte	0
 2974 01a6 21       		.uleb128 0x21
 2975 01a7 05       		.uleb128 0x5
 2976 01a8 00       		.byte	0
 2977 01a9 03       		.uleb128 0x3
 2978 01aa 0E       		.uleb128 0xe
 2979 01ab 3A       		.uleb128 0x3a
 2980 01ac 0B       		.uleb128 0xb
 2981 01ad 3B       		.uleb128 0x3b
 2982 01ae 0B       		.uleb128 0xb
 2983 01af 49       		.uleb128 0x49
 2984 01b0 13       		.uleb128 0x13
 2985 01b1 02       		.uleb128 0x2
 2986 01b2 06       		.uleb128 0x6
 2987 01b3 00       		.byte	0
 2988 01b4 00       		.byte	0
 2989 01b5 22       		.uleb128 0x22
 2990 01b6 1D       		.uleb128 0x1d
 2991 01b7 01       		.byte	0x1
 2992 01b8 31       		.uleb128 0x31
 2993 01b9 13       		.uleb128 0x13
 2994 01ba 52       		.uleb128 0x52
 2995 01bb 01       		.uleb128 0x1
 2996 01bc 55       		.uleb128 0x55
 2997 01bd 06       		.uleb128 0x6
 2998 01be 58       		.uleb128 0x58
 2999 01bf 0B       		.uleb128 0xb
 3000 01c0 59       		.uleb128 0x59
 3001 01c1 05       		.uleb128 0x5
 3002 01c2 00       		.byte	0
 3003 01c3 00       		.byte	0
 3004 01c4 23       		.uleb128 0x23
 3005 01c5 2E       		.uleb128 0x2e
 3006 01c6 01       		.byte	0x1
 3007 01c7 3F       		.uleb128 0x3f
 3008 01c8 0C       		.uleb128 0xc
 3009 01c9 03       		.uleb128 0x3
ARM GAS  C:\Users\z80\AppData\Local\Temp\ccgPhA14.s 			page 55


 3010 01ca 0E       		.uleb128 0xe
 3011 01cb 3A       		.uleb128 0x3a
 3012 01cc 0B       		.uleb128 0xb
 3013 01cd 3B       		.uleb128 0x3b
 3014 01ce 05       		.uleb128 0x5
 3015 01cf 27       		.uleb128 0x27
 3016 01d0 0C       		.uleb128 0xc
 3017 01d1 11       		.uleb128 0x11
 3018 01d2 01       		.uleb128 0x1
 3019 01d3 12       		.uleb128 0x12
 3020 01d4 01       		.uleb128 0x1
 3021 01d5 40       		.uleb128 0x40
 3022 01d6 06       		.uleb128 0x6
 3023 01d7 01       		.uleb128 0x1
 3024 01d8 13       		.uleb128 0x13
 3025 01d9 00       		.byte	0
 3026 01da 00       		.byte	0
 3027 01db 24       		.uleb128 0x24
 3028 01dc 05       		.uleb128 0x5
 3029 01dd 00       		.byte	0
 3030 01de 03       		.uleb128 0x3
 3031 01df 08       		.uleb128 0x8
 3032 01e0 3A       		.uleb128 0x3a
 3033 01e1 0B       		.uleb128 0xb
 3034 01e2 3B       		.uleb128 0x3b
 3035 01e3 05       		.uleb128 0x5
 3036 01e4 49       		.uleb128 0x49
 3037 01e5 13       		.uleb128 0x13
 3038 01e6 02       		.uleb128 0x2
 3039 01e7 06       		.uleb128 0x6
 3040 01e8 00       		.byte	0
 3041 01e9 00       		.byte	0
 3042 01ea 25       		.uleb128 0x25
 3043 01eb 34       		.uleb128 0x34
 3044 01ec 00       		.byte	0
 3045 01ed 03       		.uleb128 0x3
 3046 01ee 08       		.uleb128 0x8
 3047 01ef 3A       		.uleb128 0x3a
 3048 01f0 0B       		.uleb128 0xb
 3049 01f1 3B       		.uleb128 0x3b
 3050 01f2 05       		.uleb128 0x5
 3051 01f3 49       		.uleb128 0x49
 3052 01f4 13       		.uleb128 0x13
 3053 01f5 02       		.uleb128 0x2
 3054 01f6 06       		.uleb128 0x6
 3055 01f7 00       		.byte	0
 3056 01f8 00       		.byte	0
 3057 01f9 26       		.uleb128 0x26
 3058 01fa 34       		.uleb128 0x34
 3059 01fb 00       		.byte	0
 3060 01fc 31       		.uleb128 0x31
 3061 01fd 13       		.uleb128 0x13
 3062 01fe 02       		.uleb128 0x2
 3063 01ff 06       		.uleb128 0x6
 3064 0200 00       		.byte	0
 3065 0201 00       		.byte	0
 3066 0202 27       		.uleb128 0x27
ARM GAS  C:\Users\z80\AppData\Local\Temp\ccgPhA14.s 			page 56


 3067 0203 34       		.uleb128 0x34
 3068 0204 00       		.byte	0
 3069 0205 03       		.uleb128 0x3
 3070 0206 08       		.uleb128 0x8
 3071 0207 3A       		.uleb128 0x3a
 3072 0208 0B       		.uleb128 0xb
 3073 0209 3B       		.uleb128 0x3b
 3074 020a 05       		.uleb128 0x5
 3075 020b 49       		.uleb128 0x49
 3076 020c 13       		.uleb128 0x13
 3077 020d 02       		.uleb128 0x2
 3078 020e 0A       		.uleb128 0xa
 3079 020f 00       		.byte	0
 3080 0210 00       		.byte	0
 3081 0211 28       		.uleb128 0x28
 3082 0212 2E       		.uleb128 0x2e
 3083 0213 01       		.byte	0x1
 3084 0214 3F       		.uleb128 0x3f
 3085 0215 0C       		.uleb128 0xc
 3086 0216 03       		.uleb128 0x3
 3087 0217 0E       		.uleb128 0xe
 3088 0218 3A       		.uleb128 0x3a
 3089 0219 0B       		.uleb128 0xb
 3090 021a 3B       		.uleb128 0x3b
 3091 021b 05       		.uleb128 0x5
 3092 021c 27       		.uleb128 0x27
 3093 021d 0C       		.uleb128 0xc
 3094 021e 49       		.uleb128 0x49
 3095 021f 13       		.uleb128 0x13
 3096 0220 11       		.uleb128 0x11
 3097 0221 01       		.uleb128 0x1
 3098 0222 12       		.uleb128 0x12
 3099 0223 01       		.uleb128 0x1
 3100 0224 40       		.uleb128 0x40
 3101 0225 06       		.uleb128 0x6
 3102 0226 01       		.uleb128 0x1
 3103 0227 13       		.uleb128 0x13
 3104 0228 00       		.byte	0
 3105 0229 00       		.byte	0
 3106 022a 29       		.uleb128 0x29
 3107 022b 1D       		.uleb128 0x1d
 3108 022c 01       		.byte	0x1
 3109 022d 31       		.uleb128 0x31
 3110 022e 13       		.uleb128 0x13
 3111 022f 11       		.uleb128 0x11
 3112 0230 01       		.uleb128 0x1
 3113 0231 12       		.uleb128 0x12
 3114 0232 01       		.uleb128 0x1
 3115 0233 58       		.uleb128 0x58
 3116 0234 0B       		.uleb128 0xb
 3117 0235 59       		.uleb128 0x59
 3118 0236 05       		.uleb128 0x5
 3119 0237 01       		.uleb128 0x1
 3120 0238 13       		.uleb128 0x13
 3121 0239 00       		.byte	0
 3122 023a 00       		.byte	0
 3123 023b 2A       		.uleb128 0x2a
ARM GAS  C:\Users\z80\AppData\Local\Temp\ccgPhA14.s 			page 57


 3124 023c 34       		.uleb128 0x34
 3125 023d 00       		.byte	0
 3126 023e 03       		.uleb128 0x3
 3127 023f 0E       		.uleb128 0xe
 3128 0240 3A       		.uleb128 0x3a
 3129 0241 0B       		.uleb128 0xb
 3130 0242 3B       		.uleb128 0x3b
 3131 0243 0B       		.uleb128 0xb
 3132 0244 49       		.uleb128 0x49
 3133 0245 13       		.uleb128 0x13
 3134 0246 3F       		.uleb128 0x3f
 3135 0247 0C       		.uleb128 0xc
 3136 0248 3C       		.uleb128 0x3c
 3137 0249 0C       		.uleb128 0xc
 3138 024a 00       		.byte	0
 3139 024b 00       		.byte	0
 3140 024c 00       		.byte	0
 3141              		.section	.debug_loc,"",%progbits
 3142              	.Ldebug_loc0:
 3143              	.LLST0:
 3144 0000 00000000 		.4byte	.LFB7
 3145 0004 02000000 		.4byte	.LCFI0
 3146 0008 0200     		.2byte	0x2
 3147 000a 7D       		.byte	0x7d
 3148 000b 00       		.sleb128 0
 3149 000c 02000000 		.4byte	.LCFI0
 3150 0010 28000000 		.4byte	.LFE7
 3151 0014 0200     		.2byte	0x2
 3152 0016 7D       		.byte	0x7d
 3153 0017 10       		.sleb128 16
 3154 0018 00000000 		.4byte	0
 3155 001c 00000000 		.4byte	0
 3156              	.LLST1:
 3157 0020 00000000 		.4byte	.LVL0
 3158 0024 18000000 		.4byte	.LVL1
 3159 0028 0100     		.2byte	0x1
 3160 002a 50       		.byte	0x50
 3161 002b 18000000 		.4byte	.LVL1
 3162 002f 28000000 		.4byte	.LFE7
 3163 0033 0100     		.2byte	0x1
 3164 0035 54       		.byte	0x54
 3165 0036 00000000 		.4byte	0
 3166 003a 00000000 		.4byte	0
 3167              	.LLST2:
 3168 003e 00000000 		.4byte	.LVL0
 3169 0042 1F000000 		.4byte	.LVL2-1
 3170 0046 0100     		.2byte	0x1
 3171 0048 51       		.byte	0x51
 3172 0049 1F000000 		.4byte	.LVL2-1
 3173 004d 28000000 		.4byte	.LFE7
 3174 0051 0100     		.2byte	0x1
 3175 0053 55       		.byte	0x55
 3176 0054 00000000 		.4byte	0
 3177 0058 00000000 		.4byte	0
 3178              	.LLST3:
 3179 005c 00000000 		.4byte	.LFB9
 3180 0060 02000000 		.4byte	.LCFI1
ARM GAS  C:\Users\z80\AppData\Local\Temp\ccgPhA14.s 			page 58


 3181 0064 0200     		.2byte	0x2
 3182 0066 7D       		.byte	0x7d
 3183 0067 00       		.sleb128 0
 3184 0068 02000000 		.4byte	.LCFI1
 3185 006c AA000000 		.4byte	.LFE9
 3186 0070 0200     		.2byte	0x2
 3187 0072 7D       		.byte	0x7d
 3188 0073 18       		.sleb128 24
 3189 0074 00000000 		.4byte	0
 3190 0078 00000000 		.4byte	0
 3191              	.LLST4:
 3192 007c 00000000 		.4byte	.LVL3
 3193 0080 09000000 		.4byte	.LVL4-1
 3194 0084 0100     		.2byte	0x1
 3195 0086 50       		.byte	0x50
 3196 0087 09000000 		.4byte	.LVL4-1
 3197 008b AA000000 		.4byte	.LFE9
 3198 008f 0100     		.2byte	0x1
 3199 0091 54       		.byte	0x54
 3200 0092 00000000 		.4byte	0
 3201 0096 00000000 		.4byte	0
 3202              	.LLST5:
 3203 009a 00000000 		.4byte	.LVL3
 3204 009e 09000000 		.4byte	.LVL4-1
 3205 00a2 0100     		.2byte	0x1
 3206 00a4 51       		.byte	0x51
 3207 00a5 09000000 		.4byte	.LVL4-1
 3208 00a9 44000000 		.4byte	.LVL8
 3209 00ad 0100     		.2byte	0x1
 3210 00af 56       		.byte	0x56
 3211 00b0 44000000 		.4byte	.LVL8
 3212 00b4 4B000000 		.4byte	.LVL9-1
 3213 00b8 0200     		.2byte	0x2
 3214 00ba 74       		.byte	0x74
 3215 00bb 08       		.sleb128 8
 3216 00bc 92000000 		.4byte	.LVL14
 3217 00c0 A6000000 		.4byte	.LVL15
 3218 00c4 0100     		.2byte	0x1
 3219 00c6 56       		.byte	0x56
 3220 00c7 00000000 		.4byte	0
 3221 00cb 00000000 		.4byte	0
 3222              	.LLST6:
 3223 00cf 32000000 		.4byte	.LVL5
 3224 00d3 34000000 		.4byte	.LVL6
 3225 00d7 0100     		.2byte	0x1
 3226 00d9 55       		.byte	0x55
 3227 00da 34000000 		.4byte	.LVL6
 3228 00de 38000000 		.4byte	.LVL7
 3229 00e2 0300     		.2byte	0x3
 3230 00e4 75       		.byte	0x75
 3231 00e5 7F       		.sleb128 -1
 3232 00e6 9F       		.byte	0x9f
 3233 00e7 38000000 		.4byte	.LVL7
 3234 00eb 6A000000 		.4byte	.LVL12
 3235 00ef 0100     		.2byte	0x1
 3236 00f1 55       		.byte	0x55
 3237 00f2 A6000000 		.4byte	.LVL15
ARM GAS  C:\Users\z80\AppData\Local\Temp\ccgPhA14.s 			page 59


 3238 00f6 A8000000 		.4byte	.LVL16
 3239 00fa 0100     		.2byte	0x1
 3240 00fc 55       		.byte	0x55
 3241 00fd 00000000 		.4byte	0
 3242 0101 00000000 		.4byte	0
 3243              	.LLST7:
 3244 0105 50000000 		.4byte	.LVL10
 3245 0109 90000000 		.4byte	.LVL13
 3246 010d 0100     		.2byte	0x1
 3247 010f 54       		.byte	0x54
 3248 0110 A6000000 		.4byte	.LVL15
 3249 0114 AA000000 		.4byte	.LFE9
 3250 0118 0100     		.2byte	0x1
 3251 011a 54       		.byte	0x54
 3252 011b 00000000 		.4byte	0
 3253 011f 00000000 		.4byte	0
 3254              	.LLST8:
 3255 0123 00000000 		.4byte	.LFB8
 3256 0127 02000000 		.4byte	.LCFI2
 3257 012b 0200     		.2byte	0x2
 3258 012d 7D       		.byte	0x7d
 3259 012e 00       		.sleb128 0
 3260 012f 02000000 		.4byte	.LCFI2
 3261 0133 28000000 		.4byte	.LFE8
 3262 0137 0200     		.2byte	0x2
 3263 0139 7D       		.byte	0x7d
 3264 013a 10       		.sleb128 16
 3265 013b 00000000 		.4byte	0
 3266 013f 00000000 		.4byte	0
 3267              	.LLST9:
 3268 0143 00000000 		.4byte	.LVL17
 3269 0147 0F000000 		.4byte	.LVL20-1
 3270 014b 0100     		.2byte	0x1
 3271 014d 50       		.byte	0x50
 3272 014e 0F000000 		.4byte	.LVL20-1
 3273 0152 28000000 		.4byte	.LFE8
 3274 0156 0100     		.2byte	0x1
 3275 0158 55       		.byte	0x55
 3276 0159 00000000 		.4byte	0
 3277 015d 00000000 		.4byte	0
 3278              	.LLST10:
 3279 0161 00000000 		.4byte	.LVL17
 3280 0165 0F000000 		.4byte	.LVL20-1
 3281 0169 0100     		.2byte	0x1
 3282 016b 51       		.byte	0x51
 3283 016c 0F000000 		.4byte	.LVL20-1
 3284 0170 28000000 		.4byte	.LFE8
 3285 0174 0100     		.2byte	0x1
 3286 0176 54       		.byte	0x54
 3287 0177 00000000 		.4byte	0
 3288 017b 00000000 		.4byte	0
 3289              	.LLST11:
 3290 017f 0C000000 		.4byte	.LVL19
 3291 0183 0F000000 		.4byte	.LVL20-1
 3292 0187 0100     		.2byte	0x1
 3293 0189 53       		.byte	0x53
 3294 018a 00000000 		.4byte	0
ARM GAS  C:\Users\z80\AppData\Local\Temp\ccgPhA14.s 			page 60


 3295 018e 00000000 		.4byte	0
 3296              	.LLST12:
 3297 0192 26000000 		.4byte	.LVL22
 3298 0196 28000000 		.4byte	.LFE8
 3299 019a 0100     		.2byte	0x1
 3300 019c 53       		.byte	0x53
 3301 019d 00000000 		.4byte	0
 3302 01a1 00000000 		.4byte	0
 3303              	.LLST13:
 3304 01a5 00000000 		.4byte	.LFB11
 3305 01a9 02000000 		.4byte	.LCFI3
 3306 01ad 0200     		.2byte	0x2
 3307 01af 7D       		.byte	0x7d
 3308 01b0 00       		.sleb128 0
 3309 01b1 02000000 		.4byte	.LCFI3
 3310 01b5 6E000000 		.4byte	.LFE11
 3311 01b9 0200     		.2byte	0x2
 3312 01bb 7D       		.byte	0x7d
 3313 01bc 10       		.sleb128 16
 3314 01bd 00000000 		.4byte	0
 3315 01c1 00000000 		.4byte	0
 3316              	.LLST14:
 3317 01c5 00000000 		.4byte	.LVL23
 3318 01c9 07000000 		.4byte	.LVL24-1
 3319 01cd 0100     		.2byte	0x1
 3320 01cf 50       		.byte	0x50
 3321 01d0 07000000 		.4byte	.LVL24-1
 3322 01d4 6E000000 		.4byte	.LFE11
 3323 01d8 0100     		.2byte	0x1
 3324 01da 54       		.byte	0x54
 3325 01db 00000000 		.4byte	0
 3326 01df 00000000 		.4byte	0
 3327              	.LLST15:
 3328 01e3 4C000000 		.4byte	.LVL25
 3329 01e7 60000000 		.4byte	.LVL27
 3330 01eb 0100     		.2byte	0x1
 3331 01ed 54       		.byte	0x54
 3332 01ee 00000000 		.4byte	0
 3333 01f2 00000000 		.4byte	0
 3334              	.LLST16:
 3335 01f6 4C000000 		.4byte	.LVL25
 3336 01fa 59000000 		.4byte	.LVL26-1
 3337 01fe 0200     		.2byte	0x2
 3338 0200 75       		.byte	0x75
 3339 0201 1C       		.sleb128 28
 3340 0202 00000000 		.4byte	0
 3341 0206 00000000 		.4byte	0
 3342              	.LLST17:
 3343 020a 00000000 		.4byte	.LFB10
 3344 020e 02000000 		.4byte	.LCFI4
 3345 0212 0200     		.2byte	0x2
 3346 0214 7D       		.byte	0x7d
 3347 0215 00       		.sleb128 0
 3348 0216 02000000 		.4byte	.LCFI4
 3349 021a 24000000 		.4byte	.LFE10
 3350 021e 0200     		.2byte	0x2
 3351 0220 7D       		.byte	0x7d
ARM GAS  C:\Users\z80\AppData\Local\Temp\ccgPhA14.s 			page 61


 3352 0221 08       		.sleb128 8
 3353 0222 00000000 		.4byte	0
 3354 0226 00000000 		.4byte	0
 3355              	.LLST18:
 3356 022a 00000000 		.4byte	.LVL28
 3357 022e 0D000000 		.4byte	.LVL31-1
 3358 0232 0100     		.2byte	0x1
 3359 0234 50       		.byte	0x50
 3360 0235 0D000000 		.4byte	.LVL31-1
 3361 0239 16000000 		.4byte	.LVL32
 3362 023d 0100     		.2byte	0x1
 3363 023f 54       		.byte	0x54
 3364 0240 00000000 		.4byte	0
 3365 0244 00000000 		.4byte	0
 3366              	.LLST19:
 3367 0248 16000000 		.4byte	.LVL32
 3368 024c 19000000 		.4byte	.LVL33-1
 3369 0250 0100     		.2byte	0x1
 3370 0252 50       		.byte	0x50
 3371 0253 19000000 		.4byte	.LVL33-1
 3372 0257 24000000 		.4byte	.LFE10
 3373 025b 0100     		.2byte	0x1
 3374 025d 54       		.byte	0x54
 3375 025e 00000000 		.4byte	0
 3376 0262 00000000 		.4byte	0
 3377              	.LLST20:
 3378 0266 0A000000 		.4byte	.LVL30
 3379 026a 0D000000 		.4byte	.LVL31-1
 3380 026e 0100     		.2byte	0x1
 3381 0270 53       		.byte	0x53
 3382 0271 00000000 		.4byte	0
 3383 0275 00000000 		.4byte	0
 3384              	.LLST21:
 3385 0279 20000000 		.4byte	.LVL35
 3386 027d 24000000 		.4byte	.LFE10
 3387 0281 0100     		.2byte	0x1
 3388 0283 53       		.byte	0x53
 3389 0284 00000000 		.4byte	0
 3390 0288 00000000 		.4byte	0
 3391              	.LLST22:
 3392 028c 00000000 		.4byte	.LFB13
 3393 0290 02000000 		.4byte	.LCFI5
 3394 0294 0200     		.2byte	0x2
 3395 0296 7D       		.byte	0x7d
 3396 0297 00       		.sleb128 0
 3397 0298 02000000 		.4byte	.LCFI5
 3398 029c 7A000000 		.4byte	.LFE13
 3399 02a0 0200     		.2byte	0x2
 3400 02a2 7D       		.byte	0x7d
 3401 02a3 10       		.sleb128 16
 3402 02a4 00000000 		.4byte	0
 3403 02a8 00000000 		.4byte	0
 3404              	.LLST23:
 3405 02ac 00000000 		.4byte	.LVL36
 3406 02b0 09000000 		.4byte	.LVL37-1
 3407 02b4 0100     		.2byte	0x1
 3408 02b6 50       		.byte	0x50
ARM GAS  C:\Users\z80\AppData\Local\Temp\ccgPhA14.s 			page 62


 3409 02b7 09000000 		.4byte	.LVL37-1
 3410 02bb 7A000000 		.4byte	.LFE13
 3411 02bf 0100     		.2byte	0x1
 3412 02c1 54       		.byte	0x54
 3413 02c2 00000000 		.4byte	0
 3414 02c6 00000000 		.4byte	0
 3415              	.LLST24:
 3416 02ca 00000000 		.4byte	.LVL36
 3417 02ce 09000000 		.4byte	.LVL37-1
 3418 02d2 0100     		.2byte	0x1
 3419 02d4 51       		.byte	0x51
 3420 02d5 09000000 		.4byte	.LVL37-1
 3421 02d9 7A000000 		.4byte	.LFE13
 3422 02dd 0100     		.2byte	0x1
 3423 02df 55       		.byte	0x55
 3424 02e0 00000000 		.4byte	0
 3425 02e4 00000000 		.4byte	0
 3426              	.LLST25:
 3427 02e8 50000000 		.4byte	.LVL38
 3428 02ec 64000000 		.4byte	.LVL40
 3429 02f0 0100     		.2byte	0x1
 3430 02f2 54       		.byte	0x54
 3431 02f3 00000000 		.4byte	0
 3432 02f7 00000000 		.4byte	0
 3433              	.LLST26:
 3434 02fb 50000000 		.4byte	.LVL38
 3435 02ff 54000000 		.4byte	.LVL39
 3436 0303 0200     		.2byte	0x2
 3437 0305 70       		.byte	0x70
 3438 0306 1C       		.sleb128 28
 3439 0307 00000000 		.4byte	0
 3440 030b 00000000 		.4byte	0
 3441              	.LLST27:
 3442 030f 00000000 		.4byte	.LFB12
 3443 0313 02000000 		.4byte	.LCFI6
 3444 0317 0200     		.2byte	0x2
 3445 0319 7D       		.byte	0x7d
 3446 031a 00       		.sleb128 0
 3447 031b 02000000 		.4byte	.LCFI6
 3448 031f 28000000 		.4byte	.LFE12
 3449 0323 0200     		.2byte	0x2
 3450 0325 7D       		.byte	0x7d
 3451 0326 10       		.sleb128 16
 3452 0327 00000000 		.4byte	0
 3453 032b 00000000 		.4byte	0
 3454              	.LLST28:
 3455 032f 00000000 		.4byte	.LVL41
 3456 0333 0F000000 		.4byte	.LVL44-1
 3457 0337 0100     		.2byte	0x1
 3458 0339 50       		.byte	0x50
 3459 033a 0F000000 		.4byte	.LVL44-1
 3460 033e 28000000 		.4byte	.LFE12
 3461 0342 0100     		.2byte	0x1
 3462 0344 55       		.byte	0x55
 3463 0345 00000000 		.4byte	0
 3464 0349 00000000 		.4byte	0
 3465              	.LLST29:
ARM GAS  C:\Users\z80\AppData\Local\Temp\ccgPhA14.s 			page 63


 3466 034d 00000000 		.4byte	.LVL41
 3467 0351 0F000000 		.4byte	.LVL44-1
 3468 0355 0100     		.2byte	0x1
 3469 0357 51       		.byte	0x51
 3470 0358 0F000000 		.4byte	.LVL44-1
 3471 035c 1A000000 		.4byte	.LVL45
 3472 0360 0100     		.2byte	0x1
 3473 0362 54       		.byte	0x54
 3474 0363 00000000 		.4byte	0
 3475 0367 00000000 		.4byte	0
 3476              	.LLST30:
 3477 036b 1A000000 		.4byte	.LVL45
 3478 036f 1D000000 		.4byte	.LVL46-1
 3479 0373 0100     		.2byte	0x1
 3480 0375 50       		.byte	0x50
 3481 0376 1D000000 		.4byte	.LVL46-1
 3482 037a 28000000 		.4byte	.LFE12
 3483 037e 0100     		.2byte	0x1
 3484 0380 54       		.byte	0x54
 3485 0381 00000000 		.4byte	0
 3486 0385 00000000 		.4byte	0
 3487              	.LLST31:
 3488 0389 0C000000 		.4byte	.LVL43
 3489 038d 0F000000 		.4byte	.LVL44-1
 3490 0391 0100     		.2byte	0x1
 3491 0393 53       		.byte	0x53
 3492 0394 00000000 		.4byte	0
 3493 0398 00000000 		.4byte	0
 3494              	.LLST32:
 3495 039c 24000000 		.4byte	.LVL48
 3496 03a0 28000000 		.4byte	.LFE12
 3497 03a4 0100     		.2byte	0x1
 3498 03a6 53       		.byte	0x53
 3499 03a7 00000000 		.4byte	0
 3500 03ab 00000000 		.4byte	0
 3501              	.LLST33:
 3502 03af 00000000 		.4byte	.LFB14
 3503 03b3 02000000 		.4byte	.LCFI7
 3504 03b7 0200     		.2byte	0x2
 3505 03b9 7D       		.byte	0x7d
 3506 03ba 00       		.sleb128 0
 3507 03bb 02000000 		.4byte	.LCFI7
 3508 03bf 80000000 		.4byte	.LFE14
 3509 03c3 0200     		.2byte	0x2
 3510 03c5 7D       		.byte	0x7d
 3511 03c6 08       		.sleb128 8
 3512 03c7 00000000 		.4byte	0
 3513 03cb 00000000 		.4byte	0
 3514              	.LLST34:
 3515 03cf 00000000 		.4byte	.LVL49
 3516 03d3 08000000 		.4byte	.LVL50
 3517 03d7 0100     		.2byte	0x1
 3518 03d9 50       		.byte	0x50
 3519 03da 08000000 		.4byte	.LVL50
 3520 03de 80000000 		.4byte	.LFE14
 3521 03e2 0100     		.2byte	0x1
 3522 03e4 54       		.byte	0x54
ARM GAS  C:\Users\z80\AppData\Local\Temp\ccgPhA14.s 			page 64


 3523 03e5 00000000 		.4byte	0
 3524 03e9 00000000 		.4byte	0
 3525              	.LLST35:
 3526 03ed 26000000 		.4byte	.LVL52
 3527 03f1 29000000 		.4byte	.LVL53-1
 3528 03f5 0100     		.2byte	0x1
 3529 03f7 53       		.byte	0x53
 3530 03f8 4A000000 		.4byte	.LVL57
 3531 03fc 4D000000 		.4byte	.LVL58-1
 3532 0400 0100     		.2byte	0x1
 3533 0402 53       		.byte	0x53
 3534 0403 00000000 		.4byte	0
 3535 0407 00000000 		.4byte	0
 3536              	.LLST36:
 3537 040b 3E000000 		.4byte	.LVL55
 3538 040f 40000000 		.4byte	.LVL56
 3539 0413 0100     		.2byte	0x1
 3540 0415 53       		.byte	0x53
 3541 0416 70000000 		.4byte	.LVL62
 3542 041a 72000000 		.4byte	.LVL63
 3543 041e 0100     		.2byte	0x1
 3544 0420 53       		.byte	0x53
 3545 0421 00000000 		.4byte	0
 3546 0425 00000000 		.4byte	0
 3547              	.LLST37:
 3548 0429 58000000 		.4byte	.LVL59
 3549 042d 72000000 		.4byte	.LVL63
 3550 0431 0100     		.2byte	0x1
 3551 0433 54       		.byte	0x54
 3552 0434 00000000 		.4byte	0
 3553 0438 00000000 		.4byte	0
 3554              	.LLST38:
 3555 043c 5A000000 		.4byte	.LVL60
 3556 0440 65000000 		.4byte	.LVL61-1
 3557 0444 0200     		.2byte	0x2
 3558 0446 74       		.byte	0x74
 3559 0447 00       		.sleb128 0
 3560 0448 00000000 		.4byte	0
 3561 044c 00000000 		.4byte	0
 3562              	.LLST39:
 3563 0450 00000000 		.4byte	.LFB15
 3564 0454 02000000 		.4byte	.LCFI8
 3565 0458 0200     		.2byte	0x2
 3566 045a 7D       		.byte	0x7d
 3567 045b 00       		.sleb128 0
 3568 045c 02000000 		.4byte	.LCFI8
 3569 0460 60000000 		.4byte	.LFE15
 3570 0464 0200     		.2byte	0x2
 3571 0466 7D       		.byte	0x7d
 3572 0467 08       		.sleb128 8
 3573 0468 00000000 		.4byte	0
 3574 046c 00000000 		.4byte	0
 3575              	.LLST40:
 3576 0470 00000000 		.4byte	.LVL64
 3577 0474 07000000 		.4byte	.LVL65-1
 3578 0478 0100     		.2byte	0x1
 3579 047a 50       		.byte	0x50
ARM GAS  C:\Users\z80\AppData\Local\Temp\ccgPhA14.s 			page 65


 3580 047b 07000000 		.4byte	.LVL65-1
 3581 047f 60000000 		.4byte	.LFE15
 3582 0483 0100     		.2byte	0x1
 3583 0485 54       		.byte	0x54
 3584 0486 00000000 		.4byte	0
 3585 048a 00000000 		.4byte	0
 3586              	.LLST41:
 3587 048e 3C000000 		.4byte	.LVL66
 3588 0492 52000000 		.4byte	.LVL68
 3589 0496 0100     		.2byte	0x1
 3590 0498 54       		.byte	0x54
 3591 0499 00000000 		.4byte	0
 3592 049d 00000000 		.4byte	0
 3593              	.LLST42:
 3594 04a1 3E000000 		.4byte	.LVL67
 3595 04a5 51000000 		.4byte	.LVL68-1
 3596 04a9 0200     		.2byte	0x2
 3597 04ab 74       		.byte	0x74
 3598 04ac 00       		.sleb128 0
 3599 04ad 00000000 		.4byte	0
 3600 04b1 00000000 		.4byte	0
 3601              	.LLST43:
 3602 04b5 00000000 		.4byte	.LFB16
 3603 04b9 02000000 		.4byte	.LCFI9
 3604 04bd 0200     		.2byte	0x2
 3605 04bf 7D       		.byte	0x7d
 3606 04c0 00       		.sleb128 0
 3607 04c1 02000000 		.4byte	.LCFI9
 3608 04c5 E0000000 		.4byte	.LFE16
 3609 04c9 0200     		.2byte	0x2
 3610 04cb 7D       		.byte	0x7d
 3611 04cc 18       		.sleb128 24
 3612 04cd 00000000 		.4byte	0
 3613 04d1 00000000 		.4byte	0
 3614              	.LLST44:
 3615 04d5 00000000 		.4byte	.LVL69
 3616 04d9 09000000 		.4byte	.LVL70-1
 3617 04dd 0100     		.2byte	0x1
 3618 04df 50       		.byte	0x50
 3619 04e0 09000000 		.4byte	.LVL70-1
 3620 04e4 E0000000 		.4byte	.LFE16
 3621 04e8 0100     		.2byte	0x1
 3622 04ea 54       		.byte	0x54
 3623 04eb 00000000 		.4byte	0
 3624 04ef 00000000 		.4byte	0
 3625              	.LLST45:
 3626 04f3 00000000 		.4byte	.LVL69
 3627 04f7 09000000 		.4byte	.LVL70-1
 3628 04fb 0100     		.2byte	0x1
 3629 04fd 51       		.byte	0x51
 3630 04fe 09000000 		.4byte	.LVL70-1
 3631 0502 4E000000 		.4byte	.LVL71
 3632 0506 0100     		.2byte	0x1
 3633 0508 55       		.byte	0x55
 3634 0509 4E000000 		.4byte	.LVL71
 3635 050d 5C000000 		.4byte	.LVL72
 3636 0511 0300     		.2byte	0x3
ARM GAS  C:\Users\z80\AppData\Local\Temp\ccgPhA14.s 			page 66


 3637 0513 75       		.byte	0x75
 3638 0514 01       		.sleb128 1
 3639 0515 9F       		.byte	0x9f
 3640 0516 AA000000 		.4byte	.LVL78
 3641 051a CE000000 		.4byte	.LVL80
 3642 051e 0100     		.2byte	0x1
 3643 0520 55       		.byte	0x55
 3644 0521 CE000000 		.4byte	.LVL80
 3645 0525 DE000000 		.4byte	.LVL81
 3646 0529 0300     		.2byte	0x3
 3647 052b 75       		.byte	0x75
 3648 052c 01       		.sleb128 1
 3649 052d 9F       		.byte	0x9f
 3650 052e 00000000 		.4byte	0
 3651 0532 00000000 		.4byte	0
 3652              	.LLST46:
 3653 0536 7C000000 		.4byte	.LVL73
 3654 053a A6000000 		.4byte	.LVL77
 3655 053e 0100     		.2byte	0x1
 3656 0540 54       		.byte	0x54
 3657 0541 BE000000 		.4byte	.LVL79
 3658 0545 DE000000 		.4byte	.LVL81
 3659 0549 0100     		.2byte	0x1
 3660 054b 54       		.byte	0x54
 3661 054c 00000000 		.4byte	0
 3662 0550 00000000 		.4byte	0
 3663              	.LLST47:
 3664 0554 7E000000 		.4byte	.LVL74
 3665 0558 87000000 		.4byte	.LVL75-1
 3666 055c 0200     		.2byte	0x2
 3667 055e 74       		.byte	0x74
 3668 055f 00       		.sleb128 0
 3669 0560 00000000 		.4byte	0
 3670 0564 00000000 		.4byte	0
 3671              	.LLST48:
 3672 0568 00000000 		.4byte	.LFB17
 3673 056c 02000000 		.4byte	.LCFI10
 3674 0570 0200     		.2byte	0x2
 3675 0572 7D       		.byte	0x7d
 3676 0573 00       		.sleb128 0
 3677 0574 02000000 		.4byte	.LCFI10
 3678 0578 F6000000 		.4byte	.LFE17
 3679 057c 0200     		.2byte	0x2
 3680 057e 7D       		.byte	0x7d
 3681 057f 10       		.sleb128 16
 3682 0580 00000000 		.4byte	0
 3683 0584 00000000 		.4byte	0
 3684              	.LLST49:
 3685 0588 00000000 		.4byte	.LVL82
 3686 058c 1A000000 		.4byte	.LVL83
 3687 0590 0100     		.2byte	0x1
 3688 0592 50       		.byte	0x50
 3689 0593 1A000000 		.4byte	.LVL83
 3690 0597 68000000 		.4byte	.LVL87
 3691 059b 0100     		.2byte	0x1
 3692 059d 54       		.byte	0x54
 3693 059e 7C000000 		.4byte	.LVL92
ARM GAS  C:\Users\z80\AppData\Local\Temp\ccgPhA14.s 			page 67


 3694 05a2 AE000000 		.4byte	.LVL98
 3695 05a6 0100     		.2byte	0x1
 3696 05a8 54       		.byte	0x54
 3697 05a9 E8000000 		.4byte	.LVL103
 3698 05ad EC000000 		.4byte	.LVL104
 3699 05b1 0100     		.2byte	0x1
 3700 05b3 50       		.byte	0x50
 3701 05b4 EC000000 		.4byte	.LVL104
 3702 05b8 F6000000 		.4byte	.LFE17
 3703 05bc 0100     		.2byte	0x1
 3704 05be 54       		.byte	0x54
 3705 05bf 00000000 		.4byte	0
 3706 05c3 00000000 		.4byte	0
 3707              	.LLST50:
 3708 05c7 00000000 		.4byte	.LVL82
 3709 05cb 1A000000 		.4byte	.LVL83
 3710 05cf 0100     		.2byte	0x1
 3711 05d1 51       		.byte	0x51
 3712 05d2 1A000000 		.4byte	.LVL83
 3713 05d6 F6000000 		.4byte	.LFE17
 3714 05da 0100     		.2byte	0x1
 3715 05dc 55       		.byte	0x55
 3716 05dd 00000000 		.4byte	0
 3717 05e1 00000000 		.4byte	0
 3718              	.LLST51:
 3719 05e5 6C000000 		.4byte	.LVL88
 3720 05e9 6E000000 		.4byte	.LVL89
 3721 05ed 0200     		.2byte	0x2
 3722 05ef 30       		.byte	0x30
 3723 05f0 9F       		.byte	0x9f
 3724 05f1 6E000000 		.4byte	.LVL89
 3725 05f5 7C000000 		.4byte	.LVL92
 3726 05f9 0100     		.2byte	0x1
 3727 05fb 54       		.byte	0x54
 3728 05fc DA000000 		.4byte	.LVL101
 3729 0600 E8000000 		.4byte	.LVL103
 3730 0604 0100     		.2byte	0x1
 3731 0606 54       		.byte	0x54
 3732 0607 00000000 		.4byte	0
 3733 060b 00000000 		.4byte	0
 3734              	.LLST52:
 3735 060f 50000000 		.4byte	.LVL85
 3736 0613 53000000 		.4byte	.LVL86-1
 3737 0617 0100     		.2byte	0x1
 3738 0619 53       		.byte	0x53
 3739 061a 92000000 		.4byte	.LVL93
 3740 061e 95000000 		.4byte	.LVL94-1
 3741 0622 0100     		.2byte	0x1
 3742 0624 53       		.byte	0x53
 3743 0625 00000000 		.4byte	0
 3744 0629 00000000 		.4byte	0
 3745              	.LLST53:
 3746 062d 78000000 		.4byte	.LVL91
 3747 0631 7C000000 		.4byte	.LVL92
 3748 0635 0100     		.2byte	0x1
 3749 0637 53       		.byte	0x53
 3750 0638 E4000000 		.4byte	.LVL102
ARM GAS  C:\Users\z80\AppData\Local\Temp\ccgPhA14.s 			page 68


 3751 063c E8000000 		.4byte	.LVL103
 3752 0640 0100     		.2byte	0x1
 3753 0642 53       		.byte	0x53
 3754 0643 00000000 		.4byte	0
 3755 0647 00000000 		.4byte	0
 3756              	.LLST54:
 3757 064b A0000000 		.4byte	.LVL95
 3758 064f AE000000 		.4byte	.LVL98
 3759 0653 0100     		.2byte	0x1
 3760 0655 54       		.byte	0x54
 3761 0656 00000000 		.4byte	0
 3762 065a 00000000 		.4byte	0
 3763              	.LLST55:
 3764 065e A2000000 		.4byte	.LVL96
 3765 0662 AB000000 		.4byte	.LVL97-1
 3766 0666 0200     		.2byte	0x2
 3767 0668 74       		.byte	0x74
 3768 0669 00       		.sleb128 0
 3769 066a 00000000 		.4byte	0
 3770 066e 00000000 		.4byte	0
 3771              	.LLST56:
 3772 0672 C6000000 		.4byte	.LVL99
 3773 0676 D7000000 		.4byte	.LVL100-1
 3774 067a 0200     		.2byte	0x2
 3775 067c 7C       		.byte	0x7c
 3776 067d 1C       		.sleb128 28
 3777 067e D7000000 		.4byte	.LVL100-1
 3778 0682 DA000000 		.4byte	.LVL101
 3779 0686 0100     		.2byte	0x1
 3780 0688 54       		.byte	0x54
 3781 0689 00000000 		.4byte	0
 3782 068d 00000000 		.4byte	0
 3783              	.LLST57:
 3784 0691 C6000000 		.4byte	.LVL99
 3785 0695 E8000000 		.4byte	.LVL103
 3786 0699 0100     		.2byte	0x1
 3787 069b 55       		.byte	0x55
 3788 069c 00000000 		.4byte	0
 3789 06a0 00000000 		.4byte	0
 3790              		.section	.debug_aranges,"",%progbits
 3791 0000 6C000000 		.4byte	0x6c
 3792 0004 0200     		.2byte	0x2
 3793 0006 00000000 		.4byte	.Ldebug_info0
 3794 000a 04       		.byte	0x4
 3795 000b 00       		.byte	0
 3796 000c 0000     		.2byte	0
 3797 000e 0000     		.2byte	0
 3798 0010 00000000 		.4byte	.LFB7
 3799 0014 28000000 		.4byte	.LFE7-.LFB7
 3800 0018 00000000 		.4byte	.LFB9
 3801 001c AA000000 		.4byte	.LFE9-.LFB9
 3802 0020 00000000 		.4byte	.LFB8
 3803 0024 28000000 		.4byte	.LFE8-.LFB8
 3804 0028 00000000 		.4byte	.LFB11
 3805 002c 6E000000 		.4byte	.LFE11-.LFB11
 3806 0030 00000000 		.4byte	.LFB10
 3807 0034 24000000 		.4byte	.LFE10-.LFB10
ARM GAS  C:\Users\z80\AppData\Local\Temp\ccgPhA14.s 			page 69


 3808 0038 00000000 		.4byte	.LFB13
 3809 003c 7A000000 		.4byte	.LFE13-.LFB13
 3810 0040 00000000 		.4byte	.LFB12
 3811 0044 28000000 		.4byte	.LFE12-.LFB12
 3812 0048 00000000 		.4byte	.LFB14
 3813 004c 80000000 		.4byte	.LFE14-.LFB14
 3814 0050 00000000 		.4byte	.LFB15
 3815 0054 60000000 		.4byte	.LFE15-.LFB15
 3816 0058 00000000 		.4byte	.LFB16
 3817 005c E0000000 		.4byte	.LFE16-.LFB16
 3818 0060 00000000 		.4byte	.LFB17
 3819 0064 F6000000 		.4byte	.LFE17-.LFB17
 3820 0068 00000000 		.4byte	0
 3821 006c 00000000 		.4byte	0
 3822              		.section	.debug_ranges,"",%progbits
 3823              	.Ldebug_ranges0:
 3824 0000 3A000000 		.4byte	.LBB24
 3825 0004 3C000000 		.4byte	.LBE24
 3826 0008 40000000 		.4byte	.LBB34
 3827 000c 42000000 		.4byte	.LBE34
 3828 0010 44000000 		.4byte	.LBB35
 3829 0014 48000000 		.4byte	.LBE35
 3830 0018 58000000 		.4byte	.LBB36
 3831 001c 5A000000 		.4byte	.LBE36
 3832 0020 5C000000 		.4byte	.LBB37
 3833 0024 62000000 		.4byte	.LBE37
 3834 0028 6C000000 		.4byte	.LBB38
 3835 002c 6E000000 		.4byte	.LBE38
 3836 0030 70000000 		.4byte	.LBB39
 3837 0034 72000000 		.4byte	.LBE39
 3838 0038 74000000 		.4byte	.LBB40
 3839 003c 78000000 		.4byte	.LBE40
 3840 0040 7E000000 		.4byte	.LBB41
 3841 0044 86000000 		.4byte	.LBE41
 3842 0048 00000000 		.4byte	0
 3843 004c 00000000 		.4byte	0
 3844 0050 3A000000 		.4byte	.LBB25
 3845 0054 3C000000 		.4byte	.LBE25
 3846 0058 40000000 		.4byte	.LBB26
 3847 005c 42000000 		.4byte	.LBE26
 3848 0060 44000000 		.4byte	.LBB27
 3849 0064 48000000 		.4byte	.LBE27
 3850 0068 58000000 		.4byte	.LBB28
 3851 006c 5A000000 		.4byte	.LBE28
 3852 0070 5C000000 		.4byte	.LBB29
 3853 0074 62000000 		.4byte	.LBE29
 3854 0078 6C000000 		.4byte	.LBB30
 3855 007c 6E000000 		.4byte	.LBE30
 3856 0080 70000000 		.4byte	.LBB31
 3857 0084 72000000 		.4byte	.LBE31
 3858 0088 74000000 		.4byte	.LBB32
 3859 008c 78000000 		.4byte	.LBE32
 3860 0090 7E000000 		.4byte	.LBB33
 3861 0094 86000000 		.4byte	.LBE33
 3862 0098 00000000 		.4byte	0
 3863 009c 00000000 		.4byte	0
 3864 00a0 02000000 		.4byte	.LBB46
ARM GAS  C:\Users\z80\AppData\Local\Temp\ccgPhA14.s 			page 70


 3865 00a4 04000000 		.4byte	.LBE46
 3866 00a8 06000000 		.4byte	.LBB47
 3867 00ac 0A000000 		.4byte	.LBE47
 3868 00b0 00000000 		.4byte	0
 3869 00b4 00000000 		.4byte	0
 3870 00b8 50000000 		.4byte	.LBB49
 3871 00bc 52000000 		.4byte	.LBE49
 3872 00c0 54000000 		.4byte	.LBB52
 3873 00c4 5C000000 		.4byte	.LBE52
 3874 00c8 00000000 		.4byte	0
 3875 00cc 00000000 		.4byte	0
 3876 00d0 20000000 		.4byte	.LBB55
 3877 00d4 26000000 		.4byte	.LBE55
 3878 00d8 44000000 		.4byte	.LBB57
 3879 00dc 4A000000 		.4byte	.LBE57
 3880 00e0 00000000 		.4byte	0
 3881 00e4 00000000 		.4byte	0
 3882 00e8 38000000 		.4byte	.LBB56
 3883 00ec 3E000000 		.4byte	.LBE56
 3884 00f0 6A000000 		.4byte	.LBB62
 3885 00f4 70000000 		.4byte	.LBE62
 3886 00f8 00000000 		.4byte	0
 3887 00fc 00000000 		.4byte	0
 3888 0100 58000000 		.4byte	.LBB58
 3889 0104 5A000000 		.4byte	.LBE58
 3890 0108 5C000000 		.4byte	.LBB61
 3891 010c 62000000 		.4byte	.LBE61
 3892 0110 00000000 		.4byte	0
 3893 0114 00000000 		.4byte	0
 3894 0118 58000000 		.4byte	.LBB59
 3895 011c 5A000000 		.4byte	.LBE59
 3896 0120 5C000000 		.4byte	.LBB60
 3897 0124 62000000 		.4byte	.LBE60
 3898 0128 00000000 		.4byte	0
 3899 012c 00000000 		.4byte	0
 3900 0130 3C000000 		.4byte	.LBB63
 3901 0134 4A000000 		.4byte	.LBE63
 3902 0138 4E000000 		.4byte	.LBB70
 3903 013c 52000000 		.4byte	.LBE70
 3904 0140 00000000 		.4byte	0
 3905 0144 00000000 		.4byte	0
 3906 0148 3C000000 		.4byte	.LBB64
 3907 014c 3E000000 		.4byte	.LBE64
 3908 0150 40000000 		.4byte	.LBB68
 3909 0154 42000000 		.4byte	.LBE68
 3910 0158 44000000 		.4byte	.LBB69
 3911 015c 48000000 		.4byte	.LBE69
 3912 0160 00000000 		.4byte	0
 3913 0164 00000000 		.4byte	0
 3914 0168 3C000000 		.4byte	.LBB65
 3915 016c 3E000000 		.4byte	.LBE65
 3916 0170 40000000 		.4byte	.LBB66
 3917 0174 42000000 		.4byte	.LBE66
 3918 0178 44000000 		.4byte	.LBB67
 3919 017c 48000000 		.4byte	.LBE67
 3920 0180 00000000 		.4byte	0
 3921 0184 00000000 		.4byte	0
ARM GAS  C:\Users\z80\AppData\Local\Temp\ccgPhA14.s 			page 71


 3922 0188 7C000000 		.4byte	.LBB71
 3923 018c 84000000 		.4byte	.LBE71
 3924 0190 94000000 		.4byte	.LBB76
 3925 0194 9C000000 		.4byte	.LBE76
 3926 0198 BE000000 		.4byte	.LBB77
 3927 019c C6000000 		.4byte	.LBE77
 3928 01a0 CE000000 		.4byte	.LBB78
 3929 01a4 D6000000 		.4byte	.LBE78
 3930 01a8 00000000 		.4byte	0
 3931 01ac 00000000 		.4byte	0
 3932 01b0 7C000000 		.4byte	.LBB72
 3933 01b4 84000000 		.4byte	.LBE72
 3934 01b8 94000000 		.4byte	.LBB73
 3935 01bc 9C000000 		.4byte	.LBE73
 3936 01c0 BE000000 		.4byte	.LBB74
 3937 01c4 C6000000 		.4byte	.LBE74
 3938 01c8 CE000000 		.4byte	.LBB75
 3939 01cc D6000000 		.4byte	.LBE75
 3940 01d0 00000000 		.4byte	0
 3941 01d4 00000000 		.4byte	0
 3942 01d8 4A000000 		.4byte	.LBB79
 3943 01dc 50000000 		.4byte	.LBE79
 3944 01e0 8C000000 		.4byte	.LBB81
 3945 01e4 92000000 		.4byte	.LBE81
 3946 01e8 00000000 		.4byte	0
 3947 01ec 00000000 		.4byte	0
 3948 01f0 72000000 		.4byte	.LBB80
 3949 01f4 78000000 		.4byte	.LBE80
 3950 01f8 DE000000 		.4byte	.LBB89
 3951 01fc E4000000 		.4byte	.LBE89
 3952 0200 00000000 		.4byte	0
 3953 0204 00000000 		.4byte	0
 3954 0208 C6000000 		.4byte	.LBB85
 3955 020c C8000000 		.4byte	.LBE85
 3956 0210 CA000000 		.4byte	.LBB88
 3957 0214 D2000000 		.4byte	.LBE88
 3958 0218 00000000 		.4byte	0
 3959 021c 00000000 		.4byte	0
 3960 0220 00000000 		.4byte	.LFB7
 3961 0224 28000000 		.4byte	.LFE7
 3962 0228 00000000 		.4byte	.LFB9
 3963 022c AA000000 		.4byte	.LFE9
 3964 0230 00000000 		.4byte	.LFB8
 3965 0234 28000000 		.4byte	.LFE8
 3966 0238 00000000 		.4byte	.LFB11
 3967 023c 6E000000 		.4byte	.LFE11
 3968 0240 00000000 		.4byte	.LFB10
 3969 0244 24000000 		.4byte	.LFE10
 3970 0248 00000000 		.4byte	.LFB13
 3971 024c 7A000000 		.4byte	.LFE13
 3972 0250 00000000 		.4byte	.LFB12
 3973 0254 28000000 		.4byte	.LFE12
 3974 0258 00000000 		.4byte	.LFB14
 3975 025c 80000000 		.4byte	.LFE14
 3976 0260 00000000 		.4byte	.LFB15
 3977 0264 60000000 		.4byte	.LFE15
 3978 0268 00000000 		.4byte	.LFB16
ARM GAS  C:\Users\z80\AppData\Local\Temp\ccgPhA14.s 			page 72


 3979 026c E0000000 		.4byte	.LFE16
 3980 0270 00000000 		.4byte	.LFB17
 3981 0274 F6000000 		.4byte	.LFE17
 3982 0278 00000000 		.4byte	0
 3983 027c 00000000 		.4byte	0
 3984              		.section	.debug_line,"",%progbits
 3985              	.Ldebug_line0:
 3986 0000 8B040000 		.section	.debug_str,"MS",%progbits,1
 3986      02006301 
 3986      00000201 
 3986      FB0E0D00 
 3986      01010101 
 3987              	.LASF34:
 3988 0000 705F6D73 		.ascii	"p_msg\000"
 3988      6700
 3989              	.LASF81:
 3990 0006 71756575 		.ascii	"queue_insert\000"
 3990      655F696E 
 3990      73657274 
 3990      00
 3991              	.LASF75:
 3992 0013 63685365 		.ascii	"chSemSignalI\000"
 3992      6D536967 
 3992      6E616C49 
 3992      00
 3993              	.LASF59:
 3994 0020 7264796D 		.ascii	"rdymsg\000"
 3994      736700
 3995              	.LASF11:
 3996 0027 75696E74 		.ascii	"uint64_t\000"
 3996      36345F74 
 3996      00
 3997              	.LASF12:
 3998 0030 6C6F6E67 		.ascii	"long long unsigned int\000"
 3998      206C6F6E 
 3998      6720756E 
 3998      7369676E 
 3998      65642069 
 3999              	.LASF79:
 4000 0047 2E2E2F63 		.ascii	"../chibios_2.4.x/os/kernel/src/chsem.c\000"
 4000      68696269 
 4000      6F735F32 
 4000      2E342E78 
 4000      2F6F732F 
 4001              	.LASF60:
 4002 006e 65786974 		.ascii	"exitcode\000"
 4002      636F6465 
 4002      00
 4003              	.LASF76:
 4004 0077 63685365 		.ascii	"chSemAddCounterI\000"
 4004      6D416464 
 4004      436F756E 
 4004      74657249 
 4004      00
 4005              	.LASF23:
 4006 0088 705F7072 		.ascii	"p_prio\000"
 4006      696F00
ARM GAS  C:\Users\z80\AppData\Local\Temp\ccgPhA14.s 			page 73


 4007              	.LASF10:
 4008 008f 6C6F6E67 		.ascii	"long long int\000"
 4008      206C6F6E 
 4008      6720696E 
 4008      7400
 4009              	.LASF1:
 4010 009d 7369676E 		.ascii	"signed char\000"
 4010      65642063 
 4010      68617200 
 4011              	.LASF77:
 4012 00a9 63685365 		.ascii	"chSemSignalWait\000"
 4012      6D536967 
 4012      6E616C57 
 4012      61697400 
 4013              	.LASF56:
 4014 00b9 6D5F7175 		.ascii	"m_queue\000"
 4014      65756500 
 4015              	.LASF80:
 4016 00c1 433A5C70 		.ascii	"C:\\projects\\digitizer.git\\firmware\\digitizer\000"
 4016      726F6A65 
 4016      6374735C 
 4016      64696769 
 4016      74697A65 
 4017              	.LASF7:
 4018 00ee 6C6F6E67 		.ascii	"long int\000"
 4018      20696E74 
 4018      00
 4019              	.LASF14:
 4020 00f7 74737461 		.ascii	"tstate_t\000"
 4020      74655F74 
 4020      00
 4021              	.LASF74:
 4022 0100 63685365 		.ascii	"chSemSignal\000"
 4022      6D536967 
 4022      6E616C00 
 4023              	.LASF25:
 4024 010c 705F6E65 		.ascii	"p_newer\000"
 4024      77657200 
 4025              	.LASF53:
 4026 0114 735F7175 		.ascii	"s_queue\000"
 4026      65756500 
 4027              	.LASF47:
 4028 011c 725F6E65 		.ascii	"r_newer\000"
 4028      77657200 
 4029              	.LASF40:
 4030 0124 72656761 		.ascii	"regarm_t\000"
 4030      726D5F74 
 4030      00
 4031              	.LASF19:
 4032 012d 636E745F 		.ascii	"cnt_t\000"
 4032      7400
 4033              	.LASF28:
 4034 0133 705F7374 		.ascii	"p_stklimit\000"
 4034      6B6C696D 
 4034      697400
 4035              	.LASF0:
 4036 013e 756E7369 		.ascii	"unsigned int\000"
ARM GAS  C:\Users\z80\AppData\Local\Temp\ccgPhA14.s 			page 74


 4036      676E6564 
 4036      20696E74 
 4036      00
 4037              	.LASF73:
 4038 014b 63685365 		.ascii	"chSemWaitTimeout\000"
 4038      6D576169 
 4038      7454696D 
 4038      656F7574 
 4038      00
 4039              	.LASF9:
 4040 015c 6C6F6E67 		.ascii	"long unsigned int\000"
 4040      20756E73 
 4040      69676E65 
 4040      6420696E 
 4040      7400
 4041              	.LASF54:
 4042 016e 735F636E 		.ascii	"s_cnt\000"
 4042      7400
 4043              	.LASF43:
 4044 0174 636F6E74 		.ascii	"context\000"
 4044      65787400 
 4045              	.LASF4:
 4046 017c 73686F72 		.ascii	"short unsigned int\000"
 4046      7420756E 
 4046      7369676E 
 4046      65642069 
 4046      6E7400
 4047              	.LASF68:
 4048 018f 63685365 		.ascii	"chSemReset\000"
 4048      6D526573 
 4048      657400
 4049              	.LASF16:
 4050 019a 6D73675F 		.ascii	"msg_t\000"
 4050      7400
 4051              	.LASF13:
 4052 01a0 746D6F64 		.ascii	"tmode_t\000"
 4052      655F7400 
 4053              	.LASF39:
 4054 01a8 54687265 		.ascii	"ThreadsList\000"
 4054      6164734C 
 4054      69737400 
 4055              	.LASF17:
 4056 01b4 6576656E 		.ascii	"eventmask_t\000"
 4056      746D6173 
 4056      6B5F7400 
 4057              	.LASF55:
 4058 01c0 4D757465 		.ascii	"Mutex\000"
 4058      7800
 4059              	.LASF41:
 4060 01c6 73746B61 		.ascii	"stkalign_t\000"
 4060      6C69676E 
 4060      5F7400
 4061              	.LASF26:
 4062 01d1 705F6F6C 		.ascii	"p_older\000"
 4062      64657200 
 4063              	.LASF46:
 4064 01d9 725F6374 		.ascii	"r_ctx\000"
ARM GAS  C:\Users\z80\AppData\Local\Temp\ccgPhA14.s 			page 75


 4064      7800
 4065              	.LASF38:
 4066 01df 54687265 		.ascii	"ThreadsQueue\000"
 4066      61647351 
 4066      75657565 
 4066      00
 4067              	.LASF72:
 4068 01ec 74696D65 		.ascii	"time\000"
 4068      00
 4069              	.LASF50:
 4070 01f1 725F6375 		.ascii	"r_current\000"
 4070      7272656E 
 4070      7400
 4071              	.LASF48:
 4072 01fb 725F6F6C 		.ascii	"r_older\000"
 4072      64657200 
 4073              	.LASF22:
 4074 0203 705F7072 		.ascii	"p_prev\000"
 4074      657600
 4075              	.LASF15:
 4076 020a 74707269 		.ascii	"tprio_t\000"
 4076      6F5F7400 
 4077              	.LASF6:
 4078 0212 696E7433 		.ascii	"int32_t\000"
 4078      325F7400 
 4079              	.LASF2:
 4080 021a 756E7369 		.ascii	"unsigned char\000"
 4080      676E6564 
 4080      20636861 
 4080      7200
 4081              	.LASF36:
 4082 0228 705F6D74 		.ascii	"p_mtxlist\000"
 4082      786C6973 
 4082      7400
 4083              	.LASF3:
 4084 0232 73686F72 		.ascii	"short int\000"
 4084      7420696E 
 4084      7400
 4085              	.LASF29:
 4086 023c 705F7374 		.ascii	"p_state\000"
 4086      61746500 
 4087              	.LASF45:
 4088 0244 725F7072 		.ascii	"r_prio\000"
 4088      696F00
 4089              	.LASF62:
 4090 024b 65776D61 		.ascii	"ewmask\000"
 4090      736B00
 4091              	.LASF21:
 4092 0252 705F6E65 		.ascii	"p_next\000"
 4092      787400
 4093              	.LASF30:
 4094 0259 705F666C 		.ascii	"p_flags\000"
 4094      61677300 
 4095              	.LASF69:
 4096 0261 63685365 		.ascii	"chSemWaitS\000"
 4096      6D576169 
 4096      745300
ARM GAS  C:\Users\z80\AppData\Local\Temp\ccgPhA14.s 			page 76


 4097              	.LASF20:
 4098 026c 54687265 		.ascii	"Thread\000"
 4098      616400
 4099              	.LASF35:
 4100 0273 705F6570 		.ascii	"p_epending\000"
 4100      656E6469 
 4100      6E6700
 4101              	.LASF8:
 4102 027e 75696E74 		.ascii	"uint32_t\000"
 4102      33325F74 
 4102      00
 4103              	.LASF44:
 4104 0287 725F7175 		.ascii	"r_queue\000"
 4104      65756500 
 4105              	.LASF78:
 4106 028f 474E5520 		.ascii	"GNU C 4.6.3\000"
 4106      4320342E 
 4106      362E3300 
 4107              	.LASF63:
 4108 029b 63686172 		.ascii	"char\000"
 4108      00
 4109              	.LASF65:
 4110 02a0 6669666F 		.ascii	"fifo_remove\000"
 4110      5F72656D 
 4110      6F766500 
 4111              	.LASF71:
 4112 02ac 63685365 		.ascii	"chSemWaitTimeoutS\000"
 4112      6D576169 
 4112      7454696D 
 4112      656F7574 
 4112      5300
 4113              	.LASF58:
 4114 02be 6D5F6E65 		.ascii	"m_next\000"
 4114      787400
 4115              	.LASF18:
 4116 02c5 73797374 		.ascii	"systime_t\000"
 4116      696D655F 
 4116      7400
 4117              	.LASF37:
 4118 02cf 705F7265 		.ascii	"p_realprio\000"
 4118      616C7072 
 4118      696F00
 4119              	.LASF70:
 4120 02da 63685365 		.ascii	"chSemWait\000"
 4120      6D576169 
 4120      7400
 4121              	.LASF31:
 4122 02e4 705F7469 		.ascii	"p_time\000"
 4122      6D6500
 4123              	.LASF64:
 4124 02eb 6C69666F 		.ascii	"lifo_remove\000"
 4124      5F72656D 
 4124      6F766500 
 4125              	.LASF42:
 4126 02f7 696E7463 		.ascii	"intctx\000"
 4126      747800
 4127              	.LASF33:
ARM GAS  C:\Users\z80\AppData\Local\Temp\ccgPhA14.s 			page 77


 4128 02fe 705F6D73 		.ascii	"p_msgqueue\000"
 4128      67717565 
 4128      756500
 4129              	.LASF52:
 4130 0309 53656D61 		.ascii	"Semaphore\000"
 4130      70686F72 
 4130      6500
 4131              	.LASF51:
 4132 0313 52656164 		.ascii	"ReadyList\000"
 4132      794C6973 
 4132      7400
 4133              	.LASF67:
 4134 031d 63685365 		.ascii	"chSemResetI\000"
 4134      6D526573 
 4134      65744900 
 4135              	.LASF82:
 4136 0329 726C6973 		.ascii	"rlist\000"
 4136      7400
 4137              	.LASF5:
 4138 032f 75696E74 		.ascii	"uint8_t\000"
 4138      385F7400 
 4139              	.LASF61:
 4140 0337 77746F62 		.ascii	"wtobjp\000"
 4140      6A7000
 4141              	.LASF27:
 4142 033e 705F6E61 		.ascii	"p_name\000"
 4142      6D6500
 4143              	.LASF49:
 4144 0345 725F7072 		.ascii	"r_preempt\000"
 4144      65656D70 
 4144      7400
 4145              	.LASF57:
 4146 034f 6D5F6F77 		.ascii	"m_owner\000"
 4146      6E657200 
 4147              	.LASF24:
 4148 0357 705F6374 		.ascii	"p_ctx\000"
 4148      7800
 4149              	.LASF32:
 4150 035d 705F7761 		.ascii	"p_waiting\000"
 4150      6974696E 
 4150      6700
 4151              	.LASF66:
 4152 0367 63685365 		.ascii	"chSemInit\000"
 4152      6D496E69 
 4152      7400
 4153              		.ident	"GCC: (Sourcery CodeBench Lite 2012.03-56) 4.6.3"
ARM GAS  C:\Users\z80\AppData\Local\Temp\ccgPhA14.s 			page 78


DEFINED SYMBOLS
                            *ABS*:00000000 chsem.c
C:\Users\z80\AppData\Local\Temp\ccgPhA14.s:19     .text.chSemInit:00000000 $t
C:\Users\z80\AppData\Local\Temp\ccgPhA14.s:25     .text.chSemInit:00000000 chSemInit
C:\Users\z80\AppData\Local\Temp\ccgPhA14.s:1326   .rodata.str1.4:00000000 .LC0
C:\Users\z80\AppData\Local\Temp\ccgPhA14.s:68     .text.chSemResetI:00000000 $t
C:\Users\z80\AppData\Local\Temp\ccgPhA14.s:74     .text.chSemResetI:00000000 chSemResetI
C:\Users\z80\AppData\Local\Temp\ccgPhA14.s:1331   .rodata.str1.4:00000020 .LC2
C:\Users\z80\AppData\Local\Temp\ccgPhA14.s:1329   .rodata.str1.4:00000010 .LC1
C:\Users\z80\AppData\Local\Temp\ccgPhA14.s:257    .text.chSemReset:00000000 $t
C:\Users\z80\AppData\Local\Temp\ccgPhA14.s:263    .text.chSemReset:00000000 chSemReset
C:\Users\z80\AppData\Local\Temp\ccgPhA14.s:315    .text.chSemWaitS:00000000 $t
C:\Users\z80\AppData\Local\Temp\ccgPhA14.s:321    .text.chSemWaitS:00000000 chSemWaitS
C:\Users\z80\AppData\Local\Temp\ccgPhA14.s:1337   .rodata.str1.4:00000044 .LC4
C:\Users\z80\AppData\Local\Temp\ccgPhA14.s:1334   .rodata.str1.4:00000034 .LC3
C:\Users\z80\AppData\Local\Temp\ccgPhA14.s:419    .text.chSemWait:00000000 $t
C:\Users\z80\AppData\Local\Temp\ccgPhA14.s:425    .text.chSemWait:00000000 chSemWait
C:\Users\z80\AppData\Local\Temp\ccgPhA14.s:478    .text.chSemWaitTimeoutS:00000000 $t
C:\Users\z80\AppData\Local\Temp\ccgPhA14.s:484    .text.chSemWaitTimeoutS:00000000 chSemWaitTimeoutS
C:\Users\z80\AppData\Local\Temp\ccgPhA14.s:1343   .rodata.str1.4:00000070 .LC6
C:\Users\z80\AppData\Local\Temp\ccgPhA14.s:1340   .rodata.str1.4:00000058 .LC5
C:\Users\z80\AppData\Local\Temp\ccgPhA14.s:595    .text.chSemWaitTimeout:00000000 $t
C:\Users\z80\AppData\Local\Temp\ccgPhA14.s:601    .text.chSemWaitTimeout:00000000 chSemWaitTimeout
C:\Users\z80\AppData\Local\Temp\ccgPhA14.s:655    .text.chSemSignal:00000000 $t
C:\Users\z80\AppData\Local\Temp\ccgPhA14.s:661    .text.chSemSignal:00000000 chSemSignal
C:\Users\z80\AppData\Local\Temp\ccgPhA14.s:1347   .rodata.str1.4:00000098 .LC8
C:\Users\z80\AppData\Local\Temp\ccgPhA14.s:1345   .rodata.str1.4:00000088 .LC7
C:\Users\z80\AppData\Local\Temp\ccgPhA14.s:792    .text.chSemSignalI:00000000 $t
C:\Users\z80\AppData\Local\Temp\ccgPhA14.s:798    .text.chSemSignalI:00000000 chSemSignalI
C:\Users\z80\AppData\Local\Temp\ccgPhA14.s:1353   .rodata.str1.4:000000c0 .LC10
C:\Users\z80\AppData\Local\Temp\ccgPhA14.s:1350   .rodata.str1.4:000000ac .LC9
C:\Users\z80\AppData\Local\Temp\ccgPhA14.s:897    .text.chSemAddCounterI:00000000 $t
C:\Users\z80\AppData\Local\Temp\ccgPhA14.s:903    .text.chSemAddCounterI:00000000 chSemAddCounterI
C:\Users\z80\AppData\Local\Temp\ccgPhA14.s:1359   .rodata.str1.4:000000ec .LC12
C:\Users\z80\AppData\Local\Temp\ccgPhA14.s:1356   .rodata.str1.4:000000d4 .LC11
C:\Users\z80\AppData\Local\Temp\ccgPhA14.s:1100   .text.chSemSignalWait:00000000 $t
C:\Users\z80\AppData\Local\Temp\ccgPhA14.s:1106   .text.chSemSignalWait:00000000 chSemSignalWait
C:\Users\z80\AppData\Local\Temp\ccgPhA14.s:1364   .rodata.str1.4:00000118 .LC14
C:\Users\z80\AppData\Local\Temp\ccgPhA14.s:1367   .rodata.str1.4:00000130 .LC15
C:\Users\z80\AppData\Local\Temp\ccgPhA14.s:1362   .rodata.str1.4:00000104 .LC13
C:\Users\z80\AppData\Local\Temp\ccgPhA14.s:1325   .rodata.str1.4:00000000 $d
                     .debug_frame:00000010 $d

UNDEFINED SYMBOLS
chDbgPanic
chDbgCheckClassI
chSchReadyI
dbg_check_lock
chSchRescheduleS
dbg_check_unlock
chDbgCheckClassS
rlist
chSchGoSleepS
chSchGoSleepTimeoutS
chSchWakeupS
