ARM GAS  C:\Users\z80\AppData\Local\Temp\ccs3Wc12.s 			page 1


   1              		.syntax unified
   2              		.cpu cortex-m3
   3              		.fpu softvfp
   4              		.eabi_attribute 20, 1
   5              		.eabi_attribute 21, 1
   6              		.eabi_attribute 23, 3
   7              		.eabi_attribute 24, 1
   8              		.eabi_attribute 25, 1
   9              		.eabi_attribute 26, 1
  10              		.eabi_attribute 30, 6
  11              		.eabi_attribute 34, 1
  12              		.eabi_attribute 18, 4
  13              		.thumb
  14              		.file	"chsys.c"
  15              		.text
  16              	.Ltext0:
  17              		.cfi_sections	.debug_frame
  18              		.global	_idle_thread_wa
  19              		.section	.bss._idle_thread_wa,"aw",%nobits
  20              		.align	3
  21              		.type	_idle_thread_wa, %object
  22              		.size	_idle_thread_wa, 192
  23              	_idle_thread_wa:
  24 0000 00000000 		.space	192
  24      00000000 
  24      00000000 
  24      00000000 
  24      00000000 
  25              		.section	.rodata
  26              		.align	2
  27              	.LC0:
  28 0000 69646C65 		.ascii	"idle\000"
  28      00
  29              		.section	.text._idle_thread,"ax",%progbits
  30              		.align	2
  31              		.p2align 4,,15
  32              		.global	_idle_thread
  33              		.thumb
  34              		.thumb_func
  35              		.type	_idle_thread, %function
  36              	_idle_thread:
  37              	.LFB7:
  38              		.file 1 "../chibios_2.4.x/os/kernel/src/chsys.c"
  39              		.loc 1 59 0
  40              		.cfi_startproc
  41              		@ args = 0, pretend = 0, frame = 8
  42              		@ frame_needed = 0, uses_anonymous_args = 0
  43              		@ link register save eliminated.
  44 0000 82B0     		sub	sp, sp, #8
  45              	.LCFI0:
  46              		.cfi_def_cfa_offset 8
  47 0002 0190     		str	r0, [sp, #4]
  48              		.loc 1 62 0
  49 0004 40F20003 		movw	r3, #:lower16:rlist
  50 0008 C0F20003 		movt	r3, #:upper16:rlist
  51 000c DA69     		ldr	r2, [r3, #28]
  52 000e 40F20003 		movw	r3, #:lower16:.LC0
ARM GAS  C:\Users\z80\AppData\Local\Temp\ccs3Wc12.s 			page 2


  53 0012 C0F20003 		movt	r3, #:upper16:.LC0
  54 0016 9361     		str	r3, [r2, #24]
  55              	.L2:
  56              		.loc 1 66 0 discriminator 1
  57 0018 FEE7     		b	.L2
  58              		.cfi_endproc
  59              	.LFE7:
  60              		.size	_idle_thread, .-_idle_thread
  61 001a 00BFAFF3 		.section	.rodata
  61      0080
  62 0005 000000   		.align	2
  63              	.LC1:
  64 0008 6D61696E 		.ascii	"main\000"
  64      00
  65 000d 000000   		.section	.text.chSysInit,"ax",%progbits
  66              		.align	2
  67              		.p2align 4,,15
  68              		.global	chSysInit
  69              		.thumb
  70              		.thumb_func
  71              		.type	chSysInit, %function
  72              	chSysInit:
  73              	.LFB8:
  74              		.loc 1 82 0
  75              		.cfi_startproc
  76              		@ args = 0, pretend = 0, frame = 0
  77              		@ frame_needed = 0, uses_anonymous_args = 0
  78 0000 00B5     		push	{lr}
  79              	.LCFI1:
  80              		.cfi_def_cfa_offset 4
  81              		.cfi_offset 14, -4
  82 0002 83B0     		sub	sp, sp, #12
  83              	.LCFI2:
  84              		.cfi_def_cfa_offset 16
  85              		.loc 1 88 0
  86 0004 FFF7FEFF 		bl	_port_init
  87              		.loc 1 89 0
  88 0008 FFF7FEFF 		bl	_scheduler_init
  89              		.loc 1 90 0
  90 000c FFF7FEFF 		bl	_vt_init
  91              		.loc 1 92 0
  92 0010 FFF7FEFF 		bl	_core_init
  93              		.loc 1 98 0
  94 0014 FFF7FEFF 		bl	_trace_init
  95              		.loc 1 102 0
  96 0018 40F20000 		movw	r0, #:lower16:mainthread.4651
  97 001c C0F20000 		movt	r0, #:upper16:mainthread.4651
  98 0020 4FF04001 		mov	r1, #64
  99 0024 FFF7FEFF 		bl	_thread_init
 100 0028 0246     		mov	r2, r0
 101 002a 40F20003 		movw	r3, #:lower16:rlist
 102 002e C0F20003 		movt	r3, #:upper16:rlist
 103 0032 DA61     		str	r2, [r3, #28]
 104              		.loc 1 103 0
 105 0034 40F20003 		movw	r3, #:lower16:rlist
 106 0038 C0F20003 		movt	r3, #:upper16:rlist
 107 003c DB69     		ldr	r3, [r3, #28]
ARM GAS  C:\Users\z80\AppData\Local\Temp\ccs3Wc12.s 			page 3


 108 003e 4FF00102 		mov	r2, #1
 109 0042 83F82020 		strb	r2, [r3, #32]
 110              		.loc 1 107 0
 111 0046 40F20003 		movw	r3, #:lower16:rlist
 112 004a C0F20003 		movt	r3, #:upper16:rlist
 113 004e DA69     		ldr	r2, [r3, #28]
 114 0050 40F20003 		movw	r3, #:lower16:__main_thread_stack_base__
 115 0054 C0F20003 		movt	r3, #:upper16:__main_thread_stack_base__
 116 0058 D361     		str	r3, [r2, #28]
 117              		.loc 1 109 0
 118 005a FFF7FEFF 		bl	dbg_check_enable
 119              	.LBB2:
 120 005e 4FF00003 		mov	r3, #0
 121              	@ 109 "../chibios_2.4.x/os/kernel/src/chsys.c" 1
 122 0062 83F31188 		msr     BASEPRI, r3                    
 123 0066 62B6     		cpsie   i
 124              	@ 0 "" 2
 125              		.thumb
 126              	.LBE2:
 127              		.loc 1 111 0
 128 0068 40F20003 		movw	r3, #:lower16:rlist
 129 006c C0F20003 		movt	r3, #:upper16:rlist
 130 0070 DA69     		ldr	r2, [r3, #28]
 131 0072 40F20003 		movw	r3, #:lower16:.LC1
 132 0076 C0F20003 		movt	r3, #:upper16:.LC1
 133 007a 9361     		str	r3, [r2, #24]
 134              		.loc 1 117 0
 135 007c 40F20003 		movw	r3, #:lower16:_idle_thread
 136 0080 C0F20003 		movt	r3, #:upper16:_idle_thread
 137 0084 4FF00002 		mov	r2, #0
 138 0088 0092     		str	r2, [sp, #0]
 139 008a 40F20000 		movw	r0, #:lower16:_idle_thread_wa
 140 008e C0F20000 		movt	r0, #:upper16:_idle_thread_wa
 141 0092 4FF0C001 		mov	r1, #192
 142 0096 4FF00102 		mov	r2, #1
 143 009a FFF7FEFF 		bl	chThdCreateStatic
 144              		.loc 1 120 0
 145 009e 03B0     		add	sp, sp, #12
 146 00a0 00BD     		pop	{pc}
 147              		.cfi_endproc
 148              	.LFE8:
 149              		.size	chSysInit, .-chSysInit
 150 00a2 00BFAFF3 		.section	.text.chSysTimerHandlerI,"ax",%progbits
 150      0080AFF3 
 150      0080AFF3 
 150      0080
 151              		.align	2
 152              		.p2align 4,,15
 153              		.global	chSysTimerHandlerI
 154              		.thumb
 155              		.thumb_func
 156              		.type	chSysTimerHandlerI, %function
 157              	chSysTimerHandlerI:
 158              	.LFB9:
 159              		.loc 1 133 0
 160              		.cfi_startproc
 161              		@ args = 0, pretend = 0, frame = 8
ARM GAS  C:\Users\z80\AppData\Local\Temp\ccs3Wc12.s 			page 4


 162              		@ frame_needed = 0, uses_anonymous_args = 0
 163 0000 00B5     		push	{lr}
 164              	.LCFI3:
 165              		.cfi_def_cfa_offset 4
 166              		.cfi_offset 14, -4
 167 0002 83B0     		sub	sp, sp, #12
 168              	.LCFI4:
 169              		.cfi_def_cfa_offset 16
 170              		.loc 1 135 0
 171 0004 FFF7FEFF 		bl	chDbgCheckClassI
 172              		.loc 1 139 0
 173 0008 40F20003 		movw	r3, #:lower16:rlist
 174 000c C0F20003 		movt	r3, #:upper16:rlist
 175 0010 9B69     		ldr	r3, [r3, #24]
 176 0012 002B     		cmp	r3, #0
 177 0014 0BDD     		ble	.L5
 178              		.loc 1 141 0
 179 0016 40F20003 		movw	r3, #:lower16:rlist
 180 001a C0F20003 		movt	r3, #:upper16:rlist
 181 001e 9B69     		ldr	r3, [r3, #24]
 182 0020 03F1FF32 		add	r2, r3, #-1
 183 0024 40F20003 		movw	r3, #:lower16:rlist
 184 0028 C0F20003 		movt	r3, #:upper16:rlist
 185 002c 9A61     		str	r2, [r3, #24]
 186              	.L5:
 187              		.loc 1 144 0
 188 002e 40F20003 		movw	r3, #:lower16:rlist
 189 0032 C0F20003 		movt	r3, #:upper16:rlist
 190 0036 DB69     		ldr	r3, [r3, #28]
 191 0038 5A6A     		ldr	r2, [r3, #36]
 192 003a 02F10102 		add	r2, r2, #1
 193 003e 5A62     		str	r2, [r3, #36]
 194              		.loc 1 146 0
 195 0040 40F20003 		movw	r3, #:lower16:vtlist
 196 0044 C0F20003 		movt	r3, #:upper16:vtlist
 197 0048 DB68     		ldr	r3, [r3, #12]
 198 004a 03F10102 		add	r2, r3, #1
 199 004e 40F20003 		movw	r3, #:lower16:vtlist
 200 0052 C0F20003 		movt	r3, #:upper16:vtlist
 201 0056 DA60     		str	r2, [r3, #12]
 202 0058 40F20003 		movw	r3, #:lower16:vtlist
 203 005c C0F20003 		movt	r3, #:upper16:vtlist
 204 0060 1A68     		ldr	r2, [r3, #0]
 205 0062 40F20003 		movw	r3, #:lower16:vtlist
 206 0066 C0F20003 		movt	r3, #:upper16:vtlist
 207 006a 9A42     		cmp	r2, r3
 208 006c 2DD0     		beq	.L4
 209              	.LBB3:
 210              		.loc 1 146 0 is_stmt 0 discriminator 1
 211 006e 40F20003 		movw	r3, #:lower16:vtlist
 212 0072 C0F20003 		movt	r3, #:upper16:vtlist
 213 0076 1B68     		ldr	r3, [r3, #0]
 214 0078 9A68     		ldr	r2, [r3, #8]
 215 007a 02F1FF32 		add	r2, r2, #-1
 216 007e 9A60     		str	r2, [r3, #8]
 217 0080 19E0     		b	.L7
 218              	.L8:
ARM GAS  C:\Users\z80\AppData\Local\Temp\ccs3Wc12.s 			page 5


 219              	.LBB4:
 220              		.loc 1 146 0 discriminator 3
 221 0082 019B     		ldr	r3, [sp, #4]
 222 0084 DB68     		ldr	r3, [r3, #12]
 223 0086 0093     		str	r3, [sp, #0]
 224 0088 019B     		ldr	r3, [sp, #4]
 225 008a 4FF00002 		mov	r2, #0
 226 008e DA60     		str	r2, [r3, #12]
 227 0090 019B     		ldr	r3, [sp, #4]
 228 0092 1A68     		ldr	r2, [r3, #0]
 229 0094 40F20003 		movw	r3, #:lower16:vtlist
 230 0098 C0F20003 		movt	r3, #:upper16:vtlist
 231 009c 5360     		str	r3, [r2, #4]
 232 009e 019B     		ldr	r3, [sp, #4]
 233 00a0 1A68     		ldr	r2, [r3, #0]
 234 00a2 40F20003 		movw	r3, #:lower16:vtlist
 235 00a6 C0F20003 		movt	r3, #:upper16:vtlist
 236 00aa 1A60     		str	r2, [r3, #0]
 237 00ac 019B     		ldr	r3, [sp, #4]
 238 00ae 1A69     		ldr	r2, [r3, #16]
 239 00b0 009B     		ldr	r3, [sp, #0]
 240 00b2 1046     		mov	r0, r2
 241 00b4 9847     		blx	r3
 242              	.L7:
 243              	.LBE4:
 244              		.loc 1 146 0 discriminator 2
 245 00b6 40F20003 		movw	r3, #:lower16:vtlist
 246 00ba C0F20003 		movt	r3, #:upper16:vtlist
 247 00be 1B68     		ldr	r3, [r3, #0]
 248 00c0 0193     		str	r3, [sp, #4]
 249 00c2 019B     		ldr	r3, [sp, #4]
 250 00c4 9B68     		ldr	r3, [r3, #8]
 251 00c6 002B     		cmp	r3, #0
 252 00c8 DBD0     		beq	.L8
 253              	.L4:
 254              	.LBE3:
 255              		.loc 1 150 0 is_stmt 1
 256 00ca 03B0     		add	sp, sp, #12
 257 00cc 00BD     		pop	{pc}
 258              		.cfi_endproc
 259              	.LFE9:
 260              		.size	chSysTimerHandlerI, .-chSysTimerHandlerI
 261 00ce 00BF     		.section	.bss.mainthread.4651,"aw",%nobits
 262              		.align	2
 263              		.type	mainthread.4651, %object
 264              		.size	mainthread.4651, 72
 265              	mainthread.4651:
 266 0000 00000000 		.space	72
 266      00000000 
 266      00000000 
 266      00000000 
 266      00000000 
 267              		.text
 268              	.Letext0:
 269              		.file 2 "c:\\programs\\codesourcery\\2011.03-56\\bin\\../lib/gcc/arm-none-eabi/4.6.3/../../../../a
 270              		.file 3 "../chibios_2.4.x/os/ports/GCC/ARMCMx/chtypes.h"
 271              		.file 4 "../chibios_2.4.x/os/kernel/include/chlists.h"
ARM GAS  C:\Users\z80\AppData\Local\Temp\ccs3Wc12.s 			page 6


 272              		.file 5 "../chibios_2.4.x/os/kernel/include/chthreads.h"
 273              		.file 6 "../chibios_2.4.x/os/ports/GCC/ARMCMx/chcore_v7m.h"
 274              		.file 7 "../chibios_2.4.x/os/kernel/include/chvt.h"
 275              		.file 8 "../chibios_2.4.x/os/kernel/include/chschd.h"
 276              		.file 9 "../chibios_2.4.x/os/kernel/include/chmtx.h"
 277              		.section	.debug_info,"",%progbits
 278              	.Ldebug_info0:
 279 0000 24060000 		.4byte	0x624
 280 0004 0200     		.2byte	0x2
 281 0006 00000000 		.4byte	.Ldebug_abbrev0
 282 000a 04       		.byte	0x4
 283 000b 01       		.uleb128 0x1
 284 000c 68020000 		.4byte	.LASF79
 285 0010 01       		.byte	0x1
 286 0011 B9020000 		.4byte	.LASF80
 287 0015 96000000 		.4byte	.LASF81
 288 0019 00000000 		.4byte	0
 289 001d 00000000 		.4byte	0
 290 0021 00000000 		.4byte	.Ldebug_ranges0+0
 291 0025 00000000 		.4byte	.Ldebug_line0
 292 0029 02       		.uleb128 0x2
 293 002a 04       		.byte	0x4
 294 002b 05       		.byte	0x5
 295 002c 696E7400 		.ascii	"int\000"
 296 0030 03       		.uleb128 0x3
 297 0031 04       		.byte	0x4
 298 0032 07       		.byte	0x7
 299 0033 17010000 		.4byte	.LASF0
 300 0037 03       		.uleb128 0x3
 301 0038 01       		.byte	0x1
 302 0039 06       		.byte	0x6
 303 003a 78000000 		.4byte	.LASF1
 304 003e 04       		.uleb128 0x4
 305 003f 10030000 		.4byte	.LASF5
 306 0043 02       		.byte	0x2
 307 0044 2A       		.byte	0x2a
 308 0045 49000000 		.4byte	0x49
 309 0049 03       		.uleb128 0x3
 310 004a 01       		.byte	0x1
 311 004b 08       		.byte	0x8
 312 004c F1010000 		.4byte	.LASF2
 313 0050 03       		.uleb128 0x3
 314 0051 02       		.byte	0x2
 315 0052 05       		.byte	0x5
 316 0053 09020000 		.4byte	.LASF3
 317 0057 03       		.uleb128 0x3
 318 0058 02       		.byte	0x2
 319 0059 07       		.byte	0x7
 320 005a 46010000 		.4byte	.LASF4
 321 005e 04       		.uleb128 0x4
 322 005f E9010000 		.4byte	.LASF6
 323 0063 02       		.byte	0x2
 324 0064 4F       		.byte	0x4f
 325 0065 69000000 		.4byte	0x69
 326 0069 03       		.uleb128 0x3
 327 006a 04       		.byte	0x4
 328 006b 05       		.byte	0x5
ARM GAS  C:\Users\z80\AppData\Local\Temp\ccs3Wc12.s 			page 7


 329 006c C3000000 		.4byte	.LASF7
 330 0070 04       		.uleb128 0x4
 331 0071 4A020000 		.4byte	.LASF8
 332 0075 02       		.byte	0x2
 333 0076 50       		.byte	0x50
 334 0077 7B000000 		.4byte	0x7b
 335 007b 03       		.uleb128 0x3
 336 007c 04       		.byte	0x4
 337 007d 07       		.byte	0x7
 338 007e 2C010000 		.4byte	.LASF9
 339 0082 03       		.uleb128 0x3
 340 0083 08       		.byte	0x8
 341 0084 05       		.byte	0x5
 342 0085 6A000000 		.4byte	.LASF10
 343 0089 04       		.uleb128 0x4
 344 008a 15000000 		.4byte	.LASF11
 345 008e 02       		.byte	0x2
 346 008f 78       		.byte	0x78
 347 0090 94000000 		.4byte	0x94
 348 0094 03       		.uleb128 0x3
 349 0095 08       		.byte	0x8
 350 0096 07       		.byte	0x7
 351 0097 38000000 		.4byte	.LASF12
 352 009b 04       		.uleb128 0x4
 353 009c 5F010000 		.4byte	.LASF13
 354 00a0 03       		.byte	0x3
 355 00a1 2F       		.byte	0x2f
 356 00a2 3E000000 		.4byte	0x3e
 357 00a6 04       		.uleb128 0x4
 358 00a7 CC000000 		.4byte	.LASF14
 359 00ab 03       		.byte	0x3
 360 00ac 30       		.byte	0x30
 361 00ad 3E000000 		.4byte	0x3e
 362 00b1 04       		.uleb128 0x4
 363 00b2 E1010000 		.4byte	.LASF15
 364 00b6 03       		.byte	0x3
 365 00b7 32       		.byte	0x32
 366 00b8 70000000 		.4byte	0x70
 367 00bc 04       		.uleb128 0x4
 368 00bd 59010000 		.4byte	.LASF16
 369 00c1 03       		.byte	0x3
 370 00c2 33       		.byte	0x33
 371 00c3 5E000000 		.4byte	0x5e
 372 00c7 04       		.uleb128 0x4
 373 00c8 73010000 		.4byte	.LASF17
 374 00cc 03       		.byte	0x3
 375 00cd 35       		.byte	0x35
 376 00ce 70000000 		.4byte	0x70
 377 00d2 04       		.uleb128 0x4
 378 00d3 9B020000 		.4byte	.LASF18
 379 00d7 03       		.byte	0x3
 380 00d8 36       		.byte	0x36
 381 00d9 70000000 		.4byte	0x70
 382 00dd 04       		.uleb128 0x4
 383 00de 06010000 		.4byte	.LASF19
 384 00e2 03       		.byte	0x3
 385 00e3 37       		.byte	0x37
ARM GAS  C:\Users\z80\AppData\Local\Temp\ccs3Wc12.s 			page 8


 386 00e4 5E000000 		.4byte	0x5e
 387 00e8 04       		.uleb128 0x4
 388 00e9 38020000 		.4byte	.LASF20
 389 00ed 04       		.byte	0x4
 390 00ee 2A       		.byte	0x2a
 391 00ef F3000000 		.4byte	0xf3
 392 00f3 05       		.uleb128 0x5
 393 00f4 38020000 		.4byte	.LASF20
 394 00f8 48       		.byte	0x48
 395 00f9 05       		.byte	0x5
 396 00fa 5E       		.byte	0x5e
 397 00fb FC010000 		.4byte	0x1fc
 398 00ff 06       		.uleb128 0x6
 399 0100 29020000 		.4byte	.LASF21
 400 0104 05       		.byte	0x5
 401 0105 5F       		.byte	0x5f
 402 0106 21020000 		.4byte	0x221
 403 010a 02       		.byte	0x2
 404 010b 23       		.byte	0x23
 405 010c 00       		.uleb128 0
 406 010d 06       		.uleb128 0x6
 407 010e DA010000 		.4byte	.LASF22
 408 0112 05       		.byte	0x5
 409 0113 61       		.byte	0x61
 410 0114 21020000 		.4byte	0x221
 411 0118 02       		.byte	0x2
 412 0119 23       		.byte	0x23
 413 011a 04       		.uleb128 0x4
 414 011b 06       		.uleb128 0x6
 415 011c 63000000 		.4byte	.LASF23
 416 0120 05       		.byte	0x5
 417 0121 63       		.byte	0x63
 418 0122 B1000000 		.4byte	0xb1
 419 0126 02       		.byte	0x2
 420 0127 23       		.byte	0x23
 421 0128 08       		.uleb128 0x8
 422 0129 06       		.uleb128 0x6
 423 012a 4A030000 		.4byte	.LASF24
 424 012e 05       		.byte	0x5
 425 012f 64       		.byte	0x64
 426 0130 F9020000 		.4byte	0x2f9
 427 0134 02       		.byte	0x2
 428 0135 23       		.byte	0x23
 429 0136 0C       		.uleb128 0xc
 430 0137 06       		.uleb128 0x6
 431 0138 D5000000 		.4byte	.LASF25
 432 013c 05       		.byte	0x5
 433 013d 66       		.byte	0x66
 434 013e 21020000 		.4byte	0x221
 435 0142 02       		.byte	0x2
 436 0143 23       		.byte	0x23
 437 0144 10       		.uleb128 0x10
 438 0145 06       		.uleb128 0x6
 439 0146 A0010000 		.4byte	.LASF26
 440 014a 05       		.byte	0x5
 441 014b 67       		.byte	0x67
 442 014c 21020000 		.4byte	0x221
ARM GAS  C:\Users\z80\AppData\Local\Temp\ccs3Wc12.s 			page 9


 443 0150 02       		.byte	0x2
 444 0151 23       		.byte	0x23
 445 0152 14       		.uleb128 0x14
 446 0153 06       		.uleb128 0x6
 447 0154 1F030000 		.4byte	.LASF27
 448 0158 05       		.byte	0x5
 449 0159 6E       		.byte	0x6e
 450 015a E1040000 		.4byte	0x4e1
 451 015e 02       		.byte	0x2
 452 015f 23       		.byte	0x23
 453 0160 18       		.uleb128 0x18
 454 0161 06       		.uleb128 0x6
 455 0162 0C010000 		.4byte	.LASF28
 456 0166 05       		.byte	0x5
 457 0167 74       		.byte	0x74
 458 0168 F3040000 		.4byte	0x4f3
 459 016c 02       		.byte	0x2
 460 016d 23       		.byte	0x23
 461 016e 1C       		.uleb128 0x1c
 462 016f 06       		.uleb128 0x6
 463 0170 13020000 		.4byte	.LASF29
 464 0174 05       		.byte	0x5
 465 0175 79       		.byte	0x79
 466 0176 A6000000 		.4byte	0xa6
 467 017a 02       		.byte	0x2
 468 017b 23       		.byte	0x23
 469 017c 20       		.uleb128 0x20
 470 017d 06       		.uleb128 0x6
 471 017e 30020000 		.4byte	.LASF30
 472 0182 05       		.byte	0x5
 473 0183 7D       		.byte	0x7d
 474 0184 9B000000 		.4byte	0x9b
 475 0188 02       		.byte	0x2
 476 0189 23       		.byte	0x23
 477 018a 21       		.uleb128 0x21
 478 018b 06       		.uleb128 0x6
 479 018c E0020000 		.4byte	.LASF31
 480 0190 05       		.byte	0x5
 481 0191 89       		.byte	0x89
 482 0192 DE030000 		.4byte	0x3de
 483 0196 02       		.byte	0x2
 484 0197 23       		.byte	0x23
 485 0198 24       		.uleb128 0x24
 486 0199 07       		.uleb128 0x7
 487 019a 705F7500 		.ascii	"p_u\000"
 488 019e 05       		.byte	0x5
 489 019f AE       		.byte	0xae
 490 01a0 AC040000 		.4byte	0x4ac
 491 01a4 02       		.byte	0x2
 492 01a5 23       		.byte	0x23
 493 01a6 28       		.uleb128 0x28
 494 01a7 06       		.uleb128 0x6
 495 01a8 50030000 		.4byte	.LASF32
 496 01ac 05       		.byte	0x5
 497 01ad B3       		.byte	0xb3
 498 01ae 49020000 		.4byte	0x249
 499 01b2 02       		.byte	0x2
ARM GAS  C:\Users\z80\AppData\Local\Temp\ccs3Wc12.s 			page 10


 500 01b3 23       		.byte	0x23
 501 01b4 2C       		.uleb128 0x2c
 502 01b5 06       		.uleb128 0x6
 503 01b6 EE020000 		.4byte	.LASF33
 504 01ba 05       		.byte	0x5
 505 01bb B9       		.byte	0xb9
 506 01bc 27020000 		.4byte	0x227
 507 01c0 02       		.byte	0x2
 508 01c1 23       		.byte	0x23
 509 01c2 30       		.uleb128 0x30
 510 01c3 06       		.uleb128 0x6
 511 01c4 08000000 		.4byte	.LASF34
 512 01c8 05       		.byte	0x5
 513 01c9 BD       		.byte	0xbd
 514 01ca BC000000 		.4byte	0xbc
 515 01ce 02       		.byte	0x2
 516 01cf 23       		.byte	0x23
 517 01d0 38       		.uleb128 0x38
 518 01d1 06       		.uleb128 0x6
 519 01d2 3F020000 		.4byte	.LASF35
 520 01d6 05       		.byte	0x5
 521 01d7 C3       		.byte	0xc3
 522 01d8 C7000000 		.4byte	0xc7
 523 01dc 02       		.byte	0x2
 524 01dd 23       		.byte	0x23
 525 01de 3C       		.uleb128 0x3c
 526 01df 06       		.uleb128 0x6
 527 01e0 FF010000 		.4byte	.LASF36
 528 01e4 05       		.byte	0x5
 529 01e5 CA       		.byte	0xca
 530 01e6 F9040000 		.4byte	0x4f9
 531 01ea 02       		.byte	0x2
 532 01eb 23       		.byte	0x23
 533 01ec 40       		.uleb128 0x40
 534 01ed 06       		.uleb128 0x6
 535 01ee A5020000 		.4byte	.LASF37
 536 01f2 05       		.byte	0x5
 537 01f3 CE       		.byte	0xce
 538 01f4 B1000000 		.4byte	0xb1
 539 01f8 02       		.byte	0x2
 540 01f9 23       		.byte	0x23
 541 01fa 44       		.uleb128 0x44
 542 01fb 00       		.byte	0
 543 01fc 08       		.uleb128 0x8
 544 01fd 08       		.byte	0x8
 545 01fe 04       		.byte	0x4
 546 01ff 61       		.byte	0x61
 547 0200 21020000 		.4byte	0x221
 548 0204 06       		.uleb128 0x6
 549 0205 29020000 		.4byte	.LASF21
 550 0209 04       		.byte	0x4
 551 020a 62       		.byte	0x62
 552 020b 21020000 		.4byte	0x221
 553 020f 02       		.byte	0x2
 554 0210 23       		.byte	0x23
 555 0211 00       		.uleb128 0
 556 0212 06       		.uleb128 0x6
ARM GAS  C:\Users\z80\AppData\Local\Temp\ccs3Wc12.s 			page 11


 557 0213 DA010000 		.4byte	.LASF22
 558 0217 04       		.byte	0x4
 559 0218 64       		.byte	0x64
 560 0219 21020000 		.4byte	0x221
 561 021d 02       		.byte	0x2
 562 021e 23       		.byte	0x23
 563 021f 04       		.uleb128 0x4
 564 0220 00       		.byte	0
 565 0221 09       		.uleb128 0x9
 566 0222 04       		.byte	0x4
 567 0223 E8000000 		.4byte	0xe8
 568 0227 04       		.uleb128 0x4
 569 0228 AE010000 		.4byte	.LASF38
 570 022c 04       		.byte	0x4
 571 022d 66       		.byte	0x66
 572 022e FC010000 		.4byte	0x1fc
 573 0232 08       		.uleb128 0x8
 574 0233 04       		.byte	0x4
 575 0234 04       		.byte	0x4
 576 0235 6B       		.byte	0x6b
 577 0236 49020000 		.4byte	0x249
 578 023a 06       		.uleb128 0x6
 579 023b 29020000 		.4byte	.LASF21
 580 023f 04       		.byte	0x4
 581 0240 6D       		.byte	0x6d
 582 0241 21020000 		.4byte	0x221
 583 0245 02       		.byte	0x2
 584 0246 23       		.byte	0x23
 585 0247 00       		.uleb128 0
 586 0248 00       		.byte	0
 587 0249 04       		.uleb128 0x4
 588 024a 67010000 		.4byte	.LASF39
 589 024e 04       		.byte	0x4
 590 024f 70       		.byte	0x70
 591 0250 32020000 		.4byte	0x232
 592 0254 04       		.uleb128 0x4
 593 0255 F5000000 		.4byte	.LASF40
 594 0259 06       		.byte	0x6
 595 025a D7       		.byte	0xd7
 596 025b 5F020000 		.4byte	0x25f
 597 025f 0A       		.uleb128 0xa
 598 0260 04       		.byte	0x4
 599 0261 04       		.uleb128 0x4
 600 0262 85010000 		.4byte	.LASF41
 601 0266 06       		.byte	0x6
 602 0267 DD       		.byte	0xdd
 603 0268 89000000 		.4byte	0x89
 604 026c 05       		.uleb128 0x5
 605 026d E7020000 		.4byte	.LASF42
 606 0271 24       		.byte	0x24
 607 0272 06       		.byte	0x6
 608 0273 FE       		.byte	0xfe
 609 0274 F9020000 		.4byte	0x2f9
 610 0278 0B       		.uleb128 0xb
 611 0279 723400   		.ascii	"r4\000"
 612 027c 06       		.byte	0x6
 613 027d 1101     		.2byte	0x111
ARM GAS  C:\Users\z80\AppData\Local\Temp\ccs3Wc12.s 			page 12


 614 027f 54020000 		.4byte	0x254
 615 0283 02       		.byte	0x2
 616 0284 23       		.byte	0x23
 617 0285 00       		.uleb128 0
 618 0286 0B       		.uleb128 0xb
 619 0287 723500   		.ascii	"r5\000"
 620 028a 06       		.byte	0x6
 621 028b 1201     		.2byte	0x112
 622 028d 54020000 		.4byte	0x254
 623 0291 02       		.byte	0x2
 624 0292 23       		.byte	0x23
 625 0293 04       		.uleb128 0x4
 626 0294 0B       		.uleb128 0xb
 627 0295 723600   		.ascii	"r6\000"
 628 0298 06       		.byte	0x6
 629 0299 1301     		.2byte	0x113
 630 029b 54020000 		.4byte	0x254
 631 029f 02       		.byte	0x2
 632 02a0 23       		.byte	0x23
 633 02a1 08       		.uleb128 0x8
 634 02a2 0B       		.uleb128 0xb
 635 02a3 723700   		.ascii	"r7\000"
 636 02a6 06       		.byte	0x6
 637 02a7 1401     		.2byte	0x114
 638 02a9 54020000 		.4byte	0x254
 639 02ad 02       		.byte	0x2
 640 02ae 23       		.byte	0x23
 641 02af 0C       		.uleb128 0xc
 642 02b0 0B       		.uleb128 0xb
 643 02b1 723800   		.ascii	"r8\000"
 644 02b4 06       		.byte	0x6
 645 02b5 1501     		.2byte	0x115
 646 02b7 54020000 		.4byte	0x254
 647 02bb 02       		.byte	0x2
 648 02bc 23       		.byte	0x23
 649 02bd 10       		.uleb128 0x10
 650 02be 0B       		.uleb128 0xb
 651 02bf 723900   		.ascii	"r9\000"
 652 02c2 06       		.byte	0x6
 653 02c3 1601     		.2byte	0x116
 654 02c5 54020000 		.4byte	0x254
 655 02c9 02       		.byte	0x2
 656 02ca 23       		.byte	0x23
 657 02cb 14       		.uleb128 0x14
 658 02cc 0B       		.uleb128 0xb
 659 02cd 72313000 		.ascii	"r10\000"
 660 02d1 06       		.byte	0x6
 661 02d2 1701     		.2byte	0x117
 662 02d4 54020000 		.4byte	0x254
 663 02d8 02       		.byte	0x2
 664 02d9 23       		.byte	0x23
 665 02da 18       		.uleb128 0x18
 666 02db 0B       		.uleb128 0xb
 667 02dc 72313100 		.ascii	"r11\000"
 668 02e0 06       		.byte	0x6
 669 02e1 1801     		.2byte	0x118
 670 02e3 54020000 		.4byte	0x254
ARM GAS  C:\Users\z80\AppData\Local\Temp\ccs3Wc12.s 			page 13


 671 02e7 02       		.byte	0x2
 672 02e8 23       		.byte	0x23
 673 02e9 1C       		.uleb128 0x1c
 674 02ea 0B       		.uleb128 0xb
 675 02eb 6C7200   		.ascii	"lr\000"
 676 02ee 06       		.byte	0x6
 677 02ef 1901     		.2byte	0x119
 678 02f1 54020000 		.4byte	0x254
 679 02f5 02       		.byte	0x2
 680 02f6 23       		.byte	0x23
 681 02f7 20       		.uleb128 0x20
 682 02f8 00       		.byte	0
 683 02f9 0C       		.uleb128 0xc
 684 02fa 3E010000 		.4byte	.LASF43
 685 02fe 04       		.byte	0x4
 686 02ff 06       		.byte	0x6
 687 0300 2301     		.2byte	0x123
 688 0302 16030000 		.4byte	0x316
 689 0306 0B       		.uleb128 0xb
 690 0307 72313300 		.ascii	"r13\000"
 691 030b 06       		.byte	0x6
 692 030c 2401     		.2byte	0x124
 693 030e 16030000 		.4byte	0x316
 694 0312 02       		.byte	0x2
 695 0313 23       		.byte	0x23
 696 0314 00       		.uleb128 0
 697 0315 00       		.byte	0
 698 0316 09       		.uleb128 0x9
 699 0317 04       		.byte	0x4
 700 0318 6C020000 		.4byte	0x26c
 701 031c 04       		.uleb128 0x4
 702 031d B0020000 		.4byte	.LASF44
 703 0321 07       		.byte	0x7
 704 0322 53       		.byte	0x53
 705 0323 27030000 		.4byte	0x327
 706 0327 09       		.uleb128 0x9
 707 0328 04       		.byte	0x4
 708 0329 2D030000 		.4byte	0x32d
 709 032d 0D       		.uleb128 0xd
 710 032e 01       		.byte	0x1
 711 032f 39030000 		.4byte	0x339
 712 0333 0E       		.uleb128 0xe
 713 0334 5F020000 		.4byte	0x25f
 714 0338 00       		.byte	0
 715 0339 04       		.uleb128 0x4
 716 033a 5B020000 		.4byte	.LASF45
 717 033e 07       		.byte	0x7
 718 033f 58       		.byte	0x58
 719 0340 44030000 		.4byte	0x344
 720 0344 05       		.uleb128 0x5
 721 0345 5B020000 		.4byte	.LASF45
 722 0349 14       		.byte	0x14
 723 034a 07       		.byte	0x7
 724 034b 5F       		.byte	0x5f
 725 034c 97030000 		.4byte	0x397
 726 0350 06       		.uleb128 0x6
 727 0351 24010000 		.4byte	.LASF46
ARM GAS  C:\Users\z80\AppData\Local\Temp\ccs3Wc12.s 			page 14


 728 0355 07       		.byte	0x7
 729 0356 60       		.byte	0x60
 730 0357 97030000 		.4byte	0x397
 731 035b 02       		.byte	0x2
 732 035c 23       		.byte	0x23
 733 035d 00       		.uleb128 0
 734 035e 06       		.uleb128 0x6
 735 035f FE000000 		.4byte	.LASF47
 736 0363 07       		.byte	0x7
 737 0364 62       		.byte	0x62
 738 0365 97030000 		.4byte	0x397
 739 0369 02       		.byte	0x2
 740 036a 23       		.byte	0x23
 741 036b 04       		.uleb128 0x4
 742 036c 06       		.uleb128 0x6
 743 036d 90010000 		.4byte	.LASF48
 744 0371 07       		.byte	0x7
 745 0372 64       		.byte	0x64
 746 0373 D2000000 		.4byte	0xd2
 747 0377 02       		.byte	0x2
 748 0378 23       		.byte	0x23
 749 0379 08       		.uleb128 0x8
 750 037a 06       		.uleb128 0x6
 751 037b 98010000 		.4byte	.LASF49
 752 037f 07       		.byte	0x7
 753 0380 65       		.byte	0x65
 754 0381 1C030000 		.4byte	0x31c
 755 0385 02       		.byte	0x2
 756 0386 23       		.byte	0x23
 757 0387 0C       		.uleb128 0xc
 758 0388 06       		.uleb128 0x6
 759 0389 F9020000 		.4byte	.LASF50
 760 038d 07       		.byte	0x7
 761 038e 67       		.byte	0x67
 762 038f 5F020000 		.4byte	0x25f
 763 0393 02       		.byte	0x2
 764 0394 23       		.byte	0x23
 765 0395 10       		.uleb128 0x10
 766 0396 00       		.byte	0
 767 0397 09       		.uleb128 0x9
 768 0398 04       		.byte	0x4
 769 0399 39030000 		.4byte	0x339
 770 039d 08       		.uleb128 0x8
 771 039e 10       		.byte	0x10
 772 039f 07       		.byte	0x7
 773 03a0 71       		.byte	0x71
 774 03a1 DE030000 		.4byte	0x3de
 775 03a5 06       		.uleb128 0x6
 776 03a6 24010000 		.4byte	.LASF46
 777 03aa 07       		.byte	0x7
 778 03ab 72       		.byte	0x72
 779 03ac 97030000 		.4byte	0x397
 780 03b0 02       		.byte	0x2
 781 03b1 23       		.byte	0x23
 782 03b2 00       		.uleb128 0
 783 03b3 06       		.uleb128 0x6
 784 03b4 FE000000 		.4byte	.LASF47
ARM GAS  C:\Users\z80\AppData\Local\Temp\ccs3Wc12.s 			page 15


 785 03b8 07       		.byte	0x7
 786 03b9 74       		.byte	0x74
 787 03ba 97030000 		.4byte	0x397
 788 03be 02       		.byte	0x2
 789 03bf 23       		.byte	0x23
 790 03c0 04       		.uleb128 0x4
 791 03c1 06       		.uleb128 0x6
 792 03c2 90010000 		.4byte	.LASF48
 793 03c6 07       		.byte	0x7
 794 03c7 76       		.byte	0x76
 795 03c8 D2000000 		.4byte	0xd2
 796 03cc 02       		.byte	0x2
 797 03cd 23       		.byte	0x23
 798 03ce 08       		.uleb128 0x8
 799 03cf 06       		.uleb128 0x6
 800 03d0 26030000 		.4byte	.LASF51
 801 03d4 07       		.byte	0x7
 802 03d5 77       		.byte	0x77
 803 03d6 DE030000 		.4byte	0x3de
 804 03da 02       		.byte	0x2
 805 03db 23       		.byte	0x23
 806 03dc 0C       		.uleb128 0xc
 807 03dd 00       		.byte	0
 808 03de 0F       		.uleb128 0xf
 809 03df D2000000 		.4byte	0xd2
 810 03e3 04       		.uleb128 0x4
 811 03e4 31030000 		.4byte	.LASF52
 812 03e8 07       		.byte	0x7
 813 03e9 78       		.byte	0x78
 814 03ea 9D030000 		.4byte	0x39d
 815 03ee 08       		.uleb128 0x8
 816 03ef 20       		.byte	0x20
 817 03f0 08       		.byte	0x8
 818 03f1 5E       		.byte	0x5e
 819 03f2 59040000 		.4byte	0x459
 820 03f6 06       		.uleb128 0x6
 821 03f7 53020000 		.4byte	.LASF53
 822 03fb 08       		.byte	0x8
 823 03fc 5F       		.byte	0x5f
 824 03fd 27020000 		.4byte	0x227
 825 0401 02       		.byte	0x2
 826 0402 23       		.byte	0x23
 827 0403 00       		.uleb128 0
 828 0404 06       		.uleb128 0x6
 829 0405 1B020000 		.4byte	.LASF54
 830 0409 08       		.byte	0x8
 831 040a 60       		.byte	0x60
 832 040b B1000000 		.4byte	0xb1
 833 040f 02       		.byte	0x2
 834 0410 23       		.byte	0x23
 835 0411 08       		.uleb128 0x8
 836 0412 06       		.uleb128 0x6
 837 0413 A8010000 		.4byte	.LASF55
 838 0417 08       		.byte	0x8
 839 0418 62       		.byte	0x62
 840 0419 F9020000 		.4byte	0x2f9
 841 041d 02       		.byte	0x2
ARM GAS  C:\Users\z80\AppData\Local\Temp\ccs3Wc12.s 			page 16


 842 041e 23       		.byte	0x23
 843 041f 0C       		.uleb128 0xc
 844 0420 06       		.uleb128 0x6
 845 0421 ED000000 		.4byte	.LASF56
 846 0425 08       		.byte	0x8
 847 0426 65       		.byte	0x65
 848 0427 21020000 		.4byte	0x221
 849 042b 02       		.byte	0x2
 850 042c 23       		.byte	0x23
 851 042d 10       		.uleb128 0x10
 852 042e 06       		.uleb128 0x6
 853 042f C5010000 		.4byte	.LASF57
 854 0433 08       		.byte	0x8
 855 0434 66       		.byte	0x66
 856 0435 21020000 		.4byte	0x221
 857 0439 02       		.byte	0x2
 858 043a 23       		.byte	0x23
 859 043b 14       		.uleb128 0x14
 860 043c 06       		.uleb128 0x6
 861 043d 38030000 		.4byte	.LASF58
 862 0441 08       		.byte	0x8
 863 0442 6A       		.byte	0x6a
 864 0443 DD000000 		.4byte	0xdd
 865 0447 02       		.byte	0x2
 866 0448 23       		.byte	0x23
 867 0449 18       		.uleb128 0x18
 868 044a 06       		.uleb128 0x6
 869 044b BB010000 		.4byte	.LASF59
 870 044f 08       		.byte	0x8
 871 0450 6C       		.byte	0x6c
 872 0451 21020000 		.4byte	0x221
 873 0455 02       		.byte	0x2
 874 0456 23       		.byte	0x23
 875 0457 1C       		.uleb128 0x1c
 876 0458 00       		.byte	0
 877 0459 04       		.uleb128 0x4
 878 045a 00030000 		.4byte	.LASF60
 879 045e 08       		.byte	0x8
 880 045f 6E       		.byte	0x6e
 881 0460 EE030000 		.4byte	0x3ee
 882 0464 05       		.uleb128 0x5
 883 0465 7F010000 		.4byte	.LASF61
 884 0469 10       		.byte	0x10
 885 046a 09       		.byte	0x9
 886 046b 2C       		.byte	0x2c
 887 046c 9B040000 		.4byte	0x49b
 888 0470 06       		.uleb128 0x6
 889 0471 8E000000 		.4byte	.LASF62
 890 0475 09       		.byte	0x9
 891 0476 2D       		.byte	0x2d
 892 0477 27020000 		.4byte	0x227
 893 047b 02       		.byte	0x2
 894 047c 23       		.byte	0x23
 895 047d 00       		.uleb128 0
 896 047e 06       		.uleb128 0x6
 897 047f 42030000 		.4byte	.LASF63
 898 0483 09       		.byte	0x9
ARM GAS  C:\Users\z80\AppData\Local\Temp\ccs3Wc12.s 			page 17


 899 0484 2F       		.byte	0x2f
 900 0485 21020000 		.4byte	0x221
 901 0489 02       		.byte	0x2
 902 048a 23       		.byte	0x23
 903 048b 08       		.uleb128 0x8
 904 048c 06       		.uleb128 0x6
 905 048d 94020000 		.4byte	.LASF64
 906 0491 09       		.byte	0x9
 907 0492 31       		.byte	0x31
 908 0493 9B040000 		.4byte	0x49b
 909 0497 02       		.byte	0x2
 910 0498 23       		.byte	0x23
 911 0499 0C       		.uleb128 0xc
 912 049a 00       		.byte	0
 913 049b 09       		.uleb128 0x9
 914 049c 04       		.byte	0x4
 915 049d 64040000 		.4byte	0x464
 916 04a1 04       		.uleb128 0x4
 917 04a2 7F010000 		.4byte	.LASF61
 918 04a6 09       		.byte	0x9
 919 04a7 33       		.byte	0x33
 920 04a8 64040000 		.4byte	0x464
 921 04ac 10       		.uleb128 0x10
 922 04ad 04       		.byte	0x4
 923 04ae 05       		.byte	0x5
 924 04af 90       		.byte	0x90
 925 04b0 E1040000 		.4byte	0x4e1
 926 04b4 11       		.uleb128 0x11
 927 04b5 0E000000 		.4byte	.LASF65
 928 04b9 05       		.byte	0x5
 929 04ba 97       		.byte	0x97
 930 04bb BC000000 		.4byte	0xbc
 931 04bf 11       		.uleb128 0x11
 932 04c0 4F000000 		.4byte	.LASF66
 933 04c4 05       		.byte	0x5
 934 04c5 9E       		.byte	0x9e
 935 04c6 BC000000 		.4byte	0xbc
 936 04ca 11       		.uleb128 0x11
 937 04cb 18030000 		.4byte	.LASF67
 938 04cf 05       		.byte	0x5
 939 04d0 A5       		.byte	0xa5
 940 04d1 5F020000 		.4byte	0x25f
 941 04d5 11       		.uleb128 0x11
 942 04d6 22020000 		.4byte	.LASF68
 943 04da 05       		.byte	0x5
 944 04db AC       		.byte	0xac
 945 04dc C7000000 		.4byte	0xc7
 946 04e0 00       		.byte	0
 947 04e1 09       		.uleb128 0x9
 948 04e2 04       		.byte	0x4
 949 04e3 E7040000 		.4byte	0x4e7
 950 04e7 12       		.uleb128 0x12
 951 04e8 EC040000 		.4byte	0x4ec
 952 04ec 03       		.uleb128 0x3
 953 04ed 01       		.byte	0x1
 954 04ee 08       		.byte	0x8
 955 04ef 74020000 		.4byte	.LASF69
ARM GAS  C:\Users\z80\AppData\Local\Temp\ccs3Wc12.s 			page 18


 956 04f3 09       		.uleb128 0x9
 957 04f4 04       		.byte	0x4
 958 04f5 61020000 		.4byte	0x261
 959 04f9 09       		.uleb128 0x9
 960 04fa 04       		.byte	0x4
 961 04fb A1040000 		.4byte	0x4a1
 962 04ff 04       		.uleb128 0x4
 963 0500 00000000 		.4byte	.LASF70
 964 0504 05       		.byte	0x5
 965 0505 DF       		.byte	0xdf
 966 0506 0A050000 		.4byte	0x50a
 967 050a 09       		.uleb128 0x9
 968 050b 04       		.byte	0x4
 969 050c 10050000 		.4byte	0x510
 970 0510 13       		.uleb128 0x13
 971 0511 01       		.byte	0x1
 972 0512 BC000000 		.4byte	0xbc
 973 0516 20050000 		.4byte	0x520
 974 051a 0E       		.uleb128 0xe
 975 051b 5F020000 		.4byte	0x25f
 976 051f 00       		.byte	0
 977 0520 14       		.uleb128 0x14
 978 0521 01       		.byte	0x1
 979 0522 CD010000 		.4byte	.LASF71
 980 0526 01       		.byte	0x1
 981 0527 3B       		.byte	0x3b
 982 0528 01       		.byte	0x1
 983 0529 00000000 		.4byte	.LFB7
 984 052d 1A000000 		.4byte	.LFE7
 985 0531 00000000 		.4byte	.LLST0
 986 0535 46050000 		.4byte	0x546
 987 0539 15       		.uleb128 0x15
 988 053a 7000     		.ascii	"p\000"
 989 053c 01       		.byte	0x1
 990 053d 3B       		.byte	0x3b
 991 053e 5F020000 		.4byte	0x25f
 992 0542 02       		.byte	0x2
 993 0543 91       		.byte	0x91
 994 0544 7C       		.sleb128 -4
 995 0545 00       		.byte	0
 996 0546 14       		.uleb128 0x14
 997 0547 01       		.byte	0x1
 998 0548 84000000 		.4byte	.LASF72
 999 054c 01       		.byte	0x1
 1000 054d 52       		.byte	0x52
 1001 054e 01       		.byte	0x1
 1002 054f 00000000 		.4byte	.LFB8
 1003 0553 A2000000 		.4byte	.LFE8
 1004 0557 20000000 		.4byte	.LLST1
 1005 055b 95050000 		.4byte	0x595
 1006 055f 16       		.uleb128 0x16
 1007 0560 58000000 		.4byte	.LASF73
 1008 0564 01       		.byte	0x1
 1009 0565 53       		.byte	0x53
 1010 0566 E8000000 		.4byte	0xe8
 1011 056a 05       		.byte	0x5
 1012 056b 03       		.byte	0x3
ARM GAS  C:\Users\z80\AppData\Local\Temp\ccs3Wc12.s 			page 19


 1013 056c 00000000 		.4byte	mainthread.4651
 1014 0570 17       		.uleb128 0x17
 1015 0571 79020000 		.4byte	.LASF75
 1016 0575 01       		.byte	0x1
 1017 0576 55       		.byte	0x55
 1018 0577 61020000 		.4byte	0x261
 1019 057b 01       		.byte	0x1
 1020 057c 01       		.byte	0x1
 1021 057d 18       		.uleb128 0x18
 1022 057e 5E000000 		.4byte	.LBB2
 1023 0582 68000000 		.4byte	.LBE2
 1024 0586 19       		.uleb128 0x19
 1025 0587 746D7000 		.ascii	"tmp\000"
 1026 058b 01       		.byte	0x1
 1027 058c 6D       		.byte	0x6d
 1028 058d 70000000 		.4byte	0x70
 1029 0591 01       		.byte	0x1
 1030 0592 53       		.byte	0x53
 1031 0593 00       		.byte	0
 1032 0594 00       		.byte	0
 1033 0595 14       		.uleb128 0x14
 1034 0596 01       		.byte	0x1
 1035 0597 25000000 		.4byte	.LASF74
 1036 059b 01       		.byte	0x1
 1037 059c 85       		.byte	0x85
 1038 059d 01       		.byte	0x1
 1039 059e 00000000 		.4byte	.LFB9
 1040 05a2 CE000000 		.4byte	.LFE9
 1041 05a6 4C000000 		.4byte	.LLST2
 1042 05aa DE050000 		.4byte	0x5de
 1043 05ae 18       		.uleb128 0x18
 1044 05af 6E000000 		.4byte	.LBB3
 1045 05b3 CA000000 		.4byte	.LBE3
 1046 05b7 19       		.uleb128 0x19
 1047 05b8 76747000 		.ascii	"vtp\000"
 1048 05bc 01       		.byte	0x1
 1049 05bd 92       		.byte	0x92
 1050 05be 97030000 		.4byte	0x397
 1051 05c2 02       		.byte	0x2
 1052 05c3 91       		.byte	0x91
 1053 05c4 74       		.sleb128 -12
 1054 05c5 18       		.uleb128 0x18
 1055 05c6 82000000 		.4byte	.LBB4
 1056 05ca B6000000 		.4byte	.LBE4
 1057 05ce 19       		.uleb128 0x19
 1058 05cf 666E00   		.ascii	"fn\000"
 1059 05d2 01       		.byte	0x1
 1060 05d3 92       		.byte	0x92
 1061 05d4 1C030000 		.4byte	0x31c
 1062 05d8 02       		.byte	0x2
 1063 05d9 91       		.byte	0x91
 1064 05da 70       		.sleb128 -16
 1065 05db 00       		.byte	0
 1066 05dc 00       		.byte	0
 1067 05dd 00       		.byte	0
 1068 05de 17       		.uleb128 0x17
 1069 05df 1E000000 		.4byte	.LASF76
ARM GAS  C:\Users\z80\AppData\Local\Temp\ccs3Wc12.s 			page 20


 1070 05e3 07       		.byte	0x7
 1071 05e4 7A       		.byte	0x7a
 1072 05e5 E3030000 		.4byte	0x3e3
 1073 05e9 01       		.byte	0x1
 1074 05ea 01       		.byte	0x1
 1075 05eb 17       		.uleb128 0x17
 1076 05ec 0A030000 		.4byte	.LASF77
 1077 05f0 08       		.byte	0x8
 1078 05f1 72       		.byte	0x72
 1079 05f2 59040000 		.4byte	0x459
 1080 05f6 01       		.byte	0x1
 1081 05f7 01       		.byte	0x1
 1082 05f8 1A       		.uleb128 0x1a
 1083 05f9 61020000 		.4byte	0x261
 1084 05fd 08060000 		.4byte	0x608
 1085 0601 1B       		.uleb128 0x1b
 1086 0602 30000000 		.4byte	0x30
 1087 0606 17       		.byte	0x17
 1088 0607 00       		.byte	0
 1089 0608 1C       		.uleb128 0x1c
 1090 0609 DD000000 		.4byte	.LASF78
 1091 060d 01       		.byte	0x1
 1092 060e 2F       		.byte	0x2f
 1093 060f F8050000 		.4byte	0x5f8
 1094 0613 01       		.byte	0x1
 1095 0614 05       		.byte	0x5
 1096 0615 03       		.byte	0x3
 1097 0616 00000000 		.4byte	_idle_thread_wa
 1098 061a 17       		.uleb128 0x17
 1099 061b 79020000 		.4byte	.LASF75
 1100 061f 01       		.byte	0x1
 1101 0620 55       		.byte	0x55
 1102 0621 61020000 		.4byte	0x261
 1103 0625 01       		.byte	0x1
 1104 0626 01       		.byte	0x1
 1105 0627 00       		.byte	0
 1106              		.section	.debug_abbrev,"",%progbits
 1107              	.Ldebug_abbrev0:
 1108 0000 01       		.uleb128 0x1
 1109 0001 11       		.uleb128 0x11
 1110 0002 01       		.byte	0x1
 1111 0003 25       		.uleb128 0x25
 1112 0004 0E       		.uleb128 0xe
 1113 0005 13       		.uleb128 0x13
 1114 0006 0B       		.uleb128 0xb
 1115 0007 03       		.uleb128 0x3
 1116 0008 0E       		.uleb128 0xe
 1117 0009 1B       		.uleb128 0x1b
 1118 000a 0E       		.uleb128 0xe
 1119 000b 11       		.uleb128 0x11
 1120 000c 01       		.uleb128 0x1
 1121 000d 52       		.uleb128 0x52
 1122 000e 01       		.uleb128 0x1
 1123 000f 55       		.uleb128 0x55
 1124 0010 06       		.uleb128 0x6
 1125 0011 10       		.uleb128 0x10
 1126 0012 06       		.uleb128 0x6
ARM GAS  C:\Users\z80\AppData\Local\Temp\ccs3Wc12.s 			page 21


 1127 0013 00       		.byte	0
 1128 0014 00       		.byte	0
 1129 0015 02       		.uleb128 0x2
 1130 0016 24       		.uleb128 0x24
 1131 0017 00       		.byte	0
 1132 0018 0B       		.uleb128 0xb
 1133 0019 0B       		.uleb128 0xb
 1134 001a 3E       		.uleb128 0x3e
 1135 001b 0B       		.uleb128 0xb
 1136 001c 03       		.uleb128 0x3
 1137 001d 08       		.uleb128 0x8
 1138 001e 00       		.byte	0
 1139 001f 00       		.byte	0
 1140 0020 03       		.uleb128 0x3
 1141 0021 24       		.uleb128 0x24
 1142 0022 00       		.byte	0
 1143 0023 0B       		.uleb128 0xb
 1144 0024 0B       		.uleb128 0xb
 1145 0025 3E       		.uleb128 0x3e
 1146 0026 0B       		.uleb128 0xb
 1147 0027 03       		.uleb128 0x3
 1148 0028 0E       		.uleb128 0xe
 1149 0029 00       		.byte	0
 1150 002a 00       		.byte	0
 1151 002b 04       		.uleb128 0x4
 1152 002c 16       		.uleb128 0x16
 1153 002d 00       		.byte	0
 1154 002e 03       		.uleb128 0x3
 1155 002f 0E       		.uleb128 0xe
 1156 0030 3A       		.uleb128 0x3a
 1157 0031 0B       		.uleb128 0xb
 1158 0032 3B       		.uleb128 0x3b
 1159 0033 0B       		.uleb128 0xb
 1160 0034 49       		.uleb128 0x49
 1161 0035 13       		.uleb128 0x13
 1162 0036 00       		.byte	0
 1163 0037 00       		.byte	0
 1164 0038 05       		.uleb128 0x5
 1165 0039 13       		.uleb128 0x13
 1166 003a 01       		.byte	0x1
 1167 003b 03       		.uleb128 0x3
 1168 003c 0E       		.uleb128 0xe
 1169 003d 0B       		.uleb128 0xb
 1170 003e 0B       		.uleb128 0xb
 1171 003f 3A       		.uleb128 0x3a
 1172 0040 0B       		.uleb128 0xb
 1173 0041 3B       		.uleb128 0x3b
 1174 0042 0B       		.uleb128 0xb
 1175 0043 01       		.uleb128 0x1
 1176 0044 13       		.uleb128 0x13
 1177 0045 00       		.byte	0
 1178 0046 00       		.byte	0
 1179 0047 06       		.uleb128 0x6
 1180 0048 0D       		.uleb128 0xd
 1181 0049 00       		.byte	0
 1182 004a 03       		.uleb128 0x3
 1183 004b 0E       		.uleb128 0xe
ARM GAS  C:\Users\z80\AppData\Local\Temp\ccs3Wc12.s 			page 22


 1184 004c 3A       		.uleb128 0x3a
 1185 004d 0B       		.uleb128 0xb
 1186 004e 3B       		.uleb128 0x3b
 1187 004f 0B       		.uleb128 0xb
 1188 0050 49       		.uleb128 0x49
 1189 0051 13       		.uleb128 0x13
 1190 0052 38       		.uleb128 0x38
 1191 0053 0A       		.uleb128 0xa
 1192 0054 00       		.byte	0
 1193 0055 00       		.byte	0
 1194 0056 07       		.uleb128 0x7
 1195 0057 0D       		.uleb128 0xd
 1196 0058 00       		.byte	0
 1197 0059 03       		.uleb128 0x3
 1198 005a 08       		.uleb128 0x8
 1199 005b 3A       		.uleb128 0x3a
 1200 005c 0B       		.uleb128 0xb
 1201 005d 3B       		.uleb128 0x3b
 1202 005e 0B       		.uleb128 0xb
 1203 005f 49       		.uleb128 0x49
 1204 0060 13       		.uleb128 0x13
 1205 0061 38       		.uleb128 0x38
 1206 0062 0A       		.uleb128 0xa
 1207 0063 00       		.byte	0
 1208 0064 00       		.byte	0
 1209 0065 08       		.uleb128 0x8
 1210 0066 13       		.uleb128 0x13
 1211 0067 01       		.byte	0x1
 1212 0068 0B       		.uleb128 0xb
 1213 0069 0B       		.uleb128 0xb
 1214 006a 3A       		.uleb128 0x3a
 1215 006b 0B       		.uleb128 0xb
 1216 006c 3B       		.uleb128 0x3b
 1217 006d 0B       		.uleb128 0xb
 1218 006e 01       		.uleb128 0x1
 1219 006f 13       		.uleb128 0x13
 1220 0070 00       		.byte	0
 1221 0071 00       		.byte	0
 1222 0072 09       		.uleb128 0x9
 1223 0073 0F       		.uleb128 0xf
 1224 0074 00       		.byte	0
 1225 0075 0B       		.uleb128 0xb
 1226 0076 0B       		.uleb128 0xb
 1227 0077 49       		.uleb128 0x49
 1228 0078 13       		.uleb128 0x13
 1229 0079 00       		.byte	0
 1230 007a 00       		.byte	0
 1231 007b 0A       		.uleb128 0xa
 1232 007c 0F       		.uleb128 0xf
 1233 007d 00       		.byte	0
 1234 007e 0B       		.uleb128 0xb
 1235 007f 0B       		.uleb128 0xb
 1236 0080 00       		.byte	0
 1237 0081 00       		.byte	0
 1238 0082 0B       		.uleb128 0xb
 1239 0083 0D       		.uleb128 0xd
 1240 0084 00       		.byte	0
ARM GAS  C:\Users\z80\AppData\Local\Temp\ccs3Wc12.s 			page 23


 1241 0085 03       		.uleb128 0x3
 1242 0086 08       		.uleb128 0x8
 1243 0087 3A       		.uleb128 0x3a
 1244 0088 0B       		.uleb128 0xb
 1245 0089 3B       		.uleb128 0x3b
 1246 008a 05       		.uleb128 0x5
 1247 008b 49       		.uleb128 0x49
 1248 008c 13       		.uleb128 0x13
 1249 008d 38       		.uleb128 0x38
 1250 008e 0A       		.uleb128 0xa
 1251 008f 00       		.byte	0
 1252 0090 00       		.byte	0
 1253 0091 0C       		.uleb128 0xc
 1254 0092 13       		.uleb128 0x13
 1255 0093 01       		.byte	0x1
 1256 0094 03       		.uleb128 0x3
 1257 0095 0E       		.uleb128 0xe
 1258 0096 0B       		.uleb128 0xb
 1259 0097 0B       		.uleb128 0xb
 1260 0098 3A       		.uleb128 0x3a
 1261 0099 0B       		.uleb128 0xb
 1262 009a 3B       		.uleb128 0x3b
 1263 009b 05       		.uleb128 0x5
 1264 009c 01       		.uleb128 0x1
 1265 009d 13       		.uleb128 0x13
 1266 009e 00       		.byte	0
 1267 009f 00       		.byte	0
 1268 00a0 0D       		.uleb128 0xd
 1269 00a1 15       		.uleb128 0x15
 1270 00a2 01       		.byte	0x1
 1271 00a3 27       		.uleb128 0x27
 1272 00a4 0C       		.uleb128 0xc
 1273 00a5 01       		.uleb128 0x1
 1274 00a6 13       		.uleb128 0x13
 1275 00a7 00       		.byte	0
 1276 00a8 00       		.byte	0
 1277 00a9 0E       		.uleb128 0xe
 1278 00aa 05       		.uleb128 0x5
 1279 00ab 00       		.byte	0
 1280 00ac 49       		.uleb128 0x49
 1281 00ad 13       		.uleb128 0x13
 1282 00ae 00       		.byte	0
 1283 00af 00       		.byte	0
 1284 00b0 0F       		.uleb128 0xf
 1285 00b1 35       		.uleb128 0x35
 1286 00b2 00       		.byte	0
 1287 00b3 49       		.uleb128 0x49
 1288 00b4 13       		.uleb128 0x13
 1289 00b5 00       		.byte	0
 1290 00b6 00       		.byte	0
 1291 00b7 10       		.uleb128 0x10
 1292 00b8 17       		.uleb128 0x17
 1293 00b9 01       		.byte	0x1
 1294 00ba 0B       		.uleb128 0xb
 1295 00bb 0B       		.uleb128 0xb
 1296 00bc 3A       		.uleb128 0x3a
 1297 00bd 0B       		.uleb128 0xb
ARM GAS  C:\Users\z80\AppData\Local\Temp\ccs3Wc12.s 			page 24


 1298 00be 3B       		.uleb128 0x3b
 1299 00bf 0B       		.uleb128 0xb
 1300 00c0 01       		.uleb128 0x1
 1301 00c1 13       		.uleb128 0x13
 1302 00c2 00       		.byte	0
 1303 00c3 00       		.byte	0
 1304 00c4 11       		.uleb128 0x11
 1305 00c5 0D       		.uleb128 0xd
 1306 00c6 00       		.byte	0
 1307 00c7 03       		.uleb128 0x3
 1308 00c8 0E       		.uleb128 0xe
 1309 00c9 3A       		.uleb128 0x3a
 1310 00ca 0B       		.uleb128 0xb
 1311 00cb 3B       		.uleb128 0x3b
 1312 00cc 0B       		.uleb128 0xb
 1313 00cd 49       		.uleb128 0x49
 1314 00ce 13       		.uleb128 0x13
 1315 00cf 00       		.byte	0
 1316 00d0 00       		.byte	0
 1317 00d1 12       		.uleb128 0x12
 1318 00d2 26       		.uleb128 0x26
 1319 00d3 00       		.byte	0
 1320 00d4 49       		.uleb128 0x49
 1321 00d5 13       		.uleb128 0x13
 1322 00d6 00       		.byte	0
 1323 00d7 00       		.byte	0
 1324 00d8 13       		.uleb128 0x13
 1325 00d9 15       		.uleb128 0x15
 1326 00da 01       		.byte	0x1
 1327 00db 27       		.uleb128 0x27
 1328 00dc 0C       		.uleb128 0xc
 1329 00dd 49       		.uleb128 0x49
 1330 00de 13       		.uleb128 0x13
 1331 00df 01       		.uleb128 0x1
 1332 00e0 13       		.uleb128 0x13
 1333 00e1 00       		.byte	0
 1334 00e2 00       		.byte	0
 1335 00e3 14       		.uleb128 0x14
 1336 00e4 2E       		.uleb128 0x2e
 1337 00e5 01       		.byte	0x1
 1338 00e6 3F       		.uleb128 0x3f
 1339 00e7 0C       		.uleb128 0xc
 1340 00e8 03       		.uleb128 0x3
 1341 00e9 0E       		.uleb128 0xe
 1342 00ea 3A       		.uleb128 0x3a
 1343 00eb 0B       		.uleb128 0xb
 1344 00ec 3B       		.uleb128 0x3b
 1345 00ed 0B       		.uleb128 0xb
 1346 00ee 27       		.uleb128 0x27
 1347 00ef 0C       		.uleb128 0xc
 1348 00f0 11       		.uleb128 0x11
 1349 00f1 01       		.uleb128 0x1
 1350 00f2 12       		.uleb128 0x12
 1351 00f3 01       		.uleb128 0x1
 1352 00f4 40       		.uleb128 0x40
 1353 00f5 06       		.uleb128 0x6
 1354 00f6 01       		.uleb128 0x1
ARM GAS  C:\Users\z80\AppData\Local\Temp\ccs3Wc12.s 			page 25


 1355 00f7 13       		.uleb128 0x13
 1356 00f8 00       		.byte	0
 1357 00f9 00       		.byte	0
 1358 00fa 15       		.uleb128 0x15
 1359 00fb 05       		.uleb128 0x5
 1360 00fc 00       		.byte	0
 1361 00fd 03       		.uleb128 0x3
 1362 00fe 08       		.uleb128 0x8
 1363 00ff 3A       		.uleb128 0x3a
 1364 0100 0B       		.uleb128 0xb
 1365 0101 3B       		.uleb128 0x3b
 1366 0102 0B       		.uleb128 0xb
 1367 0103 49       		.uleb128 0x49
 1368 0104 13       		.uleb128 0x13
 1369 0105 02       		.uleb128 0x2
 1370 0106 0A       		.uleb128 0xa
 1371 0107 00       		.byte	0
 1372 0108 00       		.byte	0
 1373 0109 16       		.uleb128 0x16
 1374 010a 34       		.uleb128 0x34
 1375 010b 00       		.byte	0
 1376 010c 03       		.uleb128 0x3
 1377 010d 0E       		.uleb128 0xe
 1378 010e 3A       		.uleb128 0x3a
 1379 010f 0B       		.uleb128 0xb
 1380 0110 3B       		.uleb128 0x3b
 1381 0111 0B       		.uleb128 0xb
 1382 0112 49       		.uleb128 0x49
 1383 0113 13       		.uleb128 0x13
 1384 0114 02       		.uleb128 0x2
 1385 0115 0A       		.uleb128 0xa
 1386 0116 00       		.byte	0
 1387 0117 00       		.byte	0
 1388 0118 17       		.uleb128 0x17
 1389 0119 34       		.uleb128 0x34
 1390 011a 00       		.byte	0
 1391 011b 03       		.uleb128 0x3
 1392 011c 0E       		.uleb128 0xe
 1393 011d 3A       		.uleb128 0x3a
 1394 011e 0B       		.uleb128 0xb
 1395 011f 3B       		.uleb128 0x3b
 1396 0120 0B       		.uleb128 0xb
 1397 0121 49       		.uleb128 0x49
 1398 0122 13       		.uleb128 0x13
 1399 0123 3F       		.uleb128 0x3f
 1400 0124 0C       		.uleb128 0xc
 1401 0125 3C       		.uleb128 0x3c
 1402 0126 0C       		.uleb128 0xc
 1403 0127 00       		.byte	0
 1404 0128 00       		.byte	0
 1405 0129 18       		.uleb128 0x18
 1406 012a 0B       		.uleb128 0xb
 1407 012b 01       		.byte	0x1
 1408 012c 11       		.uleb128 0x11
 1409 012d 01       		.uleb128 0x1
 1410 012e 12       		.uleb128 0x12
 1411 012f 01       		.uleb128 0x1
ARM GAS  C:\Users\z80\AppData\Local\Temp\ccs3Wc12.s 			page 26


 1412 0130 00       		.byte	0
 1413 0131 00       		.byte	0
 1414 0132 19       		.uleb128 0x19
 1415 0133 34       		.uleb128 0x34
 1416 0134 00       		.byte	0
 1417 0135 03       		.uleb128 0x3
 1418 0136 08       		.uleb128 0x8
 1419 0137 3A       		.uleb128 0x3a
 1420 0138 0B       		.uleb128 0xb
 1421 0139 3B       		.uleb128 0x3b
 1422 013a 0B       		.uleb128 0xb
 1423 013b 49       		.uleb128 0x49
 1424 013c 13       		.uleb128 0x13
 1425 013d 02       		.uleb128 0x2
 1426 013e 0A       		.uleb128 0xa
 1427 013f 00       		.byte	0
 1428 0140 00       		.byte	0
 1429 0141 1A       		.uleb128 0x1a
 1430 0142 01       		.uleb128 0x1
 1431 0143 01       		.byte	0x1
 1432 0144 49       		.uleb128 0x49
 1433 0145 13       		.uleb128 0x13
 1434 0146 01       		.uleb128 0x1
 1435 0147 13       		.uleb128 0x13
 1436 0148 00       		.byte	0
 1437 0149 00       		.byte	0
 1438 014a 1B       		.uleb128 0x1b
 1439 014b 21       		.uleb128 0x21
 1440 014c 00       		.byte	0
 1441 014d 49       		.uleb128 0x49
 1442 014e 13       		.uleb128 0x13
 1443 014f 2F       		.uleb128 0x2f
 1444 0150 0B       		.uleb128 0xb
 1445 0151 00       		.byte	0
 1446 0152 00       		.byte	0
 1447 0153 1C       		.uleb128 0x1c
 1448 0154 34       		.uleb128 0x34
 1449 0155 00       		.byte	0
 1450 0156 03       		.uleb128 0x3
 1451 0157 0E       		.uleb128 0xe
 1452 0158 3A       		.uleb128 0x3a
 1453 0159 0B       		.uleb128 0xb
 1454 015a 3B       		.uleb128 0x3b
 1455 015b 0B       		.uleb128 0xb
 1456 015c 49       		.uleb128 0x49
 1457 015d 13       		.uleb128 0x13
 1458 015e 3F       		.uleb128 0x3f
 1459 015f 0C       		.uleb128 0xc
 1460 0160 02       		.uleb128 0x2
 1461 0161 0A       		.uleb128 0xa
 1462 0162 00       		.byte	0
 1463 0163 00       		.byte	0
 1464 0164 00       		.byte	0
 1465              		.section	.debug_loc,"",%progbits
 1466              	.Ldebug_loc0:
 1467              	.LLST0:
 1468 0000 00000000 		.4byte	.LFB7
ARM GAS  C:\Users\z80\AppData\Local\Temp\ccs3Wc12.s 			page 27


 1469 0004 02000000 		.4byte	.LCFI0
 1470 0008 0200     		.2byte	0x2
 1471 000a 7D       		.byte	0x7d
 1472 000b 00       		.sleb128 0
 1473 000c 02000000 		.4byte	.LCFI0
 1474 0010 1A000000 		.4byte	.LFE7
 1475 0014 0200     		.2byte	0x2
 1476 0016 7D       		.byte	0x7d
 1477 0017 08       		.sleb128 8
 1478 0018 00000000 		.4byte	0
 1479 001c 00000000 		.4byte	0
 1480              	.LLST1:
 1481 0020 00000000 		.4byte	.LFB8
 1482 0024 02000000 		.4byte	.LCFI1
 1483 0028 0200     		.2byte	0x2
 1484 002a 7D       		.byte	0x7d
 1485 002b 00       		.sleb128 0
 1486 002c 02000000 		.4byte	.LCFI1
 1487 0030 04000000 		.4byte	.LCFI2
 1488 0034 0200     		.2byte	0x2
 1489 0036 7D       		.byte	0x7d
 1490 0037 04       		.sleb128 4
 1491 0038 04000000 		.4byte	.LCFI2
 1492 003c A2000000 		.4byte	.LFE8
 1493 0040 0200     		.2byte	0x2
 1494 0042 7D       		.byte	0x7d
 1495 0043 10       		.sleb128 16
 1496 0044 00000000 		.4byte	0
 1497 0048 00000000 		.4byte	0
 1498              	.LLST2:
 1499 004c 00000000 		.4byte	.LFB9
 1500 0050 02000000 		.4byte	.LCFI3
 1501 0054 0200     		.2byte	0x2
 1502 0056 7D       		.byte	0x7d
 1503 0057 00       		.sleb128 0
 1504 0058 02000000 		.4byte	.LCFI3
 1505 005c 04000000 		.4byte	.LCFI4
 1506 0060 0200     		.2byte	0x2
 1507 0062 7D       		.byte	0x7d
 1508 0063 04       		.sleb128 4
 1509 0064 04000000 		.4byte	.LCFI4
 1510 0068 CE000000 		.4byte	.LFE9
 1511 006c 0200     		.2byte	0x2
 1512 006e 7D       		.byte	0x7d
 1513 006f 10       		.sleb128 16
 1514 0070 00000000 		.4byte	0
 1515 0074 00000000 		.4byte	0
 1516              		.section	.debug_aranges,"",%progbits
 1517 0000 2C000000 		.4byte	0x2c
 1518 0004 0200     		.2byte	0x2
 1519 0006 00000000 		.4byte	.Ldebug_info0
 1520 000a 04       		.byte	0x4
 1521 000b 00       		.byte	0
 1522 000c 0000     		.2byte	0
 1523 000e 0000     		.2byte	0
 1524 0010 00000000 		.4byte	.LFB7
 1525 0014 1A000000 		.4byte	.LFE7-.LFB7
ARM GAS  C:\Users\z80\AppData\Local\Temp\ccs3Wc12.s 			page 28


 1526 0018 00000000 		.4byte	.LFB8
 1527 001c A2000000 		.4byte	.LFE8-.LFB8
 1528 0020 00000000 		.4byte	.LFB9
 1529 0024 CE000000 		.4byte	.LFE9-.LFB9
 1530 0028 00000000 		.4byte	0
 1531 002c 00000000 		.4byte	0
 1532              		.section	.debug_ranges,"",%progbits
 1533              	.Ldebug_ranges0:
 1534 0000 00000000 		.4byte	.LFB7
 1535 0004 1A000000 		.4byte	.LFE7
 1536 0008 00000000 		.4byte	.LFB8
 1537 000c A2000000 		.4byte	.LFE8
 1538 0010 00000000 		.4byte	.LFB9
 1539 0014 CE000000 		.4byte	.LFE9
 1540 0018 00000000 		.4byte	0
 1541 001c 00000000 		.4byte	0
 1542              		.section	.debug_line,"",%progbits
 1543              	.Ldebug_line0:
 1544 0000 B5010000 		.section	.debug_str,"MS",%progbits,1
 1544      02005401 
 1544      00000201 
 1544      FB0E0D00 
 1544      01010101 
 1545              	.LASF70:
 1546 0000 7466756E 		.ascii	"tfunc_t\000"
 1546      635F7400 
 1547              	.LASF34:
 1548 0008 705F6D73 		.ascii	"p_msg\000"
 1548      6700
 1549              	.LASF65:
 1550 000e 7264796D 		.ascii	"rdymsg\000"
 1550      736700
 1551              	.LASF11:
 1552 0015 75696E74 		.ascii	"uint64_t\000"
 1552      36345F74 
 1552      00
 1553              	.LASF76:
 1554 001e 76746C69 		.ascii	"vtlist\000"
 1554      737400
 1555              	.LASF74:
 1556 0025 63685379 		.ascii	"chSysTimerHandlerI\000"
 1556      7354696D 
 1556      65724861 
 1556      6E646C65 
 1556      724900
 1557              	.LASF12:
 1558 0038 6C6F6E67 		.ascii	"long long unsigned int\000"
 1558      206C6F6E 
 1558      6720756E 
 1558      7369676E 
 1558      65642069 
 1559              	.LASF66:
 1560 004f 65786974 		.ascii	"exitcode\000"
 1560      636F6465 
 1560      00
 1561              	.LASF73:
 1562 0058 6D61696E 		.ascii	"mainthread\000"
ARM GAS  C:\Users\z80\AppData\Local\Temp\ccs3Wc12.s 			page 29


 1562      74687265 
 1562      616400
 1563              	.LASF23:
 1564 0063 705F7072 		.ascii	"p_prio\000"
 1564      696F00
 1565              	.LASF10:
 1566 006a 6C6F6E67 		.ascii	"long long int\000"
 1566      206C6F6E 
 1566      6720696E 
 1566      7400
 1567              	.LASF1:
 1568 0078 7369676E 		.ascii	"signed char\000"
 1568      65642063 
 1568      68617200 
 1569              	.LASF72:
 1570 0084 63685379 		.ascii	"chSysInit\000"
 1570      73496E69 
 1570      7400
 1571              	.LASF62:
 1572 008e 6D5F7175 		.ascii	"m_queue\000"
 1572      65756500 
 1573              	.LASF81:
 1574 0096 433A5C70 		.ascii	"C:\\projects\\digitizer.git\\firmware\\digitizer\000"
 1574      726F6A65 
 1574      6374735C 
 1574      64696769 
 1574      74697A65 
 1575              	.LASF7:
 1576 00c3 6C6F6E67 		.ascii	"long int\000"
 1576      20696E74 
 1576      00
 1577              	.LASF14:
 1578 00cc 74737461 		.ascii	"tstate_t\000"
 1578      74655F74 
 1578      00
 1579              	.LASF25:
 1580 00d5 705F6E65 		.ascii	"p_newer\000"
 1580      77657200 
 1581              	.LASF78:
 1582 00dd 5F69646C 		.ascii	"_idle_thread_wa\000"
 1582      655F7468 
 1582      72656164 
 1582      5F776100 
 1583              	.LASF56:
 1584 00ed 725F6E65 		.ascii	"r_newer\000"
 1584      77657200 
 1585              	.LASF40:
 1586 00f5 72656761 		.ascii	"regarm_t\000"
 1586      726D5F74 
 1586      00
 1587              	.LASF47:
 1588 00fe 76745F70 		.ascii	"vt_prev\000"
 1588      72657600 
 1589              	.LASF19:
 1590 0106 636E745F 		.ascii	"cnt_t\000"
 1590      7400
 1591              	.LASF28:
ARM GAS  C:\Users\z80\AppData\Local\Temp\ccs3Wc12.s 			page 30


 1592 010c 705F7374 		.ascii	"p_stklimit\000"
 1592      6B6C696D 
 1592      697400
 1593              	.LASF0:
 1594 0117 756E7369 		.ascii	"unsigned int\000"
 1594      676E6564 
 1594      20696E74 
 1594      00
 1595              	.LASF46:
 1596 0124 76745F6E 		.ascii	"vt_next\000"
 1596      65787400 
 1597              	.LASF9:
 1598 012c 6C6F6E67 		.ascii	"long unsigned int\000"
 1598      20756E73 
 1598      69676E65 
 1598      6420696E 
 1598      7400
 1599              	.LASF43:
 1600 013e 636F6E74 		.ascii	"context\000"
 1600      65787400 
 1601              	.LASF4:
 1602 0146 73686F72 		.ascii	"short unsigned int\000"
 1602      7420756E 
 1602      7369676E 
 1602      65642069 
 1602      6E7400
 1603              	.LASF16:
 1604 0159 6D73675F 		.ascii	"msg_t\000"
 1604      7400
 1605              	.LASF13:
 1606 015f 746D6F64 		.ascii	"tmode_t\000"
 1606      655F7400 
 1607              	.LASF39:
 1608 0167 54687265 		.ascii	"ThreadsList\000"
 1608      6164734C 
 1608      69737400 
 1609              	.LASF17:
 1610 0173 6576656E 		.ascii	"eventmask_t\000"
 1610      746D6173 
 1610      6B5F7400 
 1611              	.LASF61:
 1612 017f 4D757465 		.ascii	"Mutex\000"
 1612      7800
 1613              	.LASF41:
 1614 0185 73746B61 		.ascii	"stkalign_t\000"
 1614      6C69676E 
 1614      5F7400
 1615              	.LASF48:
 1616 0190 76745F74 		.ascii	"vt_time\000"
 1616      696D6500 
 1617              	.LASF49:
 1618 0198 76745F66 		.ascii	"vt_func\000"
 1618      756E6300 
 1619              	.LASF26:
 1620 01a0 705F6F6C 		.ascii	"p_older\000"
 1620      64657200 
 1621              	.LASF55:
ARM GAS  C:\Users\z80\AppData\Local\Temp\ccs3Wc12.s 			page 31


 1622 01a8 725F6374 		.ascii	"r_ctx\000"
 1622      7800
 1623              	.LASF38:
 1624 01ae 54687265 		.ascii	"ThreadsQueue\000"
 1624      61647351 
 1624      75657565 
 1624      00
 1625              	.LASF59:
 1626 01bb 725F6375 		.ascii	"r_current\000"
 1626      7272656E 
 1626      7400
 1627              	.LASF57:
 1628 01c5 725F6F6C 		.ascii	"r_older\000"
 1628      64657200 
 1629              	.LASF71:
 1630 01cd 5F69646C 		.ascii	"_idle_thread\000"
 1630      655F7468 
 1630      72656164 
 1630      00
 1631              	.LASF22:
 1632 01da 705F7072 		.ascii	"p_prev\000"
 1632      657600
 1633              	.LASF15:
 1634 01e1 74707269 		.ascii	"tprio_t\000"
 1634      6F5F7400 
 1635              	.LASF6:
 1636 01e9 696E7433 		.ascii	"int32_t\000"
 1636      325F7400 
 1637              	.LASF2:
 1638 01f1 756E7369 		.ascii	"unsigned char\000"
 1638      676E6564 
 1638      20636861 
 1638      7200
 1639              	.LASF36:
 1640 01ff 705F6D74 		.ascii	"p_mtxlist\000"
 1640      786C6973 
 1640      7400
 1641              	.LASF3:
 1642 0209 73686F72 		.ascii	"short int\000"
 1642      7420696E 
 1642      7400
 1643              	.LASF29:
 1644 0213 705F7374 		.ascii	"p_state\000"
 1644      61746500 
 1645              	.LASF54:
 1646 021b 725F7072 		.ascii	"r_prio\000"
 1646      696F00
 1647              	.LASF68:
 1648 0222 65776D61 		.ascii	"ewmask\000"
 1648      736B00
 1649              	.LASF21:
 1650 0229 705F6E65 		.ascii	"p_next\000"
 1650      787400
 1651              	.LASF30:
 1652 0230 705F666C 		.ascii	"p_flags\000"
 1652      61677300 
 1653              	.LASF20:
ARM GAS  C:\Users\z80\AppData\Local\Temp\ccs3Wc12.s 			page 32


 1654 0238 54687265 		.ascii	"Thread\000"
 1654      616400
 1655              	.LASF35:
 1656 023f 705F6570 		.ascii	"p_epending\000"
 1656      656E6469 
 1656      6E6700
 1657              	.LASF8:
 1658 024a 75696E74 		.ascii	"uint32_t\000"
 1658      33325F74 
 1658      00
 1659              	.LASF53:
 1660 0253 725F7175 		.ascii	"r_queue\000"
 1660      65756500 
 1661              	.LASF45:
 1662 025b 56697274 		.ascii	"VirtualTimer\000"
 1662      75616C54 
 1662      696D6572 
 1662      00
 1663              	.LASF79:
 1664 0268 474E5520 		.ascii	"GNU C 4.6.3\000"
 1664      4320342E 
 1664      362E3300 
 1665              	.LASF69:
 1666 0274 63686172 		.ascii	"char\000"
 1666      00
 1667              	.LASF75:
 1668 0279 5F5F6D61 		.ascii	"__main_thread_stack_base__\000"
 1668      696E5F74 
 1668      68726561 
 1668      645F7374 
 1668      61636B5F 
 1669              	.LASF64:
 1670 0294 6D5F6E65 		.ascii	"m_next\000"
 1670      787400
 1671              	.LASF18:
 1672 029b 73797374 		.ascii	"systime_t\000"
 1672      696D655F 
 1672      7400
 1673              	.LASF37:
 1674 02a5 705F7265 		.ascii	"p_realprio\000"
 1674      616C7072 
 1674      696F00
 1675              	.LASF44:
 1676 02b0 76746675 		.ascii	"vtfunc_t\000"
 1676      6E635F74 
 1676      00
 1677              	.LASF80:
 1678 02b9 2E2E2F63 		.ascii	"../chibios_2.4.x/os/kernel/src/chsys.c\000"
 1678      68696269 
 1678      6F735F32 
 1678      2E342E78 
 1678      2F6F732F 
 1679              	.LASF31:
 1680 02e0 705F7469 		.ascii	"p_time\000"
 1680      6D6500
 1681              	.LASF42:
 1682 02e7 696E7463 		.ascii	"intctx\000"
ARM GAS  C:\Users\z80\AppData\Local\Temp\ccs3Wc12.s 			page 33


 1682      747800
 1683              	.LASF33:
 1684 02ee 705F6D73 		.ascii	"p_msgqueue\000"
 1684      67717565 
 1684      756500
 1685              	.LASF50:
 1686 02f9 76745F70 		.ascii	"vt_par\000"
 1686      617200
 1687              	.LASF60:
 1688 0300 52656164 		.ascii	"ReadyList\000"
 1688      794C6973 
 1688      7400
 1689              	.LASF77:
 1690 030a 726C6973 		.ascii	"rlist\000"
 1690      7400
 1691              	.LASF5:
 1692 0310 75696E74 		.ascii	"uint8_t\000"
 1692      385F7400 
 1693              	.LASF67:
 1694 0318 77746F62 		.ascii	"wtobjp\000"
 1694      6A7000
 1695              	.LASF27:
 1696 031f 705F6E61 		.ascii	"p_name\000"
 1696      6D6500
 1697              	.LASF51:
 1698 0326 76745F73 		.ascii	"vt_systime\000"
 1698      79737469 
 1698      6D6500
 1699              	.LASF52:
 1700 0331 56544C69 		.ascii	"VTList\000"
 1700      737400
 1701              	.LASF58:
 1702 0338 725F7072 		.ascii	"r_preempt\000"
 1702      65656D70 
 1702      7400
 1703              	.LASF63:
 1704 0342 6D5F6F77 		.ascii	"m_owner\000"
 1704      6E657200 
 1705              	.LASF24:
 1706 034a 705F6374 		.ascii	"p_ctx\000"
 1706      7800
 1707              	.LASF32:
 1708 0350 705F7761 		.ascii	"p_waiting\000"
 1708      6974696E 
 1708      6700
 1709              		.ident	"GCC: (Sourcery CodeBench Lite 2012.03-56) 4.6.3"
ARM GAS  C:\Users\z80\AppData\Local\Temp\ccs3Wc12.s 			page 34


DEFINED SYMBOLS
                            *ABS*:00000000 chsys.c
C:\Users\z80\AppData\Local\Temp\ccs3Wc12.s:23     .bss._idle_thread_wa:00000000 _idle_thread_wa
C:\Users\z80\AppData\Local\Temp\ccs3Wc12.s:20     .bss._idle_thread_wa:00000000 $d
C:\Users\z80\AppData\Local\Temp\ccs3Wc12.s:26     .rodata:00000000 $d
C:\Users\z80\AppData\Local\Temp\ccs3Wc12.s:27     .rodata:00000000 .LC0
C:\Users\z80\AppData\Local\Temp\ccs3Wc12.s:30     .text._idle_thread:00000000 $t
C:\Users\z80\AppData\Local\Temp\ccs3Wc12.s:36     .text._idle_thread:00000000 _idle_thread
C:\Users\z80\AppData\Local\Temp\ccs3Wc12.s:63     .rodata:00000008 .LC1
C:\Users\z80\AppData\Local\Temp\ccs3Wc12.s:66     .text.chSysInit:00000000 $t
C:\Users\z80\AppData\Local\Temp\ccs3Wc12.s:72     .text.chSysInit:00000000 chSysInit
C:\Users\z80\AppData\Local\Temp\ccs3Wc12.s:265    .bss.mainthread.4651:00000000 mainthread.4651
C:\Users\z80\AppData\Local\Temp\ccs3Wc12.s:151    .text.chSysTimerHandlerI:00000000 $t
C:\Users\z80\AppData\Local\Temp\ccs3Wc12.s:157    .text.chSysTimerHandlerI:00000000 chSysTimerHandlerI
C:\Users\z80\AppData\Local\Temp\ccs3Wc12.s:262    .bss.mainthread.4651:00000000 $d
                     .debug_frame:00000010 $d

UNDEFINED SYMBOLS
rlist
_port_init
_scheduler_init
_vt_init
_core_init
_trace_init
_thread_init
__main_thread_stack_base__
dbg_check_enable
chThdCreateStatic
chDbgCheckClassI
vtlist
