ARM GAS  C:\Users\z80\AppData\Local\Temp\ccLrh9ok.s 			page 1


   1              		.syntax unified
   2              		.cpu cortex-m3
   3              		.fpu softvfp
   4              		.eabi_attribute 20, 1
   5              		.eabi_attribute 21, 1
   6              		.eabi_attribute 23, 3
   7              		.eabi_attribute 24, 1
   8              		.eabi_attribute 25, 1
   9              		.eabi_attribute 26, 1
  10              		.eabi_attribute 30, 2
  11              		.eabi_attribute 34, 1
  12              		.eabi_attribute 18, 4
  13              		.thumb
  14              		.file	"chthreads.c"
  15              		.text
  16              	.Ltext0:
  17              		.cfi_sections	.debug_frame
  18              		.section	.text._thread_init,"ax",%progbits
  19              		.align	2
  20              		.p2align 4,,15
  21              		.global	_thread_init
  22              		.thumb
  23              		.thumb_func
  24              		.type	_thread_init, %function
  25              	_thread_init:
  26              	.LFB7:
  27              		.file 1 "../chibios_2.4.x/os/kernel/src/chthreads.c"
  28              		.loc 1 76 0
  29              		.cfi_startproc
  30              		@ args = 0, pretend = 0, frame = 0
  31              		@ frame_needed = 0, uses_anonymous_args = 0
  32              		@ link register save eliminated.
  33              	.LVL0:
  34 0000 2DE9F001 		push	{r4, r5, r6, r7, r8}
  35              	.LCFI0:
  36              		.cfi_def_cfa_offset 20
  37              		.cfi_offset 8, -4
  38              		.cfi_offset 7, -8
  39              		.cfi_offset 6, -12
  40              		.cfi_offset 5, -16
  41              		.cfi_offset 4, -20
  42              		.loc 1 96 0
  43 0004 40F20004 		movw	r4, #:lower16:rlist
  44 0008 C0F20004 		movt	r4, #:upper16:rlist
  45 000c 6569     		ldr	r5, [r4, #20]
  46              		.loc 1 80 0
  47 000e 0022     		movs	r2, #0
  48              		.loc 1 102 0
  49 0010 00F13006 		add	r6, r0, #48
  50              		.loc 1 99 0
  51 0014 00F12C0C 		add	ip, r0, #44
  52              		.loc 1 105 0
  53 0018 00F14807 		add	r7, r0, #72
  54              		.loc 1 79 0
  55 001c 4FF00208 		mov	r8, #2
  56              		.loc 1 96 0
  57 0020 0461     		str	r4, [r0, #16]
ARM GAS  C:\Users\z80\AppData\Local\Temp\ccLrh9ok.s 			page 2


  58              		.loc 1 78 0
  59 0022 8160     		str	r1, [r0, #8]
  60              		.loc 1 96 0
  61 0024 4561     		str	r5, [r0, #20]
  62              		.loc 1 79 0
  63 0026 80F82080 		strb	r8, [r0, #32]
  64              		.loc 1 96 0
  65 002a 6061     		str	r0, [r4, #20]
  66              		.loc 1 80 0
  67 002c 80F82120 		strb	r2, [r0, #33]
  68              		.loc 1 82 0
  69 0030 4164     		str	r1, [r0, #68]
  70              		.loc 1 83 0
  71 0032 0264     		str	r2, [r0, #64]
  72              		.loc 1 86 0
  73 0034 C263     		str	r2, [r0, #60]
  74              		.loc 1 89 0
  75 0036 4262     		str	r2, [r0, #36]
  76              		.loc 1 95 0
  77 0038 8261     		str	r2, [r0, #24]
  78              		.loc 1 96 0
  79 003a 2861     		str	r0, [r5, #16]
  80              		.loc 1 99 0
  81 003c C0F82CC0 		str	ip, [r0, #44]
  82              		.loc 1 102 0
  83 0040 4663     		str	r6, [r0, #52]
  84 0042 0663     		str	r6, [r0, #48]
  85              		.loc 1 105 0
  86 0044 C761     		str	r7, [r0, #28]
  87              		.loc 1 111 0
  88 0046 BDE8F001 		pop	{r4, r5, r6, r7, r8}
  89 004a 7047     		bx	lr
  90              		.cfi_endproc
  91              	.LFE7:
  92              		.size	_thread_init, .-_thread_init
  93 004c AFF30080 		.section	.text._thread_memfill,"ax",%progbits
  94              		.align	2
  95              		.p2align 4,,15
  96              		.global	_thread_memfill
  97              		.thumb
  98              		.thumb_func
  99              		.type	_thread_memfill, %function
 100              	_thread_memfill:
 101              	.LFB8:
 102              		.loc 1 123 0
 103              		.cfi_startproc
 104              		@ args = 0, pretend = 0, frame = 0
 105              		@ frame_needed = 0, uses_anonymous_args = 0
 106              		@ link register save eliminated.
 107              	.LVL1:
 108              		.loc 1 125 0
 109 0000 8842     		cmp	r0, r1
 110 0002 13D2     		bcs	.L2
 111 0004 C343     		mvns	r3, r0
 112              		.loc 1 126 0
 113 0006 00F8012B 		strb	r2, [r0], #1
 114              	.LVL2:
ARM GAS  C:\Users\z80\AppData\Local\Temp\ccLrh9ok.s 			page 3


 115 000a CB18     		adds	r3, r1, r3
 116              		.loc 1 125 0
 117 000c 8842     		cmp	r0, r1
 118 000e 03F00103 		and	r3, r3, #1
 119 0012 0CD0     		beq	.L13
 120 0014 1BB1     		cbz	r3, .L5
 121              		.loc 1 126 0
 122 0016 00F8012B 		strb	r2, [r0], #1
 123              	.LVL3:
 124              		.loc 1 125 0
 125 001a 8842     		cmp	r0, r1
 126 001c 08D0     		beq	.L14
 127              	.L5:
 128              		.loc 1 126 0
 129 001e 0346     		mov	r3, r0
 130 0020 03F8012B 		strb	r2, [r3], #1
 131 0024 4270     		strb	r2, [r0, #1]
 132 0026 581C     		adds	r0, r3, #1
 133              		.loc 1 125 0
 134 0028 8842     		cmp	r0, r1
 135 002a F8D1     		bne	.L5
 136              	.L2:
 137 002c 7047     		bx	lr
 138              	.LVL4:
 139              	.L13:
 140 002e 7047     		bx	lr
 141              	.LVL5:
 142              	.L14:
 143 0030 7047     		bx	lr
 144              		.cfi_endproc
 145              	.LFE8:
 146              		.size	_thread_memfill, .-_thread_memfill
 147 0032 00BFAFF3 		.section	.text.chThdCreateI,"ax",%progbits
 147      0080AFF3 
 147      0080AFF3 
 147      0080
 148              		.align	2
 149              		.p2align 4,,15
 150              		.global	chThdCreateI
 151              		.thumb
 152              		.thumb_func
 153              		.type	chThdCreateI, %function
 154              	chThdCreateI:
 155              	.LFB9:
 156              		.loc 1 155 0
 157              		.cfi_startproc
 158              		@ args = 4, pretend = 0, frame = 0
 159              		@ frame_needed = 0, uses_anonymous_args = 0
 160              	.LVL6:
 161 0000 2DE9F84F 		push	{r3, r4, r5, r6, r7, r8, r9, sl, fp, lr}
 162              	.LCFI1:
 163              		.cfi_def_cfa_offset 40
 164              		.cfi_offset 14, -4
 165              		.cfi_offset 11, -8
 166              		.cfi_offset 10, -12
 167              		.cfi_offset 9, -16
 168              		.cfi_offset 8, -20
ARM GAS  C:\Users\z80\AppData\Local\Temp\ccLrh9ok.s 			page 4


 169              		.cfi_offset 7, -24
 170              		.cfi_offset 6, -28
 171              		.cfi_offset 5, -32
 172              		.cfi_offset 4, -36
 173              		.cfi_offset 3, -40
 174              		.loc 1 155 0
 175 0004 0446     		mov	r4, r0
 176              	.LVL7:
 177 0006 8846     		mov	r8, r1
 178 0008 9946     		mov	r9, r3
 179 000a 1546     		mov	r5, r2
 180              		.loc 1 159 0
 181 000c FFF7FEFF 		bl	chDbgCheckClassI
 182              	.LVL8:
 183              		.loc 1 161 0
 184 0010 D4F10103 		rsbs	r3, r4, #1
 185 0014 38BF     		it	cc
 186 0016 0023     		movcc	r3, #0
 187 0018 B8F1AF0F 		cmp	r8, #175
 188 001c 98BF     		it	ls
 189 001e 43F00103 		orrls	r3, r3, #1
 190 0022 4BB9     		cbnz	r3, .L16
 191              		.loc 1 161 0 is_stmt 0 discriminator 2
 192 0024 7F2D     		cmp	r5, #127
 193 0026 94BF     		ite	ls
 194 0028 0023     		movls	r3, #0
 195 002a 0123     		movhi	r3, #1
 196 002c B9F1000F 		cmp	r9, #0
 197 0030 08BF     		it	eq
 198 0032 43F00103 		orreq	r3, r3, #1
 199 0036 2BB1     		cbz	r3, .L17
 200              	.L16:
 201              		.loc 1 161 0 discriminator 1
 202 0038 40F20000 		movw	r0, #:lower16:.LC0
 203 003c C0F20000 		movt	r0, #:upper16:.LC0
 204 0040 FFF7FEFF 		bl	chDbgPanic
 205              	.L17:
 206              		.loc 1 164 0 is_stmt 1
 207 0044 A8F12408 		sub	r8, r8, #36
 208              	.LVL9:
 209              	.LBB16:
 210              	.LBB17:
 211              		.loc 1 96 0
 212 0048 40F20006 		movw	r6, #:lower16:rlist
 213              	.LBE17:
 214              	.LBE16:
 215              		.loc 1 164 0
 216 004c 04EB0807 		add	r7, r4, r8
 217              	.LBB22:
 218              	.LBB18:
 219              		.loc 1 96 0
 220 0050 C0F20006 		movt	r6, #:upper16:rlist
 221              	.LBE18:
 222              	.LBE22:
 223              		.loc 1 164 0
 224 0054 40F20001 		movw	r1, #:lower16:_port_thread_start
 225              	.LBB23:
ARM GAS  C:\Users\z80\AppData\Local\Temp\ccLrh9ok.s 			page 5


 226              	.LBB19:
 227              		.loc 1 96 0
 228 0058 D6F814C0 		ldr	ip, [r6, #20]
 229              	.LBE19:
 230              	.LBE23:
 231              		.loc 1 164 0
 232 005c C0F20001 		movt	r1, #:upper16:_port_thread_start
 233 0060 E760     		str	r7, [r4, #12]
 234 0062 44F80890 		str	r9, [r4, r8]
 235 0066 DDF82880 		ldr	r8, [sp, #40]
 236              	.LVL10:
 237 006a 3962     		str	r1, [r7, #32]
 238              	.LVL11:
 239              	.LBB24:
 240              	.LBB20:
 241              		.loc 1 80 0
 242 006c 0022     		movs	r2, #0
 243              		.loc 1 102 0
 244 006e 04F13003 		add	r3, r4, #48
 245              		.loc 1 99 0
 246 0072 04F12C0A 		add	sl, r4, #44
 247              		.loc 1 105 0
 248 0076 04F1480B 		add	fp, r4, #72
 249              		.loc 1 79 0
 250 007a 0221     		movs	r1, #2
 251              	.LBE20:
 252              	.LBE24:
 253              		.loc 1 164 0
 254 007c C7F80480 		str	r8, [r7, #4]
 255              		.loc 1 166 0
 256 0080 2046     		mov	r0, r4
 257              	.LBB25:
 258              	.LBB21:
 259              		.loc 1 96 0
 260 0082 2661     		str	r6, [r4, #16]
 261              		.loc 1 78 0
 262 0084 A560     		str	r5, [r4, #8]
 263              		.loc 1 96 0
 264 0086 C4F814C0 		str	ip, [r4, #20]
 265              		.loc 1 79 0
 266 008a 84F82010 		strb	r1, [r4, #32]
 267              		.loc 1 96 0
 268 008e 7461     		str	r4, [r6, #20]
 269              		.loc 1 80 0
 270 0090 84F82120 		strb	r2, [r4, #33]
 271              		.loc 1 82 0
 272 0094 6564     		str	r5, [r4, #68]
 273              		.loc 1 83 0
 274 0096 2264     		str	r2, [r4, #64]
 275              		.loc 1 86 0
 276 0098 E263     		str	r2, [r4, #60]
 277              		.loc 1 89 0
 278 009a 6262     		str	r2, [r4, #36]
 279              		.loc 1 95 0
 280 009c A261     		str	r2, [r4, #24]
 281              		.loc 1 96 0
 282 009e CCF81040 		str	r4, [ip, #16]
ARM GAS  C:\Users\z80\AppData\Local\Temp\ccLrh9ok.s 			page 6


 283              		.loc 1 99 0
 284 00a2 C4F82CA0 		str	sl, [r4, #44]
 285              		.loc 1 102 0
 286 00a6 6363     		str	r3, [r4, #52]
 287 00a8 2363     		str	r3, [r4, #48]
 288              		.loc 1 105 0
 289 00aa C4F81CB0 		str	fp, [r4, #28]
 290              	.LBE21:
 291              	.LBE25:
 292              		.loc 1 166 0
 293 00ae BDE8F88F 		pop	{r3, r4, r5, r6, r7, r8, r9, sl, fp, pc}
 294              		.cfi_endproc
 295              	.LFE9:
 296              		.size	chThdCreateI, .-chThdCreateI
 297 00b2 00BFAFF3 		.section	.text.chThdCreateStatic,"ax",%progbits
 297      0080AFF3 
 297      0080AFF3 
 297      0080
 298              		.align	2
 299              		.p2align 4,,15
 300              		.global	chThdCreateStatic
 301              		.thumb
 302              		.thumb_func
 303              		.type	chThdCreateStatic, %function
 304              	chThdCreateStatic:
 305              	.LFB10:
 306              		.loc 1 185 0
 307              		.cfi_startproc
 308              		@ args = 4, pretend = 0, frame = 0
 309              		@ frame_needed = 0, uses_anonymous_args = 0
 310              	.LVL12:
 311 0000 F0B5     		push	{r4, r5, r6, r7, lr}
 312              	.LCFI2:
 313              		.cfi_def_cfa_offset 20
 314              		.cfi_offset 14, -4
 315              		.cfi_offset 7, -8
 316              		.cfi_offset 6, -12
 317              		.cfi_offset 5, -16
 318              		.cfi_offset 4, -20
 319 0002 0446     		mov	r4, r0
 320 0004 0D46     		mov	r5, r1
 321 0006 1F46     		mov	r7, r3
 322              		.loc 1 189 0
 323 0008 00F1480E 		add	lr, r0, #72
 324              	.LVL13:
 325              		.loc 1 184 0
 326 000c 431C     		adds	r3, r0, #1
 327              	.LVL14:
 328              		.loc 1 185 0
 329 000e 83B0     		sub	sp, sp, #12
 330              	.LCFI3:
 331              		.cfi_def_cfa_offset 32
 332              		.loc 1 185 0
 333 0010 1646     		mov	r6, r2
 334              		.loc 1 184 0
 335 0012 4930     		adds	r0, r0, #73
 336              	.LVL15:
ARM GAS  C:\Users\z80\AppData\Local\Temp\ccLrh9ok.s 			page 7


 337              	.LBB26:
 338              	.LBB27:
 339              		.loc 1 126 0
 340 0014 FF21     		movs	r1, #255
 341              	.LVL16:
 342              	.L19:
 343 0016 1A46     		mov	r2, r3
 344 0018 03F8011C 		strb	r1, [r3, #-1]
 345 001c 02F8011B 		strb	r1, [r2], #1
 346 0020 531C     		adds	r3, r2, #1
 347              		.loc 1 125 0
 348 0022 8342     		cmp	r3, r0
 349 0024 F7D1     		bne	.L19
 350              	.LBE27:
 351              	.LBE26:
 352              		.loc 1 192 0
 353 0026 6019     		adds	r0, r4, r5
 354              	.LVL17:
 355              	.LBB28:
 356              	.LBB29:
 357              		.loc 1 125 0
 358 0028 8645     		cmp	lr, r0
 359 002a 17D2     		bcs	.L20
 360              		.loc 1 126 0
 361 002c 5521     		movs	r1, #85
 362 002e 7346     		mov	r3, lr
 363 0030 6FEA0E02 		mvn	r2, lr
 364 0034 03F8011B 		strb	r1, [r3], #1
 365 0038 00EB020C 		add	ip, r0, r2
 366              		.loc 1 125 0
 367 003c 8342     		cmp	r3, r0
 368 003e 0CF00102 		and	r2, ip, #1
 369 0042 0BD0     		beq	.L20
 370 0044 1AB1     		cbz	r2, .L22
 371              		.loc 1 126 0
 372 0046 03F8011B 		strb	r1, [r3], #1
 373              	.LVL18:
 374              		.loc 1 125 0
 375 004a 8342     		cmp	r3, r0
 376 004c 06D0     		beq	.L20
 377              	.L22:
 378              		.loc 1 126 0
 379 004e 1A46     		mov	r2, r3
 380 0050 02F8011B 		strb	r1, [r2], #1
 381 0054 5970     		strb	r1, [r3, #1]
 382 0056 531C     		adds	r3, r2, #1
 383              		.loc 1 125 0
 384 0058 8342     		cmp	r3, r0
 385 005a F8D1     		bne	.L22
 386              	.L20:
 387              	.LBE29:
 388              	.LBE28:
 389              	.LBB30:
 390              		.loc 1 196 0
 391 005c 2023     		movs	r3, #32
 392              	.LVL19:
 393              	@ 196 "../chibios_2.4.x/os/kernel/src/chthreads.c" 1
ARM GAS  C:\Users\z80\AppData\Local\Temp\ccLrh9ok.s 			page 8


 394 005e 83F31188 		msr     BASEPRI, r3
 395              	@ 0 "" 2
 396              	.LVL20:
 397              		.thumb
 398              	.LBE30:
 399 0062 FFF7FEFF 		bl	dbg_check_lock
 400              	.LVL21:
 401              		.loc 1 197 0
 402 0066 2046     		mov	r0, r4
 403 0068 089C     		ldr	r4, [sp, #32]
 404              	.LVL22:
 405 006a 3B46     		mov	r3, r7
 406 006c 3246     		mov	r2, r6
 407 006e 2946     		mov	r1, r5
 408 0070 0094     		str	r4, [sp, #0]
 409 0072 FFF7FEFF 		bl	chThdCreateI
 410              	.LVL23:
 411 0076 0021     		movs	r1, #0
 412 0078 0446     		mov	r4, r0
 413              	.LVL24:
 414 007a FFF7FEFF 		bl	chSchWakeupS
 415              	.LVL25:
 416              		.loc 1 198 0
 417 007e FFF7FEFF 		bl	dbg_check_unlock
 418              	.LBB31:
 419 0082 0023     		movs	r3, #0
 420              	.LVL26:
 421              	@ 198 "../chibios_2.4.x/os/kernel/src/chthreads.c" 1
 422 0084 83F31188 		msr     BASEPRI, r3
 423              	@ 0 "" 2
 424              	.LVL27:
 425              		.thumb
 426              	.LBE31:
 427              		.loc 1 200 0
 428 0088 2046     		mov	r0, r4
 429 008a 03B0     		add	sp, sp, #12
 430 008c F0BD     		pop	{r4, r5, r6, r7, pc}
 431              		.cfi_endproc
 432              	.LFE10:
 433              		.size	chThdCreateStatic, .-chThdCreateStatic
 434 008e 00BF     		.section	.text.chThdSetPriority,"ax",%progbits
 435              		.align	2
 436              		.p2align 4,,15
 437              		.global	chThdSetPriority
 438              		.thumb
 439              		.thumb_func
 440              		.type	chThdSetPriority, %function
 441              	chThdSetPriority:
 442              	.LFB11:
 443              		.loc 1 214 0
 444              		.cfi_startproc
 445              		@ args = 0, pretend = 0, frame = 0
 446              		@ frame_needed = 0, uses_anonymous_args = 0
 447              	.LVL28:
 448              		.loc 1 217 0
 449 0000 7F28     		cmp	r0, #127
 450              		.loc 1 214 0
ARM GAS  C:\Users\z80\AppData\Local\Temp\ccLrh9ok.s 			page 9


 451 0002 38B5     		push	{r3, r4, r5, lr}
 452              	.LCFI4:
 453              		.cfi_def_cfa_offset 16
 454              		.cfi_offset 14, -4
 455              		.cfi_offset 5, -8
 456              		.cfi_offset 4, -12
 457              		.cfi_offset 3, -16
 458              		.loc 1 214 0
 459 0004 0446     		mov	r4, r0
 460              		.loc 1 217 0
 461 0006 1AD8     		bhi	.L35
 462              	.LVL29:
 463              	.L32:
 464              	.LBB32:
 465              		.loc 1 219 0
 466 0008 2023     		movs	r3, #32
 467              	.LVL30:
 468              	@ 219 "../chibios_2.4.x/os/kernel/src/chthreads.c" 1
 469 000a 83F31188 		msr     BASEPRI, r3
 470              	@ 0 "" 2
 471              	.LVL31:
 472              		.thumb
 473              	.LBE32:
 474 000e FFF7FEFF 		bl	dbg_check_lock
 475              	.LVL32:
 476              		.loc 1 221 0
 477 0012 40F20003 		movw	r3, #:lower16:rlist
 478 0016 C0F20003 		movt	r3, #:upper16:rlist
 479 001a DB69     		ldr	r3, [r3, #28]
 480 001c 5D6C     		ldr	r5, [r3, #68]
 481              	.LVL33:
 482              		.loc 1 222 0
 483 001e 9A68     		ldr	r2, [r3, #8]
 484 0020 9542     		cmp	r5, r2
 485 0022 01D0     		beq	.L33
 486              		.loc 1 222 0 is_stmt 0 discriminator 1
 487 0024 9442     		cmp	r4, r2
 488 0026 00D9     		bls	.L34
 489              	.L33:
 490              		.loc 1 223 0 is_stmt 1
 491 0028 9C60     		str	r4, [r3, #8]
 492              	.L34:
 493              		.loc 1 224 0
 494 002a 5C64     		str	r4, [r3, #68]
 495              		.loc 1 229 0
 496 002c FFF7FEFF 		bl	chSchRescheduleS
 497              	.LVL34:
 498              		.loc 1 230 0
 499 0030 FFF7FEFF 		bl	dbg_check_unlock
 500              	.LBB33:
 501 0034 0023     		movs	r3, #0
 502              	.LVL35:
 503              	@ 230 "../chibios_2.4.x/os/kernel/src/chthreads.c" 1
 504 0036 83F31188 		msr     BASEPRI, r3
 505              	@ 0 "" 2
 506              	.LVL36:
 507              		.thumb
ARM GAS  C:\Users\z80\AppData\Local\Temp\ccLrh9ok.s 			page 10


 508              	.LBE33:
 509              		.loc 1 232 0
 510 003a 2846     		mov	r0, r5
 511 003c 38BD     		pop	{r3, r4, r5, pc}
 512              	.LVL37:
 513              	.L35:
 514              		.loc 1 217 0 discriminator 1
 515 003e 40F20000 		movw	r0, #:lower16:.LC1
 516 0042 C0F20000 		movt	r0, #:upper16:.LC1
 517 0046 FFF7FEFF 		bl	chDbgPanic
 518 004a DDE7     		b	.L32
 519              		.cfi_endproc
 520              	.LFE11:
 521              		.size	chThdSetPriority, .-chThdSetPriority
 522 004c AFF30080 		.section	.text.chThdResume,"ax",%progbits
 523              		.align	2
 524              		.p2align 4,,15
 525              		.global	chThdResume
 526              		.thumb
 527              		.thumb_func
 528              		.type	chThdResume, %function
 529              	chThdResume:
 530              	.LFB12:
 531              		.loc 1 247 0
 532              		.cfi_startproc
 533              		@ args = 0, pretend = 0, frame = 0
 534              		@ frame_needed = 0, uses_anonymous_args = 0
 535              	.LVL38:
 536 0000 10B5     		push	{r4, lr}
 537              	.LCFI5:
 538              		.cfi_def_cfa_offset 8
 539              		.cfi_offset 14, -4
 540              		.cfi_offset 4, -8
 541              	.LBB34:
 542              		.loc 1 249 0
 543 0002 2023     		movs	r3, #32
 544              	.LVL39:
 545              	.LBE34:
 546              		.loc 1 247 0
 547 0004 0446     		mov	r4, r0
 548              	.LBB35:
 549              		.loc 1 249 0
 550              	@ 249 "../chibios_2.4.x/os/kernel/src/chthreads.c" 1
 551 0006 83F31188 		msr     BASEPRI, r3
 552              	@ 0 "" 2
 553              	.LVL40:
 554              		.thumb
 555              	.LBE35:
 556 000a FFF7FEFF 		bl	dbg_check_lock
 557              	.LVL41:
 558              		.loc 1 250 0
 559 000e 94F82030 		ldrb	r3, [r4, #32]	@ zero_extendqisi2
 560 0012 022B     		cmp	r3, #2
 561 0014 05D0     		beq	.L37
 562              		.loc 1 250 0 is_stmt 0 discriminator 1
 563 0016 40F20000 		movw	r0, #:lower16:.LC2
 564 001a C0F20000 		movt	r0, #:upper16:.LC2
ARM GAS  C:\Users\z80\AppData\Local\Temp\ccLrh9ok.s 			page 11


 565 001e FFF7FEFF 		bl	chDbgPanic
 566              	.L37:
 567              		.loc 1 253 0 is_stmt 1
 568 0022 2046     		mov	r0, r4
 569 0024 0021     		movs	r1, #0
 570 0026 FFF7FEFF 		bl	chSchWakeupS
 571              		.loc 1 254 0
 572 002a FFF7FEFF 		bl	dbg_check_unlock
 573              	.LBB36:
 574 002e 0023     		movs	r3, #0
 575              	.LVL42:
 576              	@ 254 "../chibios_2.4.x/os/kernel/src/chthreads.c" 1
 577 0030 83F31188 		msr     BASEPRI, r3
 578              	@ 0 "" 2
 579              	.LVL43:
 580              		.thumb
 581              	.LBE36:
 582              		.loc 1 256 0
 583 0034 2046     		mov	r0, r4
 584 0036 10BD     		pop	{r4, pc}
 585              		.cfi_endproc
 586              	.LFE12:
 587              		.size	chThdResume, .-chThdResume
 588 0038 AFF30080 		.section	.text.chThdTerminate,"ax",%progbits
 588      AFF30080 
 589              		.align	2
 590              		.p2align 4,,15
 591              		.global	chThdTerminate
 592              		.thumb
 593              		.thumb_func
 594              		.type	chThdTerminate, %function
 595              	chThdTerminate:
 596              	.LFB13:
 597              		.loc 1 270 0
 598              		.cfi_startproc
 599              		@ args = 0, pretend = 0, frame = 0
 600              		@ frame_needed = 0, uses_anonymous_args = 0
 601              	.LVL44:
 602 0000 10B5     		push	{r4, lr}
 603              	.LCFI6:
 604              		.cfi_def_cfa_offset 8
 605              		.cfi_offset 14, -4
 606              		.cfi_offset 4, -8
 607              	.LBB37:
 608              		.loc 1 272 0
 609 0002 2023     		movs	r3, #32
 610              	.LVL45:
 611              	.LBE37:
 612              		.loc 1 270 0
 613 0004 0446     		mov	r4, r0
 614              	.LBB38:
 615              		.loc 1 272 0
 616              	@ 272 "../chibios_2.4.x/os/kernel/src/chthreads.c" 1
 617 0006 83F31188 		msr     BASEPRI, r3
 618              	@ 0 "" 2
 619              	.LVL46:
 620              		.thumb
ARM GAS  C:\Users\z80\AppData\Local\Temp\ccLrh9ok.s 			page 12


 621              	.LBE38:
 622 000a FFF7FEFF 		bl	dbg_check_lock
 623              	.LVL47:
 624              		.loc 1 273 0
 625 000e 94F82100 		ldrb	r0, [r4, #33]	@ zero_extendqisi2
 626 0012 40F00403 		orr	r3, r0, #4
 627 0016 84F82130 		strb	r3, [r4, #33]
 628              		.loc 1 274 0
 629 001a FFF7FEFF 		bl	dbg_check_unlock
 630              	.LBB39:
 631 001e 0023     		movs	r3, #0
 632              	.LVL48:
 633              	@ 274 "../chibios_2.4.x/os/kernel/src/chthreads.c" 1
 634 0020 83F31188 		msr     BASEPRI, r3
 635              	@ 0 "" 2
 636              	.LVL49:
 637              		.thumb
 638              	.LBE39:
 639              		.loc 1 275 0
 640 0024 10BD     		pop	{r4, pc}
 641              		.cfi_endproc
 642              	.LFE13:
 643              		.size	chThdTerminate, .-chThdTerminate
 644 0026 00BFAFF3 		.section	.text.chThdSleep,"ax",%progbits
 644      0080AFF3 
 644      0080
 645              		.align	2
 646              		.p2align 4,,15
 647              		.global	chThdSleep
 648              		.thumb
 649              		.thumb_func
 650              		.type	chThdSleep, %function
 651              	chThdSleep:
 652              	.LFB14:
 653              		.loc 1 289 0
 654              		.cfi_startproc
 655              		@ args = 0, pretend = 0, frame = 0
 656              		@ frame_needed = 0, uses_anonymous_args = 0
 657              	.LVL50:
 658 0000 10B5     		push	{r4, lr}
 659              	.LCFI7:
 660              		.cfi_def_cfa_offset 8
 661              		.cfi_offset 14, -4
 662              		.cfi_offset 4, -8
 663              		.loc 1 291 0
 664 0002 0446     		mov	r4, r0
 665 0004 28B9     		cbnz	r0, .L40
 666              		.loc 1 291 0 is_stmt 0 discriminator 1
 667 0006 40F20000 		movw	r0, #:lower16:.LC3
 668              	.LVL51:
 669 000a C0F20000 		movt	r0, #:upper16:.LC3
 670 000e FFF7FEFF 		bl	chDbgPanic
 671              	.L40:
 672              	.LBB40:
 673              		.loc 1 293 0 is_stmt 1
 674 0012 2023     		movs	r3, #32
 675              	.LVL52:
ARM GAS  C:\Users\z80\AppData\Local\Temp\ccLrh9ok.s 			page 13


 676              	@ 293 "../chibios_2.4.x/os/kernel/src/chthreads.c" 1
 677 0014 83F31188 		msr     BASEPRI, r3
 678              	@ 0 "" 2
 679              	.LVL53:
 680              		.thumb
 681              	.LBE40:
 682 0018 FFF7FEFF 		bl	dbg_check_lock
 683              	.LVL54:
 684              		.loc 1 294 0
 685 001c 2146     		mov	r1, r4
 686 001e 0620     		movs	r0, #6
 687 0020 FFF7FEFF 		bl	chSchGoSleepTimeoutS
 688              		.loc 1 295 0
 689 0024 FFF7FEFF 		bl	dbg_check_unlock
 690              	.LBB41:
 691 0028 0023     		movs	r3, #0
 692              	.LVL55:
 693              	@ 295 "../chibios_2.4.x/os/kernel/src/chthreads.c" 1
 694 002a 83F31188 		msr     BASEPRI, r3
 695              	@ 0 "" 2
 696              	.LVL56:
 697              		.thumb
 698              	.LBE41:
 699              		.loc 1 296 0
 700 002e 10BD     		pop	{r4, pc}
 701              		.cfi_endproc
 702              	.LFE14:
 703              		.size	chThdSleep, .-chThdSleep
 704              		.section	.text.chThdSleepUntil,"ax",%progbits
 705              		.align	2
 706              		.p2align 4,,15
 707              		.global	chThdSleepUntil
 708              		.thumb
 709              		.thumb_func
 710              		.type	chThdSleepUntil, %function
 711              	chThdSleepUntil:
 712              	.LFB15:
 713              		.loc 1 306 0
 714              		.cfi_startproc
 715              		@ args = 0, pretend = 0, frame = 0
 716              		@ frame_needed = 0, uses_anonymous_args = 0
 717              	.LVL57:
 718 0000 10B5     		push	{r4, lr}
 719              	.LCFI8:
 720              		.cfi_def_cfa_offset 8
 721              		.cfi_offset 14, -4
 722              		.cfi_offset 4, -8
 723              	.LBB42:
 724              		.loc 1 308 0
 725 0002 2023     		movs	r3, #32
 726              	.LVL58:
 727              	.LBE42:
 728              		.loc 1 306 0
 729 0004 0446     		mov	r4, r0
 730              	.LBB43:
 731              		.loc 1 308 0
 732              	@ 308 "../chibios_2.4.x/os/kernel/src/chthreads.c" 1
ARM GAS  C:\Users\z80\AppData\Local\Temp\ccLrh9ok.s 			page 14


 733 0006 83F31188 		msr     BASEPRI, r3
 734              	@ 0 "" 2
 735              	.LVL59:
 736              		.thumb
 737              	.LBE43:
 738 000a FFF7FEFF 		bl	dbg_check_lock
 739              	.LVL60:
 740              		.loc 1 309 0
 741 000e 40F20003 		movw	r3, #:lower16:vtlist
 742 0012 C0F20003 		movt	r3, #:upper16:vtlist
 743 0016 D968     		ldr	r1, [r3, #12]
 744              	.LVL61:
 745 0018 611A     		subs	r1, r4, r1
 746              	.LVL62:
 747 001a 02D0     		beq	.L42
 748              		.loc 1 310 0
 749 001c 0620     		movs	r0, #6
 750 001e FFF7FEFF 		bl	chSchGoSleepTimeoutS
 751              	.LVL63:
 752              	.L42:
 753              		.loc 1 311 0
 754 0022 FFF7FEFF 		bl	dbg_check_unlock
 755              	.LBB44:
 756 0026 0023     		movs	r3, #0
 757              	.LVL64:
 758              	@ 311 "../chibios_2.4.x/os/kernel/src/chthreads.c" 1
 759 0028 83F31188 		msr     BASEPRI, r3
 760              	@ 0 "" 2
 761              	.LVL65:
 762              		.thumb
 763              	.LBE44:
 764              		.loc 1 312 0
 765 002c 10BD     		pop	{r4, pc}
 766              		.cfi_endproc
 767              	.LFE15:
 768              		.size	chThdSleepUntil, .-chThdSleepUntil
 769 002e 00BF     		.section	.text.chThdYield,"ax",%progbits
 770              		.align	2
 771              		.p2align 4,,15
 772              		.global	chThdYield
 773              		.thumb
 774              		.thumb_func
 775              		.type	chThdYield, %function
 776              	chThdYield:
 777              	.LFB16:
 778              		.loc 1 321 0
 779              		.cfi_startproc
 780              		@ args = 0, pretend = 0, frame = 0
 781              		@ frame_needed = 0, uses_anonymous_args = 0
 782 0000 08B5     		push	{r3, lr}
 783              	.LCFI9:
 784              		.cfi_def_cfa_offset 8
 785              		.cfi_offset 14, -4
 786              		.cfi_offset 3, -8
 787              	.LBB45:
 788              		.loc 1 323 0
 789 0002 2023     		movs	r3, #32
ARM GAS  C:\Users\z80\AppData\Local\Temp\ccLrh9ok.s 			page 15


 790              	.LVL66:
 791              	@ 323 "../chibios_2.4.x/os/kernel/src/chthreads.c" 1
 792 0004 83F31188 		msr     BASEPRI, r3
 793              	@ 0 "" 2
 794              	.LVL67:
 795              		.thumb
 796              	.LBE45:
 797 0008 FFF7FEFF 		bl	dbg_check_lock
 798              	.LVL68:
 799              		.loc 1 324 0
 800 000c 40F2000C 		movw	ip, #:lower16:rlist
 801 0010 C0F2000C 		movt	ip, #:upper16:rlist
 802 0014 DCF80010 		ldr	r1, [ip, #0]
 803 0018 DCF81C00 		ldr	r0, [ip, #28]
 804 001c 8A68     		ldr	r2, [r1, #8]
 805 001e 8368     		ldr	r3, [r0, #8]
 806 0020 9A42     		cmp	r2, r3
 807 0022 01D3     		bcc	.L44
 808              		.loc 1 324 0 is_stmt 0 discriminator 1
 809 0024 FFF7FEFF 		bl	chSchDoReschedule
 810              	.L44:
 811              		.loc 1 325 0 is_stmt 1
 812 0028 FFF7FEFF 		bl	dbg_check_unlock
 813              	.LBB46:
 814 002c 0023     		movs	r3, #0
 815              	.LVL69:
 816              	@ 325 "../chibios_2.4.x/os/kernel/src/chthreads.c" 1
 817 002e 83F31188 		msr     BASEPRI, r3
 818              	@ 0 "" 2
 819              	.LVL70:
 820              		.thumb
 821              	.LBE46:
 822              		.loc 1 326 0
 823 0032 08BD     		pop	{r3, pc}
 824              		.cfi_endproc
 825              	.LFE16:
 826              		.size	chThdYield, .-chThdYield
 827 0034 AFF30080 		.section	.text.chThdExitS,"ax",%progbits
 827      AFF30080 
 827      AFF30080 
 828              		.align	2
 829              		.p2align 4,,15
 830              		.global	chThdExitS
 831              		.thumb
 832              		.thumb_func
 833              		.type	chThdExitS, %function
 834              	chThdExitS:
 835              	.LFB18:
 836              		.loc 1 363 0
 837              		.cfi_startproc
 838              		@ args = 0, pretend = 0, frame = 0
 839              		@ frame_needed = 0, uses_anonymous_args = 0
 840              	.LVL71:
 841 0000 38B5     		push	{r3, r4, r5, lr}
 842              	.LCFI10:
 843              		.cfi_def_cfa_offset 16
 844              		.cfi_offset 14, -4
ARM GAS  C:\Users\z80\AppData\Local\Temp\ccLrh9ok.s 			page 16


 845              		.cfi_offset 5, -8
 846              		.cfi_offset 4, -12
 847              		.cfi_offset 3, -16
 848              		.loc 1 364 0
 849 0002 40F20003 		movw	r3, #:lower16:rlist
 850 0006 C0F20003 		movt	r3, #:upper16:rlist
 851 000a DC69     		ldr	r4, [r3, #28]
 852              	.LVL72:
 853              		.loc 1 371 0
 854 000c 2546     		mov	r5, r4
 855 000e 55F82C3F 		ldr	r3, [r5, #44]!
 856              	.LVL73:
 857              		.loc 1 366 0
 858 0012 A062     		str	r0, [r4, #40]
 859              		.loc 1 371 0
 860 0014 AB42     		cmp	r3, r5
 861 0016 07D0     		beq	.L46
 862              	.LVL74:
 863              	.L49:
 864              	.LBB47:
 865              	.LBB48:
 866              		.file 2 "../chibios_2.4.x/os/kernel/include/chinline.h"
 867              		.loc 2 89 0
 868 0018 1A68     		ldr	r2, [r3, #0]
 869              	.LBE48:
 870              	.LBE47:
 871              		.loc 1 372 0
 872 001a 1846     		mov	r0, r3
 873              	.LBB50:
 874              	.LBB49:
 875              		.loc 2 89 0
 876 001c E262     		str	r2, [r4, #44]
 877              	.LBE49:
 878              	.LBE50:
 879              		.loc 1 372 0
 880 001e FFF7FEFF 		bl	chSchReadyI
 881              	.LVL75:
 882              		.loc 1 371 0
 883 0022 E36A     		ldr	r3, [r4, #44]
 884 0024 AB42     		cmp	r3, r5
 885 0026 F7D1     		bne	.L49
 886              	.LVL76:
 887              	.L46:
 888              		.loc 1 377 0
 889 0028 94F82110 		ldrb	r1, [r4, #33]	@ zero_extendqisi2
 890 002c 8807     		lsls	r0, r1, #30
 891              		.loc 1 378 0
 892 002e 01BF     		itttt	eq
 893 0030 2269     		ldreq	r2, [r4, #16]
 894 0032 6069     		ldreq	r0, [r4, #20]
 895 0034 0261     		streq	r2, [r0, #16]
 896 0036 2269     		ldreq	r2, [r4, #16]
 897 0038 08BF     		it	eq
 898 003a 5061     		streq	r0, [r2, #20]
 899              		.loc 1 380 0
 900 003c 0E20     		movs	r0, #14
 901 003e FFF7FEFF 		bl	chSchGoSleepS
ARM GAS  C:\Users\z80\AppData\Local\Temp\ccLrh9ok.s 			page 17


 902              		.loc 1 382 0
 903 0042 40F20000 		movw	r0, #:lower16:.LC4
 904 0046 C0F20000 		movt	r0, #:upper16:.LC4
 905              		.loc 1 383 0
 906 004a BDE83840 		pop	{r3, r4, r5, lr}
 907              		.loc 1 382 0
 908 004e FFF7FEBF 		b	chDbgPanic
 909              		.cfi_endproc
 910              	.LFE18:
 911              		.size	chThdExitS, .-chThdExitS
 912 0052 00BFAFF3 		.section	.text.chThdExit,"ax",%progbits
 912      0080AFF3 
 912      0080AFF3 
 912      0080
 913              		.align	2
 914              		.p2align 4,,15
 915              		.global	chThdExit
 916              		.thumb
 917              		.thumb_func
 918              		.type	chThdExit, %function
 919              	chThdExit:
 920              	.LFB17:
 921              		.loc 1 342 0
 922              		.cfi_startproc
 923              		@ args = 0, pretend = 0, frame = 0
 924              		@ frame_needed = 0, uses_anonymous_args = 0
 925              	.LVL77:
 926 0000 10B5     		push	{r4, lr}
 927              	.LCFI11:
 928              		.cfi_def_cfa_offset 8
 929              		.cfi_offset 14, -4
 930              		.cfi_offset 4, -8
 931              	.LBB51:
 932              		.loc 1 344 0
 933 0002 2023     		movs	r3, #32
 934              	.LVL78:
 935              	.LBE51:
 936              		.loc 1 342 0
 937 0004 0446     		mov	r4, r0
 938              	.LBB52:
 939              		.loc 1 344 0
 940              	@ 344 "../chibios_2.4.x/os/kernel/src/chthreads.c" 1
 941 0006 83F31188 		msr     BASEPRI, r3
 942              	@ 0 "" 2
 943              	.LVL79:
 944              		.thumb
 945              	.LBE52:
 946 000a FFF7FEFF 		bl	dbg_check_lock
 947              	.LVL80:
 948              		.loc 1 345 0
 949 000e 2046     		mov	r0, r4
 950              		.loc 1 347 0
 951 0010 BDE81040 		pop	{r4, lr}
 952              		.loc 1 345 0
 953 0014 FFF7FEBF 		b	chThdExitS
 954              		.cfi_endproc
 955              	.LFE17:
ARM GAS  C:\Users\z80\AppData\Local\Temp\ccLrh9ok.s 			page 18


 956              		.size	chThdExit, .-chThdExit
 957 0018 AFF30080 		.section	.text.chThdWait,"ax",%progbits
 957      AFF30080 
 958              		.align	2
 959              		.p2align 4,,15
 960              		.global	chThdWait
 961              		.thumb
 962              		.thumb_func
 963              		.type	chThdWait, %function
 964              	chThdWait:
 965              	.LFB19:
 966              		.loc 1 417 0
 967              		.cfi_startproc
 968              		@ args = 0, pretend = 0, frame = 0
 969              		@ frame_needed = 0, uses_anonymous_args = 0
 970              	.LVL81:
 971 0000 38B5     		push	{r3, r4, r5, lr}
 972              	.LCFI12:
 973              		.cfi_def_cfa_offset 16
 974              		.cfi_offset 14, -4
 975              		.cfi_offset 5, -8
 976              		.cfi_offset 4, -12
 977              		.cfi_offset 3, -16
 978              		.loc 1 420 0
 979 0002 0446     		mov	r4, r0
 980 0004 F0B1     		cbz	r0, .L56
 981              	.LVL82:
 982              	.L53:
 983              	.LBB53:
 984              		.loc 1 422 0
 985 0006 2023     		movs	r3, #32
 986              	.LVL83:
 987              	@ 422 "../chibios_2.4.x/os/kernel/src/chthreads.c" 1
 988 0008 83F31188 		msr     BASEPRI, r3
 989              	@ 0 "" 2
 990              	.LVL84:
 991              		.thumb
 992              	.LBE53:
 993              		.loc 1 423 0
 994 000c 40F20005 		movw	r5, #:lower16:rlist
 995 0010 C0F20005 		movt	r5, #:upper16:rlist
 996              		.loc 1 422 0
 997 0014 FFF7FEFF 		bl	dbg_check_lock
 998              	.LVL85:
 999              		.loc 1 423 0
 1000 0018 EB69     		ldr	r3, [r5, #28]
 1001 001a A342     		cmp	r3, r4
 1002 001c 19D0     		beq	.L57
 1003              	.L54:
 1004              		.loc 1 427 0
 1005 001e 94F82000 		ldrb	r0, [r4, #32]	@ zero_extendqisi2
 1006 0022 0E28     		cmp	r0, #14
 1007 0024 06D0     		beq	.L55
 1008              		.loc 1 428 0
 1009 0026 E969     		ldr	r1, [r5, #28]
 1010              	.LVL86:
 1011              	.LBB54:
ARM GAS  C:\Users\z80\AppData\Local\Temp\ccLrh9ok.s 			page 19


 1012              	.LBB55:
 1013              		.loc 2 82 0
 1014 0028 E26A     		ldr	r2, [r4, #44]
 1015              	.LBE55:
 1016              	.LBE54:
 1017              		.loc 1 429 0
 1018 002a 0720     		movs	r0, #7
 1019              	.LBB57:
 1020              	.LBB56:
 1021              		.loc 2 82 0
 1022 002c 0A60     		str	r2, [r1, #0]
 1023              		.loc 2 83 0
 1024 002e E162     		str	r1, [r4, #44]
 1025              	.LBE56:
 1026              	.LBE57:
 1027              		.loc 1 429 0
 1028 0030 FFF7FEFF 		bl	chSchGoSleepS
 1029              	.LVL87:
 1030              	.L55:
 1031              		.loc 1 431 0
 1032 0034 A46A     		ldr	r4, [r4, #40]
 1033              	.LVL88:
 1034              		.loc 1 432 0
 1035 0036 FFF7FEFF 		bl	dbg_check_unlock
 1036              	.LBB58:
 1037 003a 0023     		movs	r3, #0
 1038              	.LVL89:
 1039              	@ 432 "../chibios_2.4.x/os/kernel/src/chthreads.c" 1
 1040 003c 83F31188 		msr     BASEPRI, r3
 1041              	@ 0 "" 2
 1042              	.LVL90:
 1043              		.thumb
 1044              	.LBE58:
 1045              		.loc 1 437 0
 1046 0040 2046     		mov	r0, r4
 1047 0042 38BD     		pop	{r3, r4, r5, pc}
 1048              	.LVL91:
 1049              	.L56:
 1050              		.loc 1 420 0 discriminator 1
 1051 0044 40F20000 		movw	r0, #:lower16:.LC5
 1052              	.LVL92:
 1053 0048 C0F20000 		movt	r0, #:upper16:.LC5
 1054 004c FFF7FEFF 		bl	chDbgPanic
 1055 0050 D9E7     		b	.L53
 1056              	.L57:
 1057              		.loc 1 423 0 discriminator 1
 1058 0052 40F20000 		movw	r0, #:lower16:.LC6
 1059 0056 C0F20000 		movt	r0, #:upper16:.LC6
 1060 005a FFF7FEFF 		bl	chDbgPanic
 1061 005e DEE7     		b	.L54
 1062              		.cfi_endproc
 1063              	.LFE19:
 1064              		.size	chThdWait, .-chThdWait
 1065              		.section	.rodata.str1.4,"aMS",%progbits,1
 1066              		.align	2
 1067              	.LC0:
 1068 0000 22636854 		.ascii	"\"chThdCreateI\"()\000"
ARM GAS  C:\Users\z80\AppData\Local\Temp\ccLrh9ok.s 			page 20


 1068      68644372 
 1068      65617465 
 1068      49222829 
 1068      00
 1069 0011 000000   		.space	3
 1070              	.LC1:
 1071 0014 22636854 		.ascii	"\"chThdSetPriority\"()\000"
 1071      68645365 
 1071      74507269 
 1071      6F726974 
 1071      79222829 
 1072 0029 000000   		.space	3
 1073              	.LC2:
 1074 002c 63685468 		.ascii	"chThdResume(), #1\000"
 1074      64526573 
 1074      756D6528 
 1074      292C2023 
 1074      3100
 1075 003e 0000     		.space	2
 1076              	.LC3:
 1077 0040 22636854 		.ascii	"\"chThdSleep\"()\000"
 1077      6864536C 
 1077      65657022 
 1077      282900
 1078 004f 00       		.space	1
 1079              	.LC4:
 1080 0050 63685468 		.ascii	"chThdExitS(), #1\000"
 1080      64457869 
 1080      74532829 
 1080      2C202331 
 1080      00
 1081 0061 000000   		.space	3
 1082              	.LC5:
 1083 0064 22636854 		.ascii	"\"chThdWait\"()\000"
 1083      68645761 
 1083      69742228 
 1083      2900
 1084 0072 0000     		.space	2
 1085              	.LC6:
 1086 0074 63685468 		.ascii	"chThdWait(), #1\000"
 1086      64576169 
 1086      7428292C 
 1086      20233100 
 1087              		.text
 1088              	.Letext0:
 1089              		.file 3 "c:\\programs\\codesourcery\\2011.03-56\\bin\\../lib/gcc/arm-none-eabi/4.6.3/include/stdde
 1090              		.file 4 "c:\\programs\\codesourcery\\2011.03-56\\bin\\../lib/gcc/arm-none-eabi/4.6.3/../../../../a
 1091              		.file 5 "../chibios_2.4.x/os/ports/GCC/ARMCMx/chtypes.h"
 1092              		.file 6 "../chibios_2.4.x/os/kernel/include/chlists.h"
 1093              		.file 7 "../chibios_2.4.x/os/kernel/include/chthreads.h"
 1094              		.file 8 "../chibios_2.4.x/os/ports/GCC/ARMCMx/chcore_v7m.h"
 1095              		.file 9 "../chibios_2.4.x/os/kernel/include/chvt.h"
 1096              		.file 10 "../chibios_2.4.x/os/kernel/include/chschd.h"
 1097              		.file 11 "../chibios_2.4.x/os/kernel/include/chmtx.h"
 1098              		.section	.debug_info,"",%progbits
 1099              	.Ldebug_info0:
 1100 0000 580B0000 		.4byte	0xb58
ARM GAS  C:\Users\z80\AppData\Local\Temp\ccLrh9ok.s 			page 21


 1101 0004 0200     		.2byte	0x2
 1102 0006 00000000 		.4byte	.Ldebug_abbrev0
 1103 000a 04       		.byte	0x4
 1104 000b 01       		.uleb128 0x1
 1105 000c F5020000 		.4byte	.LASF92
 1106 0010 01       		.byte	0x1
 1107 0011 88030000 		.4byte	.LASF93
 1108 0015 9C000000 		.4byte	.LASF94
 1109 0019 00000000 		.4byte	0
 1110 001d 00000000 		.4byte	0
 1111 0021 D8000000 		.4byte	.Ldebug_ranges0+0xd8
 1112 0025 00000000 		.4byte	.Ldebug_line0
 1113 0029 02       		.uleb128 0x2
 1114 002a 04       		.byte	0x4
 1115 002b 05       		.byte	0x5
 1116 002c 696E7400 		.ascii	"int\000"
 1117 0030 03       		.uleb128 0x3
 1118 0031 0E000000 		.4byte	.LASF2
 1119 0035 03       		.byte	0x3
 1120 0036 D4       		.byte	0xd4
 1121 0037 3B000000 		.4byte	0x3b
 1122 003b 04       		.uleb128 0x4
 1123 003c 04       		.byte	0x4
 1124 003d 07       		.byte	0x7
 1125 003e 2A010000 		.4byte	.LASF0
 1126 0042 04       		.uleb128 0x4
 1127 0043 01       		.byte	0x1
 1128 0044 06       		.byte	0x6
 1129 0045 71000000 		.4byte	.LASF1
 1130 0049 03       		.uleb128 0x3
 1131 004a 80030000 		.4byte	.LASF3
 1132 004e 04       		.byte	0x4
 1133 004f 2A       		.byte	0x2a
 1134 0050 54000000 		.4byte	0x54
 1135 0054 04       		.uleb128 0x4
 1136 0055 01       		.byte	0x1
 1137 0056 08       		.byte	0x8
 1138 0057 61020000 		.4byte	.LASF4
 1139 005b 04       		.uleb128 0x4
 1140 005c 02       		.byte	0x2
 1141 005d 05       		.byte	0x5
 1142 005e 79020000 		.4byte	.LASF5
 1143 0062 04       		.uleb128 0x4
 1144 0063 02       		.byte	0x2
 1145 0064 07       		.byte	0x7
 1146 0065 5E010000 		.4byte	.LASF6
 1147 0069 03       		.uleb128 0x3
 1148 006a 59020000 		.4byte	.LASF7
 1149 006e 04       		.byte	0x4
 1150 006f 4F       		.byte	0x4f
 1151 0070 74000000 		.4byte	0x74
 1152 0074 04       		.uleb128 0x4
 1153 0075 04       		.byte	0x4
 1154 0076 05       		.byte	0x5
 1155 0077 C9000000 		.4byte	.LASF8
 1156 007b 03       		.uleb128 0x3
 1157 007c CA020000 		.4byte	.LASF9
ARM GAS  C:\Users\z80\AppData\Local\Temp\ccLrh9ok.s 			page 22


 1158 0080 04       		.byte	0x4
 1159 0081 50       		.byte	0x50
 1160 0082 86000000 		.4byte	0x86
 1161 0086 04       		.uleb128 0x4
 1162 0087 04       		.byte	0x4
 1163 0088 07       		.byte	0x7
 1164 0089 3F010000 		.4byte	.LASF10
 1165 008d 04       		.uleb128 0x4
 1166 008e 08       		.byte	0x8
 1167 008f 05       		.byte	0x5
 1168 0090 63000000 		.4byte	.LASF11
 1169 0094 03       		.uleb128 0x3
 1170 0095 21000000 		.4byte	.LASF12
 1171 0099 04       		.byte	0x4
 1172 009a 78       		.byte	0x78
 1173 009b 9F000000 		.4byte	0x9f
 1174 009f 04       		.uleb128 0x4
 1175 00a0 08       		.byte	0x8
 1176 00a1 07       		.byte	0x7
 1177 00a2 3C000000 		.4byte	.LASF13
 1178 00a6 03       		.uleb128 0x3
 1179 00a7 7F010000 		.4byte	.LASF14
 1180 00ab 05       		.byte	0x5
 1181 00ac 2F       		.byte	0x2f
 1182 00ad 49000000 		.4byte	0x49
 1183 00b1 03       		.uleb128 0x3
 1184 00b2 D2000000 		.4byte	.LASF15
 1185 00b6 05       		.byte	0x5
 1186 00b7 30       		.byte	0x30
 1187 00b8 49000000 		.4byte	0x49
 1188 00bc 03       		.uleb128 0x3
 1189 00bd 51020000 		.4byte	.LASF16
 1190 00c1 05       		.byte	0x5
 1191 00c2 32       		.byte	0x32
 1192 00c3 7B000000 		.4byte	0x7b
 1193 00c7 03       		.uleb128 0x3
 1194 00c8 71010000 		.4byte	.LASF17
 1195 00cc 05       		.byte	0x5
 1196 00cd 33       		.byte	0x33
 1197 00ce 69000000 		.4byte	0x69
 1198 00d2 03       		.uleb128 0x3
 1199 00d3 A2010000 		.4byte	.LASF18
 1200 00d7 05       		.byte	0x5
 1201 00d8 35       		.byte	0x35
 1202 00d9 7B000000 		.4byte	0x7b
 1203 00dd 03       		.uleb128 0x3
 1204 00de 0D030000 		.4byte	.LASF19
 1205 00e2 05       		.byte	0x5
 1206 00e3 36       		.byte	0x36
 1207 00e4 7B000000 		.4byte	0x7b
 1208 00e8 03       		.uleb128 0x3
 1209 00e9 19010000 		.4byte	.LASF20
 1210 00ed 05       		.byte	0x5
 1211 00ee 37       		.byte	0x37
 1212 00ef 69000000 		.4byte	0x69
 1213 00f3 03       		.uleb128 0x3
 1214 00f4 B8020000 		.4byte	.LASF21
ARM GAS  C:\Users\z80\AppData\Local\Temp\ccLrh9ok.s 			page 23


 1215 00f8 06       		.byte	0x6
 1216 00f9 2A       		.byte	0x2a
 1217 00fa FE000000 		.4byte	0xfe
 1218 00fe 05       		.uleb128 0x5
 1219 00ff B8020000 		.4byte	.LASF21
 1220 0103 48       		.byte	0x48
 1221 0104 07       		.byte	0x7
 1222 0105 5E       		.byte	0x5e
 1223 0106 07020000 		.4byte	0x207
 1224 010a 06       		.uleb128 0x6
 1225 010b 99020000 		.4byte	.LASF22
 1226 010f 07       		.byte	0x7
 1227 0110 5F       		.byte	0x5f
 1228 0111 2C020000 		.4byte	0x22c
 1229 0115 02       		.byte	0x2
 1230 0116 23       		.byte	0x23
 1231 0117 00       		.uleb128 0
 1232 0118 06       		.uleb128 0x6
 1233 0119 4A020000 		.4byte	.LASF23
 1234 011d 07       		.byte	0x7
 1235 011e 61       		.byte	0x61
 1236 011f 2C020000 		.4byte	0x22c
 1237 0123 02       		.byte	0x2
 1238 0124 23       		.byte	0x23
 1239 0125 04       		.uleb128 0x4
 1240 0126 06       		.uleb128 0x6
 1241 0127 5C000000 		.4byte	.LASF24
 1242 012b 07       		.byte	0x7
 1243 012c 63       		.byte	0x63
 1244 012d BC000000 		.4byte	0xbc
 1245 0131 02       		.byte	0x2
 1246 0132 23       		.byte	0x23
 1247 0133 08       		.uleb128 0x8
 1248 0134 06       		.uleb128 0x6
 1249 0135 E5030000 		.4byte	.LASF25
 1250 0139 07       		.byte	0x7
 1251 013a 64       		.byte	0x64
 1252 013b 04030000 		.4byte	0x304
 1253 013f 02       		.byte	0x2
 1254 0140 23       		.byte	0x23
 1255 0141 0C       		.uleb128 0xc
 1256 0142 06       		.uleb128 0x6
 1257 0143 DB000000 		.4byte	.LASF26
 1258 0147 07       		.byte	0x7
 1259 0148 66       		.byte	0x66
 1260 0149 2C020000 		.4byte	0x22c
 1261 014d 02       		.byte	0x2
 1262 014e 23       		.byte	0x23
 1263 014f 10       		.uleb128 0x10
 1264 0150 06       		.uleb128 0x6
 1265 0151 FC010000 		.4byte	.LASF27
 1266 0155 07       		.byte	0x7
 1267 0156 67       		.byte	0x67
 1268 0157 2C020000 		.4byte	0x22c
 1269 015b 02       		.byte	0x2
 1270 015c 23       		.byte	0x23
 1271 015d 14       		.uleb128 0x14
ARM GAS  C:\Users\z80\AppData\Local\Temp\ccLrh9ok.s 			page 24


 1272 015e 06       		.uleb128 0x6
 1273 015f BA030000 		.4byte	.LASF28
 1274 0163 07       		.byte	0x7
 1275 0164 6E       		.byte	0x6e
 1276 0165 EC040000 		.4byte	0x4ec
 1277 0169 02       		.byte	0x2
 1278 016a 23       		.byte	0x23
 1279 016b 18       		.uleb128 0x18
 1280 016c 06       		.uleb128 0x6
 1281 016d 1F010000 		.4byte	.LASF29
 1282 0171 07       		.byte	0x7
 1283 0172 74       		.byte	0x74
 1284 0173 FE040000 		.4byte	0x4fe
 1285 0177 02       		.byte	0x2
 1286 0178 23       		.byte	0x23
 1287 0179 1C       		.uleb128 0x1c
 1288 017a 06       		.uleb128 0x6
 1289 017b 83020000 		.4byte	.LASF30
 1290 017f 07       		.byte	0x7
 1291 0180 79       		.byte	0x79
 1292 0181 B1000000 		.4byte	0xb1
 1293 0185 02       		.byte	0x2
 1294 0186 23       		.byte	0x23
 1295 0187 20       		.uleb128 0x20
 1296 0188 06       		.uleb128 0x6
 1297 0189 A0020000 		.4byte	.LASF31
 1298 018d 07       		.byte	0x7
 1299 018e 7D       		.byte	0x7d
 1300 018f A6000000 		.4byte	0xa6
 1301 0193 02       		.byte	0x2
 1302 0194 23       		.byte	0x23
 1303 0195 21       		.uleb128 0x21
 1304 0196 06       		.uleb128 0x6
 1305 0197 36030000 		.4byte	.LASF32
 1306 019b 07       		.byte	0x7
 1307 019c 89       		.byte	0x89
 1308 019d E9030000 		.4byte	0x3e9
 1309 01a1 02       		.byte	0x2
 1310 01a2 23       		.byte	0x23
 1311 01a3 24       		.uleb128 0x24
 1312 01a4 07       		.uleb128 0x7
 1313 01a5 705F7500 		.ascii	"p_u\000"
 1314 01a9 07       		.byte	0x7
 1315 01aa AE       		.byte	0xae
 1316 01ab B7040000 		.4byte	0x4b7
 1317 01af 02       		.byte	0x2
 1318 01b0 23       		.byte	0x23
 1319 01b1 28       		.uleb128 0x28
 1320 01b2 06       		.uleb128 0x6
 1321 01b3 EB030000 		.4byte	.LASF33
 1322 01b7 07       		.byte	0x7
 1323 01b8 B3       		.byte	0xb3
 1324 01b9 54020000 		.4byte	0x254
 1325 01bd 02       		.byte	0x2
 1326 01be 23       		.byte	0x23
 1327 01bf 2C       		.uleb128 0x2c
 1328 01c0 06       		.uleb128 0x6
ARM GAS  C:\Users\z80\AppData\Local\Temp\ccLrh9ok.s 			page 25


 1329 01c1 44030000 		.4byte	.LASF34
 1330 01c5 07       		.byte	0x7
 1331 01c6 B9       		.byte	0xb9
 1332 01c7 32020000 		.4byte	0x232
 1333 01cb 02       		.byte	0x2
 1334 01cc 23       		.byte	0x23
 1335 01cd 30       		.uleb128 0x30
 1336 01ce 06       		.uleb128 0x6
 1337 01cf 08000000 		.4byte	.LASF35
 1338 01d3 07       		.byte	0x7
 1339 01d4 BD       		.byte	0xbd
 1340 01d5 C7000000 		.4byte	0xc7
 1341 01d9 02       		.byte	0x2
 1342 01da 23       		.byte	0x23
 1343 01db 38       		.uleb128 0x38
 1344 01dc 06       		.uleb128 0x6
 1345 01dd BF020000 		.4byte	.LASF36
 1346 01e1 07       		.byte	0x7
 1347 01e2 C3       		.byte	0xc3
 1348 01e3 D2000000 		.4byte	0xd2
 1349 01e7 02       		.byte	0x2
 1350 01e8 23       		.byte	0x23
 1351 01e9 3C       		.uleb128 0x3c
 1352 01ea 06       		.uleb128 0x6
 1353 01eb 6F020000 		.4byte	.LASF37
 1354 01ef 07       		.byte	0x7
 1355 01f0 CA       		.byte	0xca
 1356 01f1 04050000 		.4byte	0x504
 1357 01f5 02       		.byte	0x2
 1358 01f6 23       		.byte	0x23
 1359 01f7 40       		.uleb128 0x40
 1360 01f8 06       		.uleb128 0x6
 1361 01f9 17030000 		.4byte	.LASF38
 1362 01fd 07       		.byte	0x7
 1363 01fe CE       		.byte	0xce
 1364 01ff BC000000 		.4byte	0xbc
 1365 0203 02       		.byte	0x2
 1366 0204 23       		.byte	0x23
 1367 0205 44       		.uleb128 0x44
 1368 0206 00       		.byte	0
 1369 0207 08       		.uleb128 0x8
 1370 0208 08       		.byte	0x8
 1371 0209 06       		.byte	0x6
 1372 020a 61       		.byte	0x61
 1373 020b 2C020000 		.4byte	0x22c
 1374 020f 06       		.uleb128 0x6
 1375 0210 99020000 		.4byte	.LASF22
 1376 0214 06       		.byte	0x6
 1377 0215 62       		.byte	0x62
 1378 0216 2C020000 		.4byte	0x22c
 1379 021a 02       		.byte	0x2
 1380 021b 23       		.byte	0x23
 1381 021c 00       		.uleb128 0
 1382 021d 06       		.uleb128 0x6
 1383 021e 4A020000 		.4byte	.LASF23
 1384 0222 06       		.byte	0x6
 1385 0223 64       		.byte	0x64
ARM GAS  C:\Users\z80\AppData\Local\Temp\ccLrh9ok.s 			page 26


 1386 0224 2C020000 		.4byte	0x22c
 1387 0228 02       		.byte	0x2
 1388 0229 23       		.byte	0x23
 1389 022a 04       		.uleb128 0x4
 1390 022b 00       		.byte	0
 1391 022c 09       		.uleb128 0x9
 1392 022d 04       		.byte	0x4
 1393 022e F3000000 		.4byte	0xf3
 1394 0232 03       		.uleb128 0x3
 1395 0233 0A020000 		.4byte	.LASF39
 1396 0237 06       		.byte	0x6
 1397 0238 66       		.byte	0x66
 1398 0239 07020000 		.4byte	0x207
 1399 023d 08       		.uleb128 0x8
 1400 023e 04       		.byte	0x4
 1401 023f 06       		.byte	0x6
 1402 0240 6B       		.byte	0x6b
 1403 0241 54020000 		.4byte	0x254
 1404 0245 06       		.uleb128 0x6
 1405 0246 99020000 		.4byte	.LASF22
 1406 024a 06       		.byte	0x6
 1407 024b 6D       		.byte	0x6d
 1408 024c 2C020000 		.4byte	0x22c
 1409 0250 02       		.byte	0x2
 1410 0251 23       		.byte	0x23
 1411 0252 00       		.uleb128 0
 1412 0253 00       		.byte	0
 1413 0254 03       		.uleb128 0x3
 1414 0255 96010000 		.4byte	.LASF40
 1415 0259 06       		.byte	0x6
 1416 025a 70       		.byte	0x70
 1417 025b 3D020000 		.4byte	0x23d
 1418 025f 03       		.uleb128 0x3
 1419 0260 F7000000 		.4byte	.LASF41
 1420 0264 08       		.byte	0x8
 1421 0265 D7       		.byte	0xd7
 1422 0266 6A020000 		.4byte	0x26a
 1423 026a 0A       		.uleb128 0xa
 1424 026b 04       		.byte	0x4
 1425 026c 03       		.uleb128 0x3
 1426 026d BC010000 		.4byte	.LASF42
 1427 0271 08       		.byte	0x8
 1428 0272 DD       		.byte	0xdd
 1429 0273 94000000 		.4byte	0x94
 1430 0277 05       		.uleb128 0x5
 1431 0278 3D030000 		.4byte	.LASF43
 1432 027c 24       		.byte	0x24
 1433 027d 08       		.byte	0x8
 1434 027e FE       		.byte	0xfe
 1435 027f 04030000 		.4byte	0x304
 1436 0283 0B       		.uleb128 0xb
 1437 0284 723400   		.ascii	"r4\000"
 1438 0287 08       		.byte	0x8
 1439 0288 1101     		.2byte	0x111
 1440 028a 5F020000 		.4byte	0x25f
 1441 028e 02       		.byte	0x2
 1442 028f 23       		.byte	0x23
ARM GAS  C:\Users\z80\AppData\Local\Temp\ccLrh9ok.s 			page 27


 1443 0290 00       		.uleb128 0
 1444 0291 0B       		.uleb128 0xb
 1445 0292 723500   		.ascii	"r5\000"
 1446 0295 08       		.byte	0x8
 1447 0296 1201     		.2byte	0x112
 1448 0298 5F020000 		.4byte	0x25f
 1449 029c 02       		.byte	0x2
 1450 029d 23       		.byte	0x23
 1451 029e 04       		.uleb128 0x4
 1452 029f 0B       		.uleb128 0xb
 1453 02a0 723600   		.ascii	"r6\000"
 1454 02a3 08       		.byte	0x8
 1455 02a4 1301     		.2byte	0x113
 1456 02a6 5F020000 		.4byte	0x25f
 1457 02aa 02       		.byte	0x2
 1458 02ab 23       		.byte	0x23
 1459 02ac 08       		.uleb128 0x8
 1460 02ad 0B       		.uleb128 0xb
 1461 02ae 723700   		.ascii	"r7\000"
 1462 02b1 08       		.byte	0x8
 1463 02b2 1401     		.2byte	0x114
 1464 02b4 5F020000 		.4byte	0x25f
 1465 02b8 02       		.byte	0x2
 1466 02b9 23       		.byte	0x23
 1467 02ba 0C       		.uleb128 0xc
 1468 02bb 0B       		.uleb128 0xb
 1469 02bc 723800   		.ascii	"r8\000"
 1470 02bf 08       		.byte	0x8
 1471 02c0 1501     		.2byte	0x115
 1472 02c2 5F020000 		.4byte	0x25f
 1473 02c6 02       		.byte	0x2
 1474 02c7 23       		.byte	0x23
 1475 02c8 10       		.uleb128 0x10
 1476 02c9 0B       		.uleb128 0xb
 1477 02ca 723900   		.ascii	"r9\000"
 1478 02cd 08       		.byte	0x8
 1479 02ce 1601     		.2byte	0x116
 1480 02d0 5F020000 		.4byte	0x25f
 1481 02d4 02       		.byte	0x2
 1482 02d5 23       		.byte	0x23
 1483 02d6 14       		.uleb128 0x14
 1484 02d7 0B       		.uleb128 0xb
 1485 02d8 72313000 		.ascii	"r10\000"
 1486 02dc 08       		.byte	0x8
 1487 02dd 1701     		.2byte	0x117
 1488 02df 5F020000 		.4byte	0x25f
 1489 02e3 02       		.byte	0x2
 1490 02e4 23       		.byte	0x23
 1491 02e5 18       		.uleb128 0x18
 1492 02e6 0B       		.uleb128 0xb
 1493 02e7 72313100 		.ascii	"r11\000"
 1494 02eb 08       		.byte	0x8
 1495 02ec 1801     		.2byte	0x118
 1496 02ee 5F020000 		.4byte	0x25f
 1497 02f2 02       		.byte	0x2
 1498 02f3 23       		.byte	0x23
 1499 02f4 1C       		.uleb128 0x1c
ARM GAS  C:\Users\z80\AppData\Local\Temp\ccLrh9ok.s 			page 28


 1500 02f5 0B       		.uleb128 0xb
 1501 02f6 6C7200   		.ascii	"lr\000"
 1502 02f9 08       		.byte	0x8
 1503 02fa 1901     		.2byte	0x119
 1504 02fc 5F020000 		.4byte	0x25f
 1505 0300 02       		.byte	0x2
 1506 0301 23       		.byte	0x23
 1507 0302 20       		.uleb128 0x20
 1508 0303 00       		.byte	0
 1509 0304 0C       		.uleb128 0xc
 1510 0305 51010000 		.4byte	.LASF44
 1511 0309 04       		.byte	0x4
 1512 030a 08       		.byte	0x8
 1513 030b 2301     		.2byte	0x123
 1514 030d 21030000 		.4byte	0x321
 1515 0311 0B       		.uleb128 0xb
 1516 0312 72313300 		.ascii	"r13\000"
 1517 0316 08       		.byte	0x8
 1518 0317 2401     		.2byte	0x124
 1519 0319 21030000 		.4byte	0x321
 1520 031d 02       		.byte	0x2
 1521 031e 23       		.byte	0x23
 1522 031f 00       		.uleb128 0
 1523 0320 00       		.byte	0
 1524 0321 09       		.uleb128 0x9
 1525 0322 04       		.byte	0x4
 1526 0323 77020000 		.4byte	0x277
 1527 0327 03       		.uleb128 0x3
 1528 0328 22030000 		.4byte	.LASF45
 1529 032c 09       		.byte	0x9
 1530 032d 53       		.byte	0x53
 1531 032e 32030000 		.4byte	0x332
 1532 0332 09       		.uleb128 0x9
 1533 0333 04       		.byte	0x4
 1534 0334 38030000 		.4byte	0x338
 1535 0338 0D       		.uleb128 0xd
 1536 0339 01       		.byte	0x1
 1537 033a 44030000 		.4byte	0x344
 1538 033e 0E       		.uleb128 0xe
 1539 033f 6A020000 		.4byte	0x26a
 1540 0343 00       		.byte	0
 1541 0344 03       		.uleb128 0x3
 1542 0345 E8020000 		.4byte	.LASF46
 1543 0349 09       		.byte	0x9
 1544 034a 58       		.byte	0x58
 1545 034b 4F030000 		.4byte	0x34f
 1546 034f 05       		.uleb128 0x5
 1547 0350 E8020000 		.4byte	.LASF46
 1548 0354 14       		.byte	0x14
 1549 0355 09       		.byte	0x9
 1550 0356 5F       		.byte	0x5f
 1551 0357 A2030000 		.4byte	0x3a2
 1552 035b 06       		.uleb128 0x6
 1553 035c 37010000 		.4byte	.LASF47
 1554 0360 09       		.byte	0x9
 1555 0361 60       		.byte	0x60
 1556 0362 A2030000 		.4byte	0x3a2
ARM GAS  C:\Users\z80\AppData\Local\Temp\ccLrh9ok.s 			page 29


 1557 0366 02       		.byte	0x2
 1558 0367 23       		.byte	0x23
 1559 0368 00       		.uleb128 0
 1560 0369 06       		.uleb128 0x6
 1561 036a 00010000 		.4byte	.LASF48
 1562 036e 09       		.byte	0x9
 1563 036f 62       		.byte	0x62
 1564 0370 A2030000 		.4byte	0x3a2
 1565 0374 02       		.byte	0x2
 1566 0375 23       		.byte	0x23
 1567 0376 04       		.uleb128 0x4
 1568 0377 06       		.uleb128 0x6
 1569 0378 D9010000 		.4byte	.LASF49
 1570 037c 09       		.byte	0x9
 1571 037d 64       		.byte	0x64
 1572 037e DD000000 		.4byte	0xdd
 1573 0382 02       		.byte	0x2
 1574 0383 23       		.byte	0x23
 1575 0384 08       		.uleb128 0x8
 1576 0385 06       		.uleb128 0x6
 1577 0386 E1010000 		.4byte	.LASF50
 1578 038a 09       		.byte	0x9
 1579 038b 65       		.byte	0x65
 1580 038c 27030000 		.4byte	0x327
 1581 0390 02       		.byte	0x2
 1582 0391 23       		.byte	0x23
 1583 0392 0C       		.uleb128 0xc
 1584 0393 06       		.uleb128 0x6
 1585 0394 5E030000 		.4byte	.LASF51
 1586 0398 09       		.byte	0x9
 1587 0399 67       		.byte	0x67
 1588 039a 6A020000 		.4byte	0x26a
 1589 039e 02       		.byte	0x2
 1590 039f 23       		.byte	0x23
 1591 03a0 10       		.uleb128 0x10
 1592 03a1 00       		.byte	0
 1593 03a2 09       		.uleb128 0x9
 1594 03a3 04       		.byte	0x4
 1595 03a4 44030000 		.4byte	0x344
 1596 03a8 08       		.uleb128 0x8
 1597 03a9 10       		.byte	0x10
 1598 03aa 09       		.byte	0x9
 1599 03ab 71       		.byte	0x71
 1600 03ac E9030000 		.4byte	0x3e9
 1601 03b0 06       		.uleb128 0x6
 1602 03b1 37010000 		.4byte	.LASF47
 1603 03b5 09       		.byte	0x9
 1604 03b6 72       		.byte	0x72
 1605 03b7 A2030000 		.4byte	0x3a2
 1606 03bb 02       		.byte	0x2
 1607 03bc 23       		.byte	0x23
 1608 03bd 00       		.uleb128 0
 1609 03be 06       		.uleb128 0x6
 1610 03bf 00010000 		.4byte	.LASF48
 1611 03c3 09       		.byte	0x9
 1612 03c4 74       		.byte	0x74
 1613 03c5 A2030000 		.4byte	0x3a2
ARM GAS  C:\Users\z80\AppData\Local\Temp\ccLrh9ok.s 			page 30


 1614 03c9 02       		.byte	0x2
 1615 03ca 23       		.byte	0x23
 1616 03cb 04       		.uleb128 0x4
 1617 03cc 06       		.uleb128 0x6
 1618 03cd D9010000 		.4byte	.LASF49
 1619 03d1 09       		.byte	0x9
 1620 03d2 76       		.byte	0x76
 1621 03d3 DD000000 		.4byte	0xdd
 1622 03d7 02       		.byte	0x2
 1623 03d8 23       		.byte	0x23
 1624 03d9 08       		.uleb128 0x8
 1625 03da 06       		.uleb128 0x6
 1626 03db C1030000 		.4byte	.LASF52
 1627 03df 09       		.byte	0x9
 1628 03e0 77       		.byte	0x77
 1629 03e1 E9030000 		.4byte	0x3e9
 1630 03e5 02       		.byte	0x2
 1631 03e6 23       		.byte	0x23
 1632 03e7 0C       		.uleb128 0xc
 1633 03e8 00       		.byte	0
 1634 03e9 0F       		.uleb128 0xf
 1635 03ea DD000000 		.4byte	0xdd
 1636 03ee 03       		.uleb128 0x3
 1637 03ef CC030000 		.4byte	.LASF53
 1638 03f3 09       		.byte	0x9
 1639 03f4 78       		.byte	0x78
 1640 03f5 A8030000 		.4byte	0x3a8
 1641 03f9 08       		.uleb128 0x8
 1642 03fa 20       		.byte	0x20
 1643 03fb 0A       		.byte	0xa
 1644 03fc 5E       		.byte	0x5e
 1645 03fd 64040000 		.4byte	0x464
 1646 0401 06       		.uleb128 0x6
 1647 0402 E0020000 		.4byte	.LASF54
 1648 0406 0A       		.byte	0xa
 1649 0407 5F       		.byte	0x5f
 1650 0408 32020000 		.4byte	0x232
 1651 040c 02       		.byte	0x2
 1652 040d 23       		.byte	0x23
 1653 040e 00       		.uleb128 0
 1654 040f 06       		.uleb128 0x6
 1655 0410 8B020000 		.4byte	.LASF55
 1656 0414 0A       		.byte	0xa
 1657 0415 60       		.byte	0x60
 1658 0416 BC000000 		.4byte	0xbc
 1659 041a 02       		.byte	0x2
 1660 041b 23       		.byte	0x23
 1661 041c 08       		.uleb128 0x8
 1662 041d 06       		.uleb128 0x6
 1663 041e 04020000 		.4byte	.LASF56
 1664 0422 0A       		.byte	0xa
 1665 0423 62       		.byte	0x62
 1666 0424 04030000 		.4byte	0x304
 1667 0428 02       		.byte	0x2
 1668 0429 23       		.byte	0x23
 1669 042a 0C       		.uleb128 0xc
 1670 042b 06       		.uleb128 0x6
ARM GAS  C:\Users\z80\AppData\Local\Temp\ccLrh9ok.s 			page 31


 1671 042c EF000000 		.4byte	.LASF57
 1672 0430 0A       		.byte	0xa
 1673 0431 65       		.byte	0x65
 1674 0432 2C020000 		.4byte	0x22c
 1675 0436 02       		.byte	0x2
 1676 0437 23       		.byte	0x23
 1677 0438 10       		.uleb128 0x10
 1678 0439 06       		.uleb128 0x6
 1679 043a 32020000 		.4byte	.LASF58
 1680 043e 0A       		.byte	0xa
 1681 043f 66       		.byte	0x66
 1682 0440 2C020000 		.4byte	0x22c
 1683 0444 02       		.byte	0x2
 1684 0445 23       		.byte	0x23
 1685 0446 14       		.uleb128 0x14
 1686 0447 06       		.uleb128 0x6
 1687 0448 D3030000 		.4byte	.LASF59
 1688 044c 0A       		.byte	0xa
 1689 044d 6A       		.byte	0x6a
 1690 044e E8000000 		.4byte	0xe8
 1691 0452 02       		.byte	0x2
 1692 0453 23       		.byte	0x23
 1693 0454 18       		.uleb128 0x18
 1694 0455 06       		.uleb128 0x6
 1695 0456 28020000 		.4byte	.LASF60
 1696 045a 0A       		.byte	0xa
 1697 045b 6C       		.byte	0x6c
 1698 045c 2C020000 		.4byte	0x22c
 1699 0460 02       		.byte	0x2
 1700 0461 23       		.byte	0x23
 1701 0462 1C       		.uleb128 0x1c
 1702 0463 00       		.byte	0
 1703 0464 03       		.uleb128 0x3
 1704 0465 70030000 		.4byte	.LASF61
 1705 0469 0A       		.byte	0xa
 1706 046a 6E       		.byte	0x6e
 1707 046b F9030000 		.4byte	0x3f9
 1708 046f 05       		.uleb128 0x5
 1709 0470 AE010000 		.4byte	.LASF62
 1710 0474 10       		.byte	0x10
 1711 0475 0B       		.byte	0xb
 1712 0476 2C       		.byte	0x2c
 1713 0477 A6040000 		.4byte	0x4a6
 1714 047b 06       		.uleb128 0x6
 1715 047c 87000000 		.4byte	.LASF63
 1716 0480 0B       		.byte	0xb
 1717 0481 2D       		.byte	0x2d
 1718 0482 32020000 		.4byte	0x232
 1719 0486 02       		.byte	0x2
 1720 0487 23       		.byte	0x23
 1721 0488 00       		.uleb128 0
 1722 0489 06       		.uleb128 0x6
 1723 048a DD030000 		.4byte	.LASF64
 1724 048e 0B       		.byte	0xb
 1725 048f 2F       		.byte	0x2f
 1726 0490 2C020000 		.4byte	0x22c
 1727 0494 02       		.byte	0x2
ARM GAS  C:\Users\z80\AppData\Local\Temp\ccLrh9ok.s 			page 32


 1728 0495 23       		.byte	0x23
 1729 0496 08       		.uleb128 0x8
 1730 0497 06       		.uleb128 0x6
 1731 0498 06030000 		.4byte	.LASF65
 1732 049c 0B       		.byte	0xb
 1733 049d 31       		.byte	0x31
 1734 049e A6040000 		.4byte	0x4a6
 1735 04a2 02       		.byte	0x2
 1736 04a3 23       		.byte	0x23
 1737 04a4 0C       		.uleb128 0xc
 1738 04a5 00       		.byte	0
 1739 04a6 09       		.uleb128 0x9
 1740 04a7 04       		.byte	0x4
 1741 04a8 6F040000 		.4byte	0x46f
 1742 04ac 03       		.uleb128 0x3
 1743 04ad AE010000 		.4byte	.LASF62
 1744 04b1 0B       		.byte	0xb
 1745 04b2 33       		.byte	0x33
 1746 04b3 6F040000 		.4byte	0x46f
 1747 04b7 10       		.uleb128 0x10
 1748 04b8 04       		.byte	0x4
 1749 04b9 07       		.byte	0x7
 1750 04ba 90       		.byte	0x90
 1751 04bb EC040000 		.4byte	0x4ec
 1752 04bf 11       		.uleb128 0x11
 1753 04c0 1A000000 		.4byte	.LASF66
 1754 04c4 07       		.byte	0x7
 1755 04c5 97       		.byte	0x97
 1756 04c6 C7000000 		.4byte	0xc7
 1757 04ca 11       		.uleb128 0x11
 1758 04cb 53000000 		.4byte	.LASF67
 1759 04cf 07       		.byte	0x7
 1760 04d0 9E       		.byte	0x9e
 1761 04d1 C7000000 		.4byte	0xc7
 1762 04d5 11       		.uleb128 0x11
 1763 04d6 B3030000 		.4byte	.LASF68
 1764 04da 07       		.byte	0x7
 1765 04db A5       		.byte	0xa5
 1766 04dc 6A020000 		.4byte	0x26a
 1767 04e0 11       		.uleb128 0x11
 1768 04e1 92020000 		.4byte	.LASF69
 1769 04e5 07       		.byte	0x7
 1770 04e6 AC       		.byte	0xac
 1771 04e7 D2000000 		.4byte	0xd2
 1772 04eb 00       		.byte	0
 1773 04ec 09       		.uleb128 0x9
 1774 04ed 04       		.byte	0x4
 1775 04ee F2040000 		.4byte	0x4f2
 1776 04f2 12       		.uleb128 0x12
 1777 04f3 F7040000 		.4byte	0x4f7
 1778 04f7 04       		.uleb128 0x4
 1779 04f8 01       		.byte	0x1
 1780 04f9 08       		.byte	0x8
 1781 04fa 01030000 		.4byte	.LASF70
 1782 04fe 09       		.uleb128 0x9
 1783 04ff 04       		.byte	0x4
 1784 0500 6C020000 		.4byte	0x26c
ARM GAS  C:\Users\z80\AppData\Local\Temp\ccLrh9ok.s 			page 33


 1785 0504 09       		.uleb128 0x9
 1786 0505 04       		.byte	0x4
 1787 0506 AC040000 		.4byte	0x4ac
 1788 050a 03       		.uleb128 0x3
 1789 050b 00000000 		.4byte	.LASF71
 1790 050f 07       		.byte	0x7
 1791 0510 DF       		.byte	0xdf
 1792 0511 15050000 		.4byte	0x515
 1793 0515 09       		.uleb128 0x9
 1794 0516 04       		.byte	0x4
 1795 0517 1B050000 		.4byte	0x51b
 1796 051b 13       		.uleb128 0x13
 1797 051c 01       		.byte	0x1
 1798 051d C7000000 		.4byte	0xc7
 1799 0521 2B050000 		.4byte	0x52b
 1800 0525 0E       		.uleb128 0xe
 1801 0526 6A020000 		.4byte	0x26a
 1802 052a 00       		.byte	0
 1803 052b 09       		.uleb128 0x9
 1804 052c 04       		.byte	0x4
 1805 052d 49000000 		.4byte	0x49
 1806 0531 14       		.uleb128 0x14
 1807 0532 01       		.byte	0x1
 1808 0533 D3020000 		.4byte	.LASF95
 1809 0537 01       		.byte	0x1
 1810 0538 4C       		.byte	0x4c
 1811 0539 01       		.byte	0x1
 1812 053a 2C020000 		.4byte	0x22c
 1813 053e 01       		.byte	0x1
 1814 053f 59050000 		.4byte	0x559
 1815 0543 15       		.uleb128 0x15
 1816 0544 747000   		.ascii	"tp\000"
 1817 0547 01       		.byte	0x1
 1818 0548 4C       		.byte	0x4c
 1819 0549 2C020000 		.4byte	0x22c
 1820 054d 16       		.uleb128 0x16
 1821 054e 15000000 		.4byte	.LASF72
 1822 0552 01       		.byte	0x1
 1823 0553 4C       		.byte	0x4c
 1824 0554 BC000000 		.4byte	0xbc
 1825 0558 00       		.byte	0
 1826 0559 17       		.uleb128 0x17
 1827 055a 01       		.byte	0x1
 1828 055b A8020000 		.4byte	.LASF96
 1829 055f 01       		.byte	0x1
 1830 0560 7B       		.byte	0x7b
 1831 0561 01       		.byte	0x1
 1832 0562 01       		.byte	0x1
 1833 0563 87050000 		.4byte	0x587
 1834 0567 16       		.uleb128 0x16
 1835 0568 F5010000 		.4byte	.LASF73
 1836 056c 01       		.byte	0x1
 1837 056d 7B       		.byte	0x7b
 1838 056e 2B050000 		.4byte	0x52b
 1839 0572 16       		.uleb128 0x16
 1840 0573 4F030000 		.4byte	.LASF74
 1841 0577 01       		.byte	0x1
ARM GAS  C:\Users\z80\AppData\Local\Temp\ccLrh9ok.s 			page 34


 1842 0578 7B       		.byte	0x7b
 1843 0579 2B050000 		.4byte	0x52b
 1844 057d 15       		.uleb128 0x15
 1845 057e 7600     		.ascii	"v\000"
 1846 0580 01       		.byte	0x1
 1847 0581 7B       		.byte	0x7b
 1848 0582 49000000 		.4byte	0x49
 1849 0586 00       		.byte	0
 1850 0587 18       		.uleb128 0x18
 1851 0588 E3000000 		.4byte	.LASF97
 1852 058c 02       		.byte	0x2
 1853 058d 56       		.byte	0x56
 1854 058e 01       		.byte	0x1
 1855 058f 2C020000 		.4byte	0x22c
 1856 0593 03       		.byte	0x3
 1857 0594 AE050000 		.4byte	0x5ae
 1858 0598 15       		.uleb128 0x15
 1859 0599 746C7000 		.ascii	"tlp\000"
 1860 059d 02       		.byte	0x2
 1861 059e 56       		.byte	0x56
 1862 059f AE050000 		.4byte	0x5ae
 1863 05a3 19       		.uleb128 0x19
 1864 05a4 747000   		.ascii	"tp\000"
 1865 05a7 02       		.byte	0x2
 1866 05a8 58       		.byte	0x58
 1867 05a9 2C020000 		.4byte	0x22c
 1868 05ad 00       		.byte	0
 1869 05ae 09       		.uleb128 0x9
 1870 05af 04       		.byte	0x4
 1871 05b0 54020000 		.4byte	0x254
 1872 05b4 1A       		.uleb128 0x1a
 1873 05b5 1C020000 		.4byte	.LASF98
 1874 05b9 02       		.byte	0x2
 1875 05ba 50       		.byte	0x50
 1876 05bb 01       		.byte	0x1
 1877 05bc 03       		.byte	0x3
 1878 05bd D7050000 		.4byte	0x5d7
 1879 05c1 15       		.uleb128 0x15
 1880 05c2 747000   		.ascii	"tp\000"
 1881 05c5 02       		.byte	0x2
 1882 05c6 50       		.byte	0x50
 1883 05c7 2C020000 		.4byte	0x22c
 1884 05cb 15       		.uleb128 0x15
 1885 05cc 746C7000 		.ascii	"tlp\000"
 1886 05d0 02       		.byte	0x2
 1887 05d1 50       		.byte	0x50
 1888 05d2 AE050000 		.4byte	0x5ae
 1889 05d6 00       		.byte	0
 1890 05d7 1B       		.uleb128 0x1b
 1891 05d8 31050000 		.4byte	0x531
 1892 05dc 00000000 		.4byte	.LFB7
 1893 05e0 4C000000 		.4byte	.LFE7
 1894 05e4 00000000 		.4byte	.LLST0
 1895 05e8 FB050000 		.4byte	0x5fb
 1896 05ec 1C       		.uleb128 0x1c
 1897 05ed 43050000 		.4byte	0x543
 1898 05f1 01       		.byte	0x1
ARM GAS  C:\Users\z80\AppData\Local\Temp\ccLrh9ok.s 			page 35


 1899 05f2 50       		.byte	0x50
 1900 05f3 1C       		.uleb128 0x1c
 1901 05f4 4D050000 		.4byte	0x54d
 1902 05f8 01       		.byte	0x1
 1903 05f9 51       		.byte	0x51
 1904 05fa 00       		.byte	0
 1905 05fb 1D       		.uleb128 0x1d
 1906 05fc 59050000 		.4byte	0x559
 1907 0600 00000000 		.4byte	.LFB8
 1908 0604 32000000 		.4byte	.LFE8
 1909 0608 02       		.byte	0x2
 1910 0609 7D       		.byte	0x7d
 1911 060a 00       		.sleb128 0
 1912 060b 27060000 		.4byte	0x627
 1913 060f 1E       		.uleb128 0x1e
 1914 0610 67050000 		.4byte	0x567
 1915 0614 20000000 		.4byte	.LLST1
 1916 0618 1C       		.uleb128 0x1c
 1917 0619 72050000 		.4byte	0x572
 1918 061d 01       		.byte	0x1
 1919 061e 51       		.byte	0x51
 1920 061f 1C       		.uleb128 0x1c
 1921 0620 7D050000 		.4byte	0x57d
 1922 0624 01       		.byte	0x1
 1923 0625 52       		.byte	0x52
 1924 0626 00       		.byte	0
 1925 0627 1F       		.uleb128 0x1f
 1926 0628 01       		.byte	0x1
 1927 0629 8F000000 		.4byte	.LASF76
 1928 062d 01       		.byte	0x1
 1929 062e 9A       		.byte	0x9a
 1930 062f 01       		.byte	0x1
 1931 0630 2C020000 		.4byte	0x22c
 1932 0634 00000000 		.4byte	.LFB9
 1933 0638 B2000000 		.4byte	.LFE9
 1934 063c 4D000000 		.4byte	.LLST2
 1935 0640 BA060000 		.4byte	0x6ba
 1936 0644 20       		.uleb128 0x20
 1937 0645 77737000 		.ascii	"wsp\000"
 1938 0649 01       		.byte	0x1
 1939 064a 9A       		.byte	0x9a
 1940 064b 6A020000 		.4byte	0x26a
 1941 064f 6D000000 		.4byte	.LLST3
 1942 0653 21       		.uleb128 0x21
 1943 0654 59010000 		.4byte	.LASF75
 1944 0658 01       		.byte	0x1
 1945 0659 9A       		.byte	0x9a
 1946 065a 30000000 		.4byte	0x30
 1947 065e 8B000000 		.4byte	.LLST4
 1948 0662 21       		.uleb128 0x21
 1949 0663 15000000 		.4byte	.LASF72
 1950 0667 01       		.byte	0x1
 1951 0668 9B       		.byte	0x9b
 1952 0669 BC000000 		.4byte	0xbc
 1953 066d B6000000 		.4byte	.LLST5
 1954 0671 20       		.uleb128 0x20
 1955 0672 706600   		.ascii	"pf\000"
ARM GAS  C:\Users\z80\AppData\Local\Temp\ccLrh9ok.s 			page 36


 1956 0675 01       		.byte	0x1
 1957 0676 9B       		.byte	0x9b
 1958 0677 0A050000 		.4byte	0x50a
 1959 067b D4000000 		.4byte	.LLST6
 1960 067f 22       		.uleb128 0x22
 1961 0680 61726700 		.ascii	"arg\000"
 1962 0684 01       		.byte	0x1
 1963 0685 9B       		.byte	0x9b
 1964 0686 6A020000 		.4byte	0x26a
 1965 068a 02       		.byte	0x2
 1966 068b 91       		.byte	0x91
 1967 068c 00       		.sleb128 0
 1968 068d 23       		.uleb128 0x23
 1969 068e 747000   		.ascii	"tp\000"
 1970 0691 01       		.byte	0x1
 1971 0692 9D       		.byte	0x9d
 1972 0693 2C020000 		.4byte	0x22c
 1973 0697 F2000000 		.4byte	.LLST7
 1974 069b 24       		.uleb128 0x24
 1975 069c 31050000 		.4byte	0x531
 1976 06a0 48000000 		.4byte	.LBB16
 1977 06a4 00000000 		.4byte	.Ldebug_ranges0+0
 1978 06a8 01       		.byte	0x1
 1979 06a9 A5       		.byte	0xa5
 1980 06aa 1C       		.uleb128 0x1c
 1981 06ab 4D050000 		.4byte	0x54d
 1982 06af 01       		.byte	0x1
 1983 06b0 55       		.byte	0x55
 1984 06b1 1C       		.uleb128 0x1c
 1985 06b2 43050000 		.4byte	0x543
 1986 06b6 01       		.byte	0x1
 1987 06b7 54       		.byte	0x54
 1988 06b8 00       		.byte	0
 1989 06b9 00       		.byte	0
 1990 06ba 1F       		.uleb128 0x1f
 1991 06bb 01       		.byte	0x1
 1992 06bc C7010000 		.4byte	.LASF77
 1993 06c0 01       		.byte	0x1
 1994 06c1 B8       		.byte	0xb8
 1995 06c2 01       		.byte	0x1
 1996 06c3 2C020000 		.4byte	0x22c
 1997 06c7 00000000 		.4byte	.LFB10
 1998 06cb 8E000000 		.4byte	.LFE10
 1999 06cf 10010000 		.4byte	.LLST8
 2000 06d3 BD070000 		.4byte	0x7bd
 2001 06d7 20       		.uleb128 0x20
 2002 06d8 77737000 		.ascii	"wsp\000"
 2003 06dc 01       		.byte	0x1
 2004 06dd B8       		.byte	0xb8
 2005 06de 6A020000 		.4byte	0x26a
 2006 06e2 3C010000 		.4byte	.LLST9
 2007 06e6 21       		.uleb128 0x21
 2008 06e7 59010000 		.4byte	.LASF75
 2009 06eb 01       		.byte	0x1
 2010 06ec B8       		.byte	0xb8
 2011 06ed 30000000 		.4byte	0x30
 2012 06f1 65010000 		.4byte	.LLST10
ARM GAS  C:\Users\z80\AppData\Local\Temp\ccLrh9ok.s 			page 37


 2013 06f5 21       		.uleb128 0x21
 2014 06f6 15000000 		.4byte	.LASF72
 2015 06fa 01       		.byte	0x1
 2016 06fb B9       		.byte	0xb9
 2017 06fc BC000000 		.4byte	0xbc
 2018 0700 83010000 		.4byte	.LLST11
 2019 0704 20       		.uleb128 0x20
 2020 0705 706600   		.ascii	"pf\000"
 2021 0708 01       		.byte	0x1
 2022 0709 B9       		.byte	0xb9
 2023 070a 0A050000 		.4byte	0x50a
 2024 070e A1010000 		.4byte	.LLST12
 2025 0712 22       		.uleb128 0x22
 2026 0713 61726700 		.ascii	"arg\000"
 2027 0717 01       		.byte	0x1
 2028 0718 B9       		.byte	0xb9
 2029 0719 6A020000 		.4byte	0x26a
 2030 071d 02       		.byte	0x2
 2031 071e 91       		.byte	0x91
 2032 071f 00       		.sleb128 0
 2033 0720 23       		.uleb128 0x23
 2034 0721 747000   		.ascii	"tp\000"
 2035 0724 01       		.byte	0x1
 2036 0725 BA       		.byte	0xba
 2037 0726 2C020000 		.4byte	0x22c
 2038 072a BF010000 		.4byte	.LLST13
 2039 072e 25       		.uleb128 0x25
 2040 072f 59050000 		.4byte	0x559
 2041 0733 14000000 		.4byte	.LBB26
 2042 0737 26000000 		.4byte	.LBE26
 2043 073b 01       		.byte	0x1
 2044 073c BD       		.byte	0xbd
 2045 073d 5A070000 		.4byte	0x75a
 2046 0741 26       		.uleb128 0x26
 2047 0742 7D050000 		.4byte	0x57d
 2048 0746 7F       		.sleb128 -1
 2049 0747 1E       		.uleb128 0x1e
 2050 0748 72050000 		.4byte	0x572
 2051 074c DD010000 		.4byte	.LLST14
 2052 0750 1E       		.uleb128 0x1e
 2053 0751 67050000 		.4byte	0x567
 2054 0755 F0010000 		.4byte	.LLST15
 2055 0759 00       		.byte	0
 2056 075a 25       		.uleb128 0x25
 2057 075b 59050000 		.4byte	0x559
 2058 075f 28000000 		.4byte	.LBB28
 2059 0763 5C000000 		.4byte	.LBE28
 2060 0767 01       		.byte	0x1
 2061 0768 C0       		.byte	0xc0
 2062 0769 86070000 		.4byte	0x786
 2063 076d 27       		.uleb128 0x27
 2064 076e 7D050000 		.4byte	0x57d
 2065 0772 55       		.byte	0x55
 2066 0773 1E       		.uleb128 0x1e
 2067 0774 72050000 		.4byte	0x572
 2068 0778 0E020000 		.4byte	.LLST16
 2069 077c 1E       		.uleb128 0x1e
ARM GAS  C:\Users\z80\AppData\Local\Temp\ccLrh9ok.s 			page 38


 2070 077d 67050000 		.4byte	0x567
 2071 0781 21020000 		.4byte	.LLST17
 2072 0785 00       		.byte	0
 2073 0786 28       		.uleb128 0x28
 2074 0787 5C000000 		.4byte	.LBB30
 2075 078b 62000000 		.4byte	.LBE30
 2076 078f A3070000 		.4byte	0x7a3
 2077 0793 23       		.uleb128 0x23
 2078 0794 746D7000 		.ascii	"tmp\000"
 2079 0798 01       		.byte	0x1
 2080 0799 C4       		.byte	0xc4
 2081 079a 7B000000 		.4byte	0x7b
 2082 079e 34020000 		.4byte	.LLST18
 2083 07a2 00       		.byte	0
 2084 07a3 29       		.uleb128 0x29
 2085 07a4 82000000 		.4byte	.LBB31
 2086 07a8 88000000 		.4byte	.LBE31
 2087 07ac 23       		.uleb128 0x23
 2088 07ad 746D7000 		.ascii	"tmp\000"
 2089 07b1 01       		.byte	0x1
 2090 07b2 C6       		.byte	0xc6
 2091 07b3 7B000000 		.4byte	0x7b
 2092 07b7 47020000 		.4byte	.LLST19
 2093 07bb 00       		.byte	0
 2094 07bc 00       		.byte	0
 2095 07bd 1F       		.uleb128 0x1f
 2096 07be 01       		.byte	0x1
 2097 07bf 08010000 		.4byte	.LASF78
 2098 07c3 01       		.byte	0x1
 2099 07c4 D6       		.byte	0xd6
 2100 07c5 01       		.byte	0x1
 2101 07c6 BC000000 		.4byte	0xbc
 2102 07ca 00000000 		.4byte	.LFB11
 2103 07ce 4C000000 		.4byte	.LFE11
 2104 07d2 5A020000 		.4byte	.LLST20
 2105 07d6 2F080000 		.4byte	0x82f
 2106 07da 21       		.uleb128 0x21
 2107 07db 77010000 		.4byte	.LASF79
 2108 07df 01       		.byte	0x1
 2109 07e0 D6       		.byte	0xd6
 2110 07e1 BC000000 		.4byte	0xbc
 2111 07e5 7A020000 		.4byte	.LLST21
 2112 07e9 2A       		.uleb128 0x2a
 2113 07ea B4010000 		.4byte	.LASF80
 2114 07ee 01       		.byte	0x1
 2115 07ef D7       		.byte	0xd7
 2116 07f0 BC000000 		.4byte	0xbc
 2117 07f4 98020000 		.4byte	.LLST22
 2118 07f8 28       		.uleb128 0x28
 2119 07f9 08000000 		.4byte	.LBB32
 2120 07fd 0E000000 		.4byte	.LBE32
 2121 0801 15080000 		.4byte	0x815
 2122 0805 23       		.uleb128 0x23
 2123 0806 746D7000 		.ascii	"tmp\000"
 2124 080a 01       		.byte	0x1
 2125 080b DB       		.byte	0xdb
 2126 080c 7B000000 		.4byte	0x7b
ARM GAS  C:\Users\z80\AppData\Local\Temp\ccLrh9ok.s 			page 39


 2127 0810 AB020000 		.4byte	.LLST23
 2128 0814 00       		.byte	0
 2129 0815 29       		.uleb128 0x29
 2130 0816 34000000 		.4byte	.LBB33
 2131 081a 3A000000 		.4byte	.LBE33
 2132 081e 23       		.uleb128 0x23
 2133 081f 746D7000 		.ascii	"tmp\000"
 2134 0823 01       		.byte	0x1
 2135 0824 E6       		.byte	0xe6
 2136 0825 7B000000 		.4byte	0x7b
 2137 0829 BE020000 		.4byte	.LLST24
 2138 082d 00       		.byte	0
 2139 082e 00       		.byte	0
 2140 082f 1F       		.uleb128 0x1f
 2141 0830 01       		.byte	0x1
 2142 0831 E9010000 		.4byte	.LASF81
 2143 0835 01       		.byte	0x1
 2144 0836 F7       		.byte	0xf7
 2145 0837 01       		.byte	0x1
 2146 0838 2C020000 		.4byte	0x22c
 2147 083c 00000000 		.4byte	.LFB12
 2148 0840 38000000 		.4byte	.LFE12
 2149 0844 D1020000 		.4byte	.LLST25
 2150 0848 8D080000 		.4byte	0x88d
 2151 084c 20       		.uleb128 0x20
 2152 084d 747000   		.ascii	"tp\000"
 2153 0850 01       		.byte	0x1
 2154 0851 F7       		.byte	0xf7
 2155 0852 2C020000 		.4byte	0x22c
 2156 0856 F1020000 		.4byte	.LLST26
 2157 085a 2B       		.uleb128 0x2b
 2158 085b 30000000 		.4byte	.Ldebug_ranges0+0x30
 2159 085f 73080000 		.4byte	0x873
 2160 0863 23       		.uleb128 0x23
 2161 0864 746D7000 		.ascii	"tmp\000"
 2162 0868 01       		.byte	0x1
 2163 0869 F9       		.byte	0xf9
 2164 086a 7B000000 		.4byte	0x7b
 2165 086e 0F030000 		.4byte	.LLST27
 2166 0872 00       		.byte	0
 2167 0873 29       		.uleb128 0x29
 2168 0874 2E000000 		.4byte	.LBB36
 2169 0878 34000000 		.4byte	.LBE36
 2170 087c 23       		.uleb128 0x23
 2171 087d 746D7000 		.ascii	"tmp\000"
 2172 0881 01       		.byte	0x1
 2173 0882 FE       		.byte	0xfe
 2174 0883 7B000000 		.4byte	0x7b
 2175 0887 22030000 		.4byte	.LLST28
 2176 088b 00       		.byte	0
 2177 088c 00       		.byte	0
 2178 088d 2C       		.uleb128 0x2c
 2179 088e 01       		.byte	0x1
 2180 088f 87010000 		.4byte	.LASF82
 2181 0893 01       		.byte	0x1
 2182 0894 0E01     		.2byte	0x10e
 2183 0896 01       		.byte	0x1
ARM GAS  C:\Users\z80\AppData\Local\Temp\ccLrh9ok.s 			page 40


 2184 0897 00000000 		.4byte	.LFB13
 2185 089b 26000000 		.4byte	.LFE13
 2186 089f 35030000 		.4byte	.LLST29
 2187 08a3 EB080000 		.4byte	0x8eb
 2188 08a7 2D       		.uleb128 0x2d
 2189 08a8 747000   		.ascii	"tp\000"
 2190 08ab 01       		.byte	0x1
 2191 08ac 0E01     		.2byte	0x10e
 2192 08ae 2C020000 		.4byte	0x22c
 2193 08b2 55030000 		.4byte	.LLST30
 2194 08b6 2B       		.uleb128 0x2b
 2195 08b7 48000000 		.4byte	.Ldebug_ranges0+0x48
 2196 08bb D0080000 		.4byte	0x8d0
 2197 08bf 2E       		.uleb128 0x2e
 2198 08c0 746D7000 		.ascii	"tmp\000"
 2199 08c4 01       		.byte	0x1
 2200 08c5 1001     		.2byte	0x110
 2201 08c7 7B000000 		.4byte	0x7b
 2202 08cb 73030000 		.4byte	.LLST31
 2203 08cf 00       		.byte	0
 2204 08d0 29       		.uleb128 0x29
 2205 08d1 1E000000 		.4byte	.LBB39
 2206 08d5 24000000 		.4byte	.LBE39
 2207 08d9 2E       		.uleb128 0x2e
 2208 08da 746D7000 		.ascii	"tmp\000"
 2209 08de 01       		.byte	0x1
 2210 08df 1201     		.2byte	0x112
 2211 08e1 7B000000 		.4byte	0x7b
 2212 08e5 86030000 		.4byte	.LLST32
 2213 08e9 00       		.byte	0
 2214 08ea 00       		.byte	0
 2215 08eb 2C       		.uleb128 0x2c
 2216 08ec 01       		.byte	0x1
 2217 08ed 65030000 		.4byte	.LASF83
 2218 08f1 01       		.byte	0x1
 2219 08f2 2101     		.2byte	0x121
 2220 08f4 01       		.byte	0x1
 2221 08f5 00000000 		.4byte	.LFB14
 2222 08f9 30000000 		.4byte	.LFE14
 2223 08fd 99030000 		.4byte	.LLST33
 2224 0901 4E090000 		.4byte	0x94e
 2225 0905 2F       		.uleb128 0x2f
 2226 0906 17020000 		.4byte	.LASF84
 2227 090a 01       		.byte	0x1
 2228 090b 2101     		.2byte	0x121
 2229 090d DD000000 		.4byte	0xdd
 2230 0911 B9030000 		.4byte	.LLST34
 2231 0915 28       		.uleb128 0x28
 2232 0916 12000000 		.4byte	.LBB40
 2233 091a 18000000 		.4byte	.LBE40
 2234 091e 33090000 		.4byte	0x933
 2235 0922 2E       		.uleb128 0x2e
 2236 0923 746D7000 		.ascii	"tmp\000"
 2237 0927 01       		.byte	0x1
 2238 0928 2501     		.2byte	0x125
 2239 092a 7B000000 		.4byte	0x7b
 2240 092e D7030000 		.4byte	.LLST35
ARM GAS  C:\Users\z80\AppData\Local\Temp\ccLrh9ok.s 			page 41


 2241 0932 00       		.byte	0
 2242 0933 29       		.uleb128 0x29
 2243 0934 28000000 		.4byte	.LBB41
 2244 0938 2E000000 		.4byte	.LBE41
 2245 093c 2E       		.uleb128 0x2e
 2246 093d 746D7000 		.ascii	"tmp\000"
 2247 0941 01       		.byte	0x1
 2248 0942 2701     		.2byte	0x127
 2249 0944 7B000000 		.4byte	0x7b
 2250 0948 EA030000 		.4byte	.LLST36
 2251 094c 00       		.byte	0
 2252 094d 00       		.byte	0
 2253 094e 2C       		.uleb128 0x2c
 2254 094f 01       		.byte	0x1
 2255 0950 3A020000 		.4byte	.LASF85
 2256 0954 01       		.byte	0x1
 2257 0955 3201     		.2byte	0x132
 2258 0957 01       		.byte	0x1
 2259 0958 00000000 		.4byte	.LFB15
 2260 095c 2E000000 		.4byte	.LFE15
 2261 0960 FD030000 		.4byte	.LLST37
 2262 0964 AD090000 		.4byte	0x9ad
 2263 0968 2F       		.uleb128 0x2f
 2264 0969 17020000 		.4byte	.LASF84
 2265 096d 01       		.byte	0x1
 2266 096e 3201     		.2byte	0x132
 2267 0970 DD000000 		.4byte	0xdd
 2268 0974 1D040000 		.4byte	.LLST38
 2269 0978 2B       		.uleb128 0x2b
 2270 0979 60000000 		.4byte	.Ldebug_ranges0+0x60
 2271 097d 92090000 		.4byte	0x992
 2272 0981 2E       		.uleb128 0x2e
 2273 0982 746D7000 		.ascii	"tmp\000"
 2274 0986 01       		.byte	0x1
 2275 0987 3401     		.2byte	0x134
 2276 0989 7B000000 		.4byte	0x7b
 2277 098d 56040000 		.4byte	.LLST39
 2278 0991 00       		.byte	0
 2279 0992 29       		.uleb128 0x29
 2280 0993 26000000 		.4byte	.LBB44
 2281 0997 2C000000 		.4byte	.LBE44
 2282 099b 2E       		.uleb128 0x2e
 2283 099c 746D7000 		.ascii	"tmp\000"
 2284 09a0 01       		.byte	0x1
 2285 09a1 3701     		.2byte	0x137
 2286 09a3 7B000000 		.4byte	0x7b
 2287 09a7 69040000 		.4byte	.LLST40
 2288 09ab 00       		.byte	0
 2289 09ac 00       		.byte	0
 2290 09ad 2C       		.uleb128 0x2c
 2291 09ae 01       		.byte	0x1
 2292 09af 2B030000 		.4byte	.LASF86
 2293 09b3 01       		.byte	0x1
 2294 09b4 4101     		.2byte	0x141
 2295 09b6 01       		.byte	0x1
 2296 09b7 00000000 		.4byte	.LFB16
 2297 09bb 34000000 		.4byte	.LFE16
ARM GAS  C:\Users\z80\AppData\Local\Temp\ccLrh9ok.s 			page 42


 2298 09bf 7C040000 		.4byte	.LLST41
 2299 09c3 000A0000 		.4byte	0xa00
 2300 09c7 28       		.uleb128 0x28
 2301 09c8 02000000 		.4byte	.LBB45
 2302 09cc 08000000 		.4byte	.LBE45
 2303 09d0 E5090000 		.4byte	0x9e5
 2304 09d4 2E       		.uleb128 0x2e
 2305 09d5 746D7000 		.ascii	"tmp\000"
 2306 09d9 01       		.byte	0x1
 2307 09da 4301     		.2byte	0x143
 2308 09dc 7B000000 		.4byte	0x7b
 2309 09e0 9C040000 		.4byte	.LLST42
 2310 09e4 00       		.byte	0
 2311 09e5 29       		.uleb128 0x29
 2312 09e6 2C000000 		.4byte	.LBB46
 2313 09ea 32000000 		.4byte	.LBE46
 2314 09ee 2E       		.uleb128 0x2e
 2315 09ef 746D7000 		.ascii	"tmp\000"
 2316 09f3 01       		.byte	0x1
 2317 09f4 4501     		.2byte	0x145
 2318 09f6 7B000000 		.4byte	0x7b
 2319 09fa AF040000 		.4byte	.LLST43
 2320 09fe 00       		.byte	0
 2321 09ff 00       		.byte	0
 2322 0a00 2C       		.uleb128 0x2c
 2323 0a01 01       		.byte	0x1
 2324 0a02 31000000 		.4byte	.LASF87
 2325 0a06 01       		.byte	0x1
 2326 0a07 6B01     		.2byte	0x16b
 2327 0a09 01       		.byte	0x1
 2328 0a0a 00000000 		.4byte	.LFB18
 2329 0a0e 52000000 		.4byte	.LFE18
 2330 0a12 C2040000 		.4byte	.LLST44
 2331 0a16 630A0000 		.4byte	0xa63
 2332 0a1a 2D       		.uleb128 0x2d
 2333 0a1b 6D736700 		.ascii	"msg\000"
 2334 0a1f 01       		.byte	0x1
 2335 0a20 6B01     		.2byte	0x16b
 2336 0a22 C7000000 		.4byte	0xc7
 2337 0a26 E2040000 		.4byte	.LLST45
 2338 0a2a 2E       		.uleb128 0x2e
 2339 0a2b 747000   		.ascii	"tp\000"
 2340 0a2e 01       		.byte	0x1
 2341 0a2f 6C01     		.2byte	0x16c
 2342 0a31 2C020000 		.4byte	0x22c
 2343 0a35 F5040000 		.4byte	.LLST46
 2344 0a39 30       		.uleb128 0x30
 2345 0a3a 87050000 		.4byte	0x587
 2346 0a3e 18000000 		.4byte	.LBB47
 2347 0a42 78000000 		.4byte	.Ldebug_ranges0+0x78
 2348 0a46 01       		.byte	0x1
 2349 0a47 7401     		.2byte	0x174
 2350 0a49 1E       		.uleb128 0x1e
 2351 0a4a 98050000 		.4byte	0x598
 2352 0a4e 14050000 		.4byte	.LLST47
 2353 0a52 31       		.uleb128 0x31
 2354 0a53 90000000 		.4byte	.Ldebug_ranges0+0x90
ARM GAS  C:\Users\z80\AppData\Local\Temp\ccLrh9ok.s 			page 43


 2355 0a57 32       		.uleb128 0x32
 2356 0a58 A3050000 		.4byte	0x5a3
 2357 0a5c 29050000 		.4byte	.LLST48
 2358 0a60 00       		.byte	0
 2359 0a61 00       		.byte	0
 2360 0a62 00       		.byte	0
 2361 0a63 2C       		.uleb128 0x2c
 2362 0a64 01       		.byte	0x1
 2363 0a65 7D000000 		.4byte	.LASF88
 2364 0a69 01       		.byte	0x1
 2365 0a6a 5601     		.2byte	0x156
 2366 0a6c 01       		.byte	0x1
 2367 0a6d 00000000 		.4byte	.LFB17
 2368 0a71 18000000 		.4byte	.LFE17
 2369 0a75 3C050000 		.4byte	.LLST49
 2370 0a79 A40A0000 		.4byte	0xaa4
 2371 0a7d 2D       		.uleb128 0x2d
 2372 0a7e 6D736700 		.ascii	"msg\000"
 2373 0a82 01       		.byte	0x1
 2374 0a83 5601     		.2byte	0x156
 2375 0a85 C7000000 		.4byte	0xc7
 2376 0a89 5C050000 		.4byte	.LLST50
 2377 0a8d 31       		.uleb128 0x31
 2378 0a8e A8000000 		.4byte	.Ldebug_ranges0+0xa8
 2379 0a92 2E       		.uleb128 0x2e
 2380 0a93 746D7000 		.ascii	"tmp\000"
 2381 0a97 01       		.byte	0x1
 2382 0a98 5801     		.2byte	0x158
 2383 0a9a 7B000000 		.4byte	0x7b
 2384 0a9e 7A050000 		.4byte	.LLST51
 2385 0aa2 00       		.byte	0
 2386 0aa3 00       		.byte	0
 2387 0aa4 33       		.uleb128 0x33
 2388 0aa5 01       		.byte	0x1
 2389 0aa6 54030000 		.4byte	.LASF89
 2390 0aaa 01       		.byte	0x1
 2391 0aab A101     		.2byte	0x1a1
 2392 0aad 01       		.byte	0x1
 2393 0aae C7000000 		.4byte	0xc7
 2394 0ab2 00000000 		.4byte	.LFB19
 2395 0ab6 60000000 		.4byte	.LFE19
 2396 0aba 8D050000 		.4byte	.LLST52
 2397 0abe 410B0000 		.4byte	0xb41
 2398 0ac2 2D       		.uleb128 0x2d
 2399 0ac3 747000   		.ascii	"tp\000"
 2400 0ac6 01       		.byte	0x1
 2401 0ac7 A101     		.2byte	0x1a1
 2402 0ac9 2C020000 		.4byte	0x22c
 2403 0acd AD050000 		.4byte	.LLST53
 2404 0ad1 2E       		.uleb128 0x2e
 2405 0ad2 6D736700 		.ascii	"msg\000"
 2406 0ad6 01       		.byte	0x1
 2407 0ad7 A201     		.2byte	0x1a2
 2408 0ad9 C7000000 		.4byte	0xc7
 2409 0add E1050000 		.4byte	.LLST54
 2410 0ae1 28       		.uleb128 0x28
 2411 0ae2 06000000 		.4byte	.LBB53
ARM GAS  C:\Users\z80\AppData\Local\Temp\ccLrh9ok.s 			page 44


 2412 0ae6 0C000000 		.4byte	.LBE53
 2413 0aea FF0A0000 		.4byte	0xaff
 2414 0aee 2E       		.uleb128 0x2e
 2415 0aef 746D7000 		.ascii	"tmp\000"
 2416 0af3 01       		.byte	0x1
 2417 0af4 A601     		.2byte	0x1a6
 2418 0af6 7B000000 		.4byte	0x7b
 2419 0afa F4050000 		.4byte	.LLST55
 2420 0afe 00       		.byte	0
 2421 0aff 34       		.uleb128 0x34
 2422 0b00 B4050000 		.4byte	0x5b4
 2423 0b04 28000000 		.4byte	.LBB54
 2424 0b08 C0000000 		.4byte	.Ldebug_ranges0+0xc0
 2425 0b0c 01       		.byte	0x1
 2426 0b0d AC01     		.2byte	0x1ac
 2427 0b0f 260B0000 		.4byte	0xb26
 2428 0b13 1E       		.uleb128 0x1e
 2429 0b14 CB050000 		.4byte	0x5cb
 2430 0b18 07060000 		.4byte	.LLST56
 2431 0b1c 1E       		.uleb128 0x1e
 2432 0b1d C1050000 		.4byte	0x5c1
 2433 0b21 1C060000 		.4byte	.LLST57
 2434 0b25 00       		.byte	0
 2435 0b26 29       		.uleb128 0x29
 2436 0b27 3A000000 		.4byte	.LBB58
 2437 0b2b 40000000 		.4byte	.LBE58
 2438 0b2f 2E       		.uleb128 0x2e
 2439 0b30 746D7000 		.ascii	"tmp\000"
 2440 0b34 01       		.byte	0x1
 2441 0b35 B001     		.2byte	0x1b0
 2442 0b37 7B000000 		.4byte	0x7b
 2443 0b3b 30060000 		.4byte	.LLST58
 2444 0b3f 00       		.byte	0
 2445 0b40 00       		.byte	0
 2446 0b41 35       		.uleb128 0x35
 2447 0b42 2A000000 		.4byte	.LASF90
 2448 0b46 09       		.byte	0x9
 2449 0b47 7A       		.byte	0x7a
 2450 0b48 EE030000 		.4byte	0x3ee
 2451 0b4c 01       		.byte	0x1
 2452 0b4d 01       		.byte	0x1
 2453 0b4e 35       		.uleb128 0x35
 2454 0b4f 7A030000 		.4byte	.LASF91
 2455 0b53 0A       		.byte	0xa
 2456 0b54 72       		.byte	0x72
 2457 0b55 64040000 		.4byte	0x464
 2458 0b59 01       		.byte	0x1
 2459 0b5a 01       		.byte	0x1
 2460 0b5b 00       		.byte	0
 2461              		.section	.debug_abbrev,"",%progbits
 2462              	.Ldebug_abbrev0:
 2463 0000 01       		.uleb128 0x1
 2464 0001 11       		.uleb128 0x11
 2465 0002 01       		.byte	0x1
 2466 0003 25       		.uleb128 0x25
 2467 0004 0E       		.uleb128 0xe
 2468 0005 13       		.uleb128 0x13
ARM GAS  C:\Users\z80\AppData\Local\Temp\ccLrh9ok.s 			page 45


 2469 0006 0B       		.uleb128 0xb
 2470 0007 03       		.uleb128 0x3
 2471 0008 0E       		.uleb128 0xe
 2472 0009 1B       		.uleb128 0x1b
 2473 000a 0E       		.uleb128 0xe
 2474 000b 11       		.uleb128 0x11
 2475 000c 01       		.uleb128 0x1
 2476 000d 52       		.uleb128 0x52
 2477 000e 01       		.uleb128 0x1
 2478 000f 55       		.uleb128 0x55
 2479 0010 06       		.uleb128 0x6
 2480 0011 10       		.uleb128 0x10
 2481 0012 06       		.uleb128 0x6
 2482 0013 00       		.byte	0
 2483 0014 00       		.byte	0
 2484 0015 02       		.uleb128 0x2
 2485 0016 24       		.uleb128 0x24
 2486 0017 00       		.byte	0
 2487 0018 0B       		.uleb128 0xb
 2488 0019 0B       		.uleb128 0xb
 2489 001a 3E       		.uleb128 0x3e
 2490 001b 0B       		.uleb128 0xb
 2491 001c 03       		.uleb128 0x3
 2492 001d 08       		.uleb128 0x8
 2493 001e 00       		.byte	0
 2494 001f 00       		.byte	0
 2495 0020 03       		.uleb128 0x3
 2496 0021 16       		.uleb128 0x16
 2497 0022 00       		.byte	0
 2498 0023 03       		.uleb128 0x3
 2499 0024 0E       		.uleb128 0xe
 2500 0025 3A       		.uleb128 0x3a
 2501 0026 0B       		.uleb128 0xb
 2502 0027 3B       		.uleb128 0x3b
 2503 0028 0B       		.uleb128 0xb
 2504 0029 49       		.uleb128 0x49
 2505 002a 13       		.uleb128 0x13
 2506 002b 00       		.byte	0
 2507 002c 00       		.byte	0
 2508 002d 04       		.uleb128 0x4
 2509 002e 24       		.uleb128 0x24
 2510 002f 00       		.byte	0
 2511 0030 0B       		.uleb128 0xb
 2512 0031 0B       		.uleb128 0xb
 2513 0032 3E       		.uleb128 0x3e
 2514 0033 0B       		.uleb128 0xb
 2515 0034 03       		.uleb128 0x3
 2516 0035 0E       		.uleb128 0xe
 2517 0036 00       		.byte	0
 2518 0037 00       		.byte	0
 2519 0038 05       		.uleb128 0x5
 2520 0039 13       		.uleb128 0x13
 2521 003a 01       		.byte	0x1
 2522 003b 03       		.uleb128 0x3
 2523 003c 0E       		.uleb128 0xe
 2524 003d 0B       		.uleb128 0xb
 2525 003e 0B       		.uleb128 0xb
ARM GAS  C:\Users\z80\AppData\Local\Temp\ccLrh9ok.s 			page 46


 2526 003f 3A       		.uleb128 0x3a
 2527 0040 0B       		.uleb128 0xb
 2528 0041 3B       		.uleb128 0x3b
 2529 0042 0B       		.uleb128 0xb
 2530 0043 01       		.uleb128 0x1
 2531 0044 13       		.uleb128 0x13
 2532 0045 00       		.byte	0
 2533 0046 00       		.byte	0
 2534 0047 06       		.uleb128 0x6
 2535 0048 0D       		.uleb128 0xd
 2536 0049 00       		.byte	0
 2537 004a 03       		.uleb128 0x3
 2538 004b 0E       		.uleb128 0xe
 2539 004c 3A       		.uleb128 0x3a
 2540 004d 0B       		.uleb128 0xb
 2541 004e 3B       		.uleb128 0x3b
 2542 004f 0B       		.uleb128 0xb
 2543 0050 49       		.uleb128 0x49
 2544 0051 13       		.uleb128 0x13
 2545 0052 38       		.uleb128 0x38
 2546 0053 0A       		.uleb128 0xa
 2547 0054 00       		.byte	0
 2548 0055 00       		.byte	0
 2549 0056 07       		.uleb128 0x7
 2550 0057 0D       		.uleb128 0xd
 2551 0058 00       		.byte	0
 2552 0059 03       		.uleb128 0x3
 2553 005a 08       		.uleb128 0x8
 2554 005b 3A       		.uleb128 0x3a
 2555 005c 0B       		.uleb128 0xb
 2556 005d 3B       		.uleb128 0x3b
 2557 005e 0B       		.uleb128 0xb
 2558 005f 49       		.uleb128 0x49
 2559 0060 13       		.uleb128 0x13
 2560 0061 38       		.uleb128 0x38
 2561 0062 0A       		.uleb128 0xa
 2562 0063 00       		.byte	0
 2563 0064 00       		.byte	0
 2564 0065 08       		.uleb128 0x8
 2565 0066 13       		.uleb128 0x13
 2566 0067 01       		.byte	0x1
 2567 0068 0B       		.uleb128 0xb
 2568 0069 0B       		.uleb128 0xb
 2569 006a 3A       		.uleb128 0x3a
 2570 006b 0B       		.uleb128 0xb
 2571 006c 3B       		.uleb128 0x3b
 2572 006d 0B       		.uleb128 0xb
 2573 006e 01       		.uleb128 0x1
 2574 006f 13       		.uleb128 0x13
 2575 0070 00       		.byte	0
 2576 0071 00       		.byte	0
 2577 0072 09       		.uleb128 0x9
 2578 0073 0F       		.uleb128 0xf
 2579 0074 00       		.byte	0
 2580 0075 0B       		.uleb128 0xb
 2581 0076 0B       		.uleb128 0xb
 2582 0077 49       		.uleb128 0x49
ARM GAS  C:\Users\z80\AppData\Local\Temp\ccLrh9ok.s 			page 47


 2583 0078 13       		.uleb128 0x13
 2584 0079 00       		.byte	0
 2585 007a 00       		.byte	0
 2586 007b 0A       		.uleb128 0xa
 2587 007c 0F       		.uleb128 0xf
 2588 007d 00       		.byte	0
 2589 007e 0B       		.uleb128 0xb
 2590 007f 0B       		.uleb128 0xb
 2591 0080 00       		.byte	0
 2592 0081 00       		.byte	0
 2593 0082 0B       		.uleb128 0xb
 2594 0083 0D       		.uleb128 0xd
 2595 0084 00       		.byte	0
 2596 0085 03       		.uleb128 0x3
 2597 0086 08       		.uleb128 0x8
 2598 0087 3A       		.uleb128 0x3a
 2599 0088 0B       		.uleb128 0xb
 2600 0089 3B       		.uleb128 0x3b
 2601 008a 05       		.uleb128 0x5
 2602 008b 49       		.uleb128 0x49
 2603 008c 13       		.uleb128 0x13
 2604 008d 38       		.uleb128 0x38
 2605 008e 0A       		.uleb128 0xa
 2606 008f 00       		.byte	0
 2607 0090 00       		.byte	0
 2608 0091 0C       		.uleb128 0xc
 2609 0092 13       		.uleb128 0x13
 2610 0093 01       		.byte	0x1
 2611 0094 03       		.uleb128 0x3
 2612 0095 0E       		.uleb128 0xe
 2613 0096 0B       		.uleb128 0xb
 2614 0097 0B       		.uleb128 0xb
 2615 0098 3A       		.uleb128 0x3a
 2616 0099 0B       		.uleb128 0xb
 2617 009a 3B       		.uleb128 0x3b
 2618 009b 05       		.uleb128 0x5
 2619 009c 01       		.uleb128 0x1
 2620 009d 13       		.uleb128 0x13
 2621 009e 00       		.byte	0
 2622 009f 00       		.byte	0
 2623 00a0 0D       		.uleb128 0xd
 2624 00a1 15       		.uleb128 0x15
 2625 00a2 01       		.byte	0x1
 2626 00a3 27       		.uleb128 0x27
 2627 00a4 0C       		.uleb128 0xc
 2628 00a5 01       		.uleb128 0x1
 2629 00a6 13       		.uleb128 0x13
 2630 00a7 00       		.byte	0
 2631 00a8 00       		.byte	0
 2632 00a9 0E       		.uleb128 0xe
 2633 00aa 05       		.uleb128 0x5
 2634 00ab 00       		.byte	0
 2635 00ac 49       		.uleb128 0x49
 2636 00ad 13       		.uleb128 0x13
 2637 00ae 00       		.byte	0
 2638 00af 00       		.byte	0
 2639 00b0 0F       		.uleb128 0xf
ARM GAS  C:\Users\z80\AppData\Local\Temp\ccLrh9ok.s 			page 48


 2640 00b1 35       		.uleb128 0x35
 2641 00b2 00       		.byte	0
 2642 00b3 49       		.uleb128 0x49
 2643 00b4 13       		.uleb128 0x13
 2644 00b5 00       		.byte	0
 2645 00b6 00       		.byte	0
 2646 00b7 10       		.uleb128 0x10
 2647 00b8 17       		.uleb128 0x17
 2648 00b9 01       		.byte	0x1
 2649 00ba 0B       		.uleb128 0xb
 2650 00bb 0B       		.uleb128 0xb
 2651 00bc 3A       		.uleb128 0x3a
 2652 00bd 0B       		.uleb128 0xb
 2653 00be 3B       		.uleb128 0x3b
 2654 00bf 0B       		.uleb128 0xb
 2655 00c0 01       		.uleb128 0x1
 2656 00c1 13       		.uleb128 0x13
 2657 00c2 00       		.byte	0
 2658 00c3 00       		.byte	0
 2659 00c4 11       		.uleb128 0x11
 2660 00c5 0D       		.uleb128 0xd
 2661 00c6 00       		.byte	0
 2662 00c7 03       		.uleb128 0x3
 2663 00c8 0E       		.uleb128 0xe
 2664 00c9 3A       		.uleb128 0x3a
 2665 00ca 0B       		.uleb128 0xb
 2666 00cb 3B       		.uleb128 0x3b
 2667 00cc 0B       		.uleb128 0xb
 2668 00cd 49       		.uleb128 0x49
 2669 00ce 13       		.uleb128 0x13
 2670 00cf 00       		.byte	0
 2671 00d0 00       		.byte	0
 2672 00d1 12       		.uleb128 0x12
 2673 00d2 26       		.uleb128 0x26
 2674 00d3 00       		.byte	0
 2675 00d4 49       		.uleb128 0x49
 2676 00d5 13       		.uleb128 0x13
 2677 00d6 00       		.byte	0
 2678 00d7 00       		.byte	0
 2679 00d8 13       		.uleb128 0x13
 2680 00d9 15       		.uleb128 0x15
 2681 00da 01       		.byte	0x1
 2682 00db 27       		.uleb128 0x27
 2683 00dc 0C       		.uleb128 0xc
 2684 00dd 49       		.uleb128 0x49
 2685 00de 13       		.uleb128 0x13
 2686 00df 01       		.uleb128 0x1
 2687 00e0 13       		.uleb128 0x13
 2688 00e1 00       		.byte	0
 2689 00e2 00       		.byte	0
 2690 00e3 14       		.uleb128 0x14
 2691 00e4 2E       		.uleb128 0x2e
 2692 00e5 01       		.byte	0x1
 2693 00e6 3F       		.uleb128 0x3f
 2694 00e7 0C       		.uleb128 0xc
 2695 00e8 03       		.uleb128 0x3
 2696 00e9 0E       		.uleb128 0xe
ARM GAS  C:\Users\z80\AppData\Local\Temp\ccLrh9ok.s 			page 49


 2697 00ea 3A       		.uleb128 0x3a
 2698 00eb 0B       		.uleb128 0xb
 2699 00ec 3B       		.uleb128 0x3b
 2700 00ed 0B       		.uleb128 0xb
 2701 00ee 27       		.uleb128 0x27
 2702 00ef 0C       		.uleb128 0xc
 2703 00f0 49       		.uleb128 0x49
 2704 00f1 13       		.uleb128 0x13
 2705 00f2 20       		.uleb128 0x20
 2706 00f3 0B       		.uleb128 0xb
 2707 00f4 01       		.uleb128 0x1
 2708 00f5 13       		.uleb128 0x13
 2709 00f6 00       		.byte	0
 2710 00f7 00       		.byte	0
 2711 00f8 15       		.uleb128 0x15
 2712 00f9 05       		.uleb128 0x5
 2713 00fa 00       		.byte	0
 2714 00fb 03       		.uleb128 0x3
 2715 00fc 08       		.uleb128 0x8
 2716 00fd 3A       		.uleb128 0x3a
 2717 00fe 0B       		.uleb128 0xb
 2718 00ff 3B       		.uleb128 0x3b
 2719 0100 0B       		.uleb128 0xb
 2720 0101 49       		.uleb128 0x49
 2721 0102 13       		.uleb128 0x13
 2722 0103 00       		.byte	0
 2723 0104 00       		.byte	0
 2724 0105 16       		.uleb128 0x16
 2725 0106 05       		.uleb128 0x5
 2726 0107 00       		.byte	0
 2727 0108 03       		.uleb128 0x3
 2728 0109 0E       		.uleb128 0xe
 2729 010a 3A       		.uleb128 0x3a
 2730 010b 0B       		.uleb128 0xb
 2731 010c 3B       		.uleb128 0x3b
 2732 010d 0B       		.uleb128 0xb
 2733 010e 49       		.uleb128 0x49
 2734 010f 13       		.uleb128 0x13
 2735 0110 00       		.byte	0
 2736 0111 00       		.byte	0
 2737 0112 17       		.uleb128 0x17
 2738 0113 2E       		.uleb128 0x2e
 2739 0114 01       		.byte	0x1
 2740 0115 3F       		.uleb128 0x3f
 2741 0116 0C       		.uleb128 0xc
 2742 0117 03       		.uleb128 0x3
 2743 0118 0E       		.uleb128 0xe
 2744 0119 3A       		.uleb128 0x3a
 2745 011a 0B       		.uleb128 0xb
 2746 011b 3B       		.uleb128 0x3b
 2747 011c 0B       		.uleb128 0xb
 2748 011d 27       		.uleb128 0x27
 2749 011e 0C       		.uleb128 0xc
 2750 011f 20       		.uleb128 0x20
 2751 0120 0B       		.uleb128 0xb
 2752 0121 01       		.uleb128 0x1
 2753 0122 13       		.uleb128 0x13
ARM GAS  C:\Users\z80\AppData\Local\Temp\ccLrh9ok.s 			page 50


 2754 0123 00       		.byte	0
 2755 0124 00       		.byte	0
 2756 0125 18       		.uleb128 0x18
 2757 0126 2E       		.uleb128 0x2e
 2758 0127 01       		.byte	0x1
 2759 0128 03       		.uleb128 0x3
 2760 0129 0E       		.uleb128 0xe
 2761 012a 3A       		.uleb128 0x3a
 2762 012b 0B       		.uleb128 0xb
 2763 012c 3B       		.uleb128 0x3b
 2764 012d 0B       		.uleb128 0xb
 2765 012e 27       		.uleb128 0x27
 2766 012f 0C       		.uleb128 0xc
 2767 0130 49       		.uleb128 0x49
 2768 0131 13       		.uleb128 0x13
 2769 0132 20       		.uleb128 0x20
 2770 0133 0B       		.uleb128 0xb
 2771 0134 01       		.uleb128 0x1
 2772 0135 13       		.uleb128 0x13
 2773 0136 00       		.byte	0
 2774 0137 00       		.byte	0
 2775 0138 19       		.uleb128 0x19
 2776 0139 34       		.uleb128 0x34
 2777 013a 00       		.byte	0
 2778 013b 03       		.uleb128 0x3
 2779 013c 08       		.uleb128 0x8
 2780 013d 3A       		.uleb128 0x3a
 2781 013e 0B       		.uleb128 0xb
 2782 013f 3B       		.uleb128 0x3b
 2783 0140 0B       		.uleb128 0xb
 2784 0141 49       		.uleb128 0x49
 2785 0142 13       		.uleb128 0x13
 2786 0143 00       		.byte	0
 2787 0144 00       		.byte	0
 2788 0145 1A       		.uleb128 0x1a
 2789 0146 2E       		.uleb128 0x2e
 2790 0147 01       		.byte	0x1
 2791 0148 03       		.uleb128 0x3
 2792 0149 0E       		.uleb128 0xe
 2793 014a 3A       		.uleb128 0x3a
 2794 014b 0B       		.uleb128 0xb
 2795 014c 3B       		.uleb128 0x3b
 2796 014d 0B       		.uleb128 0xb
 2797 014e 27       		.uleb128 0x27
 2798 014f 0C       		.uleb128 0xc
 2799 0150 20       		.uleb128 0x20
 2800 0151 0B       		.uleb128 0xb
 2801 0152 01       		.uleb128 0x1
 2802 0153 13       		.uleb128 0x13
 2803 0154 00       		.byte	0
 2804 0155 00       		.byte	0
 2805 0156 1B       		.uleb128 0x1b
 2806 0157 2E       		.uleb128 0x2e
 2807 0158 01       		.byte	0x1
 2808 0159 31       		.uleb128 0x31
 2809 015a 13       		.uleb128 0x13
 2810 015b 11       		.uleb128 0x11
ARM GAS  C:\Users\z80\AppData\Local\Temp\ccLrh9ok.s 			page 51


 2811 015c 01       		.uleb128 0x1
 2812 015d 12       		.uleb128 0x12
 2813 015e 01       		.uleb128 0x1
 2814 015f 40       		.uleb128 0x40
 2815 0160 06       		.uleb128 0x6
 2816 0161 01       		.uleb128 0x1
 2817 0162 13       		.uleb128 0x13
 2818 0163 00       		.byte	0
 2819 0164 00       		.byte	0
 2820 0165 1C       		.uleb128 0x1c
 2821 0166 05       		.uleb128 0x5
 2822 0167 00       		.byte	0
 2823 0168 31       		.uleb128 0x31
 2824 0169 13       		.uleb128 0x13
 2825 016a 02       		.uleb128 0x2
 2826 016b 0A       		.uleb128 0xa
 2827 016c 00       		.byte	0
 2828 016d 00       		.byte	0
 2829 016e 1D       		.uleb128 0x1d
 2830 016f 2E       		.uleb128 0x2e
 2831 0170 01       		.byte	0x1
 2832 0171 31       		.uleb128 0x31
 2833 0172 13       		.uleb128 0x13
 2834 0173 11       		.uleb128 0x11
 2835 0174 01       		.uleb128 0x1
 2836 0175 12       		.uleb128 0x12
 2837 0176 01       		.uleb128 0x1
 2838 0177 40       		.uleb128 0x40
 2839 0178 0A       		.uleb128 0xa
 2840 0179 01       		.uleb128 0x1
 2841 017a 13       		.uleb128 0x13
 2842 017b 00       		.byte	0
 2843 017c 00       		.byte	0
 2844 017d 1E       		.uleb128 0x1e
 2845 017e 05       		.uleb128 0x5
 2846 017f 00       		.byte	0
 2847 0180 31       		.uleb128 0x31
 2848 0181 13       		.uleb128 0x13
 2849 0182 02       		.uleb128 0x2
 2850 0183 06       		.uleb128 0x6
 2851 0184 00       		.byte	0
 2852 0185 00       		.byte	0
 2853 0186 1F       		.uleb128 0x1f
 2854 0187 2E       		.uleb128 0x2e
 2855 0188 01       		.byte	0x1
 2856 0189 3F       		.uleb128 0x3f
 2857 018a 0C       		.uleb128 0xc
 2858 018b 03       		.uleb128 0x3
 2859 018c 0E       		.uleb128 0xe
 2860 018d 3A       		.uleb128 0x3a
 2861 018e 0B       		.uleb128 0xb
 2862 018f 3B       		.uleb128 0x3b
 2863 0190 0B       		.uleb128 0xb
 2864 0191 27       		.uleb128 0x27
 2865 0192 0C       		.uleb128 0xc
 2866 0193 49       		.uleb128 0x49
 2867 0194 13       		.uleb128 0x13
ARM GAS  C:\Users\z80\AppData\Local\Temp\ccLrh9ok.s 			page 52


 2868 0195 11       		.uleb128 0x11
 2869 0196 01       		.uleb128 0x1
 2870 0197 12       		.uleb128 0x12
 2871 0198 01       		.uleb128 0x1
 2872 0199 40       		.uleb128 0x40
 2873 019a 06       		.uleb128 0x6
 2874 019b 01       		.uleb128 0x1
 2875 019c 13       		.uleb128 0x13
 2876 019d 00       		.byte	0
 2877 019e 00       		.byte	0
 2878 019f 20       		.uleb128 0x20
 2879 01a0 05       		.uleb128 0x5
 2880 01a1 00       		.byte	0
 2881 01a2 03       		.uleb128 0x3
 2882 01a3 08       		.uleb128 0x8
 2883 01a4 3A       		.uleb128 0x3a
 2884 01a5 0B       		.uleb128 0xb
 2885 01a6 3B       		.uleb128 0x3b
 2886 01a7 0B       		.uleb128 0xb
 2887 01a8 49       		.uleb128 0x49
 2888 01a9 13       		.uleb128 0x13
 2889 01aa 02       		.uleb128 0x2
 2890 01ab 06       		.uleb128 0x6
 2891 01ac 00       		.byte	0
 2892 01ad 00       		.byte	0
 2893 01ae 21       		.uleb128 0x21
 2894 01af 05       		.uleb128 0x5
 2895 01b0 00       		.byte	0
 2896 01b1 03       		.uleb128 0x3
 2897 01b2 0E       		.uleb128 0xe
 2898 01b3 3A       		.uleb128 0x3a
 2899 01b4 0B       		.uleb128 0xb
 2900 01b5 3B       		.uleb128 0x3b
 2901 01b6 0B       		.uleb128 0xb
 2902 01b7 49       		.uleb128 0x49
 2903 01b8 13       		.uleb128 0x13
 2904 01b9 02       		.uleb128 0x2
 2905 01ba 06       		.uleb128 0x6
 2906 01bb 00       		.byte	0
 2907 01bc 00       		.byte	0
 2908 01bd 22       		.uleb128 0x22
 2909 01be 05       		.uleb128 0x5
 2910 01bf 00       		.byte	0
 2911 01c0 03       		.uleb128 0x3
 2912 01c1 08       		.uleb128 0x8
 2913 01c2 3A       		.uleb128 0x3a
 2914 01c3 0B       		.uleb128 0xb
 2915 01c4 3B       		.uleb128 0x3b
 2916 01c5 0B       		.uleb128 0xb
 2917 01c6 49       		.uleb128 0x49
 2918 01c7 13       		.uleb128 0x13
 2919 01c8 02       		.uleb128 0x2
 2920 01c9 0A       		.uleb128 0xa
 2921 01ca 00       		.byte	0
 2922 01cb 00       		.byte	0
 2923 01cc 23       		.uleb128 0x23
 2924 01cd 34       		.uleb128 0x34
ARM GAS  C:\Users\z80\AppData\Local\Temp\ccLrh9ok.s 			page 53


 2925 01ce 00       		.byte	0
 2926 01cf 03       		.uleb128 0x3
 2927 01d0 08       		.uleb128 0x8
 2928 01d1 3A       		.uleb128 0x3a
 2929 01d2 0B       		.uleb128 0xb
 2930 01d3 3B       		.uleb128 0x3b
 2931 01d4 0B       		.uleb128 0xb
 2932 01d5 49       		.uleb128 0x49
 2933 01d6 13       		.uleb128 0x13
 2934 01d7 02       		.uleb128 0x2
 2935 01d8 06       		.uleb128 0x6
 2936 01d9 00       		.byte	0
 2937 01da 00       		.byte	0
 2938 01db 24       		.uleb128 0x24
 2939 01dc 1D       		.uleb128 0x1d
 2940 01dd 01       		.byte	0x1
 2941 01de 31       		.uleb128 0x31
 2942 01df 13       		.uleb128 0x13
 2943 01e0 52       		.uleb128 0x52
 2944 01e1 01       		.uleb128 0x1
 2945 01e2 55       		.uleb128 0x55
 2946 01e3 06       		.uleb128 0x6
 2947 01e4 58       		.uleb128 0x58
 2948 01e5 0B       		.uleb128 0xb
 2949 01e6 59       		.uleb128 0x59
 2950 01e7 0B       		.uleb128 0xb
 2951 01e8 00       		.byte	0
 2952 01e9 00       		.byte	0
 2953 01ea 25       		.uleb128 0x25
 2954 01eb 1D       		.uleb128 0x1d
 2955 01ec 01       		.byte	0x1
 2956 01ed 31       		.uleb128 0x31
 2957 01ee 13       		.uleb128 0x13
 2958 01ef 11       		.uleb128 0x11
 2959 01f0 01       		.uleb128 0x1
 2960 01f1 12       		.uleb128 0x12
 2961 01f2 01       		.uleb128 0x1
 2962 01f3 58       		.uleb128 0x58
 2963 01f4 0B       		.uleb128 0xb
 2964 01f5 59       		.uleb128 0x59
 2965 01f6 0B       		.uleb128 0xb
 2966 01f7 01       		.uleb128 0x1
 2967 01f8 13       		.uleb128 0x13
 2968 01f9 00       		.byte	0
 2969 01fa 00       		.byte	0
 2970 01fb 26       		.uleb128 0x26
 2971 01fc 05       		.uleb128 0x5
 2972 01fd 00       		.byte	0
 2973 01fe 31       		.uleb128 0x31
 2974 01ff 13       		.uleb128 0x13
 2975 0200 1C       		.uleb128 0x1c
 2976 0201 0D       		.uleb128 0xd
 2977 0202 00       		.byte	0
 2978 0203 00       		.byte	0
 2979 0204 27       		.uleb128 0x27
 2980 0205 05       		.uleb128 0x5
 2981 0206 00       		.byte	0
ARM GAS  C:\Users\z80\AppData\Local\Temp\ccLrh9ok.s 			page 54


 2982 0207 31       		.uleb128 0x31
 2983 0208 13       		.uleb128 0x13
 2984 0209 1C       		.uleb128 0x1c
 2985 020a 0B       		.uleb128 0xb
 2986 020b 00       		.byte	0
 2987 020c 00       		.byte	0
 2988 020d 28       		.uleb128 0x28
 2989 020e 0B       		.uleb128 0xb
 2990 020f 01       		.byte	0x1
 2991 0210 11       		.uleb128 0x11
 2992 0211 01       		.uleb128 0x1
 2993 0212 12       		.uleb128 0x12
 2994 0213 01       		.uleb128 0x1
 2995 0214 01       		.uleb128 0x1
 2996 0215 13       		.uleb128 0x13
 2997 0216 00       		.byte	0
 2998 0217 00       		.byte	0
 2999 0218 29       		.uleb128 0x29
 3000 0219 0B       		.uleb128 0xb
 3001 021a 01       		.byte	0x1
 3002 021b 11       		.uleb128 0x11
 3003 021c 01       		.uleb128 0x1
 3004 021d 12       		.uleb128 0x12
 3005 021e 01       		.uleb128 0x1
 3006 021f 00       		.byte	0
 3007 0220 00       		.byte	0
 3008 0221 2A       		.uleb128 0x2a
 3009 0222 34       		.uleb128 0x34
 3010 0223 00       		.byte	0
 3011 0224 03       		.uleb128 0x3
 3012 0225 0E       		.uleb128 0xe
 3013 0226 3A       		.uleb128 0x3a
 3014 0227 0B       		.uleb128 0xb
 3015 0228 3B       		.uleb128 0x3b
 3016 0229 0B       		.uleb128 0xb
 3017 022a 49       		.uleb128 0x49
 3018 022b 13       		.uleb128 0x13
 3019 022c 02       		.uleb128 0x2
 3020 022d 06       		.uleb128 0x6
 3021 022e 00       		.byte	0
 3022 022f 00       		.byte	0
 3023 0230 2B       		.uleb128 0x2b
 3024 0231 0B       		.uleb128 0xb
 3025 0232 01       		.byte	0x1
 3026 0233 55       		.uleb128 0x55
 3027 0234 06       		.uleb128 0x6
 3028 0235 01       		.uleb128 0x1
 3029 0236 13       		.uleb128 0x13
 3030 0237 00       		.byte	0
 3031 0238 00       		.byte	0
 3032 0239 2C       		.uleb128 0x2c
 3033 023a 2E       		.uleb128 0x2e
 3034 023b 01       		.byte	0x1
 3035 023c 3F       		.uleb128 0x3f
 3036 023d 0C       		.uleb128 0xc
 3037 023e 03       		.uleb128 0x3
 3038 023f 0E       		.uleb128 0xe
ARM GAS  C:\Users\z80\AppData\Local\Temp\ccLrh9ok.s 			page 55


 3039 0240 3A       		.uleb128 0x3a
 3040 0241 0B       		.uleb128 0xb
 3041 0242 3B       		.uleb128 0x3b
 3042 0243 05       		.uleb128 0x5
 3043 0244 27       		.uleb128 0x27
 3044 0245 0C       		.uleb128 0xc
 3045 0246 11       		.uleb128 0x11
 3046 0247 01       		.uleb128 0x1
 3047 0248 12       		.uleb128 0x12
 3048 0249 01       		.uleb128 0x1
 3049 024a 40       		.uleb128 0x40
 3050 024b 06       		.uleb128 0x6
 3051 024c 01       		.uleb128 0x1
 3052 024d 13       		.uleb128 0x13
 3053 024e 00       		.byte	0
 3054 024f 00       		.byte	0
 3055 0250 2D       		.uleb128 0x2d
 3056 0251 05       		.uleb128 0x5
 3057 0252 00       		.byte	0
 3058 0253 03       		.uleb128 0x3
 3059 0254 08       		.uleb128 0x8
 3060 0255 3A       		.uleb128 0x3a
 3061 0256 0B       		.uleb128 0xb
 3062 0257 3B       		.uleb128 0x3b
 3063 0258 05       		.uleb128 0x5
 3064 0259 49       		.uleb128 0x49
 3065 025a 13       		.uleb128 0x13
 3066 025b 02       		.uleb128 0x2
 3067 025c 06       		.uleb128 0x6
 3068 025d 00       		.byte	0
 3069 025e 00       		.byte	0
 3070 025f 2E       		.uleb128 0x2e
 3071 0260 34       		.uleb128 0x34
 3072 0261 00       		.byte	0
 3073 0262 03       		.uleb128 0x3
 3074 0263 08       		.uleb128 0x8
 3075 0264 3A       		.uleb128 0x3a
 3076 0265 0B       		.uleb128 0xb
 3077 0266 3B       		.uleb128 0x3b
 3078 0267 05       		.uleb128 0x5
 3079 0268 49       		.uleb128 0x49
 3080 0269 13       		.uleb128 0x13
 3081 026a 02       		.uleb128 0x2
 3082 026b 06       		.uleb128 0x6
 3083 026c 00       		.byte	0
 3084 026d 00       		.byte	0
 3085 026e 2F       		.uleb128 0x2f
 3086 026f 05       		.uleb128 0x5
 3087 0270 00       		.byte	0
 3088 0271 03       		.uleb128 0x3
 3089 0272 0E       		.uleb128 0xe
 3090 0273 3A       		.uleb128 0x3a
 3091 0274 0B       		.uleb128 0xb
 3092 0275 3B       		.uleb128 0x3b
 3093 0276 05       		.uleb128 0x5
 3094 0277 49       		.uleb128 0x49
 3095 0278 13       		.uleb128 0x13
ARM GAS  C:\Users\z80\AppData\Local\Temp\ccLrh9ok.s 			page 56


 3096 0279 02       		.uleb128 0x2
 3097 027a 06       		.uleb128 0x6
 3098 027b 00       		.byte	0
 3099 027c 00       		.byte	0
 3100 027d 30       		.uleb128 0x30
 3101 027e 1D       		.uleb128 0x1d
 3102 027f 01       		.byte	0x1
 3103 0280 31       		.uleb128 0x31
 3104 0281 13       		.uleb128 0x13
 3105 0282 52       		.uleb128 0x52
 3106 0283 01       		.uleb128 0x1
 3107 0284 55       		.uleb128 0x55
 3108 0285 06       		.uleb128 0x6
 3109 0286 58       		.uleb128 0x58
 3110 0287 0B       		.uleb128 0xb
 3111 0288 59       		.uleb128 0x59
 3112 0289 05       		.uleb128 0x5
 3113 028a 00       		.byte	0
 3114 028b 00       		.byte	0
 3115 028c 31       		.uleb128 0x31
 3116 028d 0B       		.uleb128 0xb
 3117 028e 01       		.byte	0x1
 3118 028f 55       		.uleb128 0x55
 3119 0290 06       		.uleb128 0x6
 3120 0291 00       		.byte	0
 3121 0292 00       		.byte	0
 3122 0293 32       		.uleb128 0x32
 3123 0294 34       		.uleb128 0x34
 3124 0295 00       		.byte	0
 3125 0296 31       		.uleb128 0x31
 3126 0297 13       		.uleb128 0x13
 3127 0298 02       		.uleb128 0x2
 3128 0299 06       		.uleb128 0x6
 3129 029a 00       		.byte	0
 3130 029b 00       		.byte	0
 3131 029c 33       		.uleb128 0x33
 3132 029d 2E       		.uleb128 0x2e
 3133 029e 01       		.byte	0x1
 3134 029f 3F       		.uleb128 0x3f
 3135 02a0 0C       		.uleb128 0xc
 3136 02a1 03       		.uleb128 0x3
 3137 02a2 0E       		.uleb128 0xe
 3138 02a3 3A       		.uleb128 0x3a
 3139 02a4 0B       		.uleb128 0xb
 3140 02a5 3B       		.uleb128 0x3b
 3141 02a6 05       		.uleb128 0x5
 3142 02a7 27       		.uleb128 0x27
 3143 02a8 0C       		.uleb128 0xc
 3144 02a9 49       		.uleb128 0x49
 3145 02aa 13       		.uleb128 0x13
 3146 02ab 11       		.uleb128 0x11
 3147 02ac 01       		.uleb128 0x1
 3148 02ad 12       		.uleb128 0x12
 3149 02ae 01       		.uleb128 0x1
 3150 02af 40       		.uleb128 0x40
 3151 02b0 06       		.uleb128 0x6
 3152 02b1 01       		.uleb128 0x1
ARM GAS  C:\Users\z80\AppData\Local\Temp\ccLrh9ok.s 			page 57


 3153 02b2 13       		.uleb128 0x13
 3154 02b3 00       		.byte	0
 3155 02b4 00       		.byte	0
 3156 02b5 34       		.uleb128 0x34
 3157 02b6 1D       		.uleb128 0x1d
 3158 02b7 01       		.byte	0x1
 3159 02b8 31       		.uleb128 0x31
 3160 02b9 13       		.uleb128 0x13
 3161 02ba 52       		.uleb128 0x52
 3162 02bb 01       		.uleb128 0x1
 3163 02bc 55       		.uleb128 0x55
 3164 02bd 06       		.uleb128 0x6
 3165 02be 58       		.uleb128 0x58
 3166 02bf 0B       		.uleb128 0xb
 3167 02c0 59       		.uleb128 0x59
 3168 02c1 05       		.uleb128 0x5
 3169 02c2 01       		.uleb128 0x1
 3170 02c3 13       		.uleb128 0x13
 3171 02c4 00       		.byte	0
 3172 02c5 00       		.byte	0
 3173 02c6 35       		.uleb128 0x35
 3174 02c7 34       		.uleb128 0x34
 3175 02c8 00       		.byte	0
 3176 02c9 03       		.uleb128 0x3
 3177 02ca 0E       		.uleb128 0xe
 3178 02cb 3A       		.uleb128 0x3a
 3179 02cc 0B       		.uleb128 0xb
 3180 02cd 3B       		.uleb128 0x3b
 3181 02ce 0B       		.uleb128 0xb
 3182 02cf 49       		.uleb128 0x49
 3183 02d0 13       		.uleb128 0x13
 3184 02d1 3F       		.uleb128 0x3f
 3185 02d2 0C       		.uleb128 0xc
 3186 02d3 3C       		.uleb128 0x3c
 3187 02d4 0C       		.uleb128 0xc
 3188 02d5 00       		.byte	0
 3189 02d6 00       		.byte	0
 3190 02d7 00       		.byte	0
 3191              		.section	.debug_loc,"",%progbits
 3192              	.Ldebug_loc0:
 3193              	.LLST0:
 3194 0000 00000000 		.4byte	.LFB7
 3195 0004 04000000 		.4byte	.LCFI0
 3196 0008 0200     		.2byte	0x2
 3197 000a 7D       		.byte	0x7d
 3198 000b 00       		.sleb128 0
 3199 000c 04000000 		.4byte	.LCFI0
 3200 0010 4C000000 		.4byte	.LFE7
 3201 0014 0200     		.2byte	0x2
 3202 0016 7D       		.byte	0x7d
 3203 0017 14       		.sleb128 20
 3204 0018 00000000 		.4byte	0
 3205 001c 00000000 		.4byte	0
 3206              	.LLST1:
 3207 0020 00000000 		.4byte	.LVL1
 3208 0024 0A000000 		.4byte	.LVL2
 3209 0028 0100     		.2byte	0x1
ARM GAS  C:\Users\z80\AppData\Local\Temp\ccLrh9ok.s 			page 58


 3210 002a 50       		.byte	0x50
 3211 002b 0A000000 		.4byte	.LVL2
 3212 002f 1A000000 		.4byte	.LVL3
 3213 0033 0300     		.2byte	0x3
 3214 0035 70       		.byte	0x70
 3215 0036 7F       		.sleb128 -1
 3216 0037 9F       		.byte	0x9f
 3217 0038 2E000000 		.4byte	.LVL4
 3218 003c 30000000 		.4byte	.LVL5
 3219 0040 0300     		.2byte	0x3
 3220 0042 70       		.byte	0x70
 3221 0043 7F       		.sleb128 -1
 3222 0044 9F       		.byte	0x9f
 3223 0045 00000000 		.4byte	0
 3224 0049 00000000 		.4byte	0
 3225              	.LLST2:
 3226 004d 00000000 		.4byte	.LFB9
 3227 0051 04000000 		.4byte	.LCFI1
 3228 0055 0200     		.2byte	0x2
 3229 0057 7D       		.byte	0x7d
 3230 0058 00       		.sleb128 0
 3231 0059 04000000 		.4byte	.LCFI1
 3232 005d B2000000 		.4byte	.LFE9
 3233 0061 0200     		.2byte	0x2
 3234 0063 7D       		.byte	0x7d
 3235 0064 28       		.sleb128 40
 3236 0065 00000000 		.4byte	0
 3237 0069 00000000 		.4byte	0
 3238              	.LLST3:
 3239 006d 00000000 		.4byte	.LVL6
 3240 0071 0F000000 		.4byte	.LVL8-1
 3241 0075 0100     		.2byte	0x1
 3242 0077 50       		.byte	0x50
 3243 0078 0F000000 		.4byte	.LVL8-1
 3244 007c B2000000 		.4byte	.LFE9
 3245 0080 0100     		.2byte	0x1
 3246 0082 54       		.byte	0x54
 3247 0083 00000000 		.4byte	0
 3248 0087 00000000 		.4byte	0
 3249              	.LLST4:
 3250 008b 00000000 		.4byte	.LVL6
 3251 008f 0F000000 		.4byte	.LVL8-1
 3252 0093 0100     		.2byte	0x1
 3253 0095 51       		.byte	0x51
 3254 0096 0F000000 		.4byte	.LVL8-1
 3255 009a 48000000 		.4byte	.LVL9
 3256 009e 0100     		.2byte	0x1
 3257 00a0 58       		.byte	0x58
 3258 00a1 48000000 		.4byte	.LVL9
 3259 00a5 6A000000 		.4byte	.LVL10
 3260 00a9 0300     		.2byte	0x3
 3261 00ab 78       		.byte	0x78
 3262 00ac 24       		.sleb128 36
 3263 00ad 9F       		.byte	0x9f
 3264 00ae 00000000 		.4byte	0
 3265 00b2 00000000 		.4byte	0
 3266              	.LLST5:
ARM GAS  C:\Users\z80\AppData\Local\Temp\ccLrh9ok.s 			page 59


 3267 00b6 00000000 		.4byte	.LVL6
 3268 00ba 0F000000 		.4byte	.LVL8-1
 3269 00be 0100     		.2byte	0x1
 3270 00c0 52       		.byte	0x52
 3271 00c1 0F000000 		.4byte	.LVL8-1
 3272 00c5 B2000000 		.4byte	.LFE9
 3273 00c9 0100     		.2byte	0x1
 3274 00cb 55       		.byte	0x55
 3275 00cc 00000000 		.4byte	0
 3276 00d0 00000000 		.4byte	0
 3277              	.LLST6:
 3278 00d4 00000000 		.4byte	.LVL6
 3279 00d8 0F000000 		.4byte	.LVL8-1
 3280 00dc 0100     		.2byte	0x1
 3281 00de 53       		.byte	0x53
 3282 00df 0F000000 		.4byte	.LVL8-1
 3283 00e3 B2000000 		.4byte	.LFE9
 3284 00e7 0100     		.2byte	0x1
 3285 00e9 59       		.byte	0x59
 3286 00ea 00000000 		.4byte	0
 3287 00ee 00000000 		.4byte	0
 3288              	.LLST7:
 3289 00f2 06000000 		.4byte	.LVL7
 3290 00f6 0F000000 		.4byte	.LVL8-1
 3291 00fa 0100     		.2byte	0x1
 3292 00fc 50       		.byte	0x50
 3293 00fd 0F000000 		.4byte	.LVL8-1
 3294 0101 B2000000 		.4byte	.LFE9
 3295 0105 0100     		.2byte	0x1
 3296 0107 54       		.byte	0x54
 3297 0108 00000000 		.4byte	0
 3298 010c 00000000 		.4byte	0
 3299              	.LLST8:
 3300 0110 00000000 		.4byte	.LFB10
 3301 0114 02000000 		.4byte	.LCFI2
 3302 0118 0200     		.2byte	0x2
 3303 011a 7D       		.byte	0x7d
 3304 011b 00       		.sleb128 0
 3305 011c 02000000 		.4byte	.LCFI2
 3306 0120 10000000 		.4byte	.LCFI3
 3307 0124 0200     		.2byte	0x2
 3308 0126 7D       		.byte	0x7d
 3309 0127 14       		.sleb128 20
 3310 0128 10000000 		.4byte	.LCFI3
 3311 012c 8E000000 		.4byte	.LFE10
 3312 0130 0200     		.2byte	0x2
 3313 0132 7D       		.byte	0x7d
 3314 0133 20       		.sleb128 32
 3315 0134 00000000 		.4byte	0
 3316 0138 00000000 		.4byte	0
 3317              	.LLST9:
 3318 013c 00000000 		.4byte	.LVL12
 3319 0140 14000000 		.4byte	.LVL15
 3320 0144 0100     		.2byte	0x1
 3321 0146 50       		.byte	0x50
 3322 0147 14000000 		.4byte	.LVL15
 3323 014b 6A000000 		.4byte	.LVL22
ARM GAS  C:\Users\z80\AppData\Local\Temp\ccLrh9ok.s 			page 60


 3324 014f 0100     		.2byte	0x1
 3325 0151 54       		.byte	0x54
 3326 0152 6A000000 		.4byte	.LVL22
 3327 0156 75000000 		.4byte	.LVL23-1
 3328 015a 0100     		.2byte	0x1
 3329 015c 50       		.byte	0x50
 3330 015d 00000000 		.4byte	0
 3331 0161 00000000 		.4byte	0
 3332              	.LLST10:
 3333 0165 00000000 		.4byte	.LVL12
 3334 0169 16000000 		.4byte	.LVL16
 3335 016d 0100     		.2byte	0x1
 3336 016f 51       		.byte	0x51
 3337 0170 16000000 		.4byte	.LVL16
 3338 0174 8E000000 		.4byte	.LFE10
 3339 0178 0100     		.2byte	0x1
 3340 017a 55       		.byte	0x55
 3341 017b 00000000 		.4byte	0
 3342 017f 00000000 		.4byte	0
 3343              	.LLST11:
 3344 0183 00000000 		.4byte	.LVL12
 3345 0187 16000000 		.4byte	.LVL16
 3346 018b 0100     		.2byte	0x1
 3347 018d 52       		.byte	0x52
 3348 018e 16000000 		.4byte	.LVL16
 3349 0192 8E000000 		.4byte	.LFE10
 3350 0196 0100     		.2byte	0x1
 3351 0198 56       		.byte	0x56
 3352 0199 00000000 		.4byte	0
 3353 019d 00000000 		.4byte	0
 3354              	.LLST12:
 3355 01a1 00000000 		.4byte	.LVL12
 3356 01a5 0E000000 		.4byte	.LVL14
 3357 01a9 0100     		.2byte	0x1
 3358 01ab 53       		.byte	0x53
 3359 01ac 0E000000 		.4byte	.LVL14
 3360 01b0 8E000000 		.4byte	.LFE10
 3361 01b4 0100     		.2byte	0x1
 3362 01b6 57       		.byte	0x57
 3363 01b7 00000000 		.4byte	0
 3364 01bb 00000000 		.4byte	0
 3365              	.LLST13:
 3366 01bf 7A000000 		.4byte	.LVL24
 3367 01c3 7D000000 		.4byte	.LVL25-1
 3368 01c7 0100     		.2byte	0x1
 3369 01c9 50       		.byte	0x50
 3370 01ca 7D000000 		.4byte	.LVL25-1
 3371 01ce 8E000000 		.4byte	.LFE10
 3372 01d2 0100     		.2byte	0x1
 3373 01d4 54       		.byte	0x54
 3374 01d5 00000000 		.4byte	0
 3375 01d9 00000000 		.4byte	0
 3376              	.LLST14:
 3377 01dd 0C000000 		.4byte	.LVL13
 3378 01e1 65000000 		.4byte	.LVL21-1
 3379 01e5 0100     		.2byte	0x1
 3380 01e7 5E       		.byte	0x5e
ARM GAS  C:\Users\z80\AppData\Local\Temp\ccLrh9ok.s 			page 61


 3381 01e8 00000000 		.4byte	0
 3382 01ec 00000000 		.4byte	0
 3383              	.LLST15:
 3384 01f0 0C000000 		.4byte	.LVL13
 3385 01f4 14000000 		.4byte	.LVL15
 3386 01f8 0100     		.2byte	0x1
 3387 01fa 50       		.byte	0x50
 3388 01fb 14000000 		.4byte	.LVL15
 3389 01ff 16000000 		.4byte	.LVL16
 3390 0203 0100     		.2byte	0x1
 3391 0205 54       		.byte	0x54
 3392 0206 00000000 		.4byte	0
 3393 020a 00000000 		.4byte	0
 3394              	.LLST16:
 3395 020e 28000000 		.4byte	.LVL17
 3396 0212 65000000 		.4byte	.LVL21-1
 3397 0216 0100     		.2byte	0x1
 3398 0218 50       		.byte	0x50
 3399 0219 00000000 		.4byte	0
 3400 021d 00000000 		.4byte	0
 3401              	.LLST17:
 3402 0221 28000000 		.4byte	.LVL17
 3403 0225 4A000000 		.4byte	.LVL18
 3404 0229 0100     		.2byte	0x1
 3405 022b 5E       		.byte	0x5e
 3406 022c 00000000 		.4byte	0
 3407 0230 00000000 		.4byte	0
 3408              	.LLST18:
 3409 0234 62000000 		.4byte	.LVL20
 3410 0238 65000000 		.4byte	.LVL21-1
 3411 023c 0100     		.2byte	0x1
 3412 023e 53       		.byte	0x53
 3413 023f 00000000 		.4byte	0
 3414 0243 00000000 		.4byte	0
 3415              	.LLST19:
 3416 0247 88000000 		.4byte	.LVL27
 3417 024b 8E000000 		.4byte	.LFE10
 3418 024f 0100     		.2byte	0x1
 3419 0251 53       		.byte	0x53
 3420 0252 00000000 		.4byte	0
 3421 0256 00000000 		.4byte	0
 3422              	.LLST20:
 3423 025a 00000000 		.4byte	.LFB11
 3424 025e 04000000 		.4byte	.LCFI4
 3425 0262 0200     		.2byte	0x2
 3426 0264 7D       		.byte	0x7d
 3427 0265 00       		.sleb128 0
 3428 0266 04000000 		.4byte	.LCFI4
 3429 026a 4C000000 		.4byte	.LFE11
 3430 026e 0200     		.2byte	0x2
 3431 0270 7D       		.byte	0x7d
 3432 0271 10       		.sleb128 16
 3433 0272 00000000 		.4byte	0
 3434 0276 00000000 		.4byte	0
 3435              	.LLST21:
 3436 027a 00000000 		.4byte	.LVL28
 3437 027e 08000000 		.4byte	.LVL29
ARM GAS  C:\Users\z80\AppData\Local\Temp\ccLrh9ok.s 			page 62


 3438 0282 0100     		.2byte	0x1
 3439 0284 50       		.byte	0x50
 3440 0285 08000000 		.4byte	.LVL29
 3441 0289 4C000000 		.4byte	.LFE11
 3442 028d 0100     		.2byte	0x1
 3443 028f 54       		.byte	0x54
 3444 0290 00000000 		.4byte	0
 3445 0294 00000000 		.4byte	0
 3446              	.LLST22:
 3447 0298 2F000000 		.4byte	.LVL34-1
 3448 029c 3E000000 		.4byte	.LVL37
 3449 02a0 0100     		.2byte	0x1
 3450 02a2 55       		.byte	0x55
 3451 02a3 00000000 		.4byte	0
 3452 02a7 00000000 		.4byte	0
 3453              	.LLST23:
 3454 02ab 0E000000 		.4byte	.LVL31
 3455 02af 11000000 		.4byte	.LVL32-1
 3456 02b3 0100     		.2byte	0x1
 3457 02b5 53       		.byte	0x53
 3458 02b6 00000000 		.4byte	0
 3459 02ba 00000000 		.4byte	0
 3460              	.LLST24:
 3461 02be 3A000000 		.4byte	.LVL36
 3462 02c2 3E000000 		.4byte	.LVL37
 3463 02c6 0100     		.2byte	0x1
 3464 02c8 53       		.byte	0x53
 3465 02c9 00000000 		.4byte	0
 3466 02cd 00000000 		.4byte	0
 3467              	.LLST25:
 3468 02d1 00000000 		.4byte	.LFB12
 3469 02d5 02000000 		.4byte	.LCFI5
 3470 02d9 0200     		.2byte	0x2
 3471 02db 7D       		.byte	0x7d
 3472 02dc 00       		.sleb128 0
 3473 02dd 02000000 		.4byte	.LCFI5
 3474 02e1 38000000 		.4byte	.LFE12
 3475 02e5 0200     		.2byte	0x2
 3476 02e7 7D       		.byte	0x7d
 3477 02e8 08       		.sleb128 8
 3478 02e9 00000000 		.4byte	0
 3479 02ed 00000000 		.4byte	0
 3480              	.LLST26:
 3481 02f1 00000000 		.4byte	.LVL38
 3482 02f5 0D000000 		.4byte	.LVL41-1
 3483 02f9 0100     		.2byte	0x1
 3484 02fb 50       		.byte	0x50
 3485 02fc 0D000000 		.4byte	.LVL41-1
 3486 0300 38000000 		.4byte	.LFE12
 3487 0304 0100     		.2byte	0x1
 3488 0306 54       		.byte	0x54
 3489 0307 00000000 		.4byte	0
 3490 030b 00000000 		.4byte	0
 3491              	.LLST27:
 3492 030f 0A000000 		.4byte	.LVL40
 3493 0313 0D000000 		.4byte	.LVL41-1
 3494 0317 0100     		.2byte	0x1
ARM GAS  C:\Users\z80\AppData\Local\Temp\ccLrh9ok.s 			page 63


 3495 0319 53       		.byte	0x53
 3496 031a 00000000 		.4byte	0
 3497 031e 00000000 		.4byte	0
 3498              	.LLST28:
 3499 0322 34000000 		.4byte	.LVL43
 3500 0326 38000000 		.4byte	.LFE12
 3501 032a 0100     		.2byte	0x1
 3502 032c 53       		.byte	0x53
 3503 032d 00000000 		.4byte	0
 3504 0331 00000000 		.4byte	0
 3505              	.LLST29:
 3506 0335 00000000 		.4byte	.LFB13
 3507 0339 02000000 		.4byte	.LCFI6
 3508 033d 0200     		.2byte	0x2
 3509 033f 7D       		.byte	0x7d
 3510 0340 00       		.sleb128 0
 3511 0341 02000000 		.4byte	.LCFI6
 3512 0345 26000000 		.4byte	.LFE13
 3513 0349 0200     		.2byte	0x2
 3514 034b 7D       		.byte	0x7d
 3515 034c 08       		.sleb128 8
 3516 034d 00000000 		.4byte	0
 3517 0351 00000000 		.4byte	0
 3518              	.LLST30:
 3519 0355 00000000 		.4byte	.LVL44
 3520 0359 0D000000 		.4byte	.LVL47-1
 3521 035d 0100     		.2byte	0x1
 3522 035f 50       		.byte	0x50
 3523 0360 0D000000 		.4byte	.LVL47-1
 3524 0364 26000000 		.4byte	.LFE13
 3525 0368 0100     		.2byte	0x1
 3526 036a 54       		.byte	0x54
 3527 036b 00000000 		.4byte	0
 3528 036f 00000000 		.4byte	0
 3529              	.LLST31:
 3530 0373 0A000000 		.4byte	.LVL46
 3531 0377 0D000000 		.4byte	.LVL47-1
 3532 037b 0100     		.2byte	0x1
 3533 037d 53       		.byte	0x53
 3534 037e 00000000 		.4byte	0
 3535 0382 00000000 		.4byte	0
 3536              	.LLST32:
 3537 0386 24000000 		.4byte	.LVL49
 3538 038a 26000000 		.4byte	.LFE13
 3539 038e 0100     		.2byte	0x1
 3540 0390 53       		.byte	0x53
 3541 0391 00000000 		.4byte	0
 3542 0395 00000000 		.4byte	0
 3543              	.LLST33:
 3544 0399 00000000 		.4byte	.LFB14
 3545 039d 02000000 		.4byte	.LCFI7
 3546 03a1 0200     		.2byte	0x2
 3547 03a3 7D       		.byte	0x7d
 3548 03a4 00       		.sleb128 0
 3549 03a5 02000000 		.4byte	.LCFI7
 3550 03a9 30000000 		.4byte	.LFE14
 3551 03ad 0200     		.2byte	0x2
ARM GAS  C:\Users\z80\AppData\Local\Temp\ccLrh9ok.s 			page 64


 3552 03af 7D       		.byte	0x7d
 3553 03b0 08       		.sleb128 8
 3554 03b1 00000000 		.4byte	0
 3555 03b5 00000000 		.4byte	0
 3556              	.LLST34:
 3557 03b9 00000000 		.4byte	.LVL50
 3558 03bd 0A000000 		.4byte	.LVL51
 3559 03c1 0100     		.2byte	0x1
 3560 03c3 50       		.byte	0x50
 3561 03c4 0A000000 		.4byte	.LVL51
 3562 03c8 30000000 		.4byte	.LFE14
 3563 03cc 0100     		.2byte	0x1
 3564 03ce 54       		.byte	0x54
 3565 03cf 00000000 		.4byte	0
 3566 03d3 00000000 		.4byte	0
 3567              	.LLST35:
 3568 03d7 18000000 		.4byte	.LVL53
 3569 03db 1B000000 		.4byte	.LVL54-1
 3570 03df 0100     		.2byte	0x1
 3571 03e1 53       		.byte	0x53
 3572 03e2 00000000 		.4byte	0
 3573 03e6 00000000 		.4byte	0
 3574              	.LLST36:
 3575 03ea 2E000000 		.4byte	.LVL56
 3576 03ee 30000000 		.4byte	.LFE14
 3577 03f2 0100     		.2byte	0x1
 3578 03f4 53       		.byte	0x53
 3579 03f5 00000000 		.4byte	0
 3580 03f9 00000000 		.4byte	0
 3581              	.LLST37:
 3582 03fd 00000000 		.4byte	.LFB15
 3583 0401 02000000 		.4byte	.LCFI8
 3584 0405 0200     		.2byte	0x2
 3585 0407 7D       		.byte	0x7d
 3586 0408 00       		.sleb128 0
 3587 0409 02000000 		.4byte	.LCFI8
 3588 040d 2E000000 		.4byte	.LFE15
 3589 0411 0200     		.2byte	0x2
 3590 0413 7D       		.byte	0x7d
 3591 0414 08       		.sleb128 8
 3592 0415 00000000 		.4byte	0
 3593 0419 00000000 		.4byte	0
 3594              	.LLST38:
 3595 041d 00000000 		.4byte	.LVL57
 3596 0421 0D000000 		.4byte	.LVL60-1
 3597 0425 0100     		.2byte	0x1
 3598 0427 50       		.byte	0x50
 3599 0428 0D000000 		.4byte	.LVL60-1
 3600 042c 18000000 		.4byte	.LVL61
 3601 0430 0100     		.2byte	0x1
 3602 0432 54       		.byte	0x54
 3603 0433 18000000 		.4byte	.LVL61
 3604 0437 1A000000 		.4byte	.LVL62
 3605 043b 0600     		.2byte	0x6
 3606 043d 74       		.byte	0x74
 3607 043e 00       		.sleb128 0
 3608 043f 71       		.byte	0x71
ARM GAS  C:\Users\z80\AppData\Local\Temp\ccLrh9ok.s 			page 65


 3609 0440 00       		.sleb128 0
 3610 0441 1C       		.byte	0x1c
 3611 0442 9F       		.byte	0x9f
 3612 0443 1A000000 		.4byte	.LVL62
 3613 0447 21000000 		.4byte	.LVL63-1
 3614 044b 0100     		.2byte	0x1
 3615 044d 51       		.byte	0x51
 3616 044e 00000000 		.4byte	0
 3617 0452 00000000 		.4byte	0
 3618              	.LLST39:
 3619 0456 0A000000 		.4byte	.LVL59
 3620 045a 0D000000 		.4byte	.LVL60-1
 3621 045e 0100     		.2byte	0x1
 3622 0460 53       		.byte	0x53
 3623 0461 00000000 		.4byte	0
 3624 0465 00000000 		.4byte	0
 3625              	.LLST40:
 3626 0469 2C000000 		.4byte	.LVL65
 3627 046d 2E000000 		.4byte	.LFE15
 3628 0471 0100     		.2byte	0x1
 3629 0473 53       		.byte	0x53
 3630 0474 00000000 		.4byte	0
 3631 0478 00000000 		.4byte	0
 3632              	.LLST41:
 3633 047c 00000000 		.4byte	.LFB16
 3634 0480 02000000 		.4byte	.LCFI9
 3635 0484 0200     		.2byte	0x2
 3636 0486 7D       		.byte	0x7d
 3637 0487 00       		.sleb128 0
 3638 0488 02000000 		.4byte	.LCFI9
 3639 048c 34000000 		.4byte	.LFE16
 3640 0490 0200     		.2byte	0x2
 3641 0492 7D       		.byte	0x7d
 3642 0493 08       		.sleb128 8
 3643 0494 00000000 		.4byte	0
 3644 0498 00000000 		.4byte	0
 3645              	.LLST42:
 3646 049c 08000000 		.4byte	.LVL67
 3647 04a0 0B000000 		.4byte	.LVL68-1
 3648 04a4 0100     		.2byte	0x1
 3649 04a6 53       		.byte	0x53
 3650 04a7 00000000 		.4byte	0
 3651 04ab 00000000 		.4byte	0
 3652              	.LLST43:
 3653 04af 32000000 		.4byte	.LVL70
 3654 04b3 34000000 		.4byte	.LFE16
 3655 04b7 0100     		.2byte	0x1
 3656 04b9 53       		.byte	0x53
 3657 04ba 00000000 		.4byte	0
 3658 04be 00000000 		.4byte	0
 3659              	.LLST44:
 3660 04c2 00000000 		.4byte	.LFB18
 3661 04c6 02000000 		.4byte	.LCFI10
 3662 04ca 0200     		.2byte	0x2
 3663 04cc 7D       		.byte	0x7d
 3664 04cd 00       		.sleb128 0
 3665 04ce 02000000 		.4byte	.LCFI10
ARM GAS  C:\Users\z80\AppData\Local\Temp\ccLrh9ok.s 			page 66


 3666 04d2 52000000 		.4byte	.LFE18
 3667 04d6 0200     		.2byte	0x2
 3668 04d8 7D       		.byte	0x7d
 3669 04d9 10       		.sleb128 16
 3670 04da 00000000 		.4byte	0
 3671 04de 00000000 		.4byte	0
 3672              	.LLST45:
 3673 04e2 00000000 		.4byte	.LVL71
 3674 04e6 18000000 		.4byte	.LVL74
 3675 04ea 0100     		.2byte	0x1
 3676 04ec 50       		.byte	0x50
 3677 04ed 00000000 		.4byte	0
 3678 04f1 00000000 		.4byte	0
 3679              	.LLST46:
 3680 04f5 0C000000 		.4byte	.LVL72
 3681 04f9 12000000 		.4byte	.LVL73
 3682 04fd 0200     		.2byte	0x2
 3683 04ff 73       		.byte	0x73
 3684 0500 1C       		.sleb128 28
 3685 0501 18000000 		.4byte	.LVL74
 3686 0505 52000000 		.4byte	.LFE18
 3687 0509 0100     		.2byte	0x1
 3688 050b 54       		.byte	0x54
 3689 050c 00000000 		.4byte	0
 3690 0510 00000000 		.4byte	0
 3691              	.LLST47:
 3692 0514 18000000 		.4byte	.LVL74
 3693 0518 28000000 		.4byte	.LVL76
 3694 051c 0300     		.2byte	0x3
 3695 051e 74       		.byte	0x74
 3696 051f 2C       		.sleb128 44
 3697 0520 9F       		.byte	0x9f
 3698 0521 00000000 		.4byte	0
 3699 0525 00000000 		.4byte	0
 3700              	.LLST48:
 3701 0529 18000000 		.4byte	.LVL74
 3702 052d 21000000 		.4byte	.LVL75-1
 3703 0531 0100     		.2byte	0x1
 3704 0533 53       		.byte	0x53
 3705 0534 00000000 		.4byte	0
 3706 0538 00000000 		.4byte	0
 3707              	.LLST49:
 3708 053c 00000000 		.4byte	.LFB17
 3709 0540 02000000 		.4byte	.LCFI11
 3710 0544 0200     		.2byte	0x2
 3711 0546 7D       		.byte	0x7d
 3712 0547 00       		.sleb128 0
 3713 0548 02000000 		.4byte	.LCFI11
 3714 054c 18000000 		.4byte	.LFE17
 3715 0550 0200     		.2byte	0x2
 3716 0552 7D       		.byte	0x7d
 3717 0553 08       		.sleb128 8
 3718 0554 00000000 		.4byte	0
 3719 0558 00000000 		.4byte	0
 3720              	.LLST50:
 3721 055c 00000000 		.4byte	.LVL77
 3722 0560 0D000000 		.4byte	.LVL80-1
ARM GAS  C:\Users\z80\AppData\Local\Temp\ccLrh9ok.s 			page 67


 3723 0564 0100     		.2byte	0x1
 3724 0566 50       		.byte	0x50
 3725 0567 0D000000 		.4byte	.LVL80-1
 3726 056b 18000000 		.4byte	.LFE17
 3727 056f 0100     		.2byte	0x1
 3728 0571 54       		.byte	0x54
 3729 0572 00000000 		.4byte	0
 3730 0576 00000000 		.4byte	0
 3731              	.LLST51:
 3732 057a 0A000000 		.4byte	.LVL79
 3733 057e 0D000000 		.4byte	.LVL80-1
 3734 0582 0100     		.2byte	0x1
 3735 0584 53       		.byte	0x53
 3736 0585 00000000 		.4byte	0
 3737 0589 00000000 		.4byte	0
 3738              	.LLST52:
 3739 058d 00000000 		.4byte	.LFB19
 3740 0591 02000000 		.4byte	.LCFI12
 3741 0595 0200     		.2byte	0x2
 3742 0597 7D       		.byte	0x7d
 3743 0598 00       		.sleb128 0
 3744 0599 02000000 		.4byte	.LCFI12
 3745 059d 60000000 		.4byte	.LFE19
 3746 05a1 0200     		.2byte	0x2
 3747 05a3 7D       		.byte	0x7d
 3748 05a4 10       		.sleb128 16
 3749 05a5 00000000 		.4byte	0
 3750 05a9 00000000 		.4byte	0
 3751              	.LLST53:
 3752 05ad 00000000 		.4byte	.LVL81
 3753 05b1 06000000 		.4byte	.LVL82
 3754 05b5 0100     		.2byte	0x1
 3755 05b7 50       		.byte	0x50
 3756 05b8 06000000 		.4byte	.LVL82
 3757 05bc 36000000 		.4byte	.LVL88
 3758 05c0 0100     		.2byte	0x1
 3759 05c2 54       		.byte	0x54
 3760 05c3 44000000 		.4byte	.LVL91
 3761 05c7 48000000 		.4byte	.LVL92
 3762 05cb 0100     		.2byte	0x1
 3763 05cd 50       		.byte	0x50
 3764 05ce 48000000 		.4byte	.LVL92
 3765 05d2 60000000 		.4byte	.LFE19
 3766 05d6 0100     		.2byte	0x1
 3767 05d8 54       		.byte	0x54
 3768 05d9 00000000 		.4byte	0
 3769 05dd 00000000 		.4byte	0
 3770              	.LLST54:
 3771 05e1 36000000 		.4byte	.LVL88
 3772 05e5 44000000 		.4byte	.LVL91
 3773 05e9 0100     		.2byte	0x1
 3774 05eb 54       		.byte	0x54
 3775 05ec 00000000 		.4byte	0
 3776 05f0 00000000 		.4byte	0
 3777              	.LLST55:
 3778 05f4 0C000000 		.4byte	.LVL84
 3779 05f8 17000000 		.4byte	.LVL85-1
ARM GAS  C:\Users\z80\AppData\Local\Temp\ccLrh9ok.s 			page 68


 3780 05fc 0100     		.2byte	0x1
 3781 05fe 53       		.byte	0x53
 3782 05ff 00000000 		.4byte	0
 3783 0603 00000000 		.4byte	0
 3784              	.LLST56:
 3785 0607 28000000 		.4byte	.LVL86
 3786 060b 34000000 		.4byte	.LVL87
 3787 060f 0300     		.2byte	0x3
 3788 0611 74       		.byte	0x74
 3789 0612 2C       		.sleb128 44
 3790 0613 9F       		.byte	0x9f
 3791 0614 00000000 		.4byte	0
 3792 0618 00000000 		.4byte	0
 3793              	.LLST57:
 3794 061c 28000000 		.4byte	.LVL86
 3795 0620 33000000 		.4byte	.LVL87-1
 3796 0624 0200     		.2byte	0x2
 3797 0626 75       		.byte	0x75
 3798 0627 1C       		.sleb128 28
 3799 0628 00000000 		.4byte	0
 3800 062c 00000000 		.4byte	0
 3801              	.LLST58:
 3802 0630 40000000 		.4byte	.LVL90
 3803 0634 44000000 		.4byte	.LVL91
 3804 0638 0100     		.2byte	0x1
 3805 063a 53       		.byte	0x53
 3806 063b 00000000 		.4byte	0
 3807 063f 00000000 		.4byte	0
 3808              		.section	.debug_aranges,"",%progbits
 3809 0000 7C000000 		.4byte	0x7c
 3810 0004 0200     		.2byte	0x2
 3811 0006 00000000 		.4byte	.Ldebug_info0
 3812 000a 04       		.byte	0x4
 3813 000b 00       		.byte	0
 3814 000c 0000     		.2byte	0
 3815 000e 0000     		.2byte	0
 3816 0010 00000000 		.4byte	.LFB7
 3817 0014 4C000000 		.4byte	.LFE7-.LFB7
 3818 0018 00000000 		.4byte	.LFB8
 3819 001c 32000000 		.4byte	.LFE8-.LFB8
 3820 0020 00000000 		.4byte	.LFB9
 3821 0024 B2000000 		.4byte	.LFE9-.LFB9
 3822 0028 00000000 		.4byte	.LFB10
 3823 002c 8E000000 		.4byte	.LFE10-.LFB10
 3824 0030 00000000 		.4byte	.LFB11
 3825 0034 4C000000 		.4byte	.LFE11-.LFB11
 3826 0038 00000000 		.4byte	.LFB12
 3827 003c 38000000 		.4byte	.LFE12-.LFB12
 3828 0040 00000000 		.4byte	.LFB13
 3829 0044 26000000 		.4byte	.LFE13-.LFB13
 3830 0048 00000000 		.4byte	.LFB14
 3831 004c 30000000 		.4byte	.LFE14-.LFB14
 3832 0050 00000000 		.4byte	.LFB15
 3833 0054 2E000000 		.4byte	.LFE15-.LFB15
 3834 0058 00000000 		.4byte	.LFB16
 3835 005c 34000000 		.4byte	.LFE16-.LFB16
 3836 0060 00000000 		.4byte	.LFB18
ARM GAS  C:\Users\z80\AppData\Local\Temp\ccLrh9ok.s 			page 69


 3837 0064 52000000 		.4byte	.LFE18-.LFB18
 3838 0068 00000000 		.4byte	.LFB17
 3839 006c 18000000 		.4byte	.LFE17-.LFB17
 3840 0070 00000000 		.4byte	.LFB19
 3841 0074 60000000 		.4byte	.LFE19-.LFB19
 3842 0078 00000000 		.4byte	0
 3843 007c 00000000 		.4byte	0
 3844              		.section	.debug_ranges,"",%progbits
 3845              	.Ldebug_ranges0:
 3846 0000 48000000 		.4byte	.LBB16
 3847 0004 4C000000 		.4byte	.LBE16
 3848 0008 50000000 		.4byte	.LBB22
 3849 000c 54000000 		.4byte	.LBE22
 3850 0010 58000000 		.4byte	.LBB23
 3851 0014 5C000000 		.4byte	.LBE23
 3852 0018 6C000000 		.4byte	.LBB24
 3853 001c 7C000000 		.4byte	.LBE24
 3854 0020 82000000 		.4byte	.LBB25
 3855 0024 AE000000 		.4byte	.LBE25
 3856 0028 00000000 		.4byte	0
 3857 002c 00000000 		.4byte	0
 3858 0030 02000000 		.4byte	.LBB34
 3859 0034 04000000 		.4byte	.LBE34
 3860 0038 06000000 		.4byte	.LBB35
 3861 003c 0A000000 		.4byte	.LBE35
 3862 0040 00000000 		.4byte	0
 3863 0044 00000000 		.4byte	0
 3864 0048 02000000 		.4byte	.LBB37
 3865 004c 04000000 		.4byte	.LBE37
 3866 0050 06000000 		.4byte	.LBB38
 3867 0054 0A000000 		.4byte	.LBE38
 3868 0058 00000000 		.4byte	0
 3869 005c 00000000 		.4byte	0
 3870 0060 02000000 		.4byte	.LBB42
 3871 0064 04000000 		.4byte	.LBE42
 3872 0068 06000000 		.4byte	.LBB43
 3873 006c 0A000000 		.4byte	.LBE43
 3874 0070 00000000 		.4byte	0
 3875 0074 00000000 		.4byte	0
 3876 0078 18000000 		.4byte	.LBB47
 3877 007c 1A000000 		.4byte	.LBE47
 3878 0080 1C000000 		.4byte	.LBB50
 3879 0084 1E000000 		.4byte	.LBE50
 3880 0088 00000000 		.4byte	0
 3881 008c 00000000 		.4byte	0
 3882 0090 18000000 		.4byte	.LBB48
 3883 0094 1A000000 		.4byte	.LBE48
 3884 0098 1C000000 		.4byte	.LBB49
 3885 009c 1E000000 		.4byte	.LBE49
 3886 00a0 00000000 		.4byte	0
 3887 00a4 00000000 		.4byte	0
 3888 00a8 02000000 		.4byte	.LBB51
 3889 00ac 04000000 		.4byte	.LBE51
 3890 00b0 06000000 		.4byte	.LBB52
 3891 00b4 0A000000 		.4byte	.LBE52
 3892 00b8 00000000 		.4byte	0
 3893 00bc 00000000 		.4byte	0
ARM GAS  C:\Users\z80\AppData\Local\Temp\ccLrh9ok.s 			page 70


 3894 00c0 28000000 		.4byte	.LBB54
 3895 00c4 2A000000 		.4byte	.LBE54
 3896 00c8 2C000000 		.4byte	.LBB57
 3897 00cc 30000000 		.4byte	.LBE57
 3898 00d0 00000000 		.4byte	0
 3899 00d4 00000000 		.4byte	0
 3900 00d8 00000000 		.4byte	.LFB7
 3901 00dc 4C000000 		.4byte	.LFE7
 3902 00e0 00000000 		.4byte	.LFB8
 3903 00e4 32000000 		.4byte	.LFE8
 3904 00e8 00000000 		.4byte	.LFB9
 3905 00ec B2000000 		.4byte	.LFE9
 3906 00f0 00000000 		.4byte	.LFB10
 3907 00f4 8E000000 		.4byte	.LFE10
 3908 00f8 00000000 		.4byte	.LFB11
 3909 00fc 4C000000 		.4byte	.LFE11
 3910 0100 00000000 		.4byte	.LFB12
 3911 0104 38000000 		.4byte	.LFE12
 3912 0108 00000000 		.4byte	.LFB13
 3913 010c 26000000 		.4byte	.LFE13
 3914 0110 00000000 		.4byte	.LFB14
 3915 0114 30000000 		.4byte	.LFE14
 3916 0118 00000000 		.4byte	.LFB15
 3917 011c 2E000000 		.4byte	.LFE15
 3918 0120 00000000 		.4byte	.LFB16
 3919 0124 34000000 		.4byte	.LFE16
 3920 0128 00000000 		.4byte	.LFB18
 3921 012c 52000000 		.4byte	.LFE18
 3922 0130 00000000 		.4byte	.LFB17
 3923 0134 18000000 		.4byte	.LFE17
 3924 0138 00000000 		.4byte	.LFB19
 3925 013c 60000000 		.4byte	.LFE19
 3926 0140 00000000 		.4byte	0
 3927 0144 00000000 		.4byte	0
 3928              		.section	.debug_line,"",%progbits
 3929              	.Ldebug_line0:
 3930 0000 E2030000 		.section	.debug_str,"MS",%progbits,1
 3930      0200C101 
 3930      00000201 
 3930      FB0E0D00 
 3930      01010101 
 3931              	.LASF71:
 3932 0000 7466756E 		.ascii	"tfunc_t\000"
 3932      635F7400 
 3933              	.LASF35:
 3934 0008 705F6D73 		.ascii	"p_msg\000"
 3934      6700
 3935              	.LASF2:
 3936 000e 73697A65 		.ascii	"size_t\000"
 3936      5F7400
 3937              	.LASF72:
 3938 0015 7072696F 		.ascii	"prio\000"
 3938      00
 3939              	.LASF66:
 3940 001a 7264796D 		.ascii	"rdymsg\000"
 3940      736700
 3941              	.LASF12:
ARM GAS  C:\Users\z80\AppData\Local\Temp\ccLrh9ok.s 			page 71


 3942 0021 75696E74 		.ascii	"uint64_t\000"
 3942      36345F74 
 3942      00
 3943              	.LASF90:
 3944 002a 76746C69 		.ascii	"vtlist\000"
 3944      737400
 3945              	.LASF87:
 3946 0031 63685468 		.ascii	"chThdExitS\000"
 3946      64457869 
 3946      745300
 3947              	.LASF13:
 3948 003c 6C6F6E67 		.ascii	"long long unsigned int\000"
 3948      206C6F6E 
 3948      6720756E 
 3948      7369676E 
 3948      65642069 
 3949              	.LASF67:
 3950 0053 65786974 		.ascii	"exitcode\000"
 3950      636F6465 
 3950      00
 3951              	.LASF24:
 3952 005c 705F7072 		.ascii	"p_prio\000"
 3952      696F00
 3953              	.LASF11:
 3954 0063 6C6F6E67 		.ascii	"long long int\000"
 3954      206C6F6E 
 3954      6720696E 
 3954      7400
 3955              	.LASF1:
 3956 0071 7369676E 		.ascii	"signed char\000"
 3956      65642063 
 3956      68617200 
 3957              	.LASF88:
 3958 007d 63685468 		.ascii	"chThdExit\000"
 3958      64457869 
 3958      7400
 3959              	.LASF63:
 3960 0087 6D5F7175 		.ascii	"m_queue\000"
 3960      65756500 
 3961              	.LASF76:
 3962 008f 63685468 		.ascii	"chThdCreateI\000"
 3962      64437265 
 3962      61746549 
 3962      00
 3963              	.LASF94:
 3964 009c 433A5C70 		.ascii	"C:\\projects\\digitizer.git\\firmware\\digitizer\000"
 3964      726F6A65 
 3964      6374735C 
 3964      64696769 
 3964      74697A65 
 3965              	.LASF8:
 3966 00c9 6C6F6E67 		.ascii	"long int\000"
 3966      20696E74 
 3966      00
 3967              	.LASF15:
 3968 00d2 74737461 		.ascii	"tstate_t\000"
 3968      74655F74 
ARM GAS  C:\Users\z80\AppData\Local\Temp\ccLrh9ok.s 			page 72


 3968      00
 3969              	.LASF26:
 3970 00db 705F6E65 		.ascii	"p_newer\000"
 3970      77657200 
 3971              	.LASF97:
 3972 00e3 6C697374 		.ascii	"list_remove\000"
 3972      5F72656D 
 3972      6F766500 
 3973              	.LASF57:
 3974 00ef 725F6E65 		.ascii	"r_newer\000"
 3974      77657200 
 3975              	.LASF41:
 3976 00f7 72656761 		.ascii	"regarm_t\000"
 3976      726D5F74 
 3976      00
 3977              	.LASF48:
 3978 0100 76745F70 		.ascii	"vt_prev\000"
 3978      72657600 
 3979              	.LASF78:
 3980 0108 63685468 		.ascii	"chThdSetPriority\000"
 3980      64536574 
 3980      5072696F 
 3980      72697479 
 3980      00
 3981              	.LASF20:
 3982 0119 636E745F 		.ascii	"cnt_t\000"
 3982      7400
 3983              	.LASF29:
 3984 011f 705F7374 		.ascii	"p_stklimit\000"
 3984      6B6C696D 
 3984      697400
 3985              	.LASF0:
 3986 012a 756E7369 		.ascii	"unsigned int\000"
 3986      676E6564 
 3986      20696E74 
 3986      00
 3987              	.LASF47:
 3988 0137 76745F6E 		.ascii	"vt_next\000"
 3988      65787400 
 3989              	.LASF10:
 3990 013f 6C6F6E67 		.ascii	"long unsigned int\000"
 3990      20756E73 
 3990      69676E65 
 3990      6420696E 
 3990      7400
 3991              	.LASF44:
 3992 0151 636F6E74 		.ascii	"context\000"
 3992      65787400 
 3993              	.LASF75:
 3994 0159 73697A65 		.ascii	"size\000"
 3994      00
 3995              	.LASF6:
 3996 015e 73686F72 		.ascii	"short unsigned int\000"
 3996      7420756E 
 3996      7369676E 
 3996      65642069 
 3996      6E7400
ARM GAS  C:\Users\z80\AppData\Local\Temp\ccLrh9ok.s 			page 73


 3997              	.LASF17:
 3998 0171 6D73675F 		.ascii	"msg_t\000"
 3998      7400
 3999              	.LASF79:
 4000 0177 6E657770 		.ascii	"newprio\000"
 4000      72696F00 
 4001              	.LASF14:
 4002 017f 746D6F64 		.ascii	"tmode_t\000"
 4002      655F7400 
 4003              	.LASF82:
 4004 0187 63685468 		.ascii	"chThdTerminate\000"
 4004      64546572 
 4004      6D696E61 
 4004      746500
 4005              	.LASF40:
 4006 0196 54687265 		.ascii	"ThreadsList\000"
 4006      6164734C 
 4006      69737400 
 4007              	.LASF18:
 4008 01a2 6576656E 		.ascii	"eventmask_t\000"
 4008      746D6173 
 4008      6B5F7400 
 4009              	.LASF62:
 4010 01ae 4D757465 		.ascii	"Mutex\000"
 4010      7800
 4011              	.LASF80:
 4012 01b4 6F6C6470 		.ascii	"oldprio\000"
 4012      72696F00 
 4013              	.LASF42:
 4014 01bc 73746B61 		.ascii	"stkalign_t\000"
 4014      6C69676E 
 4014      5F7400
 4015              	.LASF77:
 4016 01c7 63685468 		.ascii	"chThdCreateStatic\000"
 4016      64437265 
 4016      61746553 
 4016      74617469 
 4016      6300
 4017              	.LASF49:
 4018 01d9 76745F74 		.ascii	"vt_time\000"
 4018      696D6500 
 4019              	.LASF50:
 4020 01e1 76745F66 		.ascii	"vt_func\000"
 4020      756E6300 
 4021              	.LASF81:
 4022 01e9 63685468 		.ascii	"chThdResume\000"
 4022      64526573 
 4022      756D6500 
 4023              	.LASF73:
 4024 01f5 73746172 		.ascii	"startp\000"
 4024      747000
 4025              	.LASF27:
 4026 01fc 705F6F6C 		.ascii	"p_older\000"
 4026      64657200 
 4027              	.LASF56:
 4028 0204 725F6374 		.ascii	"r_ctx\000"
 4028      7800
ARM GAS  C:\Users\z80\AppData\Local\Temp\ccLrh9ok.s 			page 74


 4029              	.LASF39:
 4030 020a 54687265 		.ascii	"ThreadsQueue\000"
 4030      61647351 
 4030      75657565 
 4030      00
 4031              	.LASF84:
 4032 0217 74696D65 		.ascii	"time\000"
 4032      00
 4033              	.LASF98:
 4034 021c 6C697374 		.ascii	"list_insert\000"
 4034      5F696E73 
 4034      65727400 
 4035              	.LASF60:
 4036 0228 725F6375 		.ascii	"r_current\000"
 4036      7272656E 
 4036      7400
 4037              	.LASF58:
 4038 0232 725F6F6C 		.ascii	"r_older\000"
 4038      64657200 
 4039              	.LASF85:
 4040 023a 63685468 		.ascii	"chThdSleepUntil\000"
 4040      64536C65 
 4040      6570556E 
 4040      74696C00 
 4041              	.LASF23:
 4042 024a 705F7072 		.ascii	"p_prev\000"
 4042      657600
 4043              	.LASF16:
 4044 0251 74707269 		.ascii	"tprio_t\000"
 4044      6F5F7400 
 4045              	.LASF7:
 4046 0259 696E7433 		.ascii	"int32_t\000"
 4046      325F7400 
 4047              	.LASF4:
 4048 0261 756E7369 		.ascii	"unsigned char\000"
 4048      676E6564 
 4048      20636861 
 4048      7200
 4049              	.LASF37:
 4050 026f 705F6D74 		.ascii	"p_mtxlist\000"
 4050      786C6973 
 4050      7400
 4051              	.LASF5:
 4052 0279 73686F72 		.ascii	"short int\000"
 4052      7420696E 
 4052      7400
 4053              	.LASF30:
 4054 0283 705F7374 		.ascii	"p_state\000"
 4054      61746500 
 4055              	.LASF55:
 4056 028b 725F7072 		.ascii	"r_prio\000"
 4056      696F00
 4057              	.LASF69:
 4058 0292 65776D61 		.ascii	"ewmask\000"
 4058      736B00
 4059              	.LASF22:
 4060 0299 705F6E65 		.ascii	"p_next\000"
ARM GAS  C:\Users\z80\AppData\Local\Temp\ccLrh9ok.s 			page 75


 4060      787400
 4061              	.LASF31:
 4062 02a0 705F666C 		.ascii	"p_flags\000"
 4062      61677300 
 4063              	.LASF96:
 4064 02a8 5F746872 		.ascii	"_thread_memfill\000"
 4064      6561645F 
 4064      6D656D66 
 4064      696C6C00 
 4065              	.LASF21:
 4066 02b8 54687265 		.ascii	"Thread\000"
 4066      616400
 4067              	.LASF36:
 4068 02bf 705F6570 		.ascii	"p_epending\000"
 4068      656E6469 
 4068      6E6700
 4069              	.LASF9:
 4070 02ca 75696E74 		.ascii	"uint32_t\000"
 4070      33325F74 
 4070      00
 4071              	.LASF95:
 4072 02d3 5F746872 		.ascii	"_thread_init\000"
 4072      6561645F 
 4072      696E6974 
 4072      00
 4073              	.LASF54:
 4074 02e0 725F7175 		.ascii	"r_queue\000"
 4074      65756500 
 4075              	.LASF46:
 4076 02e8 56697274 		.ascii	"VirtualTimer\000"
 4076      75616C54 
 4076      696D6572 
 4076      00
 4077              	.LASF92:
 4078 02f5 474E5520 		.ascii	"GNU C 4.6.3\000"
 4078      4320342E 
 4078      362E3300 
 4079              	.LASF70:
 4080 0301 63686172 		.ascii	"char\000"
 4080      00
 4081              	.LASF65:
 4082 0306 6D5F6E65 		.ascii	"m_next\000"
 4082      787400
 4083              	.LASF19:
 4084 030d 73797374 		.ascii	"systime_t\000"
 4084      696D655F 
 4084      7400
 4085              	.LASF38:
 4086 0317 705F7265 		.ascii	"p_realprio\000"
 4086      616C7072 
 4086      696F00
 4087              	.LASF45:
 4088 0322 76746675 		.ascii	"vtfunc_t\000"
 4088      6E635F74 
 4088      00
 4089              	.LASF86:
 4090 032b 63685468 		.ascii	"chThdYield\000"
ARM GAS  C:\Users\z80\AppData\Local\Temp\ccLrh9ok.s 			page 76


 4090      64596965 
 4090      6C6400
 4091              	.LASF32:
 4092 0336 705F7469 		.ascii	"p_time\000"
 4092      6D6500
 4093              	.LASF43:
 4094 033d 696E7463 		.ascii	"intctx\000"
 4094      747800
 4095              	.LASF34:
 4096 0344 705F6D73 		.ascii	"p_msgqueue\000"
 4096      67717565 
 4096      756500
 4097              	.LASF74:
 4098 034f 656E6470 		.ascii	"endp\000"
 4098      00
 4099              	.LASF89:
 4100 0354 63685468 		.ascii	"chThdWait\000"
 4100      64576169 
 4100      7400
 4101              	.LASF51:
 4102 035e 76745F70 		.ascii	"vt_par\000"
 4102      617200
 4103              	.LASF83:
 4104 0365 63685468 		.ascii	"chThdSleep\000"
 4104      64536C65 
 4104      657000
 4105              	.LASF61:
 4106 0370 52656164 		.ascii	"ReadyList\000"
 4106      794C6973 
 4106      7400
 4107              	.LASF91:
 4108 037a 726C6973 		.ascii	"rlist\000"
 4108      7400
 4109              	.LASF3:
 4110 0380 75696E74 		.ascii	"uint8_t\000"
 4110      385F7400 
 4111              	.LASF93:
 4112 0388 2E2E2F63 		.ascii	"../chibios_2.4.x/os/kernel/src/chthreads.c\000"
 4112      68696269 
 4112      6F735F32 
 4112      2E342E78 
 4112      2F6F732F 
 4113              	.LASF68:
 4114 03b3 77746F62 		.ascii	"wtobjp\000"
 4114      6A7000
 4115              	.LASF28:
 4116 03ba 705F6E61 		.ascii	"p_name\000"
 4116      6D6500
 4117              	.LASF52:
 4118 03c1 76745F73 		.ascii	"vt_systime\000"
 4118      79737469 
 4118      6D6500
 4119              	.LASF53:
 4120 03cc 56544C69 		.ascii	"VTList\000"
 4120      737400
 4121              	.LASF59:
 4122 03d3 725F7072 		.ascii	"r_preempt\000"
ARM GAS  C:\Users\z80\AppData\Local\Temp\ccLrh9ok.s 			page 77


 4122      65656D70 
 4122      7400
 4123              	.LASF64:
 4124 03dd 6D5F6F77 		.ascii	"m_owner\000"
 4124      6E657200 
 4125              	.LASF25:
 4126 03e5 705F6374 		.ascii	"p_ctx\000"
 4126      7800
 4127              	.LASF33:
 4128 03eb 705F7761 		.ascii	"p_waiting\000"
 4128      6974696E 
 4128      6700
 4129              		.ident	"GCC: (Sourcery CodeBench Lite 2012.03-56) 4.6.3"
ARM GAS  C:\Users\z80\AppData\Local\Temp\ccLrh9ok.s 			page 78


DEFINED SYMBOLS
                            *ABS*:00000000 chthreads.c
C:\Users\z80\AppData\Local\Temp\ccLrh9ok.s:19     .text._thread_init:00000000 $t
C:\Users\z80\AppData\Local\Temp\ccLrh9ok.s:25     .text._thread_init:00000000 _thread_init
C:\Users\z80\AppData\Local\Temp\ccLrh9ok.s:94     .text._thread_memfill:00000000 $t
C:\Users\z80\AppData\Local\Temp\ccLrh9ok.s:100    .text._thread_memfill:00000000 _thread_memfill
C:\Users\z80\AppData\Local\Temp\ccLrh9ok.s:148    .text.chThdCreateI:00000000 $t
C:\Users\z80\AppData\Local\Temp\ccLrh9ok.s:154    .text.chThdCreateI:00000000 chThdCreateI
C:\Users\z80\AppData\Local\Temp\ccLrh9ok.s:1067   .rodata.str1.4:00000000 .LC0
C:\Users\z80\AppData\Local\Temp\ccLrh9ok.s:298    .text.chThdCreateStatic:00000000 $t
C:\Users\z80\AppData\Local\Temp\ccLrh9ok.s:304    .text.chThdCreateStatic:00000000 chThdCreateStatic
C:\Users\z80\AppData\Local\Temp\ccLrh9ok.s:435    .text.chThdSetPriority:00000000 $t
C:\Users\z80\AppData\Local\Temp\ccLrh9ok.s:441    .text.chThdSetPriority:00000000 chThdSetPriority
C:\Users\z80\AppData\Local\Temp\ccLrh9ok.s:1070   .rodata.str1.4:00000014 .LC1
C:\Users\z80\AppData\Local\Temp\ccLrh9ok.s:523    .text.chThdResume:00000000 $t
C:\Users\z80\AppData\Local\Temp\ccLrh9ok.s:529    .text.chThdResume:00000000 chThdResume
C:\Users\z80\AppData\Local\Temp\ccLrh9ok.s:1073   .rodata.str1.4:0000002c .LC2
C:\Users\z80\AppData\Local\Temp\ccLrh9ok.s:589    .text.chThdTerminate:00000000 $t
C:\Users\z80\AppData\Local\Temp\ccLrh9ok.s:595    .text.chThdTerminate:00000000 chThdTerminate
C:\Users\z80\AppData\Local\Temp\ccLrh9ok.s:645    .text.chThdSleep:00000000 $t
C:\Users\z80\AppData\Local\Temp\ccLrh9ok.s:651    .text.chThdSleep:00000000 chThdSleep
C:\Users\z80\AppData\Local\Temp\ccLrh9ok.s:1076   .rodata.str1.4:00000040 .LC3
C:\Users\z80\AppData\Local\Temp\ccLrh9ok.s:705    .text.chThdSleepUntil:00000000 $t
C:\Users\z80\AppData\Local\Temp\ccLrh9ok.s:711    .text.chThdSleepUntil:00000000 chThdSleepUntil
C:\Users\z80\AppData\Local\Temp\ccLrh9ok.s:770    .text.chThdYield:00000000 $t
C:\Users\z80\AppData\Local\Temp\ccLrh9ok.s:776    .text.chThdYield:00000000 chThdYield
C:\Users\z80\AppData\Local\Temp\ccLrh9ok.s:828    .text.chThdExitS:00000000 $t
C:\Users\z80\AppData\Local\Temp\ccLrh9ok.s:834    .text.chThdExitS:00000000 chThdExitS
C:\Users\z80\AppData\Local\Temp\ccLrh9ok.s:1079   .rodata.str1.4:00000050 .LC4
C:\Users\z80\AppData\Local\Temp\ccLrh9ok.s:913    .text.chThdExit:00000000 $t
C:\Users\z80\AppData\Local\Temp\ccLrh9ok.s:919    .text.chThdExit:00000000 chThdExit
C:\Users\z80\AppData\Local\Temp\ccLrh9ok.s:958    .text.chThdWait:00000000 $t
C:\Users\z80\AppData\Local\Temp\ccLrh9ok.s:964    .text.chThdWait:00000000 chThdWait
C:\Users\z80\AppData\Local\Temp\ccLrh9ok.s:1082   .rodata.str1.4:00000064 .LC5
C:\Users\z80\AppData\Local\Temp\ccLrh9ok.s:1085   .rodata.str1.4:00000074 .LC6
C:\Users\z80\AppData\Local\Temp\ccLrh9ok.s:1066   .rodata.str1.4:00000000 $d
                     .debug_frame:00000010 $d

UNDEFINED SYMBOLS
rlist
chDbgCheckClassI
chDbgPanic
_port_thread_start
dbg_check_lock
chSchWakeupS
dbg_check_unlock
chSchRescheduleS
chSchGoSleepTimeoutS
vtlist
chSchDoReschedule
chSchReadyI
chSchGoSleepS
