ARM GAS  C:\Users\z80\AppData\Local\Temp\ccLrh9ok.s 			page 1


   1              		.syntax unified
   2              		.cpu cortex-m3
   3              		.fpu softvfp
   4              		.eabi_attribute 20, 1
   5              		.eabi_attribute 21, 1
   6              		.eabi_attribute 23, 3
   7              		.eabi_attribute 24, 1
   8              		.eabi_attribute 25, 1
   9              		.eabi_attribute 26, 1
  10              		.eabi_attribute 30, 2
  11              		.eabi_attribute 34, 1
  12              		.eabi_attribute 18, 4
  13              		.thumb
  14              		.file	"chthreads.c"
  15              		.text
  16              	.Ltext0:
  17              		.cfi_sections	.debug_frame
  18              		.section	.text._thread_init,"ax",%progbits
  19              		.align	2
  20              		.p2align 4,,15
  21              		.global	_thread_init
  22              		.thumb
  23              		.thumb_func
  24              		.type	_thread_init, %function
  25              	_thread_init:
  26              	.LFB7:
  27              		.file 1 "../chibios_2.4.x/os/kernel/src/chthreads.c"
  28              		.loc 1 76 0
  29              		.cfi_startproc
  30              		@ args = 0, pretend = 0, frame = 0
  31              		@ frame_needed = 0, uses_anonymous_args = 0
  32              		@ link register save eliminated.
  33              	.LVL0:
  34 0000 2DE9F001 		push	{r4, r5, r6, r7, r8}
  35              	.LCFI0:
  36              		.cfi_def_cfa_offset 20
  37              		.cfi_offset 8, -4
  38              		.cfi_offset 7, -8
  39              		.cfi_offset 6, -12
  40              		.cfi_offset 5, -16
  41              		.cfi_offset 4, -20
  42              		.loc 1 96 0
  43 0004 40F20004 		movw	r4, #:lower16:rlist
  44 0008 C0F20004 		movt	r4, #:upper16:rlist
  45 000c 6569     		ldr	r5, [r4, #20]
  46              		.loc 1 80 0
  47 000e 0022     		movs	r2, #0
  48              		.loc 1 102 0
  49 0010 00F13006 		add	r6, r0, #48
  50              		.loc 1 99 0
  51 0014 00F12C0C 		add	ip, r0, #44
  52              		.loc 1 105 0
  53 0018 00F14807 		add	r7, r0, #72
  54              		.loc 1 79 0
  55 001c 4FF00208 		mov	r8, #2
  56              		.loc 1 96 0
  57 0020 0461     		str	r4, [r0, #16]
ARM GAS  C:\Users\z80\AppData\Local\Temp\ccLrh9ok.s 			page 2


  58              		.loc 1 78 0
  59 0022 8160     		str	r1, [r0, #8]
  60              		.loc 1 96 0
  61 0024 4561     		str	r5, [r0, #20]
  62              		.loc 1 79 0
  63 0026 80F82080 		strb	r8, [r0, #32]
  64              		.loc 1 96 0
  65 002a 6061     		str	r0, [r4, #20]
  66              		.loc 1 80 0
  67 002c 80F82120 		strb	r2, [r0, #33]
  68              		.loc 1 82 0
  69 0030 4164     		str	r1, [r0, #68]
  70              		.loc 1 83 0
  71 0032 0264     		str	r2, [r0, #64]
  72              		.loc 1 86 0
  73 0034 C263     		str	r2, [r0, #60]
  74              		.loc 1 89 0
  75 0036 4262     		str	r2, [r0, #36]
  76              		.loc 1 95 0
  77 0038 8261     		str	r2, [r0, #24]
  78              		.loc 1 96 0
  79 003a 2861     		str	r0, [r5, #16]
  80              		.loc 1 99 0
  81 003c C0F82CC0 		str	ip, [r0, #44]
  82              		.loc 1 102 0
  83 0040 4663     		str	r6, [r0, #52]
  84 0042 0663     		str	r6, [r0, #48]
  85              		.loc 1 105 0
  86 0044 C761     		str	r7, [r0, #28]
  87              		.loc 1 111 0
  88 0046 BDE8F001 		pop	{r4, r5, r6, r7, r8}
  89 004a 7047     		bx	lr
  90              		.cfi_endproc
  91              	.LFE7:
  92              		.size	_thread_init, .-_thread_init
  93 004c AFF30080 		.section	.text._thread_memfill,"ax",%progbits
  94              		.align	2
  95              		.p2align 4,,15
  96              		.global	_thread_memfill
  97              		.thumb
  98              		.thumb_func
  99              		.type	_thread_memfill, %function
 100              	_thread_memfill:
 101              	.LFB8:
 102              		.loc 1 123 0
 103              		.cfi_startproc
 104              		@ args = 0, pretend = 0, frame = 0
 105              		@ frame_needed = 0, uses_anonymous_args = 0
 106              		@ link register save eliminated.
 107              	.LVL1:
 108              		.loc 1 125 0
 109 0000 8842     		cmp	r0, r1
 110 0002 13D2     		bcs	.L2
 111 0004 C343     		mvns	r3, r0
 112              		.loc 1 126 0
 113 0006 00F8012B 		strb	r2, [r0], #1
 114              	.LVL2:
ARM GAS  C:\Users\z80\AppData\Local\Temp\ccLrh9ok.s 			page 3


 115 000a CB18     		adds	r3, r1, r3
 116              		.loc 1 125 0
 117 000c 8842     		cmp	r0, r1
 118 000e 03F00103 		and	r3, r3, #1
 119 0012 0CD0     		beq	.L13
 120 0014 1BB1     		cbz	r3, .L5
 121              		.loc 1 126 0
 122 0016 00F8012B 		strb	r2, [r0], #1
 123              	.LVL3:
 124              		.loc 1 125 0
 125 001a 8842     		cmp	r0, r1
 126 001c 08D0     		beq	.L14
 127              	.L5:
 128              		.loc 1 126 0
 129 001e 0346     		mov	r3, r0
 130 0020 03F8012B 		strb	r2, [r3], #1
 131 0024 4270     		strb	r2, [r0, #1]
 132 0026 581C     		adds	r0, r3, #1
 133              		.loc 1 125 0
 134 0028 8842     		cmp	r0, r1
 135 002a F8D1     		bne	.L5
 136              	.L2:
 137 002c 7047     		bx	lr
 138              	.LVL4:
 139              	.L13:
 140 002e 7047     		bx	lr
 141              	.LVL5:
 142              	.L14:
 143 0030 7047     		bx	lr
 144              		.cfi_endproc
 145              	.LFE8:
 146              		.size	_thread_memfill, .-_thread_memfill
 147 0032 00BFAFF3 		.section	.text.chThdCreateI,"ax",%progbits
 147      0080AFF3 
 147      0080AFF3 
 147      0080
 148              		.align	2
 149              		.p2align 4,,15
 150              		.global	chThdCreateI
 151              		.thumb
 152              		.thumb_func
 153              		.type	chThdCreateI, %function
 154              	chThdCreateI:
 155              	.LFB9:
 156              		.loc 1 155 0
 157              		.cfi_startproc
 158              		@ args = 4, pretend = 0, frame = 0
 159              		@ frame_needed = 0, uses_anonymous_args = 0
 160              	.LVL6:
 161 0000 2DE9F84F 		push	{r3, r4, r5, r6, r7, r8, r9, sl, fp, lr}
 162              	.LCFI1:
 163              		.cfi_def_cfa_offset 40
 164              		.cfi_offset 14, -4
 165              		.cfi_offset 11, -8
 166              		.cfi_offset 10, -12
 167              		.cfi_offset 9, -16
 168              		.cfi_offset 8, -20
ARM GAS  C:\Users\z80\AppData\Local\Temp\ccLrh9ok.s 			page 4


 169              		.cfi_offset 7, -24
 170              		.cfi_offset 6, -28
 171              		.cfi_offset 5, -32
 172              		.cfi_offset 4, -36
 173              		.cfi_offset 3, -40
 174              		.loc 1 155 0
 175 0004 0446     		mov	r4, r0
 176              	.LVL7:
 177 0006 8846     		mov	r8, r1
 178 0008 9946     		mov	r9, r3
 179 000a 1546     		mov	r5, r2
 180              		.loc 1 159 0
 181 000c FFF7FEFF 		bl	chDbgCheckClassI
 182              	.LVL8:
 183              		.loc 1 161 0
 184 0010 D4F10103 		rsbs	r3, r4, #1
 185 0014 38BF     		it	cc
 186 0016 0023     		movcc	r3, #0
 187 0018 B8F1AF0F 		cmp	r8, #175
 188 001c 98BF     		it	ls
 189 001e 43F00103 		orrls	r3, r3, #1
 190 0022 4BB9     		cbnz	r3, .L16
 191              		.loc 1 161 0 is_stmt 0 discriminator 2
 192 0024 7F2D     		cmp	r5, #127
 193 0026 94BF     		ite	ls
 194 0028 0023     		movls	r3, #0
 195 002a 0123     		movhi	r3, #1
 196 002c B9F1000F 		cmp	r9, #0
 197 0030 08BF     		it	eq
 198 0032 43F00103 		orreq	r3, r3, #1
 199 0036 2BB1     		cbz	r3, .L17
 200              	.L16:
 201              		.loc 1 161 0 discriminator 1
 202 0038 40F20000 		movw	r0, #:lower16:.LC0
 203 003c C0F20000 		movt	r0, #:upper16:.LC0
 204 0040 FFF7FEFF 		bl	chDbgPanic
 205              	.L17:
 206              		.loc 1 164 0 is_stmt 1
 207 0044 A8F12408 		sub	r8, r8, #36
 208              	.LVL9:
 209              	.LBB16:
 210              	.LBB17:
 211              		.loc 1 96 0
 212 0048 40F20006 		movw	r6, #:lower16:rlist
 213              	.LBE17:
 214              	.LBE16:
 215              		.loc 1 164 0
 216 004c 04EB0807 		add	r7, r4, r8
 217              	.LBB22:
 218              	.LBB18:
 219              		.loc 1 96 0
 220 0050 C0F20006 		movt	r6, #:upper16:rlist
 221              	.LBE18:
 222              	.LBE22:
 223              		.loc 1 164 0
 224 0054 40F20001 		movw	r1, #:lower16:_port_thread_start
 225              	.LBB23:
ARM GAS  C:\Users\z80\AppData\Local\Temp\ccLrh9ok.s 			page 5


 226              	.LBB19:
 227              		.loc 1 96 0
 228 0058 D6F814C0 		ldr	ip, [r6, #20]
 229              	.LBE19:
 230              	.LBE23:
 231              		.loc 1 164 0
 232 005c C0F20001 		movt	r1, #:upper16:_port_thread_start
 233 0060 E760     		str	r7, [r4, #12]
 234 0062 44F80890 		str	r9, [r4, r8]
 235 0066 DDF82880 		ldr	r8, [sp, #40]
 236              	.LVL10:
 237 006a 3962     		str	r1, [r7, #32]
 238              	.LVL11:
 239              	.LBB24:
 240              	.LBB20:
 241              		.loc 1 80 0
 242 006c 0022     		movs	r2, #0
 243              		.loc 1 102 0
 244 006e 04F13003 		add	r3, r4, #48
 245              		.loc 1 99 0
 246 0072 04F12C0A 		add	sl, r4, #44
 247              		.loc 1 105 0
 248 0076 04F1480B 		add	fp, r4, #72
 249              		.loc 1 79 0
 250 007a 0221     		movs	r1, #2
 251              	.LBE20:
 252              	.LBE24:
 253              		.loc 1 164 0
 254 007c C7F80480 		str	r8, [r7, #4]
 255              		.loc 1 166 0
 256 0080 2046     		mov	r0, r4
 257              	.LBB25:
 258              	.LBB21:
 259              		.loc 1 96 0
 260 0082 2661     		str	r6, [r4, #16]
 261              		.loc 1 78 0
 262 0084 A560     		str	r5, [r4, #8]
 263              		.loc 1 96 0
 264 0086 C4F814C0 		str	ip, [r4, #20]
 265              		.loc 1 79 0
 266 008a 84F82010 		strb	r1, [r4, #32]
 267              		.loc 1 96 0
 268 008e 7461     		str	r4, [r6, #20]
 269              		.loc 1 80 0
 270 0090 84F82120 		strb	r2, [r4, #33]
 271              		.loc 1 82 0
 272 0094 6564     		str	r5, [r4, #68]
 273              		.loc 1 83 0
 274 0096 2264     		str	r2, [r4, #64]
 275              		.loc 1 86 0
 276 0098 E263     		str	r2, [r4, #60]
 277              		.loc 1 89 0
 278 009a 6262     		str	r2, [r4, #36]
 279              		.loc 1 95 0
 280 009c A261     		str	r2, [r4, #24]
 281              		.loc 1 96 0
 282 009e CCF81040 		str	r4, [ip, #16]
ARM GAS  C:\Users\z80\AppData\Local\Temp\ccLrh9ok.s 			page 6


 283              		.loc 1 99 0
 284 00a2 C4F82CA0 		str	sl, [r4, #44]
 285              		.loc 1 102 0
 286 00a6 6363     		str	r3, [r4, #52]
 287 00a8 2363     		str	r3, [r4, #48]
 288              		.loc 1 105 0
 289 00aa C4F81CB0 		str	fp, [r4, #28]
 290              	.LBE21:
 291              	.LBE25:
 292              		.loc 1 166 0
 293 00ae BDE8F88F 		pop	{r3, r4, r5, r6, r7, r8, r9, sl, fp, pc}
 294              		.cfi_endproc
 295              	.LFE9:
 296              		.size	chThdCreateI, .-chThdCreateI
 297 00b2 00BFAFF3 		.section	.text.chThdCreateStatic,"ax",%progbits
 297      0080AFF3 
 297      0080AFF3 
 297      0080
 298              		.align	2
 299              		.p2align 4,,15
 300              		.global	chThdCreateStatic
 301              		.thumb
 302              		.thumb_func
 303              		.type	chThdCreateStatic, %function
 304              	chThdCreateStatic:
 305              	.LFB10:
 306              		.loc 1 185 0
 307              		.cfi_startproc
 308              		@ args = 4, pretend = 0, frame = 0
 309              		@ frame_needed = 0, uses_anonymous_args = 0
 310              	.LVL12:
 311 0000 F0B5     		push	{r4, r5, r6, r7, lr}
 312              	.LCFI2:
 313              		.cfi_def_cfa_offset 20
 314              		.cfi_offset 14, -4
 315              		.cfi_offset 7, -8
 316              		.cfi_offset 6, -12
 317              		.cfi_offset 5, -16
 318              		.cfi_offset 4, -20
 319 0002 0446     		mov	r4, r0
 320 0004 0D46     		mov	r5, r1
 321 0006 1F46     		mov	r7, r3
 322              		.loc 1 189 0
 323 0008 00F1480E 		add	lr, r0, #72
 324              	.LVL13:
 325              		.loc 1 184 0
 326 000c 431C     		adds	r3, r0, #1
 327              	.LVL14:
 328              		.loc 1 185 0
 329 000e 83B0     		sub	sp, sp, #12
 330              	.LCFI3:
 331              		.cfi_def_cfa_offset 32
 332              		.loc 1 185 0
 333 0010 1646     		mov	r6, r2
 334              		.loc 1 184 0
 335 0012 4930     		adds	r0, r0, #73
 336              	.LVL15:
ARM GAS  C:\Users\z80\AppData\Local\Temp\ccLrh9ok.s 			page 7


 337              	.LBB26:
 338              	.LBB27:
 339              		.loc 1 126 0
 340 0014 FF21     		movs	r1, #255
 341              	.LVL16:
 342              	.L19:
 343 0016 1A46     		mov	r2, r3
 344 0018 03F8011C 		strb	r1, [r3, #-1]
 345 001c 02F8011B 		strb	r1, [r2], #1
 346 0020 531C     		adds	r3, r2, #1
 347              		.loc 1 125 0
 348 0022 8342     		cmp	r3, r0
 349 0024 F7D1     		bne	.L19
 350              	.LBE27:
 351              	.LBE26:
 352              		.loc 1 192 0
 353 0026 6019     		adds	r0, r4, r5
 354              	.LVL17:
 355              	.LBB28:
 356              	.LBB29:
 357              		.loc 1 125 0
 358 0028 8645     		cmp	lr, r0
 359 002a 17D2     		bcs	.L20
 360              		.loc 1 126 0
 361 002c 5521     		movs	r1, #85
 362 002e 7346     		mov	r3, lr
 363 0030 6FEA0E02 		mvn	r2, lr
 364 0034 03F8011B 		strb	r1, [r3], #1
 365 0038 00EB020C 		add	ip, r0, r2
 366              		.loc 1 125 0
 367 003c 8342     		cmp	r3, r0
 368 003e 0CF00102 		and	r2, ip, #1
 369 0042 0BD0     		beq	.L20
 370 0044 1AB1     		cbz	r2, .L22
 371              		.loc 1 126 0
 372 0046 03F8011B 		strb	r1, [r3], #1
 373              	.LVL18:
 374              		.loc 1 125 0
 375 004a 8342     		cmp	r3, r0
 376 004c 06D0     		beq	.L20
 377              	.L22:
 378              		.loc 1 126 0
 379 004e 1A46     		mov	r2, r3
 380 0050 02F8011B 		strb	r1, [r2], #1
 381 0054 5970     		strb	r1, [r3, #1]
 382 0056 531C     		adds	r3, r2, #1
 383              		.loc 1 125 0
 384 0058 8342     		cmp	r3, r0
 385 005a F8D1     		bne	.L22
 386              	.L20:
 387              	.LBE29:
 388              	.LBE28:
 389              	.LBB30:
 390              		.loc 1 196 0
 391 005c 2023     		movs	r3, #32
 392              	.LVL19:
 393              	@ 196 "../chibios_2.4.x/os/kernel/src/chthreads.c" 1
ARM GAS  C:\Users\z80\AppData\Local\Temp\ccLrh9ok.s 			page 8


 394 005e 83F31188 		msr     BASEPRI, r3
 395              	@ 0 "" 2
 396              	.LVL20:
 397              		.thumb
 398              	.LBE30:
 399 0062 FFF7FEFF 		bl	dbg_check_lock
 400              	.LVL21:
 401              		.loc 1 197 0
 402 0066 2046     		mov	r0, r4
 403 0068 089C     		ldr	r4, [sp, #32]
 404              	.LVL22:
 405 006a 3B46     		mov	r3, r7
 406 006c 3246     		mov	r2, r6
 407 006e 2946     		mov	r1, r5
 408 0070 0094     		str	r4, [sp, #0]
 409 0072 FFF7FEFF 		bl	chThdCreateI
 410              	.LVL23:
 411 0076 0021     		movs	r1, #0
 412 0078 0446     		mov	r4, r0
 413              	.LVL24:
 414 007a FFF7FEFF 		bl	chSchWakeupS
 415              	.LVL25:
 416              		.loc 1 198 0
 417 007e FFF7FEFF 		bl	dbg_check_unlock
 418              	.LBB31:
 419 0082 0023     		movs	r3, #0
 420              	.LVL26:
 421              	@ 198 "../chibios_2.4.x/os/kernel/src/chthreads.c" 1
 422 0084 83F31188 		msr     BASEPRI, r3
 423              	@ 0 "" 2
 424              	.LVL27:
 425              		.thumb
 426              	.LBE31:
 427              		.loc 1 200 0
 428 0088 2046     		mov	r0, r4
 429 008a 03B0     		add	sp, sp, #12
 430 008c F0BD     		pop	{r4, r5, r6, r7, pc}
 431              		.cfi_endproc
 432              	.LFE10:
 433              		.size	chThdCreateStatic, .-chThdCreateStatic
 434 008e 00BF     		.section	.text.chThdSetPriority,"ax",%progbits
 435              		.align	2
 436              		.p2align 4,,15
 437              		.global	chThdSetPriority
 438              		.thumb
 439              		.thumb_func
 440              		.type	chThdSetPriority, %function
 441              	chThdSetPriority:
 442              	.LFB11:
 443              		.loc 1 214 0
 444              		.cfi_startproc
 445              		@ args = 0, pretend = 0, frame = 0
 446              		@ frame_needed = 0, uses_anonymous_args = 0
 447              	.LVL28:
 448              		.loc 1 217 0
 449 0000 7F28     		cmp	r0, #127
 450              		.loc 1 214 0
ARM GAS  C:\Users\z80\AppData\Local\Temp\ccLrh9ok.s 			page 9


 451 0002 38B5     		push	{r3, r4, r5, lr}
 452              	.LCFI4:
 453              		.cfi_def_cfa_offset 16
 454              		.cfi_offset 14, -4
 455              		.cfi_offset 5, -8
 456              		.cfi_offset 4, -12
 457              		.cfi_offset 3, -16
 458              		.loc 1 214 0
 459 0004 0446     		mov	r4, r0
 460              		.loc 1 217 0
 461 0006 1AD8     		bhi	.L35
 462              	.LVL29:
 463              	.L32:
 464              	.LBB32:
 465              		.loc 1 219 0
 466 0008 2023     		movs	r3, #32
 467              	.LVL30:
 468              	@ 219 "../chibios_2.4.x/os/kernel/src/chthreads.c" 1
 469 000a 83F31188 		msr     BASEPRI, r3
 470              	@ 0 "" 2
 471              	.LVL31:
 472              		.thumb
 473              	.LBE32:
 474 000e FFF7FEFF 		bl	dbg_check_lock
 475              	.LVL32:
 476              		.loc 1 221 0
 477 0012 40F20003 		movw	r3, #:lower16:rlist
 478 0016 C0F20003 		movt	r3, #:upper16:rlist
 479 001a DB69     		ldr	r3, [r3, #28]
 480 001c 5D6C     		ldr	r5, [r3, #68]
 481              	.LVL33:
 482              		.loc 1 222 0
 483 001e 9A68     		ldr	r2, [r3, #8]
 484 0020 9542     		cmp	r5, r2
 485 0022 01D0     		beq	.L33
 486              		.loc 1 222 0 is_stmt 0 discriminator 1
 487 0024 9442     		cmp	r4, r2
 488 0026 00D9     		bls	.L34
 489              	.L33:
 490              		.loc 1 223 0 is_stmt 1
 491 0028 9C60     		str	r4, [r3, #8]
 492              	.L34:
 493              		.loc 1 224 0
 494 002a 5C64     		str	r4, [r3, #68]
 495              		.loc 1 229 0
 496 002c FFF7FEFF 		bl	chSchRescheduleS
 497              	.LVL34:
 498              		.loc 1 230 0
 499 0030 FFF7FEFF 		bl	dbg_check_unlock
 500              	.LBB33:
 501 0034 0023     		movs	r3, #0
 502              	.LVL35:
 503              	@ 230 "../chibios_2.4.x/os/kernel/src/chthreads.c" 1
 504 0036 83F31188 		msr     BASEPRI, r3
 505              	@ 0 "" 2
 506              	.LVL36:
 507              		.thumb
ARM GAS  C:\Users\z80\AppData\Local\Temp\ccLrh9ok.s 			page 10


 508              	.LBE33:
 509              		.loc 1 232 0
 510 003a 2846     		mov	r0, r5
 511 003c 38BD     		pop	{r3, r4, r5, pc}
 512              	.LVL37:
 513              	.L35:
 514              		.loc 1 217 0 discriminator 1
 515 003e 40F20000 		movw	r0, #:lower16:.LC1
 516 0042 C0F20000 		movt	r0, #:upper16:.LC1
 517 0046 FFF7FEFF 		bl	chDbgPanic
 518 004a DDE7     		b	.L32
 519              		.cfi_endproc
 520              	.LFE11:
 521              		.size	chThdSetPriority, .-chThdSetPriority
 522 004c AFF30080 		.section	.text.chThdResume,"ax",%progbits
 523              		.align	2
 524              		.p2align 4,,15
 525              		.global	chThdResume
 526              		.thumb
 527              		.thumb_func
 528              		.type	chThdResume, %function
 529              	chThdResume:
 530              	.LFB12:
 531              		.loc 1 247 0
 532              		.cfi_startproc
 533              		@ args = 0, pretend = 0, frame = 0
 534              		@ frame_needed = 0, uses_anonymous_args = 0
 535              	.LVL38:
 536 0000 10B5     		push	{r4, lr}
 537              	.LCFI5:
 538              		.cfi_def_cfa_offset 8
 539              		.cfi_offset 14, -4
 540              		.cfi_offset 4, -8
 541              	.LBB34:
 542              		.loc 1 249 0
 543 0002 2023     		movs	r3, #32
 544              	.LVL39:
 545              	.LBE34:
 546              		.loc 1 247 0
 547 0004 0446     		mov	r4, r0
 548              	.LBB35:
 549              		.loc 1 249 0
 550              	@ 249 "../chibios_2.4.x/os/kernel/src/chthreads.c" 1
 551 0006 83F31188 		msr     BASEPRI, r3
 552              	@ 0 "" 2
 553              	.LVL40:
 554              		.thumb
 555              	.LBE35:
 556 000a FFF7FEFF 		bl	dbg_check_lock
 557              	.LVL41:
 558              		.loc 1 250 0
 559 000e 94F82030 		ldrb	r3, [r4, #32]	@ zero_extendqisi2
 560 0012 022B     		cmp	r3, #2
 561 0014 05D0     		beq	.L37
 562              		.loc 1 250 0 is_stmt 0 discriminator 1
 563 0016 40F20000 		movw	r0, #:lower16:.LC2
 564 001a C0F20000 		movt	r0, #:upper16:.LC2
ARM GAS  C:\Users\z80\AppData\Local\Temp\ccLrh9ok.s 			page 11


 565 001e FFF7FEFF 		bl	chDbgPanic
 566              	.L37:
 567              		.loc 1 253 0 is_stmt 1
 568 0022 2046     		mov	r0, r4
 569 0024 0021     		movs	r1, #0
 570 0026 FFF7FEFF 		bl	chSchWakeupS
 571              		.loc 1 254 0
 572 002a FFF7FEFF 		bl	dbg_check_unlock
 573              	.LBB36:
 574 002e 0023     		movs	r3, #0
 575              	.LVL42:
 576              	@ 254 "../chibios_2.4.x/os/kernel/src/chthreads.c" 1
 577 0030 83F31188 		msr     BASEPRI, r3
 578              	@ 0 "" 2
 579              	.LVL43:
 580              		.thumb
 581              	.LBE36:
 582              		.loc 1 256 0
 583 0034 2046     		mov	r0, r4
 584 0036 10BD     		pop	{r4, pc}
 585              		.cfi_endproc
 586              	.LFE12:
 587              		.size	chThdResume, .-chThdResume
 588 0038 AFF30080 		.section	.text.chThdTerminate,"ax",%progbits
 588      AFF30080 
 589              		.align	2
 590              		.p2align 4,,15
 591              		.global	chThdTerminate
 592              		.thumb
 593              		.thumb_func
 594              		.type	chThdTerminate, %function
 595              	chThdTerminate:
 596              	.LFB13:
 597              		.loc 1 270 0
 598              		.cfi_startproc
 599              		@ args = 0, pretend = 0, frame = 0
 600              		@ frame_needed = 0, uses_anonymous_args = 0
 601              	.LVL44:
 602 0000 10B5     		push	{r4, lr}
 603              	.LCFI6:
 604              		.cfi_def_cfa_offset 8
 605              		.cfi_offset 14, -4
 606              		.cfi_offset 4, -8
 607              	.LBB37:
 608              		.loc 1 272 0
 609 0002 2023     		movs	r3, #32
 610              	.LVL45:
 611              	.LBE37:
 612              		.loc 1 270 0
 613 0004 0446     		mov	r4, r0
 614              	.LBB38:
 615              		.loc 1 272 0
 616              	@ 272 "../chibios_2.4.x/os/kernel/src/chthreads.c" 1
 617 0006 83F31188 		msr     BASEPRI, r3
 618              	@ 0 "" 2
 619              	.LVL46:
 620              		.thumb
ARM GAS  C:\Users\z80\AppData\Local\Temp\ccLrh9ok.s 			page 12


 621              	.LBE38:
 622 000a FFF7FEFF 		bl	dbg_check_lock
 623              	.LVL47:
 624              		.loc 1 273 0
 625 000e 94F82100 		ldrb	r0, [r4, #33]	@ zero_extendqisi2
 626 0012 40F00403 		orr	r3, r0, #4
 627 0016 84F82130 		strb	r3, [r4, #33]
 628              		.loc 1 274 0
 629 001a FFF7FEFF 		bl	dbg_check_unlock
 630              	.LBB39:
 631 001e 0023     		movs	r3, #0
 632              	.LVL48:
 633              	@ 274 "../chibios_2.4.x/os/kernel/src/chthreads.c" 1
 634 0020 83F31188 		msr     BASEPRI, r3
 635              	@ 0 "" 2
 636              	.LVL49:
 637              		.thumb
 638              	.LBE39:
 639              		.loc 1 275 0
 640 0024 10BD     		pop	{r4, pc}
 641              		.cfi_endproc
 642              	.LFE13:
 643              		.size	chThdTerminate, .-chThdTerminate
 644 0026 00BFAFF3 		.section	.text.chThdSleep,"ax",%progbits
 644      0080AFF3 
 644      0080
 645              		.align	2
 646              		.p2align 4,,15
 647              		.global	chThdSleep
 648              		.thumb
 649              		.thumb_func
 650              		.type	chThdSleep, %function
 651              	chThdSleep:
 652              	.LFB14:
 653              		.loc 1 289 0
 654              		.cfi_startproc
 655              		@ args = 0, pretend = 0, frame = 0
 656              		@ frame_needed = 0, uses_anonymous_args = 0
 657              	.LVL50:
 658 0000 10B5     		push	{r4, lr}
 659              	.LCFI7:
 660              		.cfi_def_cfa_offset 8
 661              		.cfi_offset 14, -4
 662              		.cfi_offset 4, -8
 663              		.loc 1 291 0
 664 0002 0446     		mov	r4, r0
 665 0004 28B9     		cbnz	r0, .L40
 666              		.loc 1 291 0 is_stmt 0 discriminator 1
 667 0006 40F20000 		movw	r0, #:lower16:.LC3
 668              	.LVL51:
 669 000a C0F20000 		movt	r0, #:upper16:.LC3
 670 000e FFF7FEFF 		bl	chDbgPanic
 671              	.L40:
 672              	.LBB40:
 673              		.loc 1 293 0 is_stmt 1
 674 0012 2023     		movs	r3, #32
 675              	.LVL52:
ARM GAS  C:\Users\z80\AppData\Local\Temp\ccLrh9ok.s 			page 13


 676              	@ 293 "../chibios_2.4.x/os/kernel/src/chthreads.c" 1
 677 0014 83F31188 		msr     BASEPRI, r3
 678              	@ 0 "" 2
 679              	.LVL53:
 680              		.thumb
 681              	.LBE40:
 682 0018 FFF7FEFF 		bl	dbg_check_lock
 683              	.LVL54:
 684              		.loc 1 294 0
 685 001c 2146     		mov	r1, r4
 686 001e 0620     		movs	r0, #6
 687 0020 FFF7FEFF 		bl	chSchGoSleepTimeoutS
 688              		.loc 1 295 0
 689 0024 FFF7FEFF 		bl	dbg_check_unlock
 690              	.LBB41:
 691 0028 0023     		movs	r3, #0
 692              	.LVL55:
 693              	@ 295 "../chibios_2.4.x/os/kernel/src/chthreads.c" 1
 694 002a 83F31188 		msr     BASEPRI, r3
 695              	@ 0 "" 2
 696              	.LVL56:
 697              		.thumb
 698              	.LBE41:
 699              		.loc 1 296 0
 700 002e 10BD     		pop	{r4, pc}
 701              		.cfi_endproc
 702              	.LFE14:
 703              		.size	chThdSleep, .-chThdSleep
 704              		.section	.text.chThdSleepUntil,"ax",%progbits
 705              		.align	2
 706              		.p2align 4,,15
 707              		.global	chThdSleepUntil
 708              		.thumb
 709              		.thumb_func
 710              		.type	chThdSleepUntil, %function
 711              	chThdSleepUntil:
 712              	.LFB15:
 713              		.loc 1 306 0
 714              		.cfi_startproc
 715              		@ args = 0, pretend = 0, frame = 0
 716              		@ frame_needed = 0, uses_anonymous_args = 0
 717              	.LVL57:
 718 0000 10B5     		push	{r4, lr}
 719              	.LCFI8:
 720              		.cfi_def_cfa_offset 8
 721              		.cfi_offset 14, -4
 722              		.cfi_offset 4, -8
 723              	.LBB42:
 724              		.loc 1 308 0
 725 0002 2023     		movs	r3, #32
 726              	.LVL58:
 727              	.LBE42:
 728              		.loc 1 306 0
 729 0004 0446     		mov	r4, r0
 730              	.LBB43:
 731              		.loc 1 308 0
 732              	@ 308 "../chibios_2.4.x/os/kernel/src/chthreads.c" 1
ARM GAS  C:\Users\z80\AppData\Local\Temp\ccLrh9ok.s 			page 14


 733 0006 83F31188 		msr     BASEPRI, r3
 734              	@ 0 "" 2
 735              	.LVL59:
 736              		.thumb
 737              	.LBE43:
 738 000a FFF7FEFF 		bl	dbg_check_lock
 739              	.LVL60:
 740              		.loc 1 309 0
 741 000e 40F20003 		movw	r3, #:lower16:vtlist
 742 0012 C0F20003 		movt	r3, #:upper16:vtlist
 743 0016 D968     		ldr	r1, [r3, #12]
 744              	.LVL61:
 745 0018 611A     		subs	r1, r4, r1
 746              	.LVL62:
 747 001a 02D0     		beq	.L42
 748              		.loc 1 310 0
 749 001c 0620     		movs	r0, #6
 750 001e FFF7FEFF 		bl	chSchGoSleepTimeoutS
 751              	.LVL63:
 752              	.L42:
 753              		.loc 1 311 0
 754 0022 FFF7FEFF 		bl	dbg_check_unlock
 755              	.LBB44:
 756 0026 0023     		movs	r3, #0
 757              	.LVL64:
 758              	@ 311 "../chibios_2.4.x/os/kernel/src/chthreads.c" 1
 759 0028 83F31188 		msr     BASEPRI, r3
 760              	@ 0 "" 2
 761              	.LVL65:
 762              		.thumb
 763              	.LBE44:
 764              		.loc 1 312 0
 765 002c 10BD     		pop	{r4, pc}
 766              		.cfi_endproc
 767              	.LFE15:
 768              		.size	chThdSleepUntil, .-chThdSleepUntil
 769 002e 00BF     		.section	.text.chThdYield,"ax",%progbits
 770              		.align	2
 771              		.p2align 4,,15
 772              		.global	chThdYield
 773              		.thumb
 774              		.thumb_func
 775              		.type	chThdYield, %function
 776              	chThdYield:
 777              	.LFB16:
 778              		.loc 1 321 0
 779              		.cfi_startproc
 780              		@ args = 0, pretend = 0, frame = 0
 781              		@ frame_needed = 0, uses_anonymous_args = 0
 782 0000 08B5     		push	{r3, lr}
 783              	.LCFI9:
 784              		.cfi_def_cfa_offset 8
 785              		.cfi_offset 14, -4
 786              		.cfi_offset 3, -8
 787              	.LBB45:
 788              		.loc 1 323 0
 789 0002 2023     		movs	r3, #32
ARM GAS  C:\Users\z80\AppData\Local\Temp\ccLrh9ok.s 			page 15


 790              	.LVL66:
 791              	@ 323 "../chibios_2.4.x/os/kernel/src/chthreads.c" 1
 792 0004 83F31188 		msr     BASEPRI, r3
 793              	@ 0 "" 2
 794              	.LVL67:
 795              		.thumb
 796              	.LBE45:
 797 0008 FFF7FEFF 		bl	dbg_check_lock
 798              	.LVL68:
 799              		.loc 1 324 0
 800 000c 40F2000C 		movw	ip, #:lower16:rlist
 801 0010 C0F2000C 		movt	ip, #:upper16:rlist
 802 0014 DCF80010 		ldr	r1, [ip, #0]
 803 0018 DCF81C00 		ldr	r0, [ip, #28]
 804 001c 8A68     		ldr	r2, [r1, #8]
 805 001e 8368     		ldr	r3, [r0, #8]
 806 0020 9A42     		cmp	r2, r3
 807 0022 01D3     		bcc	.L44
 808              		.loc 1 324 0 is_stmt 0 discriminator 1
 809 0024 FFF7FEFF 		bl	chSchDoReschedule
 810              	.L44:
 811              		.loc 1 325 0 is_stmt 1
 812 0028 FFF7FEFF 		bl	dbg_check_unlock
 813              	.LBB46:
 814 002c 0023     		movs	r3, #0
 815              	.LVL69:
 816              	@ 325 "../chibios_2.4.x/os/kernel/src/chthreads.c" 1
 817 002e 83F31188 		msr     BASEPRI, r3
 818              	@ 0 "" 2
 819              	.LVL70:
 820              		.thumb
 821              	.LBE46:
 822              		.loc 1 326 0
 823 0032 08BD     		pop	{r3, pc}
 824              		.cfi_endproc
 825              	.LFE16:
 826              		.size	chThdYield, .-chThdYield
 827 0034 AFF30080 		.section	.text.chThdExitS,"ax",%progbits
 827      AFF30080 
 827      AFF30080 
 828              		.align	2
 829              		.p2align 4,,15
 830              		.global	chThdExitS
 831              		.thumb
 832              		.thumb_func
 833              		.type	chThdExitS, %function
 834              	chThdExitS:
 835              	.LFB18:
 836              		.loc 1 363 0
 837              		.cfi_startproc
 838              		@ args = 0, pretend = 0, frame = 0
 839              		@ frame_needed = 0, uses_anonymous_args = 0
 840              	.LVL71:
 841 0000 38B5     		push	{r3, r4, r5, lr}
 842              	.LCFI10:
 843              		.cfi_def_cfa_offset 16
 844              		.cfi_offset 14, -4
ARM GAS  C:\Users\z80\AppData\Local\Temp\ccLrh9ok.s 			page 16


 845              		.cfi_offset 5, -8
 846              		.cfi_offset 4, -12
 847              		.cfi_offset 3, -16
 848              		.loc 1 364 0
 849 0002 40F20003 		movw	r3, #:lower16:rlist
 850 0006 C0F20003 		movt	r3, #:upper16:rlist
 851 000a DC69     		ldr	r4, [r3, #28]
 852              	.LVL72:
 853              		.loc 1 371 0
 854 000c 2546     		mov	r5, r4
 855 000e 55F82C3F 		ldr	r3, [r5, #44]!
 856              	.LVL73:
 857              		.loc 1 366 0
 858 0012 A062     		str	r0, [r4, #40]
 859              		.loc 1 371 0
 860 0014 AB42     		cmp	r3, r5
 861 0016 07D0     		beq	.L46
 862              	.LVL74:
 863              	.L49:
 864              	.LBB47:
 865              	.LBB48:
 866              		.file 2 "../chibios_2.4.x/os/kernel/include/chinline.h"
 867              		.loc 2 89 0
 868 0018 1A68     		ldr	r2, [r3, #0]
 869              	.LBE48:
 870              	.LBE47:
 871              		.loc 1 372 0
 872 001a 1846     		mov	r0, r3
 873              	.LBB50:
 874              	.LBB49:
 875              		.loc 2 89 0
 876 001c E262     		str	r2, [r4, #44]
 877              	.LBE49:
 878              	.LBE50:
 879              		.loc 1 372 0
 880 001e FFF7FEFF 		bl	chSchReadyI
 881              	.LVL75:
 882              		.loc 1 371 0
 883 0022 E36A     		ldr	r3, [r4, #44]
 884 0024 AB42     		cmp	r3, r5
 885 0026 F7D1     		bne	.L49
 886              	.LVL76:
 887              	.L46:
 888              		.loc 1 377 0
 889 0028 94F82110 		ldrb	r1, [r4, #33]	@ zero_extendqisi2
 890 002c 8807     		lsls	r0, r1, #30
 891              		.loc 1 378 0
 892 002e 01BF     		itttt	eq
 893 0030 2269     		ldreq	r2, [r4, #16]
 894 0032 6069     		ldreq	r0, [r4, #20]
 895 0034 0261     		streq	r2, [r0, #16]
 896 0036 2269     		ldreq	r2, [r4, #16]
 897 0038 08BF     		it	eq
 898 003a 5061     		streq	r0, [r2, #20]
 899              		.loc 1 380 0
 900 003c 0E20     		movs	r0, #14
 901 003e FFF7FEFF 		bl	chSchGoSleepS
ARM GAS  C:\Users\z80\AppData\Local\Temp\ccLrh9ok.s 			page 17


 902              		.loc 1 382 0
 903 0042 40F20000 		movw	r0, #:lower16:.LC4
 904 0046 C0F20000 		movt	r0, #:upper16:.LC4
 905              		.loc 1 383 0
 906 004a BDE83840 		pop	{r3, r4, r5, lr}
 907              		.loc 1 382 0
 908 004e FFF7FEBF 		b	chDbgPanic
 909              		.cfi_endproc
 910              	.LFE18:
 911              		.size	chThdExitS, .-chThdExitS
 912 0052 00BFAFF3 		.section	.text.chThdExit,"ax",%progbits
 912      0080AFF3 
 912      0080AFF3 
 912      0080
 913              		.align	2
 914              		.p2align 4,,15
 915              		.global	chThdExit
 916              		.thumb
 917              		.thumb_func
 918              		.type	chThdExit, %function
 919              	chThdExit:
 920              	.LFB17:
 921              		.loc 1 342 0
 922              		.cfi_startproc
 923              		@ args = 0, pretend = 0, frame = 0
 924              		@ frame_needed = 0, uses_anonymous_args = 0
 925              	.LVL77:
 926 0000 10B5     		push	{r4, lr}
 927              	.LCFI11:
 928              		.cfi_def_cfa_offset 8
 929              		.cfi_offset 14, -4
 930              		.cfi_offset 4, -8
 931              	.LBB51:
 932              		.loc 1 344 0
 933 0002 2023     		movs	r3, #32
 934              	.LVL78:
 935              	.LBE51:
 936              		.loc 1 342 0
 937 0004 0446     		mov	r4, r0
 938              	.LBB52:
 939              		.loc 1 344 0
 940              	@ 344 "../chibios_2.4.x/os/kernel/src/chthreads.c" 1
 941 0006 83F31188 		msr     BASEPRI, r3
 942              	@ 0 "" 2
 943              	.LVL79:
 944              		.thumb
 945              	.LBE52:
 946 000a FFF7FEFF 		bl	dbg_check_lock
 947              	.LVL80:
 948              		.loc 1 345 0
 949 000e 2046     		mov	r0, r4
 950              		.loc 1 347 0
 951 0010 BDE81040 		pop	{r4, lr}
 952              		.loc 1 345 0
 953 0014 FFF7FEBF 		b	chThdExitS
 954              		.cfi_endproc
 955              	.LFE17:
ARM GAS  C:\Users\z80\AppData\Local\Temp\ccLrh9ok.s 			page 18


 956              		.size	chThdExit, .-chThdExit
 957 0018 AFF30080 		.section	.text.chThdWait,"ax",%progbits
 957      AFF30080 
 958              		.align	2
 959              		.p2align 4,,15
 960              		.global	chThdWait
 961              		.thumb
 962              		.thumb_func
 963              		.type	chThdWait, %function
 964              	chThdWait:
 965              	.LFB19:
 966              		.loc 1 417 0
 967              		.cfi_startproc
 968              		@ args = 0, pretend = 0, frame = 0
 969              		@ frame_needed = 0, uses_anonymous_args = 0
 970              	.LVL81:
 971 0000 38B5     		push	{r3, r4, r5, lr}
 972              	.LCFI12:
 973              		.cfi_def_cfa_offset 16
 974              		.cfi_offset 14, -4
 975              		.cfi_offset 5, -8
 976              		.cfi_offset 4, -12
 977              		.cfi_offset 3, -16
 978              		.loc 1 420 0
 979 0002 0446     		mov	r4, r0
 980 0004 F0B1     		cbz	r0, .L56
 981              	.LVL82:
 982              	.L53:
 983              	.LBB53:
 984              		.loc 1 422 0
 985 0006 2023     		movs	r3, #32
 986              	.LVL83:
 987              	@ 422 "../chibios_2.4.x/os/kernel/src/chthreads.c" 1
 988 0008 83F31188 		msr     BASEPRI, r3
 989              	@ 0 "" 2
 990              	.LVL84:
 991              		.thumb
 992              	.LBE53:
 993              		.loc 1 423 0
 994 000c 40F20005 		movw	r5, #:lower16:rlist
 995 0010 C0F20005 		movt	r5, #:upper16:rlist
 996              		.loc 1 422 0
 997 0014 FFF7FEFF 		bl	dbg_check_lock
 998              	.LVL85:
 999              		.loc 1 423 0
 1000 0018 EB69     		ldr	r3, [r5, #28]
 1001 001a A342     		cmp	r3, r4
 1002 001c 19D0     		beq	.L57
 1003              	.L54:
 1004              		.loc 1 427 0
 1005 001e 94F82000 		ldrb	r0, [r4, #32]	@ zero_extendqisi2
 1006 0022 0E28     		cmp	r0, #14
 1007 0024 06D0     		beq	.L55
 1008              		.loc 1 428 0
 1009 0026 E969     		ldr	r1, [r5, #28]
 1010              	.LVL86:
 1011              	.LBB54:
ARM GAS  C:\Users\z80\AppData\Local\Temp\ccLrh9ok.s 			page 19


 1012              	.LBB55:
 1013              		.loc 2 82 0
 1014 0028 E26A     		ldr	r2, [r4, #44]
 1015              	.LBE55:
 1016              	.LBE54:
 1017              		.loc 1 429 0
 1018 002a 0720     		movs	r0, #7
 1019              	.LBB57:
 1020              	.LBB56:
 1021              		.loc 2 82 0
 1022 002c 0A60     		str	r2, [r1, #0]
 1023              		.loc 2 83 0
 1024 002e E162     		str	r1, [r4, #44]
 1025              	.LBE56:
 1026              	.LBE57:
 1027              		.loc 1 429 0
 1028 0030 FFF7FEFF 		bl	chSchGoSleepS
 1029              	.LVL87:
 1030              	.L55:
 1031              		.loc 1 431 0
 1032 0034 A46A     		ldr	r4, [r4, #40]
 1033              	.LVL88:
 1034              		.loc 1 432 0
 1035 0036 FFF7FEFF 		bl	dbg_check_unlock
 1036              	.LBB58:
 1037 003a 0023     		movs	r3, #0
 1038              	.LVL89:
 1039              	@ 432 "../chibios_2.4.x/os/kernel/src/chthreads.c" 1
 1040 003c 83F31188 		msr     BASEPRI, r3
 1041              	@ 0 "" 2
 1042              	.LVL90:
 1043              		.thumb
 1044              	.LBE58:
 1045              		.loc 1 437 0
 1046 0040 2046     		mov	r0, r4
 1047 0042 38BD     		pop	{r3, r4, r5, pc}
 1048              	.LVL91:
 1049              	.L56:
 1050              		.loc 1 420 0 discriminator 1
 1051 0044 40F20000 		movw	r0, #:lower16:.LC5
 1052              	.LVL92:
 1053 0048 C0F20000 		movt	r0, #:upper16:.LC5
 1054 004c FFF7FEFF 		bl	chDbgPanic
 1055 0050 D9E7     		b	.L53
 1056              	.L57:
 1057              		.loc 1 423 0 discriminator 1
 1058 0052 40F20000 		movw	r0, #:lower16:.LC6
 1059 0056 C0F20000 		movt	r0, #:upper16:.LC6
 1060 005a FFF7FEFF 		bl	chDbgPanic
 1061 005e DEE7     		b	.L54
 1062              		.cfi_endproc
 1063              	.LFE19:
 1064              		.size	chThdWait, .-chThdWait
 1065              		.section	.rodata.str1.4,"aMS",%progbits,1
 1066              		.align	2
 1067              	.LC0:
 1068 0000 22636854 		.ascii	"\"chThdCreateI\"()\000"
ARM GAS  C:\Users\z80\AppData\Local\Temp\ccLrh9ok.s 			page 20


 1068      68644372 
 1068      65617465 
 1068      49222829 
 1068      00
 1069 0011 000000   		.space	3
 1070              	.LC1:
 1071 0014 22636854 		.ascii	"\"chThdSetPriority\"()\000"
 1071      68645365 
 1071      74507269 
 1071      6F726974 
 1071      79222829 
 1072 0029 000000   		.space	3
 1073              	.LC2:
 1074 002c 63685468 		.ascii	"chThdResume(), #1\000"
 1074      64526573 
 1074      756D6528 
 1074      292C2023 
 1074      3100
 1075 003e 0000     		.space	2
 1076              	.LC3:
 1077 0040 22636854 		.ascii	"\"chThdSleep\"()\000"
 1077      6864536C 
 1077      65657022 
 1077      282900
 1078 004f 00       		.space	1
 1079              	.LC4:
 1080 0050 63685468 		.ascii	"chThdExitS(), #1\000"
 1080      64457869 
 1080      74532829 
 1080      2C202331 
 1080      00
 1081 0061 000000   		.space	3
 1082              	.LC5:
 1083 0064 22636854 		.ascii	"\"chThdWait\"()\000"
 1083      68645761 
 1083      69742228 
 1083      2900
 1084 0072 0000     		.space	2
 1085              	.LC6:
 1086 0074 63685468 		.ascii	"chThdWait(), #1\000"
 1086      64576169 
 1086      7428292C 
 1086      20233100 
 1087              		.text
 1088              	.Letext0:
 1089              		.file 3 "c:\\programs\\codesourcery\\2011.03-56\\bin\\../lib/gcc/arm-none-eabi/4.6.3/include/stdde
 1090              		.file 4 "c:\\programs\\codesourcery\\2011.03-56\\bin\\../lib/gcc/arm-none-eabi/4.6.3/../../../../a
 1091              		.file 5 "../chibios_2.4.x/os/ports/GCC/ARMCMx/chtypes.h"
 1092              		.file 6 "../chibios_2.4.x/os/kernel/include/chlists.h"
 1093              		.file 7 "../chibios_2.4.x/os/kernel/include/chthreads.h"
 1094              		.file 8 "../chibios_2.4.x/os/ports/GCC/ARMCMx/chcore_v7m.h"
 1095              		.file 9 "../chibios_2.4.x/os/kernel/include/chvt.h"
 1096              		.file 10 "../chibios_2.4.x/os/kernel/include/chschd.h"
 1097              		.file 11 "../chibios_2.4.x/os/kernel/include/chmtx.h"