ARM GAS  C:\Users\z80\AppData\Local\Temp\ccSx45O2.s 			page 1


   1              		.syntax unified
   2              		.cpu cortex-m3
   3              		.fpu softvfp
   4              		.eabi_attribute 20, 1
   5              		.eabi_attribute 21, 1
   6              		.eabi_attribute 23, 3
   7              		.eabi_attribute 24, 1
   8              		.eabi_attribute 25, 1
   9              		.eabi_attribute 26, 1
  10              		.eabi_attribute 30, 2
  11              		.eabi_attribute 18, 4
  12              		.thumb
  13              		.file	"cpu_io.c"
  14              		.section	.debug_abbrev,"",%progbits
  15              	.Ldebug_abbrev0:
  16              		.section	.debug_info,"",%progbits
  17              	.Ldebug_info0:
  18              		.section	.debug_line,"",%progbits
  19              	.Ldebug_line0:
  20 0000 88040000 		.text
  20      02009702 
  20      00000201 
  20      FB0E0D00 
  20      01010101 
  21              	.Ltext0:
  22              		.cfi_sections	.debug_frame
  23              		.section	.text.sweep_dac1,"ax",%progbits
  24              		.align	2
  25              		.p2align 4,,15
  26              		.thumb
  27              		.thumb_func
  28              		.type	sweep_dac1, %function
  29              	sweep_dac1:
  30              	.LFB76:
  31              		.file 1 "./src/cpu_io.c"
  32              		.loc 1 268 0
  33              		.cfi_startproc
  34              		@ args = 0, pretend = 0, frame = 0
  35              		@ frame_needed = 0, uses_anonymous_args = 0
  36              		@ link register save eliminated.
  37              	.LVL0:
  38              		.loc 1 270 0
  39 0000 7047     		bx	lr
  40              		.cfi_endproc
  41              	.LFE76:
  42              		.size	sweep_dac1, .-sweep_dac1
  43 0002 00BFAFF3 		.section	.text.sweep_dac2,"ax",%progbits
  43      0080AFF3 
  43      0080AFF3 
  43      0080
  44              		.align	2
  45              		.p2align 4,,15
  46              		.thumb
  47              		.thumb_func
  48              		.type	sweep_dac2, %function
  49              	sweep_dac2:
  50              	.LFB77:
ARM GAS  C:\Users\z80\AppData\Local\Temp\ccSx45O2.s 			page 2


  51              		.loc 1 273 0
  52              		.cfi_startproc
  53              		@ args = 0, pretend = 0, frame = 0
  54              		@ frame_needed = 0, uses_anonymous_args = 0
  55              		@ link register save eliminated.
  56              	.LVL1:
  57              		.loc 1 275 0
  58 0000 7047     		bx	lr
  59              		.cfi_endproc
  60              	.LFE77:
  61              		.size	sweep_dac2, .-sweep_dac2
  62 0002 00BFAFF3 		.section	.text.sweep_both,"ax",%progbits
  62      0080AFF3 
  62      0080AFF3 
  62      0080
  63              		.align	2
  64              		.p2align 4,,15
  65              		.thumb
  66              		.thumb_func
  67              		.type	sweep_both, %function
  68              	sweep_both:
  69              	.LFB78:
  70              		.loc 1 278 0
  71              		.cfi_startproc
  72              		@ args = 0, pretend = 0, frame = 0
  73              		@ frame_needed = 0, uses_anonymous_args = 0
  74              		@ link register save eliminated.
  75              	.LVL2:
  76              		.loc 1 280 0
  77 0000 7047     		bx	lr
  78              		.cfi_endproc
  79              	.LFE78:
  80              		.size	sweep_both, .-sweep_both
  81 0002 00BFAFF3 		.section	.text.writeResult,"ax",%progbits
  81      0080AFF3 
  81      0080AFF3 
  81      0080
  82              		.align	2
  83              		.p2align 4,,15
  84              		.thumb
  85              		.thumb_func
  86              		.type	writeResult, %function
  87              	writeResult:
  88              	.LFB79:
  89              		.loc 1 291 0
  90              		.cfi_startproc
  91              		@ args = 0, pretend = 0, frame = 0
  92              		@ frame_needed = 0, uses_anonymous_args = 0
  93              	.LVL3:
  94              		.loc 1 292 0
  95 0000 D0F10103 		rsbs	r3, r0, #1
  96 0004 38BF     		it	cc
  97 0006 0023     		movcc	r3, #0
  98 0008 5C28     		cmp	r0, #92
  99 000a 08BF     		it	eq
 100 000c 43F00103 		orreq	r3, r3, #1
 101              		.loc 1 291 0
ARM GAS  C:\Users\z80\AppData\Local\Temp\ccSx45O2.s 			page 3


 102 0010 10B5     		push	{r4, lr}
 103              	.LCFI0:
 104              		.cfi_def_cfa_offset 8
 105              		.loc 1 291 0
 106 0012 0446     		mov	r4, r0
 107              		.cfi_offset 14, -4
 108              		.cfi_offset 4, -8
 109              		.loc 1 292 0
 110 0014 2BB1     		cbz	r3, .L5
 111              		.loc 1 293 0
 112 0016 0648     		ldr	r0, .L7
 113              	.LVL4:
 114 0018 5C21     		movs	r1, #92
 115 001a 4FF0FF32 		mov	r2, #-1
 116 001e FFF7FEFF 		bl	chOQPutTimeout
 117              	.L5:
 118              		.loc 1 294 0
 119 0022 2146     		mov	r1, r4
 120 0024 4FF0FF32 		mov	r2, #-1
 121 0028 0148     		ldr	r0, .L7
 122 002a FFF7FEFF 		bl	chOQPutTimeout
 123              		.loc 1 295 0
 124 002e 10BD     		pop	{r4, pc}
 125              	.L8:
 126              		.align	2
 127              	.L7:
 128 0030 30000000 		.word	SD1+48
 129              		.cfi_endproc
 130              	.LFE79:
 131              		.size	writeResult, .-writeResult
 132 0034 AFF30080 		.section	.text.writeEom,"ax",%progbits
 132      AFF30080 
 132      AFF30080 
 133              		.align	2
 134              		.p2align 4,,15
 135              		.thumb
 136              		.thumb_func
 137              		.type	writeEom, %function
 138              	writeEom:
 139              	.LFB80:
 140              		.loc 1 298 0
 141              		.cfi_startproc
 142              		@ args = 0, pretend = 0, frame = 0
 143              		@ frame_needed = 0, uses_anonymous_args = 0
 144 0000 08B5     		push	{r3, lr}
 145              	.LCFI1:
 146              		.cfi_def_cfa_offset 8
 147              		.loc 1 299 0
 148 0002 0021     		movs	r1, #0
 149 0004 4FF0FF32 		mov	r2, #-1
 150 0008 0148     		ldr	r0, .L10
 151              		.cfi_offset 14, -4
 152              		.cfi_offset 3, -8
 153 000a FFF7FEFF 		bl	chOQPutTimeout
 154              		.loc 1 300 0
 155 000e 08BD     		pop	{r3, pc}
 156              	.L11:
ARM GAS  C:\Users\z80\AppData\Local\Temp\ccSx45O2.s 			page 4


 157              		.align	2
 158              	.L10:
 159 0010 30000000 		.word	SD1+48
 160              		.cfi_endproc
 161              	.LFE80:
 162              		.size	writeEom, .-writeEom
 163 0014 AFF30080 		.section	.text.get_osc_data,"ax",%progbits
 163      AFF30080 
 163      AFF30080 
 164              		.align	2
 165              		.p2align 4,,15
 166              		.thumb
 167              		.thumb_func
 168              		.type	get_osc_data, %function
 169              	get_osc_data:
 170              	.LFB75:
 171              		.loc 1 247 0
 172              		.cfi_startproc
 173              		@ args = 0, pretend = 0, frame = 0
 174              		@ frame_needed = 0, uses_anonymous_args = 0
 175              	.LVL5:
 176 0000 70B5     		push	{r4, r5, r6, lr}
 177              	.LCFI2:
 178              		.cfi_def_cfa_offset 16
 179              		.loc 1 252 0
 180              		.cfi_offset 14, -4
 181              		.cfi_offset 6, -8
 182              		.cfi_offset 5, -12
 183              		.cfi_offset 4, -16
 184 0002 FFF7FEFF 		bl	adcQueue
 185              	.LVL6:
 186              	.LBB9:
 187              		.loc 1 253 0
 188 0006 2023     		movs	r3, #32
 189              	.LVL7:
 190              	.LBE9:
 191              		.loc 1 252 0
 192 0008 0446     		mov	r4, r0
 193              	.LVL8:
 194              	.LBB10:
 195              		.loc 1 253 0
 196              	@ 253 "./src/cpu_io.c" 1
 197 000a 83F31188 		msr     BASEPRI, r3
 198              	@ 0 "" 2
 199              	.LVL9:
 200              		.thumb
 201              	.LBE10:
 202 000e FFF7FEFF 		bl	dbg_check_lock
 203              	.LVL10:
 204              		.loc 1 254 0
 205 0012 A568     		ldr	r5, [r4, #8]
 206 0014 4AF6AB23 		movw	r3, #43691
 207 0018 CAF6AA23 		movt	r3, 43690
 208 001c A3FB0525 		umull	r2, r5, r3, r5
 209              		.loc 1 255 0
 210 0020 FFF7FEFF 		bl	dbg_check_unlock
 211              		.loc 1 254 0
ARM GAS  C:\Users\z80\AppData\Local\Temp\ccSx45O2.s 			page 5


 212 0024 ED08     		lsrs	r5, r5, #3
 213              	.LVL11:
 214              	.LBB11:
 215              		.loc 1 255 0
 216 0026 0023     		movs	r3, #0
 217              	.LVL12:
 218              	@ 255 "./src/cpu_io.c" 1
 219 0028 83F31188 		msr     BASEPRI, r3
 220              	@ 0 "" 2
 221              	.LVL13:
 222              		.thumb
 223              	.LBE11:
 224              		.loc 1 256 0
 225 002c 75B1     		cbz	r5, .L13
 226 002e 1E46     		mov	r6, r3
 227              	.LVL14:
 228              	.L15:
 229              	.LBB12:
 230              		.loc 1 258 0
 231 0030 0021     		movs	r1, #0
 232 0032 2046     		mov	r0, r4
 233 0034 FFF7FEFF 		bl	chIQGetTimeout
 234              	.LVL15:
 235              		.loc 1 259 0
 236 0038 831C     		adds	r3, r0, #2
 237              		.loc 1 261 0
 238 003a 012B     		cmp	r3, #1
 239 003c 8CBF     		ite	hi
 240 003e C0B2     		uxtbhi	r0, r0
 241              	.LVL16:
 242 0040 0020     		movls	r0, #0
 243              	.LVL17:
 244              	.LBE12:
 245              		.loc 1 256 0
 246 0042 0136     		adds	r6, r6, #1
 247              	.LBB13:
 248              		.loc 1 262 0
 249 0044 FFF7FEFF 		bl	writeResult
 250              	.LVL18:
 251              	.LBE13:
 252              		.loc 1 256 0
 253 0048 B542     		cmp	r5, r6
 254 004a F1D8     		bhi	.L15
 255              	.LVL19:
 256              	.L13:
 257              		.loc 1 264 0
 258 004c FFF7FEFF 		bl	writeEom
 259              	.LVL20:
 260              		.loc 1 265 0
 261 0050 70BD     		pop	{r4, r5, r6, pc}
 262              		.cfi_endproc
 263              	.LFE75:
 264              		.size	get_osc_data, .-get_osc_data
 265 0052 00BFAFF3 		.section	.text.firmware_version,"ax",%progbits
 265      0080AFF3 
 265      0080AFF3 
 265      0080
ARM GAS  C:\Users\z80\AppData\Local\Temp\ccSx45O2.s 			page 6


 266              		.align	2
 267              		.p2align 4,,15
 268              		.thumb
 269              		.thumb_func
 270              		.type	firmware_version, %function
 271              	firmware_version:
 272              	.LFB68:
 273              		.loc 1 180 0
 274              		.cfi_startproc
 275              		@ args = 0, pretend = 0, frame = 8
 276              		@ frame_needed = 0, uses_anonymous_args = 0
 277              	.LVL21:
 278 0000 30B5     		push	{r4, r5, lr}
 279              	.LCFI3:
 280              		.cfi_def_cfa_offset 12
 281              		.loc 1 182 0
 282 0002 0A4B     		ldr	r3, .L21
 283              		.loc 1 180 0
 284 0004 83B0     		sub	sp, sp, #12
 285              	.LCFI4:
 286              		.cfi_def_cfa_offset 24
 287              		.loc 1 182 0
 288 0006 02AD     		add	r5, sp, #8
 289              		.cfi_offset 14, -4
 290              		.cfi_offset 5, -8
 291              		.cfi_offset 4, -12
 292 0008 93E80300 		ldmia	r3, {r0, r1}
 293              	.LVL22:
 294 000c 45F8080D 		str	r0, [r5, #-8]!
 295 0010 6C1E     		subs	r4, r5, #1
 296 0012 ADF80410 		strh	r1, [sp, #4]	@ movhi
 297              	.LVL23:
 298              		.loc 1 179 0
 299 0016 0435     		adds	r5, r5, #4
 300              	.LVL24:
 301              	.L19:
 302              		.loc 1 186 0 discriminator 2
 303 0018 14F8010F 		ldrb	r0, [r4, #1]!	@ zero_extendqisi2
 304 001c FFF7FEFF 		bl	writeResult
 305              		.loc 1 185 0 discriminator 2
 306 0020 AC42     		cmp	r4, r5
 307 0022 F9D1     		bne	.L19
 308              		.loc 1 187 0
 309 0024 FFF7FEFF 		bl	writeEom
 310              		.loc 1 188 0
 311 0028 03B0     		add	sp, sp, #12
 312 002a 30BD     		pop	{r4, r5, pc}
 313              	.L22:
 314              		.align	2
 315              	.L21:
 316 002c 00000000 		.word	.LC0
 317              		.cfi_endproc
 318              	.LFE68:
 319              		.size	firmware_version, .-firmware_version
 320              		.section	.text.hardware_version,"ax",%progbits
 321              		.align	2
 322              		.p2align 4,,15
ARM GAS  C:\Users\z80\AppData\Local\Temp\ccSx45O2.s 			page 7


 323              		.thumb
 324              		.thumb_func
 325              		.type	hardware_version, %function
 326              	hardware_version:
 327              	.LFB67:
 328              		.loc 1 169 0
 329              		.cfi_startproc
 330              		@ args = 0, pretend = 0, frame = 16
 331              		@ frame_needed = 0, uses_anonymous_args = 0
 332              	.LVL25:
 333 0000 30B5     		push	{r4, r5, lr}
 334              	.LCFI5:
 335              		.cfi_def_cfa_offset 12
 336              		.loc 1 171 0
 337 0002 0A4B     		ldr	r3, .L26
 338              		.loc 1 169 0
 339 0004 85B0     		sub	sp, sp, #20
 340              	.LCFI6:
 341              		.cfi_def_cfa_offset 32
 342              		.loc 1 171 0
 343 0006 EC46     		mov	ip, sp
 344 0008 0FCB     		ldmia	r3, {r0, r1, r2, r3}
 345              	.LVL26:
 346 000a 8CE80F00 		stmia	ip, {r0, r1, r2, r3}
 347              	.LVL27:
 348 000e 0DF1FF34 		add	r4, sp, #-1
 349              		.cfi_offset 14, -4
 350              		.cfi_offset 5, -8
 351              		.cfi_offset 4, -12
 352              		.loc 1 168 0
 353 0012 0DF10E05 		add	r5, sp, #14
 354              	.LVL28:
 355              	.L24:
 356              		.loc 1 175 0 discriminator 2
 357 0016 14F8010F 		ldrb	r0, [r4, #1]!	@ zero_extendqisi2
 358 001a FFF7FEFF 		bl	writeResult
 359              		.loc 1 174 0 discriminator 2
 360 001e AC42     		cmp	r4, r5
 361 0020 F9D1     		bne	.L24
 362              		.loc 1 176 0
 363 0022 FFF7FEFF 		bl	writeEom
 364              		.loc 1 177 0
 365 0026 05B0     		add	sp, sp, #20
 366 0028 30BD     		pop	{r4, r5, pc}
 367              	.L27:
 368 002a 00BF     		.align	2
 369              	.L26:
 370 002c 08000000 		.word	.LC1
 371              		.cfi_endproc
 372              	.LFE67:
 373              		.size	hardware_version, .-hardware_version
 374              		.section	.text.set_osc_period,"ax",%progbits
 375              		.align	2
 376              		.p2align 4,,15
 377              		.thumb
 378              		.thumb_func
 379              		.type	set_osc_period, %function
ARM GAS  C:\Users\z80\AppData\Local\Temp\ccSx45O2.s 			page 8


 380              	set_osc_period:
 381              	.LFB74:
 382              		.loc 1 237 0
 383              		.cfi_startproc
 384              		@ args = 0, pretend = 0, frame = 0
 385              		@ frame_needed = 0, uses_anonymous_args = 0
 386              	.LVL29:
 387 0000 08B5     		push	{r3, lr}
 388              	.LCFI7:
 389              		.cfi_def_cfa_offset 8
 390              		.loc 1 240 0
 391 0002 4378     		ldrb	r3, [r0, #1]	@ zero_extendqisi2
 392              		.cfi_offset 14, -4
 393              		.cfi_offset 3, -8
 394              		.loc 1 239 0
 395 0004 0278     		ldrb	r2, [r0, #0]	@ zero_extendqisi2
 396              	.LVL30:
 397              		.loc 1 241 0
 398 0006 1804     		lsls	r0, r3, #16
 399              	.LVL31:
 400              		.loc 1 240 0
 401 0008 00EB0320 		add	r0, r0, r3, lsl #8
 402              		.loc 1 241 0
 403 000c 8018     		adds	r0, r0, r2
 404              	.LVL32:
 405              		.loc 1 242 0
 406 000e 00EB0360 		add	r0, r0, r3, lsl #24
 407              	.LVL33:
 408              		.loc 1 243 0
 409 0012 FFF7FEFF 		bl	setOscPeriod
 410              		.loc 1 244 0
 411 0016 08BD     		pop	{r3, pc}
 412              		.cfi_endproc
 413              	.LFE74:
 414              		.size	set_osc_period, .-set_osc_period
 415 0018 AFF30080 		.section	.text.set_osc_signals,"ax",%progbits
 415      AFF30080 
 416              		.align	2
 417              		.p2align 4,,15
 418              		.thumb
 419              		.thumb_func
 420              		.type	set_osc_signals, %function
 421              	set_osc_signals:
 422              	.LFB73:
 423              		.loc 1 231 0
 424              		.cfi_startproc
 425              		@ args = 0, pretend = 0, frame = 0
 426              		@ frame_needed = 0, uses_anonymous_args = 0
 427              	.LVL34:
 428 0000 08B5     		push	{r3, lr}
 429              	.LCFI8:
 430              		.cfi_def_cfa_offset 8
 431              		.loc 1 233 0
 432 0002 0078     		ldrb	r0, [r0, #0]	@ zero_extendqisi2
 433              	.LVL35:
 434              		.cfi_offset 14, -4
 435              		.cfi_offset 3, -8
ARM GAS  C:\Users\z80\AppData\Local\Temp\ccSx45O2.s 			page 9


 436 0004 FFF7FEFF 		bl	setOscSignals
 437              		.loc 1 234 0
 438 0008 08BD     		pop	{r3, pc}
 439              		.cfi_endproc
 440              	.LFE73:
 441              		.size	set_osc_signals, .-set_osc_signals
 442 000a 00BFAFF3 		.section	.text.get_adc,"ax",%progbits
 442      0080
 443              		.align	2
 444              		.p2align 4,,15
 445              		.thumb
 446              		.thumb_func
 447              		.type	get_adc, %function
 448              	get_adc:
 449              	.LFB72:
 450              		.loc 1 211 0
 451              		.cfi_startproc
 452              		@ args = 0, pretend = 0, frame = 16
 453              		@ frame_needed = 0, uses_anonymous_args = 0
 454              	.LVL36:
 455 0000 30B5     		push	{r4, r5, lr}
 456              	.LCFI9:
 457              		.cfi_def_cfa_offset 12
 458 0002 85B0     		sub	sp, sp, #20
 459              	.LCFI10:
 460              		.cfi_def_cfa_offset 32
 461              		.loc 1 214 0
 462 0004 6846     		mov	r0, sp
 463              	.LVL37:
 464              		.cfi_offset 14, -4
 465              		.cfi_offset 5, -8
 466              		.cfi_offset 4, -12
 467 0006 FFF7FEFF 		bl	instantAdc
 468              	.LVL38:
 469 000a 6D46     		mov	r5, sp
 470 000c 0024     		movs	r4, #0
 471              	.LVL39:
 472              	.L31:
 473              	.LBB14:
 474              		.loc 1 219 0 discriminator 2
 475 000e 285D     		ldrb	r0, [r5, r4]	@ zero_extendqisi2
 476 0010 FFF7FEFF 		bl	writeResult
 477              	.LVL40:
 478              		.loc 1 220 0 discriminator 2
 479 0014 2859     		ldr	r0, [r5, r4]
 480              		.loc 1 221 0 discriminator 2
 481 0016 C0F30720 		ubfx	r0, r0, #8, #8
 482 001a FFF7FEFF 		bl	writeResult
 483              		.loc 1 222 0 discriminator 2
 484 001e 2859     		ldr	r0, [r5, r4]
 485              		.loc 1 223 0 discriminator 2
 486 0020 C0F30740 		ubfx	r0, r0, #16, #8
 487 0024 FFF7FEFF 		bl	writeResult
 488              		.loc 1 224 0 discriminator 2
 489 0028 2859     		ldr	r0, [r5, r4]
 490              		.loc 1 225 0 discriminator 2
 491 002a 0434     		adds	r4, r4, #4
ARM GAS  C:\Users\z80\AppData\Local\Temp\ccSx45O2.s 			page 10


 492 002c 000E     		lsrs	r0, r0, #24
 493 002e FFF7FEFF 		bl	writeResult
 494              	.LBE14:
 495              		.loc 1 216 0 discriminator 2
 496 0032 102C     		cmp	r4, #16
 497 0034 EBD1     		bne	.L31
 498              		.loc 1 227 0
 499 0036 FFF7FEFF 		bl	writeEom
 500              		.loc 1 228 0
 501 003a 05B0     		add	sp, sp, #20
 502 003c 30BD     		pop	{r4, r5, pc}
 503              		.cfi_endproc
 504              	.LFE72:
 505              		.size	get_adc, .-get_adc
 506 003e 00BF     		.section	.text.set_dac2,"ax",%progbits
 507              		.align	2
 508              		.p2align 4,,15
 509              		.thumb
 510              		.thumb_func
 511              		.type	set_dac2, %function
 512              	set_dac2:
 513              	.LFB71:
 514              		.loc 1 204 0
 515              		.cfi_startproc
 516              		@ args = 0, pretend = 0, frame = 0
 517              		@ frame_needed = 0, uses_anonymous_args = 0
 518              	.LVL41:
 519 0000 08B5     		push	{r3, lr}
 520              	.LCFI11:
 521              		.cfi_def_cfa_offset 8
 522              		.loc 1 206 0
 523 0002 8378     		ldrb	r3, [r0, #2]	@ zero_extendqisi2
 524              		.cfi_offset 14, -4
 525              		.cfi_offset 3, -8
 526              		.loc 1 205 0
 527 0004 90F801C0 		ldrb	ip, [r0, #1]	@ zero_extendqisi2
 528 0008 0278     		ldrb	r2, [r0, #0]	@ zero_extendqisi2
 529              		.loc 1 206 0
 530 000a C178     		ldrb	r1, [r0, #3]	@ zero_extendqisi2
 531              		.loc 1 205 0
 532 000c 02EB0C20 		add	r0, r2, ip, lsl #8
 533              	.LVL42:
 534              		.loc 1 206 0
 535 0010 03EB0121 		add	r1, r3, r1, lsl #8
 536              		.loc 1 207 0
 537 0014 FFF7FEFF 		bl	setDac2
 538              		.loc 1 208 0
 539 0018 08BD     		pop	{r3, pc}
 540              		.cfi_endproc
 541              	.LFE71:
 542              		.size	set_dac2, .-set_dac2
 543 001a 00BFAFF3 		.section	.text.set_dac1,"ax",%progbits
 543      0080
 544              		.align	2
 545              		.p2align 4,,15
 546              		.thumb
 547              		.thumb_func
ARM GAS  C:\Users\z80\AppData\Local\Temp\ccSx45O2.s 			page 11


 548              		.type	set_dac1, %function
 549              	set_dac1:
 550              	.LFB70:
 551              		.loc 1 197 0
 552              		.cfi_startproc
 553              		@ args = 0, pretend = 0, frame = 0
 554              		@ frame_needed = 0, uses_anonymous_args = 0
 555              	.LVL43:
 556 0000 08B5     		push	{r3, lr}
 557              	.LCFI12:
 558              		.cfi_def_cfa_offset 8
 559              		.loc 1 199 0
 560 0002 8378     		ldrb	r3, [r0, #2]	@ zero_extendqisi2
 561              		.cfi_offset 14, -4
 562              		.cfi_offset 3, -8
 563              		.loc 1 198 0
 564 0004 90F801C0 		ldrb	ip, [r0, #1]	@ zero_extendqisi2
 565 0008 0278     		ldrb	r2, [r0, #0]	@ zero_extendqisi2
 566              		.loc 1 199 0
 567 000a C178     		ldrb	r1, [r0, #3]	@ zero_extendqisi2
 568              		.loc 1 198 0
 569 000c 02EB0C20 		add	r0, r2, ip, lsl #8
 570              	.LVL44:
 571              		.loc 1 199 0
 572 0010 03EB0121 		add	r1, r3, r1, lsl #8
 573              		.loc 1 200 0
 574 0014 FFF7FEFF 		bl	setDac1
 575              		.loc 1 201 0
 576 0018 08BD     		pop	{r3, pc}
 577              		.cfi_endproc
 578              	.LFE70:
 579              		.size	set_dac1, .-set_dac1
 580 001a 00BFAFF3 		.section	.text.set_led,"ax",%progbits
 580      0080
 581              		.align	2
 582              		.p2align 4,,15
 583              		.thumb
 584              		.thumb_func
 585              		.type	set_led, %function
 586              	set_led:
 587              	.LFB69:
 588              		.loc 1 191 0
 589              		.cfi_startproc
 590              		@ args = 0, pretend = 0, frame = 0
 591              		@ frame_needed = 0, uses_anonymous_args = 0
 592              	.LVL45:
 593 0000 08B5     		push	{r3, lr}
 594              	.LCFI13:
 595              		.cfi_def_cfa_offset 8
 596              		.loc 1 192 0
 597 0002 0078     		ldrb	r0, [r0, #0]	@ zero_extendqisi2
 598              	.LVL46:
 599              		.cfi_offset 14, -4
 600              		.cfi_offset 3, -8
 601 0004 FFF7FEFF 		bl	setLeds
 602              		.loc 1 193 0
 603 0008 08BD     		pop	{r3, pc}
ARM GAS  C:\Users\z80\AppData\Local\Temp\ccSx45O2.s 			page 12


 604              		.cfi_endproc
 605              	.LFE69:
 606              		.size	set_led, .-set_led
 607 000a 00BFAFF3 		.section	.text.initCpuIo,"ax",%progbits
 607      0080
 608              		.align	2
 609              		.p2align 4,,15
 610              		.global	initCpuIo
 611              		.thumb
 612              		.thumb_func
 613              		.type	initCpuIo, %function
 614              	initCpuIo:
 615              	.LFB62:
 616              		.loc 1 43 0
 617              		.cfi_startproc
 618              		@ args = 0, pretend = 0, frame = 0
 619              		@ frame_needed = 0, uses_anonymous_args = 0
 620 0000 10B5     		push	{r4, lr}
 621              	.LCFI14:
 622              		.cfi_def_cfa_offset 8
 623              		.loc 1 45 0
 624 0002 40F20000 		movw	r0, #:lower16:SD1
 625 0006 40F20001 		movw	r1, #:lower16:.LANCHOR0
 626              		.loc 1 48 0
 627 000a 4FF40064 		mov	r4, #2048
 628              		.cfi_offset 14, -4
 629              		.cfi_offset 4, -8
 630 000e C4F20104 		movt	r4, 16385
 631              		.loc 1 45 0
 632 0012 C0F20000 		movt	r0, #:upper16:SD1
 633 0016 C0F20001 		movt	r1, #:upper16:.LANCHOR0
 634 001a FFF7FEFF 		bl	sdStart
 635              		.loc 1 48 0
 636 001e 2046     		mov	r0, r4
 637 0020 1022     		movs	r2, #16
 638 0022 4FF40071 		mov	r1, #512
 639 0026 FFF7FEFF 		bl	_pal_lld_setgroupmode
 640              		.loc 1 49 0
 641 002a 2046     		mov	r0, r4
 642 002c 0222     		movs	r2, #2
 643 002e 4FF48061 		mov	r1, #1024
 644 0032 FFF7FEFF 		bl	_pal_lld_setgroupmode
 645              		.loc 1 52 0
 646 0036 2046     		mov	r0, r4
 647 0038 1022     		movs	r2, #16
 648 003a 4FF40061 		mov	r1, #2048
 649 003e FFF7FEFF 		bl	_pal_lld_setgroupmode
 650              		.loc 1 55 0
 651 0042 2046     		mov	r0, r4
 652 0044 4FF48051 		mov	r1, #4096
 653 0048 0222     		movs	r2, #2
 654 004a FFF7FEFF 		bl	_pal_lld_setgroupmode
 655              		.loc 1 57 0
 656 004e 10BD     		pop	{r4, pc}
 657              		.cfi_endproc
 658              	.LFE62:
 659              		.size	initCpuIo, .-initCpuIo
ARM GAS  C:\Users\z80\AppData\Local\Temp\ccSx45O2.s 			page 13


 660              		.section	.text.processCpuIo,"ax",%progbits
 661              		.align	2
 662              		.p2align 4,,15
 663              		.global	processCpuIo
 664              		.thumb
 665              		.thumb_func
 666              		.type	processCpuIo, %function
 667              	processCpuIo:
 668              	.LFB63:
 669              		.loc 1 60 0
 670              		.cfi_startproc
 671              		@ args = 0, pretend = 0, frame = 0
 672              		@ frame_needed = 0, uses_anonymous_args = 0
 673 0000 10B5     		push	{r4, lr}
 674              	.LCFI15:
 675              		.cfi_def_cfa_offset 8
 676              		.loc 1 74 0
 677 0002 2948     		ldr	r0, .L50
 678 0004 4FF0FF31 		mov	r1, #-1
 679              		.cfi_offset 14, -4
 680              		.cfi_offset 4, -8
 681 0008 FFF7FEFF 		bl	chIQGetTimeout
 682              	.LVL47:
 683              		.loc 1 75 0
 684 000c 831C     		adds	r3, r0, #2
 685              		.loc 1 76 0
 686 000e 012B     		cmp	r3, #1
 687 0010 0ED9     		bls	.L37
 688              	.LBB15:
 689              		.loc 1 80 0
 690 0012 264A     		ldr	r2, .L50+4
 691              		.loc 1 78 0
 692 0014 C0B2     		uxtb	r0, r0
 693              	.LVL48:
 694              		.loc 1 80 0
 695 0016 1378     		ldrb	r3, [r2, #0]	@ zero_extendqisi2
 696              	.LVL49:
 697 0018 5BB9     		cbnz	r3, .L39
 698              		.loc 1 82 0
 699 001a C0B9     		cbnz	r0, .L40
 700              	.LBB18:
 701              	.LBB21:
 702              		.loc 1 115 0
 703 001c 2449     		ldr	r1, .L50+8
 704              	.LBE21:
 705              	.LBE18:
 706              		.loc 1 85 0
 707 001e 254C     		ldr	r4, .L50+12
 708              	.LBB17:
 709              	.LBB20:
 710              		.loc 1 117 0
 711 0020 0B78     		ldrb	r3, [r1, #0]	@ zero_extendqisi2
 712              	.LBE20:
 713              	.LBE17:
 714              		.loc 1 85 0
 715 0022 2068     		ldr	r0, [r4, #0]
 716              	.LVL50:
ARM GAS  C:\Users\z80\AppData\Local\Temp\ccSx45O2.s 			page 14


 717              	.LBB16:
 718              	.LBB28:
 719              		.loc 1 117 0
 720 0024 012B     		cmp	r3, #1
 721 0026 1ED0     		beq	.L42
 722 0028 022B     		cmp	r3, #2
 723 002a 32D0     		beq	.L49
 724              	.L41:
 725              	.LBB23:
 726              	.LBB25:
 727              		.loc 1 164 0
 728 002c 0023     		movs	r3, #0
 729              	.LVL51:
 730              	.L46:
 731              	.LBE25:
 732              	.LBE23:
 733              	.LBE28:
 734              	.LBE16:
 735              		.loc 1 99 0
 736 002e 2360     		str	r3, [r4, #0]
 737              	.LVL52:
 738              	.L37:
 739              	.LBE15:
 740              		.loc 1 102 0
 741 0030 10BD     		pop	{r4, pc}
 742              	.LVL53:
 743              	.L39:
 744              	.LBB32:
 745              		.loc 1 96 0
 746 0032 204C     		ldr	r4, .L50+12
 747              		.loc 1 95 0
 748 0034 4FF0000C 		mov	ip, #0
 749              		.loc 1 96 0
 750 0038 2168     		ldr	r1, [r4, #0]
 751              		.loc 1 95 0
 752 003a 82F800C0 		strb	ip, [r2, #0]
 753              		.loc 1 96 0
 754 003e 4B1C     		adds	r3, r1, #1
 755 0040 1B4A     		ldr	r2, .L50+8
 756 0042 202B     		cmp	r3, #32
 757 0044 A8BF     		it	ge
 758 0046 2023     		movge	r3, #32
 759 0048 5054     		strb	r0, [r2, r1]
 760              		.loc 1 99 0
 761 004a 2360     		str	r3, [r4, #0]
 762 004c F0E7     		b	.L37
 763              	.L40:
 764              		.loc 1 88 0
 765 004e 5C28     		cmp	r0, #92
 766 0050 16D0     		beq	.L47
 767              		.loc 1 89 0
 768 0052 184C     		ldr	r4, .L50+12
 769 0054 1649     		ldr	r1, .L50+8
 770 0056 2268     		ldr	r2, [r4, #0]
 771 0058 531C     		adds	r3, r2, #1
 772 005a 202B     		cmp	r3, #32
 773 005c A8BF     		it	ge
ARM GAS  C:\Users\z80\AppData\Local\Temp\ccSx45O2.s 			page 15


 774 005e 2023     		movge	r3, #32
 775 0060 8854     		strb	r0, [r1, r2]
 776              		.loc 1 99 0
 777 0062 2360     		str	r3, [r4, #0]
 778 0064 E4E7     		b	.L37
 779              	.LVL54:
 780              	.L42:
 781              	.LBB30:
 782              	.LBB19:
 783              		.loc 1 120 0
 784 0066 0128     		cmp	r0, #1
 785 0068 E0DD     		ble	.L41
 786 006a 134A     		ldr	r2, .L50+16
 787              		.loc 1 116 0
 788 006c 4B1C     		adds	r3, r1, #1
 789              		.loc 1 59 0
 790 006e 0818     		adds	r0, r1, r0
 791              	.LVL55:
 792              	.L44:
 793              		.loc 1 121 0
 794 0070 13F8011B 		ldrb	r1, [r3], #1	@ zero_extendqisi2
 795              		.loc 1 120 0
 796 0074 8342     		cmp	r3, r0
 797              		.loc 1 121 0
 798 0076 02F8011F 		strb	r1, [r2, #1]!
 799              		.loc 1 120 0
 800 007a F9D1     		bne	.L44
 801              	.LBB22:
 802              	.LBB24:
 803              		.loc 1 164 0
 804 007c 0023     		movs	r3, #0
 805 007e D6E7     		b	.L46
 806              	.LVL56:
 807              	.L47:
 808              	.LBE24:
 809              	.LBE22:
 810              	.LBE19:
 811              	.LBE30:
 812              		.loc 1 91 0
 813 0080 0C4C     		ldr	r4, .L50+12
 814 0082 0121     		movs	r1, #1
 815 0084 2368     		ldr	r3, [r4, #0]
 816 0086 1170     		strb	r1, [r2, #0]
 817 0088 202B     		cmp	r3, #32
 818 008a A8BF     		it	ge
 819 008c 2023     		movge	r3, #32
 820              		.loc 1 99 0
 821 008e 2360     		str	r3, [r4, #0]
 822 0090 CEE7     		b	.L37
 823              	.LVL57:
 824              	.L49:
 825              	.LBB31:
 826              	.LBB29:
 827              	.LBB27:
 828              	.LBB26:
 829              		.loc 1 161 0
 830 0092 4B78     		ldrb	r3, [r1, #1]	@ zero_extendqisi2
ARM GAS  C:\Users\z80\AppData\Local\Temp\ccSx45O2.s 			page 16


 831              	.LVL58:
 832              		.loc 1 165 0
 833 0094 094A     		ldr	r2, .L50+20
 834              		.loc 1 164 0
 835 0096 0B2B     		cmp	r3, #11
 836 0098 C8BF     		it	gt
 837 009a 0023     		movgt	r3, #0
 838              	.LVL59:
 839              		.loc 1 165 0
 840 009c 52F82330 		ldr	r3, [r2, r3, lsl #2]
 841              	.LVL60:
 842 00a0 0748     		ldr	r0, .L50+24
 843              	.LVL61:
 844 00a2 9847     		blx	r3
 845              	.LVL62:
 846              		.loc 1 164 0
 847 00a4 0023     		movs	r3, #0
 848 00a6 C2E7     		b	.L46
 849              	.L51:
 850              		.align	2
 851              	.L50:
 852 00a8 10000000 		.word	SD1+16
 853 00ac 00000000 		.word	.LANCHOR1
 854 00b0 00000000 		.word	.LANCHOR3
 855 00b4 00000000 		.word	.LANCHOR2
 856 00b8 FFFFFFFF 		.word	.LANCHOR4-1
 857 00bc 00000000 		.word	.LANCHOR5
 858 00c0 00000000 		.word	.LANCHOR4
 859              	.LBE26:
 860              	.LBE27:
 861              	.LBE29:
 862              	.LBE31:
 863              	.LBE32:
 864              		.cfi_endproc
 865              	.LFE63:
 866              		.size	processCpuIo, .-processCpuIo
 867 00c4 AFF30080 		.section	.text.funcArgs,"ax",%progbits
 867      AFF30080 
 867      AFF30080 
 868              		.align	2
 869              		.p2align 4,,15
 870              		.global	funcArgs
 871              		.thumb
 872              		.thumb_func
 873              		.type	funcArgs, %function
 874              	funcArgs:
 875              	.LFB64:
 876              		.loc 1 105 0
 877              		.cfi_startproc
 878              		@ args = 0, pretend = 0, frame = 0
 879              		@ frame_needed = 0, uses_anonymous_args = 0
 880              		@ link register save eliminated.
 881              		.loc 1 106 0
 882 0000 40F20000 		movw	r0, #:lower16:.LANCHOR4
 883 0004 C0F20000 		movt	r0, #:upper16:.LANCHOR4
 884              		.loc 1 107 0
 885 0008 7047     		bx	lr
ARM GAS  C:\Users\z80\AppData\Local\Temp\ccSx45O2.s 			page 17


 886              		.cfi_endproc
 887              	.LFE64:
 888              		.size	funcArgs, .-funcArgs
 889 000a 00BFAFF3 		.section	.bss.slash.3767,"aw",%nobits
 889      0080
 890              		.set	.LANCHOR1,. + 0
 891              		.type	slash.3767, %object
 892              		.size	slash.3767, 1
 893              	slash.3767:
 894 0000 00       		.space	1
 895              		.section	.rodata.serial_cfg,"a",%progbits
 896              		.align	2
 897              		.set	.LANCHOR0,. + 0
 898              		.type	serial_cfg, %object
 899              		.size	serial_cfg, 12
 900              	serial_cfg:
 901 0000 00C20100 		.word	115200
 902 0004 0000     		.short	0
 903 0006 0040     		.short	16384
 904 0008 0003     		.short	768
 905 000a 0000     		.space	2
 906              		.section	.bss.out_index.3768,"aw",%nobits
 907              		.align	2
 908              		.set	.LANCHOR2,. + 0
 909              		.type	out_index.3768, %object
 910              		.size	out_index.3768, 4
 911              	out_index.3768:
 912 0000 00000000 		.space	4
 913              		.section	.rodata.funcs,"a",%progbits
 914              		.align	2
 915              		.set	.LANCHOR5,. + 0
 916              		.type	funcs, %object
 917              		.size	funcs, 48
 918              	funcs:
 919 0000 00000000 		.word	hardware_version
 920 0004 00000000 		.word	firmware_version
 921 0008 00000000 		.word	set_led
 922 000c 00000000 		.word	set_dac1
 923 0010 00000000 		.word	set_dac2
 924 0014 00000000 		.word	get_adc
 925 0018 00000000 		.word	set_osc_signals
 926 001c 00000000 		.word	set_osc_period
 927 0020 00000000 		.word	get_osc_data
 928 0024 00000000 		.word	sweep_dac1
 929 0028 00000000 		.word	sweep_dac2
 930 002c 00000000 		.word	sweep_both
 931              		.section	.bss.buffer,"aw",%nobits
 932              		.align	2
 933              		.set	.LANCHOR3,. + 0
 934              		.type	buffer, %object
 935              		.size	buffer, 32
 936              	buffer:
 937 0000 00000000 		.space	32
 937      00000000 
 937      00000000 
 937      00000000 
 937      00000000 
ARM GAS  C:\Users\z80\AppData\Local\Temp\ccSx45O2.s 			page 18


 938              		.section	.rodata.str1.4,"aMS",%progbits,1
 939              		.align	2
 940              	.LC0:
 941 0000 302E302E 		.ascii	"0.0.1\000"
 941      3100
 942 0006 0000     		.space	2
 943              	.LC1:
 944 0008 64696769 		.ascii	"digitizer-1.0.0\000"
 944      74697A65 
 944      722D312E 
 944      302E3000 
 945              		.section	.bss.args,"aw",%nobits
 946              		.align	2
 947              		.set	.LANCHOR4,. + 0
 948              		.type	args, %object
 949              		.size	args, 32
 950              	args:
 951 0000 00000000 		.space	32
 951      00000000 
 951      00000000 
 951      00000000 
 951      00000000 
 952              		.text
 953              	.Letext0:
 954              		.section	.debug_loc,"",%progbits
 955              	.Ldebug_loc0:
 956              	.LLST0:
 957 0000 00000000 		.4byte	.LFB79
 958 0004 12000000 		.4byte	.LCFI0
 959 0008 0200     		.2byte	0x2
 960 000a 7D       		.byte	0x7d
 961 000b 00       		.sleb128 0
 962 000c 12000000 		.4byte	.LCFI0
 963 0010 34000000 		.4byte	.LFE79
 964 0014 0200     		.2byte	0x2
 965 0016 7D       		.byte	0x7d
 966 0017 08       		.sleb128 8
 967 0018 00000000 		.4byte	0x0
 968 001c 00000000 		.4byte	0x0
 969              	.LLST1:
 970 0020 00000000 		.4byte	.LVL3
 971 0024 18000000 		.4byte	.LVL4
 972 0028 0100     		.2byte	0x1
 973 002a 50       		.byte	0x50
 974 002b 00000000 		.4byte	0x0
 975 002f 00000000 		.4byte	0x0
 976              	.LLST2:
 977 0033 00000000 		.4byte	.LFB80
 978 0037 02000000 		.4byte	.LCFI1
 979 003b 0200     		.2byte	0x2
 980 003d 7D       		.byte	0x7d
 981 003e 00       		.sleb128 0
 982 003f 02000000 		.4byte	.LCFI1
 983 0043 14000000 		.4byte	.LFE80
 984 0047 0200     		.2byte	0x2
 985 0049 7D       		.byte	0x7d
 986 004a 08       		.sleb128 8
ARM GAS  C:\Users\z80\AppData\Local\Temp\ccSx45O2.s 			page 19


 987 004b 00000000 		.4byte	0x0
 988 004f 00000000 		.4byte	0x0
 989              	.LLST3:
 990 0053 00000000 		.4byte	.LFB75
 991 0057 02000000 		.4byte	.LCFI2
 992 005b 0200     		.2byte	0x2
 993 005d 7D       		.byte	0x7d
 994 005e 00       		.sleb128 0
 995 005f 02000000 		.4byte	.LCFI2
 996 0063 52000000 		.4byte	.LFE75
 997 0067 0200     		.2byte	0x2
 998 0069 7D       		.byte	0x7d
 999 006a 10       		.sleb128 16
 1000 006b 00000000 		.4byte	0x0
 1001 006f 00000000 		.4byte	0x0
 1002              	.LLST4:
 1003 0073 00000000 		.4byte	.LVL5
 1004 0077 05000000 		.4byte	.LVL6-1
 1005 007b 0100     		.2byte	0x1
 1006 007d 50       		.byte	0x50
 1007 007e 00000000 		.4byte	0x0
 1008 0082 00000000 		.4byte	0x0
 1009              	.LLST5:
 1010 0086 38000000 		.4byte	.LVL15
 1011 008a 40000000 		.4byte	.LVL16
 1012 008e 0100     		.2byte	0x1
 1013 0090 50       		.byte	0x50
 1014 0091 40000000 		.4byte	.LVL16
 1015 0095 47000000 		.4byte	.LVL18-1
 1016 0099 0300     		.2byte	0x3
 1017 009b 73       		.byte	0x73
 1018 009c 7E       		.sleb128 -2
 1019 009d 9F       		.byte	0x9f
 1020 009e 00000000 		.4byte	0x0
 1021 00a2 00000000 		.4byte	0x0
 1022              	.LLST6:
 1023 00a6 38000000 		.4byte	.LVL15
 1024 00aa 40000000 		.4byte	.LVL16
 1025 00ae 0F00     		.2byte	0xf
 1026 00b0 70       		.byte	0x70
 1027 00b1 02       		.sleb128 2
 1028 00b2 23       		.byte	0x23
 1029 00b3 80808080 		.uleb128 0x80000000
 1029      08
 1030 00b8 0C       		.byte	0xc
 1031 00b9 01000080 		.4byte	0x80000001
 1032 00bd 2C       		.byte	0x2c
 1033 00be 9F       		.byte	0x9f
 1034 00bf 40000000 		.4byte	.LVL16
 1035 00c3 47000000 		.4byte	.LVL18-1
 1036 00c7 0F00     		.2byte	0xf
 1037 00c9 73       		.byte	0x73
 1038 00ca 00       		.sleb128 0
 1039 00cb 23       		.byte	0x23
 1040 00cc 80808080 		.uleb128 0x80000000
 1040      08
 1041 00d1 0C       		.byte	0xc
ARM GAS  C:\Users\z80\AppData\Local\Temp\ccSx45O2.s 			page 20


 1042 00d2 01000080 		.4byte	0x80000001
 1043 00d6 2C       		.byte	0x2c
 1044 00d7 9F       		.byte	0x9f
 1045 00d8 00000000 		.4byte	0x0
 1046 00dc 00000000 		.4byte	0x0
 1047              	.LLST7:
 1048 00e0 2C000000 		.4byte	.LVL13
 1049 00e4 30000000 		.4byte	.LVL14
 1050 00e8 0200     		.2byte	0x2
 1051 00ea 30       		.byte	0x30
 1052 00eb 9F       		.byte	0x9f
 1053 00ec 48000000 		.4byte	.LVL18
 1054 00f0 4C000000 		.4byte	.LVL19
 1055 00f4 0100     		.2byte	0x1
 1056 00f6 56       		.byte	0x56
 1057 00f7 00000000 		.4byte	0x0
 1058 00fb 00000000 		.4byte	0x0
 1059              	.LLST8:
 1060 00ff 0A000000 		.4byte	.LVL8
 1061 0103 11000000 		.4byte	.LVL10-1
 1062 0107 0100     		.2byte	0x1
 1063 0109 50       		.byte	0x50
 1064 010a 11000000 		.4byte	.LVL10-1
 1065 010e 52000000 		.4byte	.LFE75
 1066 0112 0100     		.2byte	0x1
 1067 0114 54       		.byte	0x54
 1068 0115 00000000 		.4byte	0x0
 1069 0119 00000000 		.4byte	0x0
 1070              	.LLST9:
 1071 011d 0E000000 		.4byte	.LVL9
 1072 0121 11000000 		.4byte	.LVL10-1
 1073 0125 0100     		.2byte	0x1
 1074 0127 53       		.byte	0x53
 1075 0128 00000000 		.4byte	0x0
 1076 012c 00000000 		.4byte	0x0
 1077              	.LLST10:
 1078 0130 2C000000 		.4byte	.LVL13
 1079 0134 37000000 		.4byte	.LVL15-1
 1080 0138 0100     		.2byte	0x1
 1081 013a 53       		.byte	0x53
 1082 013b 4C000000 		.4byte	.LVL19
 1083 013f 4F000000 		.4byte	.LVL20-1
 1084 0143 0100     		.2byte	0x1
 1085 0145 53       		.byte	0x53
 1086 0146 00000000 		.4byte	0x0
 1087 014a 00000000 		.4byte	0x0
 1088              	.LLST11:
 1089 014e 42000000 		.4byte	.LVL17
 1090 0152 47000000 		.4byte	.LVL18-1
 1091 0156 0100     		.2byte	0x1
 1092 0158 50       		.byte	0x50
 1093 0159 00000000 		.4byte	0x0
 1094 015d 00000000 		.4byte	0x0
 1095              	.LLST12:
 1096 0161 00000000 		.4byte	.LFB68
 1097 0165 02000000 		.4byte	.LCFI3
 1098 0169 0200     		.2byte	0x2
ARM GAS  C:\Users\z80\AppData\Local\Temp\ccSx45O2.s 			page 21


 1099 016b 7D       		.byte	0x7d
 1100 016c 00       		.sleb128 0
 1101 016d 02000000 		.4byte	.LCFI3
 1102 0171 06000000 		.4byte	.LCFI4
 1103 0175 0200     		.2byte	0x2
 1104 0177 7D       		.byte	0x7d
 1105 0178 0C       		.sleb128 12
 1106 0179 06000000 		.4byte	.LCFI4
 1107 017d 30000000 		.4byte	.LFE68
 1108 0181 0200     		.2byte	0x2
 1109 0183 7D       		.byte	0x7d
 1110 0184 18       		.sleb128 24
 1111 0185 00000000 		.4byte	0x0
 1112 0189 00000000 		.4byte	0x0
 1113              	.LLST13:
 1114 018d 00000000 		.4byte	.LVL21
 1115 0191 0C000000 		.4byte	.LVL22
 1116 0195 0100     		.2byte	0x1
 1117 0197 50       		.byte	0x50
 1118 0198 00000000 		.4byte	0x0
 1119 019c 00000000 		.4byte	0x0
 1120              	.LLST14:
 1121 01a0 16000000 		.4byte	.LVL23
 1122 01a4 18000000 		.4byte	.LVL24
 1123 01a8 0200     		.2byte	0x2
 1124 01aa 30       		.byte	0x30
 1125 01ab 9F       		.byte	0x9f
 1126 01ac 00000000 		.4byte	0x0
 1127 01b0 00000000 		.4byte	0x0
 1128              	.LLST15:
 1129 01b4 00000000 		.4byte	.LFB67
 1130 01b8 02000000 		.4byte	.LCFI5
 1131 01bc 0200     		.2byte	0x2
 1132 01be 7D       		.byte	0x7d
 1133 01bf 00       		.sleb128 0
 1134 01c0 02000000 		.4byte	.LCFI5
 1135 01c4 06000000 		.4byte	.LCFI6
 1136 01c8 0200     		.2byte	0x2
 1137 01ca 7D       		.byte	0x7d
 1138 01cb 0C       		.sleb128 12
 1139 01cc 06000000 		.4byte	.LCFI6
 1140 01d0 30000000 		.4byte	.LFE67
 1141 01d4 0200     		.2byte	0x2
 1142 01d6 7D       		.byte	0x7d
 1143 01d7 20       		.sleb128 32
 1144 01d8 00000000 		.4byte	0x0
 1145 01dc 00000000 		.4byte	0x0
 1146              	.LLST16:
 1147 01e0 00000000 		.4byte	.LVL25
 1148 01e4 0A000000 		.4byte	.LVL26
 1149 01e8 0100     		.2byte	0x1
 1150 01ea 50       		.byte	0x50
 1151 01eb 00000000 		.4byte	0x0
 1152 01ef 00000000 		.4byte	0x0
 1153              	.LLST17:
 1154 01f3 0E000000 		.4byte	.LVL27
 1155 01f7 16000000 		.4byte	.LVL28
ARM GAS  C:\Users\z80\AppData\Local\Temp\ccSx45O2.s 			page 22


 1156 01fb 0200     		.2byte	0x2
 1157 01fd 30       		.byte	0x30
 1158 01fe 9F       		.byte	0x9f
 1159 01ff 00000000 		.4byte	0x0
 1160 0203 00000000 		.4byte	0x0
 1161              	.LLST18:
 1162 0207 00000000 		.4byte	.LFB74
 1163 020b 02000000 		.4byte	.LCFI7
 1164 020f 0200     		.2byte	0x2
 1165 0211 7D       		.byte	0x7d
 1166 0212 00       		.sleb128 0
 1167 0213 02000000 		.4byte	.LCFI7
 1168 0217 18000000 		.4byte	.LFE74
 1169 021b 0200     		.2byte	0x2
 1170 021d 7D       		.byte	0x7d
 1171 021e 08       		.sleb128 8
 1172 021f 00000000 		.4byte	0x0
 1173 0223 00000000 		.4byte	0x0
 1174              	.LLST19:
 1175 0227 00000000 		.4byte	.LVL29
 1176 022b 08000000 		.4byte	.LVL31
 1177 022f 0100     		.2byte	0x1
 1178 0231 50       		.byte	0x50
 1179 0232 00000000 		.4byte	0x0
 1180 0236 00000000 		.4byte	0x0
 1181              	.LLST20:
 1182 023a 06000000 		.4byte	.LVL30
 1183 023e 0E000000 		.4byte	.LVL32
 1184 0242 0800     		.2byte	0x8
 1185 0244 73       		.byte	0x73
 1186 0245 00       		.sleb128 0
 1187 0246 38       		.byte	0x38
 1188 0247 24       		.byte	0x24
 1189 0248 72       		.byte	0x72
 1190 0249 00       		.sleb128 0
 1191 024a 22       		.byte	0x22
 1192 024b 9F       		.byte	0x9f
 1193 024c 0E000000 		.4byte	.LVL32
 1194 0250 12000000 		.4byte	.LVL33
 1195 0254 0800     		.2byte	0x8
 1196 0256 73       		.byte	0x73
 1197 0257 00       		.sleb128 0
 1198 0258 48       		.byte	0x48
 1199 0259 24       		.byte	0x24
 1200 025a 70       		.byte	0x70
 1201 025b 00       		.sleb128 0
 1202 025c 22       		.byte	0x22
 1203 025d 9F       		.byte	0x9f
 1204 025e 00000000 		.4byte	0x0
 1205 0262 00000000 		.4byte	0x0
 1206              	.LLST21:
 1207 0266 00000000 		.4byte	.LFB73
 1208 026a 02000000 		.4byte	.LCFI8
 1209 026e 0200     		.2byte	0x2
 1210 0270 7D       		.byte	0x7d
 1211 0271 00       		.sleb128 0
 1212 0272 02000000 		.4byte	.LCFI8
ARM GAS  C:\Users\z80\AppData\Local\Temp\ccSx45O2.s 			page 23


 1213 0276 0A000000 		.4byte	.LFE73
 1214 027a 0200     		.2byte	0x2
 1215 027c 7D       		.byte	0x7d
 1216 027d 08       		.sleb128 8
 1217 027e 00000000 		.4byte	0x0
 1218 0282 00000000 		.4byte	0x0
 1219              	.LLST22:
 1220 0286 00000000 		.4byte	.LVL34
 1221 028a 04000000 		.4byte	.LVL35
 1222 028e 0100     		.2byte	0x1
 1223 0290 50       		.byte	0x50
 1224 0291 00000000 		.4byte	0x0
 1225 0295 00000000 		.4byte	0x0
 1226              	.LLST23:
 1227 0299 00000000 		.4byte	.LVL34
 1228 029d 04000000 		.4byte	.LVL35
 1229 02a1 0200     		.2byte	0x2
 1230 02a3 70       		.byte	0x70
 1231 02a4 00       		.sleb128 0
 1232 02a5 00000000 		.4byte	0x0
 1233 02a9 00000000 		.4byte	0x0
 1234              	.LLST24:
 1235 02ad 00000000 		.4byte	.LFB72
 1236 02b1 02000000 		.4byte	.LCFI9
 1237 02b5 0200     		.2byte	0x2
 1238 02b7 7D       		.byte	0x7d
 1239 02b8 00       		.sleb128 0
 1240 02b9 02000000 		.4byte	.LCFI9
 1241 02bd 04000000 		.4byte	.LCFI10
 1242 02c1 0200     		.2byte	0x2
 1243 02c3 7D       		.byte	0x7d
 1244 02c4 0C       		.sleb128 12
 1245 02c5 04000000 		.4byte	.LCFI10
 1246 02c9 3E000000 		.4byte	.LFE72
 1247 02cd 0200     		.2byte	0x2
 1248 02cf 7D       		.byte	0x7d
 1249 02d0 20       		.sleb128 32
 1250 02d1 00000000 		.4byte	0x0
 1251 02d5 00000000 		.4byte	0x0
 1252              	.LLST25:
 1253 02d9 00000000 		.4byte	.LVL36
 1254 02dd 06000000 		.4byte	.LVL37
 1255 02e1 0100     		.2byte	0x1
 1256 02e3 50       		.byte	0x50
 1257 02e4 00000000 		.4byte	0x0
 1258 02e8 00000000 		.4byte	0x0
 1259              	.LLST26:
 1260 02ec 0A000000 		.4byte	.LVL38
 1261 02f0 0E000000 		.4byte	.LVL39
 1262 02f4 0200     		.2byte	0x2
 1263 02f6 30       		.byte	0x30
 1264 02f7 9F       		.byte	0x9f
 1265 02f8 00000000 		.4byte	0x0
 1266 02fc 00000000 		.4byte	0x0
 1267              	.LLST27:
 1268 0300 0E000000 		.4byte	.LVL39
 1269 0304 13000000 		.4byte	.LVL40-1
ARM GAS  C:\Users\z80\AppData\Local\Temp\ccSx45O2.s 			page 24


 1270 0308 0800     		.2byte	0x8
 1271 030a 91       		.byte	0x91
 1272 030b 00       		.sleb128 0
 1273 030c 74       		.byte	0x74
 1274 030d 00       		.sleb128 0
 1275 030e 22       		.byte	0x22
 1276 030f 09       		.byte	0x9
 1277 0310 E0       		.byte	0xe0
 1278 0311 22       		.byte	0x22
 1279 0312 00000000 		.4byte	0x0
 1280 0316 00000000 		.4byte	0x0
 1281              	.LLST28:
 1282 031a 00000000 		.4byte	.LFB71
 1283 031e 02000000 		.4byte	.LCFI11
 1284 0322 0200     		.2byte	0x2
 1285 0324 7D       		.byte	0x7d
 1286 0325 00       		.sleb128 0
 1287 0326 02000000 		.4byte	.LCFI11
 1288 032a 1A000000 		.4byte	.LFE71
 1289 032e 0200     		.2byte	0x2
 1290 0330 7D       		.byte	0x7d
 1291 0331 08       		.sleb128 8
 1292 0332 00000000 		.4byte	0x0
 1293 0336 00000000 		.4byte	0x0
 1294              	.LLST29:
 1295 033a 00000000 		.4byte	.LVL41
 1296 033e 10000000 		.4byte	.LVL42
 1297 0342 0100     		.2byte	0x1
 1298 0344 50       		.byte	0x50
 1299 0345 00000000 		.4byte	0x0
 1300 0349 00000000 		.4byte	0x0
 1301              	.LLST30:
 1302 034d 00000000 		.4byte	.LFB70
 1303 0351 02000000 		.4byte	.LCFI12
 1304 0355 0200     		.2byte	0x2
 1305 0357 7D       		.byte	0x7d
 1306 0358 00       		.sleb128 0
 1307 0359 02000000 		.4byte	.LCFI12
 1308 035d 1A000000 		.4byte	.LFE70
 1309 0361 0200     		.2byte	0x2
 1310 0363 7D       		.byte	0x7d
 1311 0364 08       		.sleb128 8
 1312 0365 00000000 		.4byte	0x0
 1313 0369 00000000 		.4byte	0x0
 1314              	.LLST31:
 1315 036d 00000000 		.4byte	.LVL43
 1316 0371 10000000 		.4byte	.LVL44
 1317 0375 0100     		.2byte	0x1
 1318 0377 50       		.byte	0x50
 1319 0378 00000000 		.4byte	0x0
 1320 037c 00000000 		.4byte	0x0
 1321              	.LLST32:
 1322 0380 00000000 		.4byte	.LFB69
 1323 0384 02000000 		.4byte	.LCFI13
 1324 0388 0200     		.2byte	0x2
 1325 038a 7D       		.byte	0x7d
 1326 038b 00       		.sleb128 0
ARM GAS  C:\Users\z80\AppData\Local\Temp\ccSx45O2.s 			page 25


 1327 038c 02000000 		.4byte	.LCFI13
 1328 0390 0A000000 		.4byte	.LFE69
 1329 0394 0200     		.2byte	0x2
 1330 0396 7D       		.byte	0x7d
 1331 0397 08       		.sleb128 8
 1332 0398 00000000 		.4byte	0x0
 1333 039c 00000000 		.4byte	0x0
 1334              	.LLST33:
 1335 03a0 00000000 		.4byte	.LVL45
 1336 03a4 04000000 		.4byte	.LVL46
 1337 03a8 0100     		.2byte	0x1
 1338 03aa 50       		.byte	0x50
 1339 03ab 00000000 		.4byte	0x0
 1340 03af 00000000 		.4byte	0x0
 1341              	.LLST34:
 1342 03b3 00000000 		.4byte	.LFB62
 1343 03b7 02000000 		.4byte	.LCFI14
 1344 03bb 0200     		.2byte	0x2
 1345 03bd 7D       		.byte	0x7d
 1346 03be 00       		.sleb128 0
 1347 03bf 02000000 		.4byte	.LCFI14
 1348 03c3 50000000 		.4byte	.LFE62
 1349 03c7 0200     		.2byte	0x2
 1350 03c9 7D       		.byte	0x7d
 1351 03ca 08       		.sleb128 8
 1352 03cb 00000000 		.4byte	0x0
 1353 03cf 00000000 		.4byte	0x0
 1354              	.LLST35:
 1355 03d3 00000000 		.4byte	.LFB63
 1356 03d7 02000000 		.4byte	.LCFI15
 1357 03db 0200     		.2byte	0x2
 1358 03dd 7D       		.byte	0x7d
 1359 03de 00       		.sleb128 0
 1360 03df 02000000 		.4byte	.LCFI15
 1361 03e3 C4000000 		.4byte	.LFE63
 1362 03e7 0200     		.2byte	0x2
 1363 03e9 7D       		.byte	0x7d
 1364 03ea 08       		.sleb128 8
 1365 03eb 00000000 		.4byte	0x0
 1366 03ef 00000000 		.4byte	0x0
 1367              	.LLST36:
 1368 03f3 0C000000 		.4byte	.LVL47
 1369 03f7 16000000 		.4byte	.LVL48
 1370 03fb 0100     		.2byte	0x1
 1371 03fd 50       		.byte	0x50
 1372 03fe 16000000 		.4byte	.LVL48
 1373 0402 18000000 		.4byte	.LVL49
 1374 0406 0300     		.2byte	0x3
 1375 0408 73       		.byte	0x73
 1376 0409 7E       		.sleb128 -2
 1377 040a 9F       		.byte	0x9f
 1378 040b 00000000 		.4byte	0x0
 1379 040f 00000000 		.4byte	0x0
 1380              	.LLST37:
 1381 0413 0C000000 		.4byte	.LVL47
 1382 0417 16000000 		.4byte	.LVL48
 1383 041b 0F00     		.2byte	0xf
ARM GAS  C:\Users\z80\AppData\Local\Temp\ccSx45O2.s 			page 26


 1384 041d 70       		.byte	0x70
 1385 041e 02       		.sleb128 2
 1386 041f 23       		.byte	0x23
 1387 0420 80808080 		.uleb128 0x80000000
 1387      08
 1388 0425 0C       		.byte	0xc
 1389 0426 01000080 		.4byte	0x80000001
 1390 042a 2C       		.byte	0x2c
 1391 042b 9F       		.byte	0x9f
 1392 042c 16000000 		.4byte	.LVL48
 1393 0430 18000000 		.4byte	.LVL49
 1394 0434 0F00     		.2byte	0xf
 1395 0436 73       		.byte	0x73
 1396 0437 00       		.sleb128 0
 1397 0438 23       		.byte	0x23
 1398 0439 80808080 		.uleb128 0x80000000
 1398      08
 1399 043e 0C       		.byte	0xc
 1400 043f 01000080 		.4byte	0x80000001
 1401 0443 2C       		.byte	0x2c
 1402 0444 9F       		.byte	0x9f
 1403 0445 00000000 		.4byte	0x0
 1404 0449 00000000 		.4byte	0x0
 1405              	.LLST38:
 1406 044d 16000000 		.4byte	.LVL48
 1407 0451 24000000 		.4byte	.LVL50
 1408 0455 0100     		.2byte	0x1
 1409 0457 50       		.byte	0x50
 1410 0458 32000000 		.4byte	.LVL53
 1411 045c 66000000 		.4byte	.LVL54
 1412 0460 0100     		.2byte	0x1
 1413 0462 50       		.byte	0x50
 1414 0463 80000000 		.4byte	.LVL56
 1415 0467 92000000 		.4byte	.LVL57
 1416 046b 0100     		.2byte	0x1
 1417 046d 50       		.byte	0x50
 1418 046e 00000000 		.4byte	0x0
 1419 0472 00000000 		.4byte	0x0
 1420              	.LLST39:
 1421 0476 24000000 		.4byte	.LVL50
 1422 047a 2E000000 		.4byte	.LVL51
 1423 047e 0500     		.2byte	0x5
 1424 0480 03       		.byte	0x3
 1425 0481 00000000 		.4byte	out_index.3768
 1426 0485 66000000 		.4byte	.LVL54
 1427 0489 70000000 		.4byte	.LVL55
 1428 048d 0100     		.2byte	0x1
 1429 048f 50       		.byte	0x50
 1430 0490 70000000 		.4byte	.LVL55
 1431 0494 80000000 		.4byte	.LVL56
 1432 0498 0500     		.2byte	0x5
 1433 049a 03       		.byte	0x3
 1434 049b 00000000 		.4byte	out_index.3768
 1435 049f 92000000 		.4byte	.LVL57
 1436 04a3 A2000000 		.4byte	.LVL61
 1437 04a7 0100     		.2byte	0x1
 1438 04a9 50       		.byte	0x50
ARM GAS  C:\Users\z80\AppData\Local\Temp\ccSx45O2.s 			page 27


 1439 04aa A2000000 		.4byte	.LVL61
 1440 04ae A3000000 		.4byte	.LVL62-1
 1441 04b2 0500     		.2byte	0x5
 1442 04b4 03       		.byte	0x3
 1443 04b5 00000000 		.4byte	out_index.3768
 1444 04b9 00000000 		.4byte	0x0
 1445 04bd 00000000 		.4byte	0x0
 1446              	.LLST40:
 1447 04c1 24000000 		.4byte	.LVL50
 1448 04c5 30000000 		.4byte	.LVL52
 1449 04c9 0600     		.2byte	0x6
 1450 04cb 03       		.byte	0x3
 1451 04cc 00000000 		.4byte	buffer
 1452 04d0 9F       		.byte	0x9f
 1453 04d1 66000000 		.4byte	.LVL54
 1454 04d5 80000000 		.4byte	.LVL56
 1455 04d9 0600     		.2byte	0x6
 1456 04db 03       		.byte	0x3
 1457 04dc 00000000 		.4byte	buffer
 1458 04e0 9F       		.byte	0x9f
 1459 04e1 92000000 		.4byte	.LVL57
 1460 04e5 C4000000 		.4byte	.LFE63
 1461 04e9 0600     		.2byte	0x6
 1462 04eb 03       		.byte	0x3
 1463 04ec 00000000 		.4byte	buffer
 1464 04f0 9F       		.byte	0x9f
 1465 04f1 00000000 		.4byte	0x0
 1466 04f5 00000000 		.4byte	0x0
 1467              	.LLST41:
 1468 04f9 66000000 		.4byte	.LVL54
 1469 04fd 70000000 		.4byte	.LVL55
 1470 0501 0200     		.2byte	0x2
 1471 0503 30       		.byte	0x30
 1472 0504 9F       		.byte	0x9f
 1473 0505 00000000 		.4byte	0x0
 1474 0509 00000000 		.4byte	0x0
 1475              	.LLST42:
 1476 050d 24000000 		.4byte	.LVL50
 1477 0511 2E000000 		.4byte	.LVL51
 1478 0515 0500     		.2byte	0x5
 1479 0517 03       		.byte	0x3
 1480 0518 00000000 		.4byte	buffer
 1481 051c 66000000 		.4byte	.LVL54
 1482 0520 80000000 		.4byte	.LVL56
 1483 0524 0500     		.2byte	0x5
 1484 0526 03       		.byte	0x3
 1485 0527 00000000 		.4byte	buffer
 1486 052b 92000000 		.4byte	.LVL57
 1487 052f A3000000 		.4byte	.LVL62-1
 1488 0533 0500     		.2byte	0x5
 1489 0535 03       		.byte	0x3
 1490 0536 00000000 		.4byte	buffer
 1491 053a 00000000 		.4byte	0x0
 1492 053e 00000000 		.4byte	0x0
 1493              	.LLST43:
 1494 0542 24000000 		.4byte	.LVL50
 1495 0546 30000000 		.4byte	.LVL52
ARM GAS  C:\Users\z80\AppData\Local\Temp\ccSx45O2.s 			page 28


 1496 054a 0600     		.2byte	0x6
 1497 054c 03       		.byte	0x3
 1498 054d 01000000 		.4byte	buffer+1
 1499 0551 9F       		.byte	0x9f
 1500 0552 66000000 		.4byte	.LVL54
 1501 0556 80000000 		.4byte	.LVL56
 1502 055a 0600     		.2byte	0x6
 1503 055c 03       		.byte	0x3
 1504 055d 01000000 		.4byte	buffer+1
 1505 0561 9F       		.byte	0x9f
 1506 0562 92000000 		.4byte	.LVL57
 1507 0566 C4000000 		.4byte	.LFE63
 1508 056a 0600     		.2byte	0x6
 1509 056c 03       		.byte	0x3
 1510 056d 01000000 		.4byte	buffer+1
 1511 0571 9F       		.byte	0x9f
 1512 0572 00000000 		.4byte	0x0
 1513 0576 00000000 		.4byte	0x0
 1514              	.LLST44:
 1515 057a 94000000 		.4byte	.LVL58
 1516 057e 9C000000 		.4byte	.LVL59
 1517 0582 0100     		.2byte	0x1
 1518 0584 53       		.byte	0x53
 1519 0585 9C000000 		.4byte	.LVL59
 1520 0589 A0000000 		.4byte	.LVL60
 1521 058d 0100     		.2byte	0x1
 1522 058f 53       		.byte	0x53
 1523 0590 00000000 		.4byte	0x0
 1524 0594 00000000 		.4byte	0x0
 1525              		.file 2 "c:\\programs\\yagarto\\bin\\../lib/gcc/arm-none-eabi/4.5.0/include/stddef.h"
 1526              		.file 3 "c:/programs/yagarto/lib/gcc/../../arm-none-eabi/sys-include/stdint.h"
 1527              		.file 4 "../chibios_2.4.x/os/ports/GCC/ARMCMx/chtypes.h"
 1528              		.file 5 "../chibios_2.4.x/os/kernel/include/chlists.h"
 1529              		.file 6 "../chibios_2.4.x/os/kernel/include/chthreads.h"
 1530              		.file 7 "../chibios_2.4.x/os/ports/GCC/ARMCMx/chcore_v7m.h"
 1531              		.file 8 "../chibios_2.4.x/os/kernel/include/chmtx.h"
 1532              		.file 9 "../chibios_2.4.x/os/kernel/include/chevents.h"
 1533              		.file 10 "../chibios_2.4.x/os/kernel/include/chqueues.h"
 1534              		.file 11 "../chibios_2.4.x/os/kernel/include/chioch.h"
 1535              		.file 12 "./src/cpu_io.h"
 1536              		.file 13 "../chibios_2.4.x/os/hal/platforms/STM32F1xx/stm32f10x.h"
 1537              		.file 14 "../chibios_2.4.x/os/hal/platforms/STM32/GPIOv1/pal_lld.h"
 1538              		.file 15 "../chibios_2.4.x/os/hal/include/serial.h"
 1539              		.file 16 "../chibios_2.4.x/os/hal/platforms/STM32/serial_lld.h"
 1540              		.file 17 "../chibios_2.4.x/os/ports/common/ARMCMx/CMSIS/include/core_cm3.h"
 1541              		.section	.debug_info
 1542 0000 150F0000 		.4byte	0xf15
 1543 0004 0200     		.2byte	0x2
 1544 0006 00000000 		.4byte	.Ldebug_abbrev0
 1545 000a 04       		.byte	0x4
 1546 000b 01       		.uleb128 0x1
 1547 000c 4F050000 		.4byte	.LASF141
 1548 0010 01       		.byte	0x1
 1549 0011 AA020000 		.4byte	.LASF142
 1550 0015 FD000000 		.4byte	.LASF143
 1551 0019 00000000 		.4byte	0x0
 1552 001d 00000000 		.4byte	0x0
ARM GAS  C:\Users\z80\AppData\Local\Temp\ccSx45O2.s 			page 29


 1553 0021 E8000000 		.4byte	.Ldebug_ranges0+0xe8
 1554 0025 00000000 		.4byte	.Ldebug_line0
 1555 0029 02       		.uleb128 0x2
 1556 002a 04       		.byte	0x4
 1557 002b 05       		.byte	0x5
 1558 002c 696E7400 		.ascii	"int\000"
 1559 0030 03       		.uleb128 0x3
 1560 0031 12000000 		.4byte	.LASF2
 1561 0035 02       		.byte	0x2
 1562 0036 D3       		.byte	0xd3
 1563 0037 3B000000 		.4byte	0x3b
 1564 003b 04       		.uleb128 0x4
 1565 003c 04       		.byte	0x4
 1566 003d 07       		.byte	0x7
 1567 003e 96010000 		.4byte	.LASF0
 1568 0042 04       		.uleb128 0x4
 1569 0043 01       		.byte	0x1
 1570 0044 06       		.byte	0x6
 1571 0045 C8000000 		.4byte	.LASF1
 1572 0049 03       		.uleb128 0x3
 1573 004a 28050000 		.4byte	.LASF3
 1574 004e 03       		.byte	0x3
 1575 004f 2A       		.byte	0x2a
 1576 0050 54000000 		.4byte	0x54
 1577 0054 04       		.uleb128 0x4
 1578 0055 01       		.byte	0x1
 1579 0056 08       		.byte	0x8
 1580 0057 A4030000 		.4byte	.LASF4
 1581 005b 04       		.uleb128 0x4
 1582 005c 02       		.byte	0x2
 1583 005d 05       		.byte	0x5
 1584 005e DB030000 		.4byte	.LASF5
 1585 0062 03       		.uleb128 0x3
 1586 0063 A3010000 		.4byte	.LASF6
 1587 0067 03       		.byte	0x3
 1588 0068 36       		.byte	0x36
 1589 0069 6D000000 		.4byte	0x6d
 1590 006d 04       		.uleb128 0x4
 1591 006e 02       		.byte	0x2
 1592 006f 07       		.byte	0x7
 1593 0070 1A020000 		.4byte	.LASF7
 1594 0074 03       		.uleb128 0x3
 1595 0075 9C030000 		.4byte	.LASF8
 1596 0079 03       		.byte	0x3
 1597 007a 4F       		.byte	0x4f
 1598 007b 7F000000 		.4byte	0x7f
 1599 007f 04       		.uleb128 0x4
 1600 0080 04       		.byte	0x4
 1601 0081 05       		.byte	0x5
 1602 0082 30010000 		.4byte	.LASF9
 1603 0086 03       		.uleb128 0x3
 1604 0087 43040000 		.4byte	.LASF10
 1605 008b 03       		.byte	0x3
 1606 008c 50       		.byte	0x50
 1607 008d 91000000 		.4byte	0x91
 1608 0091 04       		.uleb128 0x4
 1609 0092 04       		.byte	0x4
ARM GAS  C:\Users\z80\AppData\Local\Temp\ccSx45O2.s 			page 30


 1610 0093 07       		.byte	0x7
 1611 0094 64040000 		.4byte	.LASF11
 1612 0098 04       		.uleb128 0x4
 1613 0099 08       		.byte	0x8
 1614 009a 05       		.byte	0x5
 1615 009b BA000000 		.4byte	.LASF12
 1616 009f 03       		.uleb128 0x3
 1617 00a0 20000000 		.4byte	.LASF13
 1618 00a4 03       		.byte	0x3
 1619 00a5 78       		.byte	0x78
 1620 00a6 AA000000 		.4byte	0xaa
 1621 00aa 04       		.uleb128 0x4
 1622 00ab 08       		.byte	0x8
 1623 00ac 07       		.byte	0x7
 1624 00ad 5C000000 		.4byte	.LASF14
 1625 00b1 03       		.uleb128 0x3
 1626 00b2 4E000000 		.4byte	.LASF15
 1627 00b6 03       		.byte	0x3
 1628 00b7 A6       		.byte	0xa6
 1629 00b8 3B000000 		.4byte	0x3b
 1630 00bc 03       		.uleb128 0x3
 1631 00bd 9C000000 		.4byte	.LASF16
 1632 00c1 04       		.byte	0x4
 1633 00c2 2E       		.byte	0x2e
 1634 00c3 74000000 		.4byte	0x74
 1635 00c7 03       		.uleb128 0x3
 1636 00c8 75020000 		.4byte	.LASF17
 1637 00cc 04       		.byte	0x4
 1638 00cd 2F       		.byte	0x2f
 1639 00ce 49000000 		.4byte	0x49
 1640 00d2 03       		.uleb128 0x3
 1641 00d3 39010000 		.4byte	.LASF18
 1642 00d7 04       		.byte	0x4
 1643 00d8 30       		.byte	0x30
 1644 00d9 49000000 		.4byte	0x49
 1645 00dd 03       		.uleb128 0x3
 1646 00de 0C020000 		.4byte	.LASF19
 1647 00e2 04       		.byte	0x4
 1648 00e3 32       		.byte	0x32
 1649 00e4 86000000 		.4byte	0x86
 1650 00e8 03       		.uleb128 0x3
 1651 00e9 D2040000 		.4byte	.LASF20
 1652 00ed 04       		.byte	0x4
 1653 00ee 33       		.byte	0x33
 1654 00ef 74000000 		.4byte	0x74
 1655 00f3 03       		.uleb128 0x3
 1656 00f4 89020000 		.4byte	.LASF21
 1657 00f8 04       		.byte	0x4
 1658 00f9 35       		.byte	0x35
 1659 00fa 86000000 		.4byte	0x86
 1660 00fe 03       		.uleb128 0x3
 1661 00ff A0040000 		.4byte	.LASF22
 1662 0103 04       		.byte	0x4
 1663 0104 36       		.byte	0x36
 1664 0105 86000000 		.4byte	0x86
 1665 0109 03       		.uleb128 0x3
 1666 010a 13040000 		.4byte	.LASF23
ARM GAS  C:\Users\z80\AppData\Local\Temp\ccSx45O2.s 			page 31


 1667 010e 05       		.byte	0x5
 1668 010f 2A       		.byte	0x2a
 1669 0110 14010000 		.4byte	0x114
 1670 0114 05       		.uleb128 0x5
 1671 0115 13040000 		.4byte	.LASF23
 1672 0119 48       		.byte	0x48
 1673 011a 06       		.byte	0x6
 1674 011b 5E       		.byte	0x5e
 1675 011c 1D020000 		.4byte	0x21d
 1676 0120 06       		.uleb128 0x6
 1677 0121 FC030000 		.4byte	.LASF24
 1678 0125 06       		.byte	0x6
 1679 0126 5F       		.byte	0x5f
 1680 0127 42020000 		.4byte	0x242
 1681 012b 02       		.byte	0x2
 1682 012c 23       		.byte	0x23
 1683 012d 00       		.uleb128 0x0
 1684 012e 06       		.uleb128 0x6
 1685 012f 72030000 		.4byte	.LASF25
 1686 0133 06       		.byte	0x6
 1687 0134 61       		.byte	0x61
 1688 0135 42020000 		.4byte	0x242
 1689 0139 02       		.byte	0x2
 1690 013a 23       		.byte	0x23
 1691 013b 04       		.uleb128 0x4
 1692 013c 06       		.uleb128 0x6
 1693 013d A3000000 		.4byte	.LASF26
 1694 0141 06       		.byte	0x6
 1695 0142 63       		.byte	0x63
 1696 0143 DD000000 		.4byte	0xdd
 1697 0147 02       		.byte	0x2
 1698 0148 23       		.byte	0x23
 1699 0149 08       		.uleb128 0x8
 1700 014a 06       		.uleb128 0x6
 1701 014b 98050000 		.4byte	.LASF27
 1702 014f 06       		.byte	0x6
 1703 0150 64       		.byte	0x64
 1704 0151 1A030000 		.4byte	0x31a
 1705 0155 02       		.byte	0x2
 1706 0156 23       		.byte	0x23
 1707 0157 0C       		.uleb128 0xc
 1708 0158 06       		.uleb128 0x6
 1709 0159 53010000 		.4byte	.LASF28
 1710 015d 06       		.byte	0x6
 1711 015e 66       		.byte	0x66
 1712 015f 42020000 		.4byte	0x242
 1713 0163 02       		.byte	0x2
 1714 0164 23       		.byte	0x23
 1715 0165 10       		.uleb128 0x10
 1716 0166 06       		.uleb128 0x6
 1717 0167 FC020000 		.4byte	.LASF29
 1718 016b 06       		.byte	0x6
 1719 016c 67       		.byte	0x67
 1720 016d 42020000 		.4byte	0x242
 1721 0171 02       		.byte	0x2
 1722 0172 23       		.byte	0x23
 1723 0173 14       		.uleb128 0x14
ARM GAS  C:\Users\z80\AppData\Local\Temp\ccSx45O2.s 			page 32


 1724 0174 06       		.uleb128 0x6
 1725 0175 02050000 		.4byte	.LASF30
 1726 0179 06       		.byte	0x6
 1727 017a 6E       		.byte	0x6e
 1728 017b 35040000 		.4byte	0x435
 1729 017f 02       		.byte	0x2
 1730 0180 23       		.byte	0x23
 1731 0181 18       		.uleb128 0x18
 1732 0182 06       		.uleb128 0x6
 1733 0183 1B030000 		.4byte	.LASF31
 1734 0187 06       		.byte	0x6
 1735 0188 74       		.byte	0x74
 1736 0189 47040000 		.4byte	0x447
 1737 018d 02       		.byte	0x2
 1738 018e 23       		.byte	0x23
 1739 018f 1C       		.uleb128 0x1c
 1740 0190 06       		.uleb128 0x6
 1741 0191 C9030000 		.4byte	.LASF32
 1742 0195 06       		.byte	0x6
 1743 0196 79       		.byte	0x79
 1744 0197 D2000000 		.4byte	0xd2
 1745 019b 02       		.byte	0x2
 1746 019c 23       		.byte	0x23
 1747 019d 20       		.uleb128 0x20
 1748 019e 06       		.uleb128 0x6
 1749 019f 03040000 		.4byte	.LASF33
 1750 01a3 06       		.byte	0x6
 1751 01a4 7D       		.byte	0x7d
 1752 01a5 C7000000 		.4byte	0xc7
 1753 01a9 02       		.byte	0x2
 1754 01aa 23       		.byte	0x23
 1755 01ab 21       		.uleb128 0x21
 1756 01ac 06       		.uleb128 0x6
 1757 01ad BC010000 		.4byte	.LASF34
 1758 01b1 06       		.byte	0x6
 1759 01b2 89       		.byte	0x89
 1760 01b3 45030000 		.4byte	0x345
 1761 01b7 02       		.byte	0x2
 1762 01b8 23       		.byte	0x23
 1763 01b9 24       		.uleb128 0x24
 1764 01ba 07       		.uleb128 0x7
 1765 01bb 705F7500 		.ascii	"p_u\000"
 1766 01bf 06       		.byte	0x6
 1767 01c0 AE       		.byte	0xae
 1768 01c1 00040000 		.4byte	0x400
 1769 01c5 02       		.byte	0x2
 1770 01c6 23       		.byte	0x23
 1771 01c7 28       		.uleb128 0x28
 1772 01c8 06       		.uleb128 0x6
 1773 01c9 9E050000 		.4byte	.LASF35
 1774 01cd 06       		.byte	0x6
 1775 01ce B3       		.byte	0xb3
 1776 01cf 6A020000 		.4byte	0x26a
 1777 01d3 02       		.byte	0x2
 1778 01d4 23       		.byte	0x23
 1779 01d5 2C       		.uleb128 0x2c
 1780 01d6 06       		.uleb128 0x6
ARM GAS  C:\Users\z80\AppData\Local\Temp\ccSx45O2.s 			page 33


 1781 01d7 DB010000 		.4byte	.LASF36
 1782 01db 06       		.byte	0x6
 1783 01dc B9       		.byte	0xb9
 1784 01dd 48020000 		.4byte	0x248
 1785 01e1 02       		.byte	0x2
 1786 01e2 23       		.byte	0x23
 1787 01e3 30       		.uleb128 0x30
 1788 01e4 06       		.uleb128 0x6
 1789 01e5 1A050000 		.4byte	.LASF37
 1790 01e9 06       		.byte	0x6
 1791 01ea BD       		.byte	0xbd
 1792 01eb E8000000 		.4byte	0xe8
 1793 01ef 02       		.byte	0x2
 1794 01f0 23       		.byte	0x23
 1795 01f1 38       		.uleb128 0x38
 1796 01f2 06       		.uleb128 0x6
 1797 01f3 1A040000 		.4byte	.LASF38
 1798 01f7 06       		.byte	0x6
 1799 01f8 C3       		.byte	0xc3
 1800 01f9 F3000000 		.4byte	0xf3
 1801 01fd 02       		.byte	0x2
 1802 01fe 23       		.byte	0x23
 1803 01ff 3C       		.uleb128 0x3c
 1804 0200 06       		.uleb128 0x6
 1805 0201 D1030000 		.4byte	.LASF39
 1806 0205 06       		.byte	0x6
 1807 0206 CA       		.byte	0xca
 1808 0207 4D040000 		.4byte	0x44d
 1809 020b 02       		.byte	0x2
 1810 020c 23       		.byte	0x23
 1811 020d 40       		.uleb128 0x40
 1812 020e 06       		.uleb128 0x6
 1813 020f AA040000 		.4byte	.LASF40
 1814 0213 06       		.byte	0x6
 1815 0214 CE       		.byte	0xce
 1816 0215 DD000000 		.4byte	0xdd
 1817 0219 02       		.byte	0x2
 1818 021a 23       		.byte	0x23
 1819 021b 44       		.uleb128 0x44
 1820 021c 00       		.byte	0x0
 1821 021d 08       		.uleb128 0x8
 1822 021e 08       		.byte	0x8
 1823 021f 05       		.byte	0x5
 1824 0220 61       		.byte	0x61
 1825 0221 42020000 		.4byte	0x242
 1826 0225 06       		.uleb128 0x6
 1827 0226 FC030000 		.4byte	.LASF24
 1828 022a 05       		.byte	0x5
 1829 022b 62       		.byte	0x62
 1830 022c 42020000 		.4byte	0x242
 1831 0230 02       		.byte	0x2
 1832 0231 23       		.byte	0x23
 1833 0232 00       		.uleb128 0x0
 1834 0233 06       		.uleb128 0x6
 1835 0234 72030000 		.4byte	.LASF25
 1836 0238 05       		.byte	0x5
 1837 0239 64       		.byte	0x64
ARM GAS  C:\Users\z80\AppData\Local\Temp\ccSx45O2.s 			page 34


 1838 023a 42020000 		.4byte	0x242
 1839 023e 02       		.byte	0x2
 1840 023f 23       		.byte	0x23
 1841 0240 04       		.uleb128 0x4
 1842 0241 00       		.byte	0x0
 1843 0242 09       		.uleb128 0x9
 1844 0243 04       		.byte	0x4
 1845 0244 09010000 		.4byte	0x109
 1846 0248 03       		.uleb128 0x3
 1847 0249 0E030000 		.4byte	.LASF41
 1848 024d 05       		.byte	0x5
 1849 024e 66       		.byte	0x66
 1850 024f 1D020000 		.4byte	0x21d
 1851 0253 08       		.uleb128 0x8
 1852 0254 04       		.byte	0x4
 1853 0255 05       		.byte	0x5
 1854 0256 6B       		.byte	0x6b
 1855 0257 6A020000 		.4byte	0x26a
 1856 025b 06       		.uleb128 0x6
 1857 025c FC030000 		.4byte	.LASF24
 1858 0260 05       		.byte	0x5
 1859 0261 6D       		.byte	0x6d
 1860 0262 42020000 		.4byte	0x242
 1861 0266 02       		.byte	0x2
 1862 0267 23       		.byte	0x23
 1863 0268 00       		.uleb128 0x0
 1864 0269 00       		.byte	0x0
 1865 026a 03       		.uleb128 0x3
 1866 026b 7D020000 		.4byte	.LASF42
 1867 026f 05       		.byte	0x5
 1868 0270 70       		.byte	0x70
 1869 0271 53020000 		.4byte	0x253
 1870 0275 03       		.uleb128 0x3
 1871 0276 76010000 		.4byte	.LASF43
 1872 027a 07       		.byte	0x7
 1873 027b D7       		.byte	0xd7
 1874 027c 80020000 		.4byte	0x280
 1875 0280 0A       		.uleb128 0xa
 1876 0281 04       		.byte	0x4
 1877 0282 03       		.uleb128 0x3
 1878 0283 C6020000 		.4byte	.LASF44
 1879 0287 07       		.byte	0x7
 1880 0288 DD       		.byte	0xdd
 1881 0289 9F000000 		.4byte	0x9f
 1882 028d 05       		.uleb128 0x5
 1883 028e D8040000 		.4byte	.LASF45
 1884 0292 24       		.byte	0x24
 1885 0293 07       		.byte	0x7
 1886 0294 FE       		.byte	0xfe
 1887 0295 1A030000 		.4byte	0x31a
 1888 0299 0B       		.uleb128 0xb
 1889 029a 723400   		.ascii	"r4\000"
 1890 029d 07       		.byte	0x7
 1891 029e 1101     		.2byte	0x111
 1892 02a0 75020000 		.4byte	0x275
 1893 02a4 02       		.byte	0x2
 1894 02a5 23       		.byte	0x23
ARM GAS  C:\Users\z80\AppData\Local\Temp\ccSx45O2.s 			page 35


 1895 02a6 00       		.uleb128 0x0
 1896 02a7 0B       		.uleb128 0xb
 1897 02a8 723500   		.ascii	"r5\000"
 1898 02ab 07       		.byte	0x7
 1899 02ac 1201     		.2byte	0x112
 1900 02ae 75020000 		.4byte	0x275
 1901 02b2 02       		.byte	0x2
 1902 02b3 23       		.byte	0x23
 1903 02b4 04       		.uleb128 0x4
 1904 02b5 0B       		.uleb128 0xb
 1905 02b6 723600   		.ascii	"r6\000"
 1906 02b9 07       		.byte	0x7
 1907 02ba 1301     		.2byte	0x113
 1908 02bc 75020000 		.4byte	0x275
 1909 02c0 02       		.byte	0x2
 1910 02c1 23       		.byte	0x23
 1911 02c2 08       		.uleb128 0x8
 1912 02c3 0B       		.uleb128 0xb
 1913 02c4 723700   		.ascii	"r7\000"
 1914 02c7 07       		.byte	0x7
 1915 02c8 1401     		.2byte	0x114
 1916 02ca 75020000 		.4byte	0x275
 1917 02ce 02       		.byte	0x2
 1918 02cf 23       		.byte	0x23
 1919 02d0 0C       		.uleb128 0xc
 1920 02d1 0B       		.uleb128 0xb
 1921 02d2 723800   		.ascii	"r8\000"
 1922 02d5 07       		.byte	0x7
 1923 02d6 1501     		.2byte	0x115
 1924 02d8 75020000 		.4byte	0x275
 1925 02dc 02       		.byte	0x2
 1926 02dd 23       		.byte	0x23
 1927 02de 10       		.uleb128 0x10
 1928 02df 0B       		.uleb128 0xb
 1929 02e0 723900   		.ascii	"r9\000"
 1930 02e3 07       		.byte	0x7
 1931 02e4 1601     		.2byte	0x116
 1932 02e6 75020000 		.4byte	0x275
 1933 02ea 02       		.byte	0x2
 1934 02eb 23       		.byte	0x23
 1935 02ec 14       		.uleb128 0x14
 1936 02ed 0B       		.uleb128 0xb
 1937 02ee 72313000 		.ascii	"r10\000"
 1938 02f2 07       		.byte	0x7
 1939 02f3 1701     		.2byte	0x117
 1940 02f5 75020000 		.4byte	0x275
 1941 02f9 02       		.byte	0x2
 1942 02fa 23       		.byte	0x23
 1943 02fb 18       		.uleb128 0x18
 1944 02fc 0B       		.uleb128 0xb
 1945 02fd 72313100 		.ascii	"r11\000"
 1946 0301 07       		.byte	0x7
 1947 0302 1801     		.2byte	0x118
 1948 0304 75020000 		.4byte	0x275
 1949 0308 02       		.byte	0x2
 1950 0309 23       		.byte	0x23
 1951 030a 1C       		.uleb128 0x1c
ARM GAS  C:\Users\z80\AppData\Local\Temp\ccSx45O2.s 			page 36


 1952 030b 0B       		.uleb128 0xb
 1953 030c 6C7200   		.ascii	"lr\000"
 1954 030f 07       		.byte	0x7
 1955 0310 1901     		.2byte	0x119
 1956 0312 75020000 		.4byte	0x275
 1957 0316 02       		.byte	0x2
 1958 0317 23       		.byte	0x23
 1959 0318 20       		.uleb128 0x20
 1960 0319 00       		.byte	0x0
 1961 031a 0C       		.uleb128 0xc
 1962 031b CA040000 		.4byte	.LASF46
 1963 031f 04       		.byte	0x4
 1964 0320 07       		.byte	0x7
 1965 0321 2301     		.2byte	0x123
 1966 0323 37030000 		.4byte	0x337
 1967 0327 0B       		.uleb128 0xb
 1968 0328 72313300 		.ascii	"r13\000"
 1969 032c 07       		.byte	0x7
 1970 032d 2401     		.2byte	0x124
 1971 032f 37030000 		.4byte	0x337
 1972 0333 02       		.byte	0x2
 1973 0334 23       		.byte	0x23
 1974 0335 00       		.uleb128 0x0
 1975 0336 00       		.byte	0x0
 1976 0337 09       		.uleb128 0x9
 1977 0338 04       		.byte	0x4
 1978 0339 8D020000 		.4byte	0x28d
 1979 033d 0D       		.uleb128 0xd
 1980 033e 86000000 		.4byte	0x86
 1981 0342 0E       		.uleb128 0xe
 1982 0343 04       		.byte	0x4
 1983 0344 07       		.byte	0x7
 1984 0345 0D       		.uleb128 0xd
 1985 0346 FE000000 		.4byte	0xfe
 1986 034a 05       		.uleb128 0x5
 1987 034b EE020000 		.4byte	.LASF47
 1988 034f 10       		.byte	0x10
 1989 0350 08       		.byte	0x8
 1990 0351 2C       		.byte	0x2c
 1991 0352 81030000 		.4byte	0x381
 1992 0356 06       		.uleb128 0x6
 1993 0357 F5000000 		.4byte	.LASF48
 1994 035b 08       		.byte	0x8
 1995 035c 2D       		.byte	0x2d
 1996 035d 48020000 		.4byte	0x248
 1997 0361 02       		.byte	0x2
 1998 0362 23       		.byte	0x23
 1999 0363 00       		.uleb128 0x0
 2000 0364 06       		.uleb128 0x6
 2001 0365 90050000 		.4byte	.LASF49
 2002 0369 08       		.byte	0x8
 2003 036a 2F       		.byte	0x2f
 2004 036b 42020000 		.4byte	0x242
 2005 036f 02       		.byte	0x2
 2006 0370 23       		.byte	0x23
 2007 0371 08       		.uleb128 0x8
 2008 0372 06       		.uleb128 0x6
ARM GAS  C:\Users\z80\AppData\Local\Temp\ccSx45O2.s 			page 37


 2009 0373 99040000 		.4byte	.LASF50
 2010 0377 08       		.byte	0x8
 2011 0378 31       		.byte	0x31
 2012 0379 81030000 		.4byte	0x381
 2013 037d 02       		.byte	0x2
 2014 037e 23       		.byte	0x23
 2015 037f 0C       		.uleb128 0xc
 2016 0380 00       		.byte	0x0
 2017 0381 09       		.uleb128 0x9
 2018 0382 04       		.byte	0x4
 2019 0383 4A030000 		.4byte	0x34a
 2020 0387 03       		.uleb128 0x3
 2021 0388 EE020000 		.4byte	.LASF47
 2022 038c 08       		.byte	0x8
 2023 038d 33       		.byte	0x33
 2024 038e 4A030000 		.4byte	0x34a
 2025 0392 03       		.uleb128 0x3
 2026 0393 41050000 		.4byte	.LASF51
 2027 0397 09       		.byte	0x9
 2028 0398 29       		.byte	0x29
 2029 0399 9D030000 		.4byte	0x39d
 2030 039d 05       		.uleb128 0x5
 2031 039e 41050000 		.4byte	.LASF51
 2032 03a2 0C       		.byte	0xc
 2033 03a3 09       		.byte	0x9
 2034 03a4 2E       		.byte	0x2e
 2035 03a5 D4030000 		.4byte	0x3d4
 2036 03a9 06       		.uleb128 0x6
 2037 03aa 0B040000 		.4byte	.LASF52
 2038 03ae 09       		.byte	0x9
 2039 03af 2F       		.byte	0x2f
 2040 03b0 D4030000 		.4byte	0x3d4
 2041 03b4 02       		.byte	0x2
 2042 03b5 23       		.byte	0x23
 2043 03b6 00       		.uleb128 0x0
 2044 03b7 06       		.uleb128 0x6
 2045 03b8 BD030000 		.4byte	.LASF53
 2046 03bc 09       		.byte	0x9
 2047 03bd 32       		.byte	0x32
 2048 03be 42020000 		.4byte	0x242
 2049 03c2 02       		.byte	0x2
 2050 03c3 23       		.byte	0x23
 2051 03c4 04       		.uleb128 0x4
 2052 03c5 06       		.uleb128 0x6
 2053 03c6 26030000 		.4byte	.LASF54
 2054 03ca 09       		.byte	0x9
 2055 03cb 34       		.byte	0x34
 2056 03cc F3000000 		.4byte	0xf3
 2057 03d0 02       		.byte	0x2
 2058 03d1 23       		.byte	0x23
 2059 03d2 08       		.uleb128 0x8
 2060 03d3 00       		.byte	0x0
 2061 03d4 09       		.uleb128 0x9
 2062 03d5 04       		.byte	0x4
 2063 03d6 92030000 		.4byte	0x392
 2064 03da 05       		.uleb128 0x5
 2065 03db 7F010000 		.4byte	.LASF55
ARM GAS  C:\Users\z80\AppData\Local\Temp\ccSx45O2.s 			page 38


 2066 03df 04       		.byte	0x4
 2067 03e0 09       		.byte	0x9
 2068 03e1 3C       		.byte	0x3c
 2069 03e2 F5030000 		.4byte	0x3f5
 2070 03e6 06       		.uleb128 0x6
 2071 03e7 09050000 		.4byte	.LASF56
 2072 03eb 09       		.byte	0x9
 2073 03ec 3D       		.byte	0x3d
 2074 03ed D4030000 		.4byte	0x3d4
 2075 03f1 02       		.byte	0x2
 2076 03f2 23       		.byte	0x23
 2077 03f3 00       		.uleb128 0x0
 2078 03f4 00       		.byte	0x0
 2079 03f5 03       		.uleb128 0x3
 2080 03f6 7F010000 		.4byte	.LASF55
 2081 03fa 09       		.byte	0x9
 2082 03fb 40       		.byte	0x40
 2083 03fc DA030000 		.4byte	0x3da
 2084 0400 0F       		.uleb128 0xf
 2085 0401 04       		.byte	0x4
 2086 0402 06       		.byte	0x6
 2087 0403 90       		.byte	0x90
 2088 0404 35040000 		.4byte	0x435
 2089 0408 10       		.uleb128 0x10
 2090 0409 19000000 		.4byte	.LASF57
 2091 040d 06       		.byte	0x6
 2092 040e 97       		.byte	0x97
 2093 040f E8000000 		.4byte	0xe8
 2094 0413 10       		.uleb128 0x10
 2095 0414 7C000000 		.4byte	.LASF58
 2096 0418 06       		.byte	0x6
 2097 0419 9E       		.byte	0x9e
 2098 041a E8000000 		.4byte	0xe8
 2099 041e 10       		.uleb128 0x10
 2100 041f 5B050000 		.4byte	.LASF59
 2101 0423 06       		.byte	0x6
 2102 0424 A5       		.byte	0xa5
 2103 0425 80020000 		.4byte	0x280
 2104 0429 10       		.uleb128 0x10
 2105 042a F5030000 		.4byte	.LASF60
 2106 042e 06       		.byte	0x6
 2107 042f AC       		.byte	0xac
 2108 0430 F3000000 		.4byte	0xf3
 2109 0434 00       		.byte	0x0
 2110 0435 09       		.uleb128 0x9
 2111 0436 04       		.byte	0x4
 2112 0437 3B040000 		.4byte	0x43b
 2113 043b 11       		.uleb128 0x11
 2114 043c 40040000 		.4byte	0x440
 2115 0440 04       		.uleb128 0x4
 2116 0441 01       		.byte	0x1
 2117 0442 08       		.byte	0x8
 2118 0443 7B040000 		.4byte	.LASF61
 2119 0447 09       		.uleb128 0x9
 2120 0448 04       		.byte	0x4
 2121 0449 82020000 		.4byte	0x282
 2122 044d 09       		.uleb128 0x9
ARM GAS  C:\Users\z80\AppData\Local\Temp\ccSx45O2.s 			page 39


 2123 044e 04       		.byte	0x4
 2124 044f 87030000 		.4byte	0x387
 2125 0453 03       		.uleb128 0x3
 2126 0454 B9020000 		.4byte	.LASF62
 2127 0458 0A       		.byte	0xa
 2128 0459 37       		.byte	0x37
 2129 045a 5E040000 		.4byte	0x45e
 2130 045e 05       		.uleb128 0x5
 2131 045f B9020000 		.4byte	.LASF62
 2132 0463 20       		.byte	0x20
 2133 0464 0A       		.byte	0xa
 2134 0465 45       		.byte	0x45
 2135 0466 CD040000 		.4byte	0x4cd
 2136 046a 06       		.uleb128 0x6
 2137 046b B0000000 		.4byte	.LASF63
 2138 046f 0A       		.byte	0xa
 2139 0470 46       		.byte	0x46
 2140 0471 48020000 		.4byte	0x248
 2141 0475 02       		.byte	0x2
 2142 0476 23       		.byte	0x23
 2143 0477 00       		.uleb128 0x0
 2144 0478 06       		.uleb128 0x6
 2145 0479 E4020000 		.4byte	.LASF64
 2146 047d 0A       		.byte	0xa
 2147 047e 47       		.byte	0x47
 2148 047f 30000000 		.4byte	0x30
 2149 0483 02       		.byte	0x2
 2150 0484 23       		.byte	0x23
 2151 0485 08       		.uleb128 0x8
 2152 0486 06       		.uleb128 0x6
 2153 0487 42010000 		.4byte	.LASF65
 2154 048b 0A       		.byte	0xa
 2155 048c 48       		.byte	0x48
 2156 048d F0040000 		.4byte	0x4f0
 2157 0491 02       		.byte	0x2
 2158 0492 23       		.byte	0x23
 2159 0493 0C       		.uleb128 0xc
 2160 0494 06       		.uleb128 0x6
 2161 0495 FC040000 		.4byte	.LASF66
 2162 0499 0A       		.byte	0xa
 2163 049a 49       		.byte	0x49
 2164 049b F0040000 		.4byte	0x4f0
 2165 049f 02       		.byte	0x2
 2166 04a0 23       		.byte	0x23
 2167 04a1 10       		.uleb128 0x10
 2168 04a2 06       		.uleb128 0x6
 2169 04a3 4B010000 		.4byte	.LASF67
 2170 04a7 0A       		.byte	0xa
 2171 04a8 4B       		.byte	0x4b
 2172 04a9 F0040000 		.4byte	0x4f0
 2173 04ad 02       		.byte	0x2
 2174 04ae 23       		.byte	0x23
 2175 04af 14       		.uleb128 0x14
 2176 04b0 06       		.uleb128 0x6
 2177 04b1 94030000 		.4byte	.LASF68
 2178 04b5 0A       		.byte	0xa
 2179 04b6 4C       		.byte	0x4c
ARM GAS  C:\Users\z80\AppData\Local\Temp\ccSx45O2.s 			page 40


 2180 04b7 F0040000 		.4byte	0x4f0
 2181 04bb 02       		.byte	0x2
 2182 04bc 23       		.byte	0x23
 2183 04bd 18       		.uleb128 0x18
 2184 04be 06       		.uleb128 0x6
 2185 04bf 11050000 		.4byte	.LASF69
 2186 04c3 0A       		.byte	0xa
 2187 04c4 4D       		.byte	0x4d
 2188 04c5 CD040000 		.4byte	0x4cd
 2189 04c9 02       		.byte	0x2
 2190 04ca 23       		.byte	0x23
 2191 04cb 1C       		.uleb128 0x1c
 2192 04cc 00       		.byte	0x0
 2193 04cd 03       		.uleb128 0x3
 2194 04ce A0020000 		.4byte	.LASF70
 2195 04d2 0A       		.byte	0xa
 2196 04d3 3A       		.byte	0x3a
 2197 04d4 D8040000 		.4byte	0x4d8
 2198 04d8 09       		.uleb128 0x9
 2199 04d9 04       		.byte	0x4
 2200 04da DE040000 		.4byte	0x4de
 2201 04de 12       		.uleb128 0x12
 2202 04df 01       		.byte	0x1
 2203 04e0 EA040000 		.4byte	0x4ea
 2204 04e4 13       		.uleb128 0x13
 2205 04e5 EA040000 		.4byte	0x4ea
 2206 04e9 00       		.byte	0x0
 2207 04ea 09       		.uleb128 0x9
 2208 04eb 04       		.byte	0x4
 2209 04ec 53040000 		.4byte	0x453
 2210 04f0 09       		.uleb128 0x9
 2211 04f1 04       		.byte	0x4
 2212 04f2 49000000 		.4byte	0x49
 2213 04f6 03       		.uleb128 0x3
 2214 04f7 95020000 		.4byte	.LASF71
 2215 04fb 0A       		.byte	0xa
 2216 04fc 76       		.byte	0x76
 2217 04fd 53040000 		.4byte	0x453
 2218 0501 03       		.uleb128 0x3
 2219 0502 2F000000 		.4byte	.LASF72
 2220 0506 0A       		.byte	0xa
 2221 0507 E6       		.byte	0xe6
 2222 0508 53040000 		.4byte	0x453
 2223 050c 14       		.uleb128 0x14
 2224 050d 01       		.byte	0x1
 2225 050e 30000000 		.4byte	0x30
 2226 0512 26050000 		.4byte	0x526
 2227 0516 13       		.uleb128 0x13
 2228 0517 80020000 		.4byte	0x280
 2229 051b 13       		.uleb128 0x13
 2230 051c 26050000 		.4byte	0x526
 2231 0520 13       		.uleb128 0x13
 2232 0521 30000000 		.4byte	0x30
 2233 0525 00       		.byte	0x0
 2234 0526 09       		.uleb128 0x9
 2235 0527 04       		.byte	0x4
 2236 0528 2C050000 		.4byte	0x52c
ARM GAS  C:\Users\z80\AppData\Local\Temp\ccSx45O2.s 			page 41


 2237 052c 11       		.uleb128 0x11
 2238 052d 49000000 		.4byte	0x49
 2239 0531 09       		.uleb128 0x9
 2240 0532 04       		.byte	0x4
 2241 0533 0C050000 		.4byte	0x50c
 2242 0537 14       		.uleb128 0x14
 2243 0538 01       		.byte	0x1
 2244 0539 30000000 		.4byte	0x30
 2245 053d 51050000 		.4byte	0x551
 2246 0541 13       		.uleb128 0x13
 2247 0542 80020000 		.4byte	0x280
 2248 0546 13       		.uleb128 0x13
 2249 0547 F0040000 		.4byte	0x4f0
 2250 054b 13       		.uleb128 0x13
 2251 054c 30000000 		.4byte	0x30
 2252 0550 00       		.byte	0x0
 2253 0551 09       		.uleb128 0x9
 2254 0552 04       		.byte	0x4
 2255 0553 37050000 		.4byte	0x537
 2256 0557 14       		.uleb128 0x14
 2257 0558 01       		.byte	0x1
 2258 0559 BC000000 		.4byte	0xbc
 2259 055d 67050000 		.4byte	0x567
 2260 0561 13       		.uleb128 0x13
 2261 0562 80020000 		.4byte	0x280
 2262 0566 00       		.byte	0x0
 2263 0567 09       		.uleb128 0x9
 2264 0568 04       		.byte	0x4
 2265 0569 57050000 		.4byte	0x557
 2266 056d 14       		.uleb128 0x14
 2267 056e 01       		.byte	0x1
 2268 056f E8000000 		.4byte	0xe8
 2269 0573 87050000 		.4byte	0x587
 2270 0577 13       		.uleb128 0x13
 2271 0578 80020000 		.4byte	0x280
 2272 057c 13       		.uleb128 0x13
 2273 057d 49000000 		.4byte	0x49
 2274 0581 13       		.uleb128 0x13
 2275 0582 FE000000 		.4byte	0xfe
 2276 0586 00       		.byte	0x0
 2277 0587 09       		.uleb128 0x9
 2278 0588 04       		.byte	0x4
 2279 0589 6D050000 		.4byte	0x56d
 2280 058d 14       		.uleb128 0x14
 2281 058e 01       		.byte	0x1
 2282 058f E8000000 		.4byte	0xe8
 2283 0593 A2050000 		.4byte	0x5a2
 2284 0597 13       		.uleb128 0x13
 2285 0598 80020000 		.4byte	0x280
 2286 059c 13       		.uleb128 0x13
 2287 059d FE000000 		.4byte	0xfe
 2288 05a1 00       		.byte	0x0
 2289 05a2 09       		.uleb128 0x9
 2290 05a3 04       		.byte	0x4
 2291 05a4 8D050000 		.4byte	0x58d
 2292 05a8 14       		.uleb128 0x14
 2293 05a9 01       		.byte	0x1
ARM GAS  C:\Users\z80\AppData\Local\Temp\ccSx45O2.s 			page 42


 2294 05aa 30000000 		.4byte	0x30
 2295 05ae C7050000 		.4byte	0x5c7
 2296 05b2 13       		.uleb128 0x13
 2297 05b3 80020000 		.4byte	0x280
 2298 05b7 13       		.uleb128 0x13
 2299 05b8 26050000 		.4byte	0x526
 2300 05bc 13       		.uleb128 0x13
 2301 05bd 30000000 		.4byte	0x30
 2302 05c1 13       		.uleb128 0x13
 2303 05c2 FE000000 		.4byte	0xfe
 2304 05c6 00       		.byte	0x0
 2305 05c7 09       		.uleb128 0x9
 2306 05c8 04       		.byte	0x4
 2307 05c9 A8050000 		.4byte	0x5a8
 2308 05cd 14       		.uleb128 0x14
 2309 05ce 01       		.byte	0x1
 2310 05cf 30000000 		.4byte	0x30
 2311 05d3 EC050000 		.4byte	0x5ec
 2312 05d7 13       		.uleb128 0x13
 2313 05d8 80020000 		.4byte	0x280
 2314 05dc 13       		.uleb128 0x13
 2315 05dd F0040000 		.4byte	0x4f0
 2316 05e1 13       		.uleb128 0x13
 2317 05e2 30000000 		.4byte	0x30
 2318 05e6 13       		.uleb128 0x13
 2319 05e7 FE000000 		.4byte	0xfe
 2320 05eb 00       		.byte	0x0
 2321 05ec 09       		.uleb128 0x9
 2322 05ed 04       		.byte	0x4
 2323 05ee CD050000 		.4byte	0x5cd
 2324 05f2 15       		.uleb128 0x15
 2325 05f3 04030000 		.4byte	.LASF73
 2326 05f7 0B       		.byte	0xb
 2327 05f8 0B01     		.2byte	0x10b
 2328 05fa B1000000 		.4byte	0xb1
 2329 05fe 14       		.uleb128 0x14
 2330 05ff 01       		.byte	0x1
 2331 0600 F2050000 		.4byte	0x5f2
 2332 0604 0E060000 		.4byte	0x60e
 2333 0608 13       		.uleb128 0x13
 2334 0609 80020000 		.4byte	0x280
 2335 060d 00       		.byte	0x0
 2336 060e 09       		.uleb128 0x9
 2337 060f 04       		.byte	0x4
 2338 0610 FE050000 		.4byte	0x5fe
 2339 0614 03       		.uleb128 0x3
 2340 0615 3B000000 		.4byte	.LASF74
 2341 0619 0C       		.byte	0xc
 2342 061a 0B       		.byte	0xb
 2343 061b 1F060000 		.4byte	0x61f
 2344 061f 09       		.uleb128 0x9
 2345 0620 04       		.byte	0x4
 2346 0621 25060000 		.4byte	0x625
 2347 0625 12       		.uleb128 0x12
 2348 0626 01       		.byte	0x1
 2349 0627 31060000 		.4byte	0x631
 2350 062b 13       		.uleb128 0x13
ARM GAS  C:\Users\z80\AppData\Local\Temp\ccSx45O2.s 			page 43


 2351 062c F0040000 		.4byte	0x4f0
 2352 0630 00       		.byte	0x0
 2353 0631 0D       		.uleb128 0xd
 2354 0632 62000000 		.4byte	0x62
 2355 0636 0D       		.uleb128 0xd
 2356 0637 74000000 		.4byte	0x74
 2357 063b 16       		.uleb128 0x16
 2358 063c 1C       		.byte	0x1c
 2359 063d 0D       		.byte	0xd
 2360 063e F803     		.2byte	0x3f8
 2361 0640 AE060000 		.4byte	0x6ae
 2362 0644 0B       		.uleb128 0xb
 2363 0645 43524C00 		.ascii	"CRL\000"
 2364 0649 0D       		.byte	0xd
 2365 064a FA03     		.2byte	0x3fa
 2366 064c 3D030000 		.4byte	0x33d
 2367 0650 02       		.byte	0x2
 2368 0651 23       		.byte	0x23
 2369 0652 00       		.uleb128 0x0
 2370 0653 0B       		.uleb128 0xb
 2371 0654 43524800 		.ascii	"CRH\000"
 2372 0658 0D       		.byte	0xd
 2373 0659 FB03     		.2byte	0x3fb
 2374 065b 3D030000 		.4byte	0x33d
 2375 065f 02       		.byte	0x2
 2376 0660 23       		.byte	0x23
 2377 0661 04       		.uleb128 0x4
 2378 0662 0B       		.uleb128 0xb
 2379 0663 49445200 		.ascii	"IDR\000"
 2380 0667 0D       		.byte	0xd
 2381 0668 FC03     		.2byte	0x3fc
 2382 066a 3D030000 		.4byte	0x33d
 2383 066e 02       		.byte	0x2
 2384 066f 23       		.byte	0x23
 2385 0670 08       		.uleb128 0x8
 2386 0671 0B       		.uleb128 0xb
 2387 0672 4F445200 		.ascii	"ODR\000"
 2388 0676 0D       		.byte	0xd
 2389 0677 FD03     		.2byte	0x3fd
 2390 0679 3D030000 		.4byte	0x33d
 2391 067d 02       		.byte	0x2
 2392 067e 23       		.byte	0x23
 2393 067f 0C       		.uleb128 0xc
 2394 0680 17       		.uleb128 0x17
 2395 0681 D4000000 		.4byte	.LASF75
 2396 0685 0D       		.byte	0xd
 2397 0686 FE03     		.2byte	0x3fe
 2398 0688 3D030000 		.4byte	0x33d
 2399 068c 02       		.byte	0x2
 2400 068d 23       		.byte	0x23
 2401 068e 10       		.uleb128 0x10
 2402 068f 0B       		.uleb128 0xb
 2403 0690 42525200 		.ascii	"BRR\000"
 2404 0694 0D       		.byte	0xd
 2405 0695 FF03     		.2byte	0x3ff
 2406 0697 3D030000 		.4byte	0x33d
 2407 069b 02       		.byte	0x2
ARM GAS  C:\Users\z80\AppData\Local\Temp\ccSx45O2.s 			page 44


 2408 069c 23       		.byte	0x23
 2409 069d 14       		.uleb128 0x14
 2410 069e 17       		.uleb128 0x17
 2411 069f F6010000 		.4byte	.LASF76
 2412 06a3 0D       		.byte	0xd
 2413 06a4 0004     		.2byte	0x400
 2414 06a6 3D030000 		.4byte	0x33d
 2415 06aa 02       		.byte	0x2
 2416 06ab 23       		.byte	0x23
 2417 06ac 18       		.uleb128 0x18
 2418 06ad 00       		.byte	0x0
 2419 06ae 15       		.uleb128 0x15
 2420 06af 69010000 		.4byte	.LASF77
 2421 06b3 0D       		.byte	0xd
 2422 06b4 0104     		.2byte	0x401
 2423 06b6 3B060000 		.4byte	0x63b
 2424 06ba 16       		.uleb128 0x16
 2425 06bb 1C       		.byte	0x1c
 2426 06bc 0D       		.byte	0xd
 2427 06bd E104     		.2byte	0x4e1
 2428 06bf 94070000 		.4byte	0x794
 2429 06c3 0B       		.uleb128 0xb
 2430 06c4 535200   		.ascii	"SR\000"
 2431 06c7 0D       		.byte	0xd
 2432 06c8 E304     		.2byte	0x4e3
 2433 06ca 31060000 		.4byte	0x631
 2434 06ce 02       		.byte	0x2
 2435 06cf 23       		.byte	0x23
 2436 06d0 00       		.uleb128 0x0
 2437 06d1 17       		.uleb128 0x17
 2438 06d2 40030000 		.4byte	.LASF78
 2439 06d6 0D       		.byte	0xd
 2440 06d7 E404     		.2byte	0x4e4
 2441 06d9 62000000 		.4byte	0x62
 2442 06dd 02       		.byte	0x2
 2443 06de 23       		.byte	0x23
 2444 06df 02       		.uleb128 0x2
 2445 06e0 0B       		.uleb128 0xb
 2446 06e1 445200   		.ascii	"DR\000"
 2447 06e4 0D       		.byte	0xd
 2448 06e5 E504     		.2byte	0x4e5
 2449 06e7 31060000 		.4byte	0x631
 2450 06eb 02       		.byte	0x2
 2451 06ec 23       		.byte	0x23
 2452 06ed 04       		.uleb128 0x4
 2453 06ee 17       		.uleb128 0x17
 2454 06ef 4A030000 		.4byte	.LASF79
 2455 06f3 0D       		.byte	0xd
 2456 06f4 E604     		.2byte	0x4e6
 2457 06f6 62000000 		.4byte	0x62
 2458 06fa 02       		.byte	0x2
 2459 06fb 23       		.byte	0x23
 2460 06fc 06       		.uleb128 0x6
 2461 06fd 0B       		.uleb128 0xb
 2462 06fe 42525200 		.ascii	"BRR\000"
 2463 0702 0D       		.byte	0xd
 2464 0703 E704     		.2byte	0x4e7
ARM GAS  C:\Users\z80\AppData\Local\Temp\ccSx45O2.s 			page 45


 2465 0705 31060000 		.4byte	0x631
 2466 0709 02       		.byte	0x2
 2467 070a 23       		.byte	0x23
 2468 070b 08       		.uleb128 0x8
 2469 070c 17       		.uleb128 0x17
 2470 070d 54030000 		.4byte	.LASF80
 2471 0711 0D       		.byte	0xd
 2472 0712 E804     		.2byte	0x4e8
 2473 0714 62000000 		.4byte	0x62
 2474 0718 02       		.byte	0x2
 2475 0719 23       		.byte	0x23
 2476 071a 0A       		.uleb128 0xa
 2477 071b 0B       		.uleb128 0xb
 2478 071c 43523100 		.ascii	"CR1\000"
 2479 0720 0D       		.byte	0xd
 2480 0721 E904     		.2byte	0x4e9
 2481 0723 31060000 		.4byte	0x631
 2482 0727 02       		.byte	0x2
 2483 0728 23       		.byte	0x23
 2484 0729 0C       		.uleb128 0xc
 2485 072a 17       		.uleb128 0x17
 2486 072b 5E030000 		.4byte	.LASF81
 2487 072f 0D       		.byte	0xd
 2488 0730 EA04     		.2byte	0x4ea
 2489 0732 62000000 		.4byte	0x62
 2490 0736 02       		.byte	0x2
 2491 0737 23       		.byte	0x23
 2492 0738 0E       		.uleb128 0xe
 2493 0739 0B       		.uleb128 0xb
 2494 073a 43523200 		.ascii	"CR2\000"
 2495 073e 0D       		.byte	0xd
 2496 073f EB04     		.2byte	0x4eb
 2497 0741 31060000 		.4byte	0x631
 2498 0745 02       		.byte	0x2
 2499 0746 23       		.byte	0x23
 2500 0747 10       		.uleb128 0x10
 2501 0748 17       		.uleb128 0x17
 2502 0749 68030000 		.4byte	.LASF82
 2503 074d 0D       		.byte	0xd
 2504 074e EC04     		.2byte	0x4ec
 2505 0750 62000000 		.4byte	0x62
 2506 0754 02       		.byte	0x2
 2507 0755 23       		.byte	0x23
 2508 0756 12       		.uleb128 0x12
 2509 0757 0B       		.uleb128 0xb
 2510 0758 43523300 		.ascii	"CR3\000"
 2511 075c 0D       		.byte	0xd
 2512 075d ED04     		.2byte	0x4ed
 2513 075f 31060000 		.4byte	0x631
 2514 0763 02       		.byte	0x2
 2515 0764 23       		.byte	0x23
 2516 0765 14       		.uleb128 0x14
 2517 0766 17       		.uleb128 0x17
 2518 0767 2F040000 		.4byte	.LASF83
 2519 076b 0D       		.byte	0xd
 2520 076c EE04     		.2byte	0x4ee
 2521 076e 62000000 		.4byte	0x62
ARM GAS  C:\Users\z80\AppData\Local\Temp\ccSx45O2.s 			page 46


 2522 0772 02       		.byte	0x2
 2523 0773 23       		.byte	0x23
 2524 0774 16       		.uleb128 0x16
 2525 0775 17       		.uleb128 0x17
 2526 0776 D9000000 		.4byte	.LASF84
 2527 077a 0D       		.byte	0xd
 2528 077b EF04     		.2byte	0x4ef
 2529 077d 31060000 		.4byte	0x631
 2530 0781 02       		.byte	0x2
 2531 0782 23       		.byte	0x23
 2532 0783 18       		.uleb128 0x18
 2533 0784 17       		.uleb128 0x17
 2534 0785 39040000 		.4byte	.LASF85
 2535 0789 0D       		.byte	0xd
 2536 078a F004     		.2byte	0x4f0
 2537 078c 62000000 		.4byte	0x62
 2538 0790 02       		.byte	0x2
 2539 0791 23       		.byte	0x23
 2540 0792 1A       		.uleb128 0x1a
 2541 0793 00       		.byte	0x0
 2542 0794 15       		.uleb128 0x15
 2543 0795 60020000 		.4byte	.LASF86
 2544 0799 0D       		.byte	0xd
 2545 079a F104     		.2byte	0x4f1
 2546 079c BA060000 		.4byte	0x6ba
 2547 07a0 03       		.uleb128 0x3
 2548 07a1 41000000 		.4byte	.LASF87
 2549 07a5 0E       		.byte	0xe
 2550 07a6 78       		.byte	0x78
 2551 07a7 86000000 		.4byte	0x86
 2552 07ab 18       		.uleb128 0x18
 2553 07ac 01       		.byte	0x1
 2554 07ad 0F       		.byte	0xf
 2555 07ae 64       		.byte	0x64
 2556 07af C6070000 		.4byte	0x7c6
 2557 07b3 19       		.uleb128 0x19
 2558 07b4 25040000 		.4byte	.LASF88
 2559 07b8 00       		.sleb128 0
 2560 07b9 19       		.uleb128 0x19
 2561 07ba DE000000 		.4byte	.LASF89
 2562 07be 01       		.sleb128 1
 2563 07bf 19       		.uleb128 0x19
 2564 07c0 DF040000 		.4byte	.LASF90
 2565 07c4 02       		.sleb128 2
 2566 07c5 00       		.byte	0x0
 2567 07c6 03       		.uleb128 0x3
 2568 07c7 F2040000 		.4byte	.LASF91
 2569 07cb 0F       		.byte	0xf
 2570 07cc 68       		.byte	0x68
 2571 07cd AB070000 		.4byte	0x7ab
 2572 07d1 03       		.uleb128 0x3
 2573 07d2 57040000 		.4byte	.LASF92
 2574 07d6 0F       		.byte	0xf
 2575 07d7 6D       		.byte	0x6d
 2576 07d8 DC070000 		.4byte	0x7dc
 2577 07dc 1A       		.uleb128 0x1a
 2578 07dd 57040000 		.4byte	.LASF92
ARM GAS  C:\Users\z80\AppData\Local\Temp\ccSx45O2.s 			page 47


 2579 07e1 5404     		.2byte	0x454
 2580 07e3 0F       		.byte	0xf
 2581 07e4 87       		.byte	0x87
 2582 07e5 68080000 		.4byte	0x868
 2583 07e9 07       		.uleb128 0x7
 2584 07ea 766D7400 		.ascii	"vmt\000"
 2585 07ee 0F       		.byte	0xf
 2586 07ef 89       		.byte	0x89
 2587 07f0 3F090000 		.4byte	0x93f
 2588 07f4 02       		.byte	0x2
 2589 07f5 23       		.byte	0x23
 2590 07f6 00       		.uleb128 0x0
 2591 07f7 06       		.uleb128 0x6
 2592 07f8 14020000 		.4byte	.LASF93
 2593 07fc 0F       		.byte	0xf
 2594 07fd 8A       		.byte	0x8a
 2595 07fe F5030000 		.4byte	0x3f5
 2596 0802 02       		.byte	0x2
 2597 0803 23       		.byte	0x23
 2598 0804 04       		.uleb128 0x4
 2599 0805 06       		.uleb128 0x6
 2600 0806 3B050000 		.4byte	.LASF94
 2601 080a 0F       		.byte	0xf
 2602 080b 8A       		.byte	0x8a
 2603 080c F2050000 		.4byte	0x5f2
 2604 0810 02       		.byte	0x2
 2605 0811 23       		.byte	0x23
 2606 0812 08       		.uleb128 0x8
 2607 0813 06       		.uleb128 0x6
 2608 0814 2A010000 		.4byte	.LASF95
 2609 0818 0F       		.byte	0xf
 2610 0819 8A       		.byte	0x8a
 2611 081a C6070000 		.4byte	0x7c6
 2612 081e 02       		.byte	0x2
 2613 081f 23       		.byte	0x23
 2614 0820 0C       		.uleb128 0xc
 2615 0821 06       		.uleb128 0x6
 2616 0822 D4010000 		.4byte	.LASF96
 2617 0826 0F       		.byte	0xf
 2618 0827 8A       		.byte	0x8a
 2619 0828 F6040000 		.4byte	0x4f6
 2620 082c 02       		.byte	0x2
 2621 082d 23       		.byte	0x23
 2622 082e 10       		.uleb128 0x10
 2623 082f 06       		.uleb128 0x6
 2624 0830 48020000 		.4byte	.LASF97
 2625 0834 0F       		.byte	0xf
 2626 0835 8A       		.byte	0x8a
 2627 0836 01050000 		.4byte	0x501
 2628 083a 02       		.byte	0x2
 2629 083b 23       		.byte	0x23
 2630 083c 30       		.uleb128 0x30
 2631 083d 07       		.uleb128 0x7
 2632 083e 696200   		.ascii	"ib\000"
 2633 0841 0F       		.byte	0xf
 2634 0842 8A       		.byte	0x8a
 2635 0843 4A090000 		.4byte	0x94a
ARM GAS  C:\Users\z80\AppData\Local\Temp\ccSx45O2.s 			page 48


 2636 0847 02       		.byte	0x2
 2637 0848 23       		.byte	0x23
 2638 0849 50       		.uleb128 0x50
 2639 084a 07       		.uleb128 0x7
 2640 084b 6F6200   		.ascii	"ob\000"
 2641 084e 0F       		.byte	0xf
 2642 084f 8A       		.byte	0x8a
 2643 0850 4A090000 		.4byte	0x94a
 2644 0854 03       		.byte	0x3
 2645 0855 23       		.byte	0x23
 2646 0856 D004     		.uleb128 0x250
 2647 0858 06       		.uleb128 0x6
 2648 0859 90010000 		.4byte	.LASF98
 2649 085d 0F       		.byte	0xf
 2650 085e 8A       		.byte	0x8a
 2651 085f 5B090000 		.4byte	0x95b
 2652 0863 03       		.byte	0x3
 2653 0864 23       		.byte	0x23
 2654 0865 D008     		.uleb128 0x450
 2655 0867 00       		.byte	0x0
 2656 0868 08       		.uleb128 0x8
 2657 0869 0C       		.byte	0xc
 2658 086a 10       		.byte	0x10
 2659 086b C4       		.byte	0xc4
 2660 086c A9080000 		.4byte	0x8a9
 2661 0870 06       		.uleb128 0x6
 2662 0871 09000000 		.4byte	.LASF99
 2663 0875 10       		.byte	0x10
 2664 0876 C8       		.byte	0xc8
 2665 0877 86000000 		.4byte	0x86
 2666 087b 02       		.byte	0x2
 2667 087c 23       		.byte	0x23
 2668 087d 00       		.uleb128 0x0
 2669 087e 06       		.uleb128 0x6
 2670 087f 76050000 		.4byte	.LASF100
 2671 0883 10       		.byte	0x10
 2672 0884 CC       		.byte	0xcc
 2673 0885 62000000 		.4byte	0x62
 2674 0889 02       		.byte	0x2
 2675 088a 23       		.byte	0x23
 2676 088b 04       		.uleb128 0x4
 2677 088c 06       		.uleb128 0x6
 2678 088d 7D050000 		.4byte	.LASF101
 2679 0891 10       		.byte	0x10
 2680 0892 D0       		.byte	0xd0
 2681 0893 62000000 		.4byte	0x62
 2682 0897 02       		.byte	0x2
 2683 0898 23       		.byte	0x23
 2684 0899 06       		.uleb128 0x6
 2685 089a 06       		.uleb128 0x6
 2686 089b 84050000 		.4byte	.LASF102
 2687 089f 10       		.byte	0x10
 2688 08a0 D4       		.byte	0xd4
 2689 08a1 62000000 		.4byte	0x62
 2690 08a5 02       		.byte	0x2
 2691 08a6 23       		.byte	0x23
 2692 08a7 08       		.uleb128 0x8
ARM GAS  C:\Users\z80\AppData\Local\Temp\ccSx45O2.s 			page 49


 2693 08a8 00       		.byte	0x0
 2694 08a9 03       		.uleb128 0x3
 2695 08aa 2E030000 		.4byte	.LASF103
 2696 08ae 10       		.byte	0x10
 2697 08af D5       		.byte	0xd5
 2698 08b0 68080000 		.4byte	0x868
 2699 08b4 05       		.uleb128 0x5
 2700 08b5 AC010000 		.4byte	.LASF104
 2701 08b9 24       		.byte	0x24
 2702 08ba 0F       		.byte	0xf
 2703 08bb 7C       		.byte	0x7c
 2704 08bc 3F090000 		.4byte	0x93f
 2705 08c0 06       		.uleb128 0x6
 2706 08c1 DE020000 		.4byte	.LASF105
 2707 08c5 0F       		.byte	0xf
 2708 08c6 7D       		.byte	0x7d
 2709 08c7 31050000 		.4byte	0x531
 2710 08cb 02       		.byte	0x2
 2711 08cc 23       		.byte	0x23
 2712 08cd 00       		.uleb128 0x0
 2713 08ce 06       		.uleb128 0x6
 2714 08cf 76040000 		.4byte	.LASF106
 2715 08d3 0F       		.byte	0xf
 2716 08d4 7D       		.byte	0x7d
 2717 08d5 51050000 		.4byte	0x551
 2718 08d9 02       		.byte	0x2
 2719 08da 23       		.byte	0x23
 2720 08db 04       		.uleb128 0x4
 2721 08dc 06       		.uleb128 0x6
 2722 08dd 5B010000 		.4byte	.LASF107
 2723 08e1 0F       		.byte	0xf
 2724 08e2 7D       		.byte	0x7d
 2725 08e3 67050000 		.4byte	0x567
 2726 08e7 02       		.byte	0x2
 2727 08e8 23       		.byte	0x23
 2728 08e9 08       		.uleb128 0x8
 2729 08ea 06       		.uleb128 0x6
 2730 08eb 68050000 		.4byte	.LASF108
 2731 08ef 0F       		.byte	0xf
 2732 08f0 7D       		.byte	0x7d
 2733 08f1 67050000 		.4byte	0x567
 2734 08f5 02       		.byte	0x2
 2735 08f6 23       		.byte	0x23
 2736 08f7 0C       		.uleb128 0xc
 2737 08f8 07       		.uleb128 0x7
 2738 08f9 70757400 		.ascii	"put\000"
 2739 08fd 0F       		.byte	0xf
 2740 08fe 7D       		.byte	0x7d
 2741 08ff 87050000 		.4byte	0x587
 2742 0903 02       		.byte	0x2
 2743 0904 23       		.byte	0x23
 2744 0905 10       		.uleb128 0x10
 2745 0906 07       		.uleb128 0x7
 2746 0907 67657400 		.ascii	"get\000"
 2747 090b 0F       		.byte	0xf
 2748 090c 7D       		.byte	0x7d
 2749 090d A2050000 		.4byte	0x5a2
ARM GAS  C:\Users\z80\AppData\Local\Temp\ccSx45O2.s 			page 50


 2750 0911 02       		.byte	0x2
 2751 0912 23       		.byte	0x23
 2752 0913 14       		.uleb128 0x14
 2753 0914 06       		.uleb128 0x6
 2754 0915 6E020000 		.4byte	.LASF109
 2755 0919 0F       		.byte	0xf
 2756 091a 7D       		.byte	0x7d
 2757 091b C7050000 		.4byte	0x5c7
 2758 091f 02       		.byte	0x2
 2759 0920 23       		.byte	0x23
 2760 0921 18       		.uleb128 0x18
 2761 0922 06       		.uleb128 0x6
 2762 0923 AA000000 		.4byte	.LASF110
 2763 0927 0F       		.byte	0xf
 2764 0928 7D       		.byte	0x7d
 2765 0929 EC050000 		.4byte	0x5ec
 2766 092d 02       		.byte	0x2
 2767 092e 23       		.byte	0x23
 2768 092f 1C       		.uleb128 0x1c
 2769 0930 06       		.uleb128 0x6
 2770 0931 C1040000 		.4byte	.LASF111
 2771 0935 0F       		.byte	0xf
 2772 0936 7D       		.byte	0x7d
 2773 0937 0E060000 		.4byte	0x60e
 2774 093b 02       		.byte	0x2
 2775 093c 23       		.byte	0x23
 2776 093d 20       		.uleb128 0x20
 2777 093e 00       		.byte	0x0
 2778 093f 09       		.uleb128 0x9
 2779 0940 04       		.byte	0x4
 2780 0941 45090000 		.4byte	0x945
 2781 0945 11       		.uleb128 0x11
 2782 0946 B4080000 		.4byte	0x8b4
 2783 094a 1B       		.uleb128 0x1b
 2784 094b 49000000 		.4byte	0x49
 2785 094f 5B090000 		.4byte	0x95b
 2786 0953 1C       		.uleb128 0x1c
 2787 0954 42030000 		.4byte	0x342
 2788 0958 FF01     		.2byte	0x1ff
 2789 095a 00       		.byte	0x0
 2790 095b 09       		.uleb128 0x9
 2791 095c 04       		.byte	0x4
 2792 095d 94070000 		.4byte	0x794
 2793 0961 1D       		.uleb128 0x1d
 2794 0962 FB010000 		.4byte	.LASF114
 2795 0966 01       		.byte	0x1
 2796 0967 9F       		.byte	0x9f
 2797 0968 01       		.byte	0x1
 2798 0969 01       		.byte	0x1
 2799 096a 85090000 		.4byte	0x985
 2800 096e 1E       		.uleb128 0x1e
 2801 096f 30050000 		.4byte	.LASF112
 2802 0973 01       		.byte	0x1
 2803 0974 A1       		.byte	0xa1
 2804 0975 29000000 		.4byte	0x29
 2805 0979 1E       		.uleb128 0x1e
 2806 097a 8B030000 		.4byte	.LASF113
ARM GAS  C:\Users\z80\AppData\Local\Temp\ccSx45O2.s 			page 51


 2807 097e 01       		.byte	0x1
 2808 097f A3       		.byte	0xa3
 2809 0980 29000000 		.4byte	0x29
 2810 0984 00       		.byte	0x0
 2811 0985 1D       		.uleb128 0x1d
 2812 0986 E5030000 		.4byte	.LASF115
 2813 098a 01       		.byte	0x1
 2814 098b 6F       		.byte	0x6f
 2815 098c 01       		.byte	0x1
 2816 098d 01       		.byte	0x1
 2817 098e C7090000 		.4byte	0x9c7
 2818 0992 1F       		.uleb128 0x1f
 2819 0993 62756600 		.ascii	"buf\000"
 2820 0997 01       		.byte	0x1
 2821 0998 6F       		.byte	0x6f
 2822 0999 F0040000 		.4byte	0x4f0
 2823 099d 1F       		.uleb128 0x1f
 2824 099e 737A00   		.ascii	"sz\000"
 2825 09a1 01       		.byte	0x1
 2826 09a2 6F       		.byte	0x6f
 2827 09a3 29000000 		.4byte	0x29
 2828 09a7 20       		.uleb128 0x20
 2829 09a8 6900     		.ascii	"i\000"
 2830 09aa 01       		.byte	0x1
 2831 09ab 71       		.byte	0x71
 2832 09ac 29000000 		.4byte	0x29
 2833 09b0 20       		.uleb128 0x20
 2834 09b1 636D6400 		.ascii	"cmd\000"
 2835 09b5 01       		.byte	0x1
 2836 09b6 72       		.byte	0x72
 2837 09b7 49000000 		.4byte	0x49
 2838 09bb 1E       		.uleb128 0x1e
 2839 09bc BC040000 		.4byte	.LASF116
 2840 09c0 01       		.byte	0x1
 2841 09c1 74       		.byte	0x74
 2842 09c2 F0040000 		.4byte	0x4f0
 2843 09c6 00       		.byte	0x0
 2844 09c7 21       		.uleb128 0x21
 2845 09c8 EB010000 		.4byte	.LASF117
 2846 09cc 01       		.byte	0x1
 2847 09cd 0B01     		.2byte	0x10b
 2848 09cf 01       		.byte	0x1
 2849 09d0 00000000 		.4byte	.LFB76
 2850 09d4 02000000 		.4byte	.LFE76
 2851 09d8 02       		.byte	0x2
 2852 09d9 7D       		.byte	0x7d
 2853 09da 00       		.sleb128 0
 2854 09db EE090000 		.4byte	0x9ee
 2855 09df 22       		.uleb128 0x22
 2856 09e0 8B050000 		.4byte	.LASF119
 2857 09e4 01       		.byte	0x1
 2858 09e5 0B01     		.2byte	0x10b
 2859 09e7 F0040000 		.4byte	0x4f0
 2860 09eb 01       		.byte	0x1
 2861 09ec 50       		.byte	0x50
 2862 09ed 00       		.byte	0x0
 2863 09ee 21       		.uleb128 0x21
ARM GAS  C:\Users\z80\AppData\Local\Temp\ccSx45O2.s 			page 52


 2864 09ef 4C040000 		.4byte	.LASF118
 2865 09f3 01       		.byte	0x1
 2866 09f4 1001     		.2byte	0x110
 2867 09f6 01       		.byte	0x1
 2868 09f7 00000000 		.4byte	.LFB77
 2869 09fb 02000000 		.4byte	.LFE77
 2870 09ff 02       		.byte	0x2
 2871 0a00 7D       		.byte	0x7d
 2872 0a01 00       		.sleb128 0
 2873 0a02 150A0000 		.4byte	0xa15
 2874 0a06 22       		.uleb128 0x22
 2875 0a07 8B050000 		.4byte	.LASF119
 2876 0a0b 01       		.byte	0x1
 2877 0a0c 1001     		.2byte	0x110
 2878 0a0e F0040000 		.4byte	0x4f0
 2879 0a12 01       		.byte	0x1
 2880 0a13 50       		.byte	0x50
 2881 0a14 00       		.byte	0x0
 2882 0a15 21       		.uleb128 0x21
 2883 0a16 2D020000 		.4byte	.LASF120
 2884 0a1a 01       		.byte	0x1
 2885 0a1b 1501     		.2byte	0x115
 2886 0a1d 01       		.byte	0x1
 2887 0a1e 00000000 		.4byte	.LFB78
 2888 0a22 02000000 		.4byte	.LFE78
 2889 0a26 02       		.byte	0x2
 2890 0a27 7D       		.byte	0x7d
 2891 0a28 00       		.sleb128 0
 2892 0a29 3C0A0000 		.4byte	0xa3c
 2893 0a2d 22       		.uleb128 0x22
 2894 0a2e 8B050000 		.4byte	.LASF119
 2895 0a32 01       		.byte	0x1
 2896 0a33 1501     		.2byte	0x115
 2897 0a35 F0040000 		.4byte	0x4f0
 2898 0a39 01       		.byte	0x1
 2899 0a3a 50       		.byte	0x50
 2900 0a3b 00       		.byte	0x0
 2901 0a3c 23       		.uleb128 0x23
 2902 0a3d 80040000 		.4byte	.LASF121
 2903 0a41 01       		.byte	0x1
 2904 0a42 2201     		.2byte	0x122
 2905 0a44 01       		.byte	0x1
 2906 0a45 00000000 		.4byte	.LFB79
 2907 0a49 34000000 		.4byte	.LFE79
 2908 0a4d 00000000 		.4byte	.LLST0
 2909 0a51 640A0000 		.4byte	0xa64
 2910 0a55 24       		.uleb128 0x24
 2911 0a56 7600     		.ascii	"v\000"
 2912 0a58 01       		.byte	0x1
 2913 0a59 2201     		.2byte	0x122
 2914 0a5b 49000000 		.4byte	0x49
 2915 0a5f 20000000 		.4byte	.LLST1
 2916 0a63 00       		.byte	0x0
 2917 0a64 25       		.uleb128 0x25
 2918 0a65 00000000 		.4byte	.LASF144
 2919 0a69 01       		.byte	0x1
 2920 0a6a 2901     		.2byte	0x129
ARM GAS  C:\Users\z80\AppData\Local\Temp\ccSx45O2.s 			page 53


 2921 0a6c 01       		.byte	0x1
 2922 0a6d 00000000 		.4byte	.LFB80
 2923 0a71 14000000 		.4byte	.LFE80
 2924 0a75 33000000 		.4byte	.LLST2
 2925 0a79 26       		.uleb128 0x26
 2926 0a7a D1020000 		.4byte	.LASF122
 2927 0a7e 01       		.byte	0x1
 2928 0a7f F6       		.byte	0xf6
 2929 0a80 01       		.byte	0x1
 2930 0a81 00000000 		.4byte	.LFB75
 2931 0a85 52000000 		.4byte	.LFE75
 2932 0a89 53000000 		.4byte	.LLST3
 2933 0a8d 300B0000 		.4byte	0xb30
 2934 0a91 27       		.uleb128 0x27
 2935 0a92 61726700 		.ascii	"arg\000"
 2936 0a96 01       		.byte	0x1
 2937 0a97 F6       		.byte	0xf6
 2938 0a98 F0040000 		.4byte	0x4f0
 2939 0a9c 73000000 		.4byte	.LLST4
 2940 0aa0 28       		.uleb128 0x28
 2941 0aa1 6D736700 		.ascii	"msg\000"
 2942 0aa5 01       		.byte	0x1
 2943 0aa6 F9       		.byte	0xf9
 2944 0aa7 E8000000 		.4byte	0xe8
 2945 0aab 86000000 		.4byte	.LLST5
 2946 0aaf 29       		.uleb128 0x29
 2947 0ab0 05020000 		.4byte	.LASF123
 2948 0ab4 01       		.byte	0x1
 2949 0ab5 FA       		.byte	0xfa
 2950 0ab6 49000000 		.4byte	0x49
 2951 0aba A6000000 		.4byte	.LLST6
 2952 0abe 2A       		.uleb128 0x2a
 2953 0abf 636E7400 		.ascii	"cnt\000"
 2954 0ac3 01       		.byte	0x1
 2955 0ac4 FB       		.byte	0xfb
 2956 0ac5 30000000 		.4byte	0x30
 2957 0ac9 01       		.byte	0x1
 2958 0aca 55       		.byte	0x55
 2959 0acb 28       		.uleb128 0x28
 2960 0acc 6900     		.ascii	"i\000"
 2961 0ace 01       		.byte	0x1
 2962 0acf FB       		.byte	0xfb
 2963 0ad0 30000000 		.4byte	0x30
 2964 0ad4 E0000000 		.4byte	.LLST7
 2965 0ad8 28       		.uleb128 0x28
 2966 0ad9 7100     		.ascii	"q\000"
 2967 0adb 01       		.byte	0x1
 2968 0adc FC       		.byte	0xfc
 2969 0add 300B0000 		.4byte	0xb30
 2970 0ae1 FF000000 		.4byte	.LLST8
 2971 0ae5 2B       		.uleb128 0x2b
 2972 0ae6 00000000 		.4byte	.Ldebug_ranges0+0x0
 2973 0aea FE0A0000 		.4byte	0xafe
 2974 0aee 28       		.uleb128 0x28
 2975 0aef 746D7000 		.ascii	"tmp\000"
 2976 0af3 01       		.byte	0x1
 2977 0af4 FD       		.byte	0xfd
ARM GAS  C:\Users\z80\AppData\Local\Temp\ccSx45O2.s 			page 54


 2978 0af5 86000000 		.4byte	0x86
 2979 0af9 1D010000 		.4byte	.LLST9
 2980 0afd 00       		.byte	0x0
 2981 0afe 2C       		.uleb128 0x2c
 2982 0aff 26000000 		.4byte	.LBB11
 2983 0b03 2C000000 		.4byte	.LBE11
 2984 0b07 1B0B0000 		.4byte	0xb1b
 2985 0b0b 28       		.uleb128 0x28
 2986 0b0c 746D7000 		.ascii	"tmp\000"
 2987 0b10 01       		.byte	0x1
 2988 0b11 FF       		.byte	0xff
 2989 0b12 86000000 		.4byte	0x86
 2990 0b16 30010000 		.4byte	.LLST10
 2991 0b1a 00       		.byte	0x0
 2992 0b1b 2D       		.uleb128 0x2d
 2993 0b1c 18000000 		.4byte	.Ldebug_ranges0+0x18
 2994 0b20 2E       		.uleb128 0x2e
 2995 0b21 7600     		.ascii	"v\000"
 2996 0b23 01       		.byte	0x1
 2997 0b24 0401     		.2byte	0x104
 2998 0b26 49000000 		.4byte	0x49
 2999 0b2a 4E010000 		.4byte	.LLST11
 3000 0b2e 00       		.byte	0x0
 3001 0b2f 00       		.byte	0x0
 3002 0b30 09       		.uleb128 0x9
 3003 0b31 04       		.byte	0x4
 3004 0b32 F6040000 		.4byte	0x4f6
 3005 0b36 26       		.uleb128 0x26
 3006 0b37 4F020000 		.4byte	.LASF124
 3007 0b3b 01       		.byte	0x1
 3008 0b3c B3       		.byte	0xb3
 3009 0b3d 01       		.byte	0x1
 3010 0b3e 00000000 		.4byte	.LFB68
 3011 0b42 30000000 		.4byte	.LFE68
 3012 0b46 61010000 		.4byte	.LLST12
 3013 0b4a 830B0000 		.4byte	0xb83
 3014 0b4e 2F       		.uleb128 0x2f
 3015 0b4f 8B050000 		.4byte	.LASF119
 3016 0b53 01       		.byte	0x1
 3017 0b54 B3       		.byte	0xb3
 3018 0b55 F0040000 		.4byte	0x4f0
 3019 0b59 8D010000 		.4byte	.LLST13
 3020 0b5d 30       		.uleb128 0x30
 3021 0b5e E6010000 		.4byte	.LASF125
 3022 0b62 01       		.byte	0x1
 3023 0b63 B6       		.byte	0xb6
 3024 0b64 930B0000 		.4byte	0xb93
 3025 0b68 02       		.byte	0x2
 3026 0b69 91       		.byte	0x91
 3027 0b6a 68       		.sleb128 -24
 3028 0b6b 31       		.uleb128 0x31
 3029 0b6c 6C00     		.ascii	"l\000"
 3030 0b6e 01       		.byte	0x1
 3031 0b6f B7       		.byte	0xb7
 3032 0b70 29000000 		.4byte	0x29
 3033 0b74 05       		.byte	0x5
 3034 0b75 28       		.uleb128 0x28
ARM GAS  C:\Users\z80\AppData\Local\Temp\ccSx45O2.s 			page 55


 3035 0b76 6900     		.ascii	"i\000"
 3036 0b78 01       		.byte	0x1
 3037 0b79 B8       		.byte	0xb8
 3038 0b7a 29000000 		.4byte	0x29
 3039 0b7e A0010000 		.4byte	.LLST14
 3040 0b82 00       		.byte	0x0
 3041 0b83 1B       		.uleb128 0x1b
 3042 0b84 49000000 		.4byte	0x49
 3043 0b88 930B0000 		.4byte	0xb93
 3044 0b8c 32       		.uleb128 0x32
 3045 0b8d 42030000 		.4byte	0x342
 3046 0b91 05       		.byte	0x5
 3047 0b92 00       		.byte	0x0
 3048 0b93 11       		.uleb128 0x11
 3049 0b94 830B0000 		.4byte	0xb83
 3050 0b98 26       		.uleb128 0x26
 3051 0b99 C3010000 		.4byte	.LASF126
 3052 0b9d 01       		.byte	0x1
 3053 0b9e A8       		.byte	0xa8
 3054 0b9f 01       		.byte	0x1
 3055 0ba0 00000000 		.4byte	.LFB67
 3056 0ba4 30000000 		.4byte	.LFE67
 3057 0ba8 B4010000 		.4byte	.LLST15
 3058 0bac E50B0000 		.4byte	0xbe5
 3059 0bb0 2F       		.uleb128 0x2f
 3060 0bb1 8B050000 		.4byte	.LASF119
 3061 0bb5 01       		.byte	0x1
 3062 0bb6 A8       		.byte	0xa8
 3063 0bb7 F0040000 		.4byte	0x4f0
 3064 0bbb E0010000 		.4byte	.LLST16
 3065 0bbf 30       		.uleb128 0x30
 3066 0bc0 E6010000 		.4byte	.LASF125
 3067 0bc4 01       		.byte	0x1
 3068 0bc5 AB       		.byte	0xab
 3069 0bc6 F50B0000 		.4byte	0xbf5
 3070 0bca 02       		.byte	0x2
 3071 0bcb 91       		.byte	0x91
 3072 0bcc 60       		.sleb128 -32
 3073 0bcd 31       		.uleb128 0x31
 3074 0bce 6C00     		.ascii	"l\000"
 3075 0bd0 01       		.byte	0x1
 3076 0bd1 AC       		.byte	0xac
 3077 0bd2 29000000 		.4byte	0x29
 3078 0bd6 0F       		.byte	0xf
 3079 0bd7 28       		.uleb128 0x28
 3080 0bd8 6900     		.ascii	"i\000"
 3081 0bda 01       		.byte	0x1
 3082 0bdb AD       		.byte	0xad
 3083 0bdc 29000000 		.4byte	0x29
 3084 0be0 F3010000 		.4byte	.LLST17
 3085 0be4 00       		.byte	0x0
 3086 0be5 1B       		.uleb128 0x1b
 3087 0be6 49000000 		.4byte	0x49
 3088 0bea F50B0000 		.4byte	0xbf5
 3089 0bee 32       		.uleb128 0x32
 3090 0bef 42030000 		.4byte	0x342
 3091 0bf3 0F       		.byte	0xf
ARM GAS  C:\Users\z80\AppData\Local\Temp\ccSx45O2.s 			page 56


 3092 0bf4 00       		.byte	0x0
 3093 0bf5 11       		.uleb128 0x11
 3094 0bf6 E50B0000 		.4byte	0xbe5
 3095 0bfa 26       		.uleb128 0x26
 3096 0bfb E6000000 		.4byte	.LASF127
 3097 0bff 01       		.byte	0x1
 3098 0c00 EC       		.byte	0xec
 3099 0c01 01       		.byte	0x1
 3100 0c02 00000000 		.4byte	.LFB74
 3101 0c06 18000000 		.4byte	.LFE74
 3102 0c0a 07020000 		.4byte	.LLST18
 3103 0c0e 2F0C0000 		.4byte	0xc2f
 3104 0c12 27       		.uleb128 0x27
 3105 0c13 61726700 		.ascii	"arg\000"
 3106 0c17 01       		.byte	0x1
 3107 0c18 EC       		.byte	0xec
 3108 0c19 F0040000 		.4byte	0x4f0
 3109 0c1d 27020000 		.4byte	.LLST19
 3110 0c21 28       		.uleb128 0x28
 3111 0c22 7600     		.ascii	"v\000"
 3112 0c24 01       		.byte	0x1
 3113 0c25 EE       		.byte	0xee
 3114 0c26 86000000 		.4byte	0x86
 3115 0c2a 3A020000 		.4byte	.LLST20
 3116 0c2e 00       		.byte	0x0
 3117 0c2f 26       		.uleb128 0x26
 3118 0c30 38020000 		.4byte	.LASF128
 3119 0c34 01       		.byte	0x1
 3120 0c35 E6       		.byte	0xe6
 3121 0c36 01       		.byte	0x1
 3122 0c37 00000000 		.4byte	.LFB73
 3123 0c3b 0A000000 		.4byte	.LFE73
 3124 0c3f 66020000 		.4byte	.LLST21
 3125 0c43 640C0000 		.4byte	0xc64
 3126 0c47 27       		.uleb128 0x27
 3127 0c48 61726700 		.ascii	"arg\000"
 3128 0c4c 01       		.byte	0x1
 3129 0c4d E6       		.byte	0xe6
 3130 0c4e F0040000 		.4byte	0x4f0
 3131 0c52 86020000 		.4byte	.LLST22
 3132 0c56 28       		.uleb128 0x28
 3133 0c57 7600     		.ascii	"v\000"
 3134 0c59 01       		.byte	0x1
 3135 0c5a E8       		.byte	0xe8
 3136 0c5b 49000000 		.4byte	0x49
 3137 0c5f 99020000 		.4byte	.LLST23
 3138 0c63 00       		.byte	0x0
 3139 0c64 26       		.uleb128 0x26
 3140 0c65 20050000 		.4byte	.LASF129
 3141 0c69 01       		.byte	0x1
 3142 0c6a D2       		.byte	0xd2
 3143 0c6b 01       		.byte	0x1
 3144 0c6c 00000000 		.4byte	.LFB72
 3145 0c70 3E000000 		.4byte	.LFE72
 3146 0c74 AD020000 		.4byte	.LLST24
 3147 0c78 BE0C0000 		.4byte	0xcbe
 3148 0c7c 2F       		.uleb128 0x2f
ARM GAS  C:\Users\z80\AppData\Local\Temp\ccSx45O2.s 			page 57


 3149 0c7d 8B050000 		.4byte	.LASF119
 3150 0c81 01       		.byte	0x1
 3151 0c82 D2       		.byte	0xd2
 3152 0c83 F0040000 		.4byte	0x4f0
 3153 0c87 D9020000 		.4byte	.LLST25
 3154 0c8b 2A       		.uleb128 0x2a
 3155 0c8c 72657300 		.ascii	"res\000"
 3156 0c90 01       		.byte	0x1
 3157 0c91 D5       		.byte	0xd5
 3158 0c92 BE0C0000 		.4byte	0xcbe
 3159 0c96 02       		.byte	0x2
 3160 0c97 91       		.byte	0x91
 3161 0c98 60       		.sleb128 -32
 3162 0c99 28       		.uleb128 0x28
 3163 0c9a 6900     		.ascii	"i\000"
 3164 0c9c 01       		.byte	0x1
 3165 0c9d D7       		.byte	0xd7
 3166 0c9e 29000000 		.4byte	0x29
 3167 0ca2 EC020000 		.4byte	.LLST26
 3168 0ca6 33       		.uleb128 0x33
 3169 0ca7 0E000000 		.4byte	.LBB14
 3170 0cab 32000000 		.4byte	.LBE14
 3171 0caf 28       		.uleb128 0x28
 3172 0cb0 6200     		.ascii	"b\000"
 3173 0cb2 01       		.byte	0x1
 3174 0cb3 DA       		.byte	0xda
 3175 0cb4 49000000 		.4byte	0x49
 3176 0cb8 00030000 		.4byte	.LLST27
 3177 0cbc 00       		.byte	0x0
 3178 0cbd 00       		.byte	0x0
 3179 0cbe 1B       		.uleb128 0x1b
 3180 0cbf 29000000 		.4byte	0x29
 3181 0cc3 CE0C0000 		.4byte	0xcce
 3182 0cc7 32       		.uleb128 0x32
 3183 0cc8 42030000 		.4byte	0x342
 3184 0ccc 03       		.byte	0x3
 3185 0ccd 00       		.byte	0x0
 3186 0cce 26       		.uleb128 0x26
 3187 0ccf 82030000 		.4byte	.LASF130
 3188 0cd3 01       		.byte	0x1
 3189 0cd4 CB       		.byte	0xcb
 3190 0cd5 01       		.byte	0x1
 3191 0cd6 00000000 		.4byte	.LFB71
 3192 0cda 1A000000 		.4byte	.LFE71
 3193 0cde 1A030000 		.4byte	.LLST28
 3194 0ce2 0C0D0000 		.4byte	0xd0c
 3195 0ce6 2F       		.uleb128 0x2f
 3196 0ce7 8B050000 		.4byte	.LASF119
 3197 0ceb 01       		.byte	0x1
 3198 0cec CB       		.byte	0xcb
 3199 0ced F0040000 		.4byte	0x4f0
 3200 0cf1 3A030000 		.4byte	.LLST29
 3201 0cf5 1E       		.uleb128 0x1e
 3202 0cf6 8B010000 		.4byte	.LASF131
 3203 0cfa 01       		.byte	0x1
 3204 0cfb CD       		.byte	0xcd
 3205 0cfc 29000000 		.4byte	0x29
ARM GAS  C:\Users\z80\AppData\Local\Temp\ccSx45O2.s 			page 58


 3206 0d00 1E       		.uleb128 0x1e
 3207 0d01 3B030000 		.4byte	.LASF132
 3208 0d05 01       		.byte	0x1
 3209 0d06 CE       		.byte	0xce
 3210 0d07 29000000 		.4byte	0x29
 3211 0d0b 00       		.byte	0x0
 3212 0d0c 26       		.uleb128 0x26
 3213 0d0d 79030000 		.4byte	.LASF133
 3214 0d11 01       		.byte	0x1
 3215 0d12 C4       		.byte	0xc4
 3216 0d13 01       		.byte	0x1
 3217 0d14 00000000 		.4byte	.LFB70
 3218 0d18 1A000000 		.4byte	.LFE70
 3219 0d1c 4D030000 		.4byte	.LLST30
 3220 0d20 4A0D0000 		.4byte	0xd4a
 3221 0d24 2F       		.uleb128 0x2f
 3222 0d25 8B050000 		.4byte	.LASF119
 3223 0d29 01       		.byte	0x1
 3224 0d2a C4       		.byte	0xc4
 3225 0d2b F0040000 		.4byte	0x4f0
 3226 0d2f 6D030000 		.4byte	.LLST31
 3227 0d33 1E       		.uleb128 0x1e
 3228 0d34 8B010000 		.4byte	.LASF131
 3229 0d38 01       		.byte	0x1
 3230 0d39 C6       		.byte	0xc6
 3231 0d3a 29000000 		.4byte	0x29
 3232 0d3e 1E       		.uleb128 0x1e
 3233 0d3f 3B030000 		.4byte	.LASF132
 3234 0d43 01       		.byte	0x1
 3235 0d44 C7       		.byte	0xc7
 3236 0d45 29000000 		.4byte	0x29
 3237 0d49 00       		.byte	0x0
 3238 0d4a 26       		.uleb128 0x26
 3239 0d4b F4020000 		.4byte	.LASF134
 3240 0d4f 01       		.byte	0x1
 3241 0d50 BE       		.byte	0xbe
 3242 0d51 01       		.byte	0x1
 3243 0d52 00000000 		.4byte	.LFB69
 3244 0d56 0A000000 		.4byte	.LFE69
 3245 0d5a 80030000 		.4byte	.LLST32
 3246 0d5e 720D0000 		.4byte	0xd72
 3247 0d62 2F       		.uleb128 0x2f
 3248 0d63 8B050000 		.4byte	.LASF119
 3249 0d67 01       		.byte	0x1
 3250 0d68 BE       		.byte	0xbe
 3251 0d69 F0040000 		.4byte	0x4f0
 3252 0d6d A0030000 		.4byte	.LLST33
 3253 0d71 00       		.byte	0x0
 3254 0d72 34       		.uleb128 0x34
 3255 0d73 01       		.byte	0x1
 3256 0d74 E8040000 		.4byte	.LASF145
 3257 0d78 01       		.byte	0x1
 3258 0d79 2A       		.byte	0x2a
 3259 0d7a 01       		.byte	0x1
 3260 0d7b 00000000 		.4byte	.LFB62
 3261 0d7f 50000000 		.4byte	.LFE62
 3262 0d83 B3030000 		.4byte	.LLST34
ARM GAS  C:\Users\z80\AppData\Local\Temp\ccSx45O2.s 			page 59


 3263 0d87 35       		.uleb128 0x35
 3264 0d88 01       		.byte	0x1
 3265 0d89 8C040000 		.4byte	.LASF146
 3266 0d8d 01       		.byte	0x1
 3267 0d8e 3B       		.byte	0x3b
 3268 0d8f 01       		.byte	0x1
 3269 0d90 00000000 		.4byte	.LFB63
 3270 0d94 C4000000 		.4byte	.LFE63
 3271 0d98 D3030000 		.4byte	.LLST35
 3272 0d9c 5C0E0000 		.4byte	0xe5c
 3273 0da0 30       		.uleb128 0x30
 3274 0da1 62050000 		.4byte	.LASF135
 3275 0da5 01       		.byte	0x1
 3276 0da6 3D       		.byte	0x3d
 3277 0da7 49000000 		.4byte	0x49
 3278 0dab 05       		.byte	0x5
 3279 0dac 03       		.byte	0x3
 3280 0dad 00000000 		.4byte	slash.3767
 3281 0db1 30       		.uleb128 0x30
 3282 0db2 85000000 		.4byte	.LASF136
 3283 0db6 01       		.byte	0x1
 3284 0db7 3E       		.byte	0x3e
 3285 0db8 29000000 		.4byte	0x29
 3286 0dbc 05       		.byte	0x5
 3287 0dbd 03       		.byte	0x3
 3288 0dbe 00000000 		.4byte	out_index.3768
 3289 0dc2 28       		.uleb128 0x28
 3290 0dc3 6D736700 		.ascii	"msg\000"
 3291 0dc7 01       		.byte	0x1
 3292 0dc8 49       		.byte	0x49
 3293 0dc9 E8000000 		.4byte	0xe8
 3294 0dcd F3030000 		.4byte	.LLST36
 3295 0dd1 29       		.uleb128 0x29
 3296 0dd2 05020000 		.4byte	.LASF123
 3297 0dd6 01       		.byte	0x1
 3298 0dd7 4B       		.byte	0x4b
 3299 0dd8 49000000 		.4byte	0x49
 3300 0ddc 13040000 		.4byte	.LLST37
 3301 0de0 2D       		.uleb128 0x2d
 3302 0de1 30000000 		.4byte	.Ldebug_ranges0+0x30
 3303 0de5 28       		.uleb128 0x28
 3304 0de6 7600     		.ascii	"v\000"
 3305 0de8 01       		.byte	0x1
 3306 0de9 4E       		.byte	0x4e
 3307 0dea 49000000 		.4byte	0x49
 3308 0dee 4D040000 		.4byte	.LLST38
 3309 0df2 36       		.uleb128 0x36
 3310 0df3 85090000 		.4byte	0x985
 3311 0df7 1C000000 		.4byte	.LBB18
 3312 0dfb 48000000 		.4byte	.Ldebug_ranges0+0x48
 3313 0dff 01       		.byte	0x1
 3314 0e00 55       		.byte	0x55
 3315 0e01 37       		.uleb128 0x37
 3316 0e02 9D090000 		.4byte	0x99d
 3317 0e06 76040000 		.4byte	.LLST39
 3318 0e0a 37       		.uleb128 0x37
 3319 0e0b 92090000 		.4byte	0x992
ARM GAS  C:\Users\z80\AppData\Local\Temp\ccSx45O2.s 			page 60


 3320 0e0f C1040000 		.4byte	.LLST40
 3321 0e13 2D       		.uleb128 0x2d
 3322 0e14 78000000 		.4byte	.Ldebug_ranges0+0x78
 3323 0e18 38       		.uleb128 0x38
 3324 0e19 A7090000 		.4byte	0x9a7
 3325 0e1d F9040000 		.4byte	.LLST41
 3326 0e21 38       		.uleb128 0x38
 3327 0e22 B0090000 		.4byte	0x9b0
 3328 0e26 0D050000 		.4byte	.LLST42
 3329 0e2a 38       		.uleb128 0x38
 3330 0e2b BB090000 		.4byte	0x9bb
 3331 0e2f 42050000 		.4byte	.LLST43
 3332 0e33 36       		.uleb128 0x36
 3333 0e34 61090000 		.4byte	0x961
 3334 0e38 2C000000 		.4byte	.LBB23
 3335 0e3c A8000000 		.4byte	.Ldebug_ranges0+0xa8
 3336 0e40 01       		.byte	0x1
 3337 0e41 7D       		.byte	0x7d
 3338 0e42 2D       		.uleb128 0x2d
 3339 0e43 C8000000 		.4byte	.Ldebug_ranges0+0xc8
 3340 0e47 38       		.uleb128 0x38
 3341 0e48 6E090000 		.4byte	0x96e
 3342 0e4c 7A050000 		.4byte	.LLST44
 3343 0e50 39       		.uleb128 0x39
 3344 0e51 79090000 		.4byte	0x979
 3345 0e55 0C       		.byte	0xc
 3346 0e56 00       		.byte	0x0
 3347 0e57 00       		.byte	0x0
 3348 0e58 00       		.byte	0x0
 3349 0e59 00       		.byte	0x0
 3350 0e5a 00       		.byte	0x0
 3351 0e5b 00       		.byte	0x0
 3352 0e5c 3A       		.uleb128 0x3a
 3353 0e5d 01       		.byte	0x1
 3354 0e5e 73000000 		.4byte	.LASF147
 3355 0e62 01       		.byte	0x1
 3356 0e63 68       		.byte	0x68
 3357 0e64 01       		.byte	0x1
 3358 0e65 F0040000 		.4byte	0x4f0
 3359 0e69 00000000 		.4byte	.LFB64
 3360 0e6d 0A000000 		.4byte	.LFE64
 3361 0e71 02       		.byte	0x2
 3362 0e72 7D       		.byte	0x7d
 3363 0e73 00       		.sleb128 0
 3364 0e74 3B       		.uleb128 0x3b
 3365 0e75 8F000000 		.4byte	.LASF137
 3366 0e79 11       		.byte	0x11
 3367 0e7a 9404     		.2byte	0x494
 3368 0e7c 36060000 		.4byte	0x636
 3369 0e80 01       		.byte	0x1
 3370 0e81 01       		.byte	0x1
 3371 0e82 3C       		.uleb128 0x3c
 3372 0e83 53443100 		.ascii	"SD1\000"
 3373 0e87 10       		.byte	0x10
 3374 0e88 FB       		.byte	0xfb
 3375 0e89 D1070000 		.4byte	0x7d1
 3376 0e8d 01       		.byte	0x1
ARM GAS  C:\Users\z80\AppData\Local\Temp\ccSx45O2.s 			page 61


 3377 0e8e 01       		.byte	0x1
 3378 0e8f 1B       		.uleb128 0x1b
 3379 0e90 49000000 		.4byte	0x49
 3380 0e94 9F0E0000 		.4byte	0xe9f
 3381 0e98 32       		.uleb128 0x32
 3382 0e99 42030000 		.4byte	0x342
 3383 0e9d 1F       		.byte	0x1f
 3384 0e9e 00       		.byte	0x0
 3385 0e9f 30       		.uleb128 0x30
 3386 0ea0 B5040000 		.4byte	.LASF138
 3387 0ea4 01       		.byte	0x1
 3388 0ea5 19       		.byte	0x19
 3389 0ea6 8F0E0000 		.4byte	0xe8f
 3390 0eaa 05       		.byte	0x5
 3391 0eab 03       		.byte	0x3
 3392 0eac 00000000 		.4byte	buffer
 3393 0eb0 30       		.uleb128 0x30
 3394 0eb1 8B050000 		.4byte	.LASF119
 3395 0eb5 01       		.byte	0x1
 3396 0eb6 1A       		.byte	0x1a
 3397 0eb7 8F0E0000 		.4byte	0xe8f
 3398 0ebb 05       		.byte	0x5
 3399 0ebc 03       		.byte	0x3
 3400 0ebd 00000000 		.4byte	args
 3401 0ec1 30       		.uleb128 0x30
 3402 0ec2 B2030000 		.4byte	.LASF139
 3403 0ec6 01       		.byte	0x1
 3404 0ec7 21       		.byte	0x21
 3405 0ec8 D20E0000 		.4byte	0xed2
 3406 0ecc 05       		.byte	0x5
 3407 0ecd 03       		.byte	0x3
 3408 0ece 00000000 		.4byte	serial_cfg
 3409 0ed2 11       		.uleb128 0x11
 3410 0ed3 A9080000 		.4byte	0x8a9
 3411 0ed7 1B       		.uleb128 0x1b
 3412 0ed8 14060000 		.4byte	0x614
 3413 0edc E70E0000 		.4byte	0xee7
 3414 0ee0 32       		.uleb128 0x32
 3415 0ee1 42030000 		.4byte	0x342
 3416 0ee5 0B       		.byte	0xb
 3417 0ee6 00       		.byte	0x0
 3418 0ee7 30       		.uleb128 0x30
 3419 0ee8 29000000 		.4byte	.LASF140
 3420 0eec 01       		.byte	0x1
 3421 0eed 8F       		.byte	0x8f
 3422 0eee F80E0000 		.4byte	0xef8
 3423 0ef2 05       		.byte	0x5
 3424 0ef3 03       		.byte	0x3
 3425 0ef4 00000000 		.4byte	funcs
 3426 0ef8 11       		.uleb128 0x11
 3427 0ef9 D70E0000 		.4byte	0xed7
 3428 0efd 3B       		.uleb128 0x3b
 3429 0efe 8F000000 		.4byte	.LASF137
 3430 0f02 11       		.byte	0x11
 3431 0f03 9404     		.2byte	0x494
 3432 0f05 36060000 		.4byte	0x636
 3433 0f09 01       		.byte	0x1
ARM GAS  C:\Users\z80\AppData\Local\Temp\ccSx45O2.s 			page 62


 3434 0f0a 01       		.byte	0x1
 3435 0f0b 3C       		.uleb128 0x3c
 3436 0f0c 53443100 		.ascii	"SD1\000"
 3437 0f10 10       		.byte	0x10
 3438 0f11 FB       		.byte	0xfb
 3439 0f12 D1070000 		.4byte	0x7d1
 3440 0f16 01       		.byte	0x1
 3441 0f17 01       		.byte	0x1
 3442 0f18 00       		.byte	0x0
 3443              		.section	.debug_abbrev
 3444 0000 01       		.uleb128 0x1
 3445 0001 11       		.uleb128 0x11
 3446 0002 01       		.byte	0x1
 3447 0003 25       		.uleb128 0x25
 3448 0004 0E       		.uleb128 0xe
 3449 0005 13       		.uleb128 0x13
 3450 0006 0B       		.uleb128 0xb
 3451 0007 03       		.uleb128 0x3
 3452 0008 0E       		.uleb128 0xe
 3453 0009 1B       		.uleb128 0x1b
 3454 000a 0E       		.uleb128 0xe
 3455 000b 11       		.uleb128 0x11
 3456 000c 01       		.uleb128 0x1
 3457 000d 52       		.uleb128 0x52
 3458 000e 01       		.uleb128 0x1
 3459 000f 55       		.uleb128 0x55
 3460 0010 06       		.uleb128 0x6
 3461 0011 10       		.uleb128 0x10
 3462 0012 06       		.uleb128 0x6
 3463 0013 00       		.byte	0x0
 3464 0014 00       		.byte	0x0
 3465 0015 02       		.uleb128 0x2
 3466 0016 24       		.uleb128 0x24
 3467 0017 00       		.byte	0x0
 3468 0018 0B       		.uleb128 0xb
 3469 0019 0B       		.uleb128 0xb
 3470 001a 3E       		.uleb128 0x3e
 3471 001b 0B       		.uleb128 0xb
 3472 001c 03       		.uleb128 0x3
 3473 001d 08       		.uleb128 0x8
 3474 001e 00       		.byte	0x0
 3475 001f 00       		.byte	0x0
 3476 0020 03       		.uleb128 0x3
 3477 0021 16       		.uleb128 0x16
 3478 0022 00       		.byte	0x0
 3479 0023 03       		.uleb128 0x3
 3480 0024 0E       		.uleb128 0xe
 3481 0025 3A       		.uleb128 0x3a
 3482 0026 0B       		.uleb128 0xb
 3483 0027 3B       		.uleb128 0x3b
 3484 0028 0B       		.uleb128 0xb
 3485 0029 49       		.uleb128 0x49
 3486 002a 13       		.uleb128 0x13
 3487 002b 00       		.byte	0x0
 3488 002c 00       		.byte	0x0
 3489 002d 04       		.uleb128 0x4
 3490 002e 24       		.uleb128 0x24
ARM GAS  C:\Users\z80\AppData\Local\Temp\ccSx45O2.s 			page 63


 3491 002f 00       		.byte	0x0
 3492 0030 0B       		.uleb128 0xb
 3493 0031 0B       		.uleb128 0xb
 3494 0032 3E       		.uleb128 0x3e
 3495 0033 0B       		.uleb128 0xb
 3496 0034 03       		.uleb128 0x3
 3497 0035 0E       		.uleb128 0xe
 3498 0036 00       		.byte	0x0
 3499 0037 00       		.byte	0x0
 3500 0038 05       		.uleb128 0x5
 3501 0039 13       		.uleb128 0x13
 3502 003a 01       		.byte	0x1
 3503 003b 03       		.uleb128 0x3
 3504 003c 0E       		.uleb128 0xe
 3505 003d 0B       		.uleb128 0xb
 3506 003e 0B       		.uleb128 0xb
 3507 003f 3A       		.uleb128 0x3a
 3508 0040 0B       		.uleb128 0xb
 3509 0041 3B       		.uleb128 0x3b
 3510 0042 0B       		.uleb128 0xb
 3511 0043 01       		.uleb128 0x1
 3512 0044 13       		.uleb128 0x13
 3513 0045 00       		.byte	0x0
 3514 0046 00       		.byte	0x0
 3515 0047 06       		.uleb128 0x6
 3516 0048 0D       		.uleb128 0xd
 3517 0049 00       		.byte	0x0
 3518 004a 03       		.uleb128 0x3
 3519 004b 0E       		.uleb128 0xe
 3520 004c 3A       		.uleb128 0x3a
 3521 004d 0B       		.uleb128 0xb
 3522 004e 3B       		.uleb128 0x3b
 3523 004f 0B       		.uleb128 0xb
 3524 0050 49       		.uleb128 0x49
 3525 0051 13       		.uleb128 0x13
 3526 0052 38       		.uleb128 0x38
 3527 0053 0A       		.uleb128 0xa
 3528 0054 00       		.byte	0x0
 3529 0055 00       		.byte	0x0
 3530 0056 07       		.uleb128 0x7
 3531 0057 0D       		.uleb128 0xd
 3532 0058 00       		.byte	0x0
 3533 0059 03       		.uleb128 0x3
 3534 005a 08       		.uleb128 0x8
 3535 005b 3A       		.uleb128 0x3a
 3536 005c 0B       		.uleb128 0xb
 3537 005d 3B       		.uleb128 0x3b
 3538 005e 0B       		.uleb128 0xb
 3539 005f 49       		.uleb128 0x49
 3540 0060 13       		.uleb128 0x13
 3541 0061 38       		.uleb128 0x38
 3542 0062 0A       		.uleb128 0xa
 3543 0063 00       		.byte	0x0
 3544 0064 00       		.byte	0x0
 3545 0065 08       		.uleb128 0x8
 3546 0066 13       		.uleb128 0x13
 3547 0067 01       		.byte	0x1
ARM GAS  C:\Users\z80\AppData\Local\Temp\ccSx45O2.s 			page 64


 3548 0068 0B       		.uleb128 0xb
 3549 0069 0B       		.uleb128 0xb
 3550 006a 3A       		.uleb128 0x3a
 3551 006b 0B       		.uleb128 0xb
 3552 006c 3B       		.uleb128 0x3b
 3553 006d 0B       		.uleb128 0xb
 3554 006e 01       		.uleb128 0x1
 3555 006f 13       		.uleb128 0x13
 3556 0070 00       		.byte	0x0
 3557 0071 00       		.byte	0x0
 3558 0072 09       		.uleb128 0x9
 3559 0073 0F       		.uleb128 0xf
 3560 0074 00       		.byte	0x0
 3561 0075 0B       		.uleb128 0xb
 3562 0076 0B       		.uleb128 0xb
 3563 0077 49       		.uleb128 0x49
 3564 0078 13       		.uleb128 0x13
 3565 0079 00       		.byte	0x0
 3566 007a 00       		.byte	0x0
 3567 007b 0A       		.uleb128 0xa
 3568 007c 0F       		.uleb128 0xf
 3569 007d 00       		.byte	0x0
 3570 007e 0B       		.uleb128 0xb
 3571 007f 0B       		.uleb128 0xb
 3572 0080 00       		.byte	0x0
 3573 0081 00       		.byte	0x0
 3574 0082 0B       		.uleb128 0xb
 3575 0083 0D       		.uleb128 0xd
 3576 0084 00       		.byte	0x0
 3577 0085 03       		.uleb128 0x3
 3578 0086 08       		.uleb128 0x8
 3579 0087 3A       		.uleb128 0x3a
 3580 0088 0B       		.uleb128 0xb
 3581 0089 3B       		.uleb128 0x3b
 3582 008a 05       		.uleb128 0x5
 3583 008b 49       		.uleb128 0x49
 3584 008c 13       		.uleb128 0x13
 3585 008d 38       		.uleb128 0x38
 3586 008e 0A       		.uleb128 0xa
 3587 008f 00       		.byte	0x0
 3588 0090 00       		.byte	0x0
 3589 0091 0C       		.uleb128 0xc
 3590 0092 13       		.uleb128 0x13
 3591 0093 01       		.byte	0x1
 3592 0094 03       		.uleb128 0x3
 3593 0095 0E       		.uleb128 0xe
 3594 0096 0B       		.uleb128 0xb
 3595 0097 0B       		.uleb128 0xb
 3596 0098 3A       		.uleb128 0x3a
 3597 0099 0B       		.uleb128 0xb
 3598 009a 3B       		.uleb128 0x3b
 3599 009b 05       		.uleb128 0x5
 3600 009c 01       		.uleb128 0x1
 3601 009d 13       		.uleb128 0x13
 3602 009e 00       		.byte	0x0
 3603 009f 00       		.byte	0x0
 3604 00a0 0D       		.uleb128 0xd
ARM GAS  C:\Users\z80\AppData\Local\Temp\ccSx45O2.s 			page 65


 3605 00a1 35       		.uleb128 0x35
 3606 00a2 00       		.byte	0x0
 3607 00a3 49       		.uleb128 0x49
 3608 00a4 13       		.uleb128 0x13
 3609 00a5 00       		.byte	0x0
 3610 00a6 00       		.byte	0x0
 3611 00a7 0E       		.uleb128 0xe
 3612 00a8 24       		.uleb128 0x24
 3613 00a9 00       		.byte	0x0
 3614 00aa 0B       		.uleb128 0xb
 3615 00ab 0B       		.uleb128 0xb
 3616 00ac 3E       		.uleb128 0x3e
 3617 00ad 0B       		.uleb128 0xb
 3618 00ae 00       		.byte	0x0
 3619 00af 00       		.byte	0x0
 3620 00b0 0F       		.uleb128 0xf
 3621 00b1 17       		.uleb128 0x17
 3622 00b2 01       		.byte	0x1
 3623 00b3 0B       		.uleb128 0xb
 3624 00b4 0B       		.uleb128 0xb
 3625 00b5 3A       		.uleb128 0x3a
 3626 00b6 0B       		.uleb128 0xb
 3627 00b7 3B       		.uleb128 0x3b
 3628 00b8 0B       		.uleb128 0xb
 3629 00b9 01       		.uleb128 0x1
 3630 00ba 13       		.uleb128 0x13
 3631 00bb 00       		.byte	0x0
 3632 00bc 00       		.byte	0x0
 3633 00bd 10       		.uleb128 0x10
 3634 00be 0D       		.uleb128 0xd
 3635 00bf 00       		.byte	0x0
 3636 00c0 03       		.uleb128 0x3
 3637 00c1 0E       		.uleb128 0xe
 3638 00c2 3A       		.uleb128 0x3a
 3639 00c3 0B       		.uleb128 0xb
 3640 00c4 3B       		.uleb128 0x3b
 3641 00c5 0B       		.uleb128 0xb
 3642 00c6 49       		.uleb128 0x49
 3643 00c7 13       		.uleb128 0x13
 3644 00c8 00       		.byte	0x0
 3645 00c9 00       		.byte	0x0
 3646 00ca 11       		.uleb128 0x11
 3647 00cb 26       		.uleb128 0x26
 3648 00cc 00       		.byte	0x0
 3649 00cd 49       		.uleb128 0x49
 3650 00ce 13       		.uleb128 0x13
 3651 00cf 00       		.byte	0x0
 3652 00d0 00       		.byte	0x0
 3653 00d1 12       		.uleb128 0x12
 3654 00d2 15       		.uleb128 0x15
 3655 00d3 01       		.byte	0x1
 3656 00d4 27       		.uleb128 0x27
 3657 00d5 0C       		.uleb128 0xc
 3658 00d6 01       		.uleb128 0x1
 3659 00d7 13       		.uleb128 0x13
 3660 00d8 00       		.byte	0x0
 3661 00d9 00       		.byte	0x0
ARM GAS  C:\Users\z80\AppData\Local\Temp\ccSx45O2.s 			page 66


 3662 00da 13       		.uleb128 0x13
 3663 00db 05       		.uleb128 0x5
 3664 00dc 00       		.byte	0x0
 3665 00dd 49       		.uleb128 0x49
 3666 00de 13       		.uleb128 0x13
 3667 00df 00       		.byte	0x0
 3668 00e0 00       		.byte	0x0
 3669 00e1 14       		.uleb128 0x14
 3670 00e2 15       		.uleb128 0x15
 3671 00e3 01       		.byte	0x1
 3672 00e4 27       		.uleb128 0x27
 3673 00e5 0C       		.uleb128 0xc
 3674 00e6 49       		.uleb128 0x49
 3675 00e7 13       		.uleb128 0x13
 3676 00e8 01       		.uleb128 0x1
 3677 00e9 13       		.uleb128 0x13
 3678 00ea 00       		.byte	0x0
 3679 00eb 00       		.byte	0x0
 3680 00ec 15       		.uleb128 0x15
 3681 00ed 16       		.uleb128 0x16
 3682 00ee 00       		.byte	0x0
 3683 00ef 03       		.uleb128 0x3
 3684 00f0 0E       		.uleb128 0xe
 3685 00f1 3A       		.uleb128 0x3a
 3686 00f2 0B       		.uleb128 0xb
 3687 00f3 3B       		.uleb128 0x3b
 3688 00f4 05       		.uleb128 0x5
 3689 00f5 49       		.uleb128 0x49
 3690 00f6 13       		.uleb128 0x13
 3691 00f7 00       		.byte	0x0
 3692 00f8 00       		.byte	0x0
 3693 00f9 16       		.uleb128 0x16
 3694 00fa 13       		.uleb128 0x13
 3695 00fb 01       		.byte	0x1
 3696 00fc 0B       		.uleb128 0xb
 3697 00fd 0B       		.uleb128 0xb
 3698 00fe 3A       		.uleb128 0x3a
 3699 00ff 0B       		.uleb128 0xb
 3700 0100 3B       		.uleb128 0x3b
 3701 0101 05       		.uleb128 0x5
 3702 0102 01       		.uleb128 0x1
 3703 0103 13       		.uleb128 0x13
 3704 0104 00       		.byte	0x0
 3705 0105 00       		.byte	0x0
 3706 0106 17       		.uleb128 0x17
 3707 0107 0D       		.uleb128 0xd
 3708 0108 00       		.byte	0x0
 3709 0109 03       		.uleb128 0x3
 3710 010a 0E       		.uleb128 0xe
 3711 010b 3A       		.uleb128 0x3a
 3712 010c 0B       		.uleb128 0xb
 3713 010d 3B       		.uleb128 0x3b
 3714 010e 05       		.uleb128 0x5
 3715 010f 49       		.uleb128 0x49
 3716 0110 13       		.uleb128 0x13
 3717 0111 38       		.uleb128 0x38
 3718 0112 0A       		.uleb128 0xa
ARM GAS  C:\Users\z80\AppData\Local\Temp\ccSx45O2.s 			page 67


 3719 0113 00       		.byte	0x0
 3720 0114 00       		.byte	0x0
 3721 0115 18       		.uleb128 0x18
 3722 0116 04       		.uleb128 0x4
 3723 0117 01       		.byte	0x1
 3724 0118 0B       		.uleb128 0xb
 3725 0119 0B       		.uleb128 0xb
 3726 011a 3A       		.uleb128 0x3a
 3727 011b 0B       		.uleb128 0xb
 3728 011c 3B       		.uleb128 0x3b
 3729 011d 0B       		.uleb128 0xb
 3730 011e 01       		.uleb128 0x1
 3731 011f 13       		.uleb128 0x13
 3732 0120 00       		.byte	0x0
 3733 0121 00       		.byte	0x0
 3734 0122 19       		.uleb128 0x19
 3735 0123 28       		.uleb128 0x28
 3736 0124 00       		.byte	0x0
 3737 0125 03       		.uleb128 0x3
 3738 0126 0E       		.uleb128 0xe
 3739 0127 1C       		.uleb128 0x1c
 3740 0128 0D       		.uleb128 0xd
 3741 0129 00       		.byte	0x0
 3742 012a 00       		.byte	0x0
 3743 012b 1A       		.uleb128 0x1a
 3744 012c 13       		.uleb128 0x13
 3745 012d 01       		.byte	0x1
 3746 012e 03       		.uleb128 0x3
 3747 012f 0E       		.uleb128 0xe
 3748 0130 0B       		.uleb128 0xb
 3749 0131 05       		.uleb128 0x5
 3750 0132 3A       		.uleb128 0x3a
 3751 0133 0B       		.uleb128 0xb
 3752 0134 3B       		.uleb128 0x3b
 3753 0135 0B       		.uleb128 0xb
 3754 0136 01       		.uleb128 0x1
 3755 0137 13       		.uleb128 0x13
 3756 0138 00       		.byte	0x0
 3757 0139 00       		.byte	0x0
 3758 013a 1B       		.uleb128 0x1b
 3759 013b 01       		.uleb128 0x1
 3760 013c 01       		.byte	0x1
 3761 013d 49       		.uleb128 0x49
 3762 013e 13       		.uleb128 0x13
 3763 013f 01       		.uleb128 0x1
 3764 0140 13       		.uleb128 0x13
 3765 0141 00       		.byte	0x0
 3766 0142 00       		.byte	0x0
 3767 0143 1C       		.uleb128 0x1c
 3768 0144 21       		.uleb128 0x21
 3769 0145 00       		.byte	0x0
 3770 0146 49       		.uleb128 0x49
 3771 0147 13       		.uleb128 0x13
 3772 0148 2F       		.uleb128 0x2f
 3773 0149 05       		.uleb128 0x5
 3774 014a 00       		.byte	0x0
 3775 014b 00       		.byte	0x0
ARM GAS  C:\Users\z80\AppData\Local\Temp\ccSx45O2.s 			page 68


 3776 014c 1D       		.uleb128 0x1d
 3777 014d 2E       		.uleb128 0x2e
 3778 014e 01       		.byte	0x1
 3779 014f 03       		.uleb128 0x3
 3780 0150 0E       		.uleb128 0xe
 3781 0151 3A       		.uleb128 0x3a
 3782 0152 0B       		.uleb128 0xb
 3783 0153 3B       		.uleb128 0x3b
 3784 0154 0B       		.uleb128 0xb
 3785 0155 27       		.uleb128 0x27
 3786 0156 0C       		.uleb128 0xc
 3787 0157 20       		.uleb128 0x20
 3788 0158 0B       		.uleb128 0xb
 3789 0159 01       		.uleb128 0x1
 3790 015a 13       		.uleb128 0x13
 3791 015b 00       		.byte	0x0
 3792 015c 00       		.byte	0x0
 3793 015d 1E       		.uleb128 0x1e
 3794 015e 34       		.uleb128 0x34
 3795 015f 00       		.byte	0x0
 3796 0160 03       		.uleb128 0x3
 3797 0161 0E       		.uleb128 0xe
 3798 0162 3A       		.uleb128 0x3a
 3799 0163 0B       		.uleb128 0xb
 3800 0164 3B       		.uleb128 0x3b
 3801 0165 0B       		.uleb128 0xb
 3802 0166 49       		.uleb128 0x49
 3803 0167 13       		.uleb128 0x13
 3804 0168 00       		.byte	0x0
 3805 0169 00       		.byte	0x0
 3806 016a 1F       		.uleb128 0x1f
 3807 016b 05       		.uleb128 0x5
 3808 016c 00       		.byte	0x0
 3809 016d 03       		.uleb128 0x3
 3810 016e 08       		.uleb128 0x8
 3811 016f 3A       		.uleb128 0x3a
 3812 0170 0B       		.uleb128 0xb
 3813 0171 3B       		.uleb128 0x3b
 3814 0172 0B       		.uleb128 0xb
 3815 0173 49       		.uleb128 0x49
 3816 0174 13       		.uleb128 0x13
 3817 0175 00       		.byte	0x0
 3818 0176 00       		.byte	0x0
 3819 0177 20       		.uleb128 0x20
 3820 0178 34       		.uleb128 0x34
 3821 0179 00       		.byte	0x0
 3822 017a 03       		.uleb128 0x3
 3823 017b 08       		.uleb128 0x8
 3824 017c 3A       		.uleb128 0x3a
 3825 017d 0B       		.uleb128 0xb
 3826 017e 3B       		.uleb128 0x3b
 3827 017f 0B       		.uleb128 0xb
 3828 0180 49       		.uleb128 0x49
 3829 0181 13       		.uleb128 0x13
 3830 0182 00       		.byte	0x0
 3831 0183 00       		.byte	0x0
 3832 0184 21       		.uleb128 0x21
ARM GAS  C:\Users\z80\AppData\Local\Temp\ccSx45O2.s 			page 69


 3833 0185 2E       		.uleb128 0x2e
 3834 0186 01       		.byte	0x1
 3835 0187 03       		.uleb128 0x3
 3836 0188 0E       		.uleb128 0xe
 3837 0189 3A       		.uleb128 0x3a
 3838 018a 0B       		.uleb128 0xb
 3839 018b 3B       		.uleb128 0x3b
 3840 018c 05       		.uleb128 0x5
 3841 018d 27       		.uleb128 0x27
 3842 018e 0C       		.uleb128 0xc
 3843 018f 11       		.uleb128 0x11
 3844 0190 01       		.uleb128 0x1
 3845 0191 12       		.uleb128 0x12
 3846 0192 01       		.uleb128 0x1
 3847 0193 40       		.uleb128 0x40
 3848 0194 0A       		.uleb128 0xa
 3849 0195 01       		.uleb128 0x1
 3850 0196 13       		.uleb128 0x13
 3851 0197 00       		.byte	0x0
 3852 0198 00       		.byte	0x0
 3853 0199 22       		.uleb128 0x22
 3854 019a 05       		.uleb128 0x5
 3855 019b 00       		.byte	0x0
 3856 019c 03       		.uleb128 0x3
 3857 019d 0E       		.uleb128 0xe
 3858 019e 3A       		.uleb128 0x3a
 3859 019f 0B       		.uleb128 0xb
 3860 01a0 3B       		.uleb128 0x3b
 3861 01a1 05       		.uleb128 0x5
 3862 01a2 49       		.uleb128 0x49
 3863 01a3 13       		.uleb128 0x13
 3864 01a4 02       		.uleb128 0x2
 3865 01a5 0A       		.uleb128 0xa
 3866 01a6 00       		.byte	0x0
 3867 01a7 00       		.byte	0x0
 3868 01a8 23       		.uleb128 0x23
 3869 01a9 2E       		.uleb128 0x2e
 3870 01aa 01       		.byte	0x1
 3871 01ab 03       		.uleb128 0x3
 3872 01ac 0E       		.uleb128 0xe
 3873 01ad 3A       		.uleb128 0x3a
 3874 01ae 0B       		.uleb128 0xb
 3875 01af 3B       		.uleb128 0x3b
 3876 01b0 05       		.uleb128 0x5
 3877 01b1 27       		.uleb128 0x27
 3878 01b2 0C       		.uleb128 0xc
 3879 01b3 11       		.uleb128 0x11
 3880 01b4 01       		.uleb128 0x1
 3881 01b5 12       		.uleb128 0x12
 3882 01b6 01       		.uleb128 0x1
 3883 01b7 40       		.uleb128 0x40
 3884 01b8 06       		.uleb128 0x6
 3885 01b9 01       		.uleb128 0x1
 3886 01ba 13       		.uleb128 0x13
 3887 01bb 00       		.byte	0x0
 3888 01bc 00       		.byte	0x0
 3889 01bd 24       		.uleb128 0x24
ARM GAS  C:\Users\z80\AppData\Local\Temp\ccSx45O2.s 			page 70


 3890 01be 05       		.uleb128 0x5
 3891 01bf 00       		.byte	0x0
 3892 01c0 03       		.uleb128 0x3
 3893 01c1 08       		.uleb128 0x8
 3894 01c2 3A       		.uleb128 0x3a
 3895 01c3 0B       		.uleb128 0xb
 3896 01c4 3B       		.uleb128 0x3b
 3897 01c5 05       		.uleb128 0x5
 3898 01c6 49       		.uleb128 0x49
 3899 01c7 13       		.uleb128 0x13
 3900 01c8 02       		.uleb128 0x2
 3901 01c9 06       		.uleb128 0x6
 3902 01ca 00       		.byte	0x0
 3903 01cb 00       		.byte	0x0
 3904 01cc 25       		.uleb128 0x25
 3905 01cd 2E       		.uleb128 0x2e
 3906 01ce 00       		.byte	0x0
 3907 01cf 03       		.uleb128 0x3
 3908 01d0 0E       		.uleb128 0xe
 3909 01d1 3A       		.uleb128 0x3a
 3910 01d2 0B       		.uleb128 0xb
 3911 01d3 3B       		.uleb128 0x3b
 3912 01d4 05       		.uleb128 0x5
 3913 01d5 27       		.uleb128 0x27
 3914 01d6 0C       		.uleb128 0xc
 3915 01d7 11       		.uleb128 0x11
 3916 01d8 01       		.uleb128 0x1
 3917 01d9 12       		.uleb128 0x12
 3918 01da 01       		.uleb128 0x1
 3919 01db 40       		.uleb128 0x40
 3920 01dc 06       		.uleb128 0x6
 3921 01dd 00       		.byte	0x0
 3922 01de 00       		.byte	0x0
 3923 01df 26       		.uleb128 0x26
 3924 01e0 2E       		.uleb128 0x2e
 3925 01e1 01       		.byte	0x1
 3926 01e2 03       		.uleb128 0x3
 3927 01e3 0E       		.uleb128 0xe
 3928 01e4 3A       		.uleb128 0x3a
 3929 01e5 0B       		.uleb128 0xb
 3930 01e6 3B       		.uleb128 0x3b
 3931 01e7 0B       		.uleb128 0xb
 3932 01e8 27       		.uleb128 0x27
 3933 01e9 0C       		.uleb128 0xc
 3934 01ea 11       		.uleb128 0x11
 3935 01eb 01       		.uleb128 0x1
 3936 01ec 12       		.uleb128 0x12
 3937 01ed 01       		.uleb128 0x1
 3938 01ee 40       		.uleb128 0x40
 3939 01ef 06       		.uleb128 0x6
 3940 01f0 01       		.uleb128 0x1
 3941 01f1 13       		.uleb128 0x13
 3942 01f2 00       		.byte	0x0
 3943 01f3 00       		.byte	0x0
 3944 01f4 27       		.uleb128 0x27
 3945 01f5 05       		.uleb128 0x5
 3946 01f6 00       		.byte	0x0
ARM GAS  C:\Users\z80\AppData\Local\Temp\ccSx45O2.s 			page 71


 3947 01f7 03       		.uleb128 0x3
 3948 01f8 08       		.uleb128 0x8
 3949 01f9 3A       		.uleb128 0x3a
 3950 01fa 0B       		.uleb128 0xb
 3951 01fb 3B       		.uleb128 0x3b
 3952 01fc 0B       		.uleb128 0xb
 3953 01fd 49       		.uleb128 0x49
 3954 01fe 13       		.uleb128 0x13
 3955 01ff 02       		.uleb128 0x2
 3956 0200 06       		.uleb128 0x6
 3957 0201 00       		.byte	0x0
 3958 0202 00       		.byte	0x0
 3959 0203 28       		.uleb128 0x28
 3960 0204 34       		.uleb128 0x34
 3961 0205 00       		.byte	0x0
 3962 0206 03       		.uleb128 0x3
 3963 0207 08       		.uleb128 0x8
 3964 0208 3A       		.uleb128 0x3a
 3965 0209 0B       		.uleb128 0xb
 3966 020a 3B       		.uleb128 0x3b
 3967 020b 0B       		.uleb128 0xb
 3968 020c 49       		.uleb128 0x49
 3969 020d 13       		.uleb128 0x13
 3970 020e 02       		.uleb128 0x2
 3971 020f 06       		.uleb128 0x6
 3972 0210 00       		.byte	0x0
 3973 0211 00       		.byte	0x0
 3974 0212 29       		.uleb128 0x29
 3975 0213 34       		.uleb128 0x34
 3976 0214 00       		.byte	0x0
 3977 0215 03       		.uleb128 0x3
 3978 0216 0E       		.uleb128 0xe
 3979 0217 3A       		.uleb128 0x3a
 3980 0218 0B       		.uleb128 0xb
 3981 0219 3B       		.uleb128 0x3b
 3982 021a 0B       		.uleb128 0xb
 3983 021b 49       		.uleb128 0x49
 3984 021c 13       		.uleb128 0x13
 3985 021d 02       		.uleb128 0x2
 3986 021e 06       		.uleb128 0x6
 3987 021f 00       		.byte	0x0
 3988 0220 00       		.byte	0x0
 3989 0221 2A       		.uleb128 0x2a
 3990 0222 34       		.uleb128 0x34
 3991 0223 00       		.byte	0x0
 3992 0224 03       		.uleb128 0x3
 3993 0225 08       		.uleb128 0x8
 3994 0226 3A       		.uleb128 0x3a
 3995 0227 0B       		.uleb128 0xb
 3996 0228 3B       		.uleb128 0x3b
 3997 0229 0B       		.uleb128 0xb
 3998 022a 49       		.uleb128 0x49
 3999 022b 13       		.uleb128 0x13
 4000 022c 02       		.uleb128 0x2
 4001 022d 0A       		.uleb128 0xa
 4002 022e 00       		.byte	0x0
 4003 022f 00       		.byte	0x0
ARM GAS  C:\Users\z80\AppData\Local\Temp\ccSx45O2.s 			page 72


 4004 0230 2B       		.uleb128 0x2b
 4005 0231 0B       		.uleb128 0xb
 4006 0232 01       		.byte	0x1
 4007 0233 55       		.uleb128 0x55
 4008 0234 06       		.uleb128 0x6
 4009 0235 01       		.uleb128 0x1
 4010 0236 13       		.uleb128 0x13
 4011 0237 00       		.byte	0x0
 4012 0238 00       		.byte	0x0
 4013 0239 2C       		.uleb128 0x2c
 4014 023a 0B       		.uleb128 0xb
 4015 023b 01       		.byte	0x1
 4016 023c 11       		.uleb128 0x11
 4017 023d 01       		.uleb128 0x1
 4018 023e 12       		.uleb128 0x12
 4019 023f 01       		.uleb128 0x1
 4020 0240 01       		.uleb128 0x1
 4021 0241 13       		.uleb128 0x13
 4022 0242 00       		.byte	0x0
 4023 0243 00       		.byte	0x0
 4024 0244 2D       		.uleb128 0x2d
 4025 0245 0B       		.uleb128 0xb
 4026 0246 01       		.byte	0x1
 4027 0247 55       		.uleb128 0x55
 4028 0248 06       		.uleb128 0x6
 4029 0249 00       		.byte	0x0
 4030 024a 00       		.byte	0x0
 4031 024b 2E       		.uleb128 0x2e
 4032 024c 34       		.uleb128 0x34
 4033 024d 00       		.byte	0x0
 4034 024e 03       		.uleb128 0x3
 4035 024f 08       		.uleb128 0x8
 4036 0250 3A       		.uleb128 0x3a
 4037 0251 0B       		.uleb128 0xb
 4038 0252 3B       		.uleb128 0x3b
 4039 0253 05       		.uleb128 0x5
 4040 0254 49       		.uleb128 0x49
 4041 0255 13       		.uleb128 0x13
 4042 0256 02       		.uleb128 0x2
 4043 0257 06       		.uleb128 0x6
 4044 0258 00       		.byte	0x0
 4045 0259 00       		.byte	0x0
 4046 025a 2F       		.uleb128 0x2f
 4047 025b 05       		.uleb128 0x5
 4048 025c 00       		.byte	0x0
 4049 025d 03       		.uleb128 0x3
 4050 025e 0E       		.uleb128 0xe
 4051 025f 3A       		.uleb128 0x3a
 4052 0260 0B       		.uleb128 0xb
 4053 0261 3B       		.uleb128 0x3b
 4054 0262 0B       		.uleb128 0xb
 4055 0263 49       		.uleb128 0x49
 4056 0264 13       		.uleb128 0x13
 4057 0265 02       		.uleb128 0x2
 4058 0266 06       		.uleb128 0x6
 4059 0267 00       		.byte	0x0
 4060 0268 00       		.byte	0x0
ARM GAS  C:\Users\z80\AppData\Local\Temp\ccSx45O2.s 			page 73


 4061 0269 30       		.uleb128 0x30
 4062 026a 34       		.uleb128 0x34
 4063 026b 00       		.byte	0x0
 4064 026c 03       		.uleb128 0x3
 4065 026d 0E       		.uleb128 0xe
 4066 026e 3A       		.uleb128 0x3a
 4067 026f 0B       		.uleb128 0xb
 4068 0270 3B       		.uleb128 0x3b
 4069 0271 0B       		.uleb128 0xb
 4070 0272 49       		.uleb128 0x49
 4071 0273 13       		.uleb128 0x13
 4072 0274 02       		.uleb128 0x2
 4073 0275 0A       		.uleb128 0xa
 4074 0276 00       		.byte	0x0
 4075 0277 00       		.byte	0x0
 4076 0278 31       		.uleb128 0x31
 4077 0279 34       		.uleb128 0x34
 4078 027a 00       		.byte	0x0
 4079 027b 03       		.uleb128 0x3
 4080 027c 08       		.uleb128 0x8
 4081 027d 3A       		.uleb128 0x3a
 4082 027e 0B       		.uleb128 0xb
 4083 027f 3B       		.uleb128 0x3b
 4084 0280 0B       		.uleb128 0xb
 4085 0281 49       		.uleb128 0x49
 4086 0282 13       		.uleb128 0x13
 4087 0283 1C       		.uleb128 0x1c
 4088 0284 0B       		.uleb128 0xb
 4089 0285 00       		.byte	0x0
 4090 0286 00       		.byte	0x0
 4091 0287 32       		.uleb128 0x32
 4092 0288 21       		.uleb128 0x21
 4093 0289 00       		.byte	0x0
 4094 028a 49       		.uleb128 0x49
 4095 028b 13       		.uleb128 0x13
 4096 028c 2F       		.uleb128 0x2f
 4097 028d 0B       		.uleb128 0xb
 4098 028e 00       		.byte	0x0
 4099 028f 00       		.byte	0x0
 4100 0290 33       		.uleb128 0x33
 4101 0291 0B       		.uleb128 0xb
 4102 0292 01       		.byte	0x1
 4103 0293 11       		.uleb128 0x11
 4104 0294 01       		.uleb128 0x1
 4105 0295 12       		.uleb128 0x12
 4106 0296 01       		.uleb128 0x1
 4107 0297 00       		.byte	0x0
 4108 0298 00       		.byte	0x0
 4109 0299 34       		.uleb128 0x34
 4110 029a 2E       		.uleb128 0x2e
 4111 029b 00       		.byte	0x0
 4112 029c 3F       		.uleb128 0x3f
 4113 029d 0C       		.uleb128 0xc
 4114 029e 03       		.uleb128 0x3
 4115 029f 0E       		.uleb128 0xe
 4116 02a0 3A       		.uleb128 0x3a
 4117 02a1 0B       		.uleb128 0xb
ARM GAS  C:\Users\z80\AppData\Local\Temp\ccSx45O2.s 			page 74


 4118 02a2 3B       		.uleb128 0x3b
 4119 02a3 0B       		.uleb128 0xb
 4120 02a4 27       		.uleb128 0x27
 4121 02a5 0C       		.uleb128 0xc
 4122 02a6 11       		.uleb128 0x11
 4123 02a7 01       		.uleb128 0x1
 4124 02a8 12       		.uleb128 0x12
 4125 02a9 01       		.uleb128 0x1
 4126 02aa 40       		.uleb128 0x40
 4127 02ab 06       		.uleb128 0x6
 4128 02ac 00       		.byte	0x0
 4129 02ad 00       		.byte	0x0
 4130 02ae 35       		.uleb128 0x35
 4131 02af 2E       		.uleb128 0x2e
 4132 02b0 01       		.byte	0x1
 4133 02b1 3F       		.uleb128 0x3f
 4134 02b2 0C       		.uleb128 0xc
 4135 02b3 03       		.uleb128 0x3
 4136 02b4 0E       		.uleb128 0xe
 4137 02b5 3A       		.uleb128 0x3a
 4138 02b6 0B       		.uleb128 0xb
 4139 02b7 3B       		.uleb128 0x3b
 4140 02b8 0B       		.uleb128 0xb
 4141 02b9 27       		.uleb128 0x27
 4142 02ba 0C       		.uleb128 0xc
 4143 02bb 11       		.uleb128 0x11
 4144 02bc 01       		.uleb128 0x1
 4145 02bd 12       		.uleb128 0x12
 4146 02be 01       		.uleb128 0x1
 4147 02bf 40       		.uleb128 0x40
 4148 02c0 06       		.uleb128 0x6
 4149 02c1 01       		.uleb128 0x1
 4150 02c2 13       		.uleb128 0x13
 4151 02c3 00       		.byte	0x0
 4152 02c4 00       		.byte	0x0
 4153 02c5 36       		.uleb128 0x36
 4154 02c6 1D       		.uleb128 0x1d
 4155 02c7 01       		.byte	0x1
 4156 02c8 31       		.uleb128 0x31
 4157 02c9 13       		.uleb128 0x13
 4158 02ca 52       		.uleb128 0x52
 4159 02cb 01       		.uleb128 0x1
 4160 02cc 55       		.uleb128 0x55
 4161 02cd 06       		.uleb128 0x6
 4162 02ce 58       		.uleb128 0x58
 4163 02cf 0B       		.uleb128 0xb
 4164 02d0 59       		.uleb128 0x59
 4165 02d1 0B       		.uleb128 0xb
 4166 02d2 00       		.byte	0x0
 4167 02d3 00       		.byte	0x0
 4168 02d4 37       		.uleb128 0x37
 4169 02d5 05       		.uleb128 0x5
 4170 02d6 00       		.byte	0x0
 4171 02d7 31       		.uleb128 0x31
 4172 02d8 13       		.uleb128 0x13
 4173 02d9 02       		.uleb128 0x2
 4174 02da 06       		.uleb128 0x6
ARM GAS  C:\Users\z80\AppData\Local\Temp\ccSx45O2.s 			page 75


 4175 02db 00       		.byte	0x0
 4176 02dc 00       		.byte	0x0
 4177 02dd 38       		.uleb128 0x38
 4178 02de 34       		.uleb128 0x34
 4179 02df 00       		.byte	0x0
 4180 02e0 31       		.uleb128 0x31
 4181 02e1 13       		.uleb128 0x13
 4182 02e2 02       		.uleb128 0x2
 4183 02e3 06       		.uleb128 0x6
 4184 02e4 00       		.byte	0x0
 4185 02e5 00       		.byte	0x0
 4186 02e6 39       		.uleb128 0x39
 4187 02e7 34       		.uleb128 0x34
 4188 02e8 00       		.byte	0x0
 4189 02e9 31       		.uleb128 0x31
 4190 02ea 13       		.uleb128 0x13
 4191 02eb 1C       		.uleb128 0x1c
 4192 02ec 0B       		.uleb128 0xb
 4193 02ed 00       		.byte	0x0
 4194 02ee 00       		.byte	0x0
 4195 02ef 3A       		.uleb128 0x3a
 4196 02f0 2E       		.uleb128 0x2e
 4197 02f1 00       		.byte	0x0
 4198 02f2 3F       		.uleb128 0x3f
 4199 02f3 0C       		.uleb128 0xc
 4200 02f4 03       		.uleb128 0x3
 4201 02f5 0E       		.uleb128 0xe
 4202 02f6 3A       		.uleb128 0x3a
 4203 02f7 0B       		.uleb128 0xb
 4204 02f8 3B       		.uleb128 0x3b
 4205 02f9 0B       		.uleb128 0xb
 4206 02fa 27       		.uleb128 0x27
 4207 02fb 0C       		.uleb128 0xc
 4208 02fc 49       		.uleb128 0x49
 4209 02fd 13       		.uleb128 0x13
 4210 02fe 11       		.uleb128 0x11
 4211 02ff 01       		.uleb128 0x1
 4212 0300 12       		.uleb128 0x12
 4213 0301 01       		.uleb128 0x1
 4214 0302 40       		.uleb128 0x40
 4215 0303 0A       		.uleb128 0xa
 4216 0304 00       		.byte	0x0
 4217 0305 00       		.byte	0x0
 4218 0306 3B       		.uleb128 0x3b
 4219 0307 34       		.uleb128 0x34
 4220 0308 00       		.byte	0x0
 4221 0309 03       		.uleb128 0x3
 4222 030a 0E       		.uleb128 0xe
 4223 030b 3A       		.uleb128 0x3a
 4224 030c 0B       		.uleb128 0xb
 4225 030d 3B       		.uleb128 0x3b
 4226 030e 05       		.uleb128 0x5
 4227 030f 49       		.uleb128 0x49
 4228 0310 13       		.uleb128 0x13
 4229 0311 3F       		.uleb128 0x3f
 4230 0312 0C       		.uleb128 0xc
 4231 0313 3C       		.uleb128 0x3c
ARM GAS  C:\Users\z80\AppData\Local\Temp\ccSx45O2.s 			page 76


 4232 0314 0C       		.uleb128 0xc
 4233 0315 00       		.byte	0x0
 4234 0316 00       		.byte	0x0
 4235 0317 3C       		.uleb128 0x3c
 4236 0318 34       		.uleb128 0x34
 4237 0319 00       		.byte	0x0
 4238 031a 03       		.uleb128 0x3
 4239 031b 08       		.uleb128 0x8
 4240 031c 3A       		.uleb128 0x3a
 4241 031d 0B       		.uleb128 0xb
 4242 031e 3B       		.uleb128 0x3b
 4243 031f 0B       		.uleb128 0xb
 4244 0320 49       		.uleb128 0x49
 4245 0321 13       		.uleb128 0x13
 4246 0322 3F       		.uleb128 0x3f
 4247 0323 0C       		.uleb128 0xc
 4248 0324 3C       		.uleb128 0x3c
 4249 0325 0C       		.uleb128 0xc
 4250 0326 00       		.byte	0x0
 4251 0327 00       		.byte	0x0
 4252 0328 00       		.byte	0x0
 4253              		.section	.debug_pubnames,"",%progbits
 4254 0000 3A000000 		.4byte	0x3a
 4255 0004 0200     		.2byte	0x2
 4256 0006 00000000 		.4byte	.Ldebug_info0
 4257 000a 190F0000 		.4byte	0xf19
 4258 000e 720D0000 		.4byte	0xd72
 4259 0012 696E6974 		.ascii	"initCpuIo\000"
 4259      43707549 
 4259      6F00
 4260 001c 870D0000 		.4byte	0xd87
 4261 0020 70726F63 		.ascii	"processCpuIo\000"
 4261      65737343 
 4261      7075496F 
 4261      00
 4262 002d 5C0E0000 		.4byte	0xe5c
 4263 0031 66756E63 		.ascii	"funcArgs\000"
 4263      41726773 
 4263      00
 4264 003a 00000000 		.4byte	0x0
 4265              		.section	.debug_pubtypes,"",%progbits
 4266 0000 74020000 		.4byte	0x274
 4267 0004 0200     		.2byte	0x2
 4268 0006 00000000 		.4byte	.Ldebug_info0
 4269 000a 190F0000 		.4byte	0xf19
 4270 000e 30000000 		.4byte	0x30
 4271 0012 73697A65 		.ascii	"size_t\000"
 4271      5F7400
 4272 0019 49000000 		.4byte	0x49
 4273 001d 75696E74 		.ascii	"uint8_t\000"
 4273      385F7400 
 4274 0025 62000000 		.4byte	0x62
 4275 0029 75696E74 		.ascii	"uint16_t\000"
 4275      31365F74 
 4275      00
 4276 0032 74000000 		.4byte	0x74
 4277 0036 696E7433 		.ascii	"int32_t\000"
ARM GAS  C:\Users\z80\AppData\Local\Temp\ccSx45O2.s 			page 77


 4277      325F7400 
 4278 003e 86000000 		.4byte	0x86
 4279 0042 75696E74 		.ascii	"uint32_t\000"
 4279      33325F74 
 4279      00
 4280 004b 9F000000 		.4byte	0x9f
 4281 004f 75696E74 		.ascii	"uint64_t\000"
 4281      36345F74 
 4281      00
 4282 0058 B1000000 		.4byte	0xb1
 4283 005c 75696E74 		.ascii	"uint_fast16_t\000"
 4283      5F666173 
 4283      7431365F 
 4283      7400
 4284 006a BC000000 		.4byte	0xbc
 4285 006e 626F6F6C 		.ascii	"bool_t\000"
 4285      5F7400
 4286 0075 C7000000 		.4byte	0xc7
 4287 0079 746D6F64 		.ascii	"tmode_t\000"
 4287      655F7400 
 4288 0081 D2000000 		.4byte	0xd2
 4289 0085 74737461 		.ascii	"tstate_t\000"
 4289      74655F74 
 4289      00
 4290 008e DD000000 		.4byte	0xdd
 4291 0092 74707269 		.ascii	"tprio_t\000"
 4291      6F5F7400 
 4292 009a E8000000 		.4byte	0xe8
 4293 009e 6D73675F 		.ascii	"msg_t\000"
 4293      7400
 4294 00a4 F3000000 		.4byte	0xf3
 4295 00a8 6576656E 		.ascii	"eventmask_t\000"
 4295      746D6173 
 4295      6B5F7400 
 4296 00b4 FE000000 		.4byte	0xfe
 4297 00b8 73797374 		.ascii	"systime_t\000"
 4297      696D655F 
 4297      7400
 4298 00c2 09010000 		.4byte	0x109
 4299 00c6 54687265 		.ascii	"Thread\000"
 4299      616400
 4300 00cd 48020000 		.4byte	0x248
 4301 00d1 54687265 		.ascii	"ThreadsQueue\000"
 4301      61647351 
 4301      75657565 
 4301      00
 4302 00de 6A020000 		.4byte	0x26a
 4303 00e2 54687265 		.ascii	"ThreadsList\000"
 4303      6164734C 
 4303      69737400 
 4304 00ee 75020000 		.4byte	0x275
 4305 00f2 72656761 		.ascii	"regarm_t\000"
 4305      726D5F74 
 4305      00
 4306 00fb 82020000 		.4byte	0x282
 4307 00ff 73746B61 		.ascii	"stkalign_t\000"
 4307      6C69676E 
ARM GAS  C:\Users\z80\AppData\Local\Temp\ccSx45O2.s 			page 78


 4307      5F7400
 4308 010a 8D020000 		.4byte	0x28d
 4309 010e 696E7463 		.ascii	"intctx\000"
 4309      747800
 4310 0115 1A030000 		.4byte	0x31a
 4311 0119 636F6E74 		.ascii	"context\000"
 4311      65787400 
 4312 0121 4A030000 		.4byte	0x34a
 4313 0125 4D757465 		.ascii	"Mutex\000"
 4313      7800
 4314 012b 87030000 		.4byte	0x387
 4315 012f 4D757465 		.ascii	"Mutex\000"
 4315      7800
 4316 0135 92030000 		.4byte	0x392
 4317 0139 4576656E 		.ascii	"EventListener\000"
 4317      744C6973 
 4317      74656E65 
 4317      7200
 4318 0147 9D030000 		.4byte	0x39d
 4319 014b 4576656E 		.ascii	"EventListener\000"
 4319      744C6973 
 4319      74656E65 
 4319      7200
 4320 0159 DA030000 		.4byte	0x3da
 4321 015d 4576656E 		.ascii	"EventSource\000"
 4321      74536F75 
 4321      72636500 
 4322 0169 F5030000 		.4byte	0x3f5
 4323 016d 4576656E 		.ascii	"EventSource\000"
 4323      74536F75 
 4323      72636500 
 4324 0179 14010000 		.4byte	0x114
 4325 017d 54687265 		.ascii	"Thread\000"
 4325      616400
 4326 0184 53040000 		.4byte	0x453
 4327 0188 47656E65 		.ascii	"GenericQueue\000"
 4327      72696351 
 4327      75657565 
 4327      00
 4328 0195 CD040000 		.4byte	0x4cd
 4329 0199 716E6F74 		.ascii	"qnotify_t\000"
 4329      6966795F 
 4329      7400
 4330 01a3 5E040000 		.4byte	0x45e
 4331 01a7 47656E65 		.ascii	"GenericQueue\000"
 4331      72696351 
 4331      75657565 
 4331      00
 4332 01b4 F6040000 		.4byte	0x4f6
 4333 01b8 496E7075 		.ascii	"InputQueue\000"
 4333      74517565 
 4333      756500
 4334 01c3 01050000 		.4byte	0x501
 4335 01c7 4F757470 		.ascii	"OutputQueue\000"
 4335      75745175 
 4335      65756500 
 4336 01d3 F2050000 		.4byte	0x5f2
ARM GAS  C:\Users\z80\AppData\Local\Temp\ccSx45O2.s 			page 79


 4337 01d7 696F666C 		.ascii	"ioflags_t\000"
 4337      6167735F 
 4337      7400
 4338 01e1 14060000 		.4byte	0x614
 4339 01e5 5446756E 		.ascii	"TFunc\000"
 4339      6300
 4340 01eb AE060000 		.4byte	0x6ae
 4341 01ef 4750494F 		.ascii	"GPIO_TypeDef\000"
 4341      5F547970 
 4341      65446566 
 4341      00
 4342 01fc 94070000 		.4byte	0x794
 4343 0200 55534152 		.ascii	"USART_TypeDef\000"
 4343      545F5479 
 4343      70654465 
 4343      6600
 4344 020e A0070000 		.4byte	0x7a0
 4345 0212 696F706F 		.ascii	"ioportmask_t\000"
 4345      72746D61 
 4345      736B5F74 
 4345      00
 4346 021f C6070000 		.4byte	0x7c6
 4347 0223 73647374 		.ascii	"sdstate_t\000"
 4347      6174655F 
 4347      7400
 4348 022d D1070000 		.4byte	0x7d1
 4349 0231 53657269 		.ascii	"SerialDriver\000"
 4349      616C4472 
 4349      69766572 
 4349      00
 4350 023e A9080000 		.4byte	0x8a9
 4351 0242 53657269 		.ascii	"SerialConfig\000"
 4351      616C436F 
 4351      6E666967 
 4351      00
 4352 024f B4080000 		.4byte	0x8b4
 4353 0253 53657269 		.ascii	"SerialDriverVMT\000"
 4353      616C4472 
 4353      69766572 
 4353      564D5400 
 4354 0263 DC070000 		.4byte	0x7dc
 4355 0267 53657269 		.ascii	"SerialDriver\000"
 4355      616C4472 
 4355      69766572 
 4355      00
 4356 0274 00000000 		.4byte	0x0
 4357              		.section	.debug_aranges,"",%progbits
 4358 0000 9C000000 		.4byte	0x9c
 4359 0004 0200     		.2byte	0x2
 4360 0006 00000000 		.4byte	.Ldebug_info0
 4361 000a 04       		.byte	0x4
 4362 000b 00       		.byte	0x0
 4363 000c 0000     		.2byte	0x0
 4364 000e 0000     		.2byte	0x0
 4365 0010 00000000 		.4byte	.LFB76
 4366 0014 02000000 		.4byte	.LFE76-.LFB76
 4367 0018 00000000 		.4byte	.LFB77
ARM GAS  C:\Users\z80\AppData\Local\Temp\ccSx45O2.s 			page 80


 4368 001c 02000000 		.4byte	.LFE77-.LFB77
 4369 0020 00000000 		.4byte	.LFB78
 4370 0024 02000000 		.4byte	.LFE78-.LFB78
 4371 0028 00000000 		.4byte	.LFB79
 4372 002c 34000000 		.4byte	.LFE79-.LFB79
 4373 0030 00000000 		.4byte	.LFB80
 4374 0034 14000000 		.4byte	.LFE80-.LFB80
 4375 0038 00000000 		.4byte	.LFB75
 4376 003c 52000000 		.4byte	.LFE75-.LFB75
 4377 0040 00000000 		.4byte	.LFB68
 4378 0044 30000000 		.4byte	.LFE68-.LFB68
 4379 0048 00000000 		.4byte	.LFB67
 4380 004c 30000000 		.4byte	.LFE67-.LFB67
 4381 0050 00000000 		.4byte	.LFB74
 4382 0054 18000000 		.4byte	.LFE74-.LFB74
 4383 0058 00000000 		.4byte	.LFB73
 4384 005c 0A000000 		.4byte	.LFE73-.LFB73
 4385 0060 00000000 		.4byte	.LFB72
 4386 0064 3E000000 		.4byte	.LFE72-.LFB72
 4387 0068 00000000 		.4byte	.LFB71
 4388 006c 1A000000 		.4byte	.LFE71-.LFB71
 4389 0070 00000000 		.4byte	.LFB70
 4390 0074 1A000000 		.4byte	.LFE70-.LFB70
 4391 0078 00000000 		.4byte	.LFB69
 4392 007c 0A000000 		.4byte	.LFE69-.LFB69
 4393 0080 00000000 		.4byte	.LFB62
 4394 0084 50000000 		.4byte	.LFE62-.LFB62
 4395 0088 00000000 		.4byte	.LFB63
 4396 008c C4000000 		.4byte	.LFE63-.LFB63
 4397 0090 00000000 		.4byte	.LFB64
 4398 0094 0A000000 		.4byte	.LFE64-.LFB64
 4399 0098 00000000 		.4byte	0x0
 4400 009c 00000000 		.4byte	0x0
 4401              		.section	.debug_ranges,"",%progbits
 4402              	.Ldebug_ranges0:
 4403 0000 06000000 		.4byte	.LBB9
 4404 0004 08000000 		.4byte	.LBE9
 4405 0008 0A000000 		.4byte	.LBB10
 4406 000c 0E000000 		.4byte	.LBE10
 4407 0010 00000000 		.4byte	0x0
 4408 0014 00000000 		.4byte	0x0
 4409 0018 30000000 		.4byte	.LBB12
 4410 001c 42000000 		.4byte	.LBE12
 4411 0020 44000000 		.4byte	.LBB13
 4412 0024 48000000 		.4byte	.LBE13
 4413 0028 00000000 		.4byte	0x0
 4414 002c 00000000 		.4byte	0x0
 4415 0030 12000000 		.4byte	.LBB15
 4416 0034 30000000 		.4byte	.LBE15
 4417 0038 32000000 		.4byte	.LBB32
 4418 003c C4000000 		.4byte	.LBE32
 4419 0040 00000000 		.4byte	0x0
 4420 0044 00000000 		.4byte	0x0
 4421 0048 1C000000 		.4byte	.LBB18
 4422 004c 1E000000 		.4byte	.LBE18
 4423 0050 92000000 		.4byte	.LBB31
 4424 0054 C4000000 		.4byte	.LBE31
ARM GAS  C:\Users\z80\AppData\Local\Temp\ccSx45O2.s 			page 81


 4425 0058 66000000 		.4byte	.LBB30
 4426 005c 80000000 		.4byte	.LBE30
 4427 0060 24000000 		.4byte	.LBB16
 4428 0064 2E000000 		.4byte	.LBE16
 4429 0068 20000000 		.4byte	.LBB17
 4430 006c 22000000 		.4byte	.LBE17
 4431 0070 00000000 		.4byte	0x0
 4432 0074 00000000 		.4byte	0x0
 4433 0078 1C000000 		.4byte	.LBB21
 4434 007c 1E000000 		.4byte	.LBE21
 4435 0080 92000000 		.4byte	.LBB29
 4436 0084 C4000000 		.4byte	.LBE29
 4437 0088 66000000 		.4byte	.LBB19
 4438 008c 80000000 		.4byte	.LBE19
 4439 0090 24000000 		.4byte	.LBB28
 4440 0094 2E000000 		.4byte	.LBE28
 4441 0098 20000000 		.4byte	.LBB20
 4442 009c 22000000 		.4byte	.LBE20
 4443 00a0 00000000 		.4byte	0x0
 4444 00a4 00000000 		.4byte	0x0
 4445 00a8 2C000000 		.4byte	.LBB23
 4446 00ac 2E000000 		.4byte	.LBE23
 4447 00b0 92000000 		.4byte	.LBB27
 4448 00b4 C4000000 		.4byte	.LBE27
 4449 00b8 7C000000 		.4byte	.LBB22
 4450 00bc 80000000 		.4byte	.LBE22
 4451 00c0 00000000 		.4byte	0x0
 4452 00c4 00000000 		.4byte	0x0
 4453 00c8 2C000000 		.4byte	.LBB25
 4454 00cc 2E000000 		.4byte	.LBE25
 4455 00d0 92000000 		.4byte	.LBB26
 4456 00d4 C4000000 		.4byte	.LBE26
 4457 00d8 7C000000 		.4byte	.LBB24
 4458 00dc 80000000 		.4byte	.LBE24
 4459 00e0 00000000 		.4byte	0x0
 4460 00e4 00000000 		.4byte	0x0
 4461 00e8 00000000 		.4byte	.LFB76
 4462 00ec 02000000 		.4byte	.LFE76
 4463 00f0 00000000 		.4byte	.LFB77
 4464 00f4 02000000 		.4byte	.LFE77
 4465 00f8 00000000 		.4byte	.LFB78
 4466 00fc 02000000 		.4byte	.LFE78
 4467 0100 00000000 		.4byte	.LFB79
 4468 0104 34000000 		.4byte	.LFE79
 4469 0108 00000000 		.4byte	.LFB80
 4470 010c 14000000 		.4byte	.LFE80
 4471 0110 00000000 		.4byte	.LFB75
 4472 0114 52000000 		.4byte	.LFE75
 4473 0118 00000000 		.4byte	.LFB68
 4474 011c 30000000 		.4byte	.LFE68
 4475 0120 00000000 		.4byte	.LFB67
 4476 0124 30000000 		.4byte	.LFE67
 4477 0128 00000000 		.4byte	.LFB74
 4478 012c 18000000 		.4byte	.LFE74
 4479 0130 00000000 		.4byte	.LFB73
 4480 0134 0A000000 		.4byte	.LFE73
 4481 0138 00000000 		.4byte	.LFB72
ARM GAS  C:\Users\z80\AppData\Local\Temp\ccSx45O2.s 			page 82


 4482 013c 3E000000 		.4byte	.LFE72
 4483 0140 00000000 		.4byte	.LFB71
 4484 0144 1A000000 		.4byte	.LFE71
 4485 0148 00000000 		.4byte	.LFB70
 4486 014c 1A000000 		.4byte	.LFE70
 4487 0150 00000000 		.4byte	.LFB69
 4488 0154 0A000000 		.4byte	.LFE69
 4489 0158 00000000 		.4byte	.LFB62
 4490 015c 50000000 		.4byte	.LFE62
 4491 0160 00000000 		.4byte	.LFB63
 4492 0164 C4000000 		.4byte	.LFE63
 4493 0168 00000000 		.4byte	.LFB64
 4494 016c 0A000000 		.4byte	.LFE64
 4495 0170 00000000 		.4byte	0x0
 4496 0174 00000000 		.4byte	0x0
 4497              		.section	.debug_str,"MS",%progbits,1
 4498              	.LASF144:
 4499 0000 77726974 		.ascii	"writeEom\000"
 4499      65456F6D 
 4499      00
 4500              	.LASF99:
 4501 0009 73635F73 		.ascii	"sc_speed\000"
 4501      70656564 
 4501      00
 4502              	.LASF2:
 4503 0012 73697A65 		.ascii	"size_t\000"
 4503      5F7400
 4504              	.LASF57:
 4505 0019 7264796D 		.ascii	"rdymsg\000"
 4505      736700
 4506              	.LASF13:
 4507 0020 75696E74 		.ascii	"uint64_t\000"
 4507      36345F74 
 4507      00
 4508              	.LASF140:
 4509 0029 66756E63 		.ascii	"funcs\000"
 4509      7300
 4510              	.LASF72:
 4511 002f 4F757470 		.ascii	"OutputQueue\000"
 4511      75745175 
 4511      65756500 
 4512              	.LASF74:
 4513 003b 5446756E 		.ascii	"TFunc\000"
 4513      6300
 4514              	.LASF87:
 4515 0041 696F706F 		.ascii	"ioportmask_t\000"
 4515      72746D61 
 4515      736B5F74 
 4515      00
 4516              	.LASF15:
 4517 004e 75696E74 		.ascii	"uint_fast16_t\000"
 4517      5F666173 
 4517      7431365F 
 4517      7400
 4518              	.LASF14:
 4519 005c 6C6F6E67 		.ascii	"long long unsigned int\000"
 4519      206C6F6E 
ARM GAS  C:\Users\z80\AppData\Local\Temp\ccSx45O2.s 			page 83


 4519      6720756E 
 4519      7369676E 
 4519      65642069 
 4520              	.LASF147:
 4521 0073 66756E63 		.ascii	"funcArgs\000"
 4521      41726773 
 4521      00
 4522              	.LASF58:
 4523 007c 65786974 		.ascii	"exitcode\000"
 4523      636F6465 
 4523      00
 4524              	.LASF136:
 4525 0085 6F75745F 		.ascii	"out_index\000"
 4525      696E6465 
 4525      7800
 4526              	.LASF137:
 4527 008f 49544D5F 		.ascii	"ITM_RxBuffer\000"
 4527      52784275 
 4527      66666572 
 4527      00
 4528              	.LASF16:
 4529 009c 626F6F6C 		.ascii	"bool_t\000"
 4529      5F7400
 4530              	.LASF26:
 4531 00a3 705F7072 		.ascii	"p_prio\000"
 4531      696F00
 4532              	.LASF110:
 4533 00aa 72656164 		.ascii	"readt\000"
 4533      7400
 4534              	.LASF63:
 4535 00b0 715F7761 		.ascii	"q_waiting\000"
 4535      6974696E 
 4535      6700
 4536              	.LASF12:
 4537 00ba 6C6F6E67 		.ascii	"long long int\000"
 4537      206C6F6E 
 4537      6720696E 
 4537      7400
 4538              	.LASF1:
 4539 00c8 7369676E 		.ascii	"signed char\000"
 4539      65642063 
 4539      68617200 
 4540              	.LASF75:
 4541 00d4 42535252 		.ascii	"BSRR\000"
 4541      00
 4542              	.LASF84:
 4543 00d9 47545052 		.ascii	"GTPR\000"
 4543      00
 4544              	.LASF89:
 4545 00de 53445F53 		.ascii	"SD_STOP\000"
 4545      544F5000 
 4546              	.LASF127:
 4547 00e6 7365745F 		.ascii	"set_osc_period\000"
 4547      6F73635F 
 4547      70657269 
 4547      6F6400
 4548              	.LASF48:
ARM GAS  C:\Users\z80\AppData\Local\Temp\ccSx45O2.s 			page 84


 4549 00f5 6D5F7175 		.ascii	"m_queue\000"
 4549      65756500 
 4550              	.LASF143:
 4551 00fd 433A5C70 		.ascii	"C:\\projects\\digitizer.git\\firmware\\digitizer\000"
 4551      726F6A65 
 4551      6374735C 
 4551      64696769 
 4551      74697A65 
 4552              	.LASF95:
 4553 012a 73746174 		.ascii	"state\000"
 4553      6500
 4554              	.LASF9:
 4555 0130 6C6F6E67 		.ascii	"long int\000"
 4555      20696E74 
 4555      00
 4556              	.LASF18:
 4557 0139 74737461 		.ascii	"tstate_t\000"
 4557      74655F74 
 4557      00
 4558              	.LASF65:
 4559 0142 715F6275 		.ascii	"q_buffer\000"
 4559      66666572 
 4559      00
 4560              	.LASF67:
 4561 014b 715F7772 		.ascii	"q_wrptr\000"
 4561      70747200 
 4562              	.LASF28:
 4563 0153 705F6E65 		.ascii	"p_newer\000"
 4563      77657200 
 4564              	.LASF107:
 4565 015b 70757477 		.ascii	"putwouldblock\000"
 4565      6F756C64 
 4565      626C6F63 
 4565      6B00
 4566              	.LASF77:
 4567 0169 4750494F 		.ascii	"GPIO_TypeDef\000"
 4567      5F547970 
 4567      65446566 
 4567      00
 4568              	.LASF43:
 4569 0176 72656761 		.ascii	"regarm_t\000"
 4569      726D5F74 
 4569      00
 4570              	.LASF55:
 4571 017f 4576656E 		.ascii	"EventSource\000"
 4571      74536F75 
 4571      72636500 
 4572              	.LASF131:
 4573 018b 76616C4C 		.ascii	"valL\000"
 4573      00
 4574              	.LASF98:
 4575 0190 75736172 		.ascii	"usart\000"
 4575      7400
 4576              	.LASF0:
 4577 0196 756E7369 		.ascii	"unsigned int\000"
 4577      676E6564 
 4577      20696E74 
ARM GAS  C:\Users\z80\AppData\Local\Temp\ccSx45O2.s 			page 85


 4577      00
 4578              	.LASF6:
 4579 01a3 75696E74 		.ascii	"uint16_t\000"
 4579      31365F74 
 4579      00
 4580              	.LASF104:
 4581 01ac 53657269 		.ascii	"SerialDriverVMT\000"
 4581      616C4472 
 4581      69766572 
 4581      564D5400 
 4582              	.LASF34:
 4583 01bc 705F7469 		.ascii	"p_time\000"
 4583      6D6500
 4584              	.LASF126:
 4585 01c3 68617264 		.ascii	"hardware_version\000"
 4585      77617265 
 4585      5F766572 
 4585      73696F6E 
 4585      00
 4586              	.LASF96:
 4587 01d4 69717565 		.ascii	"iqueue\000"
 4587      756500
 4588              	.LASF36:
 4589 01db 705F6D73 		.ascii	"p_msgqueue\000"
 4589      67717565 
 4589      756500
 4590              	.LASF125:
 4591 01e6 73747269 		.ascii	"stri\000"
 4591      00
 4592              	.LASF117:
 4593 01eb 73776565 		.ascii	"sweep_dac1\000"
 4593      705F6461 
 4593      633100
 4594              	.LASF76:
 4595 01f6 4C434B52 		.ascii	"LCKR\000"
 4595      00
 4596              	.LASF114:
 4597 01fb 65786563 		.ascii	"exec_func\000"
 4597      5F66756E 
 4597      6300
 4598              	.LASF123:
 4599 0205 6E6F4461 		.ascii	"noData\000"
 4599      746100
 4600              	.LASF19:
 4601 020c 74707269 		.ascii	"tprio_t\000"
 4601      6F5F7400 
 4602              	.LASF93:
 4603 0214 6576656E 		.ascii	"event\000"
 4603      7400
 4604              	.LASF7:
 4605 021a 73686F72 		.ascii	"short unsigned int\000"
 4605      7420756E 
 4605      7369676E 
 4605      65642069 
 4605      6E7400
 4606              	.LASF120:
 4607 022d 73776565 		.ascii	"sweep_both\000"
ARM GAS  C:\Users\z80\AppData\Local\Temp\ccSx45O2.s 			page 86


 4607      705F626F 
 4607      746800
 4608              	.LASF128:
 4609 0238 7365745F 		.ascii	"set_osc_signals\000"
 4609      6F73635F 
 4609      7369676E 
 4609      616C7300 
 4610              	.LASF97:
 4611 0248 6F717565 		.ascii	"oqueue\000"
 4611      756500
 4612              	.LASF124:
 4613 024f 6669726D 		.ascii	"firmware_version\000"
 4613      77617265 
 4613      5F766572 
 4613      73696F6E 
 4613      00
 4614              	.LASF86:
 4615 0260 55534152 		.ascii	"USART_TypeDef\000"
 4615      545F5479 
 4615      70654465 
 4615      6600
 4616              	.LASF109:
 4617 026e 77726974 		.ascii	"writet\000"
 4617      657400
 4618              	.LASF17:
 4619 0275 746D6F64 		.ascii	"tmode_t\000"
 4619      655F7400 
 4620              	.LASF42:
 4621 027d 54687265 		.ascii	"ThreadsList\000"
 4621      6164734C 
 4621      69737400 
 4622              	.LASF21:
 4623 0289 6576656E 		.ascii	"eventmask_t\000"
 4623      746D6173 
 4623      6B5F7400 
 4624              	.LASF71:
 4625 0295 496E7075 		.ascii	"InputQueue\000"
 4625      74517565 
 4625      756500
 4626              	.LASF70:
 4627 02a0 716E6F74 		.ascii	"qnotify_t\000"
 4627      6966795F 
 4627      7400
 4628              	.LASF142:
 4629 02aa 2E2F7372 		.ascii	"./src/cpu_io.c\000"
 4629      632F6370 
 4629      755F696F 
 4629      2E6300
 4630              	.LASF62:
 4631 02b9 47656E65 		.ascii	"GenericQueue\000"
 4631      72696351 
 4631      75657565 
 4631      00
 4632              	.LASF44:
 4633 02c6 73746B61 		.ascii	"stkalign_t\000"
 4633      6C69676E 
 4633      5F7400
ARM GAS  C:\Users\z80\AppData\Local\Temp\ccSx45O2.s 			page 87


 4634              	.LASF122:
 4635 02d1 6765745F 		.ascii	"get_osc_data\000"
 4635      6F73635F 
 4635      64617461 
 4635      00
 4636              	.LASF105:
 4637 02de 77726974 		.ascii	"write\000"
 4637      6500
 4638              	.LASF64:
 4639 02e4 715F636F 		.ascii	"q_counter\000"
 4639      756E7465 
 4639      7200
 4640              	.LASF47:
 4641 02ee 4D757465 		.ascii	"Mutex\000"
 4641      7800
 4642              	.LASF134:
 4643 02f4 7365745F 		.ascii	"set_led\000"
 4643      6C656400 
 4644              	.LASF29:
 4645 02fc 705F6F6C 		.ascii	"p_older\000"
 4645      64657200 
 4646              	.LASF73:
 4647 0304 696F666C 		.ascii	"ioflags_t\000"
 4647      6167735F 
 4647      7400
 4648              	.LASF41:
 4649 030e 54687265 		.ascii	"ThreadsQueue\000"
 4649      61647351 
 4649      75657565 
 4649      00
 4650              	.LASF31:
 4651 031b 705F7374 		.ascii	"p_stklimit\000"
 4651      6B6C696D 
 4651      697400
 4652              	.LASF54:
 4653 0326 656C5F6D 		.ascii	"el_mask\000"
 4653      61736B00 
 4654              	.LASF103:
 4655 032e 53657269 		.ascii	"SerialConfig\000"
 4655      616C436F 
 4655      6E666967 
 4655      00
 4656              	.LASF132:
 4657 033b 76616C48 		.ascii	"valH\000"
 4657      00
 4658              	.LASF78:
 4659 0340 52455345 		.ascii	"RESERVED0\000"
 4659      52564544 
 4659      3000
 4660              	.LASF79:
 4661 034a 52455345 		.ascii	"RESERVED1\000"
 4661      52564544 
 4661      3100
 4662              	.LASF80:
 4663 0354 52455345 		.ascii	"RESERVED2\000"
 4663      52564544 
 4663      3200
ARM GAS  C:\Users\z80\AppData\Local\Temp\ccSx45O2.s 			page 88


 4664              	.LASF81:
 4665 035e 52455345 		.ascii	"RESERVED3\000"
 4665      52564544 
 4665      3300
 4666              	.LASF82:
 4667 0368 52455345 		.ascii	"RESERVED4\000"
 4667      52564544 
 4667      3400
 4668              	.LASF25:
 4669 0372 705F7072 		.ascii	"p_prev\000"
 4669      657600
 4670              	.LASF133:
 4671 0379 7365745F 		.ascii	"set_dac1\000"
 4671      64616331 
 4671      00
 4672              	.LASF130:
 4673 0382 7365745F 		.ascii	"set_dac2\000"
 4673      64616332 
 4673      00
 4674              	.LASF113:
 4675 038b 66756E63 		.ascii	"funcs_sz\000"
 4675      735F737A 
 4675      00
 4676              	.LASF68:
 4677 0394 715F7264 		.ascii	"q_rdptr\000"
 4677      70747200 
 4678              	.LASF8:
 4679 039c 696E7433 		.ascii	"int32_t\000"
 4679      325F7400 
 4680              	.LASF4:
 4681 03a4 756E7369 		.ascii	"unsigned char\000"
 4681      676E6564 
 4681      20636861 
 4681      7200
 4682              	.LASF139:
 4683 03b2 73657269 		.ascii	"serial_cfg\000"
 4683      616C5F63 
 4683      666700
 4684              	.LASF53:
 4685 03bd 656C5F6C 		.ascii	"el_listener\000"
 4685      69737465 
 4685      6E657200 
 4686              	.LASF32:
 4687 03c9 705F7374 		.ascii	"p_state\000"
 4687      61746500 
 4688              	.LASF39:
 4689 03d1 705F6D74 		.ascii	"p_mtxlist\000"
 4689      786C6973 
 4689      7400
 4690              	.LASF5:
 4691 03db 73686F72 		.ascii	"short int\000"
 4691      7420696E 
 4691      7400
 4692              	.LASF115:
 4693 03e5 70726F63 		.ascii	"process_command\000"
 4693      6573735F 
 4693      636F6D6D 
ARM GAS  C:\Users\z80\AppData\Local\Temp\ccSx45O2.s 			page 89


 4693      616E6400 
 4694              	.LASF60:
 4695 03f5 65776D61 		.ascii	"ewmask\000"
 4695      736B00
 4696              	.LASF24:
 4697 03fc 705F6E65 		.ascii	"p_next\000"
 4697      787400
 4698              	.LASF33:
 4699 0403 705F666C 		.ascii	"p_flags\000"
 4699      61677300 
 4700              	.LASF52:
 4701 040b 656C5F6E 		.ascii	"el_next\000"
 4701      65787400 
 4702              	.LASF23:
 4703 0413 54687265 		.ascii	"Thread\000"
 4703      616400
 4704              	.LASF38:
 4705 041a 705F6570 		.ascii	"p_epending\000"
 4705      656E6469 
 4705      6E6700
 4706              	.LASF88:
 4707 0425 53445F55 		.ascii	"SD_UNINIT\000"
 4707      4E494E49 
 4707      5400
 4708              	.LASF83:
 4709 042f 52455345 		.ascii	"RESERVED5\000"
 4709      52564544 
 4709      3500
 4710              	.LASF85:
 4711 0439 52455345 		.ascii	"RESERVED6\000"
 4711      52564544 
 4711      3600
 4712              	.LASF10:
 4713 0443 75696E74 		.ascii	"uint32_t\000"
 4713      33325F74 
 4713      00
 4714              	.LASF118:
 4715 044c 73776565 		.ascii	"sweep_dac2\000"
 4715      705F6461 
 4715      633200
 4716              	.LASF92:
 4717 0457 53657269 		.ascii	"SerialDriver\000"
 4717      616C4472 
 4717      69766572 
 4717      00
 4718              	.LASF11:
 4719 0464 6C6F6E67 		.ascii	"long unsigned int\000"
 4719      20756E73 
 4719      69676E65 
 4719      6420696E 
 4719      7400
 4720              	.LASF106:
 4721 0476 72656164 		.ascii	"read\000"
 4721      00
 4722              	.LASF61:
 4723 047b 63686172 		.ascii	"char\000"
 4723      00
ARM GAS  C:\Users\z80\AppData\Local\Temp\ccSx45O2.s 			page 90


 4724              	.LASF121:
 4725 0480 77726974 		.ascii	"writeResult\000"
 4725      65526573 
 4725      756C7400 
 4726              	.LASF146:
 4727 048c 70726F63 		.ascii	"processCpuIo\000"
 4727      65737343 
 4727      7075496F 
 4727      00
 4728              	.LASF50:
 4729 0499 6D5F6E65 		.ascii	"m_next\000"
 4729      787400
 4730              	.LASF22:
 4731 04a0 73797374 		.ascii	"systime_t\000"
 4731      696D655F 
 4731      7400
 4732              	.LASF40:
 4733 04aa 705F7265 		.ascii	"p_realprio\000"
 4733      616C7072 
 4733      696F00
 4734              	.LASF138:
 4735 04b5 62756666 		.ascii	"buffer\000"
 4735      657200
 4736              	.LASF116:
 4737 04bc 64617461 		.ascii	"data\000"
 4737      00
 4738              	.LASF111:
 4739 04c1 67657466 		.ascii	"getflags\000"
 4739      6C616773 
 4739      00
 4740              	.LASF46:
 4741 04ca 636F6E74 		.ascii	"context\000"
 4741      65787400 
 4742              	.LASF20:
 4743 04d2 6D73675F 		.ascii	"msg_t\000"
 4743      7400
 4744              	.LASF45:
 4745 04d8 696E7463 		.ascii	"intctx\000"
 4745      747800
 4746              	.LASF90:
 4747 04df 53445F52 		.ascii	"SD_READY\000"
 4747      45414459 
 4747      00
 4748              	.LASF145:
 4749 04e8 696E6974 		.ascii	"initCpuIo\000"
 4749      43707549 
 4749      6F00
 4750              	.LASF91:
 4751 04f2 73647374 		.ascii	"sdstate_t\000"
 4751      6174655F 
 4751      7400
 4752              	.LASF66:
 4753 04fc 715F746F 		.ascii	"q_top\000"
 4753      7000
 4754              	.LASF30:
 4755 0502 705F6E61 		.ascii	"p_name\000"
 4755      6D6500
ARM GAS  C:\Users\z80\AppData\Local\Temp\ccSx45O2.s 			page 91


 4756              	.LASF56:
 4757 0509 65735F6E 		.ascii	"es_next\000"
 4757      65787400 
 4758              	.LASF69:
 4759 0511 715F6E6F 		.ascii	"q_notify\000"
 4759      74696679 
 4759      00
 4760              	.LASF37:
 4761 051a 705F6D73 		.ascii	"p_msg\000"
 4761      6700
 4762              	.LASF129:
 4763 0520 6765745F 		.ascii	"get_adc\000"
 4763      61646300 
 4764              	.LASF3:
 4765 0528 75696E74 		.ascii	"uint8_t\000"
 4765      385F7400 
 4766              	.LASF112:
 4767 0530 66756E63 		.ascii	"func_index\000"
 4767      5F696E64 
 4767      657800
 4768              	.LASF94:
 4769 053b 666C6167 		.ascii	"flags\000"
 4769      7300
 4770              	.LASF51:
 4771 0541 4576656E 		.ascii	"EventListener\000"
 4771      744C6973 
 4771      74656E65 
 4771      7200
 4772              	.LASF141:
 4773 054f 474E5520 		.ascii	"GNU C 4.5.0\000"
 4773      4320342E 
 4773      352E3000 
 4774              	.LASF59:
 4775 055b 77746F62 		.ascii	"wtobjp\000"
 4775      6A7000
 4776              	.LASF135:
 4777 0562 736C6173 		.ascii	"slash\000"
 4777      6800
 4778              	.LASF108:
 4779 0568 67657477 		.ascii	"getwouldblock\000"
 4779      6F756C64 
 4779      626C6F63 
 4779      6B00
 4780              	.LASF100:
 4781 0576 73635F63 		.ascii	"sc_cr1\000"
 4781      723100
 4782              	.LASF101:
 4783 057d 73635F63 		.ascii	"sc_cr2\000"
 4783      723200
 4784              	.LASF102:
 4785 0584 73635F63 		.ascii	"sc_cr3\000"
 4785      723300
 4786              	.LASF119:
 4787 058b 61726773 		.ascii	"args\000"
 4787      00
 4788              	.LASF49:
 4789 0590 6D5F6F77 		.ascii	"m_owner\000"
ARM GAS  C:\Users\z80\AppData\Local\Temp\ccSx45O2.s 			page 92


 4789      6E657200 
 4790              	.LASF27:
 4791 0598 705F6374 		.ascii	"p_ctx\000"
 4791      7800
 4792              	.LASF35:
 4793 059e 705F7761 		.ascii	"p_waiting\000"
 4793      6974696E 
 4793      6700
 4794              		.ident	"GCC: (GNU) 4.5.0"
ARM GAS  C:\Users\z80\AppData\Local\Temp\ccSx45O2.s 			page 93


DEFINED SYMBOLS
                            *ABS*:00000000 cpu_io.c
C:\Users\z80\AppData\Local\Temp\ccSx45O2.s:24     .text.sweep_dac1:00000000 $t
C:\Users\z80\AppData\Local\Temp\ccSx45O2.s:29     .text.sweep_dac1:00000000 sweep_dac1
C:\Users\z80\AppData\Local\Temp\ccSx45O2.s:44     .text.sweep_dac2:00000000 $t
C:\Users\z80\AppData\Local\Temp\ccSx45O2.s:49     .text.sweep_dac2:00000000 sweep_dac2
C:\Users\z80\AppData\Local\Temp\ccSx45O2.s:63     .text.sweep_both:00000000 $t
C:\Users\z80\AppData\Local\Temp\ccSx45O2.s:68     .text.sweep_both:00000000 sweep_both
C:\Users\z80\AppData\Local\Temp\ccSx45O2.s:82     .text.writeResult:00000000 $t
C:\Users\z80\AppData\Local\Temp\ccSx45O2.s:87     .text.writeResult:00000000 writeResult
C:\Users\z80\AppData\Local\Temp\ccSx45O2.s:128    .text.writeResult:00000030 $d
C:\Users\z80\AppData\Local\Temp\ccSx45O2.s:133    .text.writeEom:00000000 $t
C:\Users\z80\AppData\Local\Temp\ccSx45O2.s:138    .text.writeEom:00000000 writeEom
C:\Users\z80\AppData\Local\Temp\ccSx45O2.s:159    .text.writeEom:00000010 $d
C:\Users\z80\AppData\Local\Temp\ccSx45O2.s:164    .text.get_osc_data:00000000 $t
C:\Users\z80\AppData\Local\Temp\ccSx45O2.s:169    .text.get_osc_data:00000000 get_osc_data
C:\Users\z80\AppData\Local\Temp\ccSx45O2.s:266    .text.firmware_version:00000000 $t
C:\Users\z80\AppData\Local\Temp\ccSx45O2.s:271    .text.firmware_version:00000000 firmware_version
C:\Users\z80\AppData\Local\Temp\ccSx45O2.s:316    .text.firmware_version:0000002c $d
C:\Users\z80\AppData\Local\Temp\ccSx45O2.s:321    .text.hardware_version:00000000 $t
C:\Users\z80\AppData\Local\Temp\ccSx45O2.s:326    .text.hardware_version:00000000 hardware_version
C:\Users\z80\AppData\Local\Temp\ccSx45O2.s:370    .text.hardware_version:0000002c $d
C:\Users\z80\AppData\Local\Temp\ccSx45O2.s:375    .text.set_osc_period:00000000 $t
C:\Users\z80\AppData\Local\Temp\ccSx45O2.s:380    .text.set_osc_period:00000000 set_osc_period
C:\Users\z80\AppData\Local\Temp\ccSx45O2.s:416    .text.set_osc_signals:00000000 $t
C:\Users\z80\AppData\Local\Temp\ccSx45O2.s:421    .text.set_osc_signals:00000000 set_osc_signals
C:\Users\z80\AppData\Local\Temp\ccSx45O2.s:443    .text.get_adc:00000000 $t
C:\Users\z80\AppData\Local\Temp\ccSx45O2.s:448    .text.get_adc:00000000 get_adc
C:\Users\z80\AppData\Local\Temp\ccSx45O2.s:507    .text.set_dac2:00000000 $t
C:\Users\z80\AppData\Local\Temp\ccSx45O2.s:512    .text.set_dac2:00000000 set_dac2
C:\Users\z80\AppData\Local\Temp\ccSx45O2.s:544    .text.set_dac1:00000000 $t
C:\Users\z80\AppData\Local\Temp\ccSx45O2.s:549    .text.set_dac1:00000000 set_dac1
C:\Users\z80\AppData\Local\Temp\ccSx45O2.s:581    .text.set_led:00000000 $t
C:\Users\z80\AppData\Local\Temp\ccSx45O2.s:586    .text.set_led:00000000 set_led
C:\Users\z80\AppData\Local\Temp\ccSx45O2.s:608    .text.initCpuIo:00000000 $t
C:\Users\z80\AppData\Local\Temp\ccSx45O2.s:614    .text.initCpuIo:00000000 initCpuIo
C:\Users\z80\AppData\Local\Temp\ccSx45O2.s:897    .rodata.serial_cfg:00000000 .LANCHOR0
C:\Users\z80\AppData\Local\Temp\ccSx45O2.s:661    .text.processCpuIo:00000000 $t
C:\Users\z80\AppData\Local\Temp\ccSx45O2.s:667    .text.processCpuIo:00000000 processCpuIo
C:\Users\z80\AppData\Local\Temp\ccSx45O2.s:852    .text.processCpuIo:000000a8 $d
C:\Users\z80\AppData\Local\Temp\ccSx45O2.s:868    .text.funcArgs:00000000 $t
C:\Users\z80\AppData\Local\Temp\ccSx45O2.s:874    .text.funcArgs:00000000 funcArgs
C:\Users\z80\AppData\Local\Temp\ccSx45O2.s:947    .bss.args:00000000 .LANCHOR4
C:\Users\z80\AppData\Local\Temp\ccSx45O2.s:893    .bss.slash.3767:00000000 slash.3767
C:\Users\z80\AppData\Local\Temp\ccSx45O2.s:894    .bss.slash.3767:00000000 $d
C:\Users\z80\AppData\Local\Temp\ccSx45O2.s:896    .rodata.serial_cfg:00000000 $d
C:\Users\z80\AppData\Local\Temp\ccSx45O2.s:900    .rodata.serial_cfg:00000000 serial_cfg
C:\Users\z80\AppData\Local\Temp\ccSx45O2.s:907    .bss.out_index.3768:00000000 $d
C:\Users\z80\AppData\Local\Temp\ccSx45O2.s:911    .bss.out_index.3768:00000000 out_index.3768
C:\Users\z80\AppData\Local\Temp\ccSx45O2.s:914    .rodata.funcs:00000000 $d
C:\Users\z80\AppData\Local\Temp\ccSx45O2.s:918    .rodata.funcs:00000000 funcs
C:\Users\z80\AppData\Local\Temp\ccSx45O2.s:932    .bss.buffer:00000000 $d
C:\Users\z80\AppData\Local\Temp\ccSx45O2.s:936    .bss.buffer:00000000 buffer
C:\Users\z80\AppData\Local\Temp\ccSx45O2.s:939    .rodata.str1.4:00000000 $d
C:\Users\z80\AppData\Local\Temp\ccSx45O2.s:946    .bss.args:00000000 $d
C:\Users\z80\AppData\Local\Temp\ccSx45O2.s:950    .bss.args:00000000 args
                     .debug_frame:00000010 $d
ARM GAS  C:\Users\z80\AppData\Local\Temp\ccSx45O2.s 			page 94


C:\Users\z80\AppData\Local\Temp\ccSx45O2.s:132    .text.writeResult:00000034 $t
C:\Users\z80\AppData\Local\Temp\ccSx45O2.s:163    .text.writeEom:00000014 $t
C:\Users\z80\AppData\Local\Temp\ccSx45O2.s:867    .text.processCpuIo:000000c4 $t

UNDEFINED SYMBOLS
chOQPutTimeout
SD1
adcQueue
dbg_check_lock
dbg_check_unlock
chIQGetTimeout
setOscPeriod
setOscSignals
instantAdc
setDac2
setDac1
setLeds
sdStart
_pal_lld_setgroupmode
