ARM GAS  C:\Users\z80\AppData\Local\Temp\ccNctp2I.s 			page 1


   1              		.syntax unified
   2              		.cpu cortex-m3
   3              		.fpu softvfp
   4              		.eabi_attribute 20, 1
   5              		.eabi_attribute 21, 1
   6              		.eabi_attribute 23, 3
   7              		.eabi_attribute 24, 1
   8              		.eabi_attribute 25, 1
   9              		.eabi_attribute 26, 1
  10              		.eabi_attribute 30, 2
  11              		.eabi_attribute 18, 4
  12              		.thumb
  13              		.file	"cpu_io.c"
  14              		.section	.debug_abbrev,"",%progbits
  15              	.Ldebug_abbrev0:
  16              		.section	.debug_info,"",%progbits
  17              	.Ldebug_info0:
  18              		.section	.debug_line,"",%progbits
  19              	.Ldebug_line0:
  20 0000 06040000 		.text
  20      02009702 
  20      00000201 
  20      FB0E0D00 
  20      01010101 
  21              	.Ltext0:
  22              		.cfi_sections	.debug_frame
  23              		.section	.text.writeResult,"ax",%progbits
  24              		.align	2
  25              		.p2align 4,,15
  26              		.thumb
  27              		.thumb_func
  28              		.type	writeResult, %function
  29              	writeResult:
  30              	.LFB73:
  31              		.file 1 "./src/cpu_io.c"
  32              		.loc 1 209 0
  33              		.cfi_startproc
  34              		@ args = 0, pretend = 0, frame = 0
  35              		@ frame_needed = 0, uses_anonymous_args = 0
  36              	.LVL0:
  37              		.loc 1 210 0
  38 0000 D0F10103 		rsbs	r3, r0, #1
  39 0004 38BF     		it	cc
  40 0006 0023     		movcc	r3, #0
  41 0008 5C28     		cmp	r0, #92
  42 000a 08BF     		it	eq
  43 000c 43F00103 		orreq	r3, r3, #1
  44              		.loc 1 209 0
  45 0010 10B5     		push	{r4, lr}
  46              	.LCFI0:
  47              		.cfi_def_cfa_offset 8
  48              		.loc 1 209 0
  49 0012 0446     		mov	r4, r0
  50              		.cfi_offset 14, -4
  51              		.cfi_offset 4, -8
  52              		.loc 1 210 0
  53 0014 2BB1     		cbz	r3, .L2
ARM GAS  C:\Users\z80\AppData\Local\Temp\ccNctp2I.s 			page 2


  54              		.loc 1 211 0
  55 0016 0648     		ldr	r0, .L4
  56              	.LVL1:
  57 0018 5C21     		movs	r1, #92
  58 001a 4FF0FF32 		mov	r2, #-1
  59 001e FFF7FEFF 		bl	chOQPutTimeout
  60              	.L2:
  61              		.loc 1 212 0
  62 0022 2146     		mov	r1, r4
  63 0024 4FF0FF32 		mov	r2, #-1
  64 0028 0148     		ldr	r0, .L4
  65 002a FFF7FEFF 		bl	chOQPutTimeout
  66              		.loc 1 213 0
  67 002e 10BD     		pop	{r4, pc}
  68              	.L5:
  69              		.align	2
  70              	.L4:
  71 0030 30000000 		.word	SD1+48
  72              		.cfi_endproc
  73              	.LFE73:
  74              		.size	writeResult, .-writeResult
  75 0034 AFF30080 		.section	.text.writeEom,"ax",%progbits
  75      AFF30080 
  75      AFF30080 
  76              		.align	2
  77              		.p2align 4,,15
  78              		.thumb
  79              		.thumb_func
  80              		.type	writeEom, %function
  81              	writeEom:
  82              	.LFB74:
  83              		.loc 1 216 0
  84              		.cfi_startproc
  85              		@ args = 0, pretend = 0, frame = 0
  86              		@ frame_needed = 0, uses_anonymous_args = 0
  87 0000 08B5     		push	{r3, lr}
  88              	.LCFI1:
  89              		.cfi_def_cfa_offset 8
  90              		.loc 1 217 0
  91 0002 0021     		movs	r1, #0
  92 0004 4FF0FF32 		mov	r2, #-1
  93 0008 0148     		ldr	r0, .L7
  94              		.cfi_offset 14, -4
  95              		.cfi_offset 3, -8
  96 000a FFF7FEFF 		bl	chOQPutTimeout
  97              		.loc 1 218 0
  98 000e 08BD     		pop	{r3, pc}
  99              	.L8:
 100              		.align	2
 101              	.L7:
 102 0010 30000000 		.word	SD1+48
 103              		.cfi_endproc
 104              	.LFE74:
 105              		.size	writeEom, .-writeEom
 106 0014 AFF30080 		.section	.text.get_adc,"ax",%progbits
 106      AFF30080 
 106      AFF30080 
ARM GAS  C:\Users\z80\AppData\Local\Temp\ccNctp2I.s 			page 3


 107              		.align	2
 108              		.p2align 4,,15
 109              		.thumb
 110              		.thumb_func
 111              		.type	get_adc, %function
 112              	get_adc:
 113              	.LFB72:
 114              		.loc 1 183 0
 115              		.cfi_startproc
 116              		@ args = 0, pretend = 0, frame = 16
 117              		@ frame_needed = 0, uses_anonymous_args = 0
 118              	.LVL2:
 119 0000 30B5     		push	{r4, r5, lr}
 120              	.LCFI2:
 121              		.cfi_def_cfa_offset 12
 122 0002 85B0     		sub	sp, sp, #20
 123              	.LCFI3:
 124              		.cfi_def_cfa_offset 32
 125              		.loc 1 186 0
 126 0004 6846     		mov	r0, sp
 127              	.LVL3:
 128              		.cfi_offset 14, -4
 129              		.cfi_offset 5, -8
 130              		.cfi_offset 4, -12
 131 0006 FFF7FEFF 		bl	instantAdc
 132              	.LVL4:
 133 000a 6D46     		mov	r5, sp
 134 000c 0024     		movs	r4, #0
 135              	.LVL5:
 136              	.L10:
 137              	.LBB9:
 138              		.loc 1 191 0 discriminator 2
 139 000e 285D     		ldrb	r0, [r5, r4]	@ zero_extendqisi2
 140 0010 FFF7FEFF 		bl	writeResult
 141              	.LVL6:
 142              		.loc 1 192 0 discriminator 2
 143 0014 2859     		ldr	r0, [r5, r4]
 144              		.loc 1 193 0 discriminator 2
 145 0016 C0F30720 		ubfx	r0, r0, #8, #8
 146 001a FFF7FEFF 		bl	writeResult
 147              		.loc 1 194 0 discriminator 2
 148 001e 2859     		ldr	r0, [r5, r4]
 149              		.loc 1 195 0 discriminator 2
 150 0020 C0F30740 		ubfx	r0, r0, #16, #8
 151 0024 FFF7FEFF 		bl	writeResult
 152              		.loc 1 196 0 discriminator 2
 153 0028 2859     		ldr	r0, [r5, r4]
 154              		.loc 1 197 0 discriminator 2
 155 002a 0434     		adds	r4, r4, #4
 156 002c 000E     		lsrs	r0, r0, #24
 157 002e FFF7FEFF 		bl	writeResult
 158              	.LBE9:
 159              		.loc 1 188 0 discriminator 2
 160 0032 102C     		cmp	r4, #16
 161 0034 EBD1     		bne	.L10
 162              		.loc 1 199 0
 163 0036 FFF7FEFF 		bl	writeEom
ARM GAS  C:\Users\z80\AppData\Local\Temp\ccNctp2I.s 			page 4


 164              		.loc 1 200 0
 165 003a 05B0     		add	sp, sp, #20
 166 003c 30BD     		pop	{r4, r5, pc}
 167              		.cfi_endproc
 168              	.LFE72:
 169              		.size	get_adc, .-get_adc
 170 003e 00BF     		.section	.text.firmware_version,"ax",%progbits
 171              		.align	2
 172              		.p2align 4,,15
 173              		.thumb
 174              		.thumb_func
 175              		.type	firmware_version, %function
 176              	firmware_version:
 177              	.LFB68:
 178              		.loc 1 152 0
 179              		.cfi_startproc
 180              		@ args = 0, pretend = 0, frame = 8
 181              		@ frame_needed = 0, uses_anonymous_args = 0
 182              	.LVL7:
 183 0000 30B5     		push	{r4, r5, lr}
 184              	.LCFI4:
 185              		.cfi_def_cfa_offset 12
 186              		.loc 1 154 0
 187 0002 0A4B     		ldr	r3, .L15
 188              		.loc 1 152 0
 189 0004 83B0     		sub	sp, sp, #12
 190              	.LCFI5:
 191              		.cfi_def_cfa_offset 24
 192              		.loc 1 154 0
 193 0006 02AD     		add	r5, sp, #8
 194              		.cfi_offset 14, -4
 195              		.cfi_offset 5, -8
 196              		.cfi_offset 4, -12
 197 0008 93E80300 		ldmia	r3, {r0, r1}
 198              	.LVL8:
 199 000c 45F8080D 		str	r0, [r5, #-8]!
 200 0010 6C1E     		subs	r4, r5, #1
 201 0012 ADF80410 		strh	r1, [sp, #4]	@ movhi
 202              	.LVL9:
 203              		.loc 1 151 0
 204 0016 0435     		adds	r5, r5, #4
 205              	.LVL10:
 206              	.L13:
 207              		.loc 1 158 0 discriminator 2
 208 0018 14F8010F 		ldrb	r0, [r4, #1]!	@ zero_extendqisi2
 209 001c FFF7FEFF 		bl	writeResult
 210              		.loc 1 157 0 discriminator 2
 211 0020 AC42     		cmp	r4, r5
 212 0022 F9D1     		bne	.L13
 213              		.loc 1 159 0
 214 0024 FFF7FEFF 		bl	writeEom
 215              		.loc 1 160 0
 216 0028 03B0     		add	sp, sp, #12
 217 002a 30BD     		pop	{r4, r5, pc}
 218              	.L16:
 219              		.align	2
 220              	.L15:
ARM GAS  C:\Users\z80\AppData\Local\Temp\ccNctp2I.s 			page 5


 221 002c 00000000 		.word	.LC0
 222              		.cfi_endproc
 223              	.LFE68:
 224              		.size	firmware_version, .-firmware_version
 225              		.section	.text.hardware_version,"ax",%progbits
 226              		.align	2
 227              		.p2align 4,,15
 228              		.thumb
 229              		.thumb_func
 230              		.type	hardware_version, %function
 231              	hardware_version:
 232              	.LFB67:
 233              		.loc 1 141 0
 234              		.cfi_startproc
 235              		@ args = 0, pretend = 0, frame = 16
 236              		@ frame_needed = 0, uses_anonymous_args = 0
 237              	.LVL11:
 238 0000 30B5     		push	{r4, r5, lr}
 239              	.LCFI6:
 240              		.cfi_def_cfa_offset 12
 241              		.loc 1 143 0
 242 0002 0A4B     		ldr	r3, .L20
 243              		.loc 1 141 0
 244 0004 85B0     		sub	sp, sp, #20
 245              	.LCFI7:
 246              		.cfi_def_cfa_offset 32
 247              		.loc 1 143 0
 248 0006 EC46     		mov	ip, sp
 249 0008 0FCB     		ldmia	r3, {r0, r1, r2, r3}
 250              	.LVL12:
 251 000a 8CE80F00 		stmia	ip, {r0, r1, r2, r3}
 252              	.LVL13:
 253 000e 0DF1FF34 		add	r4, sp, #-1
 254              		.cfi_offset 14, -4
 255              		.cfi_offset 5, -8
 256              		.cfi_offset 4, -12
 257              		.loc 1 140 0
 258 0012 0DF10E05 		add	r5, sp, #14
 259              	.LVL14:
 260              	.L18:
 261              		.loc 1 147 0 discriminator 2
 262 0016 14F8010F 		ldrb	r0, [r4, #1]!	@ zero_extendqisi2
 263 001a FFF7FEFF 		bl	writeResult
 264              		.loc 1 146 0 discriminator 2
 265 001e AC42     		cmp	r4, r5
 266 0020 F9D1     		bne	.L18
 267              		.loc 1 148 0
 268 0022 FFF7FEFF 		bl	writeEom
 269              		.loc 1 149 0
 270 0026 05B0     		add	sp, sp, #20
 271 0028 30BD     		pop	{r4, r5, pc}
 272              	.L21:
 273 002a 00BF     		.align	2
 274              	.L20:
 275 002c 08000000 		.word	.LC1
 276              		.cfi_endproc
 277              	.LFE67:
ARM GAS  C:\Users\z80\AppData\Local\Temp\ccNctp2I.s 			page 6


 278              		.size	hardware_version, .-hardware_version
 279              		.section	.text.set_dac2,"ax",%progbits
 280              		.align	2
 281              		.p2align 4,,15
 282              		.thumb
 283              		.thumb_func
 284              		.type	set_dac2, %function
 285              	set_dac2:
 286              	.LFB71:
 287              		.loc 1 176 0
 288              		.cfi_startproc
 289              		@ args = 0, pretend = 0, frame = 0
 290              		@ frame_needed = 0, uses_anonymous_args = 0
 291              	.LVL15:
 292 0000 08B5     		push	{r3, lr}
 293              	.LCFI8:
 294              		.cfi_def_cfa_offset 8
 295              		.loc 1 178 0
 296 0002 8378     		ldrb	r3, [r0, #2]	@ zero_extendqisi2
 297              		.cfi_offset 14, -4
 298              		.cfi_offset 3, -8
 299              		.loc 1 177 0
 300 0004 90F801C0 		ldrb	ip, [r0, #1]	@ zero_extendqisi2
 301 0008 0278     		ldrb	r2, [r0, #0]	@ zero_extendqisi2
 302              		.loc 1 178 0
 303 000a C178     		ldrb	r1, [r0, #3]	@ zero_extendqisi2
 304              		.loc 1 177 0
 305 000c 02EB0C20 		add	r0, r2, ip, lsl #8
 306              	.LVL16:
 307              		.loc 1 178 0
 308 0010 03EB0121 		add	r1, r3, r1, lsl #8
 309              		.loc 1 179 0
 310 0014 FFF7FEFF 		bl	setDac2
 311              		.loc 1 180 0
 312 0018 08BD     		pop	{r3, pc}
 313              		.cfi_endproc
 314              	.LFE71:
 315              		.size	set_dac2, .-set_dac2
 316 001a 00BFAFF3 		.section	.text.set_dac1,"ax",%progbits
 316      0080
 317              		.align	2
 318              		.p2align 4,,15
 319              		.thumb
 320              		.thumb_func
 321              		.type	set_dac1, %function
 322              	set_dac1:
 323              	.LFB70:
 324              		.loc 1 169 0
 325              		.cfi_startproc
 326              		@ args = 0, pretend = 0, frame = 0
 327              		@ frame_needed = 0, uses_anonymous_args = 0
 328              	.LVL17:
 329 0000 08B5     		push	{r3, lr}
 330              	.LCFI9:
 331              		.cfi_def_cfa_offset 8
 332              		.loc 1 171 0
 333 0002 8378     		ldrb	r3, [r0, #2]	@ zero_extendqisi2
ARM GAS  C:\Users\z80\AppData\Local\Temp\ccNctp2I.s 			page 7


 334              		.cfi_offset 14, -4
 335              		.cfi_offset 3, -8
 336              		.loc 1 170 0
 337 0004 90F801C0 		ldrb	ip, [r0, #1]	@ zero_extendqisi2
 338 0008 0278     		ldrb	r2, [r0, #0]	@ zero_extendqisi2
 339              		.loc 1 171 0
 340 000a C178     		ldrb	r1, [r0, #3]	@ zero_extendqisi2
 341              		.loc 1 170 0
 342 000c 02EB0C20 		add	r0, r2, ip, lsl #8
 343              	.LVL18:
 344              		.loc 1 171 0
 345 0010 03EB0121 		add	r1, r3, r1, lsl #8
 346              		.loc 1 172 0
 347 0014 FFF7FEFF 		bl	setDac1
 348              		.loc 1 173 0
 349 0018 08BD     		pop	{r3, pc}
 350              		.cfi_endproc
 351              	.LFE70:
 352              		.size	set_dac1, .-set_dac1
 353 001a 00BFAFF3 		.section	.text.set_led,"ax",%progbits
 353      0080
 354              		.align	2
 355              		.p2align 4,,15
 356              		.thumb
 357              		.thumb_func
 358              		.type	set_led, %function
 359              	set_led:
 360              	.LFB69:
 361              		.loc 1 163 0
 362              		.cfi_startproc
 363              		@ args = 0, pretend = 0, frame = 0
 364              		@ frame_needed = 0, uses_anonymous_args = 0
 365              	.LVL19:
 366 0000 08B5     		push	{r3, lr}
 367              	.LCFI10:
 368              		.cfi_def_cfa_offset 8
 369              		.loc 1 164 0
 370 0002 0078     		ldrb	r0, [r0, #0]	@ zero_extendqisi2
 371              	.LVL20:
 372              		.cfi_offset 14, -4
 373              		.cfi_offset 3, -8
 374 0004 FFF7FEFF 		bl	setLeds
 375              		.loc 1 165 0
 376 0008 08BD     		pop	{r3, pc}
 377              		.cfi_endproc
 378              	.LFE69:
 379              		.size	set_led, .-set_led
 380 000a 00BFAFF3 		.section	.text.initCpuIo,"ax",%progbits
 380      0080
 381              		.align	2
 382              		.p2align 4,,15
 383              		.global	initCpuIo
 384              		.thumb
 385              		.thumb_func
 386              		.type	initCpuIo, %function
 387              	initCpuIo:
 388              	.LFB62:
ARM GAS  C:\Users\z80\AppData\Local\Temp\ccNctp2I.s 			page 8


 389              		.loc 1 34 0
 390              		.cfi_startproc
 391              		@ args = 0, pretend = 0, frame = 0
 392              		@ frame_needed = 0, uses_anonymous_args = 0
 393 0000 10B5     		push	{r4, lr}
 394              	.LCFI11:
 395              		.cfi_def_cfa_offset 8
 396              		.loc 1 36 0
 397 0002 40F20000 		movw	r0, #:lower16:SD1
 398              		.loc 1 39 0
 399 0006 4FF40064 		mov	r4, #2048
 400              		.cfi_offset 14, -4
 401              		.cfi_offset 4, -8
 402              		.loc 1 36 0
 403 000a 0021     		movs	r1, #0
 404              		.loc 1 39 0
 405 000c C4F20104 		movt	r4, 16385
 406              		.loc 1 36 0
 407 0010 C0F20000 		movt	r0, #:upper16:SD1
 408 0014 FFF7FEFF 		bl	sdStart
 409              		.loc 1 39 0
 410 0018 2046     		mov	r0, r4
 411 001a 1022     		movs	r2, #16
 412 001c 4FF40071 		mov	r1, #512
 413 0020 FFF7FEFF 		bl	_pal_lld_setgroupmode
 414              		.loc 1 40 0
 415 0024 2046     		mov	r0, r4
 416 0026 4FF48061 		mov	r1, #1024
 417 002a 0222     		movs	r2, #2
 418 002c FFF7FEFF 		bl	_pal_lld_setgroupmode
 419              		.loc 1 41 0
 420 0030 10BD     		pop	{r4, pc}
 421              		.cfi_endproc
 422              	.LFE62:
 423              		.size	initCpuIo, .-initCpuIo
 424 0032 00BFAFF3 		.section	.text.processCpuIo,"ax",%progbits
 424      0080AFF3 
 424      0080AFF3 
 424      0080
 425              		.align	2
 426              		.p2align 4,,15
 427              		.global	processCpuIo
 428              		.thumb
 429              		.thumb_func
 430              		.type	processCpuIo, %function
 431              	processCpuIo:
 432              	.LFB63:
 433              		.loc 1 44 0
 434              		.cfi_startproc
 435              		@ args = 0, pretend = 0, frame = 0
 436              		@ frame_needed = 0, uses_anonymous_args = 0
 437 0000 10B5     		push	{r4, lr}
 438              	.LCFI12:
 439              		.cfi_def_cfa_offset 8
 440              		.loc 1 58 0
 441 0002 2948     		ldr	r0, .L39
 442 0004 4FF0FF31 		mov	r1, #-1
ARM GAS  C:\Users\z80\AppData\Local\Temp\ccNctp2I.s 			page 9


 443              		.cfi_offset 14, -4
 444              		.cfi_offset 4, -8
 445 0008 FFF7FEFF 		bl	chIQGetTimeout
 446              	.LVL21:
 447              		.loc 1 59 0
 448 000c 831C     		adds	r3, r0, #2
 449              		.loc 1 60 0
 450 000e 012B     		cmp	r3, #1
 451 0010 0ED9     		bls	.L26
 452              	.LBB10:
 453              		.loc 1 64 0
 454 0012 264A     		ldr	r2, .L39+4
 455              		.loc 1 62 0
 456 0014 C0B2     		uxtb	r0, r0
 457              	.LVL22:
 458              		.loc 1 64 0
 459 0016 1378     		ldrb	r3, [r2, #0]	@ zero_extendqisi2
 460              	.LVL23:
 461 0018 5BB9     		cbnz	r3, .L28
 462              		.loc 1 66 0
 463 001a C0B9     		cbnz	r0, .L29
 464              	.LBB13:
 465              	.LBB16:
 466              		.loc 1 99 0
 467 001c 2449     		ldr	r1, .L39+8
 468              	.LBE16:
 469              	.LBE13:
 470              		.loc 1 69 0
 471 001e 254C     		ldr	r4, .L39+12
 472              	.LBB12:
 473              	.LBB15:
 474              		.loc 1 101 0
 475 0020 0B78     		ldrb	r3, [r1, #0]	@ zero_extendqisi2
 476              	.LBE15:
 477              	.LBE12:
 478              		.loc 1 69 0
 479 0022 2068     		ldr	r0, [r4, #0]
 480              	.LVL24:
 481              	.LBB11:
 482              	.LBB23:
 483              		.loc 1 101 0
 484 0024 012B     		cmp	r3, #1
 485 0026 1ED0     		beq	.L31
 486 0028 022B     		cmp	r3, #2
 487 002a 32D0     		beq	.L38
 488              	.L30:
 489              	.LBB18:
 490              	.LBB20:
 491              		.loc 1 136 0
 492 002c 0023     		movs	r3, #0
 493              	.LVL25:
 494              	.L35:
 495              	.LBE20:
 496              	.LBE18:
 497              	.LBE23:
 498              	.LBE11:
 499              		.loc 1 83 0
ARM GAS  C:\Users\z80\AppData\Local\Temp\ccNctp2I.s 			page 10


 500 002e 2360     		str	r3, [r4, #0]
 501              	.LVL26:
 502              	.L26:
 503              	.LBE10:
 504              		.loc 1 86 0
 505 0030 10BD     		pop	{r4, pc}
 506              	.LVL27:
 507              	.L28:
 508              	.LBB27:
 509              		.loc 1 80 0
 510 0032 204C     		ldr	r4, .L39+12
 511              		.loc 1 79 0
 512 0034 4FF0000C 		mov	ip, #0
 513              		.loc 1 80 0
 514 0038 2168     		ldr	r1, [r4, #0]
 515              		.loc 1 79 0
 516 003a 82F800C0 		strb	ip, [r2, #0]
 517              		.loc 1 80 0
 518 003e 4B1C     		adds	r3, r1, #1
 519 0040 1B4A     		ldr	r2, .L39+8
 520 0042 202B     		cmp	r3, #32
 521 0044 A8BF     		it	ge
 522 0046 2023     		movge	r3, #32
 523 0048 5054     		strb	r0, [r2, r1]
 524              		.loc 1 83 0
 525 004a 2360     		str	r3, [r4, #0]
 526 004c F0E7     		b	.L26
 527              	.L29:
 528              		.loc 1 72 0
 529 004e 5C28     		cmp	r0, #92
 530 0050 16D0     		beq	.L36
 531              		.loc 1 73 0
 532 0052 184C     		ldr	r4, .L39+12
 533 0054 1649     		ldr	r1, .L39+8
 534 0056 2268     		ldr	r2, [r4, #0]
 535 0058 531C     		adds	r3, r2, #1
 536 005a 202B     		cmp	r3, #32
 537 005c A8BF     		it	ge
 538 005e 2023     		movge	r3, #32
 539 0060 8854     		strb	r0, [r1, r2]
 540              		.loc 1 83 0
 541 0062 2360     		str	r3, [r4, #0]
 542 0064 E4E7     		b	.L26
 543              	.LVL28:
 544              	.L31:
 545              	.LBB25:
 546              	.LBB14:
 547              		.loc 1 104 0
 548 0066 0128     		cmp	r0, #1
 549 0068 E0DD     		ble	.L30
 550 006a 134A     		ldr	r2, .L39+16
 551              		.loc 1 100 0
 552 006c 4B1C     		adds	r3, r1, #1
 553              		.loc 1 43 0
 554 006e 0818     		adds	r0, r1, r0
 555              	.LVL29:
 556              	.L33:
ARM GAS  C:\Users\z80\AppData\Local\Temp\ccNctp2I.s 			page 11


 557              		.loc 1 105 0
 558 0070 13F8011B 		ldrb	r1, [r3], #1	@ zero_extendqisi2
 559              		.loc 1 104 0
 560 0074 8342     		cmp	r3, r0
 561              		.loc 1 105 0
 562 0076 02F8011F 		strb	r1, [r2, #1]!
 563              		.loc 1 104 0
 564 007a F9D1     		bne	.L33
 565              	.LBB17:
 566              	.LBB19:
 567              		.loc 1 136 0
 568 007c 0023     		movs	r3, #0
 569 007e D6E7     		b	.L35
 570              	.LVL30:
 571              	.L36:
 572              	.LBE19:
 573              	.LBE17:
 574              	.LBE14:
 575              	.LBE25:
 576              		.loc 1 75 0
 577 0080 0C4C     		ldr	r4, .L39+12
 578 0082 0121     		movs	r1, #1
 579 0084 2368     		ldr	r3, [r4, #0]
 580 0086 1170     		strb	r1, [r2, #0]
 581 0088 202B     		cmp	r3, #32
 582 008a A8BF     		it	ge
 583 008c 2023     		movge	r3, #32
 584              		.loc 1 83 0
 585 008e 2360     		str	r3, [r4, #0]
 586 0090 CEE7     		b	.L26
 587              	.LVL31:
 588              	.L38:
 589              	.LBB26:
 590              	.LBB24:
 591              	.LBB22:
 592              	.LBB21:
 593              		.loc 1 133 0
 594 0092 4B78     		ldrb	r3, [r1, #1]	@ zero_extendqisi2
 595              	.LVL32:
 596              		.loc 1 137 0
 597 0094 094A     		ldr	r2, .L39+20
 598              		.loc 1 136 0
 599 0096 052B     		cmp	r3, #5
 600 0098 C8BF     		it	gt
 601 009a 0023     		movgt	r3, #0
 602              	.LVL33:
 603              		.loc 1 137 0
 604 009c 52F82330 		ldr	r3, [r2, r3, lsl #2]
 605              	.LVL34:
 606 00a0 0748     		ldr	r0, .L39+24
 607              	.LVL35:
 608 00a2 9847     		blx	r3
 609              	.LVL36:
 610              		.loc 1 136 0
 611 00a4 0023     		movs	r3, #0
 612 00a6 C2E7     		b	.L35
 613              	.L40:
ARM GAS  C:\Users\z80\AppData\Local\Temp\ccNctp2I.s 			page 12


 614              		.align	2
 615              	.L39:
 616 00a8 10000000 		.word	SD1+16
 617 00ac 00000000 		.word	.LANCHOR0
 618 00b0 00000000 		.word	.LANCHOR2
 619 00b4 00000000 		.word	.LANCHOR1
 620 00b8 FFFFFFFF 		.word	.LANCHOR3-1
 621 00bc 00000000 		.word	.LANCHOR4
 622 00c0 00000000 		.word	.LANCHOR3
 623              	.LBE21:
 624              	.LBE22:
 625              	.LBE24:
 626              	.LBE26:
 627              	.LBE27:
 628              		.cfi_endproc
 629              	.LFE63:
 630              		.size	processCpuIo, .-processCpuIo
 631 00c4 AFF30080 		.section	.text.funcArgs,"ax",%progbits
 631      AFF30080 
 631      AFF30080 
 632              		.align	2
 633              		.p2align 4,,15
 634              		.global	funcArgs
 635              		.thumb
 636              		.thumb_func
 637              		.type	funcArgs, %function
 638              	funcArgs:
 639              	.LFB64:
 640              		.loc 1 89 0
 641              		.cfi_startproc
 642              		@ args = 0, pretend = 0, frame = 0
 643              		@ frame_needed = 0, uses_anonymous_args = 0
 644              		@ link register save eliminated.
 645              		.loc 1 90 0
 646 0000 40F20000 		movw	r0, #:lower16:.LANCHOR3
 647 0004 C0F20000 		movt	r0, #:upper16:.LANCHOR3
 648              		.loc 1 91 0
 649 0008 7047     		bx	lr
 650              		.cfi_endproc
 651              	.LFE64:
 652              		.size	funcArgs, .-funcArgs
 653 000a 00BFAFF3 		.section	.bss.out_index.3767,"aw",%nobits
 653      0080
 654              		.align	2
 655              		.set	.LANCHOR1,. + 0
 656              		.type	out_index.3767, %object
 657              		.size	out_index.3767, 4
 658              	out_index.3767:
 659 0000 00000000 		.space	4
 660              		.section	.rodata.funcs,"a",%progbits
 661              		.align	2
 662              		.set	.LANCHOR4,. + 0
 663              		.type	funcs, %object
 664              		.size	funcs, 24
 665              	funcs:
 666 0000 00000000 		.word	hardware_version
 667 0004 00000000 		.word	firmware_version
ARM GAS  C:\Users\z80\AppData\Local\Temp\ccNctp2I.s 			page 13


 668 0008 00000000 		.word	set_led
 669 000c 00000000 		.word	set_dac1
 670 0010 00000000 		.word	set_dac2
 671 0014 00000000 		.word	get_adc
 672              		.section	.bss.buffer,"aw",%nobits
 673              		.align	2
 674              		.set	.LANCHOR2,. + 0
 675              		.type	buffer, %object
 676              		.size	buffer, 32
 677              	buffer:
 678 0000 00000000 		.space	32
 678      00000000 
 678      00000000 
 678      00000000 
 678      00000000 
 679              		.section	.rodata.str1.4,"aMS",%progbits,1
 680              		.align	2
 681              	.LC0:
 682 0000 302E302E 		.ascii	"0.0.1\000"
 682      3100
 683 0006 0000     		.space	2
 684              	.LC1:
 685 0008 64696769 		.ascii	"digitizer-1.0.0\000"
 685      74697A65 
 685      722D312E 
 685      302E3000 
 686              		.section	.bss.args,"aw",%nobits
 687              		.align	2
 688              		.set	.LANCHOR3,. + 0
 689              		.type	args, %object
 690              		.size	args, 32
 691              	args:
 692 0000 00000000 		.space	32
 692      00000000 
 692      00000000 
 692      00000000 
 692      00000000 
 693              		.section	.bss.slash.3766,"aw",%nobits
 694              		.set	.LANCHOR0,. + 0
 695              		.type	slash.3766, %object
 696              		.size	slash.3766, 1
 697              	slash.3766:
 698 0000 00       		.space	1
 699              		.text
 700              	.Letext0:
 701              		.section	.debug_loc,"",%progbits
 702              	.Ldebug_loc0:
 703              	.LLST0:
 704 0000 00000000 		.4byte	.LFB73
 705 0004 12000000 		.4byte	.LCFI0
 706 0008 0200     		.2byte	0x2
 707 000a 7D       		.byte	0x7d
 708 000b 00       		.sleb128 0
 709 000c 12000000 		.4byte	.LCFI0
 710 0010 34000000 		.4byte	.LFE73
 711 0014 0200     		.2byte	0x2
 712 0016 7D       		.byte	0x7d
ARM GAS  C:\Users\z80\AppData\Local\Temp\ccNctp2I.s 			page 14


 713 0017 08       		.sleb128 8
 714 0018 00000000 		.4byte	0x0
 715 001c 00000000 		.4byte	0x0
 716              	.LLST1:
 717 0020 00000000 		.4byte	.LVL0
 718 0024 18000000 		.4byte	.LVL1
 719 0028 0100     		.2byte	0x1
 720 002a 50       		.byte	0x50
 721 002b 00000000 		.4byte	0x0
 722 002f 00000000 		.4byte	0x0
 723              	.LLST2:
 724 0033 00000000 		.4byte	.LFB74
 725 0037 02000000 		.4byte	.LCFI1
 726 003b 0200     		.2byte	0x2
 727 003d 7D       		.byte	0x7d
 728 003e 00       		.sleb128 0
 729 003f 02000000 		.4byte	.LCFI1
 730 0043 14000000 		.4byte	.LFE74
 731 0047 0200     		.2byte	0x2
 732 0049 7D       		.byte	0x7d
 733 004a 08       		.sleb128 8
 734 004b 00000000 		.4byte	0x0
 735 004f 00000000 		.4byte	0x0
 736              	.LLST3:
 737 0053 00000000 		.4byte	.LFB72
 738 0057 02000000 		.4byte	.LCFI2
 739 005b 0200     		.2byte	0x2
 740 005d 7D       		.byte	0x7d
 741 005e 00       		.sleb128 0
 742 005f 02000000 		.4byte	.LCFI2
 743 0063 04000000 		.4byte	.LCFI3
 744 0067 0200     		.2byte	0x2
 745 0069 7D       		.byte	0x7d
 746 006a 0C       		.sleb128 12
 747 006b 04000000 		.4byte	.LCFI3
 748 006f 3E000000 		.4byte	.LFE72
 749 0073 0200     		.2byte	0x2
 750 0075 7D       		.byte	0x7d
 751 0076 20       		.sleb128 32
 752 0077 00000000 		.4byte	0x0
 753 007b 00000000 		.4byte	0x0
 754              	.LLST4:
 755 007f 00000000 		.4byte	.LVL2
 756 0083 06000000 		.4byte	.LVL3
 757 0087 0100     		.2byte	0x1
 758 0089 50       		.byte	0x50
 759 008a 00000000 		.4byte	0x0
 760 008e 00000000 		.4byte	0x0
 761              	.LLST5:
 762 0092 0A000000 		.4byte	.LVL4
 763 0096 0E000000 		.4byte	.LVL5
 764 009a 0200     		.2byte	0x2
 765 009c 30       		.byte	0x30
 766 009d 9F       		.byte	0x9f
 767 009e 00000000 		.4byte	0x0
 768 00a2 00000000 		.4byte	0x0
 769              	.LLST6:
ARM GAS  C:\Users\z80\AppData\Local\Temp\ccNctp2I.s 			page 15


 770 00a6 0E000000 		.4byte	.LVL5
 771 00aa 13000000 		.4byte	.LVL6-1
 772 00ae 0800     		.2byte	0x8
 773 00b0 91       		.byte	0x91
 774 00b1 00       		.sleb128 0
 775 00b2 74       		.byte	0x74
 776 00b3 00       		.sleb128 0
 777 00b4 22       		.byte	0x22
 778 00b5 09       		.byte	0x9
 779 00b6 E0       		.byte	0xe0
 780 00b7 22       		.byte	0x22
 781 00b8 00000000 		.4byte	0x0
 782 00bc 00000000 		.4byte	0x0
 783              	.LLST7:
 784 00c0 00000000 		.4byte	.LFB68
 785 00c4 02000000 		.4byte	.LCFI4
 786 00c8 0200     		.2byte	0x2
 787 00ca 7D       		.byte	0x7d
 788 00cb 00       		.sleb128 0
 789 00cc 02000000 		.4byte	.LCFI4
 790 00d0 06000000 		.4byte	.LCFI5
 791 00d4 0200     		.2byte	0x2
 792 00d6 7D       		.byte	0x7d
 793 00d7 0C       		.sleb128 12
 794 00d8 06000000 		.4byte	.LCFI5
 795 00dc 30000000 		.4byte	.LFE68
 796 00e0 0200     		.2byte	0x2
 797 00e2 7D       		.byte	0x7d
 798 00e3 18       		.sleb128 24
 799 00e4 00000000 		.4byte	0x0
 800 00e8 00000000 		.4byte	0x0
 801              	.LLST8:
 802 00ec 00000000 		.4byte	.LVL7
 803 00f0 0C000000 		.4byte	.LVL8
 804 00f4 0100     		.2byte	0x1
 805 00f6 50       		.byte	0x50
 806 00f7 00000000 		.4byte	0x0
 807 00fb 00000000 		.4byte	0x0
 808              	.LLST9:
 809 00ff 16000000 		.4byte	.LVL9
 810 0103 18000000 		.4byte	.LVL10
 811 0107 0200     		.2byte	0x2
 812 0109 30       		.byte	0x30
 813 010a 9F       		.byte	0x9f
 814 010b 00000000 		.4byte	0x0
 815 010f 00000000 		.4byte	0x0
 816              	.LLST10:
 817 0113 00000000 		.4byte	.LFB67
 818 0117 02000000 		.4byte	.LCFI6
 819 011b 0200     		.2byte	0x2
 820 011d 7D       		.byte	0x7d
 821 011e 00       		.sleb128 0
 822 011f 02000000 		.4byte	.LCFI6
 823 0123 06000000 		.4byte	.LCFI7
 824 0127 0200     		.2byte	0x2
 825 0129 7D       		.byte	0x7d
 826 012a 0C       		.sleb128 12
ARM GAS  C:\Users\z80\AppData\Local\Temp\ccNctp2I.s 			page 16


 827 012b 06000000 		.4byte	.LCFI7
 828 012f 30000000 		.4byte	.LFE67
 829 0133 0200     		.2byte	0x2
 830 0135 7D       		.byte	0x7d
 831 0136 20       		.sleb128 32
 832 0137 00000000 		.4byte	0x0
 833 013b 00000000 		.4byte	0x0
 834              	.LLST11:
 835 013f 00000000 		.4byte	.LVL11
 836 0143 0A000000 		.4byte	.LVL12
 837 0147 0100     		.2byte	0x1
 838 0149 50       		.byte	0x50
 839 014a 00000000 		.4byte	0x0
 840 014e 00000000 		.4byte	0x0
 841              	.LLST12:
 842 0152 0E000000 		.4byte	.LVL13
 843 0156 16000000 		.4byte	.LVL14
 844 015a 0200     		.2byte	0x2
 845 015c 30       		.byte	0x30
 846 015d 9F       		.byte	0x9f
 847 015e 00000000 		.4byte	0x0
 848 0162 00000000 		.4byte	0x0
 849              	.LLST13:
 850 0166 00000000 		.4byte	.LFB71
 851 016a 02000000 		.4byte	.LCFI8
 852 016e 0200     		.2byte	0x2
 853 0170 7D       		.byte	0x7d
 854 0171 00       		.sleb128 0
 855 0172 02000000 		.4byte	.LCFI8
 856 0176 1A000000 		.4byte	.LFE71
 857 017a 0200     		.2byte	0x2
 858 017c 7D       		.byte	0x7d
 859 017d 08       		.sleb128 8
 860 017e 00000000 		.4byte	0x0
 861 0182 00000000 		.4byte	0x0
 862              	.LLST14:
 863 0186 00000000 		.4byte	.LVL15
 864 018a 10000000 		.4byte	.LVL16
 865 018e 0100     		.2byte	0x1
 866 0190 50       		.byte	0x50
 867 0191 00000000 		.4byte	0x0
 868 0195 00000000 		.4byte	0x0
 869              	.LLST15:
 870 0199 00000000 		.4byte	.LFB70
 871 019d 02000000 		.4byte	.LCFI9
 872 01a1 0200     		.2byte	0x2
 873 01a3 7D       		.byte	0x7d
 874 01a4 00       		.sleb128 0
 875 01a5 02000000 		.4byte	.LCFI9
 876 01a9 1A000000 		.4byte	.LFE70
 877 01ad 0200     		.2byte	0x2
 878 01af 7D       		.byte	0x7d
 879 01b0 08       		.sleb128 8
 880 01b1 00000000 		.4byte	0x0
 881 01b5 00000000 		.4byte	0x0
 882              	.LLST16:
 883 01b9 00000000 		.4byte	.LVL17
ARM GAS  C:\Users\z80\AppData\Local\Temp\ccNctp2I.s 			page 17


 884 01bd 10000000 		.4byte	.LVL18
 885 01c1 0100     		.2byte	0x1
 886 01c3 50       		.byte	0x50
 887 01c4 00000000 		.4byte	0x0
 888 01c8 00000000 		.4byte	0x0
 889              	.LLST17:
 890 01cc 00000000 		.4byte	.LFB69
 891 01d0 02000000 		.4byte	.LCFI10
 892 01d4 0200     		.2byte	0x2
 893 01d6 7D       		.byte	0x7d
 894 01d7 00       		.sleb128 0
 895 01d8 02000000 		.4byte	.LCFI10
 896 01dc 0A000000 		.4byte	.LFE69
 897 01e0 0200     		.2byte	0x2
 898 01e2 7D       		.byte	0x7d
 899 01e3 08       		.sleb128 8
 900 01e4 00000000 		.4byte	0x0
 901 01e8 00000000 		.4byte	0x0
 902              	.LLST18:
 903 01ec 00000000 		.4byte	.LVL19
 904 01f0 04000000 		.4byte	.LVL20
 905 01f4 0100     		.2byte	0x1
 906 01f6 50       		.byte	0x50
 907 01f7 00000000 		.4byte	0x0
 908 01fb 00000000 		.4byte	0x0
 909              	.LLST19:
 910 01ff 00000000 		.4byte	.LFB62
 911 0203 02000000 		.4byte	.LCFI11
 912 0207 0200     		.2byte	0x2
 913 0209 7D       		.byte	0x7d
 914 020a 00       		.sleb128 0
 915 020b 02000000 		.4byte	.LCFI11
 916 020f 32000000 		.4byte	.LFE62
 917 0213 0200     		.2byte	0x2
 918 0215 7D       		.byte	0x7d
 919 0216 08       		.sleb128 8
 920 0217 00000000 		.4byte	0x0
 921 021b 00000000 		.4byte	0x0
 922              	.LLST20:
 923 021f 00000000 		.4byte	.LFB63
 924 0223 02000000 		.4byte	.LCFI12
 925 0227 0200     		.2byte	0x2
 926 0229 7D       		.byte	0x7d
 927 022a 00       		.sleb128 0
 928 022b 02000000 		.4byte	.LCFI12
 929 022f C4000000 		.4byte	.LFE63
 930 0233 0200     		.2byte	0x2
 931 0235 7D       		.byte	0x7d
 932 0236 08       		.sleb128 8
 933 0237 00000000 		.4byte	0x0
 934 023b 00000000 		.4byte	0x0
 935              	.LLST21:
 936 023f 0C000000 		.4byte	.LVL21
 937 0243 16000000 		.4byte	.LVL22
 938 0247 0100     		.2byte	0x1
 939 0249 50       		.byte	0x50
 940 024a 16000000 		.4byte	.LVL22
ARM GAS  C:\Users\z80\AppData\Local\Temp\ccNctp2I.s 			page 18


 941 024e 18000000 		.4byte	.LVL23
 942 0252 0300     		.2byte	0x3
 943 0254 73       		.byte	0x73
 944 0255 7E       		.sleb128 -2
 945 0256 9F       		.byte	0x9f
 946 0257 00000000 		.4byte	0x0
 947 025b 00000000 		.4byte	0x0
 948              	.LLST22:
 949 025f 0C000000 		.4byte	.LVL21
 950 0263 16000000 		.4byte	.LVL22
 951 0267 0F00     		.2byte	0xf
 952 0269 70       		.byte	0x70
 953 026a 02       		.sleb128 2
 954 026b 23       		.byte	0x23
 955 026c 80808080 		.uleb128 0x80000000
 955      08
 956 0271 0C       		.byte	0xc
 957 0272 01000080 		.4byte	0x80000001
 958 0276 2C       		.byte	0x2c
 959 0277 9F       		.byte	0x9f
 960 0278 16000000 		.4byte	.LVL22
 961 027c 18000000 		.4byte	.LVL23
 962 0280 0F00     		.2byte	0xf
 963 0282 73       		.byte	0x73
 964 0283 00       		.sleb128 0
 965 0284 23       		.byte	0x23
 966 0285 80808080 		.uleb128 0x80000000
 966      08
 967 028a 0C       		.byte	0xc
 968 028b 01000080 		.4byte	0x80000001
 969 028f 2C       		.byte	0x2c
 970 0290 9F       		.byte	0x9f
 971 0291 00000000 		.4byte	0x0
 972 0295 00000000 		.4byte	0x0
 973              	.LLST23:
 974 0299 16000000 		.4byte	.LVL22
 975 029d 24000000 		.4byte	.LVL24
 976 02a1 0100     		.2byte	0x1
 977 02a3 50       		.byte	0x50
 978 02a4 32000000 		.4byte	.LVL27
 979 02a8 66000000 		.4byte	.LVL28
 980 02ac 0100     		.2byte	0x1
 981 02ae 50       		.byte	0x50
 982 02af 80000000 		.4byte	.LVL30
 983 02b3 92000000 		.4byte	.LVL31
 984 02b7 0100     		.2byte	0x1
 985 02b9 50       		.byte	0x50
 986 02ba 00000000 		.4byte	0x0
 987 02be 00000000 		.4byte	0x0
 988              	.LLST24:
 989 02c2 24000000 		.4byte	.LVL24
 990 02c6 2E000000 		.4byte	.LVL25
 991 02ca 0500     		.2byte	0x5
 992 02cc 03       		.byte	0x3
 993 02cd 00000000 		.4byte	out_index.3767
 994 02d1 66000000 		.4byte	.LVL28
 995 02d5 70000000 		.4byte	.LVL29
ARM GAS  C:\Users\z80\AppData\Local\Temp\ccNctp2I.s 			page 19


 996 02d9 0100     		.2byte	0x1
 997 02db 50       		.byte	0x50
 998 02dc 70000000 		.4byte	.LVL29
 999 02e0 80000000 		.4byte	.LVL30
 1000 02e4 0500     		.2byte	0x5
 1001 02e6 03       		.byte	0x3
 1002 02e7 00000000 		.4byte	out_index.3767
 1003 02eb 92000000 		.4byte	.LVL31
 1004 02ef A2000000 		.4byte	.LVL35
 1005 02f3 0100     		.2byte	0x1
 1006 02f5 50       		.byte	0x50
 1007 02f6 A2000000 		.4byte	.LVL35
 1008 02fa A3000000 		.4byte	.LVL36-1
 1009 02fe 0500     		.2byte	0x5
 1010 0300 03       		.byte	0x3
 1011 0301 00000000 		.4byte	out_index.3767
 1012 0305 00000000 		.4byte	0x0
 1013 0309 00000000 		.4byte	0x0
 1014              	.LLST25:
 1015 030d 24000000 		.4byte	.LVL24
 1016 0311 30000000 		.4byte	.LVL26
 1017 0315 0600     		.2byte	0x6
 1018 0317 03       		.byte	0x3
 1019 0318 00000000 		.4byte	buffer
 1020 031c 9F       		.byte	0x9f
 1021 031d 66000000 		.4byte	.LVL28
 1022 0321 80000000 		.4byte	.LVL30
 1023 0325 0600     		.2byte	0x6
 1024 0327 03       		.byte	0x3
 1025 0328 00000000 		.4byte	buffer
 1026 032c 9F       		.byte	0x9f
 1027 032d 92000000 		.4byte	.LVL31
 1028 0331 C4000000 		.4byte	.LFE63
 1029 0335 0600     		.2byte	0x6
 1030 0337 03       		.byte	0x3
 1031 0338 00000000 		.4byte	buffer
 1032 033c 9F       		.byte	0x9f
 1033 033d 00000000 		.4byte	0x0
 1034 0341 00000000 		.4byte	0x0
 1035              	.LLST26:
 1036 0345 66000000 		.4byte	.LVL28
 1037 0349 70000000 		.4byte	.LVL29
 1038 034d 0200     		.2byte	0x2
 1039 034f 30       		.byte	0x30
 1040 0350 9F       		.byte	0x9f
 1041 0351 00000000 		.4byte	0x0
 1042 0355 00000000 		.4byte	0x0
 1043              	.LLST27:
 1044 0359 24000000 		.4byte	.LVL24
 1045 035d 2E000000 		.4byte	.LVL25
 1046 0361 0500     		.2byte	0x5
 1047 0363 03       		.byte	0x3
 1048 0364 00000000 		.4byte	buffer
 1049 0368 66000000 		.4byte	.LVL28
 1050 036c 80000000 		.4byte	.LVL30
 1051 0370 0500     		.2byte	0x5
 1052 0372 03       		.byte	0x3
ARM GAS  C:\Users\z80\AppData\Local\Temp\ccNctp2I.s 			page 20


 1053 0373 00000000 		.4byte	buffer
 1054 0377 92000000 		.4byte	.LVL31
 1055 037b A3000000 		.4byte	.LVL36-1
 1056 037f 0500     		.2byte	0x5
 1057 0381 03       		.byte	0x3
 1058 0382 00000000 		.4byte	buffer
 1059 0386 00000000 		.4byte	0x0
 1060 038a 00000000 		.4byte	0x0
 1061              	.LLST28:
 1062 038e 24000000 		.4byte	.LVL24
 1063 0392 30000000 		.4byte	.LVL26
 1064 0396 0600     		.2byte	0x6
 1065 0398 03       		.byte	0x3
 1066 0399 01000000 		.4byte	buffer+1
 1067 039d 9F       		.byte	0x9f
 1068 039e 66000000 		.4byte	.LVL28
 1069 03a2 80000000 		.4byte	.LVL30
 1070 03a6 0600     		.2byte	0x6
 1071 03a8 03       		.byte	0x3
 1072 03a9 01000000 		.4byte	buffer+1
 1073 03ad 9F       		.byte	0x9f
 1074 03ae 92000000 		.4byte	.LVL31
 1075 03b2 C4000000 		.4byte	.LFE63
 1076 03b6 0600     		.2byte	0x6
 1077 03b8 03       		.byte	0x3
 1078 03b9 01000000 		.4byte	buffer+1
 1079 03bd 9F       		.byte	0x9f
 1080 03be 00000000 		.4byte	0x0
 1081 03c2 00000000 		.4byte	0x0
 1082              	.LLST29:
 1083 03c6 94000000 		.4byte	.LVL32
 1084 03ca 9C000000 		.4byte	.LVL33
 1085 03ce 0100     		.2byte	0x1
 1086 03d0 53       		.byte	0x53
 1087 03d1 9C000000 		.4byte	.LVL33
 1088 03d5 A0000000 		.4byte	.LVL34
 1089 03d9 0100     		.2byte	0x1
 1090 03db 53       		.byte	0x53
 1091 03dc 00000000 		.4byte	0x0
 1092 03e0 00000000 		.4byte	0x0
 1093              		.file 2 "c:\\programs\\yagarto\\bin\\../lib/gcc/arm-none-eabi/4.5.0/include/stddef.h"
 1094              		.file 3 "c:/programs/yagarto/lib/gcc/../../arm-none-eabi/sys-include/stdint.h"
 1095              		.file 4 "../chibios_2.4.x/os/ports/GCC/ARMCMx/chtypes.h"
 1096              		.file 5 "../chibios_2.4.x/os/kernel/include/chlists.h"
 1097              		.file 6 "../chibios_2.4.x/os/kernel/include/chthreads.h"
 1098              		.file 7 "../chibios_2.4.x/os/ports/GCC/ARMCMx/chcore_v7m.h"
 1099              		.file 8 "../chibios_2.4.x/os/kernel/include/chmtx.h"
 1100              		.file 9 "../chibios_2.4.x/os/kernel/include/chevents.h"
 1101              		.file 10 "../chibios_2.4.x/os/kernel/include/chqueues.h"
 1102              		.file 11 "../chibios_2.4.x/os/kernel/include/chioch.h"
 1103              		.file 12 "./src/cpu_io.h"
 1104              		.file 13 "../chibios_2.4.x/os/hal/platforms/STM32F1xx/stm32f10x.h"
 1105              		.file 14 "../chibios_2.4.x/os/hal/platforms/STM32/GPIOv1/pal_lld.h"
 1106              		.file 15 "../chibios_2.4.x/os/hal/include/serial.h"
 1107              		.file 16 "../chibios_2.4.x/os/ports/common/ARMCMx/CMSIS/include/core_cm3.h"
 1108              		.file 17 "../chibios_2.4.x/os/hal/platforms/STM32/serial_lld.h"
 1109              		.section	.debug_info
ARM GAS  C:\Users\z80\AppData\Local\Temp\ccNctp2I.s 			page 21


 1110 0000 140D0000 		.4byte	0xd14
 1111 0004 0200     		.2byte	0x2
 1112 0006 00000000 		.4byte	.Ldebug_abbrev0
 1113 000a 04       		.byte	0x4
 1114 000b 01       		.uleb128 0x1
 1115 000c E1040000 		.4byte	.LASF129
 1116 0010 01       		.byte	0x1
 1117 0011 72020000 		.4byte	.LASF130
 1118 0015 ED000000 		.4byte	.LASF131
 1119 0019 00000000 		.4byte	0x0
 1120 001d 00000000 		.4byte	0x0
 1121 0021 B8000000 		.4byte	.Ldebug_ranges0+0xb8
 1122 0025 00000000 		.4byte	.Ldebug_line0
 1123 0029 02       		.uleb128 0x2
 1124 002a 04       		.byte	0x4
 1125 002b 05       		.byte	0x5
 1126 002c 696E7400 		.ascii	"int\000"
 1127 0030 03       		.uleb128 0x3
 1128 0031 11000000 		.4byte	.LASF2
 1129 0035 02       		.byte	0x2
 1130 0036 D3       		.byte	0xd3
 1131 0037 3B000000 		.4byte	0x3b
 1132 003b 04       		.uleb128 0x4
 1133 003c 04       		.byte	0x4
 1134 003d 07       		.byte	0x7
 1135 003e 86010000 		.4byte	.LASF0
 1136 0042 04       		.uleb128 0x4
 1137 0043 01       		.byte	0x1
 1138 0044 06       		.byte	0x6
 1139 0045 C0000000 		.4byte	.LASF1
 1140 0049 03       		.uleb128 0x3
 1141 004a BA040000 		.4byte	.LASF3
 1142 004e 03       		.byte	0x3
 1143 004f 2A       		.byte	0x2a
 1144 0050 54000000 		.4byte	0x54
 1145 0054 04       		.uleb128 0x4
 1146 0055 01       		.byte	0x1
 1147 0056 08       		.byte	0x8
 1148 0057 52030000 		.4byte	.LASF4
 1149 005b 04       		.uleb128 0x4
 1150 005c 02       		.byte	0x2
 1151 005d 05       		.byte	0x5
 1152 005e 7E030000 		.4byte	.LASF5
 1153 0062 03       		.uleb128 0x3
 1154 0063 93010000 		.4byte	.LASF6
 1155 0067 03       		.byte	0x3
 1156 0068 36       		.byte	0x36
 1157 0069 6D000000 		.4byte	0x6d
 1158 006d 04       		.uleb128 0x4
 1159 006e 02       		.byte	0x2
 1160 006f 07       		.byte	0x7
 1161 0070 F7010000 		.4byte	.LASF7
 1162 0074 03       		.uleb128 0x3
 1163 0075 4A030000 		.4byte	.LASF8
 1164 0079 03       		.byte	0x3
 1165 007a 4F       		.byte	0x4f
 1166 007b 7F000000 		.4byte	0x7f
ARM GAS  C:\Users\z80\AppData\Local\Temp\ccNctp2I.s 			page 22


 1167 007f 04       		.uleb128 0x4
 1168 0080 04       		.byte	0x4
 1169 0081 05       		.byte	0x5
 1170 0082 20010000 		.4byte	.LASF9
 1171 0086 03       		.uleb128 0x3
 1172 0087 E6030000 		.4byte	.LASF10
 1173 008b 03       		.byte	0x3
 1174 008c 50       		.byte	0x50
 1175 008d 91000000 		.4byte	0x91
 1176 0091 04       		.uleb128 0x4
 1177 0092 04       		.byte	0x4
 1178 0093 07       		.byte	0x7
 1179 0094 06040000 		.4byte	.LASF11
 1180 0098 04       		.uleb128 0x4
 1181 0099 08       		.byte	0x8
 1182 009a 05       		.byte	0x5
 1183 009b B2000000 		.4byte	.LASF12
 1184 009f 03       		.uleb128 0x3
 1185 00a0 1F000000 		.4byte	.LASF13
 1186 00a4 03       		.byte	0x3
 1187 00a5 78       		.byte	0x78
 1188 00a6 AA000000 		.4byte	0xaa
 1189 00aa 04       		.uleb128 0x4
 1190 00ab 08       		.byte	0x8
 1191 00ac 07       		.byte	0x7
 1192 00ad 5B000000 		.4byte	.LASF14
 1193 00b1 03       		.uleb128 0x3
 1194 00b2 4D000000 		.4byte	.LASF15
 1195 00b6 03       		.byte	0x3
 1196 00b7 A6       		.byte	0xa6
 1197 00b8 3B000000 		.4byte	0x3b
 1198 00bc 03       		.uleb128 0x3
 1199 00bd DE000000 		.4byte	.LASF16
 1200 00c1 04       		.byte	0x4
 1201 00c2 2E       		.byte	0x2e
 1202 00c3 74000000 		.4byte	0x74
 1203 00c7 03       		.uleb128 0x3
 1204 00c8 3D020000 		.4byte	.LASF17
 1205 00cc 04       		.byte	0x4
 1206 00cd 2F       		.byte	0x2f
 1207 00ce 49000000 		.4byte	0x49
 1208 00d2 03       		.uleb128 0x3
 1209 00d3 29010000 		.4byte	.LASF18
 1210 00d7 04       		.byte	0x4
 1211 00d8 30       		.byte	0x30
 1212 00d9 49000000 		.4byte	0x49
 1213 00dd 03       		.uleb128 0x3
 1214 00de 00000000 		.4byte	.LASF19
 1215 00e2 04       		.byte	0x4
 1216 00e3 32       		.byte	0x32
 1217 00e4 86000000 		.4byte	0x86
 1218 00e8 03       		.uleb128 0x3
 1219 00e9 0A020000 		.4byte	.LASF20
 1220 00ed 04       		.byte	0x4
 1221 00ee 33       		.byte	0x33
 1222 00ef 74000000 		.4byte	0x74
 1223 00f3 03       		.uleb128 0x3
ARM GAS  C:\Users\z80\AppData\Local\Temp\ccNctp2I.s 			page 23


 1224 00f4 51020000 		.4byte	.LASF21
 1225 00f8 04       		.byte	0x4
 1226 00f9 35       		.byte	0x35
 1227 00fa 86000000 		.4byte	0x86
 1228 00fe 03       		.uleb128 0x3
 1229 00ff 42040000 		.4byte	.LASF22
 1230 0103 04       		.byte	0x4
 1231 0104 36       		.byte	0x36
 1232 0105 86000000 		.4byte	0x86
 1233 0109 03       		.uleb128 0x3
 1234 010a B6030000 		.4byte	.LASF23
 1235 010e 05       		.byte	0x5
 1236 010f 2A       		.byte	0x2a
 1237 0110 14010000 		.4byte	0x114
 1238 0114 05       		.uleb128 0x5
 1239 0115 B6030000 		.4byte	.LASF23
 1240 0119 48       		.byte	0x48
 1241 011a 06       		.byte	0x6
 1242 011b 5E       		.byte	0x5e
 1243 011c 1D020000 		.4byte	0x21d
 1244 0120 06       		.uleb128 0x6
 1245 0121 9F030000 		.4byte	.LASF24
 1246 0125 06       		.byte	0x6
 1247 0126 5F       		.byte	0x5f
 1248 0127 42020000 		.4byte	0x242
 1249 012b 02       		.byte	0x2
 1250 012c 23       		.byte	0x23
 1251 012d 00       		.uleb128 0x0
 1252 012e 06       		.uleb128 0x6
 1253 012f 20030000 		.4byte	.LASF25
 1254 0133 06       		.byte	0x6
 1255 0134 61       		.byte	0x61
 1256 0135 42020000 		.4byte	0x242
 1257 0139 02       		.byte	0x2
 1258 013a 23       		.byte	0x23
 1259 013b 04       		.uleb128 0x4
 1260 013c 06       		.uleb128 0x6
 1261 013d 9B000000 		.4byte	.LASF26
 1262 0141 06       		.byte	0x6
 1263 0142 63       		.byte	0x63
 1264 0143 DD000000 		.4byte	0xdd
 1265 0147 02       		.byte	0x2
 1266 0148 23       		.byte	0x23
 1267 0149 08       		.uleb128 0x8
 1268 014a 06       		.uleb128 0x6
 1269 014b 15050000 		.4byte	.LASF27
 1270 014f 06       		.byte	0x6
 1271 0150 64       		.byte	0x64
 1272 0151 1A030000 		.4byte	0x31a
 1273 0155 02       		.byte	0x2
 1274 0156 23       		.byte	0x23
 1275 0157 0C       		.uleb128 0xc
 1276 0158 06       		.uleb128 0x6
 1277 0159 43010000 		.4byte	.LASF28
 1278 015d 06       		.byte	0x6
 1279 015e 66       		.byte	0x66
 1280 015f 42020000 		.4byte	0x242
ARM GAS  C:\Users\z80\AppData\Local\Temp\ccNctp2I.s 			page 24


 1281 0163 02       		.byte	0x2
 1282 0164 23       		.byte	0x23
 1283 0165 10       		.uleb128 0x10
 1284 0166 06       		.uleb128 0x6
 1285 0167 B7020000 		.4byte	.LASF29
 1286 016b 06       		.byte	0x6
 1287 016c 67       		.byte	0x67
 1288 016d 42020000 		.4byte	0x242
 1289 0171 02       		.byte	0x2
 1290 0172 23       		.byte	0x23
 1291 0173 14       		.uleb128 0x14
 1292 0174 06       		.uleb128 0x6
 1293 0175 94040000 		.4byte	.LASF30
 1294 0179 06       		.byte	0x6
 1295 017a 6E       		.byte	0x6e
 1296 017b 35040000 		.4byte	0x435
 1297 017f 02       		.byte	0x2
 1298 0180 23       		.byte	0x23
 1299 0181 18       		.uleb128 0x18
 1300 0182 06       		.uleb128 0x6
 1301 0183 D6020000 		.4byte	.LASF31
 1302 0187 06       		.byte	0x6
 1303 0188 74       		.byte	0x74
 1304 0189 47040000 		.4byte	0x447
 1305 018d 02       		.byte	0x2
 1306 018e 23       		.byte	0x23
 1307 018f 1C       		.uleb128 0x1c
 1308 0190 06       		.uleb128 0x6
 1309 0191 6C030000 		.4byte	.LASF32
 1310 0195 06       		.byte	0x6
 1311 0196 79       		.byte	0x79
 1312 0197 D2000000 		.4byte	0xd2
 1313 019b 02       		.byte	0x2
 1314 019c 23       		.byte	0x23
 1315 019d 20       		.uleb128 0x20
 1316 019e 06       		.uleb128 0x6
 1317 019f A6030000 		.4byte	.LASF33
 1318 01a3 06       		.byte	0x6
 1319 01a4 7D       		.byte	0x7d
 1320 01a5 C7000000 		.4byte	0xc7
 1321 01a9 02       		.byte	0x2
 1322 01aa 23       		.byte	0x23
 1323 01ab 21       		.uleb128 0x21
 1324 01ac 06       		.uleb128 0x6
 1325 01ad AC010000 		.4byte	.LASF34
 1326 01b1 06       		.byte	0x6
 1327 01b2 89       		.byte	0x89
 1328 01b3 45030000 		.4byte	0x345
 1329 01b7 02       		.byte	0x2
 1330 01b8 23       		.byte	0x23
 1331 01b9 24       		.uleb128 0x24
 1332 01ba 07       		.uleb128 0x7
 1333 01bb 705F7500 		.ascii	"p_u\000"
 1334 01bf 06       		.byte	0x6
 1335 01c0 AE       		.byte	0xae
 1336 01c1 00040000 		.4byte	0x400
 1337 01c5 02       		.byte	0x2
ARM GAS  C:\Users\z80\AppData\Local\Temp\ccNctp2I.s 			page 25


 1338 01c6 23       		.byte	0x23
 1339 01c7 28       		.uleb128 0x28
 1340 01c8 06       		.uleb128 0x6
 1341 01c9 1B050000 		.4byte	.LASF35
 1342 01cd 06       		.byte	0x6
 1343 01ce B3       		.byte	0xb3
 1344 01cf 6A020000 		.4byte	0x26a
 1345 01d3 02       		.byte	0x2
 1346 01d4 23       		.byte	0x23
 1347 01d5 2C       		.uleb128 0x2c
 1348 01d6 06       		.uleb128 0x6
 1349 01d7 CB010000 		.4byte	.LASF36
 1350 01db 06       		.byte	0x6
 1351 01dc B9       		.byte	0xb9
 1352 01dd 48020000 		.4byte	0x248
 1353 01e1 02       		.byte	0x2
 1354 01e2 23       		.byte	0x23
 1355 01e3 30       		.uleb128 0x30
 1356 01e4 06       		.uleb128 0x6
 1357 01e5 AC040000 		.4byte	.LASF37
 1358 01e9 06       		.byte	0x6
 1359 01ea BD       		.byte	0xbd
 1360 01eb E8000000 		.4byte	0xe8
 1361 01ef 02       		.byte	0x2
 1362 01f0 23       		.byte	0x23
 1363 01f1 38       		.uleb128 0x38
 1364 01f2 06       		.uleb128 0x6
 1365 01f3 BD030000 		.4byte	.LASF38
 1366 01f7 06       		.byte	0x6
 1367 01f8 C3       		.byte	0xc3
 1368 01f9 F3000000 		.4byte	0xf3
 1369 01fd 02       		.byte	0x2
 1370 01fe 23       		.byte	0x23
 1371 01ff 3C       		.uleb128 0x3c
 1372 0200 06       		.uleb128 0x6
 1373 0201 74030000 		.4byte	.LASF39
 1374 0205 06       		.byte	0x6
 1375 0206 CA       		.byte	0xca
 1376 0207 4D040000 		.4byte	0x44d
 1377 020b 02       		.byte	0x2
 1378 020c 23       		.byte	0x23
 1379 020d 40       		.uleb128 0x40
 1380 020e 06       		.uleb128 0x6
 1381 020f 4C040000 		.4byte	.LASF40
 1382 0213 06       		.byte	0x6
 1383 0214 CE       		.byte	0xce
 1384 0215 DD000000 		.4byte	0xdd
 1385 0219 02       		.byte	0x2
 1386 021a 23       		.byte	0x23
 1387 021b 44       		.uleb128 0x44
 1388 021c 00       		.byte	0x0
 1389 021d 08       		.uleb128 0x8
 1390 021e 08       		.byte	0x8
 1391 021f 05       		.byte	0x5
 1392 0220 61       		.byte	0x61
 1393 0221 42020000 		.4byte	0x242
 1394 0225 06       		.uleb128 0x6
ARM GAS  C:\Users\z80\AppData\Local\Temp\ccNctp2I.s 			page 26


 1395 0226 9F030000 		.4byte	.LASF24
 1396 022a 05       		.byte	0x5
 1397 022b 62       		.byte	0x62
 1398 022c 42020000 		.4byte	0x242
 1399 0230 02       		.byte	0x2
 1400 0231 23       		.byte	0x23
 1401 0232 00       		.uleb128 0x0
 1402 0233 06       		.uleb128 0x6
 1403 0234 20030000 		.4byte	.LASF25
 1404 0238 05       		.byte	0x5
 1405 0239 64       		.byte	0x64
 1406 023a 42020000 		.4byte	0x242
 1407 023e 02       		.byte	0x2
 1408 023f 23       		.byte	0x23
 1409 0240 04       		.uleb128 0x4
 1410 0241 00       		.byte	0x0
 1411 0242 09       		.uleb128 0x9
 1412 0243 04       		.byte	0x4
 1413 0244 09010000 		.4byte	0x109
 1414 0248 03       		.uleb128 0x3
 1415 0249 C9020000 		.4byte	.LASF41
 1416 024d 05       		.byte	0x5
 1417 024e 66       		.byte	0x66
 1418 024f 1D020000 		.4byte	0x21d
 1419 0253 08       		.uleb128 0x8
 1420 0254 04       		.byte	0x4
 1421 0255 05       		.byte	0x5
 1422 0256 6B       		.byte	0x6b
 1423 0257 6A020000 		.4byte	0x26a
 1424 025b 06       		.uleb128 0x6
 1425 025c 9F030000 		.4byte	.LASF24
 1426 0260 05       		.byte	0x5
 1427 0261 6D       		.byte	0x6d
 1428 0262 42020000 		.4byte	0x242
 1429 0266 02       		.byte	0x2
 1430 0267 23       		.byte	0x23
 1431 0268 00       		.uleb128 0x0
 1432 0269 00       		.byte	0x0
 1433 026a 03       		.uleb128 0x3
 1434 026b 45020000 		.4byte	.LASF42
 1435 026f 05       		.byte	0x5
 1436 0270 70       		.byte	0x70
 1437 0271 53020000 		.4byte	0x253
 1438 0275 03       		.uleb128 0x3
 1439 0276 66010000 		.4byte	.LASF43
 1440 027a 07       		.byte	0x7
 1441 027b D7       		.byte	0xd7
 1442 027c 80020000 		.4byte	0x280
 1443 0280 0A       		.uleb128 0xa
 1444 0281 04       		.byte	0x4
 1445 0282 03       		.uleb128 0x3
 1446 0283 8E020000 		.4byte	.LASF44
 1447 0287 07       		.byte	0x7
 1448 0288 DD       		.byte	0xdd
 1449 0289 9F000000 		.4byte	0x9f
 1450 028d 05       		.uleb128 0x5
 1451 028e 74040000 		.4byte	.LASF45
ARM GAS  C:\Users\z80\AppData\Local\Temp\ccNctp2I.s 			page 27


 1452 0292 24       		.byte	0x24
 1453 0293 07       		.byte	0x7
 1454 0294 FE       		.byte	0xfe
 1455 0295 1A030000 		.4byte	0x31a
 1456 0299 0B       		.uleb128 0xb
 1457 029a 723400   		.ascii	"r4\000"
 1458 029d 07       		.byte	0x7
 1459 029e 1101     		.2byte	0x111
 1460 02a0 75020000 		.4byte	0x275
 1461 02a4 02       		.byte	0x2
 1462 02a5 23       		.byte	0x23
 1463 02a6 00       		.uleb128 0x0
 1464 02a7 0B       		.uleb128 0xb
 1465 02a8 723500   		.ascii	"r5\000"
 1466 02ab 07       		.byte	0x7
 1467 02ac 1201     		.2byte	0x112
 1468 02ae 75020000 		.4byte	0x275
 1469 02b2 02       		.byte	0x2
 1470 02b3 23       		.byte	0x23
 1471 02b4 04       		.uleb128 0x4
 1472 02b5 0B       		.uleb128 0xb
 1473 02b6 723600   		.ascii	"r6\000"
 1474 02b9 07       		.byte	0x7
 1475 02ba 1301     		.2byte	0x113
 1476 02bc 75020000 		.4byte	0x275
 1477 02c0 02       		.byte	0x2
 1478 02c1 23       		.byte	0x23
 1479 02c2 08       		.uleb128 0x8
 1480 02c3 0B       		.uleb128 0xb
 1481 02c4 723700   		.ascii	"r7\000"
 1482 02c7 07       		.byte	0x7
 1483 02c8 1401     		.2byte	0x114
 1484 02ca 75020000 		.4byte	0x275
 1485 02ce 02       		.byte	0x2
 1486 02cf 23       		.byte	0x23
 1487 02d0 0C       		.uleb128 0xc
 1488 02d1 0B       		.uleb128 0xb
 1489 02d2 723800   		.ascii	"r8\000"
 1490 02d5 07       		.byte	0x7
 1491 02d6 1501     		.2byte	0x115
 1492 02d8 75020000 		.4byte	0x275
 1493 02dc 02       		.byte	0x2
 1494 02dd 23       		.byte	0x23
 1495 02de 10       		.uleb128 0x10
 1496 02df 0B       		.uleb128 0xb
 1497 02e0 723900   		.ascii	"r9\000"
 1498 02e3 07       		.byte	0x7
 1499 02e4 1601     		.2byte	0x116
 1500 02e6 75020000 		.4byte	0x275
 1501 02ea 02       		.byte	0x2
 1502 02eb 23       		.byte	0x23
 1503 02ec 14       		.uleb128 0x14
 1504 02ed 0B       		.uleb128 0xb
 1505 02ee 72313000 		.ascii	"r10\000"
 1506 02f2 07       		.byte	0x7
 1507 02f3 1701     		.2byte	0x117
 1508 02f5 75020000 		.4byte	0x275
ARM GAS  C:\Users\z80\AppData\Local\Temp\ccNctp2I.s 			page 28


 1509 02f9 02       		.byte	0x2
 1510 02fa 23       		.byte	0x23
 1511 02fb 18       		.uleb128 0x18
 1512 02fc 0B       		.uleb128 0xb
 1513 02fd 72313100 		.ascii	"r11\000"
 1514 0301 07       		.byte	0x7
 1515 0302 1801     		.2byte	0x118
 1516 0304 75020000 		.4byte	0x275
 1517 0308 02       		.byte	0x2
 1518 0309 23       		.byte	0x23
 1519 030a 1C       		.uleb128 0x1c
 1520 030b 0B       		.uleb128 0xb
 1521 030c 6C7200   		.ascii	"lr\000"
 1522 030f 07       		.byte	0x7
 1523 0310 1901     		.2byte	0x119
 1524 0312 75020000 		.4byte	0x275
 1525 0316 02       		.byte	0x2
 1526 0317 23       		.byte	0x23
 1527 0318 20       		.uleb128 0x20
 1528 0319 00       		.byte	0x0
 1529 031a 0C       		.uleb128 0xc
 1530 031b 6C040000 		.4byte	.LASF46
 1531 031f 04       		.byte	0x4
 1532 0320 07       		.byte	0x7
 1533 0321 2301     		.2byte	0x123
 1534 0323 37030000 		.4byte	0x337
 1535 0327 0B       		.uleb128 0xb
 1536 0328 72313300 		.ascii	"r13\000"
 1537 032c 07       		.byte	0x7
 1538 032d 2401     		.2byte	0x124
 1539 032f 37030000 		.4byte	0x337
 1540 0333 02       		.byte	0x2
 1541 0334 23       		.byte	0x23
 1542 0335 00       		.uleb128 0x0
 1543 0336 00       		.byte	0x0
 1544 0337 09       		.uleb128 0x9
 1545 0338 04       		.byte	0x4
 1546 0339 8D020000 		.4byte	0x28d
 1547 033d 0D       		.uleb128 0xd
 1548 033e 86000000 		.4byte	0x86
 1549 0342 0E       		.uleb128 0xe
 1550 0343 04       		.byte	0x4
 1551 0344 07       		.byte	0x7
 1552 0345 0D       		.uleb128 0xd
 1553 0346 FE000000 		.4byte	0xfe
 1554 034a 05       		.uleb128 0x5
 1555 034b A9020000 		.4byte	.LASF47
 1556 034f 10       		.byte	0x10
 1557 0350 08       		.byte	0x8
 1558 0351 2C       		.byte	0x2c
 1559 0352 81030000 		.4byte	0x381
 1560 0356 06       		.uleb128 0x6
 1561 0357 E5000000 		.4byte	.LASF48
 1562 035b 08       		.byte	0x8
 1563 035c 2D       		.byte	0x2d
 1564 035d 48020000 		.4byte	0x248
 1565 0361 02       		.byte	0x2
ARM GAS  C:\Users\z80\AppData\Local\Temp\ccNctp2I.s 			page 29


 1566 0362 23       		.byte	0x23
 1567 0363 00       		.uleb128 0x0
 1568 0364 06       		.uleb128 0x6
 1569 0365 0D050000 		.4byte	.LASF49
 1570 0369 08       		.byte	0x8
 1571 036a 2F       		.byte	0x2f
 1572 036b 42020000 		.4byte	0x242
 1573 036f 02       		.byte	0x2
 1574 0370 23       		.byte	0x23
 1575 0371 08       		.uleb128 0x8
 1576 0372 06       		.uleb128 0x6
 1577 0373 3B040000 		.4byte	.LASF50
 1578 0377 08       		.byte	0x8
 1579 0378 31       		.byte	0x31
 1580 0379 81030000 		.4byte	0x381
 1581 037d 02       		.byte	0x2
 1582 037e 23       		.byte	0x23
 1583 037f 0C       		.uleb128 0xc
 1584 0380 00       		.byte	0x0
 1585 0381 09       		.uleb128 0x9
 1586 0382 04       		.byte	0x4
 1587 0383 4A030000 		.4byte	0x34a
 1588 0387 03       		.uleb128 0x3
 1589 0388 A9020000 		.4byte	.LASF47
 1590 038c 08       		.byte	0x8
 1591 038d 33       		.byte	0x33
 1592 038e 4A030000 		.4byte	0x34a
 1593 0392 03       		.uleb128 0x3
 1594 0393 D3040000 		.4byte	.LASF51
 1595 0397 09       		.byte	0x9
 1596 0398 29       		.byte	0x29
 1597 0399 9D030000 		.4byte	0x39d
 1598 039d 05       		.uleb128 0x5
 1599 039e D3040000 		.4byte	.LASF51
 1600 03a2 0C       		.byte	0xc
 1601 03a3 09       		.byte	0x9
 1602 03a4 2E       		.byte	0x2e
 1603 03a5 D4030000 		.4byte	0x3d4
 1604 03a9 06       		.uleb128 0x6
 1605 03aa AE030000 		.4byte	.LASF52
 1606 03ae 09       		.byte	0x9
 1607 03af 2F       		.byte	0x2f
 1608 03b0 D4030000 		.4byte	0x3d4
 1609 03b4 02       		.byte	0x2
 1610 03b5 23       		.byte	0x23
 1611 03b6 00       		.uleb128 0x0
 1612 03b7 06       		.uleb128 0x6
 1613 03b8 60030000 		.4byte	.LASF53
 1614 03bc 09       		.byte	0x9
 1615 03bd 32       		.byte	0x32
 1616 03be 42020000 		.4byte	0x242
 1617 03c2 02       		.byte	0x2
 1618 03c3 23       		.byte	0x23
 1619 03c4 04       		.uleb128 0x4
 1620 03c5 06       		.uleb128 0x6
 1621 03c6 E1020000 		.4byte	.LASF54
 1622 03ca 09       		.byte	0x9
ARM GAS  C:\Users\z80\AppData\Local\Temp\ccNctp2I.s 			page 30


 1623 03cb 34       		.byte	0x34
 1624 03cc F3000000 		.4byte	0xf3
 1625 03d0 02       		.byte	0x2
 1626 03d1 23       		.byte	0x23
 1627 03d2 08       		.uleb128 0x8
 1628 03d3 00       		.byte	0x0
 1629 03d4 09       		.uleb128 0x9
 1630 03d5 04       		.byte	0x4
 1631 03d6 92030000 		.4byte	0x392
 1632 03da 05       		.uleb128 0x5
 1633 03db 6F010000 		.4byte	.LASF55
 1634 03df 04       		.byte	0x4
 1635 03e0 09       		.byte	0x9
 1636 03e1 3C       		.byte	0x3c
 1637 03e2 F5030000 		.4byte	0x3f5
 1638 03e6 06       		.uleb128 0x6
 1639 03e7 9B040000 		.4byte	.LASF56
 1640 03eb 09       		.byte	0x9
 1641 03ec 3D       		.byte	0x3d
 1642 03ed D4030000 		.4byte	0x3d4
 1643 03f1 02       		.byte	0x2
 1644 03f2 23       		.byte	0x23
 1645 03f3 00       		.uleb128 0x0
 1646 03f4 00       		.byte	0x0
 1647 03f5 03       		.uleb128 0x3
 1648 03f6 6F010000 		.4byte	.LASF55
 1649 03fa 09       		.byte	0x9
 1650 03fb 40       		.byte	0x40
 1651 03fc DA030000 		.4byte	0x3da
 1652 0400 0F       		.uleb128 0xf
 1653 0401 04       		.byte	0x4
 1654 0402 06       		.byte	0x6
 1655 0403 90       		.byte	0x90
 1656 0404 35040000 		.4byte	0x435
 1657 0408 10       		.uleb128 0x10
 1658 0409 18000000 		.4byte	.LASF57
 1659 040d 06       		.byte	0x6
 1660 040e 97       		.byte	0x97
 1661 040f E8000000 		.4byte	0xe8
 1662 0413 10       		.uleb128 0x10
 1663 0414 7B000000 		.4byte	.LASF58
 1664 0418 06       		.byte	0x6
 1665 0419 9E       		.byte	0x9e
 1666 041a E8000000 		.4byte	0xe8
 1667 041e 10       		.uleb128 0x10
 1668 041f ED040000 		.4byte	.LASF59
 1669 0423 06       		.byte	0x6
 1670 0424 A5       		.byte	0xa5
 1671 0425 80020000 		.4byte	0x280
 1672 0429 10       		.uleb128 0x10
 1673 042a 98030000 		.4byte	.LASF60
 1674 042e 06       		.byte	0x6
 1675 042f AC       		.byte	0xac
 1676 0430 F3000000 		.4byte	0xf3
 1677 0434 00       		.byte	0x0
 1678 0435 09       		.uleb128 0x9
 1679 0436 04       		.byte	0x4
ARM GAS  C:\Users\z80\AppData\Local\Temp\ccNctp2I.s 			page 31


 1680 0437 3B040000 		.4byte	0x43b
 1681 043b 11       		.uleb128 0x11
 1682 043c 40040000 		.4byte	0x440
 1683 0440 04       		.uleb128 0x4
 1684 0441 01       		.byte	0x1
 1685 0442 08       		.byte	0x8
 1686 0443 1D040000 		.4byte	.LASF61
 1687 0447 09       		.uleb128 0x9
 1688 0448 04       		.byte	0x4
 1689 0449 82020000 		.4byte	0x282
 1690 044d 09       		.uleb128 0x9
 1691 044e 04       		.byte	0x4
 1692 044f 87030000 		.4byte	0x387
 1693 0453 03       		.uleb128 0x3
 1694 0454 81020000 		.4byte	.LASF62
 1695 0458 0A       		.byte	0xa
 1696 0459 37       		.byte	0x37
 1697 045a 5E040000 		.4byte	0x45e
 1698 045e 05       		.uleb128 0x5
 1699 045f 81020000 		.4byte	.LASF62
 1700 0463 20       		.byte	0x20
 1701 0464 0A       		.byte	0xa
 1702 0465 45       		.byte	0x45
 1703 0466 CD040000 		.4byte	0x4cd
 1704 046a 06       		.uleb128 0x6
 1705 046b A8000000 		.4byte	.LASF63
 1706 046f 0A       		.byte	0xa
 1707 0470 46       		.byte	0x46
 1708 0471 48020000 		.4byte	0x248
 1709 0475 02       		.byte	0x2
 1710 0476 23       		.byte	0x23
 1711 0477 00       		.uleb128 0x0
 1712 0478 06       		.uleb128 0x6
 1713 0479 9F020000 		.4byte	.LASF64
 1714 047d 0A       		.byte	0xa
 1715 047e 47       		.byte	0x47
 1716 047f 30000000 		.4byte	0x30
 1717 0483 02       		.byte	0x2
 1718 0484 23       		.byte	0x23
 1719 0485 08       		.uleb128 0x8
 1720 0486 06       		.uleb128 0x6
 1721 0487 32010000 		.4byte	.LASF65
 1722 048b 0A       		.byte	0xa
 1723 048c 48       		.byte	0x48
 1724 048d F0040000 		.4byte	0x4f0
 1725 0491 02       		.byte	0x2
 1726 0492 23       		.byte	0x23
 1727 0493 0C       		.uleb128 0xc
 1728 0494 06       		.uleb128 0x6
 1729 0495 8E040000 		.4byte	.LASF66
 1730 0499 0A       		.byte	0xa
 1731 049a 49       		.byte	0x49
 1732 049b F0040000 		.4byte	0x4f0
 1733 049f 02       		.byte	0x2
 1734 04a0 23       		.byte	0x23
 1735 04a1 10       		.uleb128 0x10
 1736 04a2 06       		.uleb128 0x6
ARM GAS  C:\Users\z80\AppData\Local\Temp\ccNctp2I.s 			page 32


 1737 04a3 3B010000 		.4byte	.LASF67
 1738 04a7 0A       		.byte	0xa
 1739 04a8 4B       		.byte	0x4b
 1740 04a9 F0040000 		.4byte	0x4f0
 1741 04ad 02       		.byte	0x2
 1742 04ae 23       		.byte	0x23
 1743 04af 14       		.uleb128 0x14
 1744 04b0 06       		.uleb128 0x6
 1745 04b1 42030000 		.4byte	.LASF68
 1746 04b5 0A       		.byte	0xa
 1747 04b6 4C       		.byte	0x4c
 1748 04b7 F0040000 		.4byte	0x4f0
 1749 04bb 02       		.byte	0x2
 1750 04bc 23       		.byte	0x23
 1751 04bd 18       		.uleb128 0x18
 1752 04be 06       		.uleb128 0x6
 1753 04bf A3040000 		.4byte	.LASF69
 1754 04c3 0A       		.byte	0xa
 1755 04c4 4D       		.byte	0x4d
 1756 04c5 CD040000 		.4byte	0x4cd
 1757 04c9 02       		.byte	0x2
 1758 04ca 23       		.byte	0x23
 1759 04cb 1C       		.uleb128 0x1c
 1760 04cc 00       		.byte	0x0
 1761 04cd 03       		.uleb128 0x3
 1762 04ce 68020000 		.4byte	.LASF70
 1763 04d2 0A       		.byte	0xa
 1764 04d3 3A       		.byte	0x3a
 1765 04d4 D8040000 		.4byte	0x4d8
 1766 04d8 09       		.uleb128 0x9
 1767 04d9 04       		.byte	0x4
 1768 04da DE040000 		.4byte	0x4de
 1769 04de 12       		.uleb128 0x12
 1770 04df 01       		.byte	0x1
 1771 04e0 EA040000 		.4byte	0x4ea
 1772 04e4 13       		.uleb128 0x13
 1773 04e5 EA040000 		.4byte	0x4ea
 1774 04e9 00       		.byte	0x0
 1775 04ea 09       		.uleb128 0x9
 1776 04eb 04       		.byte	0x4
 1777 04ec 53040000 		.4byte	0x453
 1778 04f0 09       		.uleb128 0x9
 1779 04f1 04       		.byte	0x4
 1780 04f2 49000000 		.4byte	0x49
 1781 04f6 03       		.uleb128 0x3
 1782 04f7 5D020000 		.4byte	.LASF71
 1783 04fb 0A       		.byte	0xa
 1784 04fc 76       		.byte	0x76
 1785 04fd 53040000 		.4byte	0x453
 1786 0501 03       		.uleb128 0x3
 1787 0502 2E000000 		.4byte	.LASF72
 1788 0506 0A       		.byte	0xa
 1789 0507 E6       		.byte	0xe6
 1790 0508 53040000 		.4byte	0x453
 1791 050c 14       		.uleb128 0x14
 1792 050d 01       		.byte	0x1
 1793 050e 30000000 		.4byte	0x30
ARM GAS  C:\Users\z80\AppData\Local\Temp\ccNctp2I.s 			page 33


 1794 0512 26050000 		.4byte	0x526
 1795 0516 13       		.uleb128 0x13
 1796 0517 80020000 		.4byte	0x280
 1797 051b 13       		.uleb128 0x13
 1798 051c 26050000 		.4byte	0x526
 1799 0520 13       		.uleb128 0x13
 1800 0521 30000000 		.4byte	0x30
 1801 0525 00       		.byte	0x0
 1802 0526 09       		.uleb128 0x9
 1803 0527 04       		.byte	0x4
 1804 0528 2C050000 		.4byte	0x52c
 1805 052c 11       		.uleb128 0x11
 1806 052d 49000000 		.4byte	0x49
 1807 0531 09       		.uleb128 0x9
 1808 0532 04       		.byte	0x4
 1809 0533 0C050000 		.4byte	0x50c
 1810 0537 14       		.uleb128 0x14
 1811 0538 01       		.byte	0x1
 1812 0539 30000000 		.4byte	0x30
 1813 053d 51050000 		.4byte	0x551
 1814 0541 13       		.uleb128 0x13
 1815 0542 80020000 		.4byte	0x280
 1816 0546 13       		.uleb128 0x13
 1817 0547 F0040000 		.4byte	0x4f0
 1818 054b 13       		.uleb128 0x13
 1819 054c 30000000 		.4byte	0x30
 1820 0550 00       		.byte	0x0
 1821 0551 09       		.uleb128 0x9
 1822 0552 04       		.byte	0x4
 1823 0553 37050000 		.4byte	0x537
 1824 0557 14       		.uleb128 0x14
 1825 0558 01       		.byte	0x1
 1826 0559 BC000000 		.4byte	0xbc
 1827 055d 67050000 		.4byte	0x567
 1828 0561 13       		.uleb128 0x13
 1829 0562 80020000 		.4byte	0x280
 1830 0566 00       		.byte	0x0
 1831 0567 09       		.uleb128 0x9
 1832 0568 04       		.byte	0x4
 1833 0569 57050000 		.4byte	0x557
 1834 056d 14       		.uleb128 0x14
 1835 056e 01       		.byte	0x1
 1836 056f E8000000 		.4byte	0xe8
 1837 0573 87050000 		.4byte	0x587
 1838 0577 13       		.uleb128 0x13
 1839 0578 80020000 		.4byte	0x280
 1840 057c 13       		.uleb128 0x13
 1841 057d 49000000 		.4byte	0x49
 1842 0581 13       		.uleb128 0x13
 1843 0582 FE000000 		.4byte	0xfe
 1844 0586 00       		.byte	0x0
 1845 0587 09       		.uleb128 0x9
 1846 0588 04       		.byte	0x4
 1847 0589 6D050000 		.4byte	0x56d
 1848 058d 14       		.uleb128 0x14
 1849 058e 01       		.byte	0x1
 1850 058f E8000000 		.4byte	0xe8
ARM GAS  C:\Users\z80\AppData\Local\Temp\ccNctp2I.s 			page 34


 1851 0593 A2050000 		.4byte	0x5a2
 1852 0597 13       		.uleb128 0x13
 1853 0598 80020000 		.4byte	0x280
 1854 059c 13       		.uleb128 0x13
 1855 059d FE000000 		.4byte	0xfe
 1856 05a1 00       		.byte	0x0
 1857 05a2 09       		.uleb128 0x9
 1858 05a3 04       		.byte	0x4
 1859 05a4 8D050000 		.4byte	0x58d
 1860 05a8 14       		.uleb128 0x14
 1861 05a9 01       		.byte	0x1
 1862 05aa 30000000 		.4byte	0x30
 1863 05ae C7050000 		.4byte	0x5c7
 1864 05b2 13       		.uleb128 0x13
 1865 05b3 80020000 		.4byte	0x280
 1866 05b7 13       		.uleb128 0x13
 1867 05b8 26050000 		.4byte	0x526
 1868 05bc 13       		.uleb128 0x13
 1869 05bd 30000000 		.4byte	0x30
 1870 05c1 13       		.uleb128 0x13
 1871 05c2 FE000000 		.4byte	0xfe
 1872 05c6 00       		.byte	0x0
 1873 05c7 09       		.uleb128 0x9
 1874 05c8 04       		.byte	0x4
 1875 05c9 A8050000 		.4byte	0x5a8
 1876 05cd 14       		.uleb128 0x14
 1877 05ce 01       		.byte	0x1
 1878 05cf 30000000 		.4byte	0x30
 1879 05d3 EC050000 		.4byte	0x5ec
 1880 05d7 13       		.uleb128 0x13
 1881 05d8 80020000 		.4byte	0x280
 1882 05dc 13       		.uleb128 0x13
 1883 05dd F0040000 		.4byte	0x4f0
 1884 05e1 13       		.uleb128 0x13
 1885 05e2 30000000 		.4byte	0x30
 1886 05e6 13       		.uleb128 0x13
 1887 05e7 FE000000 		.4byte	0xfe
 1888 05eb 00       		.byte	0x0
 1889 05ec 09       		.uleb128 0x9
 1890 05ed 04       		.byte	0x4
 1891 05ee CD050000 		.4byte	0x5cd
 1892 05f2 15       		.uleb128 0x15
 1893 05f3 BF020000 		.4byte	.LASF73
 1894 05f7 0B       		.byte	0xb
 1895 05f8 0B01     		.2byte	0x10b
 1896 05fa B1000000 		.4byte	0xb1
 1897 05fe 14       		.uleb128 0x14
 1898 05ff 01       		.byte	0x1
 1899 0600 F2050000 		.4byte	0x5f2
 1900 0604 0E060000 		.4byte	0x60e
 1901 0608 13       		.uleb128 0x13
 1902 0609 80020000 		.4byte	0x280
 1903 060d 00       		.byte	0x0
 1904 060e 09       		.uleb128 0x9
 1905 060f 04       		.byte	0x4
 1906 0610 FE050000 		.4byte	0x5fe
 1907 0614 03       		.uleb128 0x3
ARM GAS  C:\Users\z80\AppData\Local\Temp\ccNctp2I.s 			page 35


 1908 0615 3A000000 		.4byte	.LASF74
 1909 0619 0C       		.byte	0xc
 1910 061a 0B       		.byte	0xb
 1911 061b 1F060000 		.4byte	0x61f
 1912 061f 09       		.uleb128 0x9
 1913 0620 04       		.byte	0x4
 1914 0621 25060000 		.4byte	0x625
 1915 0625 12       		.uleb128 0x12
 1916 0626 01       		.byte	0x1
 1917 0627 31060000 		.4byte	0x631
 1918 062b 13       		.uleb128 0x13
 1919 062c F0040000 		.4byte	0x4f0
 1920 0630 00       		.byte	0x0
 1921 0631 0D       		.uleb128 0xd
 1922 0632 62000000 		.4byte	0x62
 1923 0636 0D       		.uleb128 0xd
 1924 0637 74000000 		.4byte	0x74
 1925 063b 16       		.uleb128 0x16
 1926 063c 1C       		.byte	0x1c
 1927 063d 0D       		.byte	0xd
 1928 063e F803     		.2byte	0x3f8
 1929 0640 AE060000 		.4byte	0x6ae
 1930 0644 0B       		.uleb128 0xb
 1931 0645 43524C00 		.ascii	"CRL\000"
 1932 0649 0D       		.byte	0xd
 1933 064a FA03     		.2byte	0x3fa
 1934 064c 3D030000 		.4byte	0x33d
 1935 0650 02       		.byte	0x2
 1936 0651 23       		.byte	0x23
 1937 0652 00       		.uleb128 0x0
 1938 0653 0B       		.uleb128 0xb
 1939 0654 43524800 		.ascii	"CRH\000"
 1940 0658 0D       		.byte	0xd
 1941 0659 FB03     		.2byte	0x3fb
 1942 065b 3D030000 		.4byte	0x33d
 1943 065f 02       		.byte	0x2
 1944 0660 23       		.byte	0x23
 1945 0661 04       		.uleb128 0x4
 1946 0662 0B       		.uleb128 0xb
 1947 0663 49445200 		.ascii	"IDR\000"
 1948 0667 0D       		.byte	0xd
 1949 0668 FC03     		.2byte	0x3fc
 1950 066a 3D030000 		.4byte	0x33d
 1951 066e 02       		.byte	0x2
 1952 066f 23       		.byte	0x23
 1953 0670 08       		.uleb128 0x8
 1954 0671 0B       		.uleb128 0xb
 1955 0672 4F445200 		.ascii	"ODR\000"
 1956 0676 0D       		.byte	0xd
 1957 0677 FD03     		.2byte	0x3fd
 1958 0679 3D030000 		.4byte	0x33d
 1959 067d 02       		.byte	0x2
 1960 067e 23       		.byte	0x23
 1961 067f 0C       		.uleb128 0xc
 1962 0680 17       		.uleb128 0x17
 1963 0681 CC000000 		.4byte	.LASF75
 1964 0685 0D       		.byte	0xd
ARM GAS  C:\Users\z80\AppData\Local\Temp\ccNctp2I.s 			page 36


 1965 0686 FE03     		.2byte	0x3fe
 1966 0688 3D030000 		.4byte	0x33d
 1967 068c 02       		.byte	0x2
 1968 068d 23       		.byte	0x23
 1969 068e 10       		.uleb128 0x10
 1970 068f 0B       		.uleb128 0xb
 1971 0690 42525200 		.ascii	"BRR\000"
 1972 0694 0D       		.byte	0xd
 1973 0695 FF03     		.2byte	0x3ff
 1974 0697 3D030000 		.4byte	0x33d
 1975 069b 02       		.byte	0x2
 1976 069c 23       		.byte	0x23
 1977 069d 14       		.uleb128 0x14
 1978 069e 17       		.uleb128 0x17
 1979 069f DB010000 		.4byte	.LASF76
 1980 06a3 0D       		.byte	0xd
 1981 06a4 0004     		.2byte	0x400
 1982 06a6 3D030000 		.4byte	0x33d
 1983 06aa 02       		.byte	0x2
 1984 06ab 23       		.byte	0x23
 1985 06ac 18       		.uleb128 0x18
 1986 06ad 00       		.byte	0x0
 1987 06ae 15       		.uleb128 0x15
 1988 06af 59010000 		.4byte	.LASF77
 1989 06b3 0D       		.byte	0xd
 1990 06b4 0104     		.2byte	0x401
 1991 06b6 3B060000 		.4byte	0x63b
 1992 06ba 16       		.uleb128 0x16
 1993 06bb 1C       		.byte	0x1c
 1994 06bc 0D       		.byte	0xd
 1995 06bd E104     		.2byte	0x4e1
 1996 06bf 94070000 		.4byte	0x794
 1997 06c3 0B       		.uleb128 0xb
 1998 06c4 535200   		.ascii	"SR\000"
 1999 06c7 0D       		.byte	0xd
 2000 06c8 E304     		.2byte	0x4e3
 2001 06ca 31060000 		.4byte	0x631
 2002 06ce 02       		.byte	0x2
 2003 06cf 23       		.byte	0x23
 2004 06d0 00       		.uleb128 0x0
 2005 06d1 17       		.uleb128 0x17
 2006 06d2 EE020000 		.4byte	.LASF78
 2007 06d6 0D       		.byte	0xd
 2008 06d7 E404     		.2byte	0x4e4
 2009 06d9 62000000 		.4byte	0x62
 2010 06dd 02       		.byte	0x2
 2011 06de 23       		.byte	0x23
 2012 06df 02       		.uleb128 0x2
 2013 06e0 0B       		.uleb128 0xb
 2014 06e1 445200   		.ascii	"DR\000"
 2015 06e4 0D       		.byte	0xd
 2016 06e5 E504     		.2byte	0x4e5
 2017 06e7 31060000 		.4byte	0x631
 2018 06eb 02       		.byte	0x2
 2019 06ec 23       		.byte	0x23
 2020 06ed 04       		.uleb128 0x4
 2021 06ee 17       		.uleb128 0x17
ARM GAS  C:\Users\z80\AppData\Local\Temp\ccNctp2I.s 			page 37


 2022 06ef F8020000 		.4byte	.LASF79
 2023 06f3 0D       		.byte	0xd
 2024 06f4 E604     		.2byte	0x4e6
 2025 06f6 62000000 		.4byte	0x62
 2026 06fa 02       		.byte	0x2
 2027 06fb 23       		.byte	0x23
 2028 06fc 06       		.uleb128 0x6
 2029 06fd 0B       		.uleb128 0xb
 2030 06fe 42525200 		.ascii	"BRR\000"
 2031 0702 0D       		.byte	0xd
 2032 0703 E704     		.2byte	0x4e7
 2033 0705 31060000 		.4byte	0x631
 2034 0709 02       		.byte	0x2
 2035 070a 23       		.byte	0x23
 2036 070b 08       		.uleb128 0x8
 2037 070c 17       		.uleb128 0x17
 2038 070d 02030000 		.4byte	.LASF80
 2039 0711 0D       		.byte	0xd
 2040 0712 E804     		.2byte	0x4e8
 2041 0714 62000000 		.4byte	0x62
 2042 0718 02       		.byte	0x2
 2043 0719 23       		.byte	0x23
 2044 071a 0A       		.uleb128 0xa
 2045 071b 0B       		.uleb128 0xb
 2046 071c 43523100 		.ascii	"CR1\000"
 2047 0720 0D       		.byte	0xd
 2048 0721 E904     		.2byte	0x4e9
 2049 0723 31060000 		.4byte	0x631
 2050 0727 02       		.byte	0x2
 2051 0728 23       		.byte	0x23
 2052 0729 0C       		.uleb128 0xc
 2053 072a 17       		.uleb128 0x17
 2054 072b 0C030000 		.4byte	.LASF81
 2055 072f 0D       		.byte	0xd
 2056 0730 EA04     		.2byte	0x4ea
 2057 0732 62000000 		.4byte	0x62
 2058 0736 02       		.byte	0x2
 2059 0737 23       		.byte	0x23
 2060 0738 0E       		.uleb128 0xe
 2061 0739 0B       		.uleb128 0xb
 2062 073a 43523200 		.ascii	"CR2\000"
 2063 073e 0D       		.byte	0xd
 2064 073f EB04     		.2byte	0x4eb
 2065 0741 31060000 		.4byte	0x631
 2066 0745 02       		.byte	0x2
 2067 0746 23       		.byte	0x23
 2068 0747 10       		.uleb128 0x10
 2069 0748 17       		.uleb128 0x17
 2070 0749 16030000 		.4byte	.LASF82
 2071 074d 0D       		.byte	0xd
 2072 074e EC04     		.2byte	0x4ec
 2073 0750 62000000 		.4byte	0x62
 2074 0754 02       		.byte	0x2
 2075 0755 23       		.byte	0x23
 2076 0756 12       		.uleb128 0x12
 2077 0757 0B       		.uleb128 0xb
 2078 0758 43523300 		.ascii	"CR3\000"
ARM GAS  C:\Users\z80\AppData\Local\Temp\ccNctp2I.s 			page 38


 2079 075c 0D       		.byte	0xd
 2080 075d ED04     		.2byte	0x4ed
 2081 075f 31060000 		.4byte	0x631
 2082 0763 02       		.byte	0x2
 2083 0764 23       		.byte	0x23
 2084 0765 14       		.uleb128 0x14
 2085 0766 17       		.uleb128 0x17
 2086 0767 D2030000 		.4byte	.LASF83
 2087 076b 0D       		.byte	0xd
 2088 076c EE04     		.2byte	0x4ee
 2089 076e 62000000 		.4byte	0x62
 2090 0772 02       		.byte	0x2
 2091 0773 23       		.byte	0x23
 2092 0774 16       		.uleb128 0x16
 2093 0775 17       		.uleb128 0x17
 2094 0776 D1000000 		.4byte	.LASF84
 2095 077a 0D       		.byte	0xd
 2096 077b EF04     		.2byte	0x4ef
 2097 077d 31060000 		.4byte	0x631
 2098 0781 02       		.byte	0x2
 2099 0782 23       		.byte	0x23
 2100 0783 18       		.uleb128 0x18
 2101 0784 17       		.uleb128 0x17
 2102 0785 DC030000 		.4byte	.LASF85
 2103 0789 0D       		.byte	0xd
 2104 078a F004     		.2byte	0x4f0
 2105 078c 62000000 		.4byte	0x62
 2106 0790 02       		.byte	0x2
 2107 0791 23       		.byte	0x23
 2108 0792 1A       		.uleb128 0x1a
 2109 0793 00       		.byte	0x0
 2110 0794 15       		.uleb128 0x15
 2111 0795 28020000 		.4byte	.LASF86
 2112 0799 0D       		.byte	0xd
 2113 079a F104     		.2byte	0x4f1
 2114 079c BA060000 		.4byte	0x6ba
 2115 07a0 03       		.uleb128 0x3
 2116 07a1 40000000 		.4byte	.LASF87
 2117 07a5 0E       		.byte	0xe
 2118 07a6 78       		.byte	0x78
 2119 07a7 86000000 		.4byte	0x86
 2120 07ab 18       		.uleb128 0x18
 2121 07ac 01       		.byte	0x1
 2122 07ad 0F       		.byte	0xf
 2123 07ae 64       		.byte	0x64
 2124 07af C6070000 		.4byte	0x7c6
 2125 07b3 19       		.uleb128 0x19
 2126 07b4 C8030000 		.4byte	.LASF88
 2127 07b8 00       		.sleb128 0
 2128 07b9 19       		.uleb128 0x19
 2129 07ba D6000000 		.4byte	.LASF89
 2130 07be 01       		.sleb128 1
 2131 07bf 19       		.uleb128 0x19
 2132 07c0 7B040000 		.4byte	.LASF90
 2133 07c4 02       		.sleb128 2
 2134 07c5 00       		.byte	0x0
 2135 07c6 03       		.uleb128 0x3
ARM GAS  C:\Users\z80\AppData\Local\Temp\ccNctp2I.s 			page 39


 2136 07c7 EF030000 		.4byte	.LASF91
 2137 07cb 0F       		.byte	0xf
 2138 07cc 68       		.byte	0x68
 2139 07cd AB070000 		.4byte	0x7ab
 2140 07d1 03       		.uleb128 0x3
 2141 07d2 F9030000 		.4byte	.LASF92
 2142 07d6 0F       		.byte	0xf
 2143 07d7 6D       		.byte	0x6d
 2144 07d8 DC070000 		.4byte	0x7dc
 2145 07dc 1A       		.uleb128 0x1a
 2146 07dd F9030000 		.4byte	.LASF92
 2147 07e1 5404     		.2byte	0x454
 2148 07e3 0F       		.byte	0xf
 2149 07e4 87       		.byte	0x87
 2150 07e5 68080000 		.4byte	0x868
 2151 07e9 07       		.uleb128 0x7
 2152 07ea 766D7400 		.ascii	"vmt\000"
 2153 07ee 0F       		.byte	0xf
 2154 07ef 89       		.byte	0x89
 2155 07f0 F3080000 		.4byte	0x8f3
 2156 07f4 02       		.byte	0x2
 2157 07f5 23       		.byte	0x23
 2158 07f6 00       		.uleb128 0x0
 2159 07f7 06       		.uleb128 0x6
 2160 07f8 F1010000 		.4byte	.LASF93
 2161 07fc 0F       		.byte	0xf
 2162 07fd 8A       		.byte	0x8a
 2163 07fe F5030000 		.4byte	0x3f5
 2164 0802 02       		.byte	0x2
 2165 0803 23       		.byte	0x23
 2166 0804 04       		.uleb128 0x4
 2167 0805 06       		.uleb128 0x6
 2168 0806 CD040000 		.4byte	.LASF94
 2169 080a 0F       		.byte	0xf
 2170 080b 8A       		.byte	0x8a
 2171 080c F2050000 		.4byte	0x5f2
 2172 0810 02       		.byte	0x2
 2173 0811 23       		.byte	0x23
 2174 0812 08       		.uleb128 0x8
 2175 0813 06       		.uleb128 0x6
 2176 0814 1A010000 		.4byte	.LASF95
 2177 0818 0F       		.byte	0xf
 2178 0819 8A       		.byte	0x8a
 2179 081a C6070000 		.4byte	0x7c6
 2180 081e 02       		.byte	0x2
 2181 081f 23       		.byte	0x23
 2182 0820 0C       		.uleb128 0xc
 2183 0821 06       		.uleb128 0x6
 2184 0822 C4010000 		.4byte	.LASF96
 2185 0826 0F       		.byte	0xf
 2186 0827 8A       		.byte	0x8a
 2187 0828 F6040000 		.4byte	0x4f6
 2188 082c 02       		.byte	0x2
 2189 082d 23       		.byte	0x23
 2190 082e 10       		.uleb128 0x10
 2191 082f 06       		.uleb128 0x6
 2192 0830 10020000 		.4byte	.LASF97
ARM GAS  C:\Users\z80\AppData\Local\Temp\ccNctp2I.s 			page 40


 2193 0834 0F       		.byte	0xf
 2194 0835 8A       		.byte	0x8a
 2195 0836 01050000 		.4byte	0x501
 2196 083a 02       		.byte	0x2
 2197 083b 23       		.byte	0x23
 2198 083c 30       		.uleb128 0x30
 2199 083d 07       		.uleb128 0x7
 2200 083e 696200   		.ascii	"ib\000"
 2201 0841 0F       		.byte	0xf
 2202 0842 8A       		.byte	0x8a
 2203 0843 FE080000 		.4byte	0x8fe
 2204 0847 02       		.byte	0x2
 2205 0848 23       		.byte	0x23
 2206 0849 50       		.uleb128 0x50
 2207 084a 07       		.uleb128 0x7
 2208 084b 6F6200   		.ascii	"ob\000"
 2209 084e 0F       		.byte	0xf
 2210 084f 8A       		.byte	0x8a
 2211 0850 FE080000 		.4byte	0x8fe
 2212 0854 03       		.byte	0x3
 2213 0855 23       		.byte	0x23
 2214 0856 D004     		.uleb128 0x250
 2215 0858 06       		.uleb128 0x6
 2216 0859 80010000 		.4byte	.LASF98
 2217 085d 0F       		.byte	0xf
 2218 085e 8A       		.byte	0x8a
 2219 085f 0F090000 		.4byte	0x90f
 2220 0863 03       		.byte	0x3
 2221 0864 23       		.byte	0x23
 2222 0865 D008     		.uleb128 0x450
 2223 0867 00       		.byte	0x0
 2224 0868 05       		.uleb128 0x5
 2225 0869 9C010000 		.4byte	.LASF99
 2226 086d 24       		.byte	0x24
 2227 086e 0F       		.byte	0xf
 2228 086f 7C       		.byte	0x7c
 2229 0870 F3080000 		.4byte	0x8f3
 2230 0874 06       		.uleb128 0x6
 2231 0875 99020000 		.4byte	.LASF100
 2232 0879 0F       		.byte	0xf
 2233 087a 7D       		.byte	0x7d
 2234 087b 31050000 		.4byte	0x531
 2235 087f 02       		.byte	0x2
 2236 0880 23       		.byte	0x23
 2237 0881 00       		.uleb128 0x0
 2238 0882 06       		.uleb128 0x6
 2239 0883 18040000 		.4byte	.LASF101
 2240 0887 0F       		.byte	0xf
 2241 0888 7D       		.byte	0x7d
 2242 0889 51050000 		.4byte	0x551
 2243 088d 02       		.byte	0x2
 2244 088e 23       		.byte	0x23
 2245 088f 04       		.uleb128 0x4
 2246 0890 06       		.uleb128 0x6
 2247 0891 4B010000 		.4byte	.LASF102
 2248 0895 0F       		.byte	0xf
 2249 0896 7D       		.byte	0x7d
ARM GAS  C:\Users\z80\AppData\Local\Temp\ccNctp2I.s 			page 41


 2250 0897 67050000 		.4byte	0x567
 2251 089b 02       		.byte	0x2
 2252 089c 23       		.byte	0x23
 2253 089d 08       		.uleb128 0x8
 2254 089e 06       		.uleb128 0x6
 2255 089f FA040000 		.4byte	.LASF103
 2256 08a3 0F       		.byte	0xf
 2257 08a4 7D       		.byte	0x7d
 2258 08a5 67050000 		.4byte	0x567
 2259 08a9 02       		.byte	0x2
 2260 08aa 23       		.byte	0x23
 2261 08ab 0C       		.uleb128 0xc
 2262 08ac 07       		.uleb128 0x7
 2263 08ad 70757400 		.ascii	"put\000"
 2264 08b1 0F       		.byte	0xf
 2265 08b2 7D       		.byte	0x7d
 2266 08b3 87050000 		.4byte	0x587
 2267 08b7 02       		.byte	0x2
 2268 08b8 23       		.byte	0x23
 2269 08b9 10       		.uleb128 0x10
 2270 08ba 07       		.uleb128 0x7
 2271 08bb 67657400 		.ascii	"get\000"
 2272 08bf 0F       		.byte	0xf
 2273 08c0 7D       		.byte	0x7d
 2274 08c1 A2050000 		.4byte	0x5a2
 2275 08c5 02       		.byte	0x2
 2276 08c6 23       		.byte	0x23
 2277 08c7 14       		.uleb128 0x14
 2278 08c8 06       		.uleb128 0x6
 2279 08c9 36020000 		.4byte	.LASF104
 2280 08cd 0F       		.byte	0xf
 2281 08ce 7D       		.byte	0x7d
 2282 08cf C7050000 		.4byte	0x5c7
 2283 08d3 02       		.byte	0x2
 2284 08d4 23       		.byte	0x23
 2285 08d5 18       		.uleb128 0x18
 2286 08d6 06       		.uleb128 0x6
 2287 08d7 A2000000 		.4byte	.LASF105
 2288 08db 0F       		.byte	0xf
 2289 08dc 7D       		.byte	0x7d
 2290 08dd EC050000 		.4byte	0x5ec
 2291 08e1 02       		.byte	0x2
 2292 08e2 23       		.byte	0x23
 2293 08e3 1C       		.uleb128 0x1c
 2294 08e4 06       		.uleb128 0x6
 2295 08e5 63040000 		.4byte	.LASF106
 2296 08e9 0F       		.byte	0xf
 2297 08ea 7D       		.byte	0x7d
 2298 08eb 0E060000 		.4byte	0x60e
 2299 08ef 02       		.byte	0x2
 2300 08f0 23       		.byte	0x23
 2301 08f1 20       		.uleb128 0x20
 2302 08f2 00       		.byte	0x0
 2303 08f3 09       		.uleb128 0x9
 2304 08f4 04       		.byte	0x4
 2305 08f5 F9080000 		.4byte	0x8f9
 2306 08f9 11       		.uleb128 0x11
ARM GAS  C:\Users\z80\AppData\Local\Temp\ccNctp2I.s 			page 42


 2307 08fa 68080000 		.4byte	0x868
 2308 08fe 1B       		.uleb128 0x1b
 2309 08ff 49000000 		.4byte	0x49
 2310 0903 0F090000 		.4byte	0x90f
 2311 0907 1C       		.uleb128 0x1c
 2312 0908 42030000 		.4byte	0x342
 2313 090c FF01     		.2byte	0x1ff
 2314 090e 00       		.byte	0x0
 2315 090f 09       		.uleb128 0x9
 2316 0910 04       		.byte	0x4
 2317 0911 94070000 		.4byte	0x794
 2318 0915 1D       		.uleb128 0x1d
 2319 0916 E0010000 		.4byte	.LASF109
 2320 091a 01       		.byte	0x1
 2321 091b 83       		.byte	0x83
 2322 091c 01       		.byte	0x1
 2323 091d 01       		.byte	0x1
 2324 091e 39090000 		.4byte	0x939
 2325 0922 1E       		.uleb128 0x1e
 2326 0923 C2040000 		.4byte	.LASF107
 2327 0927 01       		.byte	0x1
 2328 0928 85       		.byte	0x85
 2329 0929 29000000 		.4byte	0x29
 2330 092d 1E       		.uleb128 0x1e
 2331 092e 39030000 		.4byte	.LASF108
 2332 0932 01       		.byte	0x1
 2333 0933 87       		.byte	0x87
 2334 0934 29000000 		.4byte	0x29
 2335 0938 00       		.byte	0x0
 2336 0939 1D       		.uleb128 0x1d
 2337 093a 88030000 		.4byte	.LASF110
 2338 093e 01       		.byte	0x1
 2339 093f 5F       		.byte	0x5f
 2340 0940 01       		.byte	0x1
 2341 0941 01       		.byte	0x1
 2342 0942 7B090000 		.4byte	0x97b
 2343 0946 1F       		.uleb128 0x1f
 2344 0947 62756600 		.ascii	"buf\000"
 2345 094b 01       		.byte	0x1
 2346 094c 5F       		.byte	0x5f
 2347 094d F0040000 		.4byte	0x4f0
 2348 0951 1F       		.uleb128 0x1f
 2349 0952 737A00   		.ascii	"sz\000"
 2350 0955 01       		.byte	0x1
 2351 0956 5F       		.byte	0x5f
 2352 0957 29000000 		.4byte	0x29
 2353 095b 20       		.uleb128 0x20
 2354 095c 6900     		.ascii	"i\000"
 2355 095e 01       		.byte	0x1
 2356 095f 61       		.byte	0x61
 2357 0960 29000000 		.4byte	0x29
 2358 0964 20       		.uleb128 0x20
 2359 0965 636D6400 		.ascii	"cmd\000"
 2360 0969 01       		.byte	0x1
 2361 096a 62       		.byte	0x62
 2362 096b 49000000 		.4byte	0x49
 2363 096f 1E       		.uleb128 0x1e
ARM GAS  C:\Users\z80\AppData\Local\Temp\ccNctp2I.s 			page 43


 2364 0970 5E040000 		.4byte	.LASF111
 2365 0974 01       		.byte	0x1
 2366 0975 64       		.byte	0x64
 2367 0976 F0040000 		.4byte	0x4f0
 2368 097a 00       		.byte	0x0
 2369 097b 21       		.uleb128 0x21
 2370 097c 22040000 		.4byte	.LASF112
 2371 0980 01       		.byte	0x1
 2372 0981 D0       		.byte	0xd0
 2373 0982 01       		.byte	0x1
 2374 0983 00000000 		.4byte	.LFB73
 2375 0987 34000000 		.4byte	.LFE73
 2376 098b 00000000 		.4byte	.LLST0
 2377 098f A1090000 		.4byte	0x9a1
 2378 0993 22       		.uleb128 0x22
 2379 0994 7600     		.ascii	"v\000"
 2380 0996 01       		.byte	0x1
 2381 0997 D0       		.byte	0xd0
 2382 0998 49000000 		.4byte	0x49
 2383 099c 20000000 		.4byte	.LLST1
 2384 09a0 00       		.byte	0x0
 2385 09a1 23       		.uleb128 0x23
 2386 09a2 08000000 		.4byte	.LASF132
 2387 09a6 01       		.byte	0x1
 2388 09a7 D7       		.byte	0xd7
 2389 09a8 01       		.byte	0x1
 2390 09a9 00000000 		.4byte	.LFB74
 2391 09ad 14000000 		.4byte	.LFE74
 2392 09b1 33000000 		.4byte	.LLST2
 2393 09b5 21       		.uleb128 0x21
 2394 09b6 B2040000 		.4byte	.LASF113
 2395 09ba 01       		.byte	0x1
 2396 09bb B6       		.byte	0xb6
 2397 09bc 01       		.byte	0x1
 2398 09bd 00000000 		.4byte	.LFB72
 2399 09c1 3E000000 		.4byte	.LFE72
 2400 09c5 53000000 		.4byte	.LLST3
 2401 09c9 0F0A0000 		.4byte	0xa0f
 2402 09cd 24       		.uleb128 0x24
 2403 09ce 08050000 		.4byte	.LASF114
 2404 09d2 01       		.byte	0x1
 2405 09d3 B6       		.byte	0xb6
 2406 09d4 F0040000 		.4byte	0x4f0
 2407 09d8 7F000000 		.4byte	.LLST4
 2408 09dc 25       		.uleb128 0x25
 2409 09dd 72657300 		.ascii	"res\000"
 2410 09e1 01       		.byte	0x1
 2411 09e2 B9       		.byte	0xb9
 2412 09e3 0F0A0000 		.4byte	0xa0f
 2413 09e7 02       		.byte	0x2
 2414 09e8 91       		.byte	0x91
 2415 09e9 60       		.sleb128 -32
 2416 09ea 26       		.uleb128 0x26
 2417 09eb 6900     		.ascii	"i\000"
 2418 09ed 01       		.byte	0x1
 2419 09ee BB       		.byte	0xbb
 2420 09ef 29000000 		.4byte	0x29
ARM GAS  C:\Users\z80\AppData\Local\Temp\ccNctp2I.s 			page 44


 2421 09f3 92000000 		.4byte	.LLST5
 2422 09f7 27       		.uleb128 0x27
 2423 09f8 0E000000 		.4byte	.LBB9
 2424 09fc 32000000 		.4byte	.LBE9
 2425 0a00 26       		.uleb128 0x26
 2426 0a01 6200     		.ascii	"b\000"
 2427 0a03 01       		.byte	0x1
 2428 0a04 BE       		.byte	0xbe
 2429 0a05 49000000 		.4byte	0x49
 2430 0a09 A6000000 		.4byte	.LLST6
 2431 0a0d 00       		.byte	0x0
 2432 0a0e 00       		.byte	0x0
 2433 0a0f 1B       		.uleb128 0x1b
 2434 0a10 29000000 		.4byte	0x29
 2435 0a14 1F0A0000 		.4byte	0xa1f
 2436 0a18 28       		.uleb128 0x28
 2437 0a19 42030000 		.4byte	0x342
 2438 0a1d 03       		.byte	0x3
 2439 0a1e 00       		.byte	0x0
 2440 0a1f 21       		.uleb128 0x21
 2441 0a20 17020000 		.4byte	.LASF115
 2442 0a24 01       		.byte	0x1
 2443 0a25 97       		.byte	0x97
 2444 0a26 01       		.byte	0x1
 2445 0a27 00000000 		.4byte	.LFB68
 2446 0a2b 30000000 		.4byte	.LFE68
 2447 0a2f C0000000 		.4byte	.LLST7
 2448 0a33 6C0A0000 		.4byte	0xa6c
 2449 0a37 24       		.uleb128 0x24
 2450 0a38 08050000 		.4byte	.LASF114
 2451 0a3c 01       		.byte	0x1
 2452 0a3d 97       		.byte	0x97
 2453 0a3e F0040000 		.4byte	0x4f0
 2454 0a42 EC000000 		.4byte	.LLST8
 2455 0a46 29       		.uleb128 0x29
 2456 0a47 D6010000 		.4byte	.LASF116
 2457 0a4b 01       		.byte	0x1
 2458 0a4c 9A       		.byte	0x9a
 2459 0a4d 7C0A0000 		.4byte	0xa7c
 2460 0a51 02       		.byte	0x2
 2461 0a52 91       		.byte	0x91
 2462 0a53 68       		.sleb128 -24
 2463 0a54 2A       		.uleb128 0x2a
 2464 0a55 6C00     		.ascii	"l\000"
 2465 0a57 01       		.byte	0x1
 2466 0a58 9B       		.byte	0x9b
 2467 0a59 29000000 		.4byte	0x29
 2468 0a5d 05       		.byte	0x5
 2469 0a5e 26       		.uleb128 0x26
 2470 0a5f 6900     		.ascii	"i\000"
 2471 0a61 01       		.byte	0x1
 2472 0a62 9C       		.byte	0x9c
 2473 0a63 29000000 		.4byte	0x29
 2474 0a67 FF000000 		.4byte	.LLST9
 2475 0a6b 00       		.byte	0x0
 2476 0a6c 1B       		.uleb128 0x1b
 2477 0a6d 49000000 		.4byte	0x49
ARM GAS  C:\Users\z80\AppData\Local\Temp\ccNctp2I.s 			page 45


 2478 0a71 7C0A0000 		.4byte	0xa7c
 2479 0a75 28       		.uleb128 0x28
 2480 0a76 42030000 		.4byte	0x342
 2481 0a7a 05       		.byte	0x5
 2482 0a7b 00       		.byte	0x0
 2483 0a7c 11       		.uleb128 0x11
 2484 0a7d 6C0A0000 		.4byte	0xa6c
 2485 0a81 21       		.uleb128 0x21
 2486 0a82 B3010000 		.4byte	.LASF117
 2487 0a86 01       		.byte	0x1
 2488 0a87 8C       		.byte	0x8c
 2489 0a88 01       		.byte	0x1
 2490 0a89 00000000 		.4byte	.LFB67
 2491 0a8d 30000000 		.4byte	.LFE67
 2492 0a91 13010000 		.4byte	.LLST10
 2493 0a95 CE0A0000 		.4byte	0xace
 2494 0a99 24       		.uleb128 0x24
 2495 0a9a 08050000 		.4byte	.LASF114
 2496 0a9e 01       		.byte	0x1
 2497 0a9f 8C       		.byte	0x8c
 2498 0aa0 F0040000 		.4byte	0x4f0
 2499 0aa4 3F010000 		.4byte	.LLST11
 2500 0aa8 29       		.uleb128 0x29
 2501 0aa9 D6010000 		.4byte	.LASF116
 2502 0aad 01       		.byte	0x1
 2503 0aae 8F       		.byte	0x8f
 2504 0aaf DE0A0000 		.4byte	0xade
 2505 0ab3 02       		.byte	0x2
 2506 0ab4 91       		.byte	0x91
 2507 0ab5 60       		.sleb128 -32
 2508 0ab6 2A       		.uleb128 0x2a
 2509 0ab7 6C00     		.ascii	"l\000"
 2510 0ab9 01       		.byte	0x1
 2511 0aba 90       		.byte	0x90
 2512 0abb 29000000 		.4byte	0x29
 2513 0abf 0F       		.byte	0xf
 2514 0ac0 26       		.uleb128 0x26
 2515 0ac1 6900     		.ascii	"i\000"
 2516 0ac3 01       		.byte	0x1
 2517 0ac4 91       		.byte	0x91
 2518 0ac5 29000000 		.4byte	0x29
 2519 0ac9 52010000 		.4byte	.LLST12
 2520 0acd 00       		.byte	0x0
 2521 0ace 1B       		.uleb128 0x1b
 2522 0acf 49000000 		.4byte	0x49
 2523 0ad3 DE0A0000 		.4byte	0xade
 2524 0ad7 28       		.uleb128 0x28
 2525 0ad8 42030000 		.4byte	0x342
 2526 0adc 0F       		.byte	0xf
 2527 0add 00       		.byte	0x0
 2528 0ade 11       		.uleb128 0x11
 2529 0adf CE0A0000 		.4byte	0xace
 2530 0ae3 21       		.uleb128 0x21
 2531 0ae4 30030000 		.4byte	.LASF118
 2532 0ae8 01       		.byte	0x1
 2533 0ae9 AF       		.byte	0xaf
 2534 0aea 01       		.byte	0x1
ARM GAS  C:\Users\z80\AppData\Local\Temp\ccNctp2I.s 			page 46


 2535 0aeb 00000000 		.4byte	.LFB71
 2536 0aef 1A000000 		.4byte	.LFE71
 2537 0af3 66010000 		.4byte	.LLST13
 2538 0af7 210B0000 		.4byte	0xb21
 2539 0afb 24       		.uleb128 0x24
 2540 0afc 08050000 		.4byte	.LASF114
 2541 0b00 01       		.byte	0x1
 2542 0b01 AF       		.byte	0xaf
 2543 0b02 F0040000 		.4byte	0x4f0
 2544 0b06 86010000 		.4byte	.LLST14
 2545 0b0a 1E       		.uleb128 0x1e
 2546 0b0b 7B010000 		.4byte	.LASF119
 2547 0b0f 01       		.byte	0x1
 2548 0b10 B1       		.byte	0xb1
 2549 0b11 29000000 		.4byte	0x29
 2550 0b15 1E       		.uleb128 0x1e
 2551 0b16 E9020000 		.4byte	.LASF120
 2552 0b1a 01       		.byte	0x1
 2553 0b1b B2       		.byte	0xb2
 2554 0b1c 29000000 		.4byte	0x29
 2555 0b20 00       		.byte	0x0
 2556 0b21 21       		.uleb128 0x21
 2557 0b22 27030000 		.4byte	.LASF121
 2558 0b26 01       		.byte	0x1
 2559 0b27 A8       		.byte	0xa8
 2560 0b28 01       		.byte	0x1
 2561 0b29 00000000 		.4byte	.LFB70
 2562 0b2d 1A000000 		.4byte	.LFE70
 2563 0b31 99010000 		.4byte	.LLST15
 2564 0b35 5F0B0000 		.4byte	0xb5f
 2565 0b39 24       		.uleb128 0x24
 2566 0b3a 08050000 		.4byte	.LASF114
 2567 0b3e 01       		.byte	0x1
 2568 0b3f A8       		.byte	0xa8
 2569 0b40 F0040000 		.4byte	0x4f0
 2570 0b44 B9010000 		.4byte	.LLST16
 2571 0b48 1E       		.uleb128 0x1e
 2572 0b49 7B010000 		.4byte	.LASF119
 2573 0b4d 01       		.byte	0x1
 2574 0b4e AA       		.byte	0xaa
 2575 0b4f 29000000 		.4byte	0x29
 2576 0b53 1E       		.uleb128 0x1e
 2577 0b54 E9020000 		.4byte	.LASF120
 2578 0b58 01       		.byte	0x1
 2579 0b59 AB       		.byte	0xab
 2580 0b5a 29000000 		.4byte	0x29
 2581 0b5e 00       		.byte	0x0
 2582 0b5f 21       		.uleb128 0x21
 2583 0b60 AF020000 		.4byte	.LASF122
 2584 0b64 01       		.byte	0x1
 2585 0b65 A2       		.byte	0xa2
 2586 0b66 01       		.byte	0x1
 2587 0b67 00000000 		.4byte	.LFB69
 2588 0b6b 0A000000 		.4byte	.LFE69
 2589 0b6f CC010000 		.4byte	.LLST17
 2590 0b73 870B0000 		.4byte	0xb87
 2591 0b77 24       		.uleb128 0x24
ARM GAS  C:\Users\z80\AppData\Local\Temp\ccNctp2I.s 			page 47


 2592 0b78 08050000 		.4byte	.LASF114
 2593 0b7c 01       		.byte	0x1
 2594 0b7d A2       		.byte	0xa2
 2595 0b7e F0040000 		.4byte	0x4f0
 2596 0b82 EC010000 		.4byte	.LLST18
 2597 0b86 00       		.byte	0x0
 2598 0b87 2B       		.uleb128 0x2b
 2599 0b88 01       		.byte	0x1
 2600 0b89 84040000 		.4byte	.LASF133
 2601 0b8d 01       		.byte	0x1
 2602 0b8e 21       		.byte	0x21
 2603 0b8f 01       		.byte	0x1
 2604 0b90 00000000 		.4byte	.LFB62
 2605 0b94 32000000 		.4byte	.LFE62
 2606 0b98 FF010000 		.4byte	.LLST19
 2607 0b9c 2C       		.uleb128 0x2c
 2608 0b9d 01       		.byte	0x1
 2609 0b9e 2E040000 		.4byte	.LASF134
 2610 0ba2 01       		.byte	0x1
 2611 0ba3 2B       		.byte	0x2b
 2612 0ba4 01       		.byte	0x1
 2613 0ba5 00000000 		.4byte	.LFB63
 2614 0ba9 C4000000 		.4byte	.LFE63
 2615 0bad 1F020000 		.4byte	.LLST20
 2616 0bb1 710C0000 		.4byte	0xc71
 2617 0bb5 29       		.uleb128 0x29
 2618 0bb6 F4040000 		.4byte	.LASF123
 2619 0bba 01       		.byte	0x1
 2620 0bbb 2D       		.byte	0x2d
 2621 0bbc 49000000 		.4byte	0x49
 2622 0bc0 05       		.byte	0x5
 2623 0bc1 03       		.byte	0x3
 2624 0bc2 00000000 		.4byte	slash.3766
 2625 0bc6 29       		.uleb128 0x29
 2626 0bc7 84000000 		.4byte	.LASF124
 2627 0bcb 01       		.byte	0x1
 2628 0bcc 2E       		.byte	0x2e
 2629 0bcd 29000000 		.4byte	0x29
 2630 0bd1 05       		.byte	0x5
 2631 0bd2 03       		.byte	0x3
 2632 0bd3 00000000 		.4byte	out_index.3767
 2633 0bd7 26       		.uleb128 0x26
 2634 0bd8 6D736700 		.ascii	"msg\000"
 2635 0bdc 01       		.byte	0x1
 2636 0bdd 39       		.byte	0x39
 2637 0bde E8000000 		.4byte	0xe8
 2638 0be2 3F020000 		.4byte	.LLST21
 2639 0be6 2D       		.uleb128 0x2d
 2640 0be7 EA010000 		.4byte	.LASF125
 2641 0beb 01       		.byte	0x1
 2642 0bec 3B       		.byte	0x3b
 2643 0bed 49000000 		.4byte	0x49
 2644 0bf1 5F020000 		.4byte	.LLST22
 2645 0bf5 2E       		.uleb128 0x2e
 2646 0bf6 00000000 		.4byte	.Ldebug_ranges0+0x0
 2647 0bfa 26       		.uleb128 0x26
 2648 0bfb 7600     		.ascii	"v\000"
ARM GAS  C:\Users\z80\AppData\Local\Temp\ccNctp2I.s 			page 48


 2649 0bfd 01       		.byte	0x1
 2650 0bfe 3E       		.byte	0x3e
 2651 0bff 49000000 		.4byte	0x49
 2652 0c03 99020000 		.4byte	.LLST23
 2653 0c07 2F       		.uleb128 0x2f
 2654 0c08 39090000 		.4byte	0x939
 2655 0c0c 1C000000 		.4byte	.LBB13
 2656 0c10 18000000 		.4byte	.Ldebug_ranges0+0x18
 2657 0c14 01       		.byte	0x1
 2658 0c15 45       		.byte	0x45
 2659 0c16 30       		.uleb128 0x30
 2660 0c17 51090000 		.4byte	0x951
 2661 0c1b C2020000 		.4byte	.LLST24
 2662 0c1f 30       		.uleb128 0x30
 2663 0c20 46090000 		.4byte	0x946
 2664 0c24 0D030000 		.4byte	.LLST25
 2665 0c28 2E       		.uleb128 0x2e
 2666 0c29 48000000 		.4byte	.Ldebug_ranges0+0x48
 2667 0c2d 31       		.uleb128 0x31
 2668 0c2e 5B090000 		.4byte	0x95b
 2669 0c32 45030000 		.4byte	.LLST26
 2670 0c36 31       		.uleb128 0x31
 2671 0c37 64090000 		.4byte	0x964
 2672 0c3b 59030000 		.4byte	.LLST27
 2673 0c3f 31       		.uleb128 0x31
 2674 0c40 6F090000 		.4byte	0x96f
 2675 0c44 8E030000 		.4byte	.LLST28
 2676 0c48 2F       		.uleb128 0x2f
 2677 0c49 15090000 		.4byte	0x915
 2678 0c4d 2C000000 		.4byte	.LBB18
 2679 0c51 78000000 		.4byte	.Ldebug_ranges0+0x78
 2680 0c55 01       		.byte	0x1
 2681 0c56 6D       		.byte	0x6d
 2682 0c57 2E       		.uleb128 0x2e
 2683 0c58 98000000 		.4byte	.Ldebug_ranges0+0x98
 2684 0c5c 31       		.uleb128 0x31
 2685 0c5d 22090000 		.4byte	0x922
 2686 0c61 C6030000 		.4byte	.LLST29
 2687 0c65 32       		.uleb128 0x32
 2688 0c66 2D090000 		.4byte	0x92d
 2689 0c6a 06       		.byte	0x6
 2690 0c6b 00       		.byte	0x0
 2691 0c6c 00       		.byte	0x0
 2692 0c6d 00       		.byte	0x0
 2693 0c6e 00       		.byte	0x0
 2694 0c6f 00       		.byte	0x0
 2695 0c70 00       		.byte	0x0
 2696 0c71 33       		.uleb128 0x33
 2697 0c72 01       		.byte	0x1
 2698 0c73 72000000 		.4byte	.LASF135
 2699 0c77 01       		.byte	0x1
 2700 0c78 58       		.byte	0x58
 2701 0c79 01       		.byte	0x1
 2702 0c7a F0040000 		.4byte	0x4f0
 2703 0c7e 00000000 		.4byte	.LFB64
 2704 0c82 0A000000 		.4byte	.LFE64
 2705 0c86 02       		.byte	0x2
ARM GAS  C:\Users\z80\AppData\Local\Temp\ccNctp2I.s 			page 49


 2706 0c87 7D       		.byte	0x7d
 2707 0c88 00       		.sleb128 0
 2708 0c89 34       		.uleb128 0x34
 2709 0c8a 8E000000 		.4byte	.LASF126
 2710 0c8e 10       		.byte	0x10
 2711 0c8f 9404     		.2byte	0x494
 2712 0c91 36060000 		.4byte	0x636
 2713 0c95 01       		.byte	0x1
 2714 0c96 01       		.byte	0x1
 2715 0c97 35       		.uleb128 0x35
 2716 0c98 53443100 		.ascii	"SD1\000"
 2717 0c9c 11       		.byte	0x11
 2718 0c9d FB       		.byte	0xfb
 2719 0c9e D1070000 		.4byte	0x7d1
 2720 0ca2 01       		.byte	0x1
 2721 0ca3 01       		.byte	0x1
 2722 0ca4 1B       		.uleb128 0x1b
 2723 0ca5 49000000 		.4byte	0x49
 2724 0ca9 B40C0000 		.4byte	0xcb4
 2725 0cad 28       		.uleb128 0x28
 2726 0cae 42030000 		.4byte	0x342
 2727 0cb2 1F       		.byte	0x1f
 2728 0cb3 00       		.byte	0x0
 2729 0cb4 29       		.uleb128 0x29
 2730 0cb5 57040000 		.4byte	.LASF127
 2731 0cb9 01       		.byte	0x1
 2732 0cba 18       		.byte	0x18
 2733 0cbb A40C0000 		.4byte	0xca4
 2734 0cbf 05       		.byte	0x5
 2735 0cc0 03       		.byte	0x3
 2736 0cc1 00000000 		.4byte	buffer
 2737 0cc5 29       		.uleb128 0x29
 2738 0cc6 08050000 		.4byte	.LASF114
 2739 0cca 01       		.byte	0x1
 2740 0ccb 19       		.byte	0x19
 2741 0ccc A40C0000 		.4byte	0xca4
 2742 0cd0 05       		.byte	0x5
 2743 0cd1 03       		.byte	0x3
 2744 0cd2 00000000 		.4byte	args
 2745 0cd6 1B       		.uleb128 0x1b
 2746 0cd7 14060000 		.4byte	0x614
 2747 0cdb E60C0000 		.4byte	0xce6
 2748 0cdf 28       		.uleb128 0x28
 2749 0ce0 42030000 		.4byte	0x342
 2750 0ce4 05       		.byte	0x5
 2751 0ce5 00       		.byte	0x0
 2752 0ce6 29       		.uleb128 0x29
 2753 0ce7 28000000 		.4byte	.LASF128
 2754 0ceb 01       		.byte	0x1
 2755 0cec 79       		.byte	0x79
 2756 0ced F70C0000 		.4byte	0xcf7
 2757 0cf1 05       		.byte	0x5
 2758 0cf2 03       		.byte	0x3
 2759 0cf3 00000000 		.4byte	funcs
 2760 0cf7 11       		.uleb128 0x11
 2761 0cf8 D60C0000 		.4byte	0xcd6
 2762 0cfc 34       		.uleb128 0x34
ARM GAS  C:\Users\z80\AppData\Local\Temp\ccNctp2I.s 			page 50


 2763 0cfd 8E000000 		.4byte	.LASF126
 2764 0d01 10       		.byte	0x10
 2765 0d02 9404     		.2byte	0x494
 2766 0d04 36060000 		.4byte	0x636
 2767 0d08 01       		.byte	0x1
 2768 0d09 01       		.byte	0x1
 2769 0d0a 35       		.uleb128 0x35
 2770 0d0b 53443100 		.ascii	"SD1\000"
 2771 0d0f 11       		.byte	0x11
 2772 0d10 FB       		.byte	0xfb
 2773 0d11 D1070000 		.4byte	0x7d1
 2774 0d15 01       		.byte	0x1
 2775 0d16 01       		.byte	0x1
 2776 0d17 00       		.byte	0x0
 2777              		.section	.debug_abbrev
 2778 0000 01       		.uleb128 0x1
 2779 0001 11       		.uleb128 0x11
 2780 0002 01       		.byte	0x1
 2781 0003 25       		.uleb128 0x25
 2782 0004 0E       		.uleb128 0xe
 2783 0005 13       		.uleb128 0x13
 2784 0006 0B       		.uleb128 0xb
 2785 0007 03       		.uleb128 0x3
 2786 0008 0E       		.uleb128 0xe
 2787 0009 1B       		.uleb128 0x1b
 2788 000a 0E       		.uleb128 0xe
 2789 000b 11       		.uleb128 0x11
 2790 000c 01       		.uleb128 0x1
 2791 000d 52       		.uleb128 0x52
 2792 000e 01       		.uleb128 0x1
 2793 000f 55       		.uleb128 0x55
 2794 0010 06       		.uleb128 0x6
 2795 0011 10       		.uleb128 0x10
 2796 0012 06       		.uleb128 0x6
 2797 0013 00       		.byte	0x0
 2798 0014 00       		.byte	0x0
 2799 0015 02       		.uleb128 0x2
 2800 0016 24       		.uleb128 0x24
 2801 0017 00       		.byte	0x0
 2802 0018 0B       		.uleb128 0xb
 2803 0019 0B       		.uleb128 0xb
 2804 001a 3E       		.uleb128 0x3e
 2805 001b 0B       		.uleb128 0xb
 2806 001c 03       		.uleb128 0x3
 2807 001d 08       		.uleb128 0x8
 2808 001e 00       		.byte	0x0
 2809 001f 00       		.byte	0x0
 2810 0020 03       		.uleb128 0x3
 2811 0021 16       		.uleb128 0x16
 2812 0022 00       		.byte	0x0
 2813 0023 03       		.uleb128 0x3
 2814 0024 0E       		.uleb128 0xe
 2815 0025 3A       		.uleb128 0x3a
 2816 0026 0B       		.uleb128 0xb
 2817 0027 3B       		.uleb128 0x3b
 2818 0028 0B       		.uleb128 0xb
 2819 0029 49       		.uleb128 0x49
ARM GAS  C:\Users\z80\AppData\Local\Temp\ccNctp2I.s 			page 51


 2820 002a 13       		.uleb128 0x13
 2821 002b 00       		.byte	0x0
 2822 002c 00       		.byte	0x0
 2823 002d 04       		.uleb128 0x4
 2824 002e 24       		.uleb128 0x24
 2825 002f 00       		.byte	0x0
 2826 0030 0B       		.uleb128 0xb
 2827 0031 0B       		.uleb128 0xb
 2828 0032 3E       		.uleb128 0x3e
 2829 0033 0B       		.uleb128 0xb
 2830 0034 03       		.uleb128 0x3
 2831 0035 0E       		.uleb128 0xe
 2832 0036 00       		.byte	0x0
 2833 0037 00       		.byte	0x0
 2834 0038 05       		.uleb128 0x5
 2835 0039 13       		.uleb128 0x13
 2836 003a 01       		.byte	0x1
 2837 003b 03       		.uleb128 0x3
 2838 003c 0E       		.uleb128 0xe
 2839 003d 0B       		.uleb128 0xb
 2840 003e 0B       		.uleb128 0xb
 2841 003f 3A       		.uleb128 0x3a
 2842 0040 0B       		.uleb128 0xb
 2843 0041 3B       		.uleb128 0x3b
 2844 0042 0B       		.uleb128 0xb
 2845 0043 01       		.uleb128 0x1
 2846 0044 13       		.uleb128 0x13
 2847 0045 00       		.byte	0x0
 2848 0046 00       		.byte	0x0
 2849 0047 06       		.uleb128 0x6
 2850 0048 0D       		.uleb128 0xd
 2851 0049 00       		.byte	0x0
 2852 004a 03       		.uleb128 0x3
 2853 004b 0E       		.uleb128 0xe
 2854 004c 3A       		.uleb128 0x3a
 2855 004d 0B       		.uleb128 0xb
 2856 004e 3B       		.uleb128 0x3b
 2857 004f 0B       		.uleb128 0xb
 2858 0050 49       		.uleb128 0x49
 2859 0051 13       		.uleb128 0x13
 2860 0052 38       		.uleb128 0x38
 2861 0053 0A       		.uleb128 0xa
 2862 0054 00       		.byte	0x0
 2863 0055 00       		.byte	0x0
 2864 0056 07       		.uleb128 0x7
 2865 0057 0D       		.uleb128 0xd
 2866 0058 00       		.byte	0x0
 2867 0059 03       		.uleb128 0x3
 2868 005a 08       		.uleb128 0x8
 2869 005b 3A       		.uleb128 0x3a
 2870 005c 0B       		.uleb128 0xb
 2871 005d 3B       		.uleb128 0x3b
 2872 005e 0B       		.uleb128 0xb
 2873 005f 49       		.uleb128 0x49
 2874 0060 13       		.uleb128 0x13
 2875 0061 38       		.uleb128 0x38
 2876 0062 0A       		.uleb128 0xa
ARM GAS  C:\Users\z80\AppData\Local\Temp\ccNctp2I.s 			page 52


 2877 0063 00       		.byte	0x0
 2878 0064 00       		.byte	0x0
 2879 0065 08       		.uleb128 0x8
 2880 0066 13       		.uleb128 0x13
 2881 0067 01       		.byte	0x1
 2882 0068 0B       		.uleb128 0xb
 2883 0069 0B       		.uleb128 0xb
 2884 006a 3A       		.uleb128 0x3a
 2885 006b 0B       		.uleb128 0xb
 2886 006c 3B       		.uleb128 0x3b
 2887 006d 0B       		.uleb128 0xb
 2888 006e 01       		.uleb128 0x1
 2889 006f 13       		.uleb128 0x13
 2890 0070 00       		.byte	0x0
 2891 0071 00       		.byte	0x0
 2892 0072 09       		.uleb128 0x9
 2893 0073 0F       		.uleb128 0xf
 2894 0074 00       		.byte	0x0
 2895 0075 0B       		.uleb128 0xb
 2896 0076 0B       		.uleb128 0xb
 2897 0077 49       		.uleb128 0x49
 2898 0078 13       		.uleb128 0x13
 2899 0079 00       		.byte	0x0
 2900 007a 00       		.byte	0x0
 2901 007b 0A       		.uleb128 0xa
 2902 007c 0F       		.uleb128 0xf
 2903 007d 00       		.byte	0x0
 2904 007e 0B       		.uleb128 0xb
 2905 007f 0B       		.uleb128 0xb
 2906 0080 00       		.byte	0x0
 2907 0081 00       		.byte	0x0
 2908 0082 0B       		.uleb128 0xb
 2909 0083 0D       		.uleb128 0xd
 2910 0084 00       		.byte	0x0
 2911 0085 03       		.uleb128 0x3
 2912 0086 08       		.uleb128 0x8
 2913 0087 3A       		.uleb128 0x3a
 2914 0088 0B       		.uleb128 0xb
 2915 0089 3B       		.uleb128 0x3b
 2916 008a 05       		.uleb128 0x5
 2917 008b 49       		.uleb128 0x49
 2918 008c 13       		.uleb128 0x13
 2919 008d 38       		.uleb128 0x38
 2920 008e 0A       		.uleb128 0xa
 2921 008f 00       		.byte	0x0
 2922 0090 00       		.byte	0x0
 2923 0091 0C       		.uleb128 0xc
 2924 0092 13       		.uleb128 0x13
 2925 0093 01       		.byte	0x1
 2926 0094 03       		.uleb128 0x3
 2927 0095 0E       		.uleb128 0xe
 2928 0096 0B       		.uleb128 0xb
 2929 0097 0B       		.uleb128 0xb
 2930 0098 3A       		.uleb128 0x3a
 2931 0099 0B       		.uleb128 0xb
 2932 009a 3B       		.uleb128 0x3b
 2933 009b 05       		.uleb128 0x5
ARM GAS  C:\Users\z80\AppData\Local\Temp\ccNctp2I.s 			page 53


 2934 009c 01       		.uleb128 0x1
 2935 009d 13       		.uleb128 0x13
 2936 009e 00       		.byte	0x0
 2937 009f 00       		.byte	0x0
 2938 00a0 0D       		.uleb128 0xd
 2939 00a1 35       		.uleb128 0x35
 2940 00a2 00       		.byte	0x0
 2941 00a3 49       		.uleb128 0x49
 2942 00a4 13       		.uleb128 0x13
 2943 00a5 00       		.byte	0x0
 2944 00a6 00       		.byte	0x0
 2945 00a7 0E       		.uleb128 0xe
 2946 00a8 24       		.uleb128 0x24
 2947 00a9 00       		.byte	0x0
 2948 00aa 0B       		.uleb128 0xb
 2949 00ab 0B       		.uleb128 0xb
 2950 00ac 3E       		.uleb128 0x3e
 2951 00ad 0B       		.uleb128 0xb
 2952 00ae 00       		.byte	0x0
 2953 00af 00       		.byte	0x0
 2954 00b0 0F       		.uleb128 0xf
 2955 00b1 17       		.uleb128 0x17
 2956 00b2 01       		.byte	0x1
 2957 00b3 0B       		.uleb128 0xb
 2958 00b4 0B       		.uleb128 0xb
 2959 00b5 3A       		.uleb128 0x3a
 2960 00b6 0B       		.uleb128 0xb
 2961 00b7 3B       		.uleb128 0x3b
 2962 00b8 0B       		.uleb128 0xb
 2963 00b9 01       		.uleb128 0x1
 2964 00ba 13       		.uleb128 0x13
 2965 00bb 00       		.byte	0x0
 2966 00bc 00       		.byte	0x0
 2967 00bd 10       		.uleb128 0x10
 2968 00be 0D       		.uleb128 0xd
 2969 00bf 00       		.byte	0x0
 2970 00c0 03       		.uleb128 0x3
 2971 00c1 0E       		.uleb128 0xe
 2972 00c2 3A       		.uleb128 0x3a
 2973 00c3 0B       		.uleb128 0xb
 2974 00c4 3B       		.uleb128 0x3b
 2975 00c5 0B       		.uleb128 0xb
 2976 00c6 49       		.uleb128 0x49
 2977 00c7 13       		.uleb128 0x13
 2978 00c8 00       		.byte	0x0
 2979 00c9 00       		.byte	0x0
 2980 00ca 11       		.uleb128 0x11
 2981 00cb 26       		.uleb128 0x26
 2982 00cc 00       		.byte	0x0
 2983 00cd 49       		.uleb128 0x49
 2984 00ce 13       		.uleb128 0x13
 2985 00cf 00       		.byte	0x0
 2986 00d0 00       		.byte	0x0
 2987 00d1 12       		.uleb128 0x12
 2988 00d2 15       		.uleb128 0x15
 2989 00d3 01       		.byte	0x1
 2990 00d4 27       		.uleb128 0x27
ARM GAS  C:\Users\z80\AppData\Local\Temp\ccNctp2I.s 			page 54


 2991 00d5 0C       		.uleb128 0xc
 2992 00d6 01       		.uleb128 0x1
 2993 00d7 13       		.uleb128 0x13
 2994 00d8 00       		.byte	0x0
 2995 00d9 00       		.byte	0x0
 2996 00da 13       		.uleb128 0x13
 2997 00db 05       		.uleb128 0x5
 2998 00dc 00       		.byte	0x0
 2999 00dd 49       		.uleb128 0x49
 3000 00de 13       		.uleb128 0x13
 3001 00df 00       		.byte	0x0
 3002 00e0 00       		.byte	0x0
 3003 00e1 14       		.uleb128 0x14
 3004 00e2 15       		.uleb128 0x15
 3005 00e3 01       		.byte	0x1
 3006 00e4 27       		.uleb128 0x27
 3007 00e5 0C       		.uleb128 0xc
 3008 00e6 49       		.uleb128 0x49
 3009 00e7 13       		.uleb128 0x13
 3010 00e8 01       		.uleb128 0x1
 3011 00e9 13       		.uleb128 0x13
 3012 00ea 00       		.byte	0x0
 3013 00eb 00       		.byte	0x0
 3014 00ec 15       		.uleb128 0x15
 3015 00ed 16       		.uleb128 0x16
 3016 00ee 00       		.byte	0x0
 3017 00ef 03       		.uleb128 0x3
 3018 00f0 0E       		.uleb128 0xe
 3019 00f1 3A       		.uleb128 0x3a
 3020 00f2 0B       		.uleb128 0xb
 3021 00f3 3B       		.uleb128 0x3b
 3022 00f4 05       		.uleb128 0x5
 3023 00f5 49       		.uleb128 0x49
 3024 00f6 13       		.uleb128 0x13
 3025 00f7 00       		.byte	0x0
 3026 00f8 00       		.byte	0x0
 3027 00f9 16       		.uleb128 0x16
 3028 00fa 13       		.uleb128 0x13
 3029 00fb 01       		.byte	0x1
 3030 00fc 0B       		.uleb128 0xb
 3031 00fd 0B       		.uleb128 0xb
 3032 00fe 3A       		.uleb128 0x3a
 3033 00ff 0B       		.uleb128 0xb
 3034 0100 3B       		.uleb128 0x3b
 3035 0101 05       		.uleb128 0x5
 3036 0102 01       		.uleb128 0x1
 3037 0103 13       		.uleb128 0x13
 3038 0104 00       		.byte	0x0
 3039 0105 00       		.byte	0x0
 3040 0106 17       		.uleb128 0x17
 3041 0107 0D       		.uleb128 0xd
 3042 0108 00       		.byte	0x0
 3043 0109 03       		.uleb128 0x3
 3044 010a 0E       		.uleb128 0xe
 3045 010b 3A       		.uleb128 0x3a
 3046 010c 0B       		.uleb128 0xb
 3047 010d 3B       		.uleb128 0x3b
ARM GAS  C:\Users\z80\AppData\Local\Temp\ccNctp2I.s 			page 55


 3048 010e 05       		.uleb128 0x5
 3049 010f 49       		.uleb128 0x49
 3050 0110 13       		.uleb128 0x13
 3051 0111 38       		.uleb128 0x38
 3052 0112 0A       		.uleb128 0xa
 3053 0113 00       		.byte	0x0
 3054 0114 00       		.byte	0x0
 3055 0115 18       		.uleb128 0x18
 3056 0116 04       		.uleb128 0x4
 3057 0117 01       		.byte	0x1
 3058 0118 0B       		.uleb128 0xb
 3059 0119 0B       		.uleb128 0xb
 3060 011a 3A       		.uleb128 0x3a
 3061 011b 0B       		.uleb128 0xb
 3062 011c 3B       		.uleb128 0x3b
 3063 011d 0B       		.uleb128 0xb
 3064 011e 01       		.uleb128 0x1
 3065 011f 13       		.uleb128 0x13
 3066 0120 00       		.byte	0x0
 3067 0121 00       		.byte	0x0
 3068 0122 19       		.uleb128 0x19
 3069 0123 28       		.uleb128 0x28
 3070 0124 00       		.byte	0x0
 3071 0125 03       		.uleb128 0x3
 3072 0126 0E       		.uleb128 0xe
 3073 0127 1C       		.uleb128 0x1c
 3074 0128 0D       		.uleb128 0xd
 3075 0129 00       		.byte	0x0
 3076 012a 00       		.byte	0x0
 3077 012b 1A       		.uleb128 0x1a
 3078 012c 13       		.uleb128 0x13
 3079 012d 01       		.byte	0x1
 3080 012e 03       		.uleb128 0x3
 3081 012f 0E       		.uleb128 0xe
 3082 0130 0B       		.uleb128 0xb
 3083 0131 05       		.uleb128 0x5
 3084 0132 3A       		.uleb128 0x3a
 3085 0133 0B       		.uleb128 0xb
 3086 0134 3B       		.uleb128 0x3b
 3087 0135 0B       		.uleb128 0xb
 3088 0136 01       		.uleb128 0x1
 3089 0137 13       		.uleb128 0x13
 3090 0138 00       		.byte	0x0
 3091 0139 00       		.byte	0x0
 3092 013a 1B       		.uleb128 0x1b
 3093 013b 01       		.uleb128 0x1
 3094 013c 01       		.byte	0x1
 3095 013d 49       		.uleb128 0x49
 3096 013e 13       		.uleb128 0x13
 3097 013f 01       		.uleb128 0x1
 3098 0140 13       		.uleb128 0x13
 3099 0141 00       		.byte	0x0
 3100 0142 00       		.byte	0x0
 3101 0143 1C       		.uleb128 0x1c
 3102 0144 21       		.uleb128 0x21
 3103 0145 00       		.byte	0x0
 3104 0146 49       		.uleb128 0x49
ARM GAS  C:\Users\z80\AppData\Local\Temp\ccNctp2I.s 			page 56


 3105 0147 13       		.uleb128 0x13
 3106 0148 2F       		.uleb128 0x2f
 3107 0149 05       		.uleb128 0x5
 3108 014a 00       		.byte	0x0
 3109 014b 00       		.byte	0x0
 3110 014c 1D       		.uleb128 0x1d
 3111 014d 2E       		.uleb128 0x2e
 3112 014e 01       		.byte	0x1
 3113 014f 03       		.uleb128 0x3
 3114 0150 0E       		.uleb128 0xe
 3115 0151 3A       		.uleb128 0x3a
 3116 0152 0B       		.uleb128 0xb
 3117 0153 3B       		.uleb128 0x3b
 3118 0154 0B       		.uleb128 0xb
 3119 0155 27       		.uleb128 0x27
 3120 0156 0C       		.uleb128 0xc
 3121 0157 20       		.uleb128 0x20
 3122 0158 0B       		.uleb128 0xb
 3123 0159 01       		.uleb128 0x1
 3124 015a 13       		.uleb128 0x13
 3125 015b 00       		.byte	0x0
 3126 015c 00       		.byte	0x0
 3127 015d 1E       		.uleb128 0x1e
 3128 015e 34       		.uleb128 0x34
 3129 015f 00       		.byte	0x0
 3130 0160 03       		.uleb128 0x3
 3131 0161 0E       		.uleb128 0xe
 3132 0162 3A       		.uleb128 0x3a
 3133 0163 0B       		.uleb128 0xb
 3134 0164 3B       		.uleb128 0x3b
 3135 0165 0B       		.uleb128 0xb
 3136 0166 49       		.uleb128 0x49
 3137 0167 13       		.uleb128 0x13
 3138 0168 00       		.byte	0x0
 3139 0169 00       		.byte	0x0
 3140 016a 1F       		.uleb128 0x1f
 3141 016b 05       		.uleb128 0x5
 3142 016c 00       		.byte	0x0
 3143 016d 03       		.uleb128 0x3
 3144 016e 08       		.uleb128 0x8
 3145 016f 3A       		.uleb128 0x3a
 3146 0170 0B       		.uleb128 0xb
 3147 0171 3B       		.uleb128 0x3b
 3148 0172 0B       		.uleb128 0xb
 3149 0173 49       		.uleb128 0x49
 3150 0174 13       		.uleb128 0x13
 3151 0175 00       		.byte	0x0
 3152 0176 00       		.byte	0x0
 3153 0177 20       		.uleb128 0x20
 3154 0178 34       		.uleb128 0x34
 3155 0179 00       		.byte	0x0
 3156 017a 03       		.uleb128 0x3
 3157 017b 08       		.uleb128 0x8
 3158 017c 3A       		.uleb128 0x3a
 3159 017d 0B       		.uleb128 0xb
 3160 017e 3B       		.uleb128 0x3b
 3161 017f 0B       		.uleb128 0xb
ARM GAS  C:\Users\z80\AppData\Local\Temp\ccNctp2I.s 			page 57


 3162 0180 49       		.uleb128 0x49
 3163 0181 13       		.uleb128 0x13
 3164 0182 00       		.byte	0x0
 3165 0183 00       		.byte	0x0
 3166 0184 21       		.uleb128 0x21
 3167 0185 2E       		.uleb128 0x2e
 3168 0186 01       		.byte	0x1
 3169 0187 03       		.uleb128 0x3
 3170 0188 0E       		.uleb128 0xe
 3171 0189 3A       		.uleb128 0x3a
 3172 018a 0B       		.uleb128 0xb
 3173 018b 3B       		.uleb128 0x3b
 3174 018c 0B       		.uleb128 0xb
 3175 018d 27       		.uleb128 0x27
 3176 018e 0C       		.uleb128 0xc
 3177 018f 11       		.uleb128 0x11
 3178 0190 01       		.uleb128 0x1
 3179 0191 12       		.uleb128 0x12
 3180 0192 01       		.uleb128 0x1
 3181 0193 40       		.uleb128 0x40
 3182 0194 06       		.uleb128 0x6
 3183 0195 01       		.uleb128 0x1
 3184 0196 13       		.uleb128 0x13
 3185 0197 00       		.byte	0x0
 3186 0198 00       		.byte	0x0
 3187 0199 22       		.uleb128 0x22
 3188 019a 05       		.uleb128 0x5
 3189 019b 00       		.byte	0x0
 3190 019c 03       		.uleb128 0x3
 3191 019d 08       		.uleb128 0x8
 3192 019e 3A       		.uleb128 0x3a
 3193 019f 0B       		.uleb128 0xb
 3194 01a0 3B       		.uleb128 0x3b
 3195 01a1 0B       		.uleb128 0xb
 3196 01a2 49       		.uleb128 0x49
 3197 01a3 13       		.uleb128 0x13
 3198 01a4 02       		.uleb128 0x2
 3199 01a5 06       		.uleb128 0x6
 3200 01a6 00       		.byte	0x0
 3201 01a7 00       		.byte	0x0
 3202 01a8 23       		.uleb128 0x23
 3203 01a9 2E       		.uleb128 0x2e
 3204 01aa 00       		.byte	0x0
 3205 01ab 03       		.uleb128 0x3
 3206 01ac 0E       		.uleb128 0xe
 3207 01ad 3A       		.uleb128 0x3a
 3208 01ae 0B       		.uleb128 0xb
 3209 01af 3B       		.uleb128 0x3b
 3210 01b0 0B       		.uleb128 0xb
 3211 01b1 27       		.uleb128 0x27
 3212 01b2 0C       		.uleb128 0xc
 3213 01b3 11       		.uleb128 0x11
 3214 01b4 01       		.uleb128 0x1
 3215 01b5 12       		.uleb128 0x12
 3216 01b6 01       		.uleb128 0x1
 3217 01b7 40       		.uleb128 0x40
 3218 01b8 06       		.uleb128 0x6
ARM GAS  C:\Users\z80\AppData\Local\Temp\ccNctp2I.s 			page 58


 3219 01b9 00       		.byte	0x0
 3220 01ba 00       		.byte	0x0
 3221 01bb 24       		.uleb128 0x24
 3222 01bc 05       		.uleb128 0x5
 3223 01bd 00       		.byte	0x0
 3224 01be 03       		.uleb128 0x3
 3225 01bf 0E       		.uleb128 0xe
 3226 01c0 3A       		.uleb128 0x3a
 3227 01c1 0B       		.uleb128 0xb
 3228 01c2 3B       		.uleb128 0x3b
 3229 01c3 0B       		.uleb128 0xb
 3230 01c4 49       		.uleb128 0x49
 3231 01c5 13       		.uleb128 0x13
 3232 01c6 02       		.uleb128 0x2
 3233 01c7 06       		.uleb128 0x6
 3234 01c8 00       		.byte	0x0
 3235 01c9 00       		.byte	0x0
 3236 01ca 25       		.uleb128 0x25
 3237 01cb 34       		.uleb128 0x34
 3238 01cc 00       		.byte	0x0
 3239 01cd 03       		.uleb128 0x3
 3240 01ce 08       		.uleb128 0x8
 3241 01cf 3A       		.uleb128 0x3a
 3242 01d0 0B       		.uleb128 0xb
 3243 01d1 3B       		.uleb128 0x3b
 3244 01d2 0B       		.uleb128 0xb
 3245 01d3 49       		.uleb128 0x49
 3246 01d4 13       		.uleb128 0x13
 3247 01d5 02       		.uleb128 0x2
 3248 01d6 0A       		.uleb128 0xa
 3249 01d7 00       		.byte	0x0
 3250 01d8 00       		.byte	0x0
 3251 01d9 26       		.uleb128 0x26
 3252 01da 34       		.uleb128 0x34
 3253 01db 00       		.byte	0x0
 3254 01dc 03       		.uleb128 0x3
 3255 01dd 08       		.uleb128 0x8
 3256 01de 3A       		.uleb128 0x3a
 3257 01df 0B       		.uleb128 0xb
 3258 01e0 3B       		.uleb128 0x3b
 3259 01e1 0B       		.uleb128 0xb
 3260 01e2 49       		.uleb128 0x49
 3261 01e3 13       		.uleb128 0x13
 3262 01e4 02       		.uleb128 0x2
 3263 01e5 06       		.uleb128 0x6
 3264 01e6 00       		.byte	0x0
 3265 01e7 00       		.byte	0x0
 3266 01e8 27       		.uleb128 0x27
 3267 01e9 0B       		.uleb128 0xb
 3268 01ea 01       		.byte	0x1
 3269 01eb 11       		.uleb128 0x11
 3270 01ec 01       		.uleb128 0x1
 3271 01ed 12       		.uleb128 0x12
 3272 01ee 01       		.uleb128 0x1
 3273 01ef 00       		.byte	0x0
 3274 01f0 00       		.byte	0x0
 3275 01f1 28       		.uleb128 0x28
ARM GAS  C:\Users\z80\AppData\Local\Temp\ccNctp2I.s 			page 59


 3276 01f2 21       		.uleb128 0x21
 3277 01f3 00       		.byte	0x0
 3278 01f4 49       		.uleb128 0x49
 3279 01f5 13       		.uleb128 0x13
 3280 01f6 2F       		.uleb128 0x2f
 3281 01f7 0B       		.uleb128 0xb
 3282 01f8 00       		.byte	0x0
 3283 01f9 00       		.byte	0x0
 3284 01fa 29       		.uleb128 0x29
 3285 01fb 34       		.uleb128 0x34
 3286 01fc 00       		.byte	0x0
 3287 01fd 03       		.uleb128 0x3
 3288 01fe 0E       		.uleb128 0xe
 3289 01ff 3A       		.uleb128 0x3a
 3290 0200 0B       		.uleb128 0xb
 3291 0201 3B       		.uleb128 0x3b
 3292 0202 0B       		.uleb128 0xb
 3293 0203 49       		.uleb128 0x49
 3294 0204 13       		.uleb128 0x13
 3295 0205 02       		.uleb128 0x2
 3296 0206 0A       		.uleb128 0xa
 3297 0207 00       		.byte	0x0
 3298 0208 00       		.byte	0x0
 3299 0209 2A       		.uleb128 0x2a
 3300 020a 34       		.uleb128 0x34
 3301 020b 00       		.byte	0x0
 3302 020c 03       		.uleb128 0x3
 3303 020d 08       		.uleb128 0x8
 3304 020e 3A       		.uleb128 0x3a
 3305 020f 0B       		.uleb128 0xb
 3306 0210 3B       		.uleb128 0x3b
 3307 0211 0B       		.uleb128 0xb
 3308 0212 49       		.uleb128 0x49
 3309 0213 13       		.uleb128 0x13
 3310 0214 1C       		.uleb128 0x1c
 3311 0215 0B       		.uleb128 0xb
 3312 0216 00       		.byte	0x0
 3313 0217 00       		.byte	0x0
 3314 0218 2B       		.uleb128 0x2b
 3315 0219 2E       		.uleb128 0x2e
 3316 021a 00       		.byte	0x0
 3317 021b 3F       		.uleb128 0x3f
 3318 021c 0C       		.uleb128 0xc
 3319 021d 03       		.uleb128 0x3
 3320 021e 0E       		.uleb128 0xe
 3321 021f 3A       		.uleb128 0x3a
 3322 0220 0B       		.uleb128 0xb
 3323 0221 3B       		.uleb128 0x3b
 3324 0222 0B       		.uleb128 0xb
 3325 0223 27       		.uleb128 0x27
 3326 0224 0C       		.uleb128 0xc
 3327 0225 11       		.uleb128 0x11
 3328 0226 01       		.uleb128 0x1
 3329 0227 12       		.uleb128 0x12
 3330 0228 01       		.uleb128 0x1
 3331 0229 40       		.uleb128 0x40
 3332 022a 06       		.uleb128 0x6
ARM GAS  C:\Users\z80\AppData\Local\Temp\ccNctp2I.s 			page 60


 3333 022b 00       		.byte	0x0
 3334 022c 00       		.byte	0x0
 3335 022d 2C       		.uleb128 0x2c
 3336 022e 2E       		.uleb128 0x2e
 3337 022f 01       		.byte	0x1
 3338 0230 3F       		.uleb128 0x3f
 3339 0231 0C       		.uleb128 0xc
 3340 0232 03       		.uleb128 0x3
 3341 0233 0E       		.uleb128 0xe
 3342 0234 3A       		.uleb128 0x3a
 3343 0235 0B       		.uleb128 0xb
 3344 0236 3B       		.uleb128 0x3b
 3345 0237 0B       		.uleb128 0xb
 3346 0238 27       		.uleb128 0x27
 3347 0239 0C       		.uleb128 0xc
 3348 023a 11       		.uleb128 0x11
 3349 023b 01       		.uleb128 0x1
 3350 023c 12       		.uleb128 0x12
 3351 023d 01       		.uleb128 0x1
 3352 023e 40       		.uleb128 0x40
 3353 023f 06       		.uleb128 0x6
 3354 0240 01       		.uleb128 0x1
 3355 0241 13       		.uleb128 0x13
 3356 0242 00       		.byte	0x0
 3357 0243 00       		.byte	0x0
 3358 0244 2D       		.uleb128 0x2d
 3359 0245 34       		.uleb128 0x34
 3360 0246 00       		.byte	0x0
 3361 0247 03       		.uleb128 0x3
 3362 0248 0E       		.uleb128 0xe
 3363 0249 3A       		.uleb128 0x3a
 3364 024a 0B       		.uleb128 0xb
 3365 024b 3B       		.uleb128 0x3b
 3366 024c 0B       		.uleb128 0xb
 3367 024d 49       		.uleb128 0x49
 3368 024e 13       		.uleb128 0x13
 3369 024f 02       		.uleb128 0x2
 3370 0250 06       		.uleb128 0x6
 3371 0251 00       		.byte	0x0
 3372 0252 00       		.byte	0x0
 3373 0253 2E       		.uleb128 0x2e
 3374 0254 0B       		.uleb128 0xb
 3375 0255 01       		.byte	0x1
 3376 0256 55       		.uleb128 0x55
 3377 0257 06       		.uleb128 0x6
 3378 0258 00       		.byte	0x0
 3379 0259 00       		.byte	0x0
 3380 025a 2F       		.uleb128 0x2f
 3381 025b 1D       		.uleb128 0x1d
 3382 025c 01       		.byte	0x1
 3383 025d 31       		.uleb128 0x31
 3384 025e 13       		.uleb128 0x13
 3385 025f 52       		.uleb128 0x52
 3386 0260 01       		.uleb128 0x1
 3387 0261 55       		.uleb128 0x55
 3388 0262 06       		.uleb128 0x6
 3389 0263 58       		.uleb128 0x58
ARM GAS  C:\Users\z80\AppData\Local\Temp\ccNctp2I.s 			page 61


 3390 0264 0B       		.uleb128 0xb
 3391 0265 59       		.uleb128 0x59
 3392 0266 0B       		.uleb128 0xb
 3393 0267 00       		.byte	0x0
 3394 0268 00       		.byte	0x0
 3395 0269 30       		.uleb128 0x30
 3396 026a 05       		.uleb128 0x5
 3397 026b 00       		.byte	0x0
 3398 026c 31       		.uleb128 0x31
 3399 026d 13       		.uleb128 0x13
 3400 026e 02       		.uleb128 0x2
 3401 026f 06       		.uleb128 0x6
 3402 0270 00       		.byte	0x0
 3403 0271 00       		.byte	0x0
 3404 0272 31       		.uleb128 0x31
 3405 0273 34       		.uleb128 0x34
 3406 0274 00       		.byte	0x0
 3407 0275 31       		.uleb128 0x31
 3408 0276 13       		.uleb128 0x13
 3409 0277 02       		.uleb128 0x2
 3410 0278 06       		.uleb128 0x6
 3411 0279 00       		.byte	0x0
 3412 027a 00       		.byte	0x0
 3413 027b 32       		.uleb128 0x32
 3414 027c 34       		.uleb128 0x34
 3415 027d 00       		.byte	0x0
 3416 027e 31       		.uleb128 0x31
 3417 027f 13       		.uleb128 0x13
 3418 0280 1C       		.uleb128 0x1c
 3419 0281 0B       		.uleb128 0xb
 3420 0282 00       		.byte	0x0
 3421 0283 00       		.byte	0x0
 3422 0284 33       		.uleb128 0x33
 3423 0285 2E       		.uleb128 0x2e
 3424 0286 00       		.byte	0x0
 3425 0287 3F       		.uleb128 0x3f
 3426 0288 0C       		.uleb128 0xc
 3427 0289 03       		.uleb128 0x3
 3428 028a 0E       		.uleb128 0xe
 3429 028b 3A       		.uleb128 0x3a
 3430 028c 0B       		.uleb128 0xb
 3431 028d 3B       		.uleb128 0x3b
 3432 028e 0B       		.uleb128 0xb
 3433 028f 27       		.uleb128 0x27
 3434 0290 0C       		.uleb128 0xc
 3435 0291 49       		.uleb128 0x49
 3436 0292 13       		.uleb128 0x13
 3437 0293 11       		.uleb128 0x11
 3438 0294 01       		.uleb128 0x1
 3439 0295 12       		.uleb128 0x12
 3440 0296 01       		.uleb128 0x1
 3441 0297 40       		.uleb128 0x40
 3442 0298 0A       		.uleb128 0xa
 3443 0299 00       		.byte	0x0
 3444 029a 00       		.byte	0x0
 3445 029b 34       		.uleb128 0x34
 3446 029c 34       		.uleb128 0x34
ARM GAS  C:\Users\z80\AppData\Local\Temp\ccNctp2I.s 			page 62


 3447 029d 00       		.byte	0x0
 3448 029e 03       		.uleb128 0x3
 3449 029f 0E       		.uleb128 0xe
 3450 02a0 3A       		.uleb128 0x3a
 3451 02a1 0B       		.uleb128 0xb
 3452 02a2 3B       		.uleb128 0x3b
 3453 02a3 05       		.uleb128 0x5
 3454 02a4 49       		.uleb128 0x49
 3455 02a5 13       		.uleb128 0x13
 3456 02a6 3F       		.uleb128 0x3f
 3457 02a7 0C       		.uleb128 0xc
 3458 02a8 3C       		.uleb128 0x3c
 3459 02a9 0C       		.uleb128 0xc
 3460 02aa 00       		.byte	0x0
 3461 02ab 00       		.byte	0x0
 3462 02ac 35       		.uleb128 0x35
 3463 02ad 34       		.uleb128 0x34
 3464 02ae 00       		.byte	0x0
 3465 02af 03       		.uleb128 0x3
 3466 02b0 08       		.uleb128 0x8
 3467 02b1 3A       		.uleb128 0x3a
 3468 02b2 0B       		.uleb128 0xb
 3469 02b3 3B       		.uleb128 0x3b
 3470 02b4 0B       		.uleb128 0xb
 3471 02b5 49       		.uleb128 0x49
 3472 02b6 13       		.uleb128 0x13
 3473 02b7 3F       		.uleb128 0x3f
 3474 02b8 0C       		.uleb128 0xc
 3475 02b9 3C       		.uleb128 0x3c
 3476 02ba 0C       		.uleb128 0xc
 3477 02bb 00       		.byte	0x0
 3478 02bc 00       		.byte	0x0
 3479 02bd 00       		.byte	0x0
 3480              		.section	.debug_pubnames,"",%progbits
 3481 0000 3A000000 		.4byte	0x3a
 3482 0004 0200     		.2byte	0x2
 3483 0006 00000000 		.4byte	.Ldebug_info0
 3484 000a 180D0000 		.4byte	0xd18
 3485 000e 870B0000 		.4byte	0xb87
 3486 0012 696E6974 		.ascii	"initCpuIo\000"
 3486      43707549 
 3486      6F00
 3487 001c 9C0B0000 		.4byte	0xb9c
 3488 0020 70726F63 		.ascii	"processCpuIo\000"
 3488      65737343 
 3488      7075496F 
 3488      00
 3489 002d 710C0000 		.4byte	0xc71
 3490 0031 66756E63 		.ascii	"funcArgs\000"
 3490      41726773 
 3490      00
 3491 003a 00000000 		.4byte	0x0
 3492              		.section	.debug_pubtypes,"",%progbits
 3493 0000 63020000 		.4byte	0x263
 3494 0004 0200     		.2byte	0x2
 3495 0006 00000000 		.4byte	.Ldebug_info0
 3496 000a 180D0000 		.4byte	0xd18
ARM GAS  C:\Users\z80\AppData\Local\Temp\ccNctp2I.s 			page 63


 3497 000e 30000000 		.4byte	0x30
 3498 0012 73697A65 		.ascii	"size_t\000"
 3498      5F7400
 3499 0019 49000000 		.4byte	0x49
 3500 001d 75696E74 		.ascii	"uint8_t\000"
 3500      385F7400 
 3501 0025 62000000 		.4byte	0x62
 3502 0029 75696E74 		.ascii	"uint16_t\000"
 3502      31365F74 
 3502      00
 3503 0032 74000000 		.4byte	0x74
 3504 0036 696E7433 		.ascii	"int32_t\000"
 3504      325F7400 
 3505 003e 86000000 		.4byte	0x86
 3506 0042 75696E74 		.ascii	"uint32_t\000"
 3506      33325F74 
 3506      00
 3507 004b 9F000000 		.4byte	0x9f
 3508 004f 75696E74 		.ascii	"uint64_t\000"
 3508      36345F74 
 3508      00
 3509 0058 B1000000 		.4byte	0xb1
 3510 005c 75696E74 		.ascii	"uint_fast16_t\000"
 3510      5F666173 
 3510      7431365F 
 3510      7400
 3511 006a BC000000 		.4byte	0xbc
 3512 006e 626F6F6C 		.ascii	"bool_t\000"
 3512      5F7400
 3513 0075 C7000000 		.4byte	0xc7
 3514 0079 746D6F64 		.ascii	"tmode_t\000"
 3514      655F7400 
 3515 0081 D2000000 		.4byte	0xd2
 3516 0085 74737461 		.ascii	"tstate_t\000"
 3516      74655F74 
 3516      00
 3517 008e DD000000 		.4byte	0xdd
 3518 0092 74707269 		.ascii	"tprio_t\000"
 3518      6F5F7400 
 3519 009a E8000000 		.4byte	0xe8
 3520 009e 6D73675F 		.ascii	"msg_t\000"
 3520      7400
 3521 00a4 F3000000 		.4byte	0xf3
 3522 00a8 6576656E 		.ascii	"eventmask_t\000"
 3522      746D6173 
 3522      6B5F7400 
 3523 00b4 FE000000 		.4byte	0xfe
 3524 00b8 73797374 		.ascii	"systime_t\000"
 3524      696D655F 
 3524      7400
 3525 00c2 09010000 		.4byte	0x109
 3526 00c6 54687265 		.ascii	"Thread\000"
 3526      616400
 3527 00cd 48020000 		.4byte	0x248
 3528 00d1 54687265 		.ascii	"ThreadsQueue\000"
 3528      61647351 
 3528      75657565 
ARM GAS  C:\Users\z80\AppData\Local\Temp\ccNctp2I.s 			page 64


 3528      00
 3529 00de 6A020000 		.4byte	0x26a
 3530 00e2 54687265 		.ascii	"ThreadsList\000"
 3530      6164734C 
 3530      69737400 
 3531 00ee 75020000 		.4byte	0x275
 3532 00f2 72656761 		.ascii	"regarm_t\000"
 3532      726D5F74 
 3532      00
 3533 00fb 82020000 		.4byte	0x282
 3534 00ff 73746B61 		.ascii	"stkalign_t\000"
 3534      6C69676E 
 3534      5F7400
 3535 010a 8D020000 		.4byte	0x28d
 3536 010e 696E7463 		.ascii	"intctx\000"
 3536      747800
 3537 0115 1A030000 		.4byte	0x31a
 3538 0119 636F6E74 		.ascii	"context\000"
 3538      65787400 
 3539 0121 4A030000 		.4byte	0x34a
 3540 0125 4D757465 		.ascii	"Mutex\000"
 3540      7800
 3541 012b 87030000 		.4byte	0x387
 3542 012f 4D757465 		.ascii	"Mutex\000"
 3542      7800
 3543 0135 92030000 		.4byte	0x392
 3544 0139 4576656E 		.ascii	"EventListener\000"
 3544      744C6973 
 3544      74656E65 
 3544      7200
 3545 0147 9D030000 		.4byte	0x39d
 3546 014b 4576656E 		.ascii	"EventListener\000"
 3546      744C6973 
 3546      74656E65 
 3546      7200
 3547 0159 DA030000 		.4byte	0x3da
 3548 015d 4576656E 		.ascii	"EventSource\000"
 3548      74536F75 
 3548      72636500 
 3549 0169 F5030000 		.4byte	0x3f5
 3550 016d 4576656E 		.ascii	"EventSource\000"
 3550      74536F75 
 3550      72636500 
 3551 0179 14010000 		.4byte	0x114
 3552 017d 54687265 		.ascii	"Thread\000"
 3552      616400
 3553 0184 53040000 		.4byte	0x453
 3554 0188 47656E65 		.ascii	"GenericQueue\000"
 3554      72696351 
 3554      75657565 
 3554      00
 3555 0195 CD040000 		.4byte	0x4cd
 3556 0199 716E6F74 		.ascii	"qnotify_t\000"
 3556      6966795F 
 3556      7400
 3557 01a3 5E040000 		.4byte	0x45e
 3558 01a7 47656E65 		.ascii	"GenericQueue\000"
ARM GAS  C:\Users\z80\AppData\Local\Temp\ccNctp2I.s 			page 65


 3558      72696351 
 3558      75657565 
 3558      00
 3559 01b4 F6040000 		.4byte	0x4f6
 3560 01b8 496E7075 		.ascii	"InputQueue\000"
 3560      74517565 
 3560      756500
 3561 01c3 01050000 		.4byte	0x501
 3562 01c7 4F757470 		.ascii	"OutputQueue\000"
 3562      75745175 
 3562      65756500 
 3563 01d3 F2050000 		.4byte	0x5f2
 3564 01d7 696F666C 		.ascii	"ioflags_t\000"
 3564      6167735F 
 3564      7400
 3565 01e1 14060000 		.4byte	0x614
 3566 01e5 5446756E 		.ascii	"TFunc\000"
 3566      6300
 3567 01eb AE060000 		.4byte	0x6ae
 3568 01ef 4750494F 		.ascii	"GPIO_TypeDef\000"
 3568      5F547970 
 3568      65446566 
 3568      00
 3569 01fc 94070000 		.4byte	0x794
 3570 0200 55534152 		.ascii	"USART_TypeDef\000"
 3570      545F5479 
 3570      70654465 
 3570      6600
 3571 020e A0070000 		.4byte	0x7a0
 3572 0212 696F706F 		.ascii	"ioportmask_t\000"
 3572      72746D61 
 3572      736B5F74 
 3572      00
 3573 021f C6070000 		.4byte	0x7c6
 3574 0223 73647374 		.ascii	"sdstate_t\000"
 3574      6174655F 
 3574      7400
 3575 022d D1070000 		.4byte	0x7d1
 3576 0231 53657269 		.ascii	"SerialDriver\000"
 3576      616C4472 
 3576      69766572 
 3576      00
 3577 023e 68080000 		.4byte	0x868
 3578 0242 53657269 		.ascii	"SerialDriverVMT\000"
 3578      616C4472 
 3578      69766572 
 3578      564D5400 
 3579 0252 DC070000 		.4byte	0x7dc
 3580 0256 53657269 		.ascii	"SerialDriver\000"
 3580      616C4472 
 3580      69766572 
 3580      00
 3581 0263 00000000 		.4byte	0x0
 3582              		.section	.debug_aranges,"",%progbits
 3583 0000 6C000000 		.4byte	0x6c
 3584 0004 0200     		.2byte	0x2
 3585 0006 00000000 		.4byte	.Ldebug_info0
ARM GAS  C:\Users\z80\AppData\Local\Temp\ccNctp2I.s 			page 66


 3586 000a 04       		.byte	0x4
 3587 000b 00       		.byte	0x0
 3588 000c 0000     		.2byte	0x0
 3589 000e 0000     		.2byte	0x0
 3590 0010 00000000 		.4byte	.LFB73
 3591 0014 34000000 		.4byte	.LFE73-.LFB73
 3592 0018 00000000 		.4byte	.LFB74
 3593 001c 14000000 		.4byte	.LFE74-.LFB74
 3594 0020 00000000 		.4byte	.LFB72
 3595 0024 3E000000 		.4byte	.LFE72-.LFB72
 3596 0028 00000000 		.4byte	.LFB68
 3597 002c 30000000 		.4byte	.LFE68-.LFB68
 3598 0030 00000000 		.4byte	.LFB67
 3599 0034 30000000 		.4byte	.LFE67-.LFB67
 3600 0038 00000000 		.4byte	.LFB71
 3601 003c 1A000000 		.4byte	.LFE71-.LFB71
 3602 0040 00000000 		.4byte	.LFB70
 3603 0044 1A000000 		.4byte	.LFE70-.LFB70
 3604 0048 00000000 		.4byte	.LFB69
 3605 004c 0A000000 		.4byte	.LFE69-.LFB69
 3606 0050 00000000 		.4byte	.LFB62
 3607 0054 32000000 		.4byte	.LFE62-.LFB62
 3608 0058 00000000 		.4byte	.LFB63
 3609 005c C4000000 		.4byte	.LFE63-.LFB63
 3610 0060 00000000 		.4byte	.LFB64
 3611 0064 0A000000 		.4byte	.LFE64-.LFB64
 3612 0068 00000000 		.4byte	0x0
 3613 006c 00000000 		.4byte	0x0
 3614              		.section	.debug_ranges,"",%progbits
 3615              	.Ldebug_ranges0:
 3616 0000 12000000 		.4byte	.LBB10
 3617 0004 30000000 		.4byte	.LBE10
 3618 0008 32000000 		.4byte	.LBB27
 3619 000c C4000000 		.4byte	.LBE27
 3620 0010 00000000 		.4byte	0x0
 3621 0014 00000000 		.4byte	0x0
 3622 0018 1C000000 		.4byte	.LBB13
 3623 001c 1E000000 		.4byte	.LBE13
 3624 0020 92000000 		.4byte	.LBB26
 3625 0024 C4000000 		.4byte	.LBE26
 3626 0028 66000000 		.4byte	.LBB25
 3627 002c 80000000 		.4byte	.LBE25
 3628 0030 24000000 		.4byte	.LBB11
 3629 0034 2E000000 		.4byte	.LBE11
 3630 0038 20000000 		.4byte	.LBB12
 3631 003c 22000000 		.4byte	.LBE12
 3632 0040 00000000 		.4byte	0x0
 3633 0044 00000000 		.4byte	0x0
 3634 0048 1C000000 		.4byte	.LBB16
 3635 004c 1E000000 		.4byte	.LBE16
 3636 0050 92000000 		.4byte	.LBB24
 3637 0054 C4000000 		.4byte	.LBE24
 3638 0058 66000000 		.4byte	.LBB14
 3639 005c 80000000 		.4byte	.LBE14
 3640 0060 24000000 		.4byte	.LBB23
 3641 0064 2E000000 		.4byte	.LBE23
 3642 0068 20000000 		.4byte	.LBB15
ARM GAS  C:\Users\z80\AppData\Local\Temp\ccNctp2I.s 			page 67


 3643 006c 22000000 		.4byte	.LBE15
 3644 0070 00000000 		.4byte	0x0
 3645 0074 00000000 		.4byte	0x0
 3646 0078 2C000000 		.4byte	.LBB18
 3647 007c 2E000000 		.4byte	.LBE18
 3648 0080 92000000 		.4byte	.LBB22
 3649 0084 C4000000 		.4byte	.LBE22
 3650 0088 7C000000 		.4byte	.LBB17
 3651 008c 80000000 		.4byte	.LBE17
 3652 0090 00000000 		.4byte	0x0
 3653 0094 00000000 		.4byte	0x0
 3654 0098 2C000000 		.4byte	.LBB20
 3655 009c 2E000000 		.4byte	.LBE20
 3656 00a0 92000000 		.4byte	.LBB21
 3657 00a4 C4000000 		.4byte	.LBE21
 3658 00a8 7C000000 		.4byte	.LBB19
 3659 00ac 80000000 		.4byte	.LBE19
 3660 00b0 00000000 		.4byte	0x0
 3661 00b4 00000000 		.4byte	0x0
 3662 00b8 00000000 		.4byte	.LFB73
 3663 00bc 34000000 		.4byte	.LFE73
 3664 00c0 00000000 		.4byte	.LFB74
 3665 00c4 14000000 		.4byte	.LFE74
 3666 00c8 00000000 		.4byte	.LFB72
 3667 00cc 3E000000 		.4byte	.LFE72
 3668 00d0 00000000 		.4byte	.LFB68
 3669 00d4 30000000 		.4byte	.LFE68
 3670 00d8 00000000 		.4byte	.LFB67
 3671 00dc 30000000 		.4byte	.LFE67
 3672 00e0 00000000 		.4byte	.LFB71
 3673 00e4 1A000000 		.4byte	.LFE71
 3674 00e8 00000000 		.4byte	.LFB70
 3675 00ec 1A000000 		.4byte	.LFE70
 3676 00f0 00000000 		.4byte	.LFB69
 3677 00f4 0A000000 		.4byte	.LFE69
 3678 00f8 00000000 		.4byte	.LFB62
 3679 00fc 32000000 		.4byte	.LFE62
 3680 0100 00000000 		.4byte	.LFB63
 3681 0104 C4000000 		.4byte	.LFE63
 3682 0108 00000000 		.4byte	.LFB64
 3683 010c 0A000000 		.4byte	.LFE64
 3684 0110 00000000 		.4byte	0x0
 3685 0114 00000000 		.4byte	0x0
 3686              		.section	.debug_str,"MS",%progbits,1
 3687              	.LASF19:
 3688 0000 74707269 		.ascii	"tprio_t\000"
 3688      6F5F7400 
 3689              	.LASF132:
 3690 0008 77726974 		.ascii	"writeEom\000"
 3690      65456F6D 
 3690      00
 3691              	.LASF2:
 3692 0011 73697A65 		.ascii	"size_t\000"
 3692      5F7400
 3693              	.LASF57:
 3694 0018 7264796D 		.ascii	"rdymsg\000"
 3694      736700
ARM GAS  C:\Users\z80\AppData\Local\Temp\ccNctp2I.s 			page 68


 3695              	.LASF13:
 3696 001f 75696E74 		.ascii	"uint64_t\000"
 3696      36345F74 
 3696      00
 3697              	.LASF128:
 3698 0028 66756E63 		.ascii	"funcs\000"
 3698      7300
 3699              	.LASF72:
 3700 002e 4F757470 		.ascii	"OutputQueue\000"
 3700      75745175 
 3700      65756500 
 3701              	.LASF74:
 3702 003a 5446756E 		.ascii	"TFunc\000"
 3702      6300
 3703              	.LASF87:
 3704 0040 696F706F 		.ascii	"ioportmask_t\000"
 3704      72746D61 
 3704      736B5F74 
 3704      00
 3705              	.LASF15:
 3706 004d 75696E74 		.ascii	"uint_fast16_t\000"
 3706      5F666173 
 3706      7431365F 
 3706      7400
 3707              	.LASF14:
 3708 005b 6C6F6E67 		.ascii	"long long unsigned int\000"
 3708      206C6F6E 
 3708      6720756E 
 3708      7369676E 
 3708      65642069 
 3709              	.LASF135:
 3710 0072 66756E63 		.ascii	"funcArgs\000"
 3710      41726773 
 3710      00
 3711              	.LASF58:
 3712 007b 65786974 		.ascii	"exitcode\000"
 3712      636F6465 
 3712      00
 3713              	.LASF124:
 3714 0084 6F75745F 		.ascii	"out_index\000"
 3714      696E6465 
 3714      7800
 3715              	.LASF126:
 3716 008e 49544D5F 		.ascii	"ITM_RxBuffer\000"
 3716      52784275 
 3716      66666572 
 3716      00
 3717              	.LASF26:
 3718 009b 705F7072 		.ascii	"p_prio\000"
 3718      696F00
 3719              	.LASF105:
 3720 00a2 72656164 		.ascii	"readt\000"
 3720      7400
 3721              	.LASF63:
 3722 00a8 715F7761 		.ascii	"q_waiting\000"
 3722      6974696E 
 3722      6700
ARM GAS  C:\Users\z80\AppData\Local\Temp\ccNctp2I.s 			page 69


 3723              	.LASF12:
 3724 00b2 6C6F6E67 		.ascii	"long long int\000"
 3724      206C6F6E 
 3724      6720696E 
 3724      7400
 3725              	.LASF1:
 3726 00c0 7369676E 		.ascii	"signed char\000"
 3726      65642063 
 3726      68617200 
 3727              	.LASF75:
 3728 00cc 42535252 		.ascii	"BSRR\000"
 3728      00
 3729              	.LASF84:
 3730 00d1 47545052 		.ascii	"GTPR\000"
 3730      00
 3731              	.LASF89:
 3732 00d6 53445F53 		.ascii	"SD_STOP\000"
 3732      544F5000 
 3733              	.LASF16:
 3734 00de 626F6F6C 		.ascii	"bool_t\000"
 3734      5F7400
 3735              	.LASF48:
 3736 00e5 6D5F7175 		.ascii	"m_queue\000"
 3736      65756500 
 3737              	.LASF131:
 3738 00ed 433A5C70 		.ascii	"C:\\projects\\digitizer.git\\firmware\\digitizer\000"
 3738      726F6A65 
 3738      6374735C 
 3738      64696769 
 3738      74697A65 
 3739              	.LASF95:
 3740 011a 73746174 		.ascii	"state\000"
 3740      6500
 3741              	.LASF9:
 3742 0120 6C6F6E67 		.ascii	"long int\000"
 3742      20696E74 
 3742      00
 3743              	.LASF18:
 3744 0129 74737461 		.ascii	"tstate_t\000"
 3744      74655F74 
 3744      00
 3745              	.LASF65:
 3746 0132 715F6275 		.ascii	"q_buffer\000"
 3746      66666572 
 3746      00
 3747              	.LASF67:
 3748 013b 715F7772 		.ascii	"q_wrptr\000"
 3748      70747200 
 3749              	.LASF28:
 3750 0143 705F6E65 		.ascii	"p_newer\000"
 3750      77657200 
 3751              	.LASF102:
 3752 014b 70757477 		.ascii	"putwouldblock\000"
 3752      6F756C64 
 3752      626C6F63 
 3752      6B00
 3753              	.LASF77:
ARM GAS  C:\Users\z80\AppData\Local\Temp\ccNctp2I.s 			page 70


 3754 0159 4750494F 		.ascii	"GPIO_TypeDef\000"
 3754      5F547970 
 3754      65446566 
 3754      00
 3755              	.LASF43:
 3756 0166 72656761 		.ascii	"regarm_t\000"
 3756      726D5F74 
 3756      00
 3757              	.LASF55:
 3758 016f 4576656E 		.ascii	"EventSource\000"
 3758      74536F75 
 3758      72636500 
 3759              	.LASF119:
 3760 017b 76616C4C 		.ascii	"valL\000"
 3760      00
 3761              	.LASF98:
 3762 0180 75736172 		.ascii	"usart\000"
 3762      7400
 3763              	.LASF0:
 3764 0186 756E7369 		.ascii	"unsigned int\000"
 3764      676E6564 
 3764      20696E74 
 3764      00
 3765              	.LASF6:
 3766 0193 75696E74 		.ascii	"uint16_t\000"
 3766      31365F74 
 3766      00
 3767              	.LASF99:
 3768 019c 53657269 		.ascii	"SerialDriverVMT\000"
 3768      616C4472 
 3768      69766572 
 3768      564D5400 
 3769              	.LASF34:
 3770 01ac 705F7469 		.ascii	"p_time\000"
 3770      6D6500
 3771              	.LASF117:
 3772 01b3 68617264 		.ascii	"hardware_version\000"
 3772      77617265 
 3772      5F766572 
 3772      73696F6E 
 3772      00
 3773              	.LASF96:
 3774 01c4 69717565 		.ascii	"iqueue\000"
 3774      756500
 3775              	.LASF36:
 3776 01cb 705F6D73 		.ascii	"p_msgqueue\000"
 3776      67717565 
 3776      756500
 3777              	.LASF116:
 3778 01d6 73747269 		.ascii	"stri\000"
 3778      00
 3779              	.LASF76:
 3780 01db 4C434B52 		.ascii	"LCKR\000"
 3780      00
 3781              	.LASF109:
 3782 01e0 65786563 		.ascii	"exec_func\000"
 3782      5F66756E 
ARM GAS  C:\Users\z80\AppData\Local\Temp\ccNctp2I.s 			page 71


 3782      6300
 3783              	.LASF125:
 3784 01ea 6E6F4461 		.ascii	"noData\000"
 3784      746100
 3785              	.LASF93:
 3786 01f1 6576656E 		.ascii	"event\000"
 3786      7400
 3787              	.LASF7:
 3788 01f7 73686F72 		.ascii	"short unsigned int\000"
 3788      7420756E 
 3788      7369676E 
 3788      65642069 
 3788      6E7400
 3789              	.LASF20:
 3790 020a 6D73675F 		.ascii	"msg_t\000"
 3790      7400
 3791              	.LASF97:
 3792 0210 6F717565 		.ascii	"oqueue\000"
 3792      756500
 3793              	.LASF115:
 3794 0217 6669726D 		.ascii	"firmware_version\000"
 3794      77617265 
 3794      5F766572 
 3794      73696F6E 
 3794      00
 3795              	.LASF86:
 3796 0228 55534152 		.ascii	"USART_TypeDef\000"
 3796      545F5479 
 3796      70654465 
 3796      6600
 3797              	.LASF104:
 3798 0236 77726974 		.ascii	"writet\000"
 3798      657400
 3799              	.LASF17:
 3800 023d 746D6F64 		.ascii	"tmode_t\000"
 3800      655F7400 
 3801              	.LASF42:
 3802 0245 54687265 		.ascii	"ThreadsList\000"
 3802      6164734C 
 3802      69737400 
 3803              	.LASF21:
 3804 0251 6576656E 		.ascii	"eventmask_t\000"
 3804      746D6173 
 3804      6B5F7400 
 3805              	.LASF71:
 3806 025d 496E7075 		.ascii	"InputQueue\000"
 3806      74517565 
 3806      756500
 3807              	.LASF70:
 3808 0268 716E6F74 		.ascii	"qnotify_t\000"
 3808      6966795F 
 3808      7400
 3809              	.LASF130:
 3810 0272 2E2F7372 		.ascii	"./src/cpu_io.c\000"
 3810      632F6370 
 3810      755F696F 
 3810      2E6300
ARM GAS  C:\Users\z80\AppData\Local\Temp\ccNctp2I.s 			page 72


 3811              	.LASF62:
 3812 0281 47656E65 		.ascii	"GenericQueue\000"
 3812      72696351 
 3812      75657565 
 3812      00
 3813              	.LASF44:
 3814 028e 73746B61 		.ascii	"stkalign_t\000"
 3814      6C69676E 
 3814      5F7400
 3815              	.LASF100:
 3816 0299 77726974 		.ascii	"write\000"
 3816      6500
 3817              	.LASF64:
 3818 029f 715F636F 		.ascii	"q_counter\000"
 3818      756E7465 
 3818      7200
 3819              	.LASF47:
 3820 02a9 4D757465 		.ascii	"Mutex\000"
 3820      7800
 3821              	.LASF122:
 3822 02af 7365745F 		.ascii	"set_led\000"
 3822      6C656400 
 3823              	.LASF29:
 3824 02b7 705F6F6C 		.ascii	"p_older\000"
 3824      64657200 
 3825              	.LASF73:
 3826 02bf 696F666C 		.ascii	"ioflags_t\000"
 3826      6167735F 
 3826      7400
 3827              	.LASF41:
 3828 02c9 54687265 		.ascii	"ThreadsQueue\000"
 3828      61647351 
 3828      75657565 
 3828      00
 3829              	.LASF31:
 3830 02d6 705F7374 		.ascii	"p_stklimit\000"
 3830      6B6C696D 
 3830      697400
 3831              	.LASF54:
 3832 02e1 656C5F6D 		.ascii	"el_mask\000"
 3832      61736B00 
 3833              	.LASF120:
 3834 02e9 76616C48 		.ascii	"valH\000"
 3834      00
 3835              	.LASF78:
 3836 02ee 52455345 		.ascii	"RESERVED0\000"
 3836      52564544 
 3836      3000
 3837              	.LASF79:
 3838 02f8 52455345 		.ascii	"RESERVED1\000"
 3838      52564544 
 3838      3100
 3839              	.LASF80:
 3840 0302 52455345 		.ascii	"RESERVED2\000"
 3840      52564544 
 3840      3200
 3841              	.LASF81:
ARM GAS  C:\Users\z80\AppData\Local\Temp\ccNctp2I.s 			page 73


 3842 030c 52455345 		.ascii	"RESERVED3\000"
 3842      52564544 
 3842      3300
 3843              	.LASF82:
 3844 0316 52455345 		.ascii	"RESERVED4\000"
 3844      52564544 
 3844      3400
 3845              	.LASF25:
 3846 0320 705F7072 		.ascii	"p_prev\000"
 3846      657600
 3847              	.LASF121:
 3848 0327 7365745F 		.ascii	"set_dac1\000"
 3848      64616331 
 3848      00
 3849              	.LASF118:
 3850 0330 7365745F 		.ascii	"set_dac2\000"
 3850      64616332 
 3850      00
 3851              	.LASF108:
 3852 0339 66756E63 		.ascii	"funcs_sz\000"
 3852      735F737A 
 3852      00
 3853              	.LASF68:
 3854 0342 715F7264 		.ascii	"q_rdptr\000"
 3854      70747200 
 3855              	.LASF8:
 3856 034a 696E7433 		.ascii	"int32_t\000"
 3856      325F7400 
 3857              	.LASF4:
 3858 0352 756E7369 		.ascii	"unsigned char\000"
 3858      676E6564 
 3858      20636861 
 3858      7200
 3859              	.LASF53:
 3860 0360 656C5F6C 		.ascii	"el_listener\000"
 3860      69737465 
 3860      6E657200 
 3861              	.LASF32:
 3862 036c 705F7374 		.ascii	"p_state\000"
 3862      61746500 
 3863              	.LASF39:
 3864 0374 705F6D74 		.ascii	"p_mtxlist\000"
 3864      786C6973 
 3864      7400
 3865              	.LASF5:
 3866 037e 73686F72 		.ascii	"short int\000"
 3866      7420696E 
 3866      7400
 3867              	.LASF110:
 3868 0388 70726F63 		.ascii	"process_command\000"
 3868      6573735F 
 3868      636F6D6D 
 3868      616E6400 
 3869              	.LASF60:
 3870 0398 65776D61 		.ascii	"ewmask\000"
 3870      736B00
 3871              	.LASF24:
ARM GAS  C:\Users\z80\AppData\Local\Temp\ccNctp2I.s 			page 74


 3872 039f 705F6E65 		.ascii	"p_next\000"
 3872      787400
 3873              	.LASF33:
 3874 03a6 705F666C 		.ascii	"p_flags\000"
 3874      61677300 
 3875              	.LASF52:
 3876 03ae 656C5F6E 		.ascii	"el_next\000"
 3876      65787400 
 3877              	.LASF23:
 3878 03b6 54687265 		.ascii	"Thread\000"
 3878      616400
 3879              	.LASF38:
 3880 03bd 705F6570 		.ascii	"p_epending\000"
 3880      656E6469 
 3880      6E6700
 3881              	.LASF88:
 3882 03c8 53445F55 		.ascii	"SD_UNINIT\000"
 3882      4E494E49 
 3882      5400
 3883              	.LASF83:
 3884 03d2 52455345 		.ascii	"RESERVED5\000"
 3884      52564544 
 3884      3500
 3885              	.LASF85:
 3886 03dc 52455345 		.ascii	"RESERVED6\000"
 3886      52564544 
 3886      3600
 3887              	.LASF10:
 3888 03e6 75696E74 		.ascii	"uint32_t\000"
 3888      33325F74 
 3888      00
 3889              	.LASF91:
 3890 03ef 73647374 		.ascii	"sdstate_t\000"
 3890      6174655F 
 3890      7400
 3891              	.LASF92:
 3892 03f9 53657269 		.ascii	"SerialDriver\000"
 3892      616C4472 
 3892      69766572 
 3892      00
 3893              	.LASF11:
 3894 0406 6C6F6E67 		.ascii	"long unsigned int\000"
 3894      20756E73 
 3894      69676E65 
 3894      6420696E 
 3894      7400
 3895              	.LASF101:
 3896 0418 72656164 		.ascii	"read\000"
 3896      00
 3897              	.LASF61:
 3898 041d 63686172 		.ascii	"char\000"
 3898      00
 3899              	.LASF112:
 3900 0422 77726974 		.ascii	"writeResult\000"
 3900      65526573 
 3900      756C7400 
 3901              	.LASF134:
ARM GAS  C:\Users\z80\AppData\Local\Temp\ccNctp2I.s 			page 75


 3902 042e 70726F63 		.ascii	"processCpuIo\000"
 3902      65737343 
 3902      7075496F 
 3902      00
 3903              	.LASF50:
 3904 043b 6D5F6E65 		.ascii	"m_next\000"
 3904      787400
 3905              	.LASF22:
 3906 0442 73797374 		.ascii	"systime_t\000"
 3906      696D655F 
 3906      7400
 3907              	.LASF40:
 3908 044c 705F7265 		.ascii	"p_realprio\000"
 3908      616C7072 
 3908      696F00
 3909              	.LASF127:
 3910 0457 62756666 		.ascii	"buffer\000"
 3910      657200
 3911              	.LASF111:
 3912 045e 64617461 		.ascii	"data\000"
 3912      00
 3913              	.LASF106:
 3914 0463 67657466 		.ascii	"getflags\000"
 3914      6C616773 
 3914      00
 3915              	.LASF46:
 3916 046c 636F6E74 		.ascii	"context\000"
 3916      65787400 
 3917              	.LASF45:
 3918 0474 696E7463 		.ascii	"intctx\000"
 3918      747800
 3919              	.LASF90:
 3920 047b 53445F52 		.ascii	"SD_READY\000"
 3920      45414459 
 3920      00
 3921              	.LASF133:
 3922 0484 696E6974 		.ascii	"initCpuIo\000"
 3922      43707549 
 3922      6F00
 3923              	.LASF66:
 3924 048e 715F746F 		.ascii	"q_top\000"
 3924      7000
 3925              	.LASF30:
 3926 0494 705F6E61 		.ascii	"p_name\000"
 3926      6D6500
 3927              	.LASF56:
 3928 049b 65735F6E 		.ascii	"es_next\000"
 3928      65787400 
 3929              	.LASF69:
 3930 04a3 715F6E6F 		.ascii	"q_notify\000"
 3930      74696679 
 3930      00
 3931              	.LASF37:
 3932 04ac 705F6D73 		.ascii	"p_msg\000"
 3932      6700
 3933              	.LASF113:
 3934 04b2 6765745F 		.ascii	"get_adc\000"
ARM GAS  C:\Users\z80\AppData\Local\Temp\ccNctp2I.s 			page 76


 3934      61646300 
 3935              	.LASF3:
 3936 04ba 75696E74 		.ascii	"uint8_t\000"
 3936      385F7400 
 3937              	.LASF107:
 3938 04c2 66756E63 		.ascii	"func_index\000"
 3938      5F696E64 
 3938      657800
 3939              	.LASF94:
 3940 04cd 666C6167 		.ascii	"flags\000"
 3940      7300
 3941              	.LASF51:
 3942 04d3 4576656E 		.ascii	"EventListener\000"
 3942      744C6973 
 3942      74656E65 
 3942      7200
 3943              	.LASF129:
 3944 04e1 474E5520 		.ascii	"GNU C 4.5.0\000"
 3944      4320342E 
 3944      352E3000 
 3945              	.LASF59:
 3946 04ed 77746F62 		.ascii	"wtobjp\000"
 3946      6A7000
 3947              	.LASF123:
 3948 04f4 736C6173 		.ascii	"slash\000"
 3948      6800
 3949              	.LASF103:
 3950 04fa 67657477 		.ascii	"getwouldblock\000"
 3950      6F756C64 
 3950      626C6F63 
 3950      6B00
 3951              	.LASF114:
 3952 0508 61726773 		.ascii	"args\000"
 3952      00
 3953              	.LASF49:
 3954 050d 6D5F6F77 		.ascii	"m_owner\000"
 3954      6E657200 
 3955              	.LASF27:
 3956 0515 705F6374 		.ascii	"p_ctx\000"
 3956      7800
 3957              	.LASF35:
 3958 051b 705F7761 		.ascii	"p_waiting\000"
 3958      6974696E 
 3958      6700
 3959              		.ident	"GCC: (GNU) 4.5.0"
ARM GAS  C:\Users\z80\AppData\Local\Temp\ccNctp2I.s 			page 77


DEFINED SYMBOLS
                            *ABS*:00000000 cpu_io.c
C:\Users\z80\AppData\Local\Temp\ccNctp2I.s:24     .text.writeResult:00000000 $t
C:\Users\z80\AppData\Local\Temp\ccNctp2I.s:29     .text.writeResult:00000000 writeResult
C:\Users\z80\AppData\Local\Temp\ccNctp2I.s:71     .text.writeResult:00000030 $d
C:\Users\z80\AppData\Local\Temp\ccNctp2I.s:76     .text.writeEom:00000000 $t
C:\Users\z80\AppData\Local\Temp\ccNctp2I.s:81     .text.writeEom:00000000 writeEom
C:\Users\z80\AppData\Local\Temp\ccNctp2I.s:102    .text.writeEom:00000010 $d
C:\Users\z80\AppData\Local\Temp\ccNctp2I.s:107    .text.get_adc:00000000 $t
C:\Users\z80\AppData\Local\Temp\ccNctp2I.s:112    .text.get_adc:00000000 get_adc
C:\Users\z80\AppData\Local\Temp\ccNctp2I.s:171    .text.firmware_version:00000000 $t
C:\Users\z80\AppData\Local\Temp\ccNctp2I.s:176    .text.firmware_version:00000000 firmware_version
C:\Users\z80\AppData\Local\Temp\ccNctp2I.s:221    .text.firmware_version:0000002c $d
C:\Users\z80\AppData\Local\Temp\ccNctp2I.s:226    .text.hardware_version:00000000 $t
C:\Users\z80\AppData\Local\Temp\ccNctp2I.s:231    .text.hardware_version:00000000 hardware_version
C:\Users\z80\AppData\Local\Temp\ccNctp2I.s:275    .text.hardware_version:0000002c $d
C:\Users\z80\AppData\Local\Temp\ccNctp2I.s:280    .text.set_dac2:00000000 $t
C:\Users\z80\AppData\Local\Temp\ccNctp2I.s:285    .text.set_dac2:00000000 set_dac2
C:\Users\z80\AppData\Local\Temp\ccNctp2I.s:317    .text.set_dac1:00000000 $t
C:\Users\z80\AppData\Local\Temp\ccNctp2I.s:322    .text.set_dac1:00000000 set_dac1
C:\Users\z80\AppData\Local\Temp\ccNctp2I.s:354    .text.set_led:00000000 $t
C:\Users\z80\AppData\Local\Temp\ccNctp2I.s:359    .text.set_led:00000000 set_led
C:\Users\z80\AppData\Local\Temp\ccNctp2I.s:381    .text.initCpuIo:00000000 $t
C:\Users\z80\AppData\Local\Temp\ccNctp2I.s:387    .text.initCpuIo:00000000 initCpuIo
C:\Users\z80\AppData\Local\Temp\ccNctp2I.s:425    .text.processCpuIo:00000000 $t
C:\Users\z80\AppData\Local\Temp\ccNctp2I.s:431    .text.processCpuIo:00000000 processCpuIo
C:\Users\z80\AppData\Local\Temp\ccNctp2I.s:616    .text.processCpuIo:000000a8 $d
C:\Users\z80\AppData\Local\Temp\ccNctp2I.s:632    .text.funcArgs:00000000 $t
C:\Users\z80\AppData\Local\Temp\ccNctp2I.s:638    .text.funcArgs:00000000 funcArgs
C:\Users\z80\AppData\Local\Temp\ccNctp2I.s:688    .bss.args:00000000 .LANCHOR3
C:\Users\z80\AppData\Local\Temp\ccNctp2I.s:654    .bss.out_index.3767:00000000 $d
C:\Users\z80\AppData\Local\Temp\ccNctp2I.s:658    .bss.out_index.3767:00000000 out_index.3767
C:\Users\z80\AppData\Local\Temp\ccNctp2I.s:661    .rodata.funcs:00000000 $d
C:\Users\z80\AppData\Local\Temp\ccNctp2I.s:665    .rodata.funcs:00000000 funcs
C:\Users\z80\AppData\Local\Temp\ccNctp2I.s:673    .bss.buffer:00000000 $d
C:\Users\z80\AppData\Local\Temp\ccNctp2I.s:677    .bss.buffer:00000000 buffer
C:\Users\z80\AppData\Local\Temp\ccNctp2I.s:680    .rodata.str1.4:00000000 $d
C:\Users\z80\AppData\Local\Temp\ccNctp2I.s:687    .bss.args:00000000 $d
C:\Users\z80\AppData\Local\Temp\ccNctp2I.s:691    .bss.args:00000000 args
C:\Users\z80\AppData\Local\Temp\ccNctp2I.s:697    .bss.slash.3766:00000000 slash.3766
C:\Users\z80\AppData\Local\Temp\ccNctp2I.s:698    .bss.slash.3766:00000000 $d
                     .debug_frame:00000010 $d
C:\Users\z80\AppData\Local\Temp\ccNctp2I.s:75     .text.writeResult:00000034 $t
C:\Users\z80\AppData\Local\Temp\ccNctp2I.s:106    .text.writeEom:00000014 $t
C:\Users\z80\AppData\Local\Temp\ccNctp2I.s:631    .text.processCpuIo:000000c4 $t

UNDEFINED SYMBOLS
chOQPutTimeout
SD1
instantAdc
setDac2
setDac1
setLeds
sdStart
_pal_lld_setgroupmode
chIQGetTimeout
