ARM GAS  C:\Users\z80\AppData\Local\Temp\ccSx45O2.s 			page 1


   1              		.syntax unified
   2              		.cpu cortex-m3
   3              		.fpu softvfp
   4              		.eabi_attribute 20, 1
   5              		.eabi_attribute 21, 1
   6              		.eabi_attribute 23, 3
   7              		.eabi_attribute 24, 1
   8              		.eabi_attribute 25, 1
   9              		.eabi_attribute 26, 1
  10              		.eabi_attribute 30, 2
  11              		.eabi_attribute 18, 4
  12              		.thumb
  13              		.file	"cpu_io.c"
  20 0000 88040000 		.text
  20      02009702 
  20      00000201 
  20      FB0E0D00 
  20      01010101 
  21              	.Ltext0:
  22              		.cfi_sections	.debug_frame
  23              		.section	.text.sweep_dac1,"ax",%progbits
  24              		.align	2
  25              		.p2align 4,,15
  26              		.thumb
  27              		.thumb_func
  28              		.type	sweep_dac1, %function
  29              	sweep_dac1:
  30              	.LFB76:
  31              		.file 1 "./src/cpu_io.c"
  32              		.loc 1 268 0
  33              		.cfi_startproc
  34              		@ args = 0, pretend = 0, frame = 0
  35              		@ frame_needed = 0, uses_anonymous_args = 0
  36              		@ link register save eliminated.
  37              	.LVL0:
  38              		.loc 1 270 0
  39 0000 7047     		bx	lr
  40              		.cfi_endproc
  41              	.LFE76:
  42              		.size	sweep_dac1, .-sweep_dac1
  43 0002 00BFAFF3 		.section	.text.sweep_dac2,"ax",%progbits
  43      0080AFF3 
  43      0080AFF3 
  43      0080
  44              		.align	2
  45              		.p2align 4,,15
  46              		.thumb
  47              		.thumb_func
  48              		.type	sweep_dac2, %function
  49              	sweep_dac2:
  50              	.LFB77:
ARM GAS  C:\Users\z80\AppData\Local\Temp\ccSx45O2.s 			page 2


  51              		.loc 1 273 0
  52              		.cfi_startproc
  53              		@ args = 0, pretend = 0, frame = 0
  54              		@ frame_needed = 0, uses_anonymous_args = 0
  55              		@ link register save eliminated.
  56              	.LVL1:
  57              		.loc 1 275 0
  58 0000 7047     		bx	lr
  59              		.cfi_endproc
  60              	.LFE77:
  61              		.size	sweep_dac2, .-sweep_dac2
  62 0002 00BFAFF3 		.section	.text.sweep_both,"ax",%progbits
  62      0080AFF3 
  62      0080AFF3 
  62      0080
  63              		.align	2
  64              		.p2align 4,,15
  65              		.thumb
  66              		.thumb_func
  67              		.type	sweep_both, %function
  68              	sweep_both:
  69              	.LFB78:
  70              		.loc 1 278 0
  71              		.cfi_startproc
  72              		@ args = 0, pretend = 0, frame = 0
  73              		@ frame_needed = 0, uses_anonymous_args = 0
  74              		@ link register save eliminated.
  75              	.LVL2:
  76              		.loc 1 280 0
  77 0000 7047     		bx	lr
  78              		.cfi_endproc
  79              	.LFE78:
  80              		.size	sweep_both, .-sweep_both
  81 0002 00BFAFF3 		.section	.text.writeResult,"ax",%progbits
  81      0080AFF3 
  81      0080AFF3 
  81      0080
  82              		.align	2
  83              		.p2align 4,,15
  84              		.thumb
  85              		.thumb_func
  86              		.type	writeResult, %function
  87              	writeResult:
  88              	.LFB79:
  89              		.loc 1 291 0
  90              		.cfi_startproc
  91              		@ args = 0, pretend = 0, frame = 0
  92              		@ frame_needed = 0, uses_anonymous_args = 0
  93              	.LVL3:
  94              		.loc 1 292 0
  95 0000 D0F10103 		rsbs	r3, r0, #1
  96 0004 38BF     		it	cc
  97 0006 0023     		movcc	r3, #0
  98 0008 5C28     		cmp	r0, #92
  99 000a 08BF     		it	eq
 100 000c 43F00103 		orreq	r3, r3, #1
 101              		.loc 1 291 0
ARM GAS  C:\Users\z80\AppData\Local\Temp\ccSx45O2.s 			page 3


 102 0010 10B5     		push	{r4, lr}
 103              	.LCFI0:
 104              		.cfi_def_cfa_offset 8
 105              		.loc 1 291 0
 106 0012 0446     		mov	r4, r0
 107              		.cfi_offset 14, -4
 108              		.cfi_offset 4, -8
 109              		.loc 1 292 0
 110 0014 2BB1     		cbz	r3, .L5
 111              		.loc 1 293 0
 112 0016 0648     		ldr	r0, .L7
 113              	.LVL4:
 114 0018 5C21     		movs	r1, #92
 115 001a 4FF0FF32 		mov	r2, #-1
 116 001e FFF7FEFF 		bl	chOQPutTimeout
 117              	.L5:
 118              		.loc 1 294 0
 119 0022 2146     		mov	r1, r4
 120 0024 4FF0FF32 		mov	r2, #-1
 121 0028 0148     		ldr	r0, .L7
 122 002a FFF7FEFF 		bl	chOQPutTimeout
 123              		.loc 1 295 0
 124 002e 10BD     		pop	{r4, pc}
 125              	.L8:
 126              		.align	2
 127              	.L7:
 128 0030 30000000 		.word	SD1+48
 129              		.cfi_endproc
 130              	.LFE79:
 131              		.size	writeResult, .-writeResult
 132 0034 AFF30080 		.section	.text.writeEom,"ax",%progbits
 132      AFF30080 
 132      AFF30080 
 133              		.align	2
 134              		.p2align 4,,15
 135              		.thumb
 136              		.thumb_func
 137              		.type	writeEom, %function
 138              	writeEom:
 139              	.LFB80:
 140              		.loc 1 298 0
 141              		.cfi_startproc
 142              		@ args = 0, pretend = 0, frame = 0
 143              		@ frame_needed = 0, uses_anonymous_args = 0
 144 0000 08B5     		push	{r3, lr}
 145              	.LCFI1:
 146              		.cfi_def_cfa_offset 8
 147              		.loc 1 299 0
 148 0002 0021     		movs	r1, #0
 149 0004 4FF0FF32 		mov	r2, #-1
 150 0008 0148     		ldr	r0, .L10
 151              		.cfi_offset 14, -4
 152              		.cfi_offset 3, -8
 153 000a FFF7FEFF 		bl	chOQPutTimeout
 154              		.loc 1 300 0
 155 000e 08BD     		pop	{r3, pc}
 156              	.L11:
ARM GAS  C:\Users\z80\AppData\Local\Temp\ccSx45O2.s 			page 4


 157              		.align	2
 158              	.L10:
 159 0010 30000000 		.word	SD1+48
 160              		.cfi_endproc
 161              	.LFE80:
 162              		.size	writeEom, .-writeEom
 163 0014 AFF30080 		.section	.text.get_osc_data,"ax",%progbits
 163      AFF30080 
 163      AFF30080 
 164              		.align	2
 165              		.p2align 4,,15
 166              		.thumb
 167              		.thumb_func
 168              		.type	get_osc_data, %function
 169              	get_osc_data:
 170              	.LFB75:
 171              		.loc 1 247 0
 172              		.cfi_startproc
 173              		@ args = 0, pretend = 0, frame = 0
 174              		@ frame_needed = 0, uses_anonymous_args = 0
 175              	.LVL5:
 176 0000 70B5     		push	{r4, r5, r6, lr}
 177              	.LCFI2:
 178              		.cfi_def_cfa_offset 16
 179              		.loc 1 252 0
 180              		.cfi_offset 14, -4
 181              		.cfi_offset 6, -8
 182              		.cfi_offset 5, -12
 183              		.cfi_offset 4, -16
 184 0002 FFF7FEFF 		bl	adcQueue
 185              	.LVL6:
 186              	.LBB9:
 187              		.loc 1 253 0
 188 0006 2023     		movs	r3, #32
 189              	.LVL7:
 190              	.LBE9:
 191              		.loc 1 252 0
 192 0008 0446     		mov	r4, r0
 193              	.LVL8:
 194              	.LBB10:
 195              		.loc 1 253 0
 196              	@ 253 "./src/cpu_io.c" 1
 197 000a 83F31188 		msr     BASEPRI, r3
 198              	@ 0 "" 2
 199              	.LVL9:
 200              		.thumb
 201              	.LBE10:
 202 000e FFF7FEFF 		bl	dbg_check_lock
 203              	.LVL10:
 204              		.loc 1 254 0
 205 0012 A568     		ldr	r5, [r4, #8]
 206 0014 4AF6AB23 		movw	r3, #43691
 207 0018 CAF6AA23 		movt	r3, 43690
 208 001c A3FB0525 		umull	r2, r5, r3, r5
 209              		.loc 1 255 0
 210 0020 FFF7FEFF 		bl	dbg_check_unlock
 211              		.loc 1 254 0
ARM GAS  C:\Users\z80\AppData\Local\Temp\ccSx45O2.s 			page 5


 212 0024 ED08     		lsrs	r5, r5, #3
 213              	.LVL11:
 214              	.LBB11:
 215              		.loc 1 255 0
 216 0026 0023     		movs	r3, #0
 217              	.LVL12:
 218              	@ 255 "./src/cpu_io.c" 1
 219 0028 83F31188 		msr     BASEPRI, r3
 220              	@ 0 "" 2
 221              	.LVL13:
 222              		.thumb
 223              	.LBE11:
 224              		.loc 1 256 0
 225 002c 75B1     		cbz	r5, .L13
 226 002e 1E46     		mov	r6, r3
 227              	.LVL14:
 228              	.L15:
 229              	.LBB12:
 230              		.loc 1 258 0
 231 0030 0021     		movs	r1, #0
 232 0032 2046     		mov	r0, r4
 233 0034 FFF7FEFF 		bl	chIQGetTimeout
 234              	.LVL15:
 235              		.loc 1 259 0
 236 0038 831C     		adds	r3, r0, #2
 237              		.loc 1 261 0
 238 003a 012B     		cmp	r3, #1
 239 003c 8CBF     		ite	hi
 240 003e C0B2     		uxtbhi	r0, r0
 241              	.LVL16:
 242 0040 0020     		movls	r0, #0
 243              	.LVL17:
 244              	.LBE12:
 245              		.loc 1 256 0
 246 0042 0136     		adds	r6, r6, #1
 247              	.LBB13:
 248              		.loc 1 262 0
 249 0044 FFF7FEFF 		bl	writeResult
 250              	.LVL18:
 251              	.LBE13:
 252              		.loc 1 256 0
 253 0048 B542     		cmp	r5, r6
 254 004a F1D8     		bhi	.L15
 255              	.LVL19:
 256              	.L13:
 257              		.loc 1 264 0
 258 004c FFF7FEFF 		bl	writeEom
 259              	.LVL20:
 260              		.loc 1 265 0
 261 0050 70BD     		pop	{r4, r5, r6, pc}
 262              		.cfi_endproc
 263              	.LFE75:
 264              		.size	get_osc_data, .-get_osc_data
 265 0052 00BFAFF3 		.section	.text.firmware_version,"ax",%progbits
 265      0080AFF3 
 265      0080AFF3 
 265      0080
ARM GAS  C:\Users\z80\AppData\Local\Temp\ccSx45O2.s 			page 6


 266              		.align	2
 267              		.p2align 4,,15
 268              		.thumb
 269              		.thumb_func
 270              		.type	firmware_version, %function
 271              	firmware_version:
 272              	.LFB68:
 273              		.loc 1 180 0
 274              		.cfi_startproc
 275              		@ args = 0, pretend = 0, frame = 8
 276              		@ frame_needed = 0, uses_anonymous_args = 0
 277              	.LVL21:
 278 0000 30B5     		push	{r4, r5, lr}
 279              	.LCFI3:
 280              		.cfi_def_cfa_offset 12
 281              		.loc 1 182 0
 282 0002 0A4B     		ldr	r3, .L21
 283              		.loc 1 180 0
 284 0004 83B0     		sub	sp, sp, #12
 285              	.LCFI4:
 286              		.cfi_def_cfa_offset 24
 287              		.loc 1 182 0
 288 0006 02AD     		add	r5, sp, #8
 289              		.cfi_offset 14, -4
 290              		.cfi_offset 5, -8
 291              		.cfi_offset 4, -12
 292 0008 93E80300 		ldmia	r3, {r0, r1}
 293              	.LVL22:
 294 000c 45F8080D 		str	r0, [r5, #-8]!
 295 0010 6C1E     		subs	r4, r5, #1
 296 0012 ADF80410 		strh	r1, [sp, #4]	@ movhi
 297              	.LVL23:
 298              		.loc 1 179 0
 299 0016 0435     		adds	r5, r5, #4
 300              	.LVL24:
 301              	.L19:
 302              		.loc 1 186 0 discriminator 2
 303 0018 14F8010F 		ldrb	r0, [r4, #1]!	@ zero_extendqisi2
 304 001c FFF7FEFF 		bl	writeResult
 305              		.loc 1 185 0 discriminator 2
 306 0020 AC42     		cmp	r4, r5
 307 0022 F9D1     		bne	.L19
 308              		.loc 1 187 0
 309 0024 FFF7FEFF 		bl	writeEom
 310              		.loc 1 188 0
 311 0028 03B0     		add	sp, sp, #12
 312 002a 30BD     		pop	{r4, r5, pc}
 313              	.L22:
 314              		.align	2
 315              	.L21:
 316 002c 00000000 		.word	.LC0
 317              		.cfi_endproc
 318              	.LFE68:
 319              		.size	firmware_version, .-firmware_version
 320              		.section	.text.hardware_version,"ax",%progbits
 321              		.align	2
 322              		.p2align 4,,15
ARM GAS  C:\Users\z80\AppData\Local\Temp\ccSx45O2.s 			page 7


 323              		.thumb
 324              		.thumb_func
 325              		.type	hardware_version, %function
 326              	hardware_version:
 327              	.LFB67:
 328              		.loc 1 169 0
 329              		.cfi_startproc
 330              		@ args = 0, pretend = 0, frame = 16
 331              		@ frame_needed = 0, uses_anonymous_args = 0
 332              	.LVL25:
 333 0000 30B5     		push	{r4, r5, lr}
 334              	.LCFI5:
 335              		.cfi_def_cfa_offset 12
 336              		.loc 1 171 0
 337 0002 0A4B     		ldr	r3, .L26
 338              		.loc 1 169 0
 339 0004 85B0     		sub	sp, sp, #20
 340              	.LCFI6:
 341              		.cfi_def_cfa_offset 32
 342              		.loc 1 171 0
 343 0006 EC46     		mov	ip, sp
 344 0008 0FCB     		ldmia	r3, {r0, r1, r2, r3}
 345              	.LVL26:
 346 000a 8CE80F00 		stmia	ip, {r0, r1, r2, r3}
 347              	.LVL27:
 348 000e 0DF1FF34 		add	r4, sp, #-1
 349              		.cfi_offset 14, -4
 350              		.cfi_offset 5, -8
 351              		.cfi_offset 4, -12
 352              		.loc 1 168 0
 353 0012 0DF10E05 		add	r5, sp, #14
 354              	.LVL28:
 355              	.L24:
 356              		.loc 1 175 0 discriminator 2
 357 0016 14F8010F 		ldrb	r0, [r4, #1]!	@ zero_extendqisi2
 358 001a FFF7FEFF 		bl	writeResult
 359              		.loc 1 174 0 discriminator 2
 360 001e AC42     		cmp	r4, r5
 361 0020 F9D1     		bne	.L24
 362              		.loc 1 176 0
 363 0022 FFF7FEFF 		bl	writeEom
 364              		.loc 1 177 0
 365 0026 05B0     		add	sp, sp, #20
 366 0028 30BD     		pop	{r4, r5, pc}
 367              	.L27:
 368 002a 00BF     		.align	2
 369              	.L26:
 370 002c 08000000 		.word	.LC1
 371              		.cfi_endproc
 372              	.LFE67:
 373              		.size	hardware_version, .-hardware_version
 374              		.section	.text.set_osc_period,"ax",%progbits
 375              		.align	2
 376              		.p2align 4,,15
 377              		.thumb
 378              		.thumb_func
 379              		.type	set_osc_period, %function
ARM GAS  C:\Users\z80\AppData\Local\Temp\ccSx45O2.s 			page 8


 380              	set_osc_period:
 381              	.LFB74:
 382              		.loc 1 237 0
 383              		.cfi_startproc
 384              		@ args = 0, pretend = 0, frame = 0
 385              		@ frame_needed = 0, uses_anonymous_args = 0
 386              	.LVL29:
 387 0000 08B5     		push	{r3, lr}
 388              	.LCFI7:
 389              		.cfi_def_cfa_offset 8
 390              		.loc 1 240 0
 391 0002 4378     		ldrb	r3, [r0, #1]	@ zero_extendqisi2
 392              		.cfi_offset 14, -4
 393              		.cfi_offset 3, -8
 394              		.loc 1 239 0
 395 0004 0278     		ldrb	r2, [r0, #0]	@ zero_extendqisi2
 396              	.LVL30:
 397              		.loc 1 241 0
 398 0006 1804     		lsls	r0, r3, #16
 399              	.LVL31:
 400              		.loc 1 240 0
 401 0008 00EB0320 		add	r0, r0, r3, lsl #8
 402              		.loc 1 241 0
 403 000c 8018     		adds	r0, r0, r2
 404              	.LVL32:
 405              		.loc 1 242 0
 406 000e 00EB0360 		add	r0, r0, r3, lsl #24
 407              	.LVL33:
 408              		.loc 1 243 0
 409 0012 FFF7FEFF 		bl	setOscPeriod
 410              		.loc 1 244 0
 411 0016 08BD     		pop	{r3, pc}
 412              		.cfi_endproc
 413              	.LFE74:
 414              		.size	set_osc_period, .-set_osc_period
 415 0018 AFF30080 		.section	.text.set_osc_signals,"ax",%progbits
 415      AFF30080 
 416              		.align	2
 417              		.p2align 4,,15
 418              		.thumb
 419              		.thumb_func
 420              		.type	set_osc_signals, %function
 421              	set_osc_signals:
 422              	.LFB73:
 423              		.loc 1 231 0
 424              		.cfi_startproc
 425              		@ args = 0, pretend = 0, frame = 0
 426              		@ frame_needed = 0, uses_anonymous_args = 0
 427              	.LVL34:
 428 0000 08B5     		push	{r3, lr}
 429              	.LCFI8:
 430              		.cfi_def_cfa_offset 8
 431              		.loc 1 233 0
 432 0002 0078     		ldrb	r0, [r0, #0]	@ zero_extendqisi2
 433              	.LVL35:
 434              		.cfi_offset 14, -4
 435              		.cfi_offset 3, -8
ARM GAS  C:\Users\z80\AppData\Local\Temp\ccSx45O2.s 			page 9


 436 0004 FFF7FEFF 		bl	setOscSignals
 437              		.loc 1 234 0
 438 0008 08BD     		pop	{r3, pc}
 439              		.cfi_endproc
 440              	.LFE73:
 441              		.size	set_osc_signals, .-set_osc_signals
 442 000a 00BFAFF3 		.section	.text.get_adc,"ax",%progbits
 442      0080
 443              		.align	2
 444              		.p2align 4,,15
 445              		.thumb
 446              		.thumb_func
 447              		.type	get_adc, %function
 448              	get_adc:
 449              	.LFB72:
 450              		.loc 1 211 0
 451              		.cfi_startproc
 452              		@ args = 0, pretend = 0, frame = 16
 453              		@ frame_needed = 0, uses_anonymous_args = 0
 454              	.LVL36:
 455 0000 30B5     		push	{r4, r5, lr}
 456              	.LCFI9:
 457              		.cfi_def_cfa_offset 12
 458 0002 85B0     		sub	sp, sp, #20
 459              	.LCFI10:
 460              		.cfi_def_cfa_offset 32
 461              		.loc 1 214 0
 462 0004 6846     		mov	r0, sp
 463              	.LVL37:
 464              		.cfi_offset 14, -4
 465              		.cfi_offset 5, -8
 466              		.cfi_offset 4, -12
 467 0006 FFF7FEFF 		bl	instantAdc
 468              	.LVL38:
 469 000a 6D46     		mov	r5, sp
 470 000c 0024     		movs	r4, #0
 471              	.LVL39:
 472              	.L31:
 473              	.LBB14:
 474              		.loc 1 219 0 discriminator 2
 475 000e 285D     		ldrb	r0, [r5, r4]	@ zero_extendqisi2
 476 0010 FFF7FEFF 		bl	writeResult
 477              	.LVL40:
 478              		.loc 1 220 0 discriminator 2
 479 0014 2859     		ldr	r0, [r5, r4]
 480              		.loc 1 221 0 discriminator 2
 481 0016 C0F30720 		ubfx	r0, r0, #8, #8
 482 001a FFF7FEFF 		bl	writeResult
 483              		.loc 1 222 0 discriminator 2
 484 001e 2859     		ldr	r0, [r5, r4]
 485              		.loc 1 223 0 discriminator 2
 486 0020 C0F30740 		ubfx	r0, r0, #16, #8
 487 0024 FFF7FEFF 		bl	writeResult
 488              		.loc 1 224 0 discriminator 2
 489 0028 2859     		ldr	r0, [r5, r4]
 490              		.loc 1 225 0 discriminator 2
 491 002a 0434     		adds	r4, r4, #4
ARM GAS  C:\Users\z80\AppData\Local\Temp\ccSx45O2.s 			page 10


 492 002c 000E     		lsrs	r0, r0, #24
 493 002e FFF7FEFF 		bl	writeResult
 494              	.LBE14:
 495              		.loc 1 216 0 discriminator 2
 496 0032 102C     		cmp	r4, #16
 497 0034 EBD1     		bne	.L31
 498              		.loc 1 227 0
 499 0036 FFF7FEFF 		bl	writeEom
 500              		.loc 1 228 0
 501 003a 05B0     		add	sp, sp, #20
 502 003c 30BD     		pop	{r4, r5, pc}
 503              		.cfi_endproc
 504              	.LFE72:
 505              		.size	get_adc, .-get_adc
 506 003e 00BF     		.section	.text.set_dac2,"ax",%progbits
 507              		.align	2
 508              		.p2align 4,,15
 509              		.thumb
 510              		.thumb_func
 511              		.type	set_dac2, %function
 512              	set_dac2:
 513              	.LFB71:
 514              		.loc 1 204 0
 515              		.cfi_startproc
 516              		@ args = 0, pretend = 0, frame = 0
 517              		@ frame_needed = 0, uses_anonymous_args = 0
 518              	.LVL41:
 519 0000 08B5     		push	{r3, lr}
 520              	.LCFI11:
 521              		.cfi_def_cfa_offset 8
 522              		.loc 1 206 0
 523 0002 8378     		ldrb	r3, [r0, #2]	@ zero_extendqisi2
 524              		.cfi_offset 14, -4
 525              		.cfi_offset 3, -8
 526              		.loc 1 205 0
 527 0004 90F801C0 		ldrb	ip, [r0, #1]	@ zero_extendqisi2
 528 0008 0278     		ldrb	r2, [r0, #0]	@ zero_extendqisi2
 529              		.loc 1 206 0
 530 000a C178     		ldrb	r1, [r0, #3]	@ zero_extendqisi2
 531              		.loc 1 205 0
 532 000c 02EB0C20 		add	r0, r2, ip, lsl #8
 533              	.LVL42:
 534              		.loc 1 206 0
 535 0010 03EB0121 		add	r1, r3, r1, lsl #8
 536              		.loc 1 207 0
 537 0014 FFF7FEFF 		bl	setDac2
 538              		.loc 1 208 0
 539 0018 08BD     		pop	{r3, pc}
 540              		.cfi_endproc
 541              	.LFE71:
 542              		.size	set_dac2, .-set_dac2
 543 001a 00BFAFF3 		.section	.text.set_dac1,"ax",%progbits
 543      0080
 544              		.align	2
 545              		.p2align 4,,15
 546              		.thumb
 547              		.thumb_func
ARM GAS  C:\Users\z80\AppData\Local\Temp\ccSx45O2.s 			page 11


 548              		.type	set_dac1, %function
 549              	set_dac1:
 550              	.LFB70:
 551              		.loc 1 197 0
 552              		.cfi_startproc
 553              		@ args = 0, pretend = 0, frame = 0
 554              		@ frame_needed = 0, uses_anonymous_args = 0
 555              	.LVL43:
 556 0000 08B5     		push	{r3, lr}
 557              	.LCFI12:
 558              		.cfi_def_cfa_offset 8
 559              		.loc 1 199 0
 560 0002 8378     		ldrb	r3, [r0, #2]	@ zero_extendqisi2
 561              		.cfi_offset 14, -4
 562              		.cfi_offset 3, -8
 563              		.loc 1 198 0
 564 0004 90F801C0 		ldrb	ip, [r0, #1]	@ zero_extendqisi2
 565 0008 0278     		ldrb	r2, [r0, #0]	@ zero_extendqisi2
 566              		.loc 1 199 0
 567 000a C178     		ldrb	r1, [r0, #3]	@ zero_extendqisi2
 568              		.loc 1 198 0
 569 000c 02EB0C20 		add	r0, r2, ip, lsl #8
 570              	.LVL44:
 571              		.loc 1 199 0
 572 0010 03EB0121 		add	r1, r3, r1, lsl #8
 573              		.loc 1 200 0
 574 0014 FFF7FEFF 		bl	setDac1
 575              		.loc 1 201 0
 576 0018 08BD     		pop	{r3, pc}
 577              		.cfi_endproc
 578              	.LFE70:
 579              		.size	set_dac1, .-set_dac1
 580 001a 00BFAFF3 		.section	.text.set_led,"ax",%progbits
 580      0080
 581              		.align	2
 582              		.p2align 4,,15
 583              		.thumb
 584              		.thumb_func
 585              		.type	set_led, %function
 586              	set_led:
 587              	.LFB69:
 588              		.loc 1 191 0
 589              		.cfi_startproc
 590              		@ args = 0, pretend = 0, frame = 0
 591              		@ frame_needed = 0, uses_anonymous_args = 0
 592              	.LVL45:
 593 0000 08B5     		push	{r3, lr}
 594              	.LCFI13:
 595              		.cfi_def_cfa_offset 8
 596              		.loc 1 192 0
 597 0002 0078     		ldrb	r0, [r0, #0]	@ zero_extendqisi2
 598              	.LVL46:
 599              		.cfi_offset 14, -4
 600              		.cfi_offset 3, -8
 601 0004 FFF7FEFF 		bl	setLeds
 602              		.loc 1 193 0
 603 0008 08BD     		pop	{r3, pc}
ARM GAS  C:\Users\z80\AppData\Local\Temp\ccSx45O2.s 			page 12


 604              		.cfi_endproc
 605              	.LFE69:
 606              		.size	set_led, .-set_led
 607 000a 00BFAFF3 		.section	.text.initCpuIo,"ax",%progbits
 607      0080
 608              		.align	2
 609              		.p2align 4,,15
 610              		.global	initCpuIo
 611              		.thumb
 612              		.thumb_func
 613              		.type	initCpuIo, %function
 614              	initCpuIo:
 615              	.LFB62:
 616              		.loc 1 43 0
 617              		.cfi_startproc
 618              		@ args = 0, pretend = 0, frame = 0
 619              		@ frame_needed = 0, uses_anonymous_args = 0
 620 0000 10B5     		push	{r4, lr}
 621              	.LCFI14:
 622              		.cfi_def_cfa_offset 8
 623              		.loc 1 45 0
 624 0002 40F20000 		movw	r0, #:lower16:SD1
 625 0006 40F20001 		movw	r1, #:lower16:.LANCHOR0
 626              		.loc 1 48 0
 627 000a 4FF40064 		mov	r4, #2048
 628              		.cfi_offset 14, -4
 629              		.cfi_offset 4, -8
 630 000e C4F20104 		movt	r4, 16385
 631              		.loc 1 45 0
 632 0012 C0F20000 		movt	r0, #:upper16:SD1
 633 0016 C0F20001 		movt	r1, #:upper16:.LANCHOR0
 634 001a FFF7FEFF 		bl	sdStart
 635              		.loc 1 48 0
 636 001e 2046     		mov	r0, r4
 637 0020 1022     		movs	r2, #16
 638 0022 4FF40071 		mov	r1, #512
 639 0026 FFF7FEFF 		bl	_pal_lld_setgroupmode
 640              		.loc 1 49 0
 641 002a 2046     		mov	r0, r4
 642 002c 0222     		movs	r2, #2
 643 002e 4FF48061 		mov	r1, #1024
 644 0032 FFF7FEFF 		bl	_pal_lld_setgroupmode
 645              		.loc 1 52 0
 646 0036 2046     		mov	r0, r4
 647 0038 1022     		movs	r2, #16
 648 003a 4FF40061 		mov	r1, #2048
 649 003e FFF7FEFF 		bl	_pal_lld_setgroupmode
 650              		.loc 1 55 0
 651 0042 2046     		mov	r0, r4
 652 0044 4FF48051 		mov	r1, #4096
 653 0048 0222     		movs	r2, #2
 654 004a FFF7FEFF 		bl	_pal_lld_setgroupmode
 655              		.loc 1 57 0
 656 004e 10BD     		pop	{r4, pc}
 657              		.cfi_endproc
 658              	.LFE62:
 659              		.size	initCpuIo, .-initCpuIo
ARM GAS  C:\Users\z80\AppData\Local\Temp\ccSx45O2.s 			page 13


 660              		.section	.text.processCpuIo,"ax",%progbits
 661              		.align	2
 662              		.p2align 4,,15
 663              		.global	processCpuIo
 664              		.thumb
 665              		.thumb_func
 666              		.type	processCpuIo, %function
 667              	processCpuIo:
 668              	.LFB63:
 669              		.loc 1 60 0
 670              		.cfi_startproc
 671              		@ args = 0, pretend = 0, frame = 0
 672              		@ frame_needed = 0, uses_anonymous_args = 0
 673 0000 10B5     		push	{r4, lr}
 674              	.LCFI15:
 675              		.cfi_def_cfa_offset 8
 676              		.loc 1 74 0
 677 0002 2948     		ldr	r0, .L50
 678 0004 4FF0FF31 		mov	r1, #-1
 679              		.cfi_offset 14, -4
 680              		.cfi_offset 4, -8
 681 0008 FFF7FEFF 		bl	chIQGetTimeout
 682              	.LVL47:
 683              		.loc 1 75 0
 684 000c 831C     		adds	r3, r0, #2
 685              		.loc 1 76 0
 686 000e 012B     		cmp	r3, #1
 687 0010 0ED9     		bls	.L37
 688              	.LBB15:
 689              		.loc 1 80 0
 690 0012 264A     		ldr	r2, .L50+4
 691              		.loc 1 78 0
 692 0014 C0B2     		uxtb	r0, r0
 693              	.LVL48:
 694              		.loc 1 80 0
 695 0016 1378     		ldrb	r3, [r2, #0]	@ zero_extendqisi2
 696              	.LVL49:
 697 0018 5BB9     		cbnz	r3, .L39
 698              		.loc 1 82 0
 699 001a C0B9     		cbnz	r0, .L40
 700              	.LBB18:
 701              	.LBB21:
 702              		.loc 1 115 0
 703 001c 2449     		ldr	r1, .L50+8
 704              	.LBE21:
 705              	.LBE18:
 706              		.loc 1 85 0
 707 001e 254C     		ldr	r4, .L50+12
 708              	.LBB17:
 709              	.LBB20:
 710              		.loc 1 117 0
 711 0020 0B78     		ldrb	r3, [r1, #0]	@ zero_extendqisi2
 712              	.LBE20:
 713              	.LBE17:
 714              		.loc 1 85 0
 715 0022 2068     		ldr	r0, [r4, #0]
 716              	.LVL50:
ARM GAS  C:\Users\z80\AppData\Local\Temp\ccSx45O2.s 			page 14


 717              	.LBB16:
 718              	.LBB28:
 719              		.loc 1 117 0
 720 0024 012B     		cmp	r3, #1
 721 0026 1ED0     		beq	.L42
 722 0028 022B     		cmp	r3, #2
 723 002a 32D0     		beq	.L49
 724              	.L41:
 725              	.LBB23:
 726              	.LBB25:
 727              		.loc 1 164 0
 728 002c 0023     		movs	r3, #0
 729              	.LVL51:
 730              	.L46:
 731              	.LBE25:
 732              	.LBE23:
 733              	.LBE28:
 734              	.LBE16:
 735              		.loc 1 99 0
 736 002e 2360     		str	r3, [r4, #0]
 737              	.LVL52:
 738              	.L37:
 739              	.LBE15:
 740              		.loc 1 102 0
 741 0030 10BD     		pop	{r4, pc}
 742              	.LVL53:
 743              	.L39:
 744              	.LBB32:
 745              		.loc 1 96 0
 746 0032 204C     		ldr	r4, .L50+12
 747              		.loc 1 95 0
 748 0034 4FF0000C 		mov	ip, #0
 749              		.loc 1 96 0
 750 0038 2168     		ldr	r1, [r4, #0]
 751              		.loc 1 95 0
 752 003a 82F800C0 		strb	ip, [r2, #0]
 753              		.loc 1 96 0
 754 003e 4B1C     		adds	r3, r1, #1
 755 0040 1B4A     		ldr	r2, .L50+8
 756 0042 202B     		cmp	r3, #32
 757 0044 A8BF     		it	ge
 758 0046 2023     		movge	r3, #32
 759 0048 5054     		strb	r0, [r2, r1]
 760              		.loc 1 99 0
 761 004a 2360     		str	r3, [r4, #0]
 762 004c F0E7     		b	.L37
 763              	.L40:
 764              		.loc 1 88 0
 765 004e 5C28     		cmp	r0, #92
 766 0050 16D0     		beq	.L47
 767              		.loc 1 89 0
 768 0052 184C     		ldr	r4, .L50+12
 769 0054 1649     		ldr	r1, .L50+8
 770 0056 2268     		ldr	r2, [r4, #0]
 771 0058 531C     		adds	r3, r2, #1
 772 005a 202B     		cmp	r3, #32
 773 005c A8BF     		it	ge
ARM GAS  C:\Users\z80\AppData\Local\Temp\ccSx45O2.s 			page 15


 774 005e 2023     		movge	r3, #32
 775 0060 8854     		strb	r0, [r1, r2]
 776              		.loc 1 99 0
 777 0062 2360     		str	r3, [r4, #0]
 778 0064 E4E7     		b	.L37
 779              	.LVL54:
 780              	.L42:
 781              	.LBB30:
 782              	.LBB19:
 783              		.loc 1 120 0
 784 0066 0128     		cmp	r0, #1
 785 0068 E0DD     		ble	.L41
 786 006a 134A     		ldr	r2, .L50+16
 787              		.loc 1 116 0
 788 006c 4B1C     		adds	r3, r1, #1
 789              		.loc 1 59 0
 790 006e 0818     		adds	r0, r1, r0
 791              	.LVL55:
 792              	.L44:
 793              		.loc 1 121 0
 794 0070 13F8011B 		ldrb	r1, [r3], #1	@ zero_extendqisi2
 795              		.loc 1 120 0
 796 0074 8342     		cmp	r3, r0
 797              		.loc 1 121 0
 798 0076 02F8011F 		strb	r1, [r2, #1]!
 799              		.loc 1 120 0
 800 007a F9D1     		bne	.L44
 801              	.LBB22:
 802              	.LBB24:
 803              		.loc 1 164 0
 804 007c 0023     		movs	r3, #0
 805 007e D6E7     		b	.L46
 806              	.LVL56:
 807              	.L47:
 808              	.LBE24:
 809              	.LBE22:
 810              	.LBE19:
 811              	.LBE30:
 812              		.loc 1 91 0
 813 0080 0C4C     		ldr	r4, .L50+12
 814 0082 0121     		movs	r1, #1
 815 0084 2368     		ldr	r3, [r4, #0]
 816 0086 1170     		strb	r1, [r2, #0]
 817 0088 202B     		cmp	r3, #32
 818 008a A8BF     		it	ge
 819 008c 2023     		movge	r3, #32
 820              		.loc 1 99 0
 821 008e 2360     		str	r3, [r4, #0]
 822 0090 CEE7     		b	.L37
 823              	.LVL57:
 824              	.L49:
 825              	.LBB31:
 826              	.LBB29:
 827              	.LBB27:
 828              	.LBB26:
 829              		.loc 1 161 0
 830 0092 4B78     		ldrb	r3, [r1, #1]	@ zero_extendqisi2
ARM GAS  C:\Users\z80\AppData\Local\Temp\ccSx45O2.s 			page 16


 831              	.LVL58:
 832              		.loc 1 165 0
 833 0094 094A     		ldr	r2, .L50+20
 834              		.loc 1 164 0
 835 0096 0B2B     		cmp	r3, #11
 836 0098 C8BF     		it	gt
 837 009a 0023     		movgt	r3, #0
 838              	.LVL59:
 839              		.loc 1 165 0
 840 009c 52F82330 		ldr	r3, [r2, r3, lsl #2]
 841              	.LVL60:
 842 00a0 0748     		ldr	r0, .L50+24
 843              	.LVL61:
 844 00a2 9847     		blx	r3
 845              	.LVL62:
 846              		.loc 1 164 0
 847 00a4 0023     		movs	r3, #0
 848 00a6 C2E7     		b	.L46
 849              	.L51:
 850              		.align	2
 851              	.L50:
 852 00a8 10000000 		.word	SD1+16
 853 00ac 00000000 		.word	.LANCHOR1
 854 00b0 00000000 		.word	.LANCHOR3
 855 00b4 00000000 		.word	.LANCHOR2
 856 00b8 FFFFFFFF 		.word	.LANCHOR4-1
 857 00bc 00000000 		.word	.LANCHOR5
 858 00c0 00000000 		.word	.LANCHOR4
 859              	.LBE26:
 860              	.LBE27:
 861              	.LBE29:
 862              	.LBE31:
 863              	.LBE32:
 864              		.cfi_endproc
 865              	.LFE63:
 866              		.size	processCpuIo, .-processCpuIo
 867 00c4 AFF30080 		.section	.text.funcArgs,"ax",%progbits
 867      AFF30080 
 867      AFF30080 
 868              		.align	2
 869              		.p2align 4,,15
 870              		.global	funcArgs
 871              		.thumb
 872              		.thumb_func
 873              		.type	funcArgs, %function
 874              	funcArgs:
 875              	.LFB64:
 876              		.loc 1 105 0
 877              		.cfi_startproc
 878              		@ args = 0, pretend = 0, frame = 0
 879              		@ frame_needed = 0, uses_anonymous_args = 0
 880              		@ link register save eliminated.
 881              		.loc 1 106 0
 882 0000 40F20000 		movw	r0, #:lower16:.LANCHOR4
 883 0004 C0F20000 		movt	r0, #:upper16:.LANCHOR4
 884              		.loc 1 107 0
 885 0008 7047     		bx	lr
ARM GAS  C:\Users\z80\AppData\Local\Temp\ccSx45O2.s 			page 17


 886              		.cfi_endproc
 887              	.LFE64:
 888              		.size	funcArgs, .-funcArgs
 889 000a 00BFAFF3 		.section	.bss.slash.3767,"aw",%nobits
 889      0080
 890              		.set	.LANCHOR1,. + 0
 891              		.type	slash.3767, %object
 892              		.size	slash.3767, 1
 893              	slash.3767:
 894 0000 00       		.space	1
 895              		.section	.rodata.serial_cfg,"a",%progbits
 896              		.align	2
 897              		.set	.LANCHOR0,. + 0
 898              		.type	serial_cfg, %object
 899              		.size	serial_cfg, 12
 900              	serial_cfg:
 901 0000 00C20100 		.word	115200
 902 0004 0000     		.short	0
 903 0006 0040     		.short	16384
 904 0008 0003     		.short	768
 905 000a 0000     		.space	2
 906              		.section	.bss.out_index.3768,"aw",%nobits
 907              		.align	2
 908              		.set	.LANCHOR2,. + 0
 909              		.type	out_index.3768, %object
 910              		.size	out_index.3768, 4
 911              	out_index.3768:
 912 0000 00000000 		.space	4
 913              		.section	.rodata.funcs,"a",%progbits
 914              		.align	2
 915              		.set	.LANCHOR5,. + 0
 916              		.type	funcs, %object
 917              		.size	funcs, 48
 918              	funcs:
 919 0000 00000000 		.word	hardware_version
 920 0004 00000000 		.word	firmware_version
 921 0008 00000000 		.word	set_led
 922 000c 00000000 		.word	set_dac1
 923 0010 00000000 		.word	set_dac2
 924 0014 00000000 		.word	get_adc
 925 0018 00000000 		.word	set_osc_signals
 926 001c 00000000 		.word	set_osc_period
 927 0020 00000000 		.word	get_osc_data
 928 0024 00000000 		.word	sweep_dac1
 929 0028 00000000 		.word	sweep_dac2
 930 002c 00000000 		.word	sweep_both
 931              		.section	.bss.buffer,"aw",%nobits
 932              		.align	2
 933              		.set	.LANCHOR3,. + 0
 934              		.type	buffer, %object
 935              		.size	buffer, 32
 936              	buffer:
 937 0000 00000000 		.space	32
 937      00000000 
 937      00000000 
 937      00000000 
 937      00000000 
ARM GAS  C:\Users\z80\AppData\Local\Temp\ccSx45O2.s 			page 18


 938              		.section	.rodata.str1.4,"aMS",%progbits,1
 939              		.align	2
 940              	.LC0:
 941 0000 302E302E 		.ascii	"0.0.1\000"
 941      3100
 942 0006 0000     		.space	2
 943              	.LC1:
 944 0008 64696769 		.ascii	"digitizer-1.0.0\000"
 944      74697A65 
 944      722D312E 
 944      302E3000 
 945              		.section	.bss.args,"aw",%nobits
 946              		.align	2
 947              		.set	.LANCHOR4,. + 0
 948              		.type	args, %object
 949              		.size	args, 32
 950              	args:
 951 0000 00000000 		.space	32
 951      00000000 
 951      00000000 
 951      00000000 
 951      00000000 
 952              		.text
 953              	.Letext0: