ARM GAS  C:\Users\z80\AppData\Local\Temp\ccSskHdY.s 			page 1


   1              		.syntax unified
   2              		.cpu cortex-m3
   3              		.fpu softvfp
   4              		.eabi_attribute 20, 1
   5              		.eabi_attribute 21, 1
   6              		.eabi_attribute 23, 3
   7              		.eabi_attribute 24, 1
   8              		.eabi_attribute 25, 1
   9              		.eabi_attribute 26, 1
  10              		.eabi_attribute 30, 2
  11              		.eabi_attribute 18, 4
  12              		.thumb
  13              		.file	"cpu_io.c"
  14              		.section	.debug_abbrev,"",%progbits
  15              	.Ldebug_abbrev0:
  16              		.section	.debug_info,"",%progbits
  17              	.Ldebug_info0:
  18              		.section	.debug_line,"",%progbits
  19              	.Ldebug_line0:
  20 0000 E0040000 		.text
  20      02009702 
  20      00000201 
  20      FB0E0D00 
  20      01010101 
  21              	.Ltext0:
  22              		.cfi_sections	.debug_frame
  23              		.section	.text.set_sweep,"ax",%progbits
  24              		.align	2
  25              		.p2align 4,,15
  26              		.thumb
  27              		.thumb_func
  28              		.type	set_sweep, %function
  29              	set_sweep:
  30              	.LFB76:
  31              		.file 1 "./src/cpu_io.c"
  32              		.loc 1 280 0
  33              		.cfi_startproc
  34              		@ args = 0, pretend = 0, frame = 0
  35              		@ frame_needed = 0, uses_anonymous_args = 0
  36              		@ link register save eliminated.
  37              	.LVL0:
  38              		.loc 1 283 0
  39 0000 7047     		bx	lr
  40              		.cfi_endproc
  41              	.LFE76:
  42              		.size	set_sweep, .-set_sweep
  43 0002 00BFAFF3 		.section	.text.set_sweep_osc,"ax",%progbits
  43      0080AFF3 
  43      0080AFF3 
  43      0080
  44              		.align	2
  45              		.p2align 4,,15
  46              		.thumb
  47              		.thumb_func
  48              		.type	set_sweep_osc, %function
  49              	set_sweep_osc:
  50              	.LFB77:
ARM GAS  C:\Users\z80\AppData\Local\Temp\ccSskHdY.s 			page 2


  51              		.loc 1 286 0
  52              		.cfi_startproc
  53              		@ args = 0, pretend = 0, frame = 0
  54              		@ frame_needed = 0, uses_anonymous_args = 0
  55              		@ link register save eliminated.
  56              	.LVL1:
  57              		.loc 1 288 0
  58 0000 7047     		bx	lr
  59              		.cfi_endproc
  60              	.LFE77:
  61              		.size	set_sweep_osc, .-set_sweep_osc
  62 0002 00BFAFF3 		.section	.text.get_sweep_data,"ax",%progbits
  62      0080AFF3 
  62      0080AFF3 
  62      0080
  63              		.align	2
  64              		.p2align 4,,15
  65              		.thumb
  66              		.thumb_func
  67              		.type	get_sweep_data, %function
  68              	get_sweep_data:
  69              	.LFB78:
  70              		.loc 1 291 0
  71              		.cfi_startproc
  72              		@ args = 0, pretend = 0, frame = 0
  73              		@ frame_needed = 0, uses_anonymous_args = 0
  74              		@ link register save eliminated.
  75              	.LVL2:
  76              		.loc 1 293 0
  77 0000 7047     		bx	lr
  78              		.cfi_endproc
  79              	.LFE78:
  80              		.size	get_sweep_data, .-get_sweep_data
  81 0002 00BFAFF3 		.section	.text.firmware_upgrade,"ax",%progbits
  81      0080AFF3 
  81      0080AFF3 
  81      0080
  82              		.align	2
  83              		.p2align 4,,15
  84              		.thumb
  85              		.thumb_func
  86              		.type	firmware_upgrade, %function
  87              	firmware_upgrade:
  88              	.LFB79:
  89              		.loc 1 296 0
  90              		.cfi_startproc
  91              		@ args = 0, pretend = 0, frame = 0
  92              		@ frame_needed = 0, uses_anonymous_args = 0
  93              		@ link register save eliminated.
  94              	.LVL3:
  95              		.loc 1 298 0
  96 0000 7047     		bx	lr
  97              		.cfi_endproc
  98              	.LFE79:
  99              		.size	firmware_upgrade, .-firmware_upgrade
 100 0002 00BFAFF3 		.section	.text.set_trigger,"ax",%progbits
 100      0080AFF3 
ARM GAS  C:\Users\z80\AppData\Local\Temp\ccSskHdY.s 			page 3


 100      0080AFF3 
 100      0080
 101              		.align	2
 102              		.p2align 4,,15
 103              		.thumb
 104              		.thumb_func
 105              		.type	set_trigger, %function
 106              	set_trigger:
 107              	.LFB80:
 108              		.loc 1 301 0
 109              		.cfi_startproc
 110              		@ args = 0, pretend = 0, frame = 0
 111              		@ frame_needed = 0, uses_anonymous_args = 0
 112              		@ link register save eliminated.
 113              	.LVL4:
 114              		.loc 1 303 0
 115 0000 7047     		bx	lr
 116              		.cfi_endproc
 117              	.LFE80:
 118              		.size	set_trigger, .-set_trigger
 119 0002 00BFAFF3 		.section	.text.set_trigger_sweep,"ax",%progbits
 119      0080AFF3 
 119      0080AFF3 
 119      0080
 120              		.align	2
 121              		.p2align 4,,15
 122              		.thumb
 123              		.thumb_func
 124              		.type	set_trigger_sweep, %function
 125              	set_trigger_sweep:
 126              	.LFB81:
 127              		.loc 1 306 0
 128              		.cfi_startproc
 129              		@ args = 0, pretend = 0, frame = 0
 130              		@ frame_needed = 0, uses_anonymous_args = 0
 131              		@ link register save eliminated.
 132              	.LVL5:
 133              		.loc 1 308 0
 134 0000 7047     		bx	lr
 135              		.cfi_endproc
 136              	.LFE81:
 137              		.size	set_trigger_sweep, .-set_trigger_sweep
 138 0002 00BFAFF3 		.section	.text.get_trigger_data,"ax",%progbits
 138      0080AFF3 
 138      0080AFF3 
 138      0080
 139              		.align	2
 140              		.p2align 4,,15
 141              		.thumb
 142              		.thumb_func
 143              		.type	get_trigger_data, %function
 144              	get_trigger_data:
 145              	.LFB82:
 146              		.loc 1 311 0
 147              		.cfi_startproc
 148              		@ args = 0, pretend = 0, frame = 0
 149              		@ frame_needed = 0, uses_anonymous_args = 0
ARM GAS  C:\Users\z80\AppData\Local\Temp\ccSskHdY.s 			page 4


 150              		@ link register save eliminated.
 151              	.LVL6:
 152              		.loc 1 313 0
 153 0000 7047     		bx	lr
 154              		.cfi_endproc
 155              	.LFE82:
 156              		.size	get_trigger_data, .-get_trigger_data
 157 0002 00BFAFF3 		.section	.text.writeResult,"ax",%progbits
 157      0080AFF3 
 157      0080AFF3 
 157      0080
 158              		.align	2
 159              		.p2align 4,,15
 160              		.thumb
 161              		.thumb_func
 162              		.type	writeResult, %function
 163              	writeResult:
 164              	.LFB83:
 165              		.loc 1 326 0
 166              		.cfi_startproc
 167              		@ args = 0, pretend = 0, frame = 0
 168              		@ frame_needed = 0, uses_anonymous_args = 0
 169              	.LVL7:
 170              		.loc 1 327 0
 171 0000 D0F10103 		rsbs	r3, r0, #1
 172 0004 38BF     		it	cc
 173 0006 0023     		movcc	r3, #0
 174 0008 5C28     		cmp	r0, #92
 175 000a 08BF     		it	eq
 176 000c 43F00103 		orreq	r3, r3, #1
 177              		.loc 1 326 0
 178 0010 10B5     		push	{r4, lr}
 179              	.LCFI0:
 180              		.cfi_def_cfa_offset 8
 181              		.loc 1 326 0
 182 0012 0446     		mov	r4, r0
 183              		.cfi_offset 14, -4
 184              		.cfi_offset 4, -8
 185              		.loc 1 327 0
 186 0014 2BB1     		cbz	r3, .L9
 187              		.loc 1 328 0
 188 0016 0648     		ldr	r0, .L11
 189              	.LVL8:
 190 0018 5C21     		movs	r1, #92
 191 001a 4FF0FF32 		mov	r2, #-1
 192 001e FFF7FEFF 		bl	chOQPutTimeout
 193              	.L9:
 194              		.loc 1 329 0
 195 0022 2146     		mov	r1, r4
 196 0024 4FF0FF32 		mov	r2, #-1
 197 0028 0148     		ldr	r0, .L11
 198 002a FFF7FEFF 		bl	chOQPutTimeout
 199              		.loc 1 330 0
 200 002e 10BD     		pop	{r4, pc}
 201              	.L12:
 202              		.align	2
 203              	.L11:
ARM GAS  C:\Users\z80\AppData\Local\Temp\ccSskHdY.s 			page 5


 204 0030 30000000 		.word	SD1+48
 205              		.cfi_endproc
 206              	.LFE83:
 207              		.size	writeResult, .-writeResult
 208 0034 AFF30080 		.section	.text.writeEom,"ax",%progbits
 208      AFF30080 
 208      AFF30080 
 209              		.align	2
 210              		.p2align 4,,15
 211              		.thumb
 212              		.thumb_func
 213              		.type	writeEom, %function
 214              	writeEom:
 215              	.LFB84:
 216              		.loc 1 333 0
 217              		.cfi_startproc
 218              		@ args = 0, pretend = 0, frame = 0
 219              		@ frame_needed = 0, uses_anonymous_args = 0
 220 0000 08B5     		push	{r3, lr}
 221              	.LCFI1:
 222              		.cfi_def_cfa_offset 8
 223              		.loc 1 334 0
 224 0002 0021     		movs	r1, #0
 225 0004 4FF0FF32 		mov	r2, #-1
 226 0008 0148     		ldr	r0, .L14
 227              		.cfi_offset 14, -4
 228              		.cfi_offset 3, -8
 229 000a FFF7FEFF 		bl	chOQPutTimeout
 230              		.loc 1 335 0
 231 000e 08BD     		pop	{r3, pc}
 232              	.L15:
 233              		.align	2
 234              	.L14:
 235 0010 30000000 		.word	SD1+48
 236              		.cfi_endproc
 237              	.LFE84:
 238              		.size	writeEom, .-writeEom
 239 0014 AFF30080 		.section	.text.get_osc_data,"ax",%progbits
 239      AFF30080 
 239      AFF30080 
 240              		.align	2
 241              		.p2align 4,,15
 242              		.thumb
 243              		.thumb_func
 244              		.type	get_osc_data, %function
 245              	get_osc_data:
 246              	.LFB75:
 247              		.loc 1 251 0
 248              		.cfi_startproc
 249              		@ args = 0, pretend = 0, frame = 0
 250              		@ frame_needed = 0, uses_anonymous_args = 0
 251              	.LVL9:
 252 0000 2DE9F041 		push	{r4, r5, r6, r7, r8, lr}
 253              	.LCFI2:
 254              		.cfi_def_cfa_offset 24
 255              		.loc 1 253 0
 256              		.cfi_offset 14, -4
ARM GAS  C:\Users\z80\AppData\Local\Temp\ccSskHdY.s 			page 6


 257              		.cfi_offset 8, -8
 258              		.cfi_offset 7, -12
 259              		.cfi_offset 6, -16
 260              		.cfi_offset 5, -20
 261              		.cfi_offset 4, -24
 262 0004 FFF7FEFF 		bl	adcQueue
 263              	.LVL10:
 264              	.LBB9:
 265              		.loc 1 254 0
 266 0008 2023     		movs	r3, #32
 267              	.LVL11:
 268              	.LBE9:
 269              		.loc 1 253 0
 270 000a 0446     		mov	r4, r0
 271              	.LVL12:
 272              	.LBB10:
 273              		.loc 1 254 0
 274              	@ 254 "./src/cpu_io.c" 1
 275 000c 83F31188 		msr     BASEPRI, r3
 276              	@ 0 "" 2
 277              	.LVL13:
 278              		.thumb
 279              	.LBE10:
 280 0010 FFF7FEFF 		bl	dbg_check_lock
 281              	.LVL14:
 282              		.loc 1 256 0
 283 0014 A268     		ldr	r2, [r4, #8]
 284 0016 4AF6AB23 		movw	r3, #43691
 285 001a CAF6AA23 		movt	r3, 43690
 286 001e A3FB0213 		umull	r1, r3, r3, r2
 287 0022 DD08     		lsrs	r5, r3, #3
 288              	.LVL15:
 289              		.loc 1 257 0
 290 0024 FFF7FEFF 		bl	dbg_check_unlock
 291              	.LBB11:
 292 0028 0023     		movs	r3, #0
 293              	.LVL16:
 294              	@ 257 "./src/cpu_io.c" 1
 295 002a 83F31188 		msr     BASEPRI, r3
 296              	@ 0 "" 2
 297              	.LVL17:
 298              		.thumb
 299              	.LBE11:
 300              		.loc 1 259 0
 301 002e ADB1     		cbz	r5, .L18
 302 0030 4FF00008 		mov	r8, #0
 303              	.LVL18:
 304              	.L21:
 305              		.loc 1 251 0
 306 0034 0427     		movs	r7, #4
 307              	.LVL19:
 308              	.L22:
 309              		.loc 1 251 0 is_stmt 0 discriminator 1
 310 0036 0326     		movs	r6, #3
 311              	.LVL20:
 312              	.L19:
 313              	.LBB12:
ARM GAS  C:\Users\z80\AppData\Local\Temp\ccSskHdY.s 			page 7


 314              	.LBB13:
 315              	.LBB14:
 316              		.loc 1 270 0 is_stmt 1 discriminator 2
 317 0038 4FF0FF31 		mov	r1, #-1
 318 003c 2046     		mov	r0, r4
 319 003e FFF7FEFF 		bl	chIQGetTimeout
 320              	.LVL21:
 321              		.loc 1 272 0 discriminator 2
 322 0042 C0B2     		uxtb	r0, r0
 323              	.LVL22:
 324 0044 FFF7FEFF 		bl	writeResult
 325              	.LBE14:
 326              		.loc 1 265 0 discriminator 2
 327 0048 16F1FF36 		adds	r6, r6, #-1
 328 004c F4D1     		bne	.L19
 329              	.LBE13:
 330              		.loc 1 262 0
 331 004e 17F1FF37 		adds	r7, r7, #-1
 332 0052 F0D1     		bne	.L22
 333              	.LBE12:
 334              		.loc 1 259 0
 335 0054 08F10108 		add	r8, r8, #1
 336              	.LVL23:
 337 0058 4545     		cmp	r5, r8
 338 005a EBD8     		bhi	.L21
 339              	.LVL24:
 340              	.L18:
 341              		.loc 1 276 0
 342 005c FFF7FEFF 		bl	writeEom
 343              	.LVL25:
 344              		.loc 1 277 0
 345 0060 BDE8F081 		pop	{r4, r5, r6, r7, r8, pc}
 346              		.cfi_endproc
 347              	.LFE75:
 348              		.size	get_osc_data, .-get_osc_data
 349 0064 AFF30080 		.section	.text.firmware_version,"ax",%progbits
 349      AFF30080 
 349      AFF30080 
 350              		.align	2
 351              		.p2align 4,,15
 352              		.thumb
 353              		.thumb_func
 354              		.type	firmware_version, %function
 355              	firmware_version:
 356              	.LFB68:
 357              		.loc 1 184 0
 358              		.cfi_startproc
 359              		@ args = 0, pretend = 0, frame = 8
 360              		@ frame_needed = 0, uses_anonymous_args = 0
 361              	.LVL26:
 362 0000 30B5     		push	{r4, r5, lr}
 363              	.LCFI3:
 364              		.cfi_def_cfa_offset 12
 365              		.loc 1 186 0
 366 0002 0A4B     		ldr	r3, .L28
 367              		.loc 1 184 0
 368 0004 83B0     		sub	sp, sp, #12
ARM GAS  C:\Users\z80\AppData\Local\Temp\ccSskHdY.s 			page 8


 369              	.LCFI4:
 370              		.cfi_def_cfa_offset 24
 371              		.loc 1 186 0
 372 0006 02AD     		add	r5, sp, #8
 373              		.cfi_offset 14, -4
 374              		.cfi_offset 5, -8
 375              		.cfi_offset 4, -12
 376 0008 93E80300 		ldmia	r3, {r0, r1}
 377              	.LVL27:
 378 000c 45F8080D 		str	r0, [r5, #-8]!
 379 0010 6C1E     		subs	r4, r5, #1
 380 0012 ADF80410 		strh	r1, [sp, #4]	@ movhi
 381              	.LVL28:
 382              		.loc 1 183 0
 383 0016 0435     		adds	r5, r5, #4
 384              	.LVL29:
 385              	.L26:
 386              		.loc 1 190 0 discriminator 2
 387 0018 14F8010F 		ldrb	r0, [r4, #1]!	@ zero_extendqisi2
 388 001c FFF7FEFF 		bl	writeResult
 389              		.loc 1 189 0 discriminator 2
 390 0020 AC42     		cmp	r4, r5
 391 0022 F9D1     		bne	.L26
 392              		.loc 1 191 0
 393 0024 FFF7FEFF 		bl	writeEom
 394              		.loc 1 192 0
 395 0028 03B0     		add	sp, sp, #12
 396 002a 30BD     		pop	{r4, r5, pc}
 397              	.L29:
 398              		.align	2
 399              	.L28:
 400 002c 00000000 		.word	.LC0
 401              		.cfi_endproc
 402              	.LFE68:
 403              		.size	firmware_version, .-firmware_version
 404              		.section	.text.hardware_version,"ax",%progbits
 405              		.align	2
 406              		.p2align 4,,15
 407              		.thumb
 408              		.thumb_func
 409              		.type	hardware_version, %function
 410              	hardware_version:
 411              	.LFB67:
 412              		.loc 1 173 0
 413              		.cfi_startproc
 414              		@ args = 0, pretend = 0, frame = 16
 415              		@ frame_needed = 0, uses_anonymous_args = 0
 416              	.LVL30:
 417 0000 30B5     		push	{r4, r5, lr}
 418              	.LCFI5:
 419              		.cfi_def_cfa_offset 12
 420              		.loc 1 175 0
 421 0002 0A4B     		ldr	r3, .L33
 422              		.loc 1 173 0
 423 0004 85B0     		sub	sp, sp, #20
 424              	.LCFI6:
 425              		.cfi_def_cfa_offset 32
ARM GAS  C:\Users\z80\AppData\Local\Temp\ccSskHdY.s 			page 9


 426              		.loc 1 175 0
 427 0006 EC46     		mov	ip, sp
 428 0008 0FCB     		ldmia	r3, {r0, r1, r2, r3}
 429              	.LVL31:
 430 000a 8CE80F00 		stmia	ip, {r0, r1, r2, r3}
 431              	.LVL32:
 432 000e 0DF1FF34 		add	r4, sp, #-1
 433              		.cfi_offset 14, -4
 434              		.cfi_offset 5, -8
 435              		.cfi_offset 4, -12
 436              		.loc 1 172 0
 437 0012 0DF10E05 		add	r5, sp, #14
 438              	.LVL33:
 439              	.L31:
 440              		.loc 1 179 0 discriminator 2
 441 0016 14F8010F 		ldrb	r0, [r4, #1]!	@ zero_extendqisi2
 442 001a FFF7FEFF 		bl	writeResult
 443              		.loc 1 178 0 discriminator 2
 444 001e AC42     		cmp	r4, r5
 445 0020 F9D1     		bne	.L31
 446              		.loc 1 180 0
 447 0022 FFF7FEFF 		bl	writeEom
 448              		.loc 1 181 0
 449 0026 05B0     		add	sp, sp, #20
 450 0028 30BD     		pop	{r4, r5, pc}
 451              	.L34:
 452 002a 00BF     		.align	2
 453              	.L33:
 454 002c 08000000 		.word	.LC1
 455              		.cfi_endproc
 456              	.LFE67:
 457              		.size	hardware_version, .-hardware_version
 458              		.section	.text.set_osc_period,"ax",%progbits
 459              		.align	2
 460              		.p2align 4,,15
 461              		.thumb
 462              		.thumb_func
 463              		.type	set_osc_period, %function
 464              	set_osc_period:
 465              	.LFB74:
 466              		.loc 1 241 0
 467              		.cfi_startproc
 468              		@ args = 0, pretend = 0, frame = 0
 469              		@ frame_needed = 0, uses_anonymous_args = 0
 470              	.LVL34:
 471 0000 08B5     		push	{r3, lr}
 472              	.LCFI7:
 473              		.cfi_def_cfa_offset 8
 474              		.loc 1 244 0
 475 0002 4378     		ldrb	r3, [r0, #1]	@ zero_extendqisi2
 476              		.cfi_offset 14, -4
 477              		.cfi_offset 3, -8
 478              		.loc 1 243 0
 479 0004 0278     		ldrb	r2, [r0, #0]	@ zero_extendqisi2
 480              	.LVL35:
 481              		.loc 1 245 0
 482 0006 1804     		lsls	r0, r3, #16
ARM GAS  C:\Users\z80\AppData\Local\Temp\ccSskHdY.s 			page 10


 483              	.LVL36:
 484              		.loc 1 244 0
 485 0008 00EB0320 		add	r0, r0, r3, lsl #8
 486              		.loc 1 245 0
 487 000c 8018     		adds	r0, r0, r2
 488              	.LVL37:
 489              		.loc 1 246 0
 490 000e 00EB0360 		add	r0, r0, r3, lsl #24
 491              	.LVL38:
 492              		.loc 1 247 0
 493 0012 FFF7FEFF 		bl	setOscPeriod
 494              		.loc 1 248 0
 495 0016 08BD     		pop	{r3, pc}
 496              		.cfi_endproc
 497              	.LFE74:
 498              		.size	set_osc_period, .-set_osc_period
 499 0018 AFF30080 		.section	.text.set_osc_signals,"ax",%progbits
 499      AFF30080 
 500              		.align	2
 501              		.p2align 4,,15
 502              		.thumb
 503              		.thumb_func
 504              		.type	set_osc_signals, %function
 505              	set_osc_signals:
 506              	.LFB73:
 507              		.loc 1 235 0
 508              		.cfi_startproc
 509              		@ args = 0, pretend = 0, frame = 0
 510              		@ frame_needed = 0, uses_anonymous_args = 0
 511              	.LVL39:
 512 0000 08B5     		push	{r3, lr}
 513              	.LCFI8:
 514              		.cfi_def_cfa_offset 8
 515              		.loc 1 237 0
 516 0002 0078     		ldrb	r0, [r0, #0]	@ zero_extendqisi2
 517              	.LVL40:
 518              		.cfi_offset 14, -4
 519              		.cfi_offset 3, -8
 520 0004 FFF7FEFF 		bl	setOscSignals
 521              		.loc 1 238 0
 522 0008 08BD     		pop	{r3, pc}
 523              		.cfi_endproc
 524              	.LFE73:
 525              		.size	set_osc_signals, .-set_osc_signals
 526 000a 00BFAFF3 		.section	.text.get_adc,"ax",%progbits
 526      0080
 527              		.align	2
 528              		.p2align 4,,15
 529              		.thumb
 530              		.thumb_func
 531              		.type	get_adc, %function
 532              	get_adc:
 533              	.LFB72:
 534              		.loc 1 215 0
 535              		.cfi_startproc
 536              		@ args = 0, pretend = 0, frame = 16
 537              		@ frame_needed = 0, uses_anonymous_args = 0
ARM GAS  C:\Users\z80\AppData\Local\Temp\ccSskHdY.s 			page 11


 538              	.LVL41:
 539 0000 30B5     		push	{r4, r5, lr}
 540              	.LCFI9:
 541              		.cfi_def_cfa_offset 12
 542 0002 85B0     		sub	sp, sp, #20
 543              	.LCFI10:
 544              		.cfi_def_cfa_offset 32
 545              		.loc 1 218 0
 546 0004 6846     		mov	r0, sp
 547              	.LVL42:
 548              		.cfi_offset 14, -4
 549              		.cfi_offset 5, -8
 550              		.cfi_offset 4, -12
 551 0006 FFF7FEFF 		bl	instantAdc
 552              	.LVL43:
 553 000a 6D46     		mov	r5, sp
 554 000c 0024     		movs	r4, #0
 555              	.LVL44:
 556              	.L38:
 557              	.LBB15:
 558              		.loc 1 223 0 discriminator 2
 559 000e 285D     		ldrb	r0, [r5, r4]	@ zero_extendqisi2
 560 0010 FFF7FEFF 		bl	writeResult
 561              	.LVL45:
 562              		.loc 1 224 0 discriminator 2
 563 0014 2859     		ldr	r0, [r5, r4]
 564              		.loc 1 225 0 discriminator 2
 565 0016 C0F30720 		ubfx	r0, r0, #8, #8
 566 001a FFF7FEFF 		bl	writeResult
 567              		.loc 1 226 0 discriminator 2
 568 001e 2859     		ldr	r0, [r5, r4]
 569              		.loc 1 227 0 discriminator 2
 570 0020 C0F30740 		ubfx	r0, r0, #16, #8
 571 0024 FFF7FEFF 		bl	writeResult
 572              		.loc 1 228 0 discriminator 2
 573 0028 2859     		ldr	r0, [r5, r4]
 574              		.loc 1 229 0 discriminator 2
 575 002a 0434     		adds	r4, r4, #4
 576 002c 000E     		lsrs	r0, r0, #24
 577 002e FFF7FEFF 		bl	writeResult
 578              	.LBE15:
 579              		.loc 1 220 0 discriminator 2
 580 0032 102C     		cmp	r4, #16
 581 0034 EBD1     		bne	.L38
 582              		.loc 1 231 0
 583 0036 FFF7FEFF 		bl	writeEom
 584              		.loc 1 232 0
 585 003a 05B0     		add	sp, sp, #20
 586 003c 30BD     		pop	{r4, r5, pc}
 587              		.cfi_endproc
 588              	.LFE72:
 589              		.size	get_adc, .-get_adc
 590 003e 00BF     		.section	.text.set_dac2,"ax",%progbits
 591              		.align	2
 592              		.p2align 4,,15
 593              		.thumb
 594              		.thumb_func
ARM GAS  C:\Users\z80\AppData\Local\Temp\ccSskHdY.s 			page 12


 595              		.type	set_dac2, %function
 596              	set_dac2:
 597              	.LFB71:
 598              		.loc 1 208 0
 599              		.cfi_startproc
 600              		@ args = 0, pretend = 0, frame = 0
 601              		@ frame_needed = 0, uses_anonymous_args = 0
 602              	.LVL46:
 603 0000 08B5     		push	{r3, lr}
 604              	.LCFI11:
 605              		.cfi_def_cfa_offset 8
 606              		.loc 1 210 0
 607 0002 8378     		ldrb	r3, [r0, #2]	@ zero_extendqisi2
 608              		.cfi_offset 14, -4
 609              		.cfi_offset 3, -8
 610              		.loc 1 209 0
 611 0004 90F801C0 		ldrb	ip, [r0, #1]	@ zero_extendqisi2
 612 0008 0278     		ldrb	r2, [r0, #0]	@ zero_extendqisi2
 613              		.loc 1 210 0
 614 000a C178     		ldrb	r1, [r0, #3]	@ zero_extendqisi2
 615              		.loc 1 209 0
 616 000c 02EB0C20 		add	r0, r2, ip, lsl #8
 617              	.LVL47:
 618              		.loc 1 210 0
 619 0010 03EB0121 		add	r1, r3, r1, lsl #8
 620              		.loc 1 211 0
 621 0014 FFF7FEFF 		bl	setDac2
 622              		.loc 1 212 0
 623 0018 08BD     		pop	{r3, pc}
 624              		.cfi_endproc
 625              	.LFE71:
 626              		.size	set_dac2, .-set_dac2
 627 001a 00BFAFF3 		.section	.text.set_dac1,"ax",%progbits
 627      0080
 628              		.align	2
 629              		.p2align 4,,15
 630              		.thumb
 631              		.thumb_func
 632              		.type	set_dac1, %function
 633              	set_dac1:
 634              	.LFB70:
 635              		.loc 1 201 0
 636              		.cfi_startproc
 637              		@ args = 0, pretend = 0, frame = 0
 638              		@ frame_needed = 0, uses_anonymous_args = 0
 639              	.LVL48:
 640 0000 08B5     		push	{r3, lr}
 641              	.LCFI12:
 642              		.cfi_def_cfa_offset 8
 643              		.loc 1 203 0
 644 0002 8378     		ldrb	r3, [r0, #2]	@ zero_extendqisi2
 645              		.cfi_offset 14, -4
 646              		.cfi_offset 3, -8
 647              		.loc 1 202 0
 648 0004 90F801C0 		ldrb	ip, [r0, #1]	@ zero_extendqisi2
 649 0008 0278     		ldrb	r2, [r0, #0]	@ zero_extendqisi2
 650              		.loc 1 203 0
ARM GAS  C:\Users\z80\AppData\Local\Temp\ccSskHdY.s 			page 13


 651 000a C178     		ldrb	r1, [r0, #3]	@ zero_extendqisi2
 652              		.loc 1 202 0
 653 000c 02EB0C20 		add	r0, r2, ip, lsl #8
 654              	.LVL49:
 655              		.loc 1 203 0
 656 0010 03EB0121 		add	r1, r3, r1, lsl #8
 657              		.loc 1 204 0
 658 0014 FFF7FEFF 		bl	setDac1
 659              		.loc 1 205 0
 660 0018 08BD     		pop	{r3, pc}
 661              		.cfi_endproc
 662              	.LFE70:
 663              		.size	set_dac1, .-set_dac1
 664 001a 00BFAFF3 		.section	.text.set_led,"ax",%progbits
 664      0080
 665              		.align	2
 666              		.p2align 4,,15
 667              		.thumb
 668              		.thumb_func
 669              		.type	set_led, %function
 670              	set_led:
 671              	.LFB69:
 672              		.loc 1 195 0
 673              		.cfi_startproc
 674              		@ args = 0, pretend = 0, frame = 0
 675              		@ frame_needed = 0, uses_anonymous_args = 0
 676              	.LVL50:
 677 0000 08B5     		push	{r3, lr}
 678              	.LCFI13:
 679              		.cfi_def_cfa_offset 8
 680              		.loc 1 196 0
 681 0002 0078     		ldrb	r0, [r0, #0]	@ zero_extendqisi2
 682              	.LVL51:
 683              		.cfi_offset 14, -4
 684              		.cfi_offset 3, -8
 685 0004 FFF7FEFF 		bl	setLeds
 686              		.loc 1 197 0
 687 0008 08BD     		pop	{r3, pc}
 688              		.cfi_endproc
 689              	.LFE69:
 690              		.size	set_led, .-set_led
 691 000a 00BFAFF3 		.section	.text.initCpuIo,"ax",%progbits
 691      0080
 692              		.align	2
 693              		.p2align 4,,15
 694              		.global	initCpuIo
 695              		.thumb
 696              		.thumb_func
 697              		.type	initCpuIo, %function
 698              	initCpuIo:
 699              	.LFB62:
 700              		.loc 1 43 0
 701              		.cfi_startproc
 702              		@ args = 0, pretend = 0, frame = 0
 703              		@ frame_needed = 0, uses_anonymous_args = 0
 704 0000 10B5     		push	{r4, lr}
 705              	.LCFI14:
ARM GAS  C:\Users\z80\AppData\Local\Temp\ccSskHdY.s 			page 14


 706              		.cfi_def_cfa_offset 8
 707              		.loc 1 45 0
 708 0002 4FF40064 		mov	r4, #2048
 709              		.cfi_offset 14, -4
 710              		.cfi_offset 4, -8
 711 0006 C4F20104 		movt	r4, 16385
 712 000a 1022     		movs	r2, #16
 713 000c 2046     		mov	r0, r4
 714 000e 4FF40071 		mov	r1, #512
 715 0012 FFF7FEFF 		bl	_pal_lld_setgroupmode
 716              		.loc 1 46 0
 717 0016 2046     		mov	r0, r4
 718 0018 0222     		movs	r2, #2
 719 001a 4FF48061 		mov	r1, #1024
 720 001e FFF7FEFF 		bl	_pal_lld_setgroupmode
 721              		.loc 1 48 0
 722 0022 2046     		mov	r0, r4
 723 0024 1022     		movs	r2, #16
 724 0026 4FF40061 		mov	r1, #2048
 725 002a FFF7FEFF 		bl	_pal_lld_setgroupmode
 726              		.loc 1 50 0
 727 002e 2046     		mov	r0, r4
 728 0030 4FF48051 		mov	r1, #4096
 729 0034 0222     		movs	r2, #2
 730 0036 FFF7FEFF 		bl	_pal_lld_setgroupmode
 731              		.loc 1 54 0
 732 003a 40F20000 		movw	r0, #:lower16:SD1
 733 003e C0F20000 		movt	r0, #:upper16:SD1
 734 0042 0021     		movs	r1, #0
 735 0044 FFF7FEFF 		bl	sdStart
 736              		.loc 1 55 0
 737 0048 10BD     		pop	{r4, pc}
 738              		.cfi_endproc
 739              	.LFE62:
 740              		.size	initCpuIo, .-initCpuIo
 741 004a 00BFAFF3 		.section	.text.processCpuIo,"ax",%progbits
 741      0080
 742              		.align	2
 743              		.p2align 4,,15
 744              		.global	processCpuIo
 745              		.thumb
 746              		.thumb_func
 747              		.type	processCpuIo, %function
 748              	processCpuIo:
 749              	.LFB63:
 750              		.loc 1 58 0
 751              		.cfi_startproc
 752              		@ args = 0, pretend = 0, frame = 0
 753              		@ frame_needed = 0, uses_anonymous_args = 0
 754 0000 10B5     		push	{r4, lr}
 755              	.LCFI15:
 756              		.cfi_def_cfa_offset 8
 757              		.loc 1 71 0
 758 0002 2948     		ldr	r0, .L57
 759 0004 4FF0FF31 		mov	r1, #-1
 760              		.cfi_offset 14, -4
 761              		.cfi_offset 4, -8
ARM GAS  C:\Users\z80\AppData\Local\Temp\ccSskHdY.s 			page 15


 762 0008 FFF7FEFF 		bl	chIQGetTimeout
 763              	.LVL52:
 764              		.loc 1 72 0
 765 000c 831C     		adds	r3, r0, #2
 766              		.loc 1 73 0
 767 000e 012B     		cmp	r3, #1
 768 0010 0ED9     		bls	.L44
 769              	.LBB16:
 770              		.loc 1 77 0
 771 0012 264A     		ldr	r2, .L57+4
 772              		.loc 1 75 0
 773 0014 C0B2     		uxtb	r0, r0
 774              	.LVL53:
 775              		.loc 1 77 0
 776 0016 1378     		ldrb	r3, [r2, #0]	@ zero_extendqisi2
 777              	.LVL54:
 778 0018 5BB9     		cbnz	r3, .L46
 779              		.loc 1 79 0
 780 001a C0B9     		cbnz	r0, .L47
 781              	.LBB19:
 782              	.LBB22:
 783              		.loc 1 111 0
 784 001c 2449     		ldr	r1, .L57+8
 785              	.LBE22:
 786              	.LBE19:
 787              		.loc 1 82 0
 788 001e 254C     		ldr	r4, .L57+12
 789              	.LBB18:
 790              	.LBB21:
 791              		.loc 1 113 0
 792 0020 0B78     		ldrb	r3, [r1, #0]	@ zero_extendqisi2
 793              	.LBE21:
 794              	.LBE18:
 795              		.loc 1 82 0
 796 0022 2068     		ldr	r0, [r4, #0]
 797              	.LVL55:
 798              	.LBB17:
 799              	.LBB29:
 800              		.loc 1 113 0
 801 0024 012B     		cmp	r3, #1
 802 0026 1ED0     		beq	.L49
 803 0028 022B     		cmp	r3, #2
 804 002a 32D0     		beq	.L56
 805              	.L48:
 806              	.LBB24:
 807              	.LBB26:
 808              		.loc 1 168 0
 809 002c 0023     		movs	r3, #0
 810              	.LVL56:
 811              	.L53:
 812              	.LBE26:
 813              	.LBE24:
 814              	.LBE29:
 815              	.LBE17:
 816              		.loc 1 96 0
 817 002e 2360     		str	r3, [r4, #0]
 818              	.LVL57:
ARM GAS  C:\Users\z80\AppData\Local\Temp\ccSskHdY.s 			page 16


 819              	.L44:
 820              	.LBE16:
 821              		.loc 1 98 0
 822 0030 10BD     		pop	{r4, pc}
 823              	.LVL58:
 824              	.L46:
 825              	.LBB33:
 826              		.loc 1 93 0
 827 0032 204C     		ldr	r4, .L57+12
 828              		.loc 1 92 0
 829 0034 4FF0000C 		mov	ip, #0
 830              		.loc 1 93 0
 831 0038 2168     		ldr	r1, [r4, #0]
 832              		.loc 1 92 0
 833 003a 82F800C0 		strb	ip, [r2, #0]
 834              		.loc 1 93 0
 835 003e 4B1C     		adds	r3, r1, #1
 836 0040 1B4A     		ldr	r2, .L57+8
 837 0042 202B     		cmp	r3, #32
 838 0044 A8BF     		it	ge
 839 0046 2023     		movge	r3, #32
 840 0048 5054     		strb	r0, [r2, r1]
 841              		.loc 1 96 0
 842 004a 2360     		str	r3, [r4, #0]
 843 004c F0E7     		b	.L44
 844              	.L47:
 845              		.loc 1 85 0
 846 004e 5C28     		cmp	r0, #92
 847 0050 16D0     		beq	.L54
 848              		.loc 1 86 0
 849 0052 184C     		ldr	r4, .L57+12
 850 0054 1649     		ldr	r1, .L57+8
 851 0056 2268     		ldr	r2, [r4, #0]
 852 0058 531C     		adds	r3, r2, #1
 853 005a 202B     		cmp	r3, #32
 854 005c A8BF     		it	ge
 855 005e 2023     		movge	r3, #32
 856 0060 8854     		strb	r0, [r1, r2]
 857              		.loc 1 96 0
 858 0062 2360     		str	r3, [r4, #0]
 859 0064 E4E7     		b	.L44
 860              	.LVL59:
 861              	.L49:
 862              	.LBB31:
 863              	.LBB20:
 864              		.loc 1 116 0
 865 0066 0128     		cmp	r0, #1
 866 0068 E0DD     		ble	.L48
 867 006a 134A     		ldr	r2, .L57+16
 868              		.loc 1 112 0
 869 006c 4B1C     		adds	r3, r1, #1
 870              		.loc 1 57 0
 871 006e 0818     		adds	r0, r1, r0
 872              	.LVL60:
 873              	.L51:
 874              		.loc 1 117 0
 875 0070 13F8011B 		ldrb	r1, [r3], #1	@ zero_extendqisi2
ARM GAS  C:\Users\z80\AppData\Local\Temp\ccSskHdY.s 			page 17


 876              		.loc 1 116 0
 877 0074 8342     		cmp	r3, r0
 878              		.loc 1 117 0
 879 0076 02F8011F 		strb	r1, [r2, #1]!
 880              		.loc 1 116 0
 881 007a F9D1     		bne	.L51
 882              	.LBB23:
 883              	.LBB25:
 884              		.loc 1 168 0
 885 007c 0023     		movs	r3, #0
 886 007e D6E7     		b	.L53
 887              	.LVL61:
 888              	.L54:
 889              	.LBE25:
 890              	.LBE23:
 891              	.LBE20:
 892              	.LBE31:
 893              		.loc 1 88 0
 894 0080 0C4C     		ldr	r4, .L57+12
 895 0082 0121     		movs	r1, #1
 896 0084 2368     		ldr	r3, [r4, #0]
 897 0086 1170     		strb	r1, [r2, #0]
 898 0088 202B     		cmp	r3, #32
 899 008a A8BF     		it	ge
 900 008c 2023     		movge	r3, #32
 901              		.loc 1 96 0
 902 008e 2360     		str	r3, [r4, #0]
 903 0090 CEE7     		b	.L44
 904              	.LVL62:
 905              	.L56:
 906              	.LBB32:
 907              	.LBB30:
 908              	.LBB28:
 909              	.LBB27:
 910              		.loc 1 165 0
 911 0092 4B78     		ldrb	r3, [r1, #1]	@ zero_extendqisi2
 912              	.LVL63:
 913              		.loc 1 169 0
 914 0094 094A     		ldr	r2, .L57+20
 915              		.loc 1 168 0
 916 0096 0F2B     		cmp	r3, #15
 917 0098 C8BF     		it	gt
 918 009a 0023     		movgt	r3, #0
 919              	.LVL64:
 920              		.loc 1 169 0
 921 009c 52F82330 		ldr	r3, [r2, r3, lsl #2]
 922              	.LVL65:
 923 00a0 0748     		ldr	r0, .L57+24
 924              	.LVL66:
 925 00a2 9847     		blx	r3
 926              	.LVL67:
 927              		.loc 1 168 0
 928 00a4 0023     		movs	r3, #0
 929 00a6 C2E7     		b	.L53
 930              	.L58:
 931              		.align	2
 932              	.L57:
ARM GAS  C:\Users\z80\AppData\Local\Temp\ccSskHdY.s 			page 18


 933 00a8 10000000 		.word	SD1+16
 934 00ac 00000000 		.word	.LANCHOR0
 935 00b0 00000000 		.word	.LANCHOR2
 936 00b4 00000000 		.word	.LANCHOR1
 937 00b8 FFFFFFFF 		.word	.LANCHOR3-1
 938 00bc 00000000 		.word	.LANCHOR4
 939 00c0 00000000 		.word	.LANCHOR3
 940              	.LBE27:
 941              	.LBE28:
 942              	.LBE30:
 943              	.LBE32:
 944              	.LBE33:
 945              		.cfi_endproc
 946              	.LFE63:
 947              		.size	processCpuIo, .-processCpuIo
 948 00c4 AFF30080 		.section	.text.funcArgs,"ax",%progbits
 948      AFF30080 
 948      AFF30080 
 949              		.align	2
 950              		.p2align 4,,15
 951              		.global	funcArgs
 952              		.thumb
 953              		.thumb_func
 954              		.type	funcArgs, %function
 955              	funcArgs:
 956              	.LFB64:
 957              		.loc 1 101 0
 958              		.cfi_startproc
 959              		@ args = 0, pretend = 0, frame = 0
 960              		@ frame_needed = 0, uses_anonymous_args = 0
 961              		@ link register save eliminated.
 962              		.loc 1 102 0
 963 0000 40F20000 		movw	r0, #:lower16:.LANCHOR3
 964 0004 C0F20000 		movt	r0, #:upper16:.LANCHOR3
 965              		.loc 1 103 0
 966 0008 7047     		bx	lr
 967              		.cfi_endproc
 968              	.LFE64:
 969              		.size	funcArgs, .-funcArgs
 970 000a 00BFAFF3 		.section	.rodata.funcs,"a",%progbits
 970      0080
 971              		.align	2
 972              		.set	.LANCHOR4,. + 0
 973              		.type	funcs, %object
 974              		.size	funcs, 64
 975              	funcs:
 976 0000 00000000 		.word	hardware_version
 977 0004 00000000 		.word	firmware_version
 978 0008 00000000 		.word	set_led
 979 000c 00000000 		.word	set_dac1
 980 0010 00000000 		.word	set_dac2
 981 0014 00000000 		.word	get_adc
 982 0018 00000000 		.word	set_osc_signals
 983 001c 00000000 		.word	set_osc_period
 984 0020 00000000 		.word	get_osc_data
 985 0024 00000000 		.word	set_sweep
 986 0028 00000000 		.word	set_sweep_osc
ARM GAS  C:\Users\z80\AppData\Local\Temp\ccSskHdY.s 			page 19


 987 002c 00000000 		.word	get_sweep_data
 988 0030 00000000 		.word	firmware_upgrade
 989 0034 00000000 		.word	set_trigger
 990 0038 00000000 		.word	set_trigger_sweep
 991 003c 00000000 		.word	get_trigger_data
 992              		.section	.bss.slash.3623,"aw",%nobits
 993              		.set	.LANCHOR0,. + 0
 994              		.type	slash.3623, %object
 995              		.size	slash.3623, 1
 996              	slash.3623:
 997 0000 00       		.space	1
 998              		.section	.bss.buffer,"aw",%nobits
 999              		.align	2
 1000              		.set	.LANCHOR2,. + 0
 1001              		.type	buffer, %object
 1002              		.size	buffer, 32
 1003              	buffer:
 1004 0000 00000000 		.space	32
 1004      00000000 
 1004      00000000 
 1004      00000000 
 1004      00000000 
 1005              		.section	.rodata.str1.4,"aMS",%progbits,1
 1006              		.align	2
 1007              	.LC0:
 1008 0000 302E302E 		.ascii	"0.0.1\000"
 1008      3100
 1009 0006 0000     		.space	2
 1010              	.LC1:
 1011 0008 64696769 		.ascii	"digitizer-1.0.0\000"
 1011      74697A65 
 1011      722D312E 
 1011      302E3000 
 1012              		.section	.bss.out_index.3624,"aw",%nobits
 1013              		.align	2
 1014              		.set	.LANCHOR1,. + 0
 1015              		.type	out_index.3624, %object
 1016              		.size	out_index.3624, 4
 1017              	out_index.3624:
 1018 0000 00000000 		.space	4
 1019              		.section	.bss.args,"aw",%nobits
 1020              		.align	2
 1021              		.set	.LANCHOR3,. + 0
 1022              		.type	args, %object
 1023              		.size	args, 32
 1024              	args:
 1025 0000 00000000 		.space	32
 1025      00000000 
 1025      00000000 
 1025      00000000 
 1025      00000000 
 1026              		.text
 1027              	.Letext0:
 1028              		.section	.debug_loc,"",%progbits
 1029              	.Ldebug_loc0:
 1030              	.LLST0:
 1031 0000 00000000 		.4byte	.LFB83
ARM GAS  C:\Users\z80\AppData\Local\Temp\ccSskHdY.s 			page 20


 1032 0004 12000000 		.4byte	.LCFI0
 1033 0008 0200     		.2byte	0x2
 1034 000a 7D       		.byte	0x7d
 1035 000b 00       		.sleb128 0
 1036 000c 12000000 		.4byte	.LCFI0
 1037 0010 34000000 		.4byte	.LFE83
 1038 0014 0200     		.2byte	0x2
 1039 0016 7D       		.byte	0x7d
 1040 0017 08       		.sleb128 8
 1041 0018 00000000 		.4byte	0x0
 1042 001c 00000000 		.4byte	0x0
 1043              	.LLST1:
 1044 0020 00000000 		.4byte	.LVL7
 1045 0024 18000000 		.4byte	.LVL8
 1046 0028 0100     		.2byte	0x1
 1047 002a 50       		.byte	0x50
 1048 002b 00000000 		.4byte	0x0
 1049 002f 00000000 		.4byte	0x0
 1050              	.LLST2:
 1051 0033 00000000 		.4byte	.LFB84
 1052 0037 02000000 		.4byte	.LCFI1
 1053 003b 0200     		.2byte	0x2
 1054 003d 7D       		.byte	0x7d
 1055 003e 00       		.sleb128 0
 1056 003f 02000000 		.4byte	.LCFI1
 1057 0043 14000000 		.4byte	.LFE84
 1058 0047 0200     		.2byte	0x2
 1059 0049 7D       		.byte	0x7d
 1060 004a 08       		.sleb128 8
 1061 004b 00000000 		.4byte	0x0
 1062 004f 00000000 		.4byte	0x0
 1063              	.LLST3:
 1064 0053 00000000 		.4byte	.LFB75
 1065 0057 04000000 		.4byte	.LCFI2
 1066 005b 0200     		.2byte	0x2
 1067 005d 7D       		.byte	0x7d
 1068 005e 00       		.sleb128 0
 1069 005f 04000000 		.4byte	.LCFI2
 1070 0063 64000000 		.4byte	.LFE75
 1071 0067 0200     		.2byte	0x2
 1072 0069 7D       		.byte	0x7d
 1073 006a 18       		.sleb128 24
 1074 006b 00000000 		.4byte	0x0
 1075 006f 00000000 		.4byte	0x0
 1076              	.LLST4:
 1077 0073 00000000 		.4byte	.LVL9
 1078 0077 07000000 		.4byte	.LVL10-1
 1079 007b 0100     		.2byte	0x1
 1080 007d 50       		.byte	0x50
 1081 007e 00000000 		.4byte	0x0
 1082 0082 00000000 		.4byte	0x0
 1083              	.LLST5:
 1084 0086 0C000000 		.4byte	.LVL12
 1085 008a 13000000 		.4byte	.LVL14-1
 1086 008e 0100     		.2byte	0x1
 1087 0090 50       		.byte	0x50
 1088 0091 13000000 		.4byte	.LVL14-1
ARM GAS  C:\Users\z80\AppData\Local\Temp\ccSskHdY.s 			page 21


 1089 0095 64000000 		.4byte	.LFE75
 1090 0099 0100     		.2byte	0x1
 1091 009b 54       		.byte	0x54
 1092 009c 00000000 		.4byte	0x0
 1093 00a0 00000000 		.4byte	0x0
 1094              	.LLST6:
 1095 00a4 2E000000 		.4byte	.LVL17
 1096 00a8 34000000 		.4byte	.LVL18
 1097 00ac 0200     		.2byte	0x2
 1098 00ae 30       		.byte	0x30
 1099 00af 9F       		.byte	0x9f
 1100 00b0 58000000 		.4byte	.LVL23
 1101 00b4 5C000000 		.4byte	.LVL24
 1102 00b8 0100     		.2byte	0x1
 1103 00ba 58       		.byte	0x58
 1104 00bb 00000000 		.4byte	0x0
 1105 00bf 00000000 		.4byte	0x0
 1106              	.LLST7:
 1107 00c3 10000000 		.4byte	.LVL13
 1108 00c7 13000000 		.4byte	.LVL14-1
 1109 00cb 0100     		.2byte	0x1
 1110 00cd 53       		.byte	0x53
 1111 00ce 00000000 		.4byte	0x0
 1112 00d2 00000000 		.4byte	0x0
 1113              	.LLST8:
 1114 00d6 2E000000 		.4byte	.LVL17
 1115 00da 41000000 		.4byte	.LVL21-1
 1116 00de 0100     		.2byte	0x1
 1117 00e0 53       		.byte	0x53
 1118 00e1 5C000000 		.4byte	.LVL24
 1119 00e5 5F000000 		.4byte	.LVL25-1
 1120 00e9 0100     		.2byte	0x1
 1121 00eb 53       		.byte	0x53
 1122 00ec 00000000 		.4byte	0x0
 1123 00f0 00000000 		.4byte	0x0
 1124              	.LLST9:
 1125 00f4 34000000 		.4byte	.LVL18
 1126 00f8 36000000 		.4byte	.LVL19
 1127 00fc 0200     		.2byte	0x2
 1128 00fe 30       		.byte	0x30
 1129 00ff 9F       		.byte	0x9f
 1130 0100 00000000 		.4byte	0x0
 1131 0104 00000000 		.4byte	0x0
 1132              	.LLST10:
 1133 0108 36000000 		.4byte	.LVL19
 1134 010c 38000000 		.4byte	.LVL20
 1135 0110 0200     		.2byte	0x2
 1136 0112 30       		.byte	0x30
 1137 0113 9F       		.byte	0x9f
 1138 0114 00000000 		.4byte	0x0
 1139 0118 00000000 		.4byte	0x0
 1140              	.LLST11:
 1141 011c 42000000 		.4byte	.LVL21
 1142 0120 44000000 		.4byte	.LVL22
 1143 0124 0100     		.2byte	0x1
 1144 0126 50       		.byte	0x50
 1145 0127 00000000 		.4byte	0x0
ARM GAS  C:\Users\z80\AppData\Local\Temp\ccSskHdY.s 			page 22


 1146 012b 00000000 		.4byte	0x0
 1147              	.LLST12:
 1148 012f 42000000 		.4byte	.LVL21
 1149 0133 44000000 		.4byte	.LVL22
 1150 0137 0100     		.2byte	0x1
 1151 0139 50       		.byte	0x50
 1152 013a 00000000 		.4byte	0x0
 1153 013e 00000000 		.4byte	0x0
 1154              	.LLST13:
 1155 0142 00000000 		.4byte	.LFB68
 1156 0146 02000000 		.4byte	.LCFI3
 1157 014a 0200     		.2byte	0x2
 1158 014c 7D       		.byte	0x7d
 1159 014d 00       		.sleb128 0
 1160 014e 02000000 		.4byte	.LCFI3
 1161 0152 06000000 		.4byte	.LCFI4
 1162 0156 0200     		.2byte	0x2
 1163 0158 7D       		.byte	0x7d
 1164 0159 0C       		.sleb128 12
 1165 015a 06000000 		.4byte	.LCFI4
 1166 015e 30000000 		.4byte	.LFE68
 1167 0162 0200     		.2byte	0x2
 1168 0164 7D       		.byte	0x7d
 1169 0165 18       		.sleb128 24
 1170 0166 00000000 		.4byte	0x0
 1171 016a 00000000 		.4byte	0x0
 1172              	.LLST14:
 1173 016e 00000000 		.4byte	.LVL26
 1174 0172 0C000000 		.4byte	.LVL27
 1175 0176 0100     		.2byte	0x1
 1176 0178 50       		.byte	0x50
 1177 0179 00000000 		.4byte	0x0
 1178 017d 00000000 		.4byte	0x0
 1179              	.LLST15:
 1180 0181 16000000 		.4byte	.LVL28
 1181 0185 18000000 		.4byte	.LVL29
 1182 0189 0200     		.2byte	0x2
 1183 018b 30       		.byte	0x30
 1184 018c 9F       		.byte	0x9f
 1185 018d 00000000 		.4byte	0x0
 1186 0191 00000000 		.4byte	0x0
 1187              	.LLST16:
 1188 0195 00000000 		.4byte	.LFB67
 1189 0199 02000000 		.4byte	.LCFI5
 1190 019d 0200     		.2byte	0x2
 1191 019f 7D       		.byte	0x7d
 1192 01a0 00       		.sleb128 0
 1193 01a1 02000000 		.4byte	.LCFI5
 1194 01a5 06000000 		.4byte	.LCFI6
 1195 01a9 0200     		.2byte	0x2
 1196 01ab 7D       		.byte	0x7d
 1197 01ac 0C       		.sleb128 12
 1198 01ad 06000000 		.4byte	.LCFI6
 1199 01b1 30000000 		.4byte	.LFE67
 1200 01b5 0200     		.2byte	0x2
 1201 01b7 7D       		.byte	0x7d
 1202 01b8 20       		.sleb128 32
ARM GAS  C:\Users\z80\AppData\Local\Temp\ccSskHdY.s 			page 23


 1203 01b9 00000000 		.4byte	0x0
 1204 01bd 00000000 		.4byte	0x0
 1205              	.LLST17:
 1206 01c1 00000000 		.4byte	.LVL30
 1207 01c5 0A000000 		.4byte	.LVL31
 1208 01c9 0100     		.2byte	0x1
 1209 01cb 50       		.byte	0x50
 1210 01cc 00000000 		.4byte	0x0
 1211 01d0 00000000 		.4byte	0x0
 1212              	.LLST18:
 1213 01d4 0E000000 		.4byte	.LVL32
 1214 01d8 16000000 		.4byte	.LVL33
 1215 01dc 0200     		.2byte	0x2
 1216 01de 30       		.byte	0x30
 1217 01df 9F       		.byte	0x9f
 1218 01e0 00000000 		.4byte	0x0
 1219 01e4 00000000 		.4byte	0x0
 1220              	.LLST19:
 1221 01e8 00000000 		.4byte	.LFB74
 1222 01ec 02000000 		.4byte	.LCFI7
 1223 01f0 0200     		.2byte	0x2
 1224 01f2 7D       		.byte	0x7d
 1225 01f3 00       		.sleb128 0
 1226 01f4 02000000 		.4byte	.LCFI7
 1227 01f8 18000000 		.4byte	.LFE74
 1228 01fc 0200     		.2byte	0x2
 1229 01fe 7D       		.byte	0x7d
 1230 01ff 08       		.sleb128 8
 1231 0200 00000000 		.4byte	0x0
 1232 0204 00000000 		.4byte	0x0
 1233              	.LLST20:
 1234 0208 00000000 		.4byte	.LVL34
 1235 020c 08000000 		.4byte	.LVL36
 1236 0210 0100     		.2byte	0x1
 1237 0212 50       		.byte	0x50
 1238 0213 00000000 		.4byte	0x0
 1239 0217 00000000 		.4byte	0x0
 1240              	.LLST21:
 1241 021b 06000000 		.4byte	.LVL35
 1242 021f 0E000000 		.4byte	.LVL37
 1243 0223 0800     		.2byte	0x8
 1244 0225 73       		.byte	0x73
 1245 0226 00       		.sleb128 0
 1246 0227 38       		.byte	0x38
 1247 0228 24       		.byte	0x24
 1248 0229 72       		.byte	0x72
 1249 022a 00       		.sleb128 0
 1250 022b 22       		.byte	0x22
 1251 022c 9F       		.byte	0x9f
 1252 022d 0E000000 		.4byte	.LVL37
 1253 0231 12000000 		.4byte	.LVL38
 1254 0235 0800     		.2byte	0x8
 1255 0237 73       		.byte	0x73
 1256 0238 00       		.sleb128 0
 1257 0239 48       		.byte	0x48
 1258 023a 24       		.byte	0x24
 1259 023b 70       		.byte	0x70
ARM GAS  C:\Users\z80\AppData\Local\Temp\ccSskHdY.s 			page 24


 1260 023c 00       		.sleb128 0
 1261 023d 22       		.byte	0x22
 1262 023e 9F       		.byte	0x9f
 1263 023f 00000000 		.4byte	0x0
 1264 0243 00000000 		.4byte	0x0
 1265              	.LLST22:
 1266 0247 00000000 		.4byte	.LFB73
 1267 024b 02000000 		.4byte	.LCFI8
 1268 024f 0200     		.2byte	0x2
 1269 0251 7D       		.byte	0x7d
 1270 0252 00       		.sleb128 0
 1271 0253 02000000 		.4byte	.LCFI8
 1272 0257 0A000000 		.4byte	.LFE73
 1273 025b 0200     		.2byte	0x2
 1274 025d 7D       		.byte	0x7d
 1275 025e 08       		.sleb128 8
 1276 025f 00000000 		.4byte	0x0
 1277 0263 00000000 		.4byte	0x0
 1278              	.LLST23:
 1279 0267 00000000 		.4byte	.LVL39
 1280 026b 04000000 		.4byte	.LVL40
 1281 026f 0100     		.2byte	0x1
 1282 0271 50       		.byte	0x50
 1283 0272 00000000 		.4byte	0x0
 1284 0276 00000000 		.4byte	0x0
 1285              	.LLST24:
 1286 027a 00000000 		.4byte	.LVL39
 1287 027e 04000000 		.4byte	.LVL40
 1288 0282 0200     		.2byte	0x2
 1289 0284 70       		.byte	0x70
 1290 0285 00       		.sleb128 0
 1291 0286 00000000 		.4byte	0x0
 1292 028a 00000000 		.4byte	0x0
 1293              	.LLST25:
 1294 028e 00000000 		.4byte	.LFB72
 1295 0292 02000000 		.4byte	.LCFI9
 1296 0296 0200     		.2byte	0x2
 1297 0298 7D       		.byte	0x7d
 1298 0299 00       		.sleb128 0
 1299 029a 02000000 		.4byte	.LCFI9
 1300 029e 04000000 		.4byte	.LCFI10
 1301 02a2 0200     		.2byte	0x2
 1302 02a4 7D       		.byte	0x7d
 1303 02a5 0C       		.sleb128 12
 1304 02a6 04000000 		.4byte	.LCFI10
 1305 02aa 3E000000 		.4byte	.LFE72
 1306 02ae 0200     		.2byte	0x2
 1307 02b0 7D       		.byte	0x7d
 1308 02b1 20       		.sleb128 32
 1309 02b2 00000000 		.4byte	0x0
 1310 02b6 00000000 		.4byte	0x0
 1311              	.LLST26:
 1312 02ba 00000000 		.4byte	.LVL41
 1313 02be 06000000 		.4byte	.LVL42
 1314 02c2 0100     		.2byte	0x1
 1315 02c4 50       		.byte	0x50
 1316 02c5 00000000 		.4byte	0x0
ARM GAS  C:\Users\z80\AppData\Local\Temp\ccSskHdY.s 			page 25


 1317 02c9 00000000 		.4byte	0x0
 1318              	.LLST27:
 1319 02cd 0A000000 		.4byte	.LVL43
 1320 02d1 0E000000 		.4byte	.LVL44
 1321 02d5 0200     		.2byte	0x2
 1322 02d7 30       		.byte	0x30
 1323 02d8 9F       		.byte	0x9f
 1324 02d9 00000000 		.4byte	0x0
 1325 02dd 00000000 		.4byte	0x0
 1326              	.LLST28:
 1327 02e1 0E000000 		.4byte	.LVL44
 1328 02e5 13000000 		.4byte	.LVL45-1
 1329 02e9 0800     		.2byte	0x8
 1330 02eb 91       		.byte	0x91
 1331 02ec 00       		.sleb128 0
 1332 02ed 74       		.byte	0x74
 1333 02ee 00       		.sleb128 0
 1334 02ef 22       		.byte	0x22
 1335 02f0 09       		.byte	0x9
 1336 02f1 E0       		.byte	0xe0
 1337 02f2 22       		.byte	0x22
 1338 02f3 00000000 		.4byte	0x0
 1339 02f7 00000000 		.4byte	0x0
 1340              	.LLST29:
 1341 02fb 00000000 		.4byte	.LFB71
 1342 02ff 02000000 		.4byte	.LCFI11
 1343 0303 0200     		.2byte	0x2
 1344 0305 7D       		.byte	0x7d
 1345 0306 00       		.sleb128 0
 1346 0307 02000000 		.4byte	.LCFI11
 1347 030b 1A000000 		.4byte	.LFE71
 1348 030f 0200     		.2byte	0x2
 1349 0311 7D       		.byte	0x7d
 1350 0312 08       		.sleb128 8
 1351 0313 00000000 		.4byte	0x0
 1352 0317 00000000 		.4byte	0x0
 1353              	.LLST30:
 1354 031b 00000000 		.4byte	.LVL46
 1355 031f 10000000 		.4byte	.LVL47
 1356 0323 0100     		.2byte	0x1
 1357 0325 50       		.byte	0x50
 1358 0326 00000000 		.4byte	0x0
 1359 032a 00000000 		.4byte	0x0
 1360              	.LLST31:
 1361 032e 00000000 		.4byte	.LFB70
 1362 0332 02000000 		.4byte	.LCFI12
 1363 0336 0200     		.2byte	0x2
 1364 0338 7D       		.byte	0x7d
 1365 0339 00       		.sleb128 0
 1366 033a 02000000 		.4byte	.LCFI12
 1367 033e 1A000000 		.4byte	.LFE70
 1368 0342 0200     		.2byte	0x2
 1369 0344 7D       		.byte	0x7d
 1370 0345 08       		.sleb128 8
 1371 0346 00000000 		.4byte	0x0
 1372 034a 00000000 		.4byte	0x0
 1373              	.LLST32:
ARM GAS  C:\Users\z80\AppData\Local\Temp\ccSskHdY.s 			page 26


 1374 034e 00000000 		.4byte	.LVL48
 1375 0352 10000000 		.4byte	.LVL49
 1376 0356 0100     		.2byte	0x1
 1377 0358 50       		.byte	0x50
 1378 0359 00000000 		.4byte	0x0
 1379 035d 00000000 		.4byte	0x0
 1380              	.LLST33:
 1381 0361 00000000 		.4byte	.LFB69
 1382 0365 02000000 		.4byte	.LCFI13
 1383 0369 0200     		.2byte	0x2
 1384 036b 7D       		.byte	0x7d
 1385 036c 00       		.sleb128 0
 1386 036d 02000000 		.4byte	.LCFI13
 1387 0371 0A000000 		.4byte	.LFE69
 1388 0375 0200     		.2byte	0x2
 1389 0377 7D       		.byte	0x7d
 1390 0378 08       		.sleb128 8
 1391 0379 00000000 		.4byte	0x0
 1392 037d 00000000 		.4byte	0x0
 1393              	.LLST34:
 1394 0381 00000000 		.4byte	.LVL50
 1395 0385 04000000 		.4byte	.LVL51
 1396 0389 0100     		.2byte	0x1
 1397 038b 50       		.byte	0x50
 1398 038c 00000000 		.4byte	0x0
 1399 0390 00000000 		.4byte	0x0
 1400              	.LLST35:
 1401 0394 00000000 		.4byte	.LFB62
 1402 0398 02000000 		.4byte	.LCFI14
 1403 039c 0200     		.2byte	0x2
 1404 039e 7D       		.byte	0x7d
 1405 039f 00       		.sleb128 0
 1406 03a0 02000000 		.4byte	.LCFI14
 1407 03a4 4A000000 		.4byte	.LFE62
 1408 03a8 0200     		.2byte	0x2
 1409 03aa 7D       		.byte	0x7d
 1410 03ab 08       		.sleb128 8
 1411 03ac 00000000 		.4byte	0x0
 1412 03b0 00000000 		.4byte	0x0
 1413              	.LLST36:
 1414 03b4 00000000 		.4byte	.LFB63
 1415 03b8 02000000 		.4byte	.LCFI15
 1416 03bc 0200     		.2byte	0x2
 1417 03be 7D       		.byte	0x7d
 1418 03bf 00       		.sleb128 0
 1419 03c0 02000000 		.4byte	.LCFI15
 1420 03c4 C4000000 		.4byte	.LFE63
 1421 03c8 0200     		.2byte	0x2
 1422 03ca 7D       		.byte	0x7d
 1423 03cb 08       		.sleb128 8
 1424 03cc 00000000 		.4byte	0x0
 1425 03d0 00000000 		.4byte	0x0
 1426              	.LLST37:
 1427 03d4 0C000000 		.4byte	.LVL52
 1428 03d8 16000000 		.4byte	.LVL53
 1429 03dc 0100     		.2byte	0x1
 1430 03de 50       		.byte	0x50
ARM GAS  C:\Users\z80\AppData\Local\Temp\ccSskHdY.s 			page 27


 1431 03df 16000000 		.4byte	.LVL53
 1432 03e3 18000000 		.4byte	.LVL54
 1433 03e7 0300     		.2byte	0x3
 1434 03e9 73       		.byte	0x73
 1435 03ea 7E       		.sleb128 -2
 1436 03eb 9F       		.byte	0x9f
 1437 03ec 00000000 		.4byte	0x0
 1438 03f0 00000000 		.4byte	0x0
 1439              	.LLST38:
 1440 03f4 0C000000 		.4byte	.LVL52
 1441 03f8 16000000 		.4byte	.LVL53
 1442 03fc 0F00     		.2byte	0xf
 1443 03fe 70       		.byte	0x70
 1444 03ff 02       		.sleb128 2
 1445 0400 23       		.byte	0x23
 1446 0401 80808080 		.uleb128 0x80000000
 1446      08
 1447 0406 0C       		.byte	0xc
 1448 0407 01000080 		.4byte	0x80000001
 1449 040b 2C       		.byte	0x2c
 1450 040c 9F       		.byte	0x9f
 1451 040d 16000000 		.4byte	.LVL53
 1452 0411 18000000 		.4byte	.LVL54
 1453 0415 0F00     		.2byte	0xf
 1454 0417 73       		.byte	0x73
 1455 0418 00       		.sleb128 0
 1456 0419 23       		.byte	0x23
 1457 041a 80808080 		.uleb128 0x80000000
 1457      08
 1458 041f 0C       		.byte	0xc
 1459 0420 01000080 		.4byte	0x80000001
 1460 0424 2C       		.byte	0x2c
 1461 0425 9F       		.byte	0x9f
 1462 0426 00000000 		.4byte	0x0
 1463 042a 00000000 		.4byte	0x0
 1464              	.LLST39:
 1465 042e 16000000 		.4byte	.LVL53
 1466 0432 24000000 		.4byte	.LVL55
 1467 0436 0100     		.2byte	0x1
 1468 0438 50       		.byte	0x50
 1469 0439 32000000 		.4byte	.LVL58
 1470 043d 66000000 		.4byte	.LVL59
 1471 0441 0100     		.2byte	0x1
 1472 0443 50       		.byte	0x50
 1473 0444 80000000 		.4byte	.LVL61
 1474 0448 92000000 		.4byte	.LVL62
 1475 044c 0100     		.2byte	0x1
 1476 044e 50       		.byte	0x50
 1477 044f 00000000 		.4byte	0x0
 1478 0453 00000000 		.4byte	0x0
 1479              	.LLST40:
 1480 0457 24000000 		.4byte	.LVL55
 1481 045b 2E000000 		.4byte	.LVL56
 1482 045f 0500     		.2byte	0x5
 1483 0461 03       		.byte	0x3
 1484 0462 00000000 		.4byte	out_index.3624
 1485 0466 66000000 		.4byte	.LVL59
ARM GAS  C:\Users\z80\AppData\Local\Temp\ccSskHdY.s 			page 28


 1486 046a 70000000 		.4byte	.LVL60
 1487 046e 0100     		.2byte	0x1
 1488 0470 50       		.byte	0x50
 1489 0471 70000000 		.4byte	.LVL60
 1490 0475 80000000 		.4byte	.LVL61
 1491 0479 0500     		.2byte	0x5
 1492 047b 03       		.byte	0x3
 1493 047c 00000000 		.4byte	out_index.3624
 1494 0480 92000000 		.4byte	.LVL62
 1495 0484 A2000000 		.4byte	.LVL66
 1496 0488 0100     		.2byte	0x1
 1497 048a 50       		.byte	0x50
 1498 048b A2000000 		.4byte	.LVL66
 1499 048f A3000000 		.4byte	.LVL67-1
 1500 0493 0500     		.2byte	0x5
 1501 0495 03       		.byte	0x3
 1502 0496 00000000 		.4byte	out_index.3624
 1503 049a 00000000 		.4byte	0x0
 1504 049e 00000000 		.4byte	0x0
 1505              	.LLST41:
 1506 04a2 24000000 		.4byte	.LVL55
 1507 04a6 30000000 		.4byte	.LVL57
 1508 04aa 0600     		.2byte	0x6
 1509 04ac 03       		.byte	0x3
 1510 04ad 00000000 		.4byte	buffer
 1511 04b1 9F       		.byte	0x9f
 1512 04b2 66000000 		.4byte	.LVL59
 1513 04b6 80000000 		.4byte	.LVL61
 1514 04ba 0600     		.2byte	0x6
 1515 04bc 03       		.byte	0x3
 1516 04bd 00000000 		.4byte	buffer
 1517 04c1 9F       		.byte	0x9f
 1518 04c2 92000000 		.4byte	.LVL62
 1519 04c6 C4000000 		.4byte	.LFE63
 1520 04ca 0600     		.2byte	0x6
 1521 04cc 03       		.byte	0x3
 1522 04cd 00000000 		.4byte	buffer
 1523 04d1 9F       		.byte	0x9f
 1524 04d2 00000000 		.4byte	0x0
 1525 04d6 00000000 		.4byte	0x0
 1526              	.LLST42:
 1527 04da 66000000 		.4byte	.LVL59
 1528 04de 70000000 		.4byte	.LVL60
 1529 04e2 0200     		.2byte	0x2
 1530 04e4 30       		.byte	0x30
 1531 04e5 9F       		.byte	0x9f
 1532 04e6 00000000 		.4byte	0x0
 1533 04ea 00000000 		.4byte	0x0
 1534              	.LLST43:
 1535 04ee 24000000 		.4byte	.LVL55
 1536 04f2 2E000000 		.4byte	.LVL56
 1537 04f6 0500     		.2byte	0x5
 1538 04f8 03       		.byte	0x3
 1539 04f9 00000000 		.4byte	buffer
 1540 04fd 66000000 		.4byte	.LVL59
 1541 0501 80000000 		.4byte	.LVL61
 1542 0505 0500     		.2byte	0x5
ARM GAS  C:\Users\z80\AppData\Local\Temp\ccSskHdY.s 			page 29


 1543 0507 03       		.byte	0x3
 1544 0508 00000000 		.4byte	buffer
 1545 050c 92000000 		.4byte	.LVL62
 1546 0510 A3000000 		.4byte	.LVL67-1
 1547 0514 0500     		.2byte	0x5
 1548 0516 03       		.byte	0x3
 1549 0517 00000000 		.4byte	buffer
 1550 051b 00000000 		.4byte	0x0
 1551 051f 00000000 		.4byte	0x0
 1552              	.LLST44:
 1553 0523 24000000 		.4byte	.LVL55
 1554 0527 30000000 		.4byte	.LVL57
 1555 052b 0600     		.2byte	0x6
 1556 052d 03       		.byte	0x3
 1557 052e 01000000 		.4byte	buffer+1
 1558 0532 9F       		.byte	0x9f
 1559 0533 66000000 		.4byte	.LVL59
 1560 0537 80000000 		.4byte	.LVL61
 1561 053b 0600     		.2byte	0x6
 1562 053d 03       		.byte	0x3
 1563 053e 01000000 		.4byte	buffer+1
 1564 0542 9F       		.byte	0x9f
 1565 0543 92000000 		.4byte	.LVL62
 1566 0547 C4000000 		.4byte	.LFE63
 1567 054b 0600     		.2byte	0x6
 1568 054d 03       		.byte	0x3
 1569 054e 01000000 		.4byte	buffer+1
 1570 0552 9F       		.byte	0x9f
 1571 0553 00000000 		.4byte	0x0
 1572 0557 00000000 		.4byte	0x0
 1573              	.LLST45:
 1574 055b 94000000 		.4byte	.LVL63
 1575 055f 9C000000 		.4byte	.LVL64
 1576 0563 0100     		.2byte	0x1
 1577 0565 53       		.byte	0x53
 1578 0566 9C000000 		.4byte	.LVL64
 1579 056a A0000000 		.4byte	.LVL65
 1580 056e 0100     		.2byte	0x1
 1581 0570 53       		.byte	0x53
 1582 0571 00000000 		.4byte	0x0
 1583 0575 00000000 		.4byte	0x0
 1584              		.file 2 "c:\\programs\\yagarto\\bin\\../lib/gcc/arm-none-eabi/4.5.0/include/stddef.h"
 1585              		.file 3 "c:/programs/yagarto/lib/gcc/../../arm-none-eabi/sys-include/stdint.h"
 1586              		.file 4 "../chibios_2.4.x/os/ports/GCC/ARMCMx/chtypes.h"
 1587              		.file 5 "../chibios_2.4.x/os/kernel/include/chlists.h"
 1588              		.file 6 "../chibios_2.4.x/os/kernel/include/chthreads.h"
 1589              		.file 7 "../chibios_2.4.x/os/ports/GCC/ARMCMx/chcore_v7m.h"
 1590              		.file 8 "../chibios_2.4.x/os/kernel/include/chmtx.h"
 1591              		.file 9 "../chibios_2.4.x/os/kernel/include/chevents.h"
 1592              		.file 10 "../chibios_2.4.x/os/kernel/include/chqueues.h"
 1593              		.file 11 "../chibios_2.4.x/os/kernel/include/chioch.h"
 1594              		.file 12 "./src/cpu_io.h"
 1595              		.file 13 "../chibios_2.4.x/os/hal/platforms/STM32F1xx/stm32f10x.h"
 1596              		.file 14 "../chibios_2.4.x/os/hal/platforms/STM32/GPIOv1/pal_lld.h"
 1597              		.file 15 "../chibios_2.4.x/os/hal/include/serial.h"
 1598              		.file 16 "../chibios_2.4.x/os/hal/platforms/STM32/serial_lld.h"
 1599              		.file 17 "../chibios_2.4.x/os/ports/common/ARMCMx/CMSIS/include/core_cm3.h"
ARM GAS  C:\Users\z80\AppData\Local\Temp\ccSskHdY.s 			page 30


 1600              		.section	.debug_info
 1601 0000 D90F0000 		.4byte	0xfd9
 1602 0004 0200     		.2byte	0x2
 1603 0006 00000000 		.4byte	.Ldebug_abbrev0
 1604 000a 04       		.byte	0x4
 1605 000b 01       		.uleb128 0x1
 1606 000c AB050000 		.4byte	.LASF148
 1607 0010 01       		.byte	0x1
 1608 0011 CF020000 		.4byte	.LASF149
 1609 0015 19010000 		.4byte	.LASF150
 1610 0019 00000000 		.4byte	0x0
 1611 001d 00000000 		.4byte	0x0
 1612 0021 D0000000 		.4byte	.Ldebug_ranges0+0xd0
 1613 0025 00000000 		.4byte	.Ldebug_line0
 1614 0029 02       		.uleb128 0x2
 1615 002a 04       		.byte	0x4
 1616 002b 05       		.byte	0x5
 1617 002c 696E7400 		.ascii	"int\000"
 1618 0030 03       		.uleb128 0x3
 1619 0031 12000000 		.4byte	.LASF2
 1620 0035 02       		.byte	0x2
 1621 0036 D3       		.byte	0xd3
 1622 0037 3B000000 		.4byte	0x3b
 1623 003b 04       		.uleb128 0x4
 1624 003c 04       		.byte	0x4
 1625 003d 07       		.byte	0x7
 1626 003e CD040000 		.4byte	.LASF0
 1627 0042 04       		.uleb128 0x4
 1628 0043 01       		.byte	0x1
 1629 0044 06       		.byte	0x6
 1630 0045 DD000000 		.4byte	.LASF1
 1631 0049 03       		.uleb128 0x3
 1632 004a 84050000 		.4byte	.LASF3
 1633 004e 03       		.byte	0x3
 1634 004f 2A       		.byte	0x2a
 1635 0050 54000000 		.4byte	0x54
 1636 0054 04       		.uleb128 0x4
 1637 0055 01       		.byte	0x1
 1638 0056 08       		.byte	0x8
 1639 0057 F2030000 		.4byte	.LASF4
 1640 005b 04       		.uleb128 0x4
 1641 005c 02       		.byte	0x2
 1642 005d 05       		.byte	0x5
 1643 005e 29040000 		.4byte	.LASF5
 1644 0062 03       		.uleb128 0x3
 1645 0063 D4010000 		.4byte	.LASF6
 1646 0067 03       		.byte	0x3
 1647 0068 36       		.byte	0x36
 1648 0069 6D000000 		.4byte	0x6d
 1649 006d 04       		.uleb128 0x4
 1650 006e 02       		.byte	0x2
 1651 006f 07       		.byte	0x7
 1652 0070 4A020000 		.4byte	.LASF7
 1653 0074 03       		.uleb128 0x3
 1654 0075 EA030000 		.4byte	.LASF8
 1655 0079 03       		.byte	0x3
 1656 007a 4F       		.byte	0x4f
ARM GAS  C:\Users\z80\AppData\Local\Temp\ccSskHdY.s 			page 31


 1657 007b 7F000000 		.4byte	0x7f
 1658 007f 04       		.uleb128 0x4
 1659 0080 04       		.byte	0x4
 1660 0081 05       		.byte	0x5
 1661 0082 4C010000 		.4byte	.LASF9
 1662 0086 03       		.uleb128 0x3
 1663 0087 91040000 		.4byte	.LASF10
 1664 008b 03       		.byte	0x3
 1665 008c 50       		.byte	0x50
 1666 008d 91000000 		.4byte	0x91
 1667 0091 04       		.uleb128 0x4
 1668 0092 04       		.byte	0x4
 1669 0093 07       		.byte	0x7
 1670 0094 B1040000 		.4byte	.LASF11
 1671 0098 04       		.uleb128 0x4
 1672 0099 08       		.byte	0x8
 1673 009a 05       		.byte	0x5
 1674 009b CF000000 		.4byte	.LASF12
 1675 009f 03       		.uleb128 0x3
 1676 00a0 20000000 		.4byte	.LASF13
 1677 00a4 03       		.byte	0x3
 1678 00a5 78       		.byte	0x78
 1679 00a6 AA000000 		.4byte	0xaa
 1680 00aa 04       		.uleb128 0x4
 1681 00ab 08       		.byte	0x8
 1682 00ac 07       		.byte	0x7
 1683 00ad 6A000000 		.4byte	.LASF14
 1684 00b1 03       		.uleb128 0x3
 1685 00b2 5C000000 		.4byte	.LASF15
 1686 00b6 03       		.byte	0x3
 1687 00b7 A6       		.byte	0xa6
 1688 00b8 3B000000 		.4byte	0x3b
 1689 00bc 03       		.uleb128 0x3
 1690 00bd B1000000 		.4byte	.LASF16
 1691 00c1 04       		.byte	0x4
 1692 00c2 2E       		.byte	0x2e
 1693 00c3 74000000 		.4byte	0x74
 1694 00c7 03       		.uleb128 0x3
 1695 00c8 9A020000 		.4byte	.LASF17
 1696 00cc 04       		.byte	0x4
 1697 00cd 2F       		.byte	0x2f
 1698 00ce 49000000 		.4byte	0x49
 1699 00d2 03       		.uleb128 0x3
 1700 00d3 55010000 		.4byte	.LASF18
 1701 00d7 04       		.byte	0x4
 1702 00d8 30       		.byte	0x30
 1703 00d9 49000000 		.4byte	0x49
 1704 00dd 03       		.uleb128 0x3
 1705 00de 3C020000 		.4byte	.LASF19
 1706 00e2 04       		.byte	0x4
 1707 00e3 32       		.byte	0x32
 1708 00e4 86000000 		.4byte	0x86
 1709 00e8 03       		.uleb128 0x3
 1710 00e9 38050000 		.4byte	.LASF20
 1711 00ed 04       		.byte	0x4
 1712 00ee 33       		.byte	0x33
 1713 00ef 74000000 		.4byte	0x74
ARM GAS  C:\Users\z80\AppData\Local\Temp\ccSskHdY.s 			page 32


 1714 00f3 03       		.uleb128 0x3
 1715 00f4 AE020000 		.4byte	.LASF21
 1716 00f8 04       		.byte	0x4
 1717 00f9 35       		.byte	0x35
 1718 00fa 86000000 		.4byte	0x86
 1719 00fe 03       		.uleb128 0x3
 1720 00ff FA040000 		.4byte	.LASF22
 1721 0103 04       		.byte	0x4
 1722 0104 36       		.byte	0x36
 1723 0105 86000000 		.4byte	0x86
 1724 0109 03       		.uleb128 0x3
 1725 010a 61040000 		.4byte	.LASF23
 1726 010e 05       		.byte	0x5
 1727 010f 2A       		.byte	0x2a
 1728 0110 14010000 		.4byte	0x114
 1729 0114 05       		.uleb128 0x5
 1730 0115 61040000 		.4byte	.LASF23
 1731 0119 48       		.byte	0x48
 1732 011a 06       		.byte	0x6
 1733 011b 5E       		.byte	0x5e
 1734 011c 1D020000 		.4byte	0x21d
 1735 0120 06       		.uleb128 0x6
 1736 0121 4A040000 		.4byte	.LASF24
 1737 0125 06       		.byte	0x6
 1738 0126 5F       		.byte	0x5f
 1739 0127 42020000 		.4byte	0x242
 1740 012b 02       		.byte	0x2
 1741 012c 23       		.byte	0x23
 1742 012d 00       		.uleb128 0x0
 1743 012e 06       		.uleb128 0x6
 1744 012f AE030000 		.4byte	.LASF25
 1745 0133 06       		.byte	0x6
 1746 0134 61       		.byte	0x61
 1747 0135 42020000 		.4byte	0x242
 1748 0139 02       		.byte	0x2
 1749 013a 23       		.byte	0x23
 1750 013b 04       		.uleb128 0x4
 1751 013c 06       		.uleb128 0x6
 1752 013d B8000000 		.4byte	.LASF26
 1753 0141 06       		.byte	0x6
 1754 0142 63       		.byte	0x63
 1755 0143 DD000000 		.4byte	0xdd
 1756 0147 02       		.byte	0x2
 1757 0148 23       		.byte	0x23
 1758 0149 08       		.uleb128 0x8
 1759 014a 06       		.uleb128 0x6
 1760 014b F4050000 		.4byte	.LASF27
 1761 014f 06       		.byte	0x6
 1762 0150 64       		.byte	0x64
 1763 0151 1A030000 		.4byte	0x31a
 1764 0155 02       		.byte	0x2
 1765 0156 23       		.byte	0x23
 1766 0157 0C       		.uleb128 0xc
 1767 0158 06       		.uleb128 0x6
 1768 0159 6F010000 		.4byte	.LASF28
 1769 015d 06       		.byte	0x6
 1770 015e 66       		.byte	0x66
ARM GAS  C:\Users\z80\AppData\Local\Temp\ccSskHdY.s 			page 33


 1771 015f 42020000 		.4byte	0x242
 1772 0163 02       		.byte	0x2
 1773 0164 23       		.byte	0x23
 1774 0165 10       		.uleb128 0x10
 1775 0166 06       		.uleb128 0x6
 1776 0167 21030000 		.4byte	.LASF29
 1777 016b 06       		.byte	0x6
 1778 016c 67       		.byte	0x67
 1779 016d 42020000 		.4byte	0x242
 1780 0171 02       		.byte	0x2
 1781 0172 23       		.byte	0x23
 1782 0173 14       		.uleb128 0x14
 1783 0174 06       		.uleb128 0x6
 1784 0175 5E050000 		.4byte	.LASF30
 1785 0179 06       		.byte	0x6
 1786 017a 6E       		.byte	0x6e
 1787 017b 35040000 		.4byte	0x435
 1788 017f 02       		.byte	0x2
 1789 0180 23       		.byte	0x23
 1790 0181 18       		.uleb128 0x18
 1791 0182 06       		.uleb128 0x6
 1792 0183 40030000 		.4byte	.LASF31
 1793 0187 06       		.byte	0x6
 1794 0188 74       		.byte	0x74
 1795 0189 47040000 		.4byte	0x447
 1796 018d 02       		.byte	0x2
 1797 018e 23       		.byte	0x23
 1798 018f 1C       		.uleb128 0x1c
 1799 0190 06       		.uleb128 0x6
 1800 0191 17040000 		.4byte	.LASF32
 1801 0195 06       		.byte	0x6
 1802 0196 79       		.byte	0x79
 1803 0197 D2000000 		.4byte	0xd2
 1804 019b 02       		.byte	0x2
 1805 019c 23       		.byte	0x23
 1806 019d 20       		.uleb128 0x20
 1807 019e 06       		.uleb128 0x6
 1808 019f 51040000 		.4byte	.LASF33
 1809 01a3 06       		.byte	0x6
 1810 01a4 7D       		.byte	0x7d
 1811 01a5 C7000000 		.4byte	0xc7
 1812 01a9 02       		.byte	0x2
 1813 01aa 23       		.byte	0x23
 1814 01ab 21       		.uleb128 0x21
 1815 01ac 06       		.uleb128 0x6
 1816 01ad ED010000 		.4byte	.LASF34
 1817 01b1 06       		.byte	0x6
 1818 01b2 89       		.byte	0x89
 1819 01b3 45030000 		.4byte	0x345
 1820 01b7 02       		.byte	0x2
 1821 01b8 23       		.byte	0x23
 1822 01b9 24       		.uleb128 0x24
 1823 01ba 07       		.uleb128 0x7
 1824 01bb 705F7500 		.ascii	"p_u\000"
 1825 01bf 06       		.byte	0x6
 1826 01c0 AE       		.byte	0xae
 1827 01c1 00040000 		.4byte	0x400
ARM GAS  C:\Users\z80\AppData\Local\Temp\ccSskHdY.s 			page 34


 1828 01c5 02       		.byte	0x2
 1829 01c6 23       		.byte	0x23
 1830 01c7 28       		.uleb128 0x28
 1831 01c8 06       		.uleb128 0x6
 1832 01c9 FA050000 		.4byte	.LASF35
 1833 01cd 06       		.byte	0x6
 1834 01ce B3       		.byte	0xb3
 1835 01cf 6A020000 		.4byte	0x26a
 1836 01d3 02       		.byte	0x2
 1837 01d4 23       		.byte	0x23
 1838 01d5 2C       		.uleb128 0x2c
 1839 01d6 06       		.uleb128 0x6
 1840 01d7 16020000 		.4byte	.LASF36
 1841 01db 06       		.byte	0x6
 1842 01dc B9       		.byte	0xb9
 1843 01dd 48020000 		.4byte	0x248
 1844 01e1 02       		.byte	0x2
 1845 01e2 23       		.byte	0x23
 1846 01e3 30       		.uleb128 0x30
 1847 01e4 06       		.uleb128 0x6
 1848 01e5 76050000 		.4byte	.LASF37
 1849 01e9 06       		.byte	0x6
 1850 01ea BD       		.byte	0xbd
 1851 01eb E8000000 		.4byte	0xe8
 1852 01ef 02       		.byte	0x2
 1853 01f0 23       		.byte	0x23
 1854 01f1 38       		.uleb128 0x38
 1855 01f2 06       		.uleb128 0x6
 1856 01f3 68040000 		.4byte	.LASF38
 1857 01f7 06       		.byte	0x6
 1858 01f8 C3       		.byte	0xc3
 1859 01f9 F3000000 		.4byte	0xf3
 1860 01fd 02       		.byte	0x2
 1861 01fe 23       		.byte	0x23
 1862 01ff 3C       		.uleb128 0x3c
 1863 0200 06       		.uleb128 0x6
 1864 0201 1F040000 		.4byte	.LASF39
 1865 0205 06       		.byte	0x6
 1866 0206 CA       		.byte	0xca
 1867 0207 4D040000 		.4byte	0x44d
 1868 020b 02       		.byte	0x2
 1869 020c 23       		.byte	0x23
 1870 020d 40       		.uleb128 0x40
 1871 020e 06       		.uleb128 0x6
 1872 020f 04050000 		.4byte	.LASF40
 1873 0213 06       		.byte	0x6
 1874 0214 CE       		.byte	0xce
 1875 0215 DD000000 		.4byte	0xdd
 1876 0219 02       		.byte	0x2
 1877 021a 23       		.byte	0x23
 1878 021b 44       		.uleb128 0x44
 1879 021c 00       		.byte	0x0
 1880 021d 08       		.uleb128 0x8
 1881 021e 08       		.byte	0x8
 1882 021f 05       		.byte	0x5
 1883 0220 61       		.byte	0x61
 1884 0221 42020000 		.4byte	0x242
ARM GAS  C:\Users\z80\AppData\Local\Temp\ccSskHdY.s 			page 35


 1885 0225 06       		.uleb128 0x6
 1886 0226 4A040000 		.4byte	.LASF24
 1887 022a 05       		.byte	0x5
 1888 022b 62       		.byte	0x62
 1889 022c 42020000 		.4byte	0x242
 1890 0230 02       		.byte	0x2
 1891 0231 23       		.byte	0x23
 1892 0232 00       		.uleb128 0x0
 1893 0233 06       		.uleb128 0x6
 1894 0234 AE030000 		.4byte	.LASF25
 1895 0238 05       		.byte	0x5
 1896 0239 64       		.byte	0x64
 1897 023a 42020000 		.4byte	0x242
 1898 023e 02       		.byte	0x2
 1899 023f 23       		.byte	0x23
 1900 0240 04       		.uleb128 0x4
 1901 0241 00       		.byte	0x0
 1902 0242 09       		.uleb128 0x9
 1903 0243 04       		.byte	0x4
 1904 0244 09010000 		.4byte	0x109
 1905 0248 03       		.uleb128 0x3
 1906 0249 33030000 		.4byte	.LASF41
 1907 024d 05       		.byte	0x5
 1908 024e 66       		.byte	0x66
 1909 024f 1D020000 		.4byte	0x21d
 1910 0253 08       		.uleb128 0x8
 1911 0254 04       		.byte	0x4
 1912 0255 05       		.byte	0x5
 1913 0256 6B       		.byte	0x6b
 1914 0257 6A020000 		.4byte	0x26a
 1915 025b 06       		.uleb128 0x6
 1916 025c 4A040000 		.4byte	.LASF24
 1917 0260 05       		.byte	0x5
 1918 0261 6D       		.byte	0x6d
 1919 0262 42020000 		.4byte	0x242
 1920 0266 02       		.byte	0x2
 1921 0267 23       		.byte	0x23
 1922 0268 00       		.uleb128 0x0
 1923 0269 00       		.byte	0x0
 1924 026a 03       		.uleb128 0x3
 1925 026b A2020000 		.4byte	.LASF42
 1926 026f 05       		.byte	0x5
 1927 0270 70       		.byte	0x70
 1928 0271 53020000 		.4byte	0x253
 1929 0275 03       		.uleb128 0x3
 1930 0276 92010000 		.4byte	.LASF43
 1931 027a 07       		.byte	0x7
 1932 027b D7       		.byte	0xd7
 1933 027c 80020000 		.4byte	0x280
 1934 0280 0A       		.uleb128 0xa
 1935 0281 04       		.byte	0x4
 1936 0282 03       		.uleb128 0x3
 1937 0283 EB020000 		.4byte	.LASF44
 1938 0287 07       		.byte	0x7
 1939 0288 DD       		.byte	0xdd
 1940 0289 9F000000 		.4byte	0x9f
 1941 028d 05       		.uleb128 0x5
ARM GAS  C:\Users\z80\AppData\Local\Temp\ccSskHdY.s 			page 36


 1942 028e 3E050000 		.4byte	.LASF45
 1943 0292 24       		.byte	0x24
 1944 0293 07       		.byte	0x7
 1945 0294 FE       		.byte	0xfe
 1946 0295 1A030000 		.4byte	0x31a
 1947 0299 0B       		.uleb128 0xb
 1948 029a 723400   		.ascii	"r4\000"
 1949 029d 07       		.byte	0x7
 1950 029e 1101     		.2byte	0x111
 1951 02a0 75020000 		.4byte	0x275
 1952 02a4 02       		.byte	0x2
 1953 02a5 23       		.byte	0x23
 1954 02a6 00       		.uleb128 0x0
 1955 02a7 0B       		.uleb128 0xb
 1956 02a8 723500   		.ascii	"r5\000"
 1957 02ab 07       		.byte	0x7
 1958 02ac 1201     		.2byte	0x112
 1959 02ae 75020000 		.4byte	0x275
 1960 02b2 02       		.byte	0x2
 1961 02b3 23       		.byte	0x23
 1962 02b4 04       		.uleb128 0x4
 1963 02b5 0B       		.uleb128 0xb
 1964 02b6 723600   		.ascii	"r6\000"
 1965 02b9 07       		.byte	0x7
 1966 02ba 1301     		.2byte	0x113
 1967 02bc 75020000 		.4byte	0x275
 1968 02c0 02       		.byte	0x2
 1969 02c1 23       		.byte	0x23
 1970 02c2 08       		.uleb128 0x8
 1971 02c3 0B       		.uleb128 0xb
 1972 02c4 723700   		.ascii	"r7\000"
 1973 02c7 07       		.byte	0x7
 1974 02c8 1401     		.2byte	0x114
 1975 02ca 75020000 		.4byte	0x275
 1976 02ce 02       		.byte	0x2
 1977 02cf 23       		.byte	0x23
 1978 02d0 0C       		.uleb128 0xc
 1979 02d1 0B       		.uleb128 0xb
 1980 02d2 723800   		.ascii	"r8\000"
 1981 02d5 07       		.byte	0x7
 1982 02d6 1501     		.2byte	0x115
 1983 02d8 75020000 		.4byte	0x275
 1984 02dc 02       		.byte	0x2
 1985 02dd 23       		.byte	0x23
 1986 02de 10       		.uleb128 0x10
 1987 02df 0B       		.uleb128 0xb
 1988 02e0 723900   		.ascii	"r9\000"
 1989 02e3 07       		.byte	0x7
 1990 02e4 1601     		.2byte	0x116
 1991 02e6 75020000 		.4byte	0x275
 1992 02ea 02       		.byte	0x2
 1993 02eb 23       		.byte	0x23
 1994 02ec 14       		.uleb128 0x14
 1995 02ed 0B       		.uleb128 0xb
 1996 02ee 72313000 		.ascii	"r10\000"
 1997 02f2 07       		.byte	0x7
 1998 02f3 1701     		.2byte	0x117
ARM GAS  C:\Users\z80\AppData\Local\Temp\ccSskHdY.s 			page 37


 1999 02f5 75020000 		.4byte	0x275
 2000 02f9 02       		.byte	0x2
 2001 02fa 23       		.byte	0x23
 2002 02fb 18       		.uleb128 0x18
 2003 02fc 0B       		.uleb128 0xb
 2004 02fd 72313100 		.ascii	"r11\000"
 2005 0301 07       		.byte	0x7
 2006 0302 1801     		.2byte	0x118
 2007 0304 75020000 		.4byte	0x275
 2008 0308 02       		.byte	0x2
 2009 0309 23       		.byte	0x23
 2010 030a 1C       		.uleb128 0x1c
 2011 030b 0B       		.uleb128 0xb
 2012 030c 6C7200   		.ascii	"lr\000"
 2013 030f 07       		.byte	0x7
 2014 0310 1901     		.2byte	0x119
 2015 0312 75020000 		.4byte	0x275
 2016 0316 02       		.byte	0x2
 2017 0317 23       		.byte	0x23
 2018 0318 20       		.uleb128 0x20
 2019 0319 00       		.byte	0x0
 2020 031a 0C       		.uleb128 0xc
 2021 031b 30050000 		.4byte	.LASF46
 2022 031f 04       		.byte	0x4
 2023 0320 07       		.byte	0x7
 2024 0321 2301     		.2byte	0x123
 2025 0323 37030000 		.4byte	0x337
 2026 0327 0B       		.uleb128 0xb
 2027 0328 72313300 		.ascii	"r13\000"
 2028 032c 07       		.byte	0x7
 2029 032d 2401     		.2byte	0x124
 2030 032f 37030000 		.4byte	0x337
 2031 0333 02       		.byte	0x2
 2032 0334 23       		.byte	0x23
 2033 0335 00       		.uleb128 0x0
 2034 0336 00       		.byte	0x0
 2035 0337 09       		.uleb128 0x9
 2036 0338 04       		.byte	0x4
 2037 0339 8D020000 		.4byte	0x28d
 2038 033d 0D       		.uleb128 0xd
 2039 033e 86000000 		.4byte	0x86
 2040 0342 0E       		.uleb128 0xe
 2041 0343 04       		.byte	0x4
 2042 0344 07       		.byte	0x7
 2043 0345 0D       		.uleb128 0xd
 2044 0346 FE000000 		.4byte	0xfe
 2045 034a 05       		.uleb128 0x5
 2046 034b 13030000 		.4byte	.LASF47
 2047 034f 10       		.byte	0x10
 2048 0350 08       		.byte	0x8
 2049 0351 2C       		.byte	0x2c
 2050 0352 81030000 		.4byte	0x381
 2051 0356 06       		.uleb128 0x6
 2052 0357 0A010000 		.4byte	.LASF48
 2053 035b 08       		.byte	0x8
 2054 035c 2D       		.byte	0x2d
 2055 035d 48020000 		.4byte	0x248
ARM GAS  C:\Users\z80\AppData\Local\Temp\ccSskHdY.s 			page 38


 2056 0361 02       		.byte	0x2
 2057 0362 23       		.byte	0x23
 2058 0363 00       		.uleb128 0x0
 2059 0364 06       		.uleb128 0x6
 2060 0365 EC050000 		.4byte	.LASF49
 2061 0369 08       		.byte	0x8
 2062 036a 2F       		.byte	0x2f
 2063 036b 42020000 		.4byte	0x242
 2064 036f 02       		.byte	0x2
 2065 0370 23       		.byte	0x23
 2066 0371 08       		.uleb128 0x8
 2067 0372 06       		.uleb128 0x6
 2068 0373 F3040000 		.4byte	.LASF50
 2069 0377 08       		.byte	0x8
 2070 0378 31       		.byte	0x31
 2071 0379 81030000 		.4byte	0x381
 2072 037d 02       		.byte	0x2
 2073 037e 23       		.byte	0x23
 2074 037f 0C       		.uleb128 0xc
 2075 0380 00       		.byte	0x0
 2076 0381 09       		.uleb128 0x9
 2077 0382 04       		.byte	0x4
 2078 0383 4A030000 		.4byte	0x34a
 2079 0387 03       		.uleb128 0x3
 2080 0388 13030000 		.4byte	.LASF47
 2081 038c 08       		.byte	0x8
 2082 038d 33       		.byte	0x33
 2083 038e 4A030000 		.4byte	0x34a
 2084 0392 03       		.uleb128 0x3
 2085 0393 9D050000 		.4byte	.LASF51
 2086 0397 09       		.byte	0x9
 2087 0398 29       		.byte	0x29
 2088 0399 9D030000 		.4byte	0x39d
 2089 039d 05       		.uleb128 0x5
 2090 039e 9D050000 		.4byte	.LASF51
 2091 03a2 0C       		.byte	0xc
 2092 03a3 09       		.byte	0x9
 2093 03a4 2E       		.byte	0x2e
 2094 03a5 D4030000 		.4byte	0x3d4
 2095 03a9 06       		.uleb128 0x6
 2096 03aa 59040000 		.4byte	.LASF52
 2097 03ae 09       		.byte	0x9
 2098 03af 2F       		.byte	0x2f
 2099 03b0 D4030000 		.4byte	0x3d4
 2100 03b4 02       		.byte	0x2
 2101 03b5 23       		.byte	0x23
 2102 03b6 00       		.uleb128 0x0
 2103 03b7 06       		.uleb128 0x6
 2104 03b8 0B040000 		.4byte	.LASF53
 2105 03bc 09       		.byte	0x9
 2106 03bd 32       		.byte	0x32
 2107 03be 42020000 		.4byte	0x242
 2108 03c2 02       		.byte	0x2
 2109 03c3 23       		.byte	0x23
 2110 03c4 04       		.uleb128 0x4
 2111 03c5 06       		.uleb128 0x6
 2112 03c6 62030000 		.4byte	.LASF54
ARM GAS  C:\Users\z80\AppData\Local\Temp\ccSskHdY.s 			page 39


 2113 03ca 09       		.byte	0x9
 2114 03cb 34       		.byte	0x34
 2115 03cc F3000000 		.4byte	0xf3
 2116 03d0 02       		.byte	0x2
 2117 03d1 23       		.byte	0x23
 2118 03d2 08       		.uleb128 0x8
 2119 03d3 00       		.byte	0x0
 2120 03d4 09       		.uleb128 0x9
 2121 03d5 04       		.byte	0x4
 2122 03d6 92030000 		.4byte	0x392
 2123 03da 05       		.uleb128 0x5
 2124 03db 9B010000 		.4byte	.LASF55
 2125 03df 04       		.byte	0x4
 2126 03e0 09       		.byte	0x9
 2127 03e1 3C       		.byte	0x3c
 2128 03e2 F5030000 		.4byte	0x3f5
 2129 03e6 06       		.uleb128 0x6
 2130 03e7 65050000 		.4byte	.LASF56
 2131 03eb 09       		.byte	0x9
 2132 03ec 3D       		.byte	0x3d
 2133 03ed D4030000 		.4byte	0x3d4
 2134 03f1 02       		.byte	0x2
 2135 03f2 23       		.byte	0x23
 2136 03f3 00       		.uleb128 0x0
 2137 03f4 00       		.byte	0x0
 2138 03f5 03       		.uleb128 0x3
 2139 03f6 9B010000 		.4byte	.LASF55
 2140 03fa 09       		.byte	0x9
 2141 03fb 40       		.byte	0x40
 2142 03fc DA030000 		.4byte	0x3da
 2143 0400 0F       		.uleb128 0xf
 2144 0401 04       		.byte	0x4
 2145 0402 06       		.byte	0x6
 2146 0403 90       		.byte	0x90
 2147 0404 35040000 		.4byte	0x435
 2148 0408 10       		.uleb128 0x10
 2149 0409 19000000 		.4byte	.LASF57
 2150 040d 06       		.byte	0x6
 2151 040e 97       		.byte	0x97
 2152 040f E8000000 		.4byte	0xe8
 2153 0413 10       		.uleb128 0x10
 2154 0414 8A000000 		.4byte	.LASF58
 2155 0418 06       		.byte	0x6
 2156 0419 9E       		.byte	0x9e
 2157 041a E8000000 		.4byte	0xe8
 2158 041e 10       		.uleb128 0x10
 2159 041f 12010000 		.4byte	.LASF59
 2160 0423 06       		.byte	0x6
 2161 0424 A5       		.byte	0xa5
 2162 0425 80020000 		.4byte	0x280
 2163 0429 10       		.uleb128 0x10
 2164 042a 43040000 		.4byte	.LASF60
 2165 042e 06       		.byte	0x6
 2166 042f AC       		.byte	0xac
 2167 0430 F3000000 		.4byte	0xf3
 2168 0434 00       		.byte	0x0
 2169 0435 09       		.uleb128 0x9
ARM GAS  C:\Users\z80\AppData\Local\Temp\ccSskHdY.s 			page 40


 2170 0436 04       		.byte	0x4
 2171 0437 3B040000 		.4byte	0x43b
 2172 043b 11       		.uleb128 0x11
 2173 043c 40040000 		.4byte	0x440
 2174 0440 04       		.uleb128 0x4
 2175 0441 01       		.byte	0x1
 2176 0442 08       		.byte	0x8
 2177 0443 C8040000 		.4byte	.LASF61
 2178 0447 09       		.uleb128 0x9
 2179 0448 04       		.byte	0x4
 2180 0449 82020000 		.4byte	0x282
 2181 044d 09       		.uleb128 0x9
 2182 044e 04       		.byte	0x4
 2183 044f 87030000 		.4byte	0x387
 2184 0453 03       		.uleb128 0x3
 2185 0454 DE020000 		.4byte	.LASF62
 2186 0458 0A       		.byte	0xa
 2187 0459 37       		.byte	0x37
 2188 045a 5E040000 		.4byte	0x45e
 2189 045e 05       		.uleb128 0x5
 2190 045f DE020000 		.4byte	.LASF62
 2191 0463 20       		.byte	0x20
 2192 0464 0A       		.byte	0xa
 2193 0465 45       		.byte	0x45
 2194 0466 CD040000 		.4byte	0x4cd
 2195 046a 06       		.uleb128 0x6
 2196 046b C5000000 		.4byte	.LASF63
 2197 046f 0A       		.byte	0xa
 2198 0470 46       		.byte	0x46
 2199 0471 48020000 		.4byte	0x248
 2200 0475 02       		.byte	0x2
 2201 0476 23       		.byte	0x23
 2202 0477 00       		.uleb128 0x0
 2203 0478 06       		.uleb128 0x6
 2204 0479 09030000 		.4byte	.LASF64
 2205 047d 0A       		.byte	0xa
 2206 047e 47       		.byte	0x47
 2207 047f 30000000 		.4byte	0x30
 2208 0483 02       		.byte	0x2
 2209 0484 23       		.byte	0x23
 2210 0485 08       		.uleb128 0x8
 2211 0486 06       		.uleb128 0x6
 2212 0487 5E010000 		.4byte	.LASF65
 2213 048b 0A       		.byte	0xa
 2214 048c 48       		.byte	0x48
 2215 048d F0040000 		.4byte	0x4f0
 2216 0491 02       		.byte	0x2
 2217 0492 23       		.byte	0x23
 2218 0493 0C       		.uleb128 0xc
 2219 0494 06       		.uleb128 0x6
 2220 0495 58050000 		.4byte	.LASF66
 2221 0499 0A       		.byte	0xa
 2222 049a 49       		.byte	0x49
 2223 049b F0040000 		.4byte	0x4f0
 2224 049f 02       		.byte	0x2
 2225 04a0 23       		.byte	0x23
 2226 04a1 10       		.uleb128 0x10
ARM GAS  C:\Users\z80\AppData\Local\Temp\ccSskHdY.s 			page 41


 2227 04a2 06       		.uleb128 0x6
 2228 04a3 67010000 		.4byte	.LASF67
 2229 04a7 0A       		.byte	0xa
 2230 04a8 4B       		.byte	0x4b
 2231 04a9 F0040000 		.4byte	0x4f0
 2232 04ad 02       		.byte	0x2
 2233 04ae 23       		.byte	0x23
 2234 04af 14       		.uleb128 0x14
 2235 04b0 06       		.uleb128 0x6
 2236 04b1 D0030000 		.4byte	.LASF68
 2237 04b5 0A       		.byte	0xa
 2238 04b6 4C       		.byte	0x4c
 2239 04b7 F0040000 		.4byte	0x4f0
 2240 04bb 02       		.byte	0x2
 2241 04bc 23       		.byte	0x23
 2242 04bd 18       		.uleb128 0x18
 2243 04be 06       		.uleb128 0x6
 2244 04bf 6D050000 		.4byte	.LASF69
 2245 04c3 0A       		.byte	0xa
 2246 04c4 4D       		.byte	0x4d
 2247 04c5 CD040000 		.4byte	0x4cd
 2248 04c9 02       		.byte	0x2
 2249 04ca 23       		.byte	0x23
 2250 04cb 1C       		.uleb128 0x1c
 2251 04cc 00       		.byte	0x0
 2252 04cd 03       		.uleb128 0x3
 2253 04ce C5020000 		.4byte	.LASF70
 2254 04d2 0A       		.byte	0xa
 2255 04d3 3A       		.byte	0x3a
 2256 04d4 D8040000 		.4byte	0x4d8
 2257 04d8 09       		.uleb128 0x9
 2258 04d9 04       		.byte	0x4
 2259 04da DE040000 		.4byte	0x4de
 2260 04de 12       		.uleb128 0x12
 2261 04df 01       		.byte	0x1
 2262 04e0 EA040000 		.4byte	0x4ea
 2263 04e4 13       		.uleb128 0x13
 2264 04e5 EA040000 		.4byte	0x4ea
 2265 04e9 00       		.byte	0x0
 2266 04ea 09       		.uleb128 0x9
 2267 04eb 04       		.byte	0x4
 2268 04ec 53040000 		.4byte	0x453
 2269 04f0 09       		.uleb128 0x9
 2270 04f1 04       		.byte	0x4
 2271 04f2 49000000 		.4byte	0x49
 2272 04f6 03       		.uleb128 0x3
 2273 04f7 BA020000 		.4byte	.LASF71
 2274 04fb 0A       		.byte	0xa
 2275 04fc 76       		.byte	0x76
 2276 04fd 53040000 		.4byte	0x453
 2277 0501 03       		.uleb128 0x3
 2278 0502 2F000000 		.4byte	.LASF72
 2279 0506 0A       		.byte	0xa
 2280 0507 E6       		.byte	0xe6
 2281 0508 53040000 		.4byte	0x453
 2282 050c 14       		.uleb128 0x14
 2283 050d 01       		.byte	0x1
ARM GAS  C:\Users\z80\AppData\Local\Temp\ccSskHdY.s 			page 42


 2284 050e 30000000 		.4byte	0x30
 2285 0512 26050000 		.4byte	0x526
 2286 0516 13       		.uleb128 0x13
 2287 0517 80020000 		.4byte	0x280
 2288 051b 13       		.uleb128 0x13
 2289 051c 26050000 		.4byte	0x526
 2290 0520 13       		.uleb128 0x13
 2291 0521 30000000 		.4byte	0x30
 2292 0525 00       		.byte	0x0
 2293 0526 09       		.uleb128 0x9
 2294 0527 04       		.byte	0x4
 2295 0528 2C050000 		.4byte	0x52c
 2296 052c 11       		.uleb128 0x11
 2297 052d 49000000 		.4byte	0x49
 2298 0531 09       		.uleb128 0x9
 2299 0532 04       		.byte	0x4
 2300 0533 0C050000 		.4byte	0x50c
 2301 0537 14       		.uleb128 0x14
 2302 0538 01       		.byte	0x1
 2303 0539 30000000 		.4byte	0x30
 2304 053d 51050000 		.4byte	0x551
 2305 0541 13       		.uleb128 0x13
 2306 0542 80020000 		.4byte	0x280
 2307 0546 13       		.uleb128 0x13
 2308 0547 F0040000 		.4byte	0x4f0
 2309 054b 13       		.uleb128 0x13
 2310 054c 30000000 		.4byte	0x30
 2311 0550 00       		.byte	0x0
 2312 0551 09       		.uleb128 0x9
 2313 0552 04       		.byte	0x4
 2314 0553 37050000 		.4byte	0x537
 2315 0557 14       		.uleb128 0x14
 2316 0558 01       		.byte	0x1
 2317 0559 BC000000 		.4byte	0xbc
 2318 055d 67050000 		.4byte	0x567
 2319 0561 13       		.uleb128 0x13
 2320 0562 80020000 		.4byte	0x280
 2321 0566 00       		.byte	0x0
 2322 0567 09       		.uleb128 0x9
 2323 0568 04       		.byte	0x4
 2324 0569 57050000 		.4byte	0x557
 2325 056d 14       		.uleb128 0x14
 2326 056e 01       		.byte	0x1
 2327 056f E8000000 		.4byte	0xe8
 2328 0573 87050000 		.4byte	0x587
 2329 0577 13       		.uleb128 0x13
 2330 0578 80020000 		.4byte	0x280
 2331 057c 13       		.uleb128 0x13
 2332 057d 49000000 		.4byte	0x49
 2333 0581 13       		.uleb128 0x13
 2334 0582 FE000000 		.4byte	0xfe
 2335 0586 00       		.byte	0x0
 2336 0587 09       		.uleb128 0x9
 2337 0588 04       		.byte	0x4
 2338 0589 6D050000 		.4byte	0x56d
 2339 058d 14       		.uleb128 0x14
 2340 058e 01       		.byte	0x1
ARM GAS  C:\Users\z80\AppData\Local\Temp\ccSskHdY.s 			page 43


 2341 058f E8000000 		.4byte	0xe8
 2342 0593 A2050000 		.4byte	0x5a2
 2343 0597 13       		.uleb128 0x13
 2344 0598 80020000 		.4byte	0x280
 2345 059c 13       		.uleb128 0x13
 2346 059d FE000000 		.4byte	0xfe
 2347 05a1 00       		.byte	0x0
 2348 05a2 09       		.uleb128 0x9
 2349 05a3 04       		.byte	0x4
 2350 05a4 8D050000 		.4byte	0x58d
 2351 05a8 14       		.uleb128 0x14
 2352 05a9 01       		.byte	0x1
 2353 05aa 30000000 		.4byte	0x30
 2354 05ae C7050000 		.4byte	0x5c7
 2355 05b2 13       		.uleb128 0x13
 2356 05b3 80020000 		.4byte	0x280
 2357 05b7 13       		.uleb128 0x13
 2358 05b8 26050000 		.4byte	0x526
 2359 05bc 13       		.uleb128 0x13
 2360 05bd 30000000 		.4byte	0x30
 2361 05c1 13       		.uleb128 0x13
 2362 05c2 FE000000 		.4byte	0xfe
 2363 05c6 00       		.byte	0x0
 2364 05c7 09       		.uleb128 0x9
 2365 05c8 04       		.byte	0x4
 2366 05c9 A8050000 		.4byte	0x5a8
 2367 05cd 14       		.uleb128 0x14
 2368 05ce 01       		.byte	0x1
 2369 05cf 30000000 		.4byte	0x30
 2370 05d3 EC050000 		.4byte	0x5ec
 2371 05d7 13       		.uleb128 0x13
 2372 05d8 80020000 		.4byte	0x280
 2373 05dc 13       		.uleb128 0x13
 2374 05dd F0040000 		.4byte	0x4f0
 2375 05e1 13       		.uleb128 0x13
 2376 05e2 30000000 		.4byte	0x30
 2377 05e6 13       		.uleb128 0x13
 2378 05e7 FE000000 		.4byte	0xfe
 2379 05eb 00       		.byte	0x0
 2380 05ec 09       		.uleb128 0x9
 2381 05ed 04       		.byte	0x4
 2382 05ee CD050000 		.4byte	0x5cd
 2383 05f2 15       		.uleb128 0x15
 2384 05f3 29030000 		.4byte	.LASF73
 2385 05f7 0B       		.byte	0xb
 2386 05f8 0B01     		.2byte	0x10b
 2387 05fa B1000000 		.4byte	0xb1
 2388 05fe 14       		.uleb128 0x14
 2389 05ff 01       		.byte	0x1
 2390 0600 F2050000 		.4byte	0x5f2
 2391 0604 0E060000 		.4byte	0x60e
 2392 0608 13       		.uleb128 0x13
 2393 0609 80020000 		.4byte	0x280
 2394 060d 00       		.byte	0x0
 2395 060e 09       		.uleb128 0x9
 2396 060f 04       		.byte	0x4
 2397 0610 FE050000 		.4byte	0x5fe
ARM GAS  C:\Users\z80\AppData\Local\Temp\ccSskHdY.s 			page 44


 2398 0614 03       		.uleb128 0x3
 2399 0615 3B000000 		.4byte	.LASF74
 2400 0619 0C       		.byte	0xc
 2401 061a 0B       		.byte	0xb
 2402 061b 1F060000 		.4byte	0x61f
 2403 061f 09       		.uleb128 0x9
 2404 0620 04       		.byte	0x4
 2405 0621 25060000 		.4byte	0x625
 2406 0625 12       		.uleb128 0x12
 2407 0626 01       		.byte	0x1
 2408 0627 31060000 		.4byte	0x631
 2409 062b 13       		.uleb128 0x13
 2410 062c F0040000 		.4byte	0x4f0
 2411 0630 00       		.byte	0x0
 2412 0631 0D       		.uleb128 0xd
 2413 0632 62000000 		.4byte	0x62
 2414 0636 0D       		.uleb128 0xd
 2415 0637 74000000 		.4byte	0x74
 2416 063b 16       		.uleb128 0x16
 2417 063c 1C       		.byte	0x1c
 2418 063d 0D       		.byte	0xd
 2419 063e F803     		.2byte	0x3f8
 2420 0640 AE060000 		.4byte	0x6ae
 2421 0644 0B       		.uleb128 0xb
 2422 0645 43524C00 		.ascii	"CRL\000"
 2423 0649 0D       		.byte	0xd
 2424 064a FA03     		.2byte	0x3fa
 2425 064c 3D030000 		.4byte	0x33d
 2426 0650 02       		.byte	0x2
 2427 0651 23       		.byte	0x23
 2428 0652 00       		.uleb128 0x0
 2429 0653 0B       		.uleb128 0xb
 2430 0654 43524800 		.ascii	"CRH\000"
 2431 0658 0D       		.byte	0xd
 2432 0659 FB03     		.2byte	0x3fb
 2433 065b 3D030000 		.4byte	0x33d
 2434 065f 02       		.byte	0x2
 2435 0660 23       		.byte	0x23
 2436 0661 04       		.uleb128 0x4
 2437 0662 0B       		.uleb128 0xb
 2438 0663 49445200 		.ascii	"IDR\000"
 2439 0667 0D       		.byte	0xd
 2440 0668 FC03     		.2byte	0x3fc
 2441 066a 3D030000 		.4byte	0x33d
 2442 066e 02       		.byte	0x2
 2443 066f 23       		.byte	0x23
 2444 0670 08       		.uleb128 0x8
 2445 0671 0B       		.uleb128 0xb
 2446 0672 4F445200 		.ascii	"ODR\000"
 2447 0676 0D       		.byte	0xd
 2448 0677 FD03     		.2byte	0x3fd
 2449 0679 3D030000 		.4byte	0x33d
 2450 067d 02       		.byte	0x2
 2451 067e 23       		.byte	0x23
 2452 067f 0C       		.uleb128 0xc
 2453 0680 17       		.uleb128 0x17
 2454 0681 E9000000 		.4byte	.LASF75
ARM GAS  C:\Users\z80\AppData\Local\Temp\ccSskHdY.s 			page 45


 2455 0685 0D       		.byte	0xd
 2456 0686 FE03     		.2byte	0x3fe
 2457 0688 3D030000 		.4byte	0x33d
 2458 068c 02       		.byte	0x2
 2459 068d 23       		.byte	0x23
 2460 068e 10       		.uleb128 0x10
 2461 068f 0B       		.uleb128 0xb
 2462 0690 42525200 		.ascii	"BRR\000"
 2463 0694 0D       		.byte	0xd
 2464 0695 FF03     		.2byte	0x3ff
 2465 0697 3D030000 		.4byte	0x33d
 2466 069b 02       		.byte	0x2
 2467 069c 23       		.byte	0x23
 2468 069d 14       		.uleb128 0x14
 2469 069e 17       		.uleb128 0x17
 2470 069f 26020000 		.4byte	.LASF76
 2471 06a3 0D       		.byte	0xd
 2472 06a4 0004     		.2byte	0x400
 2473 06a6 3D030000 		.4byte	0x33d
 2474 06aa 02       		.byte	0x2
 2475 06ab 23       		.byte	0x23
 2476 06ac 18       		.uleb128 0x18
 2477 06ad 00       		.byte	0x0
 2478 06ae 15       		.uleb128 0x15
 2479 06af 85010000 		.4byte	.LASF77
 2480 06b3 0D       		.byte	0xd
 2481 06b4 0104     		.2byte	0x401
 2482 06b6 3B060000 		.4byte	0x63b
 2483 06ba 16       		.uleb128 0x16
 2484 06bb 1C       		.byte	0x1c
 2485 06bc 0D       		.byte	0xd
 2486 06bd E104     		.2byte	0x4e1
 2487 06bf 94070000 		.4byte	0x794
 2488 06c3 0B       		.uleb128 0xb
 2489 06c4 535200   		.ascii	"SR\000"
 2490 06c7 0D       		.byte	0xd
 2491 06c8 E304     		.2byte	0x4e3
 2492 06ca 31060000 		.4byte	0x631
 2493 06ce 02       		.byte	0x2
 2494 06cf 23       		.byte	0x23
 2495 06d0 00       		.uleb128 0x0
 2496 06d1 17       		.uleb128 0x17
 2497 06d2 7C030000 		.4byte	.LASF78
 2498 06d6 0D       		.byte	0xd
 2499 06d7 E404     		.2byte	0x4e4
 2500 06d9 62000000 		.4byte	0x62
 2501 06dd 02       		.byte	0x2
 2502 06de 23       		.byte	0x23
 2503 06df 02       		.uleb128 0x2
 2504 06e0 0B       		.uleb128 0xb
 2505 06e1 445200   		.ascii	"DR\000"
 2506 06e4 0D       		.byte	0xd
 2507 06e5 E504     		.2byte	0x4e5
 2508 06e7 31060000 		.4byte	0x631
 2509 06eb 02       		.byte	0x2
 2510 06ec 23       		.byte	0x23
 2511 06ed 04       		.uleb128 0x4
ARM GAS  C:\Users\z80\AppData\Local\Temp\ccSskHdY.s 			page 46


 2512 06ee 17       		.uleb128 0x17
 2513 06ef 86030000 		.4byte	.LASF79
 2514 06f3 0D       		.byte	0xd
 2515 06f4 E604     		.2byte	0x4e6
 2516 06f6 62000000 		.4byte	0x62
 2517 06fa 02       		.byte	0x2
 2518 06fb 23       		.byte	0x23
 2519 06fc 06       		.uleb128 0x6
 2520 06fd 0B       		.uleb128 0xb
 2521 06fe 42525200 		.ascii	"BRR\000"
 2522 0702 0D       		.byte	0xd
 2523 0703 E704     		.2byte	0x4e7
 2524 0705 31060000 		.4byte	0x631
 2525 0709 02       		.byte	0x2
 2526 070a 23       		.byte	0x23
 2527 070b 08       		.uleb128 0x8
 2528 070c 17       		.uleb128 0x17
 2529 070d 90030000 		.4byte	.LASF80
 2530 0711 0D       		.byte	0xd
 2531 0712 E804     		.2byte	0x4e8
 2532 0714 62000000 		.4byte	0x62
 2533 0718 02       		.byte	0x2
 2534 0719 23       		.byte	0x23
 2535 071a 0A       		.uleb128 0xa
 2536 071b 0B       		.uleb128 0xb
 2537 071c 43523100 		.ascii	"CR1\000"
 2538 0720 0D       		.byte	0xd
 2539 0721 E904     		.2byte	0x4e9
 2540 0723 31060000 		.4byte	0x631
 2541 0727 02       		.byte	0x2
 2542 0728 23       		.byte	0x23
 2543 0729 0C       		.uleb128 0xc
 2544 072a 17       		.uleb128 0x17
 2545 072b 9A030000 		.4byte	.LASF81
 2546 072f 0D       		.byte	0xd
 2547 0730 EA04     		.2byte	0x4ea
 2548 0732 62000000 		.4byte	0x62
 2549 0736 02       		.byte	0x2
 2550 0737 23       		.byte	0x23
 2551 0738 0E       		.uleb128 0xe
 2552 0739 0B       		.uleb128 0xb
 2553 073a 43523200 		.ascii	"CR2\000"
 2554 073e 0D       		.byte	0xd
 2555 073f EB04     		.2byte	0x4eb
 2556 0741 31060000 		.4byte	0x631
 2557 0745 02       		.byte	0x2
 2558 0746 23       		.byte	0x23
 2559 0747 10       		.uleb128 0x10
 2560 0748 17       		.uleb128 0x17
 2561 0749 A4030000 		.4byte	.LASF82
 2562 074d 0D       		.byte	0xd
 2563 074e EC04     		.2byte	0x4ec
 2564 0750 62000000 		.4byte	0x62
 2565 0754 02       		.byte	0x2
 2566 0755 23       		.byte	0x23
 2567 0756 12       		.uleb128 0x12
 2568 0757 0B       		.uleb128 0xb
ARM GAS  C:\Users\z80\AppData\Local\Temp\ccSskHdY.s 			page 47


 2569 0758 43523300 		.ascii	"CR3\000"
 2570 075c 0D       		.byte	0xd
 2571 075d ED04     		.2byte	0x4ed
 2572 075f 31060000 		.4byte	0x631
 2573 0763 02       		.byte	0x2
 2574 0764 23       		.byte	0x23
 2575 0765 14       		.uleb128 0x14
 2576 0766 17       		.uleb128 0x17
 2577 0767 7D040000 		.4byte	.LASF83
 2578 076b 0D       		.byte	0xd
 2579 076c EE04     		.2byte	0x4ee
 2580 076e 62000000 		.4byte	0x62
 2581 0772 02       		.byte	0x2
 2582 0773 23       		.byte	0x23
 2583 0774 16       		.uleb128 0x16
 2584 0775 17       		.uleb128 0x17
 2585 0776 EE000000 		.4byte	.LASF84
 2586 077a 0D       		.byte	0xd
 2587 077b EF04     		.2byte	0x4ef
 2588 077d 31060000 		.4byte	0x631
 2589 0781 02       		.byte	0x2
 2590 0782 23       		.byte	0x23
 2591 0783 18       		.uleb128 0x18
 2592 0784 17       		.uleb128 0x17
 2593 0785 87040000 		.4byte	.LASF85
 2594 0789 0D       		.byte	0xd
 2595 078a F004     		.2byte	0x4f0
 2596 078c 62000000 		.4byte	0x62
 2597 0790 02       		.byte	0x2
 2598 0791 23       		.byte	0x23
 2599 0792 1A       		.uleb128 0x1a
 2600 0793 00       		.byte	0x0
 2601 0794 15       		.uleb128 0x15
 2602 0795 85020000 		.4byte	.LASF86
 2603 0799 0D       		.byte	0xd
 2604 079a F104     		.2byte	0x4f1
 2605 079c BA060000 		.4byte	0x6ba
 2606 07a0 03       		.uleb128 0x3
 2607 07a1 4F000000 		.4byte	.LASF87
 2608 07a5 0E       		.byte	0xe
 2609 07a6 78       		.byte	0x78
 2610 07a7 86000000 		.4byte	0x86
 2611 07ab 18       		.uleb128 0x18
 2612 07ac 01       		.byte	0x1
 2613 07ad 0F       		.byte	0xf
 2614 07ae 64       		.byte	0x64
 2615 07af C6070000 		.4byte	0x7c6
 2616 07b3 19       		.uleb128 0x19
 2617 07b4 73040000 		.4byte	.LASF88
 2618 07b8 00       		.sleb128 0
 2619 07b9 19       		.uleb128 0x19
 2620 07ba F3000000 		.4byte	.LASF89
 2621 07be 01       		.sleb128 1
 2622 07bf 19       		.uleb128 0x19
 2623 07c0 45050000 		.4byte	.LASF90
 2624 07c4 02       		.sleb128 2
 2625 07c5 00       		.byte	0x0
ARM GAS  C:\Users\z80\AppData\Local\Temp\ccSskHdY.s 			page 48


 2626 07c6 03       		.uleb128 0x3
 2627 07c7 9A040000 		.4byte	.LASF91
 2628 07cb 0F       		.byte	0xf
 2629 07cc 68       		.byte	0x68
 2630 07cd AB070000 		.4byte	0x7ab
 2631 07d1 03       		.uleb128 0x3
 2632 07d2 A4040000 		.4byte	.LASF92
 2633 07d6 0F       		.byte	0xf
 2634 07d7 6D       		.byte	0x6d
 2635 07d8 DC070000 		.4byte	0x7dc
 2636 07dc 1A       		.uleb128 0x1a
 2637 07dd A4040000 		.4byte	.LASF92
 2638 07e1 5404     		.2byte	0x454
 2639 07e3 0F       		.byte	0xf
 2640 07e4 87       		.byte	0x87
 2641 07e5 68080000 		.4byte	0x868
 2642 07e9 07       		.uleb128 0x7
 2643 07ea 766D7400 		.ascii	"vmt\000"
 2644 07ee 0F       		.byte	0xf
 2645 07ef 89       		.byte	0x89
 2646 07f0 3F090000 		.4byte	0x93f
 2647 07f4 02       		.byte	0x2
 2648 07f5 23       		.byte	0x23
 2649 07f6 00       		.uleb128 0x0
 2650 07f7 06       		.uleb128 0x6
 2651 07f8 44020000 		.4byte	.LASF93
 2652 07fc 0F       		.byte	0xf
 2653 07fd 8A       		.byte	0x8a
 2654 07fe F5030000 		.4byte	0x3f5
 2655 0802 02       		.byte	0x2
 2656 0803 23       		.byte	0x23
 2657 0804 04       		.uleb128 0x4
 2658 0805 06       		.uleb128 0x6
 2659 0806 97050000 		.4byte	.LASF94
 2660 080a 0F       		.byte	0xf
 2661 080b 8A       		.byte	0x8a
 2662 080c F2050000 		.4byte	0x5f2
 2663 0810 02       		.byte	0x2
 2664 0811 23       		.byte	0x23
 2665 0812 08       		.uleb128 0x8
 2666 0813 06       		.uleb128 0x6
 2667 0814 46010000 		.4byte	.LASF95
 2668 0818 0F       		.byte	0xf
 2669 0819 8A       		.byte	0x8a
 2670 081a C6070000 		.4byte	0x7c6
 2671 081e 02       		.byte	0x2
 2672 081f 23       		.byte	0x23
 2673 0820 0C       		.uleb128 0xc
 2674 0821 06       		.uleb128 0x6
 2675 0822 0F020000 		.4byte	.LASF96
 2676 0826 0F       		.byte	0xf
 2677 0827 8A       		.byte	0x8a
 2678 0828 F6040000 		.4byte	0x4f6
 2679 082c 02       		.byte	0x2
 2680 082d 23       		.byte	0x23
 2681 082e 10       		.uleb128 0x10
 2682 082f 06       		.uleb128 0x6
ARM GAS  C:\Users\z80\AppData\Local\Temp\ccSskHdY.s 			page 49


 2683 0830 6D020000 		.4byte	.LASF97
 2684 0834 0F       		.byte	0xf
 2685 0835 8A       		.byte	0x8a
 2686 0836 01050000 		.4byte	0x501
 2687 083a 02       		.byte	0x2
 2688 083b 23       		.byte	0x23
 2689 083c 30       		.uleb128 0x30
 2690 083d 07       		.uleb128 0x7
 2691 083e 696200   		.ascii	"ib\000"
 2692 0841 0F       		.byte	0xf
 2693 0842 8A       		.byte	0x8a
 2694 0843 4A090000 		.4byte	0x94a
 2695 0847 02       		.byte	0x2
 2696 0848 23       		.byte	0x23
 2697 0849 50       		.uleb128 0x50
 2698 084a 07       		.uleb128 0x7
 2699 084b 6F6200   		.ascii	"ob\000"
 2700 084e 0F       		.byte	0xf
 2701 084f 8A       		.byte	0x8a
 2702 0850 4A090000 		.4byte	0x94a
 2703 0854 03       		.byte	0x3
 2704 0855 23       		.byte	0x23
 2705 0856 D004     		.uleb128 0x250
 2706 0858 06       		.uleb128 0x6
 2707 0859 BD010000 		.4byte	.LASF98
 2708 085d 0F       		.byte	0xf
 2709 085e 8A       		.byte	0x8a
 2710 085f 5B090000 		.4byte	0x95b
 2711 0863 03       		.byte	0x3
 2712 0864 23       		.byte	0x23
 2713 0865 D008     		.uleb128 0x450
 2714 0867 00       		.byte	0x0
 2715 0868 08       		.uleb128 0x8
 2716 0869 0C       		.byte	0xc
 2717 086a 10       		.byte	0x10
 2718 086b C4       		.byte	0xc4
 2719 086c A9080000 		.4byte	0x8a9
 2720 0870 06       		.uleb128 0x6
 2721 0871 09000000 		.4byte	.LASF99
 2722 0875 10       		.byte	0x10
 2723 0876 C8       		.byte	0xc8
 2724 0877 86000000 		.4byte	0x86
 2725 087b 02       		.byte	0x2
 2726 087c 23       		.byte	0x23
 2727 087d 00       		.uleb128 0x0
 2728 087e 06       		.uleb128 0x6
 2729 087f D2050000 		.4byte	.LASF100
 2730 0883 10       		.byte	0x10
 2731 0884 CC       		.byte	0xcc
 2732 0885 62000000 		.4byte	0x62
 2733 0889 02       		.byte	0x2
 2734 088a 23       		.byte	0x23
 2735 088b 04       		.uleb128 0x4
 2736 088c 06       		.uleb128 0x6
 2737 088d D9050000 		.4byte	.LASF101
 2738 0891 10       		.byte	0x10
 2739 0892 D0       		.byte	0xd0
ARM GAS  C:\Users\z80\AppData\Local\Temp\ccSskHdY.s 			page 50


 2740 0893 62000000 		.4byte	0x62
 2741 0897 02       		.byte	0x2
 2742 0898 23       		.byte	0x23
 2743 0899 06       		.uleb128 0x6
 2744 089a 06       		.uleb128 0x6
 2745 089b E0050000 		.4byte	.LASF102
 2746 089f 10       		.byte	0x10
 2747 08a0 D4       		.byte	0xd4
 2748 08a1 62000000 		.4byte	0x62
 2749 08a5 02       		.byte	0x2
 2750 08a6 23       		.byte	0x23
 2751 08a7 08       		.uleb128 0x8
 2752 08a8 00       		.byte	0x0
 2753 08a9 03       		.uleb128 0x3
 2754 08aa 6A030000 		.4byte	.LASF103
 2755 08ae 10       		.byte	0x10
 2756 08af D5       		.byte	0xd5
 2757 08b0 68080000 		.4byte	0x868
 2758 08b4 05       		.uleb128 0x5
 2759 08b5 DD010000 		.4byte	.LASF104
 2760 08b9 24       		.byte	0x24
 2761 08ba 0F       		.byte	0xf
 2762 08bb 7C       		.byte	0x7c
 2763 08bc 3F090000 		.4byte	0x93f
 2764 08c0 06       		.uleb128 0x6
 2765 08c1 03030000 		.4byte	.LASF105
 2766 08c5 0F       		.byte	0xf
 2767 08c6 7D       		.byte	0x7d
 2768 08c7 31050000 		.4byte	0x531
 2769 08cb 02       		.byte	0x2
 2770 08cc 23       		.byte	0x23
 2771 08cd 00       		.uleb128 0x0
 2772 08ce 06       		.uleb128 0x6
 2773 08cf C3040000 		.4byte	.LASF106
 2774 08d3 0F       		.byte	0xf
 2775 08d4 7D       		.byte	0x7d
 2776 08d5 51050000 		.4byte	0x551
 2777 08d9 02       		.byte	0x2
 2778 08da 23       		.byte	0x23
 2779 08db 04       		.uleb128 0x4
 2780 08dc 06       		.uleb128 0x6
 2781 08dd 77010000 		.4byte	.LASF107
 2782 08e1 0F       		.byte	0xf
 2783 08e2 7D       		.byte	0x7d
 2784 08e3 67050000 		.4byte	0x567
 2785 08e7 02       		.byte	0x2
 2786 08e8 23       		.byte	0x23
 2787 08e9 08       		.uleb128 0x8
 2788 08ea 06       		.uleb128 0x6
 2789 08eb C4050000 		.4byte	.LASF108
 2790 08ef 0F       		.byte	0xf
 2791 08f0 7D       		.byte	0x7d
 2792 08f1 67050000 		.4byte	0x567
 2793 08f5 02       		.byte	0x2
 2794 08f6 23       		.byte	0x23
 2795 08f7 0C       		.uleb128 0xc
 2796 08f8 07       		.uleb128 0x7
ARM GAS  C:\Users\z80\AppData\Local\Temp\ccSskHdY.s 			page 51


 2797 08f9 70757400 		.ascii	"put\000"
 2798 08fd 0F       		.byte	0xf
 2799 08fe 7D       		.byte	0x7d
 2800 08ff 87050000 		.4byte	0x587
 2801 0903 02       		.byte	0x2
 2802 0904 23       		.byte	0x23
 2803 0905 10       		.uleb128 0x10
 2804 0906 07       		.uleb128 0x7
 2805 0907 67657400 		.ascii	"get\000"
 2806 090b 0F       		.byte	0xf
 2807 090c 7D       		.byte	0x7d
 2808 090d A2050000 		.4byte	0x5a2
 2809 0911 02       		.byte	0x2
 2810 0912 23       		.byte	0x23
 2811 0913 14       		.uleb128 0x14
 2812 0914 06       		.uleb128 0x6
 2813 0915 93020000 		.4byte	.LASF109
 2814 0919 0F       		.byte	0xf
 2815 091a 7D       		.byte	0x7d
 2816 091b C7050000 		.4byte	0x5c7
 2817 091f 02       		.byte	0x2
 2818 0920 23       		.byte	0x23
 2819 0921 18       		.uleb128 0x18
 2820 0922 06       		.uleb128 0x6
 2821 0923 BF000000 		.4byte	.LASF110
 2822 0927 0F       		.byte	0xf
 2823 0928 7D       		.byte	0x7d
 2824 0929 EC050000 		.4byte	0x5ec
 2825 092d 02       		.byte	0x2
 2826 092e 23       		.byte	0x23
 2827 092f 1C       		.uleb128 0x1c
 2828 0930 06       		.uleb128 0x6
 2829 0931 27050000 		.4byte	.LASF111
 2830 0935 0F       		.byte	0xf
 2831 0936 7D       		.byte	0x7d
 2832 0937 0E060000 		.4byte	0x60e
 2833 093b 02       		.byte	0x2
 2834 093c 23       		.byte	0x23
 2835 093d 20       		.uleb128 0x20
 2836 093e 00       		.byte	0x0
 2837 093f 09       		.uleb128 0x9
 2838 0940 04       		.byte	0x4
 2839 0941 45090000 		.4byte	0x945
 2840 0945 11       		.uleb128 0x11
 2841 0946 B4080000 		.4byte	0x8b4
 2842 094a 1B       		.uleb128 0x1b
 2843 094b 49000000 		.4byte	0x49
 2844 094f 5B090000 		.4byte	0x95b
 2845 0953 1C       		.uleb128 0x1c
 2846 0954 42030000 		.4byte	0x342
 2847 0958 FF01     		.2byte	0x1ff
 2848 095a 00       		.byte	0x0
 2849 095b 09       		.uleb128 0x9
 2850 095c 04       		.byte	0x4
 2851 095d 94070000 		.4byte	0x794
 2852 0961 1D       		.uleb128 0x1d
 2853 0962 2B020000 		.4byte	.LASF114
ARM GAS  C:\Users\z80\AppData\Local\Temp\ccSskHdY.s 			page 52


 2854 0966 01       		.byte	0x1
 2855 0967 A3       		.byte	0xa3
 2856 0968 01       		.byte	0x1
 2857 0969 01       		.byte	0x1
 2858 096a 85090000 		.4byte	0x985
 2859 096e 1E       		.uleb128 0x1e
 2860 096f 8C050000 		.4byte	.LASF112
 2861 0973 01       		.byte	0x1
 2862 0974 A5       		.byte	0xa5
 2863 0975 29000000 		.4byte	0x29
 2864 0979 1E       		.uleb128 0x1e
 2865 097a C7030000 		.4byte	.LASF113
 2866 097e 01       		.byte	0x1
 2867 097f A7       		.byte	0xa7
 2868 0980 29000000 		.4byte	0x29
 2869 0984 00       		.byte	0x0
 2870 0985 1D       		.uleb128 0x1d
 2871 0986 33040000 		.4byte	.LASF115
 2872 098a 01       		.byte	0x1
 2873 098b 6B       		.byte	0x6b
 2874 098c 01       		.byte	0x1
 2875 098d 01       		.byte	0x1
 2876 098e C7090000 		.4byte	0x9c7
 2877 0992 1F       		.uleb128 0x1f
 2878 0993 62756600 		.ascii	"buf\000"
 2879 0997 01       		.byte	0x1
 2880 0998 6B       		.byte	0x6b
 2881 0999 F0040000 		.4byte	0x4f0
 2882 099d 1F       		.uleb128 0x1f
 2883 099e 737A00   		.ascii	"sz\000"
 2884 09a1 01       		.byte	0x1
 2885 09a2 6B       		.byte	0x6b
 2886 09a3 29000000 		.4byte	0x29
 2887 09a7 20       		.uleb128 0x20
 2888 09a8 6900     		.ascii	"i\000"
 2889 09aa 01       		.byte	0x1
 2890 09ab 6D       		.byte	0x6d
 2891 09ac 29000000 		.4byte	0x29
 2892 09b0 20       		.uleb128 0x20
 2893 09b1 636D6400 		.ascii	"cmd\000"
 2894 09b5 01       		.byte	0x1
 2895 09b6 6E       		.byte	0x6e
 2896 09b7 49000000 		.4byte	0x49
 2897 09bb 1E       		.uleb128 0x1e
 2898 09bc 22050000 		.4byte	.LASF116
 2899 09c0 01       		.byte	0x1
 2900 09c1 70       		.byte	0x70
 2901 09c2 F0040000 		.4byte	0x4f0
 2902 09c6 00       		.byte	0x0
 2903 09c7 21       		.uleb128 0x21
 2904 09c8 05020000 		.4byte	.LASF117
 2905 09cc 01       		.byte	0x1
 2906 09cd 1701     		.2byte	0x117
 2907 09cf 01       		.byte	0x1
 2908 09d0 00000000 		.4byte	.LFB76
 2909 09d4 02000000 		.4byte	.LFE76
 2910 09d8 02       		.byte	0x2
ARM GAS  C:\Users\z80\AppData\Local\Temp\ccSskHdY.s 			page 53


 2911 09d9 7D       		.byte	0x7d
 2912 09da 00       		.sleb128 0
 2913 09db EE090000 		.4byte	0x9ee
 2914 09df 22       		.uleb128 0x22
 2915 09e0 E7050000 		.4byte	.LASF119
 2916 09e4 01       		.byte	0x1
 2917 09e5 1701     		.2byte	0x117
 2918 09e7 F0040000 		.4byte	0x4f0
 2919 09eb 01       		.byte	0x1
 2920 09ec 50       		.byte	0x50
 2921 09ed 00       		.byte	0x0
 2922 09ee 21       		.uleb128 0x21
 2923 09ef 41000000 		.4byte	.LASF118
 2924 09f3 01       		.byte	0x1
 2925 09f4 1D01     		.2byte	0x11d
 2926 09f6 01       		.byte	0x1
 2927 09f7 00000000 		.4byte	.LFB77
 2928 09fb 02000000 		.4byte	.LFE77
 2929 09ff 02       		.byte	0x2
 2930 0a00 7D       		.byte	0x7d
 2931 0a01 00       		.sleb128 0
 2932 0a02 150A0000 		.4byte	0xa15
 2933 0a06 22       		.uleb128 0x22
 2934 0a07 E7050000 		.4byte	.LASF119
 2935 0a0b 01       		.byte	0x1
 2936 0a0c 1D01     		.2byte	0x11d
 2937 0a0e F0040000 		.4byte	0x4f0
 2938 0a12 01       		.byte	0x1
 2939 0a13 50       		.byte	0x50
 2940 0a14 00       		.byte	0x0
 2941 0a15 21       		.uleb128 0x21
 2942 0a16 4B030000 		.4byte	.LASF120
 2943 0a1a 01       		.byte	0x1
 2944 0a1b 2201     		.2byte	0x122
 2945 0a1d 01       		.byte	0x1
 2946 0a1e 00000000 		.4byte	.LFB78
 2947 0a22 02000000 		.4byte	.LFE78
 2948 0a26 02       		.byte	0x2
 2949 0a27 7D       		.byte	0x7d
 2950 0a28 00       		.sleb128 0
 2951 0a29 3C0A0000 		.4byte	0xa3c
 2952 0a2d 22       		.uleb128 0x22
 2953 0a2e E7050000 		.4byte	.LASF119
 2954 0a32 01       		.byte	0x1
 2955 0a33 2201     		.2byte	0x122
 2956 0a35 F0040000 		.4byte	0x4f0
 2957 0a39 01       		.byte	0x1
 2958 0a3a 50       		.byte	0x50
 2959 0a3b 00       		.byte	0x0
 2960 0a3c 21       		.uleb128 0x21
 2961 0a3d C3010000 		.4byte	.LASF121
 2962 0a41 01       		.byte	0x1
 2963 0a42 2701     		.2byte	0x127
 2964 0a44 01       		.byte	0x1
 2965 0a45 00000000 		.4byte	.LFB79
 2966 0a49 02000000 		.4byte	.LFE79
 2967 0a4d 02       		.byte	0x2
ARM GAS  C:\Users\z80\AppData\Local\Temp\ccSskHdY.s 			page 54


 2968 0a4e 7D       		.byte	0x7d
 2969 0a4f 00       		.sleb128 0
 2970 0a50 630A0000 		.4byte	0xa63
 2971 0a54 22       		.uleb128 0x22
 2972 0a55 E7050000 		.4byte	.LASF119
 2973 0a59 01       		.byte	0x1
 2974 0a5a 2701     		.2byte	0x127
 2975 0a5c F0040000 		.4byte	0x4f0
 2976 0a60 01       		.byte	0x1
 2977 0a61 50       		.byte	0x50
 2978 0a62 00       		.byte	0x0
 2979 0a63 21       		.uleb128 0x21
 2980 0a64 16050000 		.4byte	.LASF122
 2981 0a68 01       		.byte	0x1
 2982 0a69 2C01     		.2byte	0x12c
 2983 0a6b 01       		.byte	0x1
 2984 0a6c 00000000 		.4byte	.LFB80
 2985 0a70 02000000 		.4byte	.LFE80
 2986 0a74 02       		.byte	0x2
 2987 0a75 7D       		.byte	0x7d
 2988 0a76 00       		.sleb128 0
 2989 0a77 8A0A0000 		.4byte	0xa8a
 2990 0a7b 22       		.uleb128 0x22
 2991 0a7c E7050000 		.4byte	.LASF119
 2992 0a80 01       		.byte	0x1
 2993 0a81 2C01     		.2byte	0x12c
 2994 0a83 F0040000 		.4byte	0x4f0
 2995 0a87 01       		.byte	0x1
 2996 0a88 50       		.byte	0x50
 2997 0a89 00       		.byte	0x0
 2998 0a8a 21       		.uleb128 0x21
 2999 0a8b D8030000 		.4byte	.LASF123
 3000 0a8f 01       		.byte	0x1
 3001 0a90 3101     		.2byte	0x131
 3002 0a92 01       		.byte	0x1
 3003 0a93 00000000 		.4byte	.LFB81
 3004 0a97 02000000 		.4byte	.LFE81
 3005 0a9b 02       		.byte	0x2
 3006 0a9c 7D       		.byte	0x7d
 3007 0a9d 00       		.sleb128 0
 3008 0a9e B10A0000 		.4byte	0xab1
 3009 0aa2 22       		.uleb128 0x22
 3010 0aa3 E7050000 		.4byte	.LASF119
 3011 0aa7 01       		.byte	0x1
 3012 0aa8 3101     		.2byte	0x131
 3013 0aaa F0040000 		.4byte	0x4f0
 3014 0aae 01       		.byte	0x1
 3015 0aaf 50       		.byte	0x50
 3016 0ab0 00       		.byte	0x0
 3017 0ab1 21       		.uleb128 0x21
 3018 0ab2 AC010000 		.4byte	.LASF124
 3019 0ab6 01       		.byte	0x1
 3020 0ab7 3601     		.2byte	0x136
 3021 0ab9 01       		.byte	0x1
 3022 0aba 00000000 		.4byte	.LFB82
 3023 0abe 02000000 		.4byte	.LFE82
 3024 0ac2 02       		.byte	0x2
ARM GAS  C:\Users\z80\AppData\Local\Temp\ccSskHdY.s 			page 55


 3025 0ac3 7D       		.byte	0x7d
 3026 0ac4 00       		.sleb128 0
 3027 0ac5 D80A0000 		.4byte	0xad8
 3028 0ac9 22       		.uleb128 0x22
 3029 0aca E7050000 		.4byte	.LASF119
 3030 0ace 01       		.byte	0x1
 3031 0acf 3601     		.2byte	0x136
 3032 0ad1 F0040000 		.4byte	0x4f0
 3033 0ad5 01       		.byte	0x1
 3034 0ad6 50       		.byte	0x50
 3035 0ad7 00       		.byte	0x0
 3036 0ad8 23       		.uleb128 0x23
 3037 0ad9 DA040000 		.4byte	.LASF125
 3038 0add 01       		.byte	0x1
 3039 0ade 4501     		.2byte	0x145
 3040 0ae0 01       		.byte	0x1
 3041 0ae1 00000000 		.4byte	.LFB83
 3042 0ae5 34000000 		.4byte	.LFE83
 3043 0ae9 00000000 		.4byte	.LLST0
 3044 0aed 000B0000 		.4byte	0xb00
 3045 0af1 24       		.uleb128 0x24
 3046 0af2 7600     		.ascii	"v\000"
 3047 0af4 01       		.byte	0x1
 3048 0af5 4501     		.2byte	0x145
 3049 0af7 49000000 		.4byte	0x49
 3050 0afb 20000000 		.4byte	.LLST1
 3051 0aff 00       		.byte	0x0
 3052 0b00 25       		.uleb128 0x25
 3053 0b01 00000000 		.4byte	.LASF151
 3054 0b05 01       		.byte	0x1
 3055 0b06 4C01     		.2byte	0x14c
 3056 0b08 01       		.byte	0x1
 3057 0b09 00000000 		.4byte	.LFB84
 3058 0b0d 14000000 		.4byte	.LFE84
 3059 0b11 33000000 		.4byte	.LLST2
 3060 0b15 26       		.uleb128 0x26
 3061 0b16 F6020000 		.4byte	.LASF126
 3062 0b1a 01       		.byte	0x1
 3063 0b1b FA       		.byte	0xfa
 3064 0b1c 01       		.byte	0x1
 3065 0b1d 00000000 		.4byte	.LFB75
 3066 0b21 64000000 		.4byte	.LFE75
 3067 0b25 53000000 		.4byte	.LLST3
 3068 0b29 FA0B0000 		.4byte	0xbfa
 3069 0b2d 27       		.uleb128 0x27
 3070 0b2e 61726700 		.ascii	"arg\000"
 3071 0b32 01       		.byte	0x1
 3072 0b33 FA       		.byte	0xfa
 3073 0b34 F0040000 		.4byte	0x4f0
 3074 0b38 73000000 		.4byte	.LLST4
 3075 0b3c 28       		.uleb128 0x28
 3076 0b3d 7100     		.ascii	"q\000"
 3077 0b3f 01       		.byte	0x1
 3078 0b40 FD       		.byte	0xfd
 3079 0b41 FA0B0000 		.4byte	0xbfa
 3080 0b45 86000000 		.4byte	.LLST5
 3081 0b49 29       		.uleb128 0x29
ARM GAS  C:\Users\z80\AppData\Local\Temp\ccSskHdY.s 			page 56


 3082 0b4a 636E7400 		.ascii	"cnt\000"
 3083 0b4e 01       		.byte	0x1
 3084 0b4f FF       		.byte	0xff
 3085 0b50 30000000 		.4byte	0x30
 3086 0b54 01       		.byte	0x1
 3087 0b55 55       		.byte	0x55
 3088 0b56 2A       		.uleb128 0x2a
 3089 0b57 B7050000 		.4byte	.LASF127
 3090 0b5b 01       		.byte	0x1
 3091 0b5c 0201     		.2byte	0x102
 3092 0b5e 30000000 		.4byte	0x30
 3093 0b62 A4000000 		.4byte	.LLST6
 3094 0b66 2B       		.uleb128 0x2b
 3095 0b67 00000000 		.4byte	.Ldebug_ranges0+0x0
 3096 0b6b 7F0B0000 		.4byte	0xb7f
 3097 0b6f 28       		.uleb128 0x28
 3098 0b70 746D7000 		.ascii	"tmp\000"
 3099 0b74 01       		.byte	0x1
 3100 0b75 FE       		.byte	0xfe
 3101 0b76 86000000 		.4byte	0x86
 3102 0b7a C3000000 		.4byte	.LLST7
 3103 0b7e 00       		.byte	0x0
 3104 0b7f 2C       		.uleb128 0x2c
 3105 0b80 28000000 		.4byte	.LBB11
 3106 0b84 2E000000 		.4byte	.LBE11
 3107 0b88 9D0B0000 		.4byte	0xb9d
 3108 0b8c 2D       		.uleb128 0x2d
 3109 0b8d 746D7000 		.ascii	"tmp\000"
 3110 0b91 01       		.byte	0x1
 3111 0b92 0101     		.2byte	0x101
 3112 0b94 86000000 		.4byte	0x86
 3113 0b98 D6000000 		.4byte	.LLST8
 3114 0b9c 00       		.byte	0x0
 3115 0b9d 2E       		.uleb128 0x2e
 3116 0b9e 38000000 		.4byte	.LBB12
 3117 0ba2 54000000 		.4byte	.LBE12
 3118 0ba6 2A       		.uleb128 0x2a
 3119 0ba7 AA000000 		.4byte	.LASF128
 3120 0bab 01       		.byte	0x1
 3121 0bac 0501     		.2byte	0x105
 3122 0bae 30000000 		.4byte	0x30
 3123 0bb2 F4000000 		.4byte	.LLST9
 3124 0bb6 2E       		.uleb128 0x2e
 3125 0bb7 38000000 		.4byte	.LBB13
 3126 0bbb 4E000000 		.4byte	.LBE13
 3127 0bbf 2A       		.uleb128 0x2a
 3128 0bc0 5A030000 		.4byte	.LASF129
 3129 0bc4 01       		.byte	0x1
 3130 0bc5 0801     		.2byte	0x108
 3131 0bc7 30000000 		.4byte	0x30
 3132 0bcb 08010000 		.4byte	.LLST10
 3133 0bcf 2E       		.uleb128 0x2e
 3134 0bd0 38000000 		.4byte	.LBB14
 3135 0bd4 48000000 		.4byte	.LBE14
 3136 0bd8 2D       		.uleb128 0x2d
 3137 0bd9 7600     		.ascii	"v\000"
 3138 0bdb 01       		.byte	0x1
ARM GAS  C:\Users\z80\AppData\Local\Temp\ccSskHdY.s 			page 57


 3139 0bdc 0B01     		.2byte	0x10b
 3140 0bde 49000000 		.4byte	0x49
 3141 0be2 1C010000 		.4byte	.LLST11
 3142 0be6 2D       		.uleb128 0x2d
 3143 0be7 6D736700 		.ascii	"msg\000"
 3144 0beb 01       		.byte	0x1
 3145 0bec 0C01     		.2byte	0x10c
 3146 0bee E8000000 		.4byte	0xe8
 3147 0bf2 2F010000 		.4byte	.LLST12
 3148 0bf6 00       		.byte	0x0
 3149 0bf7 00       		.byte	0x0
 3150 0bf8 00       		.byte	0x0
 3151 0bf9 00       		.byte	0x0
 3152 0bfa 09       		.uleb128 0x9
 3153 0bfb 04       		.byte	0x4
 3154 0bfc F6040000 		.4byte	0x4f6
 3155 0c00 26       		.uleb128 0x26
 3156 0c01 74020000 		.4byte	.LASF130
 3157 0c05 01       		.byte	0x1
 3158 0c06 B7       		.byte	0xb7
 3159 0c07 01       		.byte	0x1
 3160 0c08 00000000 		.4byte	.LFB68
 3161 0c0c 30000000 		.4byte	.LFE68
 3162 0c10 42010000 		.4byte	.LLST13
 3163 0c14 4D0C0000 		.4byte	0xc4d
 3164 0c18 2F       		.uleb128 0x2f
 3165 0c19 E7050000 		.4byte	.LASF119
 3166 0c1d 01       		.byte	0x1
 3167 0c1e B7       		.byte	0xb7
 3168 0c1f F0040000 		.4byte	0x4f0
 3169 0c23 6E010000 		.4byte	.LLST14
 3170 0c27 30       		.uleb128 0x30
 3171 0c28 21020000 		.4byte	.LASF131
 3172 0c2c 01       		.byte	0x1
 3173 0c2d BA       		.byte	0xba
 3174 0c2e 5D0C0000 		.4byte	0xc5d
 3175 0c32 02       		.byte	0x2
 3176 0c33 91       		.byte	0x91
 3177 0c34 68       		.sleb128 -24
 3178 0c35 31       		.uleb128 0x31
 3179 0c36 6C00     		.ascii	"l\000"
 3180 0c38 01       		.byte	0x1
 3181 0c39 BB       		.byte	0xbb
 3182 0c3a 29000000 		.4byte	0x29
 3183 0c3e 05       		.byte	0x5
 3184 0c3f 28       		.uleb128 0x28
 3185 0c40 6900     		.ascii	"i\000"
 3186 0c42 01       		.byte	0x1
 3187 0c43 BC       		.byte	0xbc
 3188 0c44 29000000 		.4byte	0x29
 3189 0c48 81010000 		.4byte	.LLST15
 3190 0c4c 00       		.byte	0x0
 3191 0c4d 1B       		.uleb128 0x1b
 3192 0c4e 49000000 		.4byte	0x49
 3193 0c52 5D0C0000 		.4byte	0xc5d
 3194 0c56 32       		.uleb128 0x32
 3195 0c57 42030000 		.4byte	0x342
ARM GAS  C:\Users\z80\AppData\Local\Temp\ccSskHdY.s 			page 58


 3196 0c5b 05       		.byte	0x5
 3197 0c5c 00       		.byte	0x0
 3198 0c5d 11       		.uleb128 0x11
 3199 0c5e 4D0C0000 		.4byte	0xc4d
 3200 0c62 26       		.uleb128 0x26
 3201 0c63 F4010000 		.4byte	.LASF132
 3202 0c67 01       		.byte	0x1
 3203 0c68 AC       		.byte	0xac
 3204 0c69 01       		.byte	0x1
 3205 0c6a 00000000 		.4byte	.LFB67
 3206 0c6e 30000000 		.4byte	.LFE67
 3207 0c72 95010000 		.4byte	.LLST16
 3208 0c76 AF0C0000 		.4byte	0xcaf
 3209 0c7a 2F       		.uleb128 0x2f
 3210 0c7b E7050000 		.4byte	.LASF119
 3211 0c7f 01       		.byte	0x1
 3212 0c80 AC       		.byte	0xac
 3213 0c81 F0040000 		.4byte	0x4f0
 3214 0c85 C1010000 		.4byte	.LLST17
 3215 0c89 30       		.uleb128 0x30
 3216 0c8a 21020000 		.4byte	.LASF131
 3217 0c8e 01       		.byte	0x1
 3218 0c8f AF       		.byte	0xaf
 3219 0c90 BF0C0000 		.4byte	0xcbf
 3220 0c94 02       		.byte	0x2
 3221 0c95 91       		.byte	0x91
 3222 0c96 60       		.sleb128 -32
 3223 0c97 31       		.uleb128 0x31
 3224 0c98 6C00     		.ascii	"l\000"
 3225 0c9a 01       		.byte	0x1
 3226 0c9b B0       		.byte	0xb0
 3227 0c9c 29000000 		.4byte	0x29
 3228 0ca0 0F       		.byte	0xf
 3229 0ca1 28       		.uleb128 0x28
 3230 0ca2 6900     		.ascii	"i\000"
 3231 0ca4 01       		.byte	0x1
 3232 0ca5 B1       		.byte	0xb1
 3233 0ca6 29000000 		.4byte	0x29
 3234 0caa D4010000 		.4byte	.LLST18
 3235 0cae 00       		.byte	0x0
 3236 0caf 1B       		.uleb128 0x1b
 3237 0cb0 49000000 		.4byte	0x49
 3238 0cb4 BF0C0000 		.4byte	0xcbf
 3239 0cb8 32       		.uleb128 0x32
 3240 0cb9 42030000 		.4byte	0x342
 3241 0cbd 0F       		.byte	0xf
 3242 0cbe 00       		.byte	0x0
 3243 0cbf 11       		.uleb128 0x11
 3244 0cc0 AF0C0000 		.4byte	0xcaf
 3245 0cc4 26       		.uleb128 0x26
 3246 0cc5 FB000000 		.4byte	.LASF133
 3247 0cc9 01       		.byte	0x1
 3248 0cca F0       		.byte	0xf0
 3249 0ccb 01       		.byte	0x1
 3250 0ccc 00000000 		.4byte	.LFB74
 3251 0cd0 18000000 		.4byte	.LFE74
 3252 0cd4 E8010000 		.4byte	.LLST19
ARM GAS  C:\Users\z80\AppData\Local\Temp\ccSskHdY.s 			page 59


 3253 0cd8 F90C0000 		.4byte	0xcf9
 3254 0cdc 27       		.uleb128 0x27
 3255 0cdd 61726700 		.ascii	"arg\000"
 3256 0ce1 01       		.byte	0x1
 3257 0ce2 F0       		.byte	0xf0
 3258 0ce3 F0040000 		.4byte	0x4f0
 3259 0ce7 08020000 		.4byte	.LLST20
 3260 0ceb 28       		.uleb128 0x28
 3261 0cec 7600     		.ascii	"v\000"
 3262 0cee 01       		.byte	0x1
 3263 0cef F2       		.byte	0xf2
 3264 0cf0 86000000 		.4byte	0x86
 3265 0cf4 1B020000 		.4byte	.LLST21
 3266 0cf8 00       		.byte	0x0
 3267 0cf9 26       		.uleb128 0x26
 3268 0cfa 5D020000 		.4byte	.LASF134
 3269 0cfe 01       		.byte	0x1
 3270 0cff EA       		.byte	0xea
 3271 0d00 01       		.byte	0x1
 3272 0d01 00000000 		.4byte	.LFB73
 3273 0d05 0A000000 		.4byte	.LFE73
 3274 0d09 47020000 		.4byte	.LLST22
 3275 0d0d 2E0D0000 		.4byte	0xd2e
 3276 0d11 27       		.uleb128 0x27
 3277 0d12 61726700 		.ascii	"arg\000"
 3278 0d16 01       		.byte	0x1
 3279 0d17 EA       		.byte	0xea
 3280 0d18 F0040000 		.4byte	0x4f0
 3281 0d1c 67020000 		.4byte	.LLST23
 3282 0d20 28       		.uleb128 0x28
 3283 0d21 7600     		.ascii	"v\000"
 3284 0d23 01       		.byte	0x1
 3285 0d24 EC       		.byte	0xec
 3286 0d25 49000000 		.4byte	0x49
 3287 0d29 7A020000 		.4byte	.LLST24
 3288 0d2d 00       		.byte	0x0
 3289 0d2e 26       		.uleb128 0x26
 3290 0d2f 7C050000 		.4byte	.LASF135
 3291 0d33 01       		.byte	0x1
 3292 0d34 D6       		.byte	0xd6
 3293 0d35 01       		.byte	0x1
 3294 0d36 00000000 		.4byte	.LFB72
 3295 0d3a 3E000000 		.4byte	.LFE72
 3296 0d3e 8E020000 		.4byte	.LLST25
 3297 0d42 880D0000 		.4byte	0xd88
 3298 0d46 2F       		.uleb128 0x2f
 3299 0d47 E7050000 		.4byte	.LASF119
 3300 0d4b 01       		.byte	0x1
 3301 0d4c D6       		.byte	0xd6
 3302 0d4d F0040000 		.4byte	0x4f0
 3303 0d51 BA020000 		.4byte	.LLST26
 3304 0d55 29       		.uleb128 0x29
 3305 0d56 72657300 		.ascii	"res\000"
 3306 0d5a 01       		.byte	0x1
 3307 0d5b D9       		.byte	0xd9
 3308 0d5c 880D0000 		.4byte	0xd88
 3309 0d60 02       		.byte	0x2
ARM GAS  C:\Users\z80\AppData\Local\Temp\ccSskHdY.s 			page 60


 3310 0d61 91       		.byte	0x91
 3311 0d62 60       		.sleb128 -32
 3312 0d63 28       		.uleb128 0x28
 3313 0d64 6900     		.ascii	"i\000"
 3314 0d66 01       		.byte	0x1
 3315 0d67 DB       		.byte	0xdb
 3316 0d68 29000000 		.4byte	0x29
 3317 0d6c CD020000 		.4byte	.LLST27
 3318 0d70 2E       		.uleb128 0x2e
 3319 0d71 0E000000 		.4byte	.LBB15
 3320 0d75 32000000 		.4byte	.LBE15
 3321 0d79 28       		.uleb128 0x28
 3322 0d7a 6200     		.ascii	"b\000"
 3323 0d7c 01       		.byte	0x1
 3324 0d7d DE       		.byte	0xde
 3325 0d7e 49000000 		.4byte	0x49
 3326 0d82 E1020000 		.4byte	.LLST28
 3327 0d86 00       		.byte	0x0
 3328 0d87 00       		.byte	0x0
 3329 0d88 1B       		.uleb128 0x1b
 3330 0d89 29000000 		.4byte	0x29
 3331 0d8d 980D0000 		.4byte	0xd98
 3332 0d91 32       		.uleb128 0x32
 3333 0d92 42030000 		.4byte	0x342
 3334 0d96 03       		.byte	0x3
 3335 0d97 00       		.byte	0x0
 3336 0d98 26       		.uleb128 0x26
 3337 0d99 BE030000 		.4byte	.LASF136
 3338 0d9d 01       		.byte	0x1
 3339 0d9e CF       		.byte	0xcf
 3340 0d9f 01       		.byte	0x1
 3341 0da0 00000000 		.4byte	.LFB71
 3342 0da4 1A000000 		.4byte	.LFE71
 3343 0da8 FB020000 		.4byte	.LLST29
 3344 0dac D60D0000 		.4byte	0xdd6
 3345 0db0 2F       		.uleb128 0x2f
 3346 0db1 E7050000 		.4byte	.LASF119
 3347 0db5 01       		.byte	0x1
 3348 0db6 CF       		.byte	0xcf
 3349 0db7 F0040000 		.4byte	0x4f0
 3350 0dbb 1B030000 		.4byte	.LLST30
 3351 0dbf 1E       		.uleb128 0x1e
 3352 0dc0 A7010000 		.4byte	.LASF137
 3353 0dc4 01       		.byte	0x1
 3354 0dc5 D1       		.byte	0xd1
 3355 0dc6 29000000 		.4byte	0x29
 3356 0dca 1E       		.uleb128 0x1e
 3357 0dcb 77030000 		.4byte	.LASF138
 3358 0dcf 01       		.byte	0x1
 3359 0dd0 D2       		.byte	0xd2
 3360 0dd1 29000000 		.4byte	0x29
 3361 0dd5 00       		.byte	0x0
 3362 0dd6 26       		.uleb128 0x26
 3363 0dd7 B5030000 		.4byte	.LASF139
 3364 0ddb 01       		.byte	0x1
 3365 0ddc C8       		.byte	0xc8
 3366 0ddd 01       		.byte	0x1
ARM GAS  C:\Users\z80\AppData\Local\Temp\ccSskHdY.s 			page 61


 3367 0dde 00000000 		.4byte	.LFB70
 3368 0de2 1A000000 		.4byte	.LFE70
 3369 0de6 2E030000 		.4byte	.LLST31
 3370 0dea 140E0000 		.4byte	0xe14
 3371 0dee 2F       		.uleb128 0x2f
 3372 0def E7050000 		.4byte	.LASF119
 3373 0df3 01       		.byte	0x1
 3374 0df4 C8       		.byte	0xc8
 3375 0df5 F0040000 		.4byte	0x4f0
 3376 0df9 4E030000 		.4byte	.LLST32
 3377 0dfd 1E       		.uleb128 0x1e
 3378 0dfe A7010000 		.4byte	.LASF137
 3379 0e02 01       		.byte	0x1
 3380 0e03 CA       		.byte	0xca
 3381 0e04 29000000 		.4byte	0x29
 3382 0e08 1E       		.uleb128 0x1e
 3383 0e09 77030000 		.4byte	.LASF138
 3384 0e0d 01       		.byte	0x1
 3385 0e0e CB       		.byte	0xcb
 3386 0e0f 29000000 		.4byte	0x29
 3387 0e13 00       		.byte	0x0
 3388 0e14 26       		.uleb128 0x26
 3389 0e15 19030000 		.4byte	.LASF140
 3390 0e19 01       		.byte	0x1
 3391 0e1a C2       		.byte	0xc2
 3392 0e1b 01       		.byte	0x1
 3393 0e1c 00000000 		.4byte	.LFB69
 3394 0e20 0A000000 		.4byte	.LFE69
 3395 0e24 61030000 		.4byte	.LLST33
 3396 0e28 3C0E0000 		.4byte	0xe3c
 3397 0e2c 2F       		.uleb128 0x2f
 3398 0e2d E7050000 		.4byte	.LASF119
 3399 0e31 01       		.byte	0x1
 3400 0e32 C2       		.byte	0xc2
 3401 0e33 F0040000 		.4byte	0x4f0
 3402 0e37 81030000 		.4byte	.LLST34
 3403 0e3b 00       		.byte	0x0
 3404 0e3c 33       		.uleb128 0x33
 3405 0e3d 01       		.byte	0x1
 3406 0e3e 4E050000 		.4byte	.LASF152
 3407 0e42 01       		.byte	0x1
 3408 0e43 2A       		.byte	0x2a
 3409 0e44 01       		.byte	0x1
 3410 0e45 00000000 		.4byte	.LFB62
 3411 0e49 4A000000 		.4byte	.LFE62
 3412 0e4d 94030000 		.4byte	.LLST35
 3413 0e51 34       		.uleb128 0x34
 3414 0e52 01       		.byte	0x1
 3415 0e53 E6040000 		.4byte	.LASF153
 3416 0e57 01       		.byte	0x1
 3417 0e58 39       		.byte	0x39
 3418 0e59 01       		.byte	0x1
 3419 0e5a 00000000 		.4byte	.LFB63
 3420 0e5e C4000000 		.4byte	.LFE63
 3421 0e62 B4030000 		.4byte	.LLST36
 3422 0e66 260F0000 		.4byte	0xf26
 3423 0e6a 30       		.uleb128 0x30
ARM GAS  C:\Users\z80\AppData\Local\Temp\ccSskHdY.s 			page 62


 3424 0e6b BE050000 		.4byte	.LASF141
 3425 0e6f 01       		.byte	0x1
 3426 0e70 3B       		.byte	0x3b
 3427 0e71 49000000 		.4byte	0x49
 3428 0e75 05       		.byte	0x5
 3429 0e76 03       		.byte	0x3
 3430 0e77 00000000 		.4byte	slash.3623
 3431 0e7b 30       		.uleb128 0x30
 3432 0e7c 93000000 		.4byte	.LASF142
 3433 0e80 01       		.byte	0x1
 3434 0e81 3C       		.byte	0x3c
 3435 0e82 29000000 		.4byte	0x29
 3436 0e86 05       		.byte	0x5
 3437 0e87 03       		.byte	0x3
 3438 0e88 00000000 		.4byte	out_index.3624
 3439 0e8c 28       		.uleb128 0x28
 3440 0e8d 6D736700 		.ascii	"msg\000"
 3441 0e91 01       		.byte	0x1
 3442 0e92 3D       		.byte	0x3d
 3443 0e93 E8000000 		.4byte	0xe8
 3444 0e97 D4030000 		.4byte	.LLST37
 3445 0e9b 35       		.uleb128 0x35
 3446 0e9c 35020000 		.4byte	.LASF143
 3447 0ea0 01       		.byte	0x1
 3448 0ea1 48       		.byte	0x48
 3449 0ea2 49000000 		.4byte	0x49
 3450 0ea6 F4030000 		.4byte	.LLST38
 3451 0eaa 36       		.uleb128 0x36
 3452 0eab 18000000 		.4byte	.Ldebug_ranges0+0x18
 3453 0eaf 28       		.uleb128 0x28
 3454 0eb0 7600     		.ascii	"v\000"
 3455 0eb2 01       		.byte	0x1
 3456 0eb3 4B       		.byte	0x4b
 3457 0eb4 49000000 		.4byte	0x49
 3458 0eb8 2E040000 		.4byte	.LLST39
 3459 0ebc 37       		.uleb128 0x37
 3460 0ebd 85090000 		.4byte	0x985
 3461 0ec1 1C000000 		.4byte	.LBB19
 3462 0ec5 30000000 		.4byte	.Ldebug_ranges0+0x30
 3463 0ec9 01       		.byte	0x1
 3464 0eca 52       		.byte	0x52
 3465 0ecb 38       		.uleb128 0x38
 3466 0ecc 9D090000 		.4byte	0x99d
 3467 0ed0 57040000 		.4byte	.LLST40
 3468 0ed4 38       		.uleb128 0x38
 3469 0ed5 92090000 		.4byte	0x992
 3470 0ed9 A2040000 		.4byte	.LLST41
 3471 0edd 36       		.uleb128 0x36
 3472 0ede 60000000 		.4byte	.Ldebug_ranges0+0x60
 3473 0ee2 39       		.uleb128 0x39
 3474 0ee3 A7090000 		.4byte	0x9a7
 3475 0ee7 DA040000 		.4byte	.LLST42
 3476 0eeb 39       		.uleb128 0x39
 3477 0eec B0090000 		.4byte	0x9b0
 3478 0ef0 EE040000 		.4byte	.LLST43
 3479 0ef4 39       		.uleb128 0x39
 3480 0ef5 BB090000 		.4byte	0x9bb
ARM GAS  C:\Users\z80\AppData\Local\Temp\ccSskHdY.s 			page 63


 3481 0ef9 23050000 		.4byte	.LLST44
 3482 0efd 37       		.uleb128 0x37
 3483 0efe 61090000 		.4byte	0x961
 3484 0f02 2C000000 		.4byte	.LBB24
 3485 0f06 90000000 		.4byte	.Ldebug_ranges0+0x90
 3486 0f0a 01       		.byte	0x1
 3487 0f0b 79       		.byte	0x79
 3488 0f0c 36       		.uleb128 0x36
 3489 0f0d B0000000 		.4byte	.Ldebug_ranges0+0xb0
 3490 0f11 39       		.uleb128 0x39
 3491 0f12 6E090000 		.4byte	0x96e
 3492 0f16 5B050000 		.4byte	.LLST45
 3493 0f1a 3A       		.uleb128 0x3a
 3494 0f1b 79090000 		.4byte	0x979
 3495 0f1f 10       		.byte	0x10
 3496 0f20 00       		.byte	0x0
 3497 0f21 00       		.byte	0x0
 3498 0f22 00       		.byte	0x0
 3499 0f23 00       		.byte	0x0
 3500 0f24 00       		.byte	0x0
 3501 0f25 00       		.byte	0x0
 3502 0f26 3B       		.uleb128 0x3b
 3503 0f27 01       		.byte	0x1
 3504 0f28 81000000 		.4byte	.LASF154
 3505 0f2c 01       		.byte	0x1
 3506 0f2d 64       		.byte	0x64
 3507 0f2e 01       		.byte	0x1
 3508 0f2f F0040000 		.4byte	0x4f0
 3509 0f33 00000000 		.4byte	.LFB64
 3510 0f37 0A000000 		.4byte	.LFE64
 3511 0f3b 02       		.byte	0x2
 3512 0f3c 7D       		.byte	0x7d
 3513 0f3d 00       		.sleb128 0
 3514 0f3e 3C       		.uleb128 0x3c
 3515 0f3f 9D000000 		.4byte	.LASF144
 3516 0f43 11       		.byte	0x11
 3517 0f44 9404     		.2byte	0x494
 3518 0f46 36060000 		.4byte	0x636
 3519 0f4a 01       		.byte	0x1
 3520 0f4b 01       		.byte	0x1
 3521 0f4c 3D       		.uleb128 0x3d
 3522 0f4d 53443100 		.ascii	"SD1\000"
 3523 0f51 10       		.byte	0x10
 3524 0f52 FB       		.byte	0xfb
 3525 0f53 D1070000 		.4byte	0x7d1
 3526 0f57 01       		.byte	0x1
 3527 0f58 01       		.byte	0x1
 3528 0f59 1B       		.uleb128 0x1b
 3529 0f5a 49000000 		.4byte	0x49
 3530 0f5e 690F0000 		.4byte	0xf69
 3531 0f62 32       		.uleb128 0x32
 3532 0f63 42030000 		.4byte	0x342
 3533 0f67 1F       		.byte	0x1f
 3534 0f68 00       		.byte	0x0
 3535 0f69 30       		.uleb128 0x30
 3536 0f6a 0F050000 		.4byte	.LASF145
 3537 0f6e 01       		.byte	0x1
ARM GAS  C:\Users\z80\AppData\Local\Temp\ccSskHdY.s 			page 64


 3538 0f6f 19       		.byte	0x19
 3539 0f70 590F0000 		.4byte	0xf59
 3540 0f74 05       		.byte	0x5
 3541 0f75 03       		.byte	0x3
 3542 0f76 00000000 		.4byte	buffer
 3543 0f7a 30       		.uleb128 0x30
 3544 0f7b E7050000 		.4byte	.LASF119
 3545 0f7f 01       		.byte	0x1
 3546 0f80 1A       		.byte	0x1a
 3547 0f81 590F0000 		.4byte	0xf59
 3548 0f85 05       		.byte	0x5
 3549 0f86 03       		.byte	0x3
 3550 0f87 00000000 		.4byte	args
 3551 0f8b 1E       		.uleb128 0x1e
 3552 0f8c 00040000 		.4byte	.LASF146
 3553 0f90 01       		.byte	0x1
 3554 0f91 21       		.byte	0x21
 3555 0f92 960F0000 		.4byte	0xf96
 3556 0f96 11       		.uleb128 0x11
 3557 0f97 A9080000 		.4byte	0x8a9
 3558 0f9b 1B       		.uleb128 0x1b
 3559 0f9c 14060000 		.4byte	0x614
 3560 0fa0 AB0F0000 		.4byte	0xfab
 3561 0fa4 32       		.uleb128 0x32
 3562 0fa5 42030000 		.4byte	0x342
 3563 0fa9 0F       		.byte	0xf
 3564 0faa 00       		.byte	0x0
 3565 0fab 30       		.uleb128 0x30
 3566 0fac 29000000 		.4byte	.LASF147
 3567 0fb0 01       		.byte	0x1
 3568 0fb1 8F       		.byte	0x8f
 3569 0fb2 BC0F0000 		.4byte	0xfbc
 3570 0fb6 05       		.byte	0x5
 3571 0fb7 03       		.byte	0x3
 3572 0fb8 00000000 		.4byte	funcs
 3573 0fbc 11       		.uleb128 0x11
 3574 0fbd 9B0F0000 		.4byte	0xf9b
 3575 0fc1 3C       		.uleb128 0x3c
 3576 0fc2 9D000000 		.4byte	.LASF144
 3577 0fc6 11       		.byte	0x11
 3578 0fc7 9404     		.2byte	0x494
 3579 0fc9 36060000 		.4byte	0x636
 3580 0fcd 01       		.byte	0x1
 3581 0fce 01       		.byte	0x1
 3582 0fcf 3D       		.uleb128 0x3d
 3583 0fd0 53443100 		.ascii	"SD1\000"
 3584 0fd4 10       		.byte	0x10
 3585 0fd5 FB       		.byte	0xfb
 3586 0fd6 D1070000 		.4byte	0x7d1
 3587 0fda 01       		.byte	0x1
 3588 0fdb 01       		.byte	0x1
 3589 0fdc 00       		.byte	0x0
 3590              		.section	.debug_abbrev
 3591 0000 01       		.uleb128 0x1
 3592 0001 11       		.uleb128 0x11
 3593 0002 01       		.byte	0x1
 3594 0003 25       		.uleb128 0x25
ARM GAS  C:\Users\z80\AppData\Local\Temp\ccSskHdY.s 			page 65


 3595 0004 0E       		.uleb128 0xe
 3596 0005 13       		.uleb128 0x13
 3597 0006 0B       		.uleb128 0xb
 3598 0007 03       		.uleb128 0x3
 3599 0008 0E       		.uleb128 0xe
 3600 0009 1B       		.uleb128 0x1b
 3601 000a 0E       		.uleb128 0xe
 3602 000b 11       		.uleb128 0x11
 3603 000c 01       		.uleb128 0x1
 3604 000d 52       		.uleb128 0x52
 3605 000e 01       		.uleb128 0x1
 3606 000f 55       		.uleb128 0x55
 3607 0010 06       		.uleb128 0x6
 3608 0011 10       		.uleb128 0x10
 3609 0012 06       		.uleb128 0x6
 3610 0013 00       		.byte	0x0
 3611 0014 00       		.byte	0x0
 3612 0015 02       		.uleb128 0x2
 3613 0016 24       		.uleb128 0x24
 3614 0017 00       		.byte	0x0
 3615 0018 0B       		.uleb128 0xb
 3616 0019 0B       		.uleb128 0xb
 3617 001a 3E       		.uleb128 0x3e
 3618 001b 0B       		.uleb128 0xb
 3619 001c 03       		.uleb128 0x3
 3620 001d 08       		.uleb128 0x8
 3621 001e 00       		.byte	0x0
 3622 001f 00       		.byte	0x0
 3623 0020 03       		.uleb128 0x3
 3624 0021 16       		.uleb128 0x16
 3625 0022 00       		.byte	0x0
 3626 0023 03       		.uleb128 0x3
 3627 0024 0E       		.uleb128 0xe
 3628 0025 3A       		.uleb128 0x3a
 3629 0026 0B       		.uleb128 0xb
 3630 0027 3B       		.uleb128 0x3b
 3631 0028 0B       		.uleb128 0xb
 3632 0029 49       		.uleb128 0x49
 3633 002a 13       		.uleb128 0x13
 3634 002b 00       		.byte	0x0
 3635 002c 00       		.byte	0x0
 3636 002d 04       		.uleb128 0x4
 3637 002e 24       		.uleb128 0x24
 3638 002f 00       		.byte	0x0
 3639 0030 0B       		.uleb128 0xb
 3640 0031 0B       		.uleb128 0xb
 3641 0032 3E       		.uleb128 0x3e
 3642 0033 0B       		.uleb128 0xb
 3643 0034 03       		.uleb128 0x3
 3644 0035 0E       		.uleb128 0xe
 3645 0036 00       		.byte	0x0
 3646 0037 00       		.byte	0x0
 3647 0038 05       		.uleb128 0x5
 3648 0039 13       		.uleb128 0x13
 3649 003a 01       		.byte	0x1
 3650 003b 03       		.uleb128 0x3
 3651 003c 0E       		.uleb128 0xe
ARM GAS  C:\Users\z80\AppData\Local\Temp\ccSskHdY.s 			page 66


 3652 003d 0B       		.uleb128 0xb
 3653 003e 0B       		.uleb128 0xb
 3654 003f 3A       		.uleb128 0x3a
 3655 0040 0B       		.uleb128 0xb
 3656 0041 3B       		.uleb128 0x3b
 3657 0042 0B       		.uleb128 0xb
 3658 0043 01       		.uleb128 0x1
 3659 0044 13       		.uleb128 0x13
 3660 0045 00       		.byte	0x0
 3661 0046 00       		.byte	0x0
 3662 0047 06       		.uleb128 0x6
 3663 0048 0D       		.uleb128 0xd
 3664 0049 00       		.byte	0x0
 3665 004a 03       		.uleb128 0x3
 3666 004b 0E       		.uleb128 0xe
 3667 004c 3A       		.uleb128 0x3a
 3668 004d 0B       		.uleb128 0xb
 3669 004e 3B       		.uleb128 0x3b
 3670 004f 0B       		.uleb128 0xb
 3671 0050 49       		.uleb128 0x49
 3672 0051 13       		.uleb128 0x13
 3673 0052 38       		.uleb128 0x38
 3674 0053 0A       		.uleb128 0xa
 3675 0054 00       		.byte	0x0
 3676 0055 00       		.byte	0x0
 3677 0056 07       		.uleb128 0x7
 3678 0057 0D       		.uleb128 0xd
 3679 0058 00       		.byte	0x0
 3680 0059 03       		.uleb128 0x3
 3681 005a 08       		.uleb128 0x8
 3682 005b 3A       		.uleb128 0x3a
 3683 005c 0B       		.uleb128 0xb
 3684 005d 3B       		.uleb128 0x3b
 3685 005e 0B       		.uleb128 0xb
 3686 005f 49       		.uleb128 0x49
 3687 0060 13       		.uleb128 0x13
 3688 0061 38       		.uleb128 0x38
 3689 0062 0A       		.uleb128 0xa
 3690 0063 00       		.byte	0x0
 3691 0064 00       		.byte	0x0
 3692 0065 08       		.uleb128 0x8
 3693 0066 13       		.uleb128 0x13
 3694 0067 01       		.byte	0x1
 3695 0068 0B       		.uleb128 0xb
 3696 0069 0B       		.uleb128 0xb
 3697 006a 3A       		.uleb128 0x3a
 3698 006b 0B       		.uleb128 0xb
 3699 006c 3B       		.uleb128 0x3b
 3700 006d 0B       		.uleb128 0xb
 3701 006e 01       		.uleb128 0x1
 3702 006f 13       		.uleb128 0x13
 3703 0070 00       		.byte	0x0
 3704 0071 00       		.byte	0x0
 3705 0072 09       		.uleb128 0x9
 3706 0073 0F       		.uleb128 0xf
 3707 0074 00       		.byte	0x0
 3708 0075 0B       		.uleb128 0xb
ARM GAS  C:\Users\z80\AppData\Local\Temp\ccSskHdY.s 			page 67


 3709 0076 0B       		.uleb128 0xb
 3710 0077 49       		.uleb128 0x49
 3711 0078 13       		.uleb128 0x13
 3712 0079 00       		.byte	0x0
 3713 007a 00       		.byte	0x0
 3714 007b 0A       		.uleb128 0xa
 3715 007c 0F       		.uleb128 0xf
 3716 007d 00       		.byte	0x0
 3717 007e 0B       		.uleb128 0xb
 3718 007f 0B       		.uleb128 0xb
 3719 0080 00       		.byte	0x0
 3720 0081 00       		.byte	0x0
 3721 0082 0B       		.uleb128 0xb
 3722 0083 0D       		.uleb128 0xd
 3723 0084 00       		.byte	0x0
 3724 0085 03       		.uleb128 0x3
 3725 0086 08       		.uleb128 0x8
 3726 0087 3A       		.uleb128 0x3a
 3727 0088 0B       		.uleb128 0xb
 3728 0089 3B       		.uleb128 0x3b
 3729 008a 05       		.uleb128 0x5
 3730 008b 49       		.uleb128 0x49
 3731 008c 13       		.uleb128 0x13
 3732 008d 38       		.uleb128 0x38
 3733 008e 0A       		.uleb128 0xa
 3734 008f 00       		.byte	0x0
 3735 0090 00       		.byte	0x0
 3736 0091 0C       		.uleb128 0xc
 3737 0092 13       		.uleb128 0x13
 3738 0093 01       		.byte	0x1
 3739 0094 03       		.uleb128 0x3
 3740 0095 0E       		.uleb128 0xe
 3741 0096 0B       		.uleb128 0xb
 3742 0097 0B       		.uleb128 0xb
 3743 0098 3A       		.uleb128 0x3a
 3744 0099 0B       		.uleb128 0xb
 3745 009a 3B       		.uleb128 0x3b
 3746 009b 05       		.uleb128 0x5
 3747 009c 01       		.uleb128 0x1
 3748 009d 13       		.uleb128 0x13
 3749 009e 00       		.byte	0x0
 3750 009f 00       		.byte	0x0
 3751 00a0 0D       		.uleb128 0xd
 3752 00a1 35       		.uleb128 0x35
 3753 00a2 00       		.byte	0x0
 3754 00a3 49       		.uleb128 0x49
 3755 00a4 13       		.uleb128 0x13
 3756 00a5 00       		.byte	0x0
 3757 00a6 00       		.byte	0x0
 3758 00a7 0E       		.uleb128 0xe
 3759 00a8 24       		.uleb128 0x24
 3760 00a9 00       		.byte	0x0
 3761 00aa 0B       		.uleb128 0xb
 3762 00ab 0B       		.uleb128 0xb
 3763 00ac 3E       		.uleb128 0x3e
 3764 00ad 0B       		.uleb128 0xb
 3765 00ae 00       		.byte	0x0
ARM GAS  C:\Users\z80\AppData\Local\Temp\ccSskHdY.s 			page 68


 3766 00af 00       		.byte	0x0
 3767 00b0 0F       		.uleb128 0xf
 3768 00b1 17       		.uleb128 0x17
 3769 00b2 01       		.byte	0x1
 3770 00b3 0B       		.uleb128 0xb
 3771 00b4 0B       		.uleb128 0xb
 3772 00b5 3A       		.uleb128 0x3a
 3773 00b6 0B       		.uleb128 0xb
 3774 00b7 3B       		.uleb128 0x3b
 3775 00b8 0B       		.uleb128 0xb
 3776 00b9 01       		.uleb128 0x1
 3777 00ba 13       		.uleb128 0x13
 3778 00bb 00       		.byte	0x0
 3779 00bc 00       		.byte	0x0
 3780 00bd 10       		.uleb128 0x10
 3781 00be 0D       		.uleb128 0xd
 3782 00bf 00       		.byte	0x0
 3783 00c0 03       		.uleb128 0x3
 3784 00c1 0E       		.uleb128 0xe
 3785 00c2 3A       		.uleb128 0x3a
 3786 00c3 0B       		.uleb128 0xb
 3787 00c4 3B       		.uleb128 0x3b
 3788 00c5 0B       		.uleb128 0xb
 3789 00c6 49       		.uleb128 0x49
 3790 00c7 13       		.uleb128 0x13
 3791 00c8 00       		.byte	0x0
 3792 00c9 00       		.byte	0x0
 3793 00ca 11       		.uleb128 0x11
 3794 00cb 26       		.uleb128 0x26
 3795 00cc 00       		.byte	0x0
 3796 00cd 49       		.uleb128 0x49
 3797 00ce 13       		.uleb128 0x13
 3798 00cf 00       		.byte	0x0
 3799 00d0 00       		.byte	0x0
 3800 00d1 12       		.uleb128 0x12
 3801 00d2 15       		.uleb128 0x15
 3802 00d3 01       		.byte	0x1
 3803 00d4 27       		.uleb128 0x27
 3804 00d5 0C       		.uleb128 0xc
 3805 00d6 01       		.uleb128 0x1
 3806 00d7 13       		.uleb128 0x13
 3807 00d8 00       		.byte	0x0
 3808 00d9 00       		.byte	0x0
 3809 00da 13       		.uleb128 0x13
 3810 00db 05       		.uleb128 0x5
 3811 00dc 00       		.byte	0x0
 3812 00dd 49       		.uleb128 0x49
 3813 00de 13       		.uleb128 0x13
 3814 00df 00       		.byte	0x0
 3815 00e0 00       		.byte	0x0
 3816 00e1 14       		.uleb128 0x14
 3817 00e2 15       		.uleb128 0x15
 3818 00e3 01       		.byte	0x1
 3819 00e4 27       		.uleb128 0x27
 3820 00e5 0C       		.uleb128 0xc
 3821 00e6 49       		.uleb128 0x49
 3822 00e7 13       		.uleb128 0x13
ARM GAS  C:\Users\z80\AppData\Local\Temp\ccSskHdY.s 			page 69


 3823 00e8 01       		.uleb128 0x1
 3824 00e9 13       		.uleb128 0x13
 3825 00ea 00       		.byte	0x0
 3826 00eb 00       		.byte	0x0
 3827 00ec 15       		.uleb128 0x15
 3828 00ed 16       		.uleb128 0x16
 3829 00ee 00       		.byte	0x0
 3830 00ef 03       		.uleb128 0x3
 3831 00f0 0E       		.uleb128 0xe
 3832 00f1 3A       		.uleb128 0x3a
 3833 00f2 0B       		.uleb128 0xb
 3834 00f3 3B       		.uleb128 0x3b
 3835 00f4 05       		.uleb128 0x5
 3836 00f5 49       		.uleb128 0x49
 3837 00f6 13       		.uleb128 0x13
 3838 00f7 00       		.byte	0x0
 3839 00f8 00       		.byte	0x0
 3840 00f9 16       		.uleb128 0x16
 3841 00fa 13       		.uleb128 0x13
 3842 00fb 01       		.byte	0x1
 3843 00fc 0B       		.uleb128 0xb
 3844 00fd 0B       		.uleb128 0xb
 3845 00fe 3A       		.uleb128 0x3a
 3846 00ff 0B       		.uleb128 0xb
 3847 0100 3B       		.uleb128 0x3b
 3848 0101 05       		.uleb128 0x5
 3849 0102 01       		.uleb128 0x1
 3850 0103 13       		.uleb128 0x13
 3851 0104 00       		.byte	0x0
 3852 0105 00       		.byte	0x0
 3853 0106 17       		.uleb128 0x17
 3854 0107 0D       		.uleb128 0xd
 3855 0108 00       		.byte	0x0
 3856 0109 03       		.uleb128 0x3
 3857 010a 0E       		.uleb128 0xe
 3858 010b 3A       		.uleb128 0x3a
 3859 010c 0B       		.uleb128 0xb
 3860 010d 3B       		.uleb128 0x3b
 3861 010e 05       		.uleb128 0x5
 3862 010f 49       		.uleb128 0x49
 3863 0110 13       		.uleb128 0x13
 3864 0111 38       		.uleb128 0x38
 3865 0112 0A       		.uleb128 0xa
 3866 0113 00       		.byte	0x0
 3867 0114 00       		.byte	0x0
 3868 0115 18       		.uleb128 0x18
 3869 0116 04       		.uleb128 0x4
 3870 0117 01       		.byte	0x1
 3871 0118 0B       		.uleb128 0xb
 3872 0119 0B       		.uleb128 0xb
 3873 011a 3A       		.uleb128 0x3a
 3874 011b 0B       		.uleb128 0xb
 3875 011c 3B       		.uleb128 0x3b
 3876 011d 0B       		.uleb128 0xb
 3877 011e 01       		.uleb128 0x1
 3878 011f 13       		.uleb128 0x13
 3879 0120 00       		.byte	0x0
ARM GAS  C:\Users\z80\AppData\Local\Temp\ccSskHdY.s 			page 70


 3880 0121 00       		.byte	0x0
 3881 0122 19       		.uleb128 0x19
 3882 0123 28       		.uleb128 0x28
 3883 0124 00       		.byte	0x0
 3884 0125 03       		.uleb128 0x3
 3885 0126 0E       		.uleb128 0xe
 3886 0127 1C       		.uleb128 0x1c
 3887 0128 0D       		.uleb128 0xd
 3888 0129 00       		.byte	0x0
 3889 012a 00       		.byte	0x0
 3890 012b 1A       		.uleb128 0x1a
 3891 012c 13       		.uleb128 0x13
 3892 012d 01       		.byte	0x1
 3893 012e 03       		.uleb128 0x3
 3894 012f 0E       		.uleb128 0xe
 3895 0130 0B       		.uleb128 0xb
 3896 0131 05       		.uleb128 0x5
 3897 0132 3A       		.uleb128 0x3a
 3898 0133 0B       		.uleb128 0xb
 3899 0134 3B       		.uleb128 0x3b
 3900 0135 0B       		.uleb128 0xb
 3901 0136 01       		.uleb128 0x1
 3902 0137 13       		.uleb128 0x13
 3903 0138 00       		.byte	0x0
 3904 0139 00       		.byte	0x0
 3905 013a 1B       		.uleb128 0x1b
 3906 013b 01       		.uleb128 0x1
 3907 013c 01       		.byte	0x1
 3908 013d 49       		.uleb128 0x49
 3909 013e 13       		.uleb128 0x13
 3910 013f 01       		.uleb128 0x1
 3911 0140 13       		.uleb128 0x13
 3912 0141 00       		.byte	0x0
 3913 0142 00       		.byte	0x0
 3914 0143 1C       		.uleb128 0x1c
 3915 0144 21       		.uleb128 0x21
 3916 0145 00       		.byte	0x0
 3917 0146 49       		.uleb128 0x49
 3918 0147 13       		.uleb128 0x13
 3919 0148 2F       		.uleb128 0x2f
 3920 0149 05       		.uleb128 0x5
 3921 014a 00       		.byte	0x0
 3922 014b 00       		.byte	0x0
 3923 014c 1D       		.uleb128 0x1d
 3924 014d 2E       		.uleb128 0x2e
 3925 014e 01       		.byte	0x1
 3926 014f 03       		.uleb128 0x3
 3927 0150 0E       		.uleb128 0xe
 3928 0151 3A       		.uleb128 0x3a
 3929 0152 0B       		.uleb128 0xb
 3930 0153 3B       		.uleb128 0x3b
 3931 0154 0B       		.uleb128 0xb
 3932 0155 27       		.uleb128 0x27
 3933 0156 0C       		.uleb128 0xc
 3934 0157 20       		.uleb128 0x20
 3935 0158 0B       		.uleb128 0xb
 3936 0159 01       		.uleb128 0x1
ARM GAS  C:\Users\z80\AppData\Local\Temp\ccSskHdY.s 			page 71


 3937 015a 13       		.uleb128 0x13
 3938 015b 00       		.byte	0x0
 3939 015c 00       		.byte	0x0
 3940 015d 1E       		.uleb128 0x1e
 3941 015e 34       		.uleb128 0x34
 3942 015f 00       		.byte	0x0
 3943 0160 03       		.uleb128 0x3
 3944 0161 0E       		.uleb128 0xe
 3945 0162 3A       		.uleb128 0x3a
 3946 0163 0B       		.uleb128 0xb
 3947 0164 3B       		.uleb128 0x3b
 3948 0165 0B       		.uleb128 0xb
 3949 0166 49       		.uleb128 0x49
 3950 0167 13       		.uleb128 0x13
 3951 0168 00       		.byte	0x0
 3952 0169 00       		.byte	0x0
 3953 016a 1F       		.uleb128 0x1f
 3954 016b 05       		.uleb128 0x5
 3955 016c 00       		.byte	0x0
 3956 016d 03       		.uleb128 0x3
 3957 016e 08       		.uleb128 0x8
 3958 016f 3A       		.uleb128 0x3a
 3959 0170 0B       		.uleb128 0xb
 3960 0171 3B       		.uleb128 0x3b
 3961 0172 0B       		.uleb128 0xb
 3962 0173 49       		.uleb128 0x49
 3963 0174 13       		.uleb128 0x13
 3964 0175 00       		.byte	0x0
 3965 0176 00       		.byte	0x0
 3966 0177 20       		.uleb128 0x20
 3967 0178 34       		.uleb128 0x34
 3968 0179 00       		.byte	0x0
 3969 017a 03       		.uleb128 0x3
 3970 017b 08       		.uleb128 0x8
 3971 017c 3A       		.uleb128 0x3a
 3972 017d 0B       		.uleb128 0xb
 3973 017e 3B       		.uleb128 0x3b
 3974 017f 0B       		.uleb128 0xb
 3975 0180 49       		.uleb128 0x49
 3976 0181 13       		.uleb128 0x13
 3977 0182 00       		.byte	0x0
 3978 0183 00       		.byte	0x0
 3979 0184 21       		.uleb128 0x21
 3980 0185 2E       		.uleb128 0x2e
 3981 0186 01       		.byte	0x1
 3982 0187 03       		.uleb128 0x3
 3983 0188 0E       		.uleb128 0xe
 3984 0189 3A       		.uleb128 0x3a
 3985 018a 0B       		.uleb128 0xb
 3986 018b 3B       		.uleb128 0x3b
 3987 018c 05       		.uleb128 0x5
 3988 018d 27       		.uleb128 0x27
 3989 018e 0C       		.uleb128 0xc
 3990 018f 11       		.uleb128 0x11
 3991 0190 01       		.uleb128 0x1
 3992 0191 12       		.uleb128 0x12
 3993 0192 01       		.uleb128 0x1
ARM GAS  C:\Users\z80\AppData\Local\Temp\ccSskHdY.s 			page 72


 3994 0193 40       		.uleb128 0x40
 3995 0194 0A       		.uleb128 0xa
 3996 0195 01       		.uleb128 0x1
 3997 0196 13       		.uleb128 0x13
 3998 0197 00       		.byte	0x0
 3999 0198 00       		.byte	0x0
 4000 0199 22       		.uleb128 0x22
 4001 019a 05       		.uleb128 0x5
 4002 019b 00       		.byte	0x0
 4003 019c 03       		.uleb128 0x3
 4004 019d 0E       		.uleb128 0xe
 4005 019e 3A       		.uleb128 0x3a
 4006 019f 0B       		.uleb128 0xb
 4007 01a0 3B       		.uleb128 0x3b
 4008 01a1 05       		.uleb128 0x5
 4009 01a2 49       		.uleb128 0x49
 4010 01a3 13       		.uleb128 0x13
 4011 01a4 02       		.uleb128 0x2
 4012 01a5 0A       		.uleb128 0xa
 4013 01a6 00       		.byte	0x0
 4014 01a7 00       		.byte	0x0
 4015 01a8 23       		.uleb128 0x23
 4016 01a9 2E       		.uleb128 0x2e
 4017 01aa 01       		.byte	0x1
 4018 01ab 03       		.uleb128 0x3
 4019 01ac 0E       		.uleb128 0xe
 4020 01ad 3A       		.uleb128 0x3a
 4021 01ae 0B       		.uleb128 0xb
 4022 01af 3B       		.uleb128 0x3b
 4023 01b0 05       		.uleb128 0x5
 4024 01b1 27       		.uleb128 0x27
 4025 01b2 0C       		.uleb128 0xc
 4026 01b3 11       		.uleb128 0x11
 4027 01b4 01       		.uleb128 0x1
 4028 01b5 12       		.uleb128 0x12
 4029 01b6 01       		.uleb128 0x1
 4030 01b7 40       		.uleb128 0x40
 4031 01b8 06       		.uleb128 0x6
 4032 01b9 01       		.uleb128 0x1
 4033 01ba 13       		.uleb128 0x13
 4034 01bb 00       		.byte	0x0
 4035 01bc 00       		.byte	0x0
 4036 01bd 24       		.uleb128 0x24
 4037 01be 05       		.uleb128 0x5
 4038 01bf 00       		.byte	0x0
 4039 01c0 03       		.uleb128 0x3
 4040 01c1 08       		.uleb128 0x8
 4041 01c2 3A       		.uleb128 0x3a
 4042 01c3 0B       		.uleb128 0xb
 4043 01c4 3B       		.uleb128 0x3b
 4044 01c5 05       		.uleb128 0x5
 4045 01c6 49       		.uleb128 0x49
 4046 01c7 13       		.uleb128 0x13
 4047 01c8 02       		.uleb128 0x2
 4048 01c9 06       		.uleb128 0x6
 4049 01ca 00       		.byte	0x0
 4050 01cb 00       		.byte	0x0
ARM GAS  C:\Users\z80\AppData\Local\Temp\ccSskHdY.s 			page 73


 4051 01cc 25       		.uleb128 0x25
 4052 01cd 2E       		.uleb128 0x2e
 4053 01ce 00       		.byte	0x0
 4054 01cf 03       		.uleb128 0x3
 4055 01d0 0E       		.uleb128 0xe
 4056 01d1 3A       		.uleb128 0x3a
 4057 01d2 0B       		.uleb128 0xb
 4058 01d3 3B       		.uleb128 0x3b
 4059 01d4 05       		.uleb128 0x5
 4060 01d5 27       		.uleb128 0x27
 4061 01d6 0C       		.uleb128 0xc
 4062 01d7 11       		.uleb128 0x11
 4063 01d8 01       		.uleb128 0x1
 4064 01d9 12       		.uleb128 0x12
 4065 01da 01       		.uleb128 0x1
 4066 01db 40       		.uleb128 0x40
 4067 01dc 06       		.uleb128 0x6
 4068 01dd 00       		.byte	0x0
 4069 01de 00       		.byte	0x0
 4070 01df 26       		.uleb128 0x26
 4071 01e0 2E       		.uleb128 0x2e
 4072 01e1 01       		.byte	0x1
 4073 01e2 03       		.uleb128 0x3
 4074 01e3 0E       		.uleb128 0xe
 4075 01e4 3A       		.uleb128 0x3a
 4076 01e5 0B       		.uleb128 0xb
 4077 01e6 3B       		.uleb128 0x3b
 4078 01e7 0B       		.uleb128 0xb
 4079 01e8 27       		.uleb128 0x27
 4080 01e9 0C       		.uleb128 0xc
 4081 01ea 11       		.uleb128 0x11
 4082 01eb 01       		.uleb128 0x1
 4083 01ec 12       		.uleb128 0x12
 4084 01ed 01       		.uleb128 0x1
 4085 01ee 40       		.uleb128 0x40
 4086 01ef 06       		.uleb128 0x6
 4087 01f0 01       		.uleb128 0x1
 4088 01f1 13       		.uleb128 0x13
 4089 01f2 00       		.byte	0x0
 4090 01f3 00       		.byte	0x0
 4091 01f4 27       		.uleb128 0x27
 4092 01f5 05       		.uleb128 0x5
 4093 01f6 00       		.byte	0x0
 4094 01f7 03       		.uleb128 0x3
 4095 01f8 08       		.uleb128 0x8
 4096 01f9 3A       		.uleb128 0x3a
 4097 01fa 0B       		.uleb128 0xb
 4098 01fb 3B       		.uleb128 0x3b
 4099 01fc 0B       		.uleb128 0xb
 4100 01fd 49       		.uleb128 0x49
 4101 01fe 13       		.uleb128 0x13
 4102 01ff 02       		.uleb128 0x2
 4103 0200 06       		.uleb128 0x6
 4104 0201 00       		.byte	0x0
 4105 0202 00       		.byte	0x0
 4106 0203 28       		.uleb128 0x28
 4107 0204 34       		.uleb128 0x34
ARM GAS  C:\Users\z80\AppData\Local\Temp\ccSskHdY.s 			page 74


 4108 0205 00       		.byte	0x0
 4109 0206 03       		.uleb128 0x3
 4110 0207 08       		.uleb128 0x8
 4111 0208 3A       		.uleb128 0x3a
 4112 0209 0B       		.uleb128 0xb
 4113 020a 3B       		.uleb128 0x3b
 4114 020b 0B       		.uleb128 0xb
 4115 020c 49       		.uleb128 0x49
 4116 020d 13       		.uleb128 0x13
 4117 020e 02       		.uleb128 0x2
 4118 020f 06       		.uleb128 0x6
 4119 0210 00       		.byte	0x0
 4120 0211 00       		.byte	0x0
 4121 0212 29       		.uleb128 0x29
 4122 0213 34       		.uleb128 0x34
 4123 0214 00       		.byte	0x0
 4124 0215 03       		.uleb128 0x3
 4125 0216 08       		.uleb128 0x8
 4126 0217 3A       		.uleb128 0x3a
 4127 0218 0B       		.uleb128 0xb
 4128 0219 3B       		.uleb128 0x3b
 4129 021a 0B       		.uleb128 0xb
 4130 021b 49       		.uleb128 0x49
 4131 021c 13       		.uleb128 0x13
 4132 021d 02       		.uleb128 0x2
 4133 021e 0A       		.uleb128 0xa
 4134 021f 00       		.byte	0x0
 4135 0220 00       		.byte	0x0
 4136 0221 2A       		.uleb128 0x2a
 4137 0222 34       		.uleb128 0x34
 4138 0223 00       		.byte	0x0
 4139 0224 03       		.uleb128 0x3
 4140 0225 0E       		.uleb128 0xe
 4141 0226 3A       		.uleb128 0x3a
 4142 0227 0B       		.uleb128 0xb
 4143 0228 3B       		.uleb128 0x3b
 4144 0229 05       		.uleb128 0x5
 4145 022a 49       		.uleb128 0x49
 4146 022b 13       		.uleb128 0x13
 4147 022c 02       		.uleb128 0x2
 4148 022d 06       		.uleb128 0x6
 4149 022e 00       		.byte	0x0
 4150 022f 00       		.byte	0x0
 4151 0230 2B       		.uleb128 0x2b
 4152 0231 0B       		.uleb128 0xb
 4153 0232 01       		.byte	0x1
 4154 0233 55       		.uleb128 0x55
 4155 0234 06       		.uleb128 0x6
 4156 0235 01       		.uleb128 0x1
 4157 0236 13       		.uleb128 0x13
 4158 0237 00       		.byte	0x0
 4159 0238 00       		.byte	0x0
 4160 0239 2C       		.uleb128 0x2c
 4161 023a 0B       		.uleb128 0xb
 4162 023b 01       		.byte	0x1
 4163 023c 11       		.uleb128 0x11
 4164 023d 01       		.uleb128 0x1
ARM GAS  C:\Users\z80\AppData\Local\Temp\ccSskHdY.s 			page 75


 4165 023e 12       		.uleb128 0x12
 4166 023f 01       		.uleb128 0x1
 4167 0240 01       		.uleb128 0x1
 4168 0241 13       		.uleb128 0x13
 4169 0242 00       		.byte	0x0
 4170 0243 00       		.byte	0x0
 4171 0244 2D       		.uleb128 0x2d
 4172 0245 34       		.uleb128 0x34
 4173 0246 00       		.byte	0x0
 4174 0247 03       		.uleb128 0x3
 4175 0248 08       		.uleb128 0x8
 4176 0249 3A       		.uleb128 0x3a
 4177 024a 0B       		.uleb128 0xb
 4178 024b 3B       		.uleb128 0x3b
 4179 024c 05       		.uleb128 0x5
 4180 024d 49       		.uleb128 0x49
 4181 024e 13       		.uleb128 0x13
 4182 024f 02       		.uleb128 0x2
 4183 0250 06       		.uleb128 0x6
 4184 0251 00       		.byte	0x0
 4185 0252 00       		.byte	0x0
 4186 0253 2E       		.uleb128 0x2e
 4187 0254 0B       		.uleb128 0xb
 4188 0255 01       		.byte	0x1
 4189 0256 11       		.uleb128 0x11
 4190 0257 01       		.uleb128 0x1
 4191 0258 12       		.uleb128 0x12
 4192 0259 01       		.uleb128 0x1
 4193 025a 00       		.byte	0x0
 4194 025b 00       		.byte	0x0
 4195 025c 2F       		.uleb128 0x2f
 4196 025d 05       		.uleb128 0x5
 4197 025e 00       		.byte	0x0
 4198 025f 03       		.uleb128 0x3
 4199 0260 0E       		.uleb128 0xe
 4200 0261 3A       		.uleb128 0x3a
 4201 0262 0B       		.uleb128 0xb
 4202 0263 3B       		.uleb128 0x3b
 4203 0264 0B       		.uleb128 0xb
 4204 0265 49       		.uleb128 0x49
 4205 0266 13       		.uleb128 0x13
 4206 0267 02       		.uleb128 0x2
 4207 0268 06       		.uleb128 0x6
 4208 0269 00       		.byte	0x0
 4209 026a 00       		.byte	0x0
 4210 026b 30       		.uleb128 0x30
 4211 026c 34       		.uleb128 0x34
 4212 026d 00       		.byte	0x0
 4213 026e 03       		.uleb128 0x3
 4214 026f 0E       		.uleb128 0xe
 4215 0270 3A       		.uleb128 0x3a
 4216 0271 0B       		.uleb128 0xb
 4217 0272 3B       		.uleb128 0x3b
 4218 0273 0B       		.uleb128 0xb
 4219 0274 49       		.uleb128 0x49
 4220 0275 13       		.uleb128 0x13
 4221 0276 02       		.uleb128 0x2
ARM GAS  C:\Users\z80\AppData\Local\Temp\ccSskHdY.s 			page 76


 4222 0277 0A       		.uleb128 0xa
 4223 0278 00       		.byte	0x0
 4224 0279 00       		.byte	0x0
 4225 027a 31       		.uleb128 0x31
 4226 027b 34       		.uleb128 0x34
 4227 027c 00       		.byte	0x0
 4228 027d 03       		.uleb128 0x3
 4229 027e 08       		.uleb128 0x8
 4230 027f 3A       		.uleb128 0x3a
 4231 0280 0B       		.uleb128 0xb
 4232 0281 3B       		.uleb128 0x3b
 4233 0282 0B       		.uleb128 0xb
 4234 0283 49       		.uleb128 0x49
 4235 0284 13       		.uleb128 0x13
 4236 0285 1C       		.uleb128 0x1c
 4237 0286 0B       		.uleb128 0xb
 4238 0287 00       		.byte	0x0
 4239 0288 00       		.byte	0x0
 4240 0289 32       		.uleb128 0x32
 4241 028a 21       		.uleb128 0x21
 4242 028b 00       		.byte	0x0
 4243 028c 49       		.uleb128 0x49
 4244 028d 13       		.uleb128 0x13
 4245 028e 2F       		.uleb128 0x2f
 4246 028f 0B       		.uleb128 0xb
 4247 0290 00       		.byte	0x0
 4248 0291 00       		.byte	0x0
 4249 0292 33       		.uleb128 0x33
 4250 0293 2E       		.uleb128 0x2e
 4251 0294 00       		.byte	0x0
 4252 0295 3F       		.uleb128 0x3f
 4253 0296 0C       		.uleb128 0xc
 4254 0297 03       		.uleb128 0x3
 4255 0298 0E       		.uleb128 0xe
 4256 0299 3A       		.uleb128 0x3a
 4257 029a 0B       		.uleb128 0xb
 4258 029b 3B       		.uleb128 0x3b
 4259 029c 0B       		.uleb128 0xb
 4260 029d 27       		.uleb128 0x27
 4261 029e 0C       		.uleb128 0xc
 4262 029f 11       		.uleb128 0x11
 4263 02a0 01       		.uleb128 0x1
 4264 02a1 12       		.uleb128 0x12
 4265 02a2 01       		.uleb128 0x1
 4266 02a3 40       		.uleb128 0x40
 4267 02a4 06       		.uleb128 0x6
 4268 02a5 00       		.byte	0x0
 4269 02a6 00       		.byte	0x0
 4270 02a7 34       		.uleb128 0x34
 4271 02a8 2E       		.uleb128 0x2e
 4272 02a9 01       		.byte	0x1
 4273 02aa 3F       		.uleb128 0x3f
 4274 02ab 0C       		.uleb128 0xc
 4275 02ac 03       		.uleb128 0x3
 4276 02ad 0E       		.uleb128 0xe
 4277 02ae 3A       		.uleb128 0x3a
 4278 02af 0B       		.uleb128 0xb
ARM GAS  C:\Users\z80\AppData\Local\Temp\ccSskHdY.s 			page 77


 4279 02b0 3B       		.uleb128 0x3b
 4280 02b1 0B       		.uleb128 0xb
 4281 02b2 27       		.uleb128 0x27
 4282 02b3 0C       		.uleb128 0xc
 4283 02b4 11       		.uleb128 0x11
 4284 02b5 01       		.uleb128 0x1
 4285 02b6 12       		.uleb128 0x12
 4286 02b7 01       		.uleb128 0x1
 4287 02b8 40       		.uleb128 0x40
 4288 02b9 06       		.uleb128 0x6
 4289 02ba 01       		.uleb128 0x1
 4290 02bb 13       		.uleb128 0x13
 4291 02bc 00       		.byte	0x0
 4292 02bd 00       		.byte	0x0
 4293 02be 35       		.uleb128 0x35
 4294 02bf 34       		.uleb128 0x34
 4295 02c0 00       		.byte	0x0
 4296 02c1 03       		.uleb128 0x3
 4297 02c2 0E       		.uleb128 0xe
 4298 02c3 3A       		.uleb128 0x3a
 4299 02c4 0B       		.uleb128 0xb
 4300 02c5 3B       		.uleb128 0x3b
 4301 02c6 0B       		.uleb128 0xb
 4302 02c7 49       		.uleb128 0x49
 4303 02c8 13       		.uleb128 0x13
 4304 02c9 02       		.uleb128 0x2
 4305 02ca 06       		.uleb128 0x6
 4306 02cb 00       		.byte	0x0
 4307 02cc 00       		.byte	0x0
 4308 02cd 36       		.uleb128 0x36
 4309 02ce 0B       		.uleb128 0xb
 4310 02cf 01       		.byte	0x1
 4311 02d0 55       		.uleb128 0x55
 4312 02d1 06       		.uleb128 0x6
 4313 02d2 00       		.byte	0x0
 4314 02d3 00       		.byte	0x0
 4315 02d4 37       		.uleb128 0x37
 4316 02d5 1D       		.uleb128 0x1d
 4317 02d6 01       		.byte	0x1
 4318 02d7 31       		.uleb128 0x31
 4319 02d8 13       		.uleb128 0x13
 4320 02d9 52       		.uleb128 0x52
 4321 02da 01       		.uleb128 0x1
 4322 02db 55       		.uleb128 0x55
 4323 02dc 06       		.uleb128 0x6
 4324 02dd 58       		.uleb128 0x58
 4325 02de 0B       		.uleb128 0xb
 4326 02df 59       		.uleb128 0x59
 4327 02e0 0B       		.uleb128 0xb
 4328 02e1 00       		.byte	0x0
 4329 02e2 00       		.byte	0x0
 4330 02e3 38       		.uleb128 0x38
 4331 02e4 05       		.uleb128 0x5
 4332 02e5 00       		.byte	0x0
 4333 02e6 31       		.uleb128 0x31
 4334 02e7 13       		.uleb128 0x13
 4335 02e8 02       		.uleb128 0x2
ARM GAS  C:\Users\z80\AppData\Local\Temp\ccSskHdY.s 			page 78


 4336 02e9 06       		.uleb128 0x6
 4337 02ea 00       		.byte	0x0
 4338 02eb 00       		.byte	0x0
 4339 02ec 39       		.uleb128 0x39
 4340 02ed 34       		.uleb128 0x34
 4341 02ee 00       		.byte	0x0
 4342 02ef 31       		.uleb128 0x31
 4343 02f0 13       		.uleb128 0x13
 4344 02f1 02       		.uleb128 0x2
 4345 02f2 06       		.uleb128 0x6
 4346 02f3 00       		.byte	0x0
 4347 02f4 00       		.byte	0x0
 4348 02f5 3A       		.uleb128 0x3a
 4349 02f6 34       		.uleb128 0x34
 4350 02f7 00       		.byte	0x0
 4351 02f8 31       		.uleb128 0x31
 4352 02f9 13       		.uleb128 0x13
 4353 02fa 1C       		.uleb128 0x1c
 4354 02fb 0B       		.uleb128 0xb
 4355 02fc 00       		.byte	0x0
 4356 02fd 00       		.byte	0x0
 4357 02fe 3B       		.uleb128 0x3b
 4358 02ff 2E       		.uleb128 0x2e
 4359 0300 00       		.byte	0x0
 4360 0301 3F       		.uleb128 0x3f
 4361 0302 0C       		.uleb128 0xc
 4362 0303 03       		.uleb128 0x3
 4363 0304 0E       		.uleb128 0xe
 4364 0305 3A       		.uleb128 0x3a
 4365 0306 0B       		.uleb128 0xb
 4366 0307 3B       		.uleb128 0x3b
 4367 0308 0B       		.uleb128 0xb
 4368 0309 27       		.uleb128 0x27
 4369 030a 0C       		.uleb128 0xc
 4370 030b 49       		.uleb128 0x49
 4371 030c 13       		.uleb128 0x13
 4372 030d 11       		.uleb128 0x11
 4373 030e 01       		.uleb128 0x1
 4374 030f 12       		.uleb128 0x12
 4375 0310 01       		.uleb128 0x1
 4376 0311 40       		.uleb128 0x40
 4377 0312 0A       		.uleb128 0xa
 4378 0313 00       		.byte	0x0
 4379 0314 00       		.byte	0x0
 4380 0315 3C       		.uleb128 0x3c
 4381 0316 34       		.uleb128 0x34
 4382 0317 00       		.byte	0x0
 4383 0318 03       		.uleb128 0x3
 4384 0319 0E       		.uleb128 0xe
 4385 031a 3A       		.uleb128 0x3a
 4386 031b 0B       		.uleb128 0xb
 4387 031c 3B       		.uleb128 0x3b
 4388 031d 05       		.uleb128 0x5
 4389 031e 49       		.uleb128 0x49
 4390 031f 13       		.uleb128 0x13
 4391 0320 3F       		.uleb128 0x3f
 4392 0321 0C       		.uleb128 0xc
ARM GAS  C:\Users\z80\AppData\Local\Temp\ccSskHdY.s 			page 79


 4393 0322 3C       		.uleb128 0x3c
 4394 0323 0C       		.uleb128 0xc
 4395 0324 00       		.byte	0x0
 4396 0325 00       		.byte	0x0
 4397 0326 3D       		.uleb128 0x3d
 4398 0327 34       		.uleb128 0x34
 4399 0328 00       		.byte	0x0
 4400 0329 03       		.uleb128 0x3
 4401 032a 08       		.uleb128 0x8
 4402 032b 3A       		.uleb128 0x3a
 4403 032c 0B       		.uleb128 0xb
 4404 032d 3B       		.uleb128 0x3b
 4405 032e 0B       		.uleb128 0xb
 4406 032f 49       		.uleb128 0x49
 4407 0330 13       		.uleb128 0x13
 4408 0331 3F       		.uleb128 0x3f
 4409 0332 0C       		.uleb128 0xc
 4410 0333 3C       		.uleb128 0x3c
 4411 0334 0C       		.uleb128 0xc
 4412 0335 00       		.byte	0x0
 4413 0336 00       		.byte	0x0
 4414 0337 00       		.byte	0x0
 4415              		.section	.debug_pubnames,"",%progbits
 4416 0000 3A000000 		.4byte	0x3a
 4417 0004 0200     		.2byte	0x2
 4418 0006 00000000 		.4byte	.Ldebug_info0
 4419 000a DD0F0000 		.4byte	0xfdd
 4420 000e 3C0E0000 		.4byte	0xe3c
 4421 0012 696E6974 		.ascii	"initCpuIo\000"
 4421      43707549 
 4421      6F00
 4422 001c 510E0000 		.4byte	0xe51
 4423 0020 70726F63 		.ascii	"processCpuIo\000"
 4423      65737343 
 4423      7075496F 
 4423      00
 4424 002d 260F0000 		.4byte	0xf26
 4425 0031 66756E63 		.ascii	"funcArgs\000"
 4425      41726773 
 4425      00
 4426 003a 00000000 		.4byte	0x0
 4427              		.section	.debug_pubtypes,"",%progbits
 4428 0000 74020000 		.4byte	0x274
 4429 0004 0200     		.2byte	0x2
 4430 0006 00000000 		.4byte	.Ldebug_info0
 4431 000a DD0F0000 		.4byte	0xfdd
 4432 000e 30000000 		.4byte	0x30
 4433 0012 73697A65 		.ascii	"size_t\000"
 4433      5F7400
 4434 0019 49000000 		.4byte	0x49
 4435 001d 75696E74 		.ascii	"uint8_t\000"
 4435      385F7400 
 4436 0025 62000000 		.4byte	0x62
 4437 0029 75696E74 		.ascii	"uint16_t\000"
 4437      31365F74 
 4437      00
 4438 0032 74000000 		.4byte	0x74
ARM GAS  C:\Users\z80\AppData\Local\Temp\ccSskHdY.s 			page 80


 4439 0036 696E7433 		.ascii	"int32_t\000"
 4439      325F7400 
 4440 003e 86000000 		.4byte	0x86
 4441 0042 75696E74 		.ascii	"uint32_t\000"
 4441      33325F74 
 4441      00
 4442 004b 9F000000 		.4byte	0x9f
 4443 004f 75696E74 		.ascii	"uint64_t\000"
 4443      36345F74 
 4443      00
 4444 0058 B1000000 		.4byte	0xb1
 4445 005c 75696E74 		.ascii	"uint_fast16_t\000"
 4445      5F666173 
 4445      7431365F 
 4445      7400
 4446 006a BC000000 		.4byte	0xbc
 4447 006e 626F6F6C 		.ascii	"bool_t\000"
 4447      5F7400
 4448 0075 C7000000 		.4byte	0xc7
 4449 0079 746D6F64 		.ascii	"tmode_t\000"
 4449      655F7400 
 4450 0081 D2000000 		.4byte	0xd2
 4451 0085 74737461 		.ascii	"tstate_t\000"
 4451      74655F74 
 4451      00
 4452 008e DD000000 		.4byte	0xdd
 4453 0092 74707269 		.ascii	"tprio_t\000"
 4453      6F5F7400 
 4454 009a E8000000 		.4byte	0xe8
 4455 009e 6D73675F 		.ascii	"msg_t\000"
 4455      7400
 4456 00a4 F3000000 		.4byte	0xf3
 4457 00a8 6576656E 		.ascii	"eventmask_t\000"
 4457      746D6173 
 4457      6B5F7400 
 4458 00b4 FE000000 		.4byte	0xfe
 4459 00b8 73797374 		.ascii	"systime_t\000"
 4459      696D655F 
 4459      7400
 4460 00c2 09010000 		.4byte	0x109
 4461 00c6 54687265 		.ascii	"Thread\000"
 4461      616400
 4462 00cd 48020000 		.4byte	0x248
 4463 00d1 54687265 		.ascii	"ThreadsQueue\000"
 4463      61647351 
 4463      75657565 
 4463      00
 4464 00de 6A020000 		.4byte	0x26a
 4465 00e2 54687265 		.ascii	"ThreadsList\000"
 4465      6164734C 
 4465      69737400 
 4466 00ee 75020000 		.4byte	0x275
 4467 00f2 72656761 		.ascii	"regarm_t\000"
 4467      726D5F74 
 4467      00
 4468 00fb 82020000 		.4byte	0x282
 4469 00ff 73746B61 		.ascii	"stkalign_t\000"
ARM GAS  C:\Users\z80\AppData\Local\Temp\ccSskHdY.s 			page 81


 4469      6C69676E 
 4469      5F7400
 4470 010a 8D020000 		.4byte	0x28d
 4471 010e 696E7463 		.ascii	"intctx\000"
 4471      747800
 4472 0115 1A030000 		.4byte	0x31a
 4473 0119 636F6E74 		.ascii	"context\000"
 4473      65787400 
 4474 0121 4A030000 		.4byte	0x34a
 4475 0125 4D757465 		.ascii	"Mutex\000"
 4475      7800
 4476 012b 87030000 		.4byte	0x387
 4477 012f 4D757465 		.ascii	"Mutex\000"
 4477      7800
 4478 0135 92030000 		.4byte	0x392
 4479 0139 4576656E 		.ascii	"EventListener\000"
 4479      744C6973 
 4479      74656E65 
 4479      7200
 4480 0147 9D030000 		.4byte	0x39d
 4481 014b 4576656E 		.ascii	"EventListener\000"
 4481      744C6973 
 4481      74656E65 
 4481      7200
 4482 0159 DA030000 		.4byte	0x3da
 4483 015d 4576656E 		.ascii	"EventSource\000"
 4483      74536F75 
 4483      72636500 
 4484 0169 F5030000 		.4byte	0x3f5
 4485 016d 4576656E 		.ascii	"EventSource\000"
 4485      74536F75 
 4485      72636500 
 4486 0179 14010000 		.4byte	0x114
 4487 017d 54687265 		.ascii	"Thread\000"
 4487      616400
 4488 0184 53040000 		.4byte	0x453
 4489 0188 47656E65 		.ascii	"GenericQueue\000"
 4489      72696351 
 4489      75657565 
 4489      00
 4490 0195 CD040000 		.4byte	0x4cd
 4491 0199 716E6F74 		.ascii	"qnotify_t\000"
 4491      6966795F 
 4491      7400
 4492 01a3 5E040000 		.4byte	0x45e
 4493 01a7 47656E65 		.ascii	"GenericQueue\000"
 4493      72696351 
 4493      75657565 
 4493      00
 4494 01b4 F6040000 		.4byte	0x4f6
 4495 01b8 496E7075 		.ascii	"InputQueue\000"
 4495      74517565 
 4495      756500
 4496 01c3 01050000 		.4byte	0x501
 4497 01c7 4F757470 		.ascii	"OutputQueue\000"
 4497      75745175 
 4497      65756500 
ARM GAS  C:\Users\z80\AppData\Local\Temp\ccSskHdY.s 			page 82


 4498 01d3 F2050000 		.4byte	0x5f2
 4499 01d7 696F666C 		.ascii	"ioflags_t\000"
 4499      6167735F 
 4499      7400
 4500 01e1 14060000 		.4byte	0x614
 4501 01e5 5446756E 		.ascii	"TFunc\000"
 4501      6300
 4502 01eb AE060000 		.4byte	0x6ae
 4503 01ef 4750494F 		.ascii	"GPIO_TypeDef\000"
 4503      5F547970 
 4503      65446566 
 4503      00
 4504 01fc 94070000 		.4byte	0x794
 4505 0200 55534152 		.ascii	"USART_TypeDef\000"
 4505      545F5479 
 4505      70654465 
 4505      6600
 4506 020e A0070000 		.4byte	0x7a0
 4507 0212 696F706F 		.ascii	"ioportmask_t\000"
 4507      72746D61 
 4507      736B5F74 
 4507      00
 4508 021f C6070000 		.4byte	0x7c6
 4509 0223 73647374 		.ascii	"sdstate_t\000"
 4509      6174655F 
 4509      7400
 4510 022d D1070000 		.4byte	0x7d1
 4511 0231 53657269 		.ascii	"SerialDriver\000"
 4511      616C4472 
 4511      69766572 
 4511      00
 4512 023e A9080000 		.4byte	0x8a9
 4513 0242 53657269 		.ascii	"SerialConfig\000"
 4513      616C436F 
 4513      6E666967 
 4513      00
 4514 024f B4080000 		.4byte	0x8b4
 4515 0253 53657269 		.ascii	"SerialDriverVMT\000"
 4515      616C4472 
 4515      69766572 
 4515      564D5400 
 4516 0263 DC070000 		.4byte	0x7dc
 4517 0267 53657269 		.ascii	"SerialDriver\000"
 4517      616C4472 
 4517      69766572 
 4517      00
 4518 0274 00000000 		.4byte	0x0
 4519              		.section	.debug_aranges,"",%progbits
 4520 0000 BC000000 		.4byte	0xbc
 4521 0004 0200     		.2byte	0x2
 4522 0006 00000000 		.4byte	.Ldebug_info0
 4523 000a 04       		.byte	0x4
 4524 000b 00       		.byte	0x0
 4525 000c 0000     		.2byte	0x0
 4526 000e 0000     		.2byte	0x0
 4527 0010 00000000 		.4byte	.LFB76
 4528 0014 02000000 		.4byte	.LFE76-.LFB76
ARM GAS  C:\Users\z80\AppData\Local\Temp\ccSskHdY.s 			page 83


 4529 0018 00000000 		.4byte	.LFB77
 4530 001c 02000000 		.4byte	.LFE77-.LFB77
 4531 0020 00000000 		.4byte	.LFB78
 4532 0024 02000000 		.4byte	.LFE78-.LFB78
 4533 0028 00000000 		.4byte	.LFB79
 4534 002c 02000000 		.4byte	.LFE79-.LFB79
 4535 0030 00000000 		.4byte	.LFB80
 4536 0034 02000000 		.4byte	.LFE80-.LFB80
 4537 0038 00000000 		.4byte	.LFB81
 4538 003c 02000000 		.4byte	.LFE81-.LFB81
 4539 0040 00000000 		.4byte	.LFB82
 4540 0044 02000000 		.4byte	.LFE82-.LFB82
 4541 0048 00000000 		.4byte	.LFB83
 4542 004c 34000000 		.4byte	.LFE83-.LFB83
 4543 0050 00000000 		.4byte	.LFB84
 4544 0054 14000000 		.4byte	.LFE84-.LFB84
 4545 0058 00000000 		.4byte	.LFB75
 4546 005c 64000000 		.4byte	.LFE75-.LFB75
 4547 0060 00000000 		.4byte	.LFB68
 4548 0064 30000000 		.4byte	.LFE68-.LFB68
 4549 0068 00000000 		.4byte	.LFB67
 4550 006c 30000000 		.4byte	.LFE67-.LFB67
 4551 0070 00000000 		.4byte	.LFB74
 4552 0074 18000000 		.4byte	.LFE74-.LFB74
 4553 0078 00000000 		.4byte	.LFB73
 4554 007c 0A000000 		.4byte	.LFE73-.LFB73
 4555 0080 00000000 		.4byte	.LFB72
 4556 0084 3E000000 		.4byte	.LFE72-.LFB72
 4557 0088 00000000 		.4byte	.LFB71
 4558 008c 1A000000 		.4byte	.LFE71-.LFB71
 4559 0090 00000000 		.4byte	.LFB70
 4560 0094 1A000000 		.4byte	.LFE70-.LFB70
 4561 0098 00000000 		.4byte	.LFB69
 4562 009c 0A000000 		.4byte	.LFE69-.LFB69
 4563 00a0 00000000 		.4byte	.LFB62
 4564 00a4 4A000000 		.4byte	.LFE62-.LFB62
 4565 00a8 00000000 		.4byte	.LFB63
 4566 00ac C4000000 		.4byte	.LFE63-.LFB63
 4567 00b0 00000000 		.4byte	.LFB64
 4568 00b4 0A000000 		.4byte	.LFE64-.LFB64
 4569 00b8 00000000 		.4byte	0x0
 4570 00bc 00000000 		.4byte	0x0
 4571              		.section	.debug_ranges,"",%progbits
 4572              	.Ldebug_ranges0:
 4573 0000 08000000 		.4byte	.LBB9
 4574 0004 0A000000 		.4byte	.LBE9
 4575 0008 0C000000 		.4byte	.LBB10
 4576 000c 10000000 		.4byte	.LBE10
 4577 0010 00000000 		.4byte	0x0
 4578 0014 00000000 		.4byte	0x0
 4579 0018 12000000 		.4byte	.LBB16
 4580 001c 30000000 		.4byte	.LBE16
 4581 0020 32000000 		.4byte	.LBB33
 4582 0024 C4000000 		.4byte	.LBE33
 4583 0028 00000000 		.4byte	0x0
 4584 002c 00000000 		.4byte	0x0
 4585 0030 1C000000 		.4byte	.LBB19
ARM GAS  C:\Users\z80\AppData\Local\Temp\ccSskHdY.s 			page 84


 4586 0034 1E000000 		.4byte	.LBE19
 4587 0038 92000000 		.4byte	.LBB32
 4588 003c C4000000 		.4byte	.LBE32
 4589 0040 66000000 		.4byte	.LBB31
 4590 0044 80000000 		.4byte	.LBE31
 4591 0048 24000000 		.4byte	.LBB17
 4592 004c 2E000000 		.4byte	.LBE17
 4593 0050 20000000 		.4byte	.LBB18
 4594 0054 22000000 		.4byte	.LBE18
 4595 0058 00000000 		.4byte	0x0
 4596 005c 00000000 		.4byte	0x0
 4597 0060 1C000000 		.4byte	.LBB22
 4598 0064 1E000000 		.4byte	.LBE22
 4599 0068 92000000 		.4byte	.LBB30
 4600 006c C4000000 		.4byte	.LBE30
 4601 0070 66000000 		.4byte	.LBB20
 4602 0074 80000000 		.4byte	.LBE20
 4603 0078 24000000 		.4byte	.LBB29
 4604 007c 2E000000 		.4byte	.LBE29
 4605 0080 20000000 		.4byte	.LBB21
 4606 0084 22000000 		.4byte	.LBE21
 4607 0088 00000000 		.4byte	0x0
 4608 008c 00000000 		.4byte	0x0
 4609 0090 2C000000 		.4byte	.LBB24
 4610 0094 2E000000 		.4byte	.LBE24
 4611 0098 92000000 		.4byte	.LBB28
 4612 009c C4000000 		.4byte	.LBE28
 4613 00a0 7C000000 		.4byte	.LBB23
 4614 00a4 80000000 		.4byte	.LBE23
 4615 00a8 00000000 		.4byte	0x0
 4616 00ac 00000000 		.4byte	0x0
 4617 00b0 2C000000 		.4byte	.LBB26
 4618 00b4 2E000000 		.4byte	.LBE26
 4619 00b8 92000000 		.4byte	.LBB27
 4620 00bc C4000000 		.4byte	.LBE27
 4621 00c0 7C000000 		.4byte	.LBB25
 4622 00c4 80000000 		.4byte	.LBE25
 4623 00c8 00000000 		.4byte	0x0
 4624 00cc 00000000 		.4byte	0x0
 4625 00d0 00000000 		.4byte	.LFB76
 4626 00d4 02000000 		.4byte	.LFE76
 4627 00d8 00000000 		.4byte	.LFB77
 4628 00dc 02000000 		.4byte	.LFE77
 4629 00e0 00000000 		.4byte	.LFB78
 4630 00e4 02000000 		.4byte	.LFE78
 4631 00e8 00000000 		.4byte	.LFB79
 4632 00ec 02000000 		.4byte	.LFE79
 4633 00f0 00000000 		.4byte	.LFB80
 4634 00f4 02000000 		.4byte	.LFE80
 4635 00f8 00000000 		.4byte	.LFB81
 4636 00fc 02000000 		.4byte	.LFE81
 4637 0100 00000000 		.4byte	.LFB82
 4638 0104 02000000 		.4byte	.LFE82
 4639 0108 00000000 		.4byte	.LFB83
 4640 010c 34000000 		.4byte	.LFE83
 4641 0110 00000000 		.4byte	.LFB84
 4642 0114 14000000 		.4byte	.LFE84
ARM GAS  C:\Users\z80\AppData\Local\Temp\ccSskHdY.s 			page 85


 4643 0118 00000000 		.4byte	.LFB75
 4644 011c 64000000 		.4byte	.LFE75
 4645 0120 00000000 		.4byte	.LFB68
 4646 0124 30000000 		.4byte	.LFE68
 4647 0128 00000000 		.4byte	.LFB67
 4648 012c 30000000 		.4byte	.LFE67
 4649 0130 00000000 		.4byte	.LFB74
 4650 0134 18000000 		.4byte	.LFE74
 4651 0138 00000000 		.4byte	.LFB73
 4652 013c 0A000000 		.4byte	.LFE73
 4653 0140 00000000 		.4byte	.LFB72
 4654 0144 3E000000 		.4byte	.LFE72
 4655 0148 00000000 		.4byte	.LFB71
 4656 014c 1A000000 		.4byte	.LFE71
 4657 0150 00000000 		.4byte	.LFB70
 4658 0154 1A000000 		.4byte	.LFE70
 4659 0158 00000000 		.4byte	.LFB69
 4660 015c 0A000000 		.4byte	.LFE69
 4661 0160 00000000 		.4byte	.LFB62
 4662 0164 4A000000 		.4byte	.LFE62
 4663 0168 00000000 		.4byte	.LFB63
 4664 016c C4000000 		.4byte	.LFE63
 4665 0170 00000000 		.4byte	.LFB64
 4666 0174 0A000000 		.4byte	.LFE64
 4667 0178 00000000 		.4byte	0x0
 4668 017c 00000000 		.4byte	0x0
 4669              		.section	.debug_str,"MS",%progbits,1
 4670              	.LASF151:
 4671 0000 77726974 		.ascii	"writeEom\000"
 4671      65456F6D 
 4671      00
 4672              	.LASF99:
 4673 0009 73635F73 		.ascii	"sc_speed\000"
 4673      70656564 
 4673      00
 4674              	.LASF2:
 4675 0012 73697A65 		.ascii	"size_t\000"
 4675      5F7400
 4676              	.LASF57:
 4677 0019 7264796D 		.ascii	"rdymsg\000"
 4677      736700
 4678              	.LASF13:
 4679 0020 75696E74 		.ascii	"uint64_t\000"
 4679      36345F74 
 4679      00
 4680              	.LASF147:
 4681 0029 66756E63 		.ascii	"funcs\000"
 4681      7300
 4682              	.LASF72:
 4683 002f 4F757470 		.ascii	"OutputQueue\000"
 4683      75745175 
 4683      65756500 
 4684              	.LASF74:
 4685 003b 5446756E 		.ascii	"TFunc\000"
 4685      6300
 4686              	.LASF118:
 4687 0041 7365745F 		.ascii	"set_sweep_osc\000"
ARM GAS  C:\Users\z80\AppData\Local\Temp\ccSskHdY.s 			page 86


 4687      73776565 
 4687      705F6F73 
 4687      6300
 4688              	.LASF87:
 4689 004f 696F706F 		.ascii	"ioportmask_t\000"
 4689      72746D61 
 4689      736B5F74 
 4689      00
 4690              	.LASF15:
 4691 005c 75696E74 		.ascii	"uint_fast16_t\000"
 4691      5F666173 
 4691      7431365F 
 4691      7400
 4692              	.LASF14:
 4693 006a 6C6F6E67 		.ascii	"long long unsigned int\000"
 4693      206C6F6E 
 4693      6720756E 
 4693      7369676E 
 4693      65642069 
 4694              	.LASF154:
 4695 0081 66756E63 		.ascii	"funcArgs\000"
 4695      41726773 
 4695      00
 4696              	.LASF58:
 4697 008a 65786974 		.ascii	"exitcode\000"
 4697      636F6465 
 4697      00
 4698              	.LASF142:
 4699 0093 6F75745F 		.ascii	"out_index\000"
 4699      696E6465 
 4699      7800
 4700              	.LASF144:
 4701 009d 49544D5F 		.ascii	"ITM_RxBuffer\000"
 4701      52784275 
 4701      66666572 
 4701      00
 4702              	.LASF128:
 4703 00aa 73696749 		.ascii	"sigInd\000"
 4703      6E6400
 4704              	.LASF16:
 4705 00b1 626F6F6C 		.ascii	"bool_t\000"
 4705      5F7400
 4706              	.LASF26:
 4707 00b8 705F7072 		.ascii	"p_prio\000"
 4707      696F00
 4708              	.LASF110:
 4709 00bf 72656164 		.ascii	"readt\000"
 4709      7400
 4710              	.LASF63:
 4711 00c5 715F7761 		.ascii	"q_waiting\000"
 4711      6974696E 
 4711      6700
 4712              	.LASF12:
 4713 00cf 6C6F6E67 		.ascii	"long long int\000"
 4713      206C6F6E 
 4713      6720696E 
 4713      7400
ARM GAS  C:\Users\z80\AppData\Local\Temp\ccSskHdY.s 			page 87


 4714              	.LASF1:
 4715 00dd 7369676E 		.ascii	"signed char\000"
 4715      65642063 
 4715      68617200 
 4716              	.LASF75:
 4717 00e9 42535252 		.ascii	"BSRR\000"
 4717      00
 4718              	.LASF84:
 4719 00ee 47545052 		.ascii	"GTPR\000"
 4719      00
 4720              	.LASF89:
 4721 00f3 53445F53 		.ascii	"SD_STOP\000"
 4721      544F5000 
 4722              	.LASF133:
 4723 00fb 7365745F 		.ascii	"set_osc_period\000"
 4723      6F73635F 
 4723      70657269 
 4723      6F6400
 4724              	.LASF48:
 4725 010a 6D5F7175 		.ascii	"m_queue\000"
 4725      65756500 
 4726              	.LASF59:
 4727 0112 77746F62 		.ascii	"wtobjp\000"
 4727      6A7000
 4728              	.LASF150:
 4729 0119 433A5C70 		.ascii	"C:\\projects\\digitizer.git\\firmware\\digitizer\000"
 4729      726F6A65 
 4729      6374735C 
 4729      64696769 
 4729      74697A65 
 4730              	.LASF95:
 4731 0146 73746174 		.ascii	"state\000"
 4731      6500
 4732              	.LASF9:
 4733 014c 6C6F6E67 		.ascii	"long int\000"
 4733      20696E74 
 4733      00
 4734              	.LASF18:
 4735 0155 74737461 		.ascii	"tstate_t\000"
 4735      74655F74 
 4735      00
 4736              	.LASF65:
 4737 015e 715F6275 		.ascii	"q_buffer\000"
 4737      66666572 
 4737      00
 4738              	.LASF67:
 4739 0167 715F7772 		.ascii	"q_wrptr\000"
 4739      70747200 
 4740              	.LASF28:
 4741 016f 705F6E65 		.ascii	"p_newer\000"
 4741      77657200 
 4742              	.LASF107:
 4743 0177 70757477 		.ascii	"putwouldblock\000"
 4743      6F756C64 
 4743      626C6F63 
 4743      6B00
 4744              	.LASF77:
ARM GAS  C:\Users\z80\AppData\Local\Temp\ccSskHdY.s 			page 88


 4745 0185 4750494F 		.ascii	"GPIO_TypeDef\000"
 4745      5F547970 
 4745      65446566 
 4745      00
 4746              	.LASF43:
 4747 0192 72656761 		.ascii	"regarm_t\000"
 4747      726D5F74 
 4747      00
 4748              	.LASF55:
 4749 019b 4576656E 		.ascii	"EventSource\000"
 4749      74536F75 
 4749      72636500 
 4750              	.LASF137:
 4751 01a7 76616C4C 		.ascii	"valL\000"
 4751      00
 4752              	.LASF124:
 4753 01ac 6765745F 		.ascii	"get_trigger_data\000"
 4753      74726967 
 4753      6765725F 
 4753      64617461 
 4753      00
 4754              	.LASF98:
 4755 01bd 75736172 		.ascii	"usart\000"
 4755      7400
 4756              	.LASF121:
 4757 01c3 6669726D 		.ascii	"firmware_upgrade\000"
 4757      77617265 
 4757      5F757067 
 4757      72616465 
 4757      00
 4758              	.LASF6:
 4759 01d4 75696E74 		.ascii	"uint16_t\000"
 4759      31365F74 
 4759      00
 4760              	.LASF104:
 4761 01dd 53657269 		.ascii	"SerialDriverVMT\000"
 4761      616C4472 
 4761      69766572 
 4761      564D5400 
 4762              	.LASF34:
 4763 01ed 705F7469 		.ascii	"p_time\000"
 4763      6D6500
 4764              	.LASF132:
 4765 01f4 68617264 		.ascii	"hardware_version\000"
 4765      77617265 
 4765      5F766572 
 4765      73696F6E 
 4765      00
 4766              	.LASF117:
 4767 0205 7365745F 		.ascii	"set_sweep\000"
 4767      73776565 
 4767      7000
 4768              	.LASF96:
 4769 020f 69717565 		.ascii	"iqueue\000"
 4769      756500
 4770              	.LASF36:
 4771 0216 705F6D73 		.ascii	"p_msgqueue\000"
ARM GAS  C:\Users\z80\AppData\Local\Temp\ccSskHdY.s 			page 89


 4771      67717565 
 4771      756500
 4772              	.LASF131:
 4773 0221 73747269 		.ascii	"stri\000"
 4773      00
 4774              	.LASF76:
 4775 0226 4C434B52 		.ascii	"LCKR\000"
 4775      00
 4776              	.LASF114:
 4777 022b 65786563 		.ascii	"exec_func\000"
 4777      5F66756E 
 4777      6300
 4778              	.LASF143:
 4779 0235 6E6F4461 		.ascii	"noData\000"
 4779      746100
 4780              	.LASF19:
 4781 023c 74707269 		.ascii	"tprio_t\000"
 4781      6F5F7400 
 4782              	.LASF93:
 4783 0244 6576656E 		.ascii	"event\000"
 4783      7400
 4784              	.LASF7:
 4785 024a 73686F72 		.ascii	"short unsigned int\000"
 4785      7420756E 
 4785      7369676E 
 4785      65642069 
 4785      6E7400
 4786              	.LASF134:
 4787 025d 7365745F 		.ascii	"set_osc_signals\000"
 4787      6F73635F 
 4787      7369676E 
 4787      616C7300 
 4788              	.LASF97:
 4789 026d 6F717565 		.ascii	"oqueue\000"
 4789      756500
 4790              	.LASF130:
 4791 0274 6669726D 		.ascii	"firmware_version\000"
 4791      77617265 
 4791      5F766572 
 4791      73696F6E 
 4791      00
 4792              	.LASF86:
 4793 0285 55534152 		.ascii	"USART_TypeDef\000"
 4793      545F5479 
 4793      70654465 
 4793      6600
 4794              	.LASF109:
 4795 0293 77726974 		.ascii	"writet\000"
 4795      657400
 4796              	.LASF17:
 4797 029a 746D6F64 		.ascii	"tmode_t\000"
 4797      655F7400 
 4798              	.LASF42:
 4799 02a2 54687265 		.ascii	"ThreadsList\000"
 4799      6164734C 
 4799      69737400 
 4800              	.LASF21:
ARM GAS  C:\Users\z80\AppData\Local\Temp\ccSskHdY.s 			page 90


 4801 02ae 6576656E 		.ascii	"eventmask_t\000"
 4801      746D6173 
 4801      6B5F7400 
 4802              	.LASF71:
 4803 02ba 496E7075 		.ascii	"InputQueue\000"
 4803      74517565 
 4803      756500
 4804              	.LASF70:
 4805 02c5 716E6F74 		.ascii	"qnotify_t\000"
 4805      6966795F 
 4805      7400
 4806              	.LASF149:
 4807 02cf 2E2F7372 		.ascii	"./src/cpu_io.c\000"
 4807      632F6370 
 4807      755F696F 
 4807      2E6300
 4808              	.LASF62:
 4809 02de 47656E65 		.ascii	"GenericQueue\000"
 4809      72696351 
 4809      75657565 
 4809      00
 4810              	.LASF44:
 4811 02eb 73746B61 		.ascii	"stkalign_t\000"
 4811      6C69676E 
 4811      5F7400
 4812              	.LASF126:
 4813 02f6 6765745F 		.ascii	"get_osc_data\000"
 4813      6F73635F 
 4813      64617461 
 4813      00
 4814              	.LASF105:
 4815 0303 77726974 		.ascii	"write\000"
 4815      6500
 4816              	.LASF64:
 4817 0309 715F636F 		.ascii	"q_counter\000"
 4817      756E7465 
 4817      7200
 4818              	.LASF47:
 4819 0313 4D757465 		.ascii	"Mutex\000"
 4819      7800
 4820              	.LASF140:
 4821 0319 7365745F 		.ascii	"set_led\000"
 4821      6C656400 
 4822              	.LASF29:
 4823 0321 705F6F6C 		.ascii	"p_older\000"
 4823      64657200 
 4824              	.LASF73:
 4825 0329 696F666C 		.ascii	"ioflags_t\000"
 4825      6167735F 
 4825      7400
 4826              	.LASF41:
 4827 0333 54687265 		.ascii	"ThreadsQueue\000"
 4827      61647351 
 4827      75657565 
 4827      00
 4828              	.LASF31:
 4829 0340 705F7374 		.ascii	"p_stklimit\000"
ARM GAS  C:\Users\z80\AppData\Local\Temp\ccSskHdY.s 			page 91


 4829      6B6C696D 
 4829      697400
 4830              	.LASF120:
 4831 034b 6765745F 		.ascii	"get_sweep_data\000"
 4831      73776565 
 4831      705F6461 
 4831      746100
 4832              	.LASF129:
 4833 035a 62797465 		.ascii	"byteInd\000"
 4833      496E6400 
 4834              	.LASF54:
 4835 0362 656C5F6D 		.ascii	"el_mask\000"
 4835      61736B00 
 4836              	.LASF103:
 4837 036a 53657269 		.ascii	"SerialConfig\000"
 4837      616C436F 
 4837      6E666967 
 4837      00
 4838              	.LASF138:
 4839 0377 76616C48 		.ascii	"valH\000"
 4839      00
 4840              	.LASF78:
 4841 037c 52455345 		.ascii	"RESERVED0\000"
 4841      52564544 
 4841      3000
 4842              	.LASF79:
 4843 0386 52455345 		.ascii	"RESERVED1\000"
 4843      52564544 
 4843      3100
 4844              	.LASF80:
 4845 0390 52455345 		.ascii	"RESERVED2\000"
 4845      52564544 
 4845      3200
 4846              	.LASF81:
 4847 039a 52455345 		.ascii	"RESERVED3\000"
 4847      52564544 
 4847      3300
 4848              	.LASF82:
 4849 03a4 52455345 		.ascii	"RESERVED4\000"
 4849      52564544 
 4849      3400
 4850              	.LASF25:
 4851 03ae 705F7072 		.ascii	"p_prev\000"
 4851      657600
 4852              	.LASF139:
 4853 03b5 7365745F 		.ascii	"set_dac1\000"
 4853      64616331 
 4853      00
 4854              	.LASF136:
 4855 03be 7365745F 		.ascii	"set_dac2\000"
 4855      64616332 
 4855      00
 4856              	.LASF113:
 4857 03c7 66756E63 		.ascii	"funcs_sz\000"
 4857      735F737A 
 4857      00
 4858              	.LASF68:
ARM GAS  C:\Users\z80\AppData\Local\Temp\ccSskHdY.s 			page 92


 4859 03d0 715F7264 		.ascii	"q_rdptr\000"
 4859      70747200 
 4860              	.LASF123:
 4861 03d8 7365745F 		.ascii	"set_trigger_sweep\000"
 4861      74726967 
 4861      6765725F 
 4861      73776565 
 4861      7000
 4862              	.LASF8:
 4863 03ea 696E7433 		.ascii	"int32_t\000"
 4863      325F7400 
 4864              	.LASF4:
 4865 03f2 756E7369 		.ascii	"unsigned char\000"
 4865      676E6564 
 4865      20636861 
 4865      7200
 4866              	.LASF146:
 4867 0400 73657269 		.ascii	"serial_cfg\000"
 4867      616C5F63 
 4867      666700
 4868              	.LASF53:
 4869 040b 656C5F6C 		.ascii	"el_listener\000"
 4869      69737465 
 4869      6E657200 
 4870              	.LASF32:
 4871 0417 705F7374 		.ascii	"p_state\000"
 4871      61746500 
 4872              	.LASF39:
 4873 041f 705F6D74 		.ascii	"p_mtxlist\000"
 4873      786C6973 
 4873      7400
 4874              	.LASF5:
 4875 0429 73686F72 		.ascii	"short int\000"
 4875      7420696E 
 4875      7400
 4876              	.LASF115:
 4877 0433 70726F63 		.ascii	"process_command\000"
 4877      6573735F 
 4877      636F6D6D 
 4877      616E6400 
 4878              	.LASF60:
 4879 0443 65776D61 		.ascii	"ewmask\000"
 4879      736B00
 4880              	.LASF24:
 4881 044a 705F6E65 		.ascii	"p_next\000"
 4881      787400
 4882              	.LASF33:
 4883 0451 705F666C 		.ascii	"p_flags\000"
 4883      61677300 
 4884              	.LASF52:
 4885 0459 656C5F6E 		.ascii	"el_next\000"
 4885      65787400 
 4886              	.LASF23:
 4887 0461 54687265 		.ascii	"Thread\000"
 4887      616400
 4888              	.LASF38:
 4889 0468 705F6570 		.ascii	"p_epending\000"
ARM GAS  C:\Users\z80\AppData\Local\Temp\ccSskHdY.s 			page 93


 4889      656E6469 
 4889      6E6700
 4890              	.LASF88:
 4891 0473 53445F55 		.ascii	"SD_UNINIT\000"
 4891      4E494E49 
 4891      5400
 4892              	.LASF83:
 4893 047d 52455345 		.ascii	"RESERVED5\000"
 4893      52564544 
 4893      3500
 4894              	.LASF85:
 4895 0487 52455345 		.ascii	"RESERVED6\000"
 4895      52564544 
 4895      3600
 4896              	.LASF10:
 4897 0491 75696E74 		.ascii	"uint32_t\000"
 4897      33325F74 
 4897      00
 4898              	.LASF91:
 4899 049a 73647374 		.ascii	"sdstate_t\000"
 4899      6174655F 
 4899      7400
 4900              	.LASF92:
 4901 04a4 53657269 		.ascii	"SerialDriver\000"
 4901      616C4472 
 4901      69766572 
 4901      00
 4902              	.LASF11:
 4903 04b1 6C6F6E67 		.ascii	"long unsigned int\000"
 4903      20756E73 
 4903      69676E65 
 4903      6420696E 
 4903      7400
 4904              	.LASF106:
 4905 04c3 72656164 		.ascii	"read\000"
 4905      00
 4906              	.LASF61:
 4907 04c8 63686172 		.ascii	"char\000"
 4907      00
 4908              	.LASF0:
 4909 04cd 756E7369 		.ascii	"unsigned int\000"
 4909      676E6564 
 4909      20696E74 
 4909      00
 4910              	.LASF125:
 4911 04da 77726974 		.ascii	"writeResult\000"
 4911      65526573 
 4911      756C7400 
 4912              	.LASF153:
 4913 04e6 70726F63 		.ascii	"processCpuIo\000"
 4913      65737343 
 4913      7075496F 
 4913      00
 4914              	.LASF50:
 4915 04f3 6D5F6E65 		.ascii	"m_next\000"
 4915      787400
 4916              	.LASF22:
ARM GAS  C:\Users\z80\AppData\Local\Temp\ccSskHdY.s 			page 94


 4917 04fa 73797374 		.ascii	"systime_t\000"
 4917      696D655F 
 4917      7400
 4918              	.LASF40:
 4919 0504 705F7265 		.ascii	"p_realprio\000"
 4919      616C7072 
 4919      696F00
 4920              	.LASF145:
 4921 050f 62756666 		.ascii	"buffer\000"
 4921      657200
 4922              	.LASF122:
 4923 0516 7365745F 		.ascii	"set_trigger\000"
 4923      74726967 
 4923      67657200 
 4924              	.LASF116:
 4925 0522 64617461 		.ascii	"data\000"
 4925      00
 4926              	.LASF111:
 4927 0527 67657466 		.ascii	"getflags\000"
 4927      6C616773 
 4927      00
 4928              	.LASF46:
 4929 0530 636F6E74 		.ascii	"context\000"
 4929      65787400 
 4930              	.LASF20:
 4931 0538 6D73675F 		.ascii	"msg_t\000"
 4931      7400
 4932              	.LASF45:
 4933 053e 696E7463 		.ascii	"intctx\000"
 4933      747800
 4934              	.LASF90:
 4935 0545 53445F52 		.ascii	"SD_READY\000"
 4935      45414459 
 4935      00
 4936              	.LASF152:
 4937 054e 696E6974 		.ascii	"initCpuIo\000"
 4937      43707549 
 4937      6F00
 4938              	.LASF66:
 4939 0558 715F746F 		.ascii	"q_top\000"
 4939      7000
 4940              	.LASF30:
 4941 055e 705F6E61 		.ascii	"p_name\000"
 4941      6D6500
 4942              	.LASF56:
 4943 0565 65735F6E 		.ascii	"es_next\000"
 4943      65787400 
 4944              	.LASF69:
 4945 056d 715F6E6F 		.ascii	"q_notify\000"
 4945      74696679 
 4945      00
 4946              	.LASF37:
 4947 0576 705F6D73 		.ascii	"p_msg\000"
 4947      6700
 4948              	.LASF135:
 4949 057c 6765745F 		.ascii	"get_adc\000"
 4949      61646300 
ARM GAS  C:\Users\z80\AppData\Local\Temp\ccSskHdY.s 			page 95


 4950              	.LASF3:
 4951 0584 75696E74 		.ascii	"uint8_t\000"
 4951      385F7400 
 4952              	.LASF112:
 4953 058c 66756E63 		.ascii	"func_index\000"
 4953      5F696E64 
 4953      657800
 4954              	.LASF94:
 4955 0597 666C6167 		.ascii	"flags\000"
 4955      7300
 4956              	.LASF51:
 4957 059d 4576656E 		.ascii	"EventListener\000"
 4957      744C6973 
 4957      74656E65 
 4957      7200
 4958              	.LASF148:
 4959 05ab 474E5520 		.ascii	"GNU C 4.5.0\000"
 4959      4320342E 
 4959      352E3000 
 4960              	.LASF127:
 4961 05b7 72656349 		.ascii	"recInd\000"
 4961      6E6400
 4962              	.LASF141:
 4963 05be 736C6173 		.ascii	"slash\000"
 4963      6800
 4964              	.LASF108:
 4965 05c4 67657477 		.ascii	"getwouldblock\000"
 4965      6F756C64 
 4965      626C6F63 
 4965      6B00
 4966              	.LASF100:
 4967 05d2 73635F63 		.ascii	"sc_cr1\000"
 4967      723100
 4968              	.LASF101:
 4969 05d9 73635F63 		.ascii	"sc_cr2\000"
 4969      723200
 4970              	.LASF102:
 4971 05e0 73635F63 		.ascii	"sc_cr3\000"
 4971      723300
 4972              	.LASF119:
 4973 05e7 61726773 		.ascii	"args\000"
 4973      00
 4974              	.LASF49:
 4975 05ec 6D5F6F77 		.ascii	"m_owner\000"
 4975      6E657200 
 4976              	.LASF27:
 4977 05f4 705F6374 		.ascii	"p_ctx\000"
 4977      7800
 4978              	.LASF35:
 4979 05fa 705F7761 		.ascii	"p_waiting\000"
 4979      6974696E 
 4979      6700
 4980              		.ident	"GCC: (GNU) 4.5.0"
ARM GAS  C:\Users\z80\AppData\Local\Temp\ccSskHdY.s 			page 96


DEFINED SYMBOLS
                            *ABS*:00000000 cpu_io.c
C:\Users\z80\AppData\Local\Temp\ccSskHdY.s:24     .text.set_sweep:00000000 $t
C:\Users\z80\AppData\Local\Temp\ccSskHdY.s:29     .text.set_sweep:00000000 set_sweep
C:\Users\z80\AppData\Local\Temp\ccSskHdY.s:44     .text.set_sweep_osc:00000000 $t
C:\Users\z80\AppData\Local\Temp\ccSskHdY.s:49     .text.set_sweep_osc:00000000 set_sweep_osc
C:\Users\z80\AppData\Local\Temp\ccSskHdY.s:63     .text.get_sweep_data:00000000 $t
C:\Users\z80\AppData\Local\Temp\ccSskHdY.s:68     .text.get_sweep_data:00000000 get_sweep_data
C:\Users\z80\AppData\Local\Temp\ccSskHdY.s:82     .text.firmware_upgrade:00000000 $t
C:\Users\z80\AppData\Local\Temp\ccSskHdY.s:87     .text.firmware_upgrade:00000000 firmware_upgrade
C:\Users\z80\AppData\Local\Temp\ccSskHdY.s:101    .text.set_trigger:00000000 $t
C:\Users\z80\AppData\Local\Temp\ccSskHdY.s:106    .text.set_trigger:00000000 set_trigger
C:\Users\z80\AppData\Local\Temp\ccSskHdY.s:120    .text.set_trigger_sweep:00000000 $t
C:\Users\z80\AppData\Local\Temp\ccSskHdY.s:125    .text.set_trigger_sweep:00000000 set_trigger_sweep
C:\Users\z80\AppData\Local\Temp\ccSskHdY.s:139    .text.get_trigger_data:00000000 $t
C:\Users\z80\AppData\Local\Temp\ccSskHdY.s:144    .text.get_trigger_data:00000000 get_trigger_data
C:\Users\z80\AppData\Local\Temp\ccSskHdY.s:158    .text.writeResult:00000000 $t
C:\Users\z80\AppData\Local\Temp\ccSskHdY.s:163    .text.writeResult:00000000 writeResult
C:\Users\z80\AppData\Local\Temp\ccSskHdY.s:204    .text.writeResult:00000030 $d
C:\Users\z80\AppData\Local\Temp\ccSskHdY.s:209    .text.writeEom:00000000 $t
C:\Users\z80\AppData\Local\Temp\ccSskHdY.s:214    .text.writeEom:00000000 writeEom
C:\Users\z80\AppData\Local\Temp\ccSskHdY.s:235    .text.writeEom:00000010 $d
C:\Users\z80\AppData\Local\Temp\ccSskHdY.s:240    .text.get_osc_data:00000000 $t
C:\Users\z80\AppData\Local\Temp\ccSskHdY.s:245    .text.get_osc_data:00000000 get_osc_data
C:\Users\z80\AppData\Local\Temp\ccSskHdY.s:350    .text.firmware_version:00000000 $t
C:\Users\z80\AppData\Local\Temp\ccSskHdY.s:355    .text.firmware_version:00000000 firmware_version
C:\Users\z80\AppData\Local\Temp\ccSskHdY.s:400    .text.firmware_version:0000002c $d
C:\Users\z80\AppData\Local\Temp\ccSskHdY.s:405    .text.hardware_version:00000000 $t
C:\Users\z80\AppData\Local\Temp\ccSskHdY.s:410    .text.hardware_version:00000000 hardware_version
C:\Users\z80\AppData\Local\Temp\ccSskHdY.s:454    .text.hardware_version:0000002c $d
C:\Users\z80\AppData\Local\Temp\ccSskHdY.s:459    .text.set_osc_period:00000000 $t
C:\Users\z80\AppData\Local\Temp\ccSskHdY.s:464    .text.set_osc_period:00000000 set_osc_period
C:\Users\z80\AppData\Local\Temp\ccSskHdY.s:500    .text.set_osc_signals:00000000 $t
C:\Users\z80\AppData\Local\Temp\ccSskHdY.s:505    .text.set_osc_signals:00000000 set_osc_signals
C:\Users\z80\AppData\Local\Temp\ccSskHdY.s:527    .text.get_adc:00000000 $t
C:\Users\z80\AppData\Local\Temp\ccSskHdY.s:532    .text.get_adc:00000000 get_adc
C:\Users\z80\AppData\Local\Temp\ccSskHdY.s:591    .text.set_dac2:00000000 $t
C:\Users\z80\AppData\Local\Temp\ccSskHdY.s:596    .text.set_dac2:00000000 set_dac2
C:\Users\z80\AppData\Local\Temp\ccSskHdY.s:628    .text.set_dac1:00000000 $t
C:\Users\z80\AppData\Local\Temp\ccSskHdY.s:633    .text.set_dac1:00000000 set_dac1
C:\Users\z80\AppData\Local\Temp\ccSskHdY.s:665    .text.set_led:00000000 $t
C:\Users\z80\AppData\Local\Temp\ccSskHdY.s:670    .text.set_led:00000000 set_led
C:\Users\z80\AppData\Local\Temp\ccSskHdY.s:692    .text.initCpuIo:00000000 $t
C:\Users\z80\AppData\Local\Temp\ccSskHdY.s:698    .text.initCpuIo:00000000 initCpuIo
C:\Users\z80\AppData\Local\Temp\ccSskHdY.s:742    .text.processCpuIo:00000000 $t
C:\Users\z80\AppData\Local\Temp\ccSskHdY.s:748    .text.processCpuIo:00000000 processCpuIo
C:\Users\z80\AppData\Local\Temp\ccSskHdY.s:933    .text.processCpuIo:000000a8 $d
C:\Users\z80\AppData\Local\Temp\ccSskHdY.s:949    .text.funcArgs:00000000 $t
C:\Users\z80\AppData\Local\Temp\ccSskHdY.s:955    .text.funcArgs:00000000 funcArgs
C:\Users\z80\AppData\Local\Temp\ccSskHdY.s:1021   .bss.args:00000000 .LANCHOR3
C:\Users\z80\AppData\Local\Temp\ccSskHdY.s:971    .rodata.funcs:00000000 $d
C:\Users\z80\AppData\Local\Temp\ccSskHdY.s:975    .rodata.funcs:00000000 funcs
C:\Users\z80\AppData\Local\Temp\ccSskHdY.s:996    .bss.slash.3623:00000000 slash.3623
C:\Users\z80\AppData\Local\Temp\ccSskHdY.s:997    .bss.slash.3623:00000000 $d
C:\Users\z80\AppData\Local\Temp\ccSskHdY.s:999    .bss.buffer:00000000 $d
C:\Users\z80\AppData\Local\Temp\ccSskHdY.s:1003   .bss.buffer:00000000 buffer
C:\Users\z80\AppData\Local\Temp\ccSskHdY.s:1006   .rodata.str1.4:00000000 $d
ARM GAS  C:\Users\z80\AppData\Local\Temp\ccSskHdY.s 			page 97


C:\Users\z80\AppData\Local\Temp\ccSskHdY.s:1013   .bss.out_index.3624:00000000 $d
C:\Users\z80\AppData\Local\Temp\ccSskHdY.s:1017   .bss.out_index.3624:00000000 out_index.3624
C:\Users\z80\AppData\Local\Temp\ccSskHdY.s:1020   .bss.args:00000000 $d
C:\Users\z80\AppData\Local\Temp\ccSskHdY.s:1024   .bss.args:00000000 args
                     .debug_frame:00000010 $d
C:\Users\z80\AppData\Local\Temp\ccSskHdY.s:208    .text.writeResult:00000034 $t
C:\Users\z80\AppData\Local\Temp\ccSskHdY.s:239    .text.writeEom:00000014 $t
C:\Users\z80\AppData\Local\Temp\ccSskHdY.s:948    .text.processCpuIo:000000c4 $t

UNDEFINED SYMBOLS
chOQPutTimeout
SD1
adcQueue
dbg_check_lock
dbg_check_unlock
chIQGetTimeout
setOscPeriod
setOscSignals
instantAdc
setDac2
setDac1
setLeds
_pal_lld_setgroupmode
sdStart
