ARM GAS  C:\Users\z80\AppData\Local\Temp\cc8udMHo.s 			page 1


   1              		.syntax unified
   2              		.cpu cortex-m3
   3              		.fpu softvfp
   4              		.eabi_attribute 20, 1
   5              		.eabi_attribute 21, 1
   6              		.eabi_attribute 23, 3
   7              		.eabi_attribute 24, 1
   8              		.eabi_attribute 25, 1
   9              		.eabi_attribute 26, 1
  10              		.eabi_attribute 30, 2
  11              		.eabi_attribute 18, 4
  12              		.thumb
  13              		.file	"cpu_io.c"
  14              		.section	.debug_abbrev,"",%progbits
  15              	.Ldebug_abbrev0:
  16              		.section	.debug_info,"",%progbits
  17              	.Ldebug_info0:
  18              		.section	.debug_line,"",%progbits
  19              	.Ldebug_line0:
  20 0000 54040000 		.text
  20      02009702 
  20      00000201 
  20      FB0E0D00 
  20      01010101 
  21              	.Ltext0:
  22              		.cfi_sections	.debug_frame
  23              		.section	.text.writeResult,"ax",%progbits
  24              		.align	2
  25              		.p2align 4,,15
  26              		.thumb
  27              		.thumb_func
  28              		.type	writeResult, %function
  29              	writeResult:
  30              	.LFB76:
  31              		.file 1 "./src/cpu_io.c"
  32              		.loc 1 268 0
  33              		.cfi_startproc
  34              		@ args = 0, pretend = 0, frame = 0
  35              		@ frame_needed = 0, uses_anonymous_args = 0
  36              	.LVL0:
  37              		.loc 1 269 0
  38 0000 D0F10103 		rsbs	r3, r0, #1
  39 0004 38BF     		it	cc
  40 0006 0023     		movcc	r3, #0
  41 0008 5C28     		cmp	r0, #92
  42 000a 08BF     		it	eq
  43 000c 43F00103 		orreq	r3, r3, #1
  44              		.loc 1 268 0
  45 0010 10B5     		push	{r4, lr}
  46              	.LCFI0:
  47              		.cfi_def_cfa_offset 8
  48              		.loc 1 268 0
  49 0012 0446     		mov	r4, r0
  50              		.cfi_offset 14, -4
  51              		.cfi_offset 4, -8
  52              		.loc 1 269 0
  53 0014 2BB1     		cbz	r3, .L2
ARM GAS  C:\Users\z80\AppData\Local\Temp\cc8udMHo.s 			page 2


  54              		.loc 1 270 0
  55 0016 0648     		ldr	r0, .L4
  56              	.LVL1:
  57 0018 5C21     		movs	r1, #92
  58 001a 4FF0FF32 		mov	r2, #-1
  59 001e FFF7FEFF 		bl	chOQPutTimeout
  60              	.L2:
  61              		.loc 1 271 0
  62 0022 2146     		mov	r1, r4
  63 0024 4FF0FF32 		mov	r2, #-1
  64 0028 0148     		ldr	r0, .L4
  65 002a FFF7FEFF 		bl	chOQPutTimeout
  66              		.loc 1 272 0
  67 002e 10BD     		pop	{r4, pc}
  68              	.L5:
  69              		.align	2
  70              	.L4:
  71 0030 30000000 		.word	SD1+48
  72              		.cfi_endproc
  73              	.LFE76:
  74              		.size	writeResult, .-writeResult
  75 0034 AFF30080 		.section	.text.writeEom,"ax",%progbits
  75      AFF30080 
  75      AFF30080 
  76              		.align	2
  77              		.p2align 4,,15
  78              		.thumb
  79              		.thumb_func
  80              		.type	writeEom, %function
  81              	writeEom:
  82              	.LFB77:
  83              		.loc 1 275 0
  84              		.cfi_startproc
  85              		@ args = 0, pretend = 0, frame = 0
  86              		@ frame_needed = 0, uses_anonymous_args = 0
  87 0000 08B5     		push	{r3, lr}
  88              	.LCFI1:
  89              		.cfi_def_cfa_offset 8
  90              		.loc 1 276 0
  91 0002 0021     		movs	r1, #0
  92 0004 4FF0FF32 		mov	r2, #-1
  93 0008 0148     		ldr	r0, .L7
  94              		.cfi_offset 14, -4
  95              		.cfi_offset 3, -8
  96 000a FFF7FEFF 		bl	chOQPutTimeout
  97              		.loc 1 277 0
  98 000e 08BD     		pop	{r3, pc}
  99              	.L8:
 100              		.align	2
 101              	.L7:
 102 0010 30000000 		.word	SD1+48
 103              		.cfi_endproc
 104              	.LFE77:
 105              		.size	writeEom, .-writeEom
 106 0014 AFF30080 		.section	.text.get_osc_data,"ax",%progbits
 106      AFF30080 
 106      AFF30080 
ARM GAS  C:\Users\z80\AppData\Local\Temp\cc8udMHo.s 			page 3


 107              		.align	2
 108              		.p2align 4,,15
 109              		.thumb
 110              		.thumb_func
 111              		.type	get_osc_data, %function
 112              	get_osc_data:
 113              	.LFB75:
 114              		.loc 1 240 0
 115              		.cfi_startproc
 116              		@ args = 0, pretend = 0, frame = 0
 117              		@ frame_needed = 0, uses_anonymous_args = 0
 118              	.LVL2:
 119 0000 70B5     		push	{r4, r5, r6, lr}
 120              	.LCFI2:
 121              		.cfi_def_cfa_offset 16
 122              		.loc 1 245 0
 123              		.cfi_offset 14, -4
 124              		.cfi_offset 6, -8
 125              		.cfi_offset 5, -12
 126              		.cfi_offset 4, -16
 127 0002 FFF7FEFF 		bl	adcQueue
 128              	.LVL3:
 129              	.LBB9:
 130              		.loc 1 246 0
 131 0006 2023     		movs	r3, #32
 132              	.LVL4:
 133              	.LBE9:
 134              		.loc 1 245 0
 135 0008 0446     		mov	r4, r0
 136              	.LVL5:
 137              	.LBB10:
 138              		.loc 1 246 0
 139              	@ 246 "./src/cpu_io.c" 1
 140 000a 83F31188 		msr     BASEPRI, r3
 141              	@ 0 "" 2
 142              	.LVL6:
 143              		.thumb
 144              	.LBE10:
 145 000e FFF7FEFF 		bl	dbg_check_lock
 146              	.LVL7:
 147              		.loc 1 247 0
 148 0012 A568     		ldr	r5, [r4, #8]
 149 0014 4AF6AB23 		movw	r3, #43691
 150 0018 CAF6AA23 		movt	r3, 43690
 151 001c A3FB0525 		umull	r2, r5, r3, r5
 152              		.loc 1 248 0
 153 0020 FFF7FEFF 		bl	dbg_check_unlock
 154              		.loc 1 247 0
 155 0024 ED08     		lsrs	r5, r5, #3
 156              	.LVL8:
 157              	.LBB11:
 158              		.loc 1 248 0
 159 0026 0023     		movs	r3, #0
 160              	.LVL9:
 161              	@ 248 "./src/cpu_io.c" 1
 162 0028 83F31188 		msr     BASEPRI, r3
 163              	@ 0 "" 2
ARM GAS  C:\Users\z80\AppData\Local\Temp\cc8udMHo.s 			page 4


 164              	.LVL10:
 165              		.thumb
 166              	.LBE11:
 167              		.loc 1 249 0
 168 002c 75B1     		cbz	r5, .L10
 169 002e 1E46     		mov	r6, r3
 170              	.LVL11:
 171              	.L12:
 172              	.LBB12:
 173              		.loc 1 251 0
 174 0030 0021     		movs	r1, #0
 175 0032 2046     		mov	r0, r4
 176 0034 FFF7FEFF 		bl	chIQGetTimeout
 177              	.LVL12:
 178              		.loc 1 252 0
 179 0038 831C     		adds	r3, r0, #2
 180              		.loc 1 254 0
 181 003a 012B     		cmp	r3, #1
 182 003c 8CBF     		ite	hi
 183 003e C0B2     		uxtbhi	r0, r0
 184              	.LVL13:
 185 0040 0020     		movls	r0, #0
 186              	.LVL14:
 187              	.LBE12:
 188              		.loc 1 249 0
 189 0042 0136     		adds	r6, r6, #1
 190              	.LBB13:
 191              		.loc 1 255 0
 192 0044 FFF7FEFF 		bl	writeResult
 193              	.LVL15:
 194              	.LBE13:
 195              		.loc 1 249 0
 196 0048 B542     		cmp	r5, r6
 197 004a F1D8     		bhi	.L12
 198              	.LVL16:
 199              	.L10:
 200              		.loc 1 257 0
 201 004c FFF7FEFF 		bl	writeEom
 202              	.LVL17:
 203              		.loc 1 258 0
 204 0050 70BD     		pop	{r4, r5, r6, pc}
 205              		.cfi_endproc
 206              	.LFE75:
 207              		.size	get_osc_data, .-get_osc_data
 208 0052 00BFAFF3 		.section	.text.firmware_version,"ax",%progbits
 208      0080AFF3 
 208      0080AFF3 
 208      0080
 209              		.align	2
 210              		.p2align 4,,15
 211              		.thumb
 212              		.thumb_func
 213              		.type	firmware_version, %function
 214              	firmware_version:
 215              	.LFB68:
 216              		.loc 1 173 0
 217              		.cfi_startproc
ARM GAS  C:\Users\z80\AppData\Local\Temp\cc8udMHo.s 			page 5


 218              		@ args = 0, pretend = 0, frame = 8
 219              		@ frame_needed = 0, uses_anonymous_args = 0
 220              	.LVL18:
 221 0000 30B5     		push	{r4, r5, lr}
 222              	.LCFI3:
 223              		.cfi_def_cfa_offset 12
 224              		.loc 1 175 0
 225 0002 0A4B     		ldr	r3, .L18
 226              		.loc 1 173 0
 227 0004 83B0     		sub	sp, sp, #12
 228              	.LCFI4:
 229              		.cfi_def_cfa_offset 24
 230              		.loc 1 175 0
 231 0006 02AD     		add	r5, sp, #8
 232              		.cfi_offset 14, -4
 233              		.cfi_offset 5, -8
 234              		.cfi_offset 4, -12
 235 0008 93E80300 		ldmia	r3, {r0, r1}
 236              	.LVL19:
 237 000c 45F8080D 		str	r0, [r5, #-8]!
 238 0010 6C1E     		subs	r4, r5, #1
 239 0012 ADF80410 		strh	r1, [sp, #4]	@ movhi
 240              	.LVL20:
 241              		.loc 1 172 0
 242 0016 0435     		adds	r5, r5, #4
 243              	.LVL21:
 244              	.L16:
 245              		.loc 1 179 0 discriminator 2
 246 0018 14F8010F 		ldrb	r0, [r4, #1]!	@ zero_extendqisi2
 247 001c FFF7FEFF 		bl	writeResult
 248              		.loc 1 178 0 discriminator 2
 249 0020 AC42     		cmp	r4, r5
 250 0022 F9D1     		bne	.L16
 251              		.loc 1 180 0
 252 0024 FFF7FEFF 		bl	writeEom
 253              		.loc 1 181 0
 254 0028 03B0     		add	sp, sp, #12
 255 002a 30BD     		pop	{r4, r5, pc}
 256              	.L19:
 257              		.align	2
 258              	.L18:
 259 002c 00000000 		.word	.LC0
 260              		.cfi_endproc
 261              	.LFE68:
 262              		.size	firmware_version, .-firmware_version
 263              		.section	.text.hardware_version,"ax",%progbits
 264              		.align	2
 265              		.p2align 4,,15
 266              		.thumb
 267              		.thumb_func
 268              		.type	hardware_version, %function
 269              	hardware_version:
 270              	.LFB67:
 271              		.loc 1 162 0
 272              		.cfi_startproc
 273              		@ args = 0, pretend = 0, frame = 16
 274              		@ frame_needed = 0, uses_anonymous_args = 0
ARM GAS  C:\Users\z80\AppData\Local\Temp\cc8udMHo.s 			page 6


 275              	.LVL22:
 276 0000 30B5     		push	{r4, r5, lr}
 277              	.LCFI5:
 278              		.cfi_def_cfa_offset 12
 279              		.loc 1 164 0
 280 0002 0A4B     		ldr	r3, .L23
 281              		.loc 1 162 0
 282 0004 85B0     		sub	sp, sp, #20
 283              	.LCFI6:
 284              		.cfi_def_cfa_offset 32
 285              		.loc 1 164 0
 286 0006 EC46     		mov	ip, sp
 287 0008 0FCB     		ldmia	r3, {r0, r1, r2, r3}
 288              	.LVL23:
 289 000a 8CE80F00 		stmia	ip, {r0, r1, r2, r3}
 290              	.LVL24:
 291 000e 0DF1FF34 		add	r4, sp, #-1
 292              		.cfi_offset 14, -4
 293              		.cfi_offset 5, -8
 294              		.cfi_offset 4, -12
 295              		.loc 1 161 0
 296 0012 0DF10E05 		add	r5, sp, #14
 297              	.LVL25:
 298              	.L21:
 299              		.loc 1 168 0 discriminator 2
 300 0016 14F8010F 		ldrb	r0, [r4, #1]!	@ zero_extendqisi2
 301 001a FFF7FEFF 		bl	writeResult
 302              		.loc 1 167 0 discriminator 2
 303 001e AC42     		cmp	r4, r5
 304 0020 F9D1     		bne	.L21
 305              		.loc 1 169 0
 306 0022 FFF7FEFF 		bl	writeEom
 307              		.loc 1 170 0
 308 0026 05B0     		add	sp, sp, #20
 309 0028 30BD     		pop	{r4, r5, pc}
 310              	.L24:
 311 002a 00BF     		.align	2
 312              	.L23:
 313 002c 08000000 		.word	.LC1
 314              		.cfi_endproc
 315              	.LFE67:
 316              		.size	hardware_version, .-hardware_version
 317              		.section	.text.set_osc_period,"ax",%progbits
 318              		.align	2
 319              		.p2align 4,,15
 320              		.thumb
 321              		.thumb_func
 322              		.type	set_osc_period, %function
 323              	set_osc_period:
 324              	.LFB74:
 325              		.loc 1 230 0
 326              		.cfi_startproc
 327              		@ args = 0, pretend = 0, frame = 0
 328              		@ frame_needed = 0, uses_anonymous_args = 0
 329              	.LVL26:
 330 0000 08B5     		push	{r3, lr}
 331              	.LCFI7:
ARM GAS  C:\Users\z80\AppData\Local\Temp\cc8udMHo.s 			page 7


 332              		.cfi_def_cfa_offset 8
 333              		.loc 1 233 0
 334 0002 4378     		ldrb	r3, [r0, #1]	@ zero_extendqisi2
 335              		.cfi_offset 14, -4
 336              		.cfi_offset 3, -8
 337              		.loc 1 232 0
 338 0004 0278     		ldrb	r2, [r0, #0]	@ zero_extendqisi2
 339              	.LVL27:
 340              		.loc 1 234 0
 341 0006 1804     		lsls	r0, r3, #16
 342              	.LVL28:
 343              		.loc 1 233 0
 344 0008 00EB0320 		add	r0, r0, r3, lsl #8
 345              		.loc 1 234 0
 346 000c 8018     		adds	r0, r0, r2
 347              	.LVL29:
 348              		.loc 1 235 0
 349 000e 00EB0360 		add	r0, r0, r3, lsl #24
 350              	.LVL30:
 351              		.loc 1 236 0
 352 0012 FFF7FEFF 		bl	setOscPeriod
 353              		.loc 1 237 0
 354 0016 08BD     		pop	{r3, pc}
 355              		.cfi_endproc
 356              	.LFE74:
 357              		.size	set_osc_period, .-set_osc_period
 358 0018 AFF30080 		.section	.text.set_osc_signals,"ax",%progbits
 358      AFF30080 
 359              		.align	2
 360              		.p2align 4,,15
 361              		.thumb
 362              		.thumb_func
 363              		.type	set_osc_signals, %function
 364              	set_osc_signals:
 365              	.LFB73:
 366              		.loc 1 224 0
 367              		.cfi_startproc
 368              		@ args = 0, pretend = 0, frame = 0
 369              		@ frame_needed = 0, uses_anonymous_args = 0
 370              	.LVL31:
 371 0000 08B5     		push	{r3, lr}
 372              	.LCFI8:
 373              		.cfi_def_cfa_offset 8
 374              		.loc 1 226 0
 375 0002 0078     		ldrb	r0, [r0, #0]	@ zero_extendqisi2
 376              	.LVL32:
 377              		.cfi_offset 14, -4
 378              		.cfi_offset 3, -8
 379 0004 FFF7FEFF 		bl	setOscSignals
 380              		.loc 1 227 0
 381 0008 08BD     		pop	{r3, pc}
 382              		.cfi_endproc
 383              	.LFE73:
 384              		.size	set_osc_signals, .-set_osc_signals
 385 000a 00BFAFF3 		.section	.text.get_adc,"ax",%progbits
 385      0080
 386              		.align	2
ARM GAS  C:\Users\z80\AppData\Local\Temp\cc8udMHo.s 			page 8


 387              		.p2align 4,,15
 388              		.thumb
 389              		.thumb_func
 390              		.type	get_adc, %function
 391              	get_adc:
 392              	.LFB72:
 393              		.loc 1 204 0
 394              		.cfi_startproc
 395              		@ args = 0, pretend = 0, frame = 16
 396              		@ frame_needed = 0, uses_anonymous_args = 0
 397              	.LVL33:
 398 0000 30B5     		push	{r4, r5, lr}
 399              	.LCFI9:
 400              		.cfi_def_cfa_offset 12
 401 0002 85B0     		sub	sp, sp, #20
 402              	.LCFI10:
 403              		.cfi_def_cfa_offset 32
 404              		.loc 1 207 0
 405 0004 6846     		mov	r0, sp
 406              	.LVL34:
 407              		.cfi_offset 14, -4
 408              		.cfi_offset 5, -8
 409              		.cfi_offset 4, -12
 410 0006 FFF7FEFF 		bl	instantAdc
 411              	.LVL35:
 412 000a 6D46     		mov	r5, sp
 413 000c 0024     		movs	r4, #0
 414              	.LVL36:
 415              	.L28:
 416              	.LBB14:
 417              		.loc 1 212 0 discriminator 2
 418 000e 285D     		ldrb	r0, [r5, r4]	@ zero_extendqisi2
 419 0010 FFF7FEFF 		bl	writeResult
 420              	.LVL37:
 421              		.loc 1 213 0 discriminator 2
 422 0014 2859     		ldr	r0, [r5, r4]
 423              		.loc 1 214 0 discriminator 2
 424 0016 C0F30720 		ubfx	r0, r0, #8, #8
 425 001a FFF7FEFF 		bl	writeResult
 426              		.loc 1 215 0 discriminator 2
 427 001e 2859     		ldr	r0, [r5, r4]
 428              		.loc 1 216 0 discriminator 2
 429 0020 C0F30740 		ubfx	r0, r0, #16, #8
 430 0024 FFF7FEFF 		bl	writeResult
 431              		.loc 1 217 0 discriminator 2
 432 0028 2859     		ldr	r0, [r5, r4]
 433              		.loc 1 218 0 discriminator 2
 434 002a 0434     		adds	r4, r4, #4
 435 002c 000E     		lsrs	r0, r0, #24
 436 002e FFF7FEFF 		bl	writeResult
 437              	.LBE14:
 438              		.loc 1 209 0 discriminator 2
 439 0032 102C     		cmp	r4, #16
 440 0034 EBD1     		bne	.L28
 441              		.loc 1 220 0
 442 0036 FFF7FEFF 		bl	writeEom
 443              		.loc 1 221 0
ARM GAS  C:\Users\z80\AppData\Local\Temp\cc8udMHo.s 			page 9


 444 003a 05B0     		add	sp, sp, #20
 445 003c 30BD     		pop	{r4, r5, pc}
 446              		.cfi_endproc
 447              	.LFE72:
 448              		.size	get_adc, .-get_adc
 449 003e 00BF     		.section	.text.set_dac2,"ax",%progbits
 450              		.align	2
 451              		.p2align 4,,15
 452              		.thumb
 453              		.thumb_func
 454              		.type	set_dac2, %function
 455              	set_dac2:
 456              	.LFB71:
 457              		.loc 1 197 0
 458              		.cfi_startproc
 459              		@ args = 0, pretend = 0, frame = 0
 460              		@ frame_needed = 0, uses_anonymous_args = 0
 461              	.LVL38:
 462 0000 08B5     		push	{r3, lr}
 463              	.LCFI11:
 464              		.cfi_def_cfa_offset 8
 465              		.loc 1 199 0
 466 0002 8378     		ldrb	r3, [r0, #2]	@ zero_extendqisi2
 467              		.cfi_offset 14, -4
 468              		.cfi_offset 3, -8
 469              		.loc 1 198 0
 470 0004 90F801C0 		ldrb	ip, [r0, #1]	@ zero_extendqisi2
 471 0008 0278     		ldrb	r2, [r0, #0]	@ zero_extendqisi2
 472              		.loc 1 199 0
 473 000a C178     		ldrb	r1, [r0, #3]	@ zero_extendqisi2
 474              		.loc 1 198 0
 475 000c 02EB0C20 		add	r0, r2, ip, lsl #8
 476              	.LVL39:
 477              		.loc 1 199 0
 478 0010 03EB0121 		add	r1, r3, r1, lsl #8
 479              		.loc 1 200 0
 480 0014 FFF7FEFF 		bl	setDac2
 481              		.loc 1 201 0
 482 0018 08BD     		pop	{r3, pc}
 483              		.cfi_endproc
 484              	.LFE71:
 485              		.size	set_dac2, .-set_dac2
 486 001a 00BFAFF3 		.section	.text.set_dac1,"ax",%progbits
 486      0080
 487              		.align	2
 488              		.p2align 4,,15
 489              		.thumb
 490              		.thumb_func
 491              		.type	set_dac1, %function
 492              	set_dac1:
 493              	.LFB70:
 494              		.loc 1 190 0
 495              		.cfi_startproc
 496              		@ args = 0, pretend = 0, frame = 0
 497              		@ frame_needed = 0, uses_anonymous_args = 0
 498              	.LVL40:
 499 0000 08B5     		push	{r3, lr}
ARM GAS  C:\Users\z80\AppData\Local\Temp\cc8udMHo.s 			page 10


 500              	.LCFI12:
 501              		.cfi_def_cfa_offset 8
 502              		.loc 1 192 0
 503 0002 8378     		ldrb	r3, [r0, #2]	@ zero_extendqisi2
 504              		.cfi_offset 14, -4
 505              		.cfi_offset 3, -8
 506              		.loc 1 191 0
 507 0004 90F801C0 		ldrb	ip, [r0, #1]	@ zero_extendqisi2
 508 0008 0278     		ldrb	r2, [r0, #0]	@ zero_extendqisi2
 509              		.loc 1 192 0
 510 000a C178     		ldrb	r1, [r0, #3]	@ zero_extendqisi2
 511              		.loc 1 191 0
 512 000c 02EB0C20 		add	r0, r2, ip, lsl #8
 513              	.LVL41:
 514              		.loc 1 192 0
 515 0010 03EB0121 		add	r1, r3, r1, lsl #8
 516              		.loc 1 193 0
 517 0014 FFF7FEFF 		bl	setDac1
 518              		.loc 1 194 0
 519 0018 08BD     		pop	{r3, pc}
 520              		.cfi_endproc
 521              	.LFE70:
 522              		.size	set_dac1, .-set_dac1
 523 001a 00BFAFF3 		.section	.text.set_led,"ax",%progbits
 523      0080
 524              		.align	2
 525              		.p2align 4,,15
 526              		.thumb
 527              		.thumb_func
 528              		.type	set_led, %function
 529              	set_led:
 530              	.LFB69:
 531              		.loc 1 184 0
 532              		.cfi_startproc
 533              		@ args = 0, pretend = 0, frame = 0
 534              		@ frame_needed = 0, uses_anonymous_args = 0
 535              	.LVL42:
 536 0000 08B5     		push	{r3, lr}
 537              	.LCFI13:
 538              		.cfi_def_cfa_offset 8
 539              		.loc 1 185 0
 540 0002 0078     		ldrb	r0, [r0, #0]	@ zero_extendqisi2
 541              	.LVL43:
 542              		.cfi_offset 14, -4
 543              		.cfi_offset 3, -8
 544 0004 FFF7FEFF 		bl	setLeds
 545              		.loc 1 186 0
 546 0008 08BD     		pop	{r3, pc}
 547              		.cfi_endproc
 548              	.LFE69:
 549              		.size	set_led, .-set_led
 550 000a 00BFAFF3 		.section	.text.initCpuIo,"ax",%progbits
 550      0080
 551              		.align	2
 552              		.p2align 4,,15
 553              		.global	initCpuIo
 554              		.thumb
ARM GAS  C:\Users\z80\AppData\Local\Temp\cc8udMHo.s 			page 11


 555              		.thumb_func
 556              		.type	initCpuIo, %function
 557              	initCpuIo:
 558              	.LFB62:
 559              		.loc 1 42 0
 560              		.cfi_startproc
 561              		@ args = 0, pretend = 0, frame = 0
 562              		@ frame_needed = 0, uses_anonymous_args = 0
 563 0000 10B5     		push	{r4, lr}
 564              	.LCFI14:
 565              		.cfi_def_cfa_offset 8
 566              		.loc 1 44 0
 567 0002 40F20000 		movw	r0, #:lower16:SD1
 568 0006 40F20001 		movw	r1, #:lower16:.LANCHOR0
 569              		.loc 1 47 0
 570 000a 4FF40064 		mov	r4, #2048
 571              		.cfi_offset 14, -4
 572              		.cfi_offset 4, -8
 573 000e C4F20104 		movt	r4, 16385
 574              		.loc 1 44 0
 575 0012 C0F20000 		movt	r0, #:upper16:SD1
 576 0016 C0F20001 		movt	r1, #:upper16:.LANCHOR0
 577 001a FFF7FEFF 		bl	sdStart
 578              		.loc 1 47 0
 579 001e 2046     		mov	r0, r4
 580 0020 1022     		movs	r2, #16
 581 0022 4FF40071 		mov	r1, #512
 582 0026 FFF7FEFF 		bl	_pal_lld_setgroupmode
 583              		.loc 1 48 0
 584 002a 2046     		mov	r0, r4
 585 002c 0222     		movs	r2, #2
 586 002e 4FF48061 		mov	r1, #1024
 587 0032 FFF7FEFF 		bl	_pal_lld_setgroupmode
 588              		.loc 1 51 0
 589 0036 2046     		mov	r0, r4
 590 0038 1022     		movs	r2, #16
 591 003a 4FF40061 		mov	r1, #2048
 592 003e FFF7FEFF 		bl	_pal_lld_setgroupmode
 593              		.loc 1 54 0
 594 0042 2046     		mov	r0, r4
 595 0044 4FF48051 		mov	r1, #4096
 596 0048 0222     		movs	r2, #2
 597 004a FFF7FEFF 		bl	_pal_lld_setgroupmode
 598              		.loc 1 56 0
 599 004e 10BD     		pop	{r4, pc}
 600              		.cfi_endproc
 601              	.LFE62:
 602              		.size	initCpuIo, .-initCpuIo
 603              		.section	.text.processCpuIo,"ax",%progbits
 604              		.align	2
 605              		.p2align 4,,15
 606              		.global	processCpuIo
 607              		.thumb
 608              		.thumb_func
 609              		.type	processCpuIo, %function
 610              	processCpuIo:
 611              	.LFB63:
ARM GAS  C:\Users\z80\AppData\Local\Temp\cc8udMHo.s 			page 12


 612              		.loc 1 59 0
 613              		.cfi_startproc
 614              		@ args = 0, pretend = 0, frame = 0
 615              		@ frame_needed = 0, uses_anonymous_args = 0
 616 0000 10B5     		push	{r4, lr}
 617              	.LCFI15:
 618              		.cfi_def_cfa_offset 8
 619              		.loc 1 73 0
 620 0002 2948     		ldr	r0, .L47
 621 0004 4FF0FF31 		mov	r1, #-1
 622              		.cfi_offset 14, -4
 623              		.cfi_offset 4, -8
 624 0008 FFF7FEFF 		bl	chIQGetTimeout
 625              	.LVL44:
 626              		.loc 1 74 0
 627 000c 831C     		adds	r3, r0, #2
 628              		.loc 1 75 0
 629 000e 012B     		cmp	r3, #1
 630 0010 0ED9     		bls	.L34
 631              	.LBB15:
 632              		.loc 1 79 0
 633 0012 264A     		ldr	r2, .L47+4
 634              		.loc 1 77 0
 635 0014 C0B2     		uxtb	r0, r0
 636              	.LVL45:
 637              		.loc 1 79 0
 638 0016 1378     		ldrb	r3, [r2, #0]	@ zero_extendqisi2
 639              	.LVL46:
 640 0018 5BB9     		cbnz	r3, .L36
 641              		.loc 1 81 0
 642 001a C0B9     		cbnz	r0, .L37
 643              	.LBB18:
 644              	.LBB21:
 645              		.loc 1 114 0
 646 001c 2449     		ldr	r1, .L47+8
 647              	.LBE21:
 648              	.LBE18:
 649              		.loc 1 84 0
 650 001e 254C     		ldr	r4, .L47+12
 651              	.LBB17:
 652              	.LBB20:
 653              		.loc 1 116 0
 654 0020 0B78     		ldrb	r3, [r1, #0]	@ zero_extendqisi2
 655              	.LBE20:
 656              	.LBE17:
 657              		.loc 1 84 0
 658 0022 2068     		ldr	r0, [r4, #0]
 659              	.LVL47:
 660              	.LBB16:
 661              	.LBB28:
 662              		.loc 1 116 0
 663 0024 012B     		cmp	r3, #1
 664 0026 1ED0     		beq	.L39
 665 0028 022B     		cmp	r3, #2
 666 002a 32D0     		beq	.L46
 667              	.L38:
 668              	.LBB23:
ARM GAS  C:\Users\z80\AppData\Local\Temp\cc8udMHo.s 			page 13


 669              	.LBB25:
 670              		.loc 1 157 0
 671 002c 0023     		movs	r3, #0
 672              	.LVL48:
 673              	.L43:
 674              	.LBE25:
 675              	.LBE23:
 676              	.LBE28:
 677              	.LBE16:
 678              		.loc 1 98 0
 679 002e 2360     		str	r3, [r4, #0]
 680              	.LVL49:
 681              	.L34:
 682              	.LBE15:
 683              		.loc 1 101 0
 684 0030 10BD     		pop	{r4, pc}
 685              	.LVL50:
 686              	.L36:
 687              	.LBB32:
 688              		.loc 1 95 0
 689 0032 204C     		ldr	r4, .L47+12
 690              		.loc 1 94 0
 691 0034 4FF0000C 		mov	ip, #0
 692              		.loc 1 95 0
 693 0038 2168     		ldr	r1, [r4, #0]
 694              		.loc 1 94 0
 695 003a 82F800C0 		strb	ip, [r2, #0]
 696              		.loc 1 95 0
 697 003e 4B1C     		adds	r3, r1, #1
 698 0040 1B4A     		ldr	r2, .L47+8
 699 0042 202B     		cmp	r3, #32
 700 0044 A8BF     		it	ge
 701 0046 2023     		movge	r3, #32
 702 0048 5054     		strb	r0, [r2, r1]
 703              		.loc 1 98 0
 704 004a 2360     		str	r3, [r4, #0]
 705 004c F0E7     		b	.L34
 706              	.L37:
 707              		.loc 1 87 0
 708 004e 5C28     		cmp	r0, #92
 709 0050 16D0     		beq	.L44
 710              		.loc 1 88 0
 711 0052 184C     		ldr	r4, .L47+12
 712 0054 1649     		ldr	r1, .L47+8
 713 0056 2268     		ldr	r2, [r4, #0]
 714 0058 531C     		adds	r3, r2, #1
 715 005a 202B     		cmp	r3, #32
 716 005c A8BF     		it	ge
 717 005e 2023     		movge	r3, #32
 718 0060 8854     		strb	r0, [r1, r2]
 719              		.loc 1 98 0
 720 0062 2360     		str	r3, [r4, #0]
 721 0064 E4E7     		b	.L34
 722              	.LVL51:
 723              	.L39:
 724              	.LBB30:
 725              	.LBB19:
ARM GAS  C:\Users\z80\AppData\Local\Temp\cc8udMHo.s 			page 14


 726              		.loc 1 119 0
 727 0066 0128     		cmp	r0, #1
 728 0068 E0DD     		ble	.L38
 729 006a 134A     		ldr	r2, .L47+16
 730              		.loc 1 115 0
 731 006c 4B1C     		adds	r3, r1, #1
 732              		.loc 1 58 0
 733 006e 0818     		adds	r0, r1, r0
 734              	.LVL52:
 735              	.L41:
 736              		.loc 1 120 0
 737 0070 13F8011B 		ldrb	r1, [r3], #1	@ zero_extendqisi2
 738              		.loc 1 119 0
 739 0074 8342     		cmp	r3, r0
 740              		.loc 1 120 0
 741 0076 02F8011F 		strb	r1, [r2, #1]!
 742              		.loc 1 119 0
 743 007a F9D1     		bne	.L41
 744              	.LBB22:
 745              	.LBB24:
 746              		.loc 1 157 0
 747 007c 0023     		movs	r3, #0
 748 007e D6E7     		b	.L43
 749              	.LVL53:
 750              	.L44:
 751              	.LBE24:
 752              	.LBE22:
 753              	.LBE19:
 754              	.LBE30:
 755              		.loc 1 90 0
 756 0080 0C4C     		ldr	r4, .L47+12
 757 0082 0121     		movs	r1, #1
 758 0084 2368     		ldr	r3, [r4, #0]
 759 0086 1170     		strb	r1, [r2, #0]
 760 0088 202B     		cmp	r3, #32
 761 008a A8BF     		it	ge
 762 008c 2023     		movge	r3, #32
 763              		.loc 1 98 0
 764 008e 2360     		str	r3, [r4, #0]
 765 0090 CEE7     		b	.L34
 766              	.LVL54:
 767              	.L46:
 768              	.LBB31:
 769              	.LBB29:
 770              	.LBB27:
 771              	.LBB26:
 772              		.loc 1 154 0
 773 0092 4B78     		ldrb	r3, [r1, #1]	@ zero_extendqisi2
 774              	.LVL55:
 775              		.loc 1 158 0
 776 0094 094A     		ldr	r2, .L47+20
 777              		.loc 1 157 0
 778 0096 082B     		cmp	r3, #8
 779 0098 C8BF     		it	gt
 780 009a 0023     		movgt	r3, #0
 781              	.LVL56:
 782              		.loc 1 158 0
ARM GAS  C:\Users\z80\AppData\Local\Temp\cc8udMHo.s 			page 15


 783 009c 52F82330 		ldr	r3, [r2, r3, lsl #2]
 784              	.LVL57:
 785 00a0 0748     		ldr	r0, .L47+24
 786              	.LVL58:
 787 00a2 9847     		blx	r3
 788              	.LVL59:
 789              		.loc 1 157 0
 790 00a4 0023     		movs	r3, #0
 791 00a6 C2E7     		b	.L43
 792              	.L48:
 793              		.align	2
 794              	.L47:
 795 00a8 10000000 		.word	SD1+16
 796 00ac 00000000 		.word	.LANCHOR1
 797 00b0 00000000 		.word	.LANCHOR3
 798 00b4 00000000 		.word	.LANCHOR2
 799 00b8 FFFFFFFF 		.word	.LANCHOR4-1
 800 00bc 00000000 		.word	.LANCHOR5
 801 00c0 00000000 		.word	.LANCHOR4
 802              	.LBE26:
 803              	.LBE27:
 804              	.LBE29:
 805              	.LBE31:
 806              	.LBE32:
 807              		.cfi_endproc
 808              	.LFE63:
 809              		.size	processCpuIo, .-processCpuIo
 810 00c4 AFF30080 		.section	.text.funcArgs,"ax",%progbits
 810      AFF30080 
 810      AFF30080 
 811              		.align	2
 812              		.p2align 4,,15
 813              		.global	funcArgs
 814              		.thumb
 815              		.thumb_func
 816              		.type	funcArgs, %function
 817              	funcArgs:
 818              	.LFB64:
 819              		.loc 1 104 0
 820              		.cfi_startproc
 821              		@ args = 0, pretend = 0, frame = 0
 822              		@ frame_needed = 0, uses_anonymous_args = 0
 823              		@ link register save eliminated.
 824              		.loc 1 105 0
 825 0000 40F20000 		movw	r0, #:lower16:.LANCHOR4
 826 0004 C0F20000 		movt	r0, #:upper16:.LANCHOR4
 827              		.loc 1 106 0
 828 0008 7047     		bx	lr
 829              		.cfi_endproc
 830              	.LFE64:
 831              		.size	funcArgs, .-funcArgs
 832 000a 00BFAFF3 		.section	.bss.slash.3767,"aw",%nobits
 832      0080
 833              		.set	.LANCHOR1,. + 0
 834              		.type	slash.3767, %object
 835              		.size	slash.3767, 1
 836              	slash.3767:
ARM GAS  C:\Users\z80\AppData\Local\Temp\cc8udMHo.s 			page 16


 837 0000 00       		.space	1
 838              		.section	.rodata.serial_cfg,"a",%progbits
 839              		.align	2
 840              		.set	.LANCHOR0,. + 0
 841              		.type	serial_cfg, %object
 842              		.size	serial_cfg, 12
 843              	serial_cfg:
 844 0000 00C20100 		.word	115200
 845 0004 0000     		.short	0
 846 0006 0040     		.short	16384
 847 0008 0003     		.short	768
 848 000a 0000     		.space	2
 849              		.section	.bss.out_index.3768,"aw",%nobits
 850              		.align	2
 851              		.set	.LANCHOR2,. + 0
 852              		.type	out_index.3768, %object
 853              		.size	out_index.3768, 4
 854              	out_index.3768:
 855 0000 00000000 		.space	4
 856              		.section	.rodata.funcs,"a",%progbits
 857              		.align	2
 858              		.set	.LANCHOR5,. + 0
 859              		.type	funcs, %object
 860              		.size	funcs, 36
 861              	funcs:
 862 0000 00000000 		.word	hardware_version
 863 0004 00000000 		.word	firmware_version
 864 0008 00000000 		.word	set_led
 865 000c 00000000 		.word	set_dac1
 866 0010 00000000 		.word	set_dac2
 867 0014 00000000 		.word	get_adc
 868 0018 00000000 		.word	set_osc_signals
 869 001c 00000000 		.word	set_osc_period
 870 0020 00000000 		.word	get_osc_data
 871              		.section	.bss.buffer,"aw",%nobits
 872              		.align	2
 873              		.set	.LANCHOR3,. + 0
 874              		.type	buffer, %object
 875              		.size	buffer, 32
 876              	buffer:
 877 0000 00000000 		.space	32
 877      00000000 
 877      00000000 
 877      00000000 
 877      00000000 
 878              		.section	.rodata.str1.4,"aMS",%progbits,1
 879              		.align	2
 880              	.LC0:
 881 0000 302E302E 		.ascii	"0.0.1\000"
 881      3100
 882 0006 0000     		.space	2
 883              	.LC1:
 884 0008 64696769 		.ascii	"digitizer-1.0.0\000"
 884      74697A65 
 884      722D312E 
 884      302E3000 
 885              		.section	.bss.args,"aw",%nobits
ARM GAS  C:\Users\z80\AppData\Local\Temp\cc8udMHo.s 			page 17


 886              		.align	2
 887              		.set	.LANCHOR4,. + 0
 888              		.type	args, %object
 889              		.size	args, 32
 890              	args:
 891 0000 00000000 		.space	32
 891      00000000 
 891      00000000 
 891      00000000 
 891      00000000 
 892              		.text
 893              	.Letext0:
 894              		.section	.debug_loc,"",%progbits
 895              	.Ldebug_loc0:
 896              	.LLST0:
 897 0000 00000000 		.4byte	.LFB76
 898 0004 12000000 		.4byte	.LCFI0
 899 0008 0200     		.2byte	0x2
 900 000a 7D       		.byte	0x7d
 901 000b 00       		.sleb128 0
 902 000c 12000000 		.4byte	.LCFI0
 903 0010 34000000 		.4byte	.LFE76
 904 0014 0200     		.2byte	0x2
 905 0016 7D       		.byte	0x7d
 906 0017 08       		.sleb128 8
 907 0018 00000000 		.4byte	0x0
 908 001c 00000000 		.4byte	0x0
 909              	.LLST1:
 910 0020 00000000 		.4byte	.LVL0
 911 0024 18000000 		.4byte	.LVL1
 912 0028 0100     		.2byte	0x1
 913 002a 50       		.byte	0x50
 914 002b 00000000 		.4byte	0x0
 915 002f 00000000 		.4byte	0x0
 916              	.LLST2:
 917 0033 00000000 		.4byte	.LFB77
 918 0037 02000000 		.4byte	.LCFI1
 919 003b 0200     		.2byte	0x2
 920 003d 7D       		.byte	0x7d
 921 003e 00       		.sleb128 0
 922 003f 02000000 		.4byte	.LCFI1
 923 0043 14000000 		.4byte	.LFE77
 924 0047 0200     		.2byte	0x2
 925 0049 7D       		.byte	0x7d
 926 004a 08       		.sleb128 8
 927 004b 00000000 		.4byte	0x0
 928 004f 00000000 		.4byte	0x0
 929              	.LLST3:
 930 0053 00000000 		.4byte	.LFB75
 931 0057 02000000 		.4byte	.LCFI2
 932 005b 0200     		.2byte	0x2
 933 005d 7D       		.byte	0x7d
 934 005e 00       		.sleb128 0
 935 005f 02000000 		.4byte	.LCFI2
 936 0063 52000000 		.4byte	.LFE75
 937 0067 0200     		.2byte	0x2
 938 0069 7D       		.byte	0x7d
ARM GAS  C:\Users\z80\AppData\Local\Temp\cc8udMHo.s 			page 18


 939 006a 10       		.sleb128 16
 940 006b 00000000 		.4byte	0x0
 941 006f 00000000 		.4byte	0x0
 942              	.LLST4:
 943 0073 00000000 		.4byte	.LVL2
 944 0077 05000000 		.4byte	.LVL3-1
 945 007b 0100     		.2byte	0x1
 946 007d 50       		.byte	0x50
 947 007e 00000000 		.4byte	0x0
 948 0082 00000000 		.4byte	0x0
 949              	.LLST5:
 950 0086 38000000 		.4byte	.LVL12
 951 008a 40000000 		.4byte	.LVL13
 952 008e 0100     		.2byte	0x1
 953 0090 50       		.byte	0x50
 954 0091 40000000 		.4byte	.LVL13
 955 0095 47000000 		.4byte	.LVL15-1
 956 0099 0300     		.2byte	0x3
 957 009b 73       		.byte	0x73
 958 009c 7E       		.sleb128 -2
 959 009d 9F       		.byte	0x9f
 960 009e 00000000 		.4byte	0x0
 961 00a2 00000000 		.4byte	0x0
 962              	.LLST6:
 963 00a6 38000000 		.4byte	.LVL12
 964 00aa 40000000 		.4byte	.LVL13
 965 00ae 0F00     		.2byte	0xf
 966 00b0 70       		.byte	0x70
 967 00b1 02       		.sleb128 2
 968 00b2 23       		.byte	0x23
 969 00b3 80808080 		.uleb128 0x80000000
 969      08
 970 00b8 0C       		.byte	0xc
 971 00b9 01000080 		.4byte	0x80000001
 972 00bd 2C       		.byte	0x2c
 973 00be 9F       		.byte	0x9f
 974 00bf 40000000 		.4byte	.LVL13
 975 00c3 47000000 		.4byte	.LVL15-1
 976 00c7 0F00     		.2byte	0xf
 977 00c9 73       		.byte	0x73
 978 00ca 00       		.sleb128 0
 979 00cb 23       		.byte	0x23
 980 00cc 80808080 		.uleb128 0x80000000
 980      08
 981 00d1 0C       		.byte	0xc
 982 00d2 01000080 		.4byte	0x80000001
 983 00d6 2C       		.byte	0x2c
 984 00d7 9F       		.byte	0x9f
 985 00d8 00000000 		.4byte	0x0
 986 00dc 00000000 		.4byte	0x0
 987              	.LLST7:
 988 00e0 2C000000 		.4byte	.LVL10
 989 00e4 30000000 		.4byte	.LVL11
 990 00e8 0200     		.2byte	0x2
 991 00ea 30       		.byte	0x30
 992 00eb 9F       		.byte	0x9f
 993 00ec 48000000 		.4byte	.LVL15
ARM GAS  C:\Users\z80\AppData\Local\Temp\cc8udMHo.s 			page 19


 994 00f0 4C000000 		.4byte	.LVL16
 995 00f4 0100     		.2byte	0x1
 996 00f6 56       		.byte	0x56
 997 00f7 00000000 		.4byte	0x0
 998 00fb 00000000 		.4byte	0x0
 999              	.LLST8:
 1000 00ff 0A000000 		.4byte	.LVL5
 1001 0103 11000000 		.4byte	.LVL7-1
 1002 0107 0100     		.2byte	0x1
 1003 0109 50       		.byte	0x50
 1004 010a 11000000 		.4byte	.LVL7-1
 1005 010e 52000000 		.4byte	.LFE75
 1006 0112 0100     		.2byte	0x1
 1007 0114 54       		.byte	0x54
 1008 0115 00000000 		.4byte	0x0
 1009 0119 00000000 		.4byte	0x0
 1010              	.LLST9:
 1011 011d 0E000000 		.4byte	.LVL6
 1012 0121 11000000 		.4byte	.LVL7-1
 1013 0125 0100     		.2byte	0x1
 1014 0127 53       		.byte	0x53
 1015 0128 00000000 		.4byte	0x0
 1016 012c 00000000 		.4byte	0x0
 1017              	.LLST10:
 1018 0130 2C000000 		.4byte	.LVL10
 1019 0134 37000000 		.4byte	.LVL12-1
 1020 0138 0100     		.2byte	0x1
 1021 013a 53       		.byte	0x53
 1022 013b 4C000000 		.4byte	.LVL16
 1023 013f 4F000000 		.4byte	.LVL17-1
 1024 0143 0100     		.2byte	0x1
 1025 0145 53       		.byte	0x53
 1026 0146 00000000 		.4byte	0x0
 1027 014a 00000000 		.4byte	0x0
 1028              	.LLST11:
 1029 014e 42000000 		.4byte	.LVL14
 1030 0152 47000000 		.4byte	.LVL15-1
 1031 0156 0100     		.2byte	0x1
 1032 0158 50       		.byte	0x50
 1033 0159 00000000 		.4byte	0x0
 1034 015d 00000000 		.4byte	0x0
 1035              	.LLST12:
 1036 0161 00000000 		.4byte	.LFB68
 1037 0165 02000000 		.4byte	.LCFI3
 1038 0169 0200     		.2byte	0x2
 1039 016b 7D       		.byte	0x7d
 1040 016c 00       		.sleb128 0
 1041 016d 02000000 		.4byte	.LCFI3
 1042 0171 06000000 		.4byte	.LCFI4
 1043 0175 0200     		.2byte	0x2
 1044 0177 7D       		.byte	0x7d
 1045 0178 0C       		.sleb128 12
 1046 0179 06000000 		.4byte	.LCFI4
 1047 017d 30000000 		.4byte	.LFE68
 1048 0181 0200     		.2byte	0x2
 1049 0183 7D       		.byte	0x7d
 1050 0184 18       		.sleb128 24
ARM GAS  C:\Users\z80\AppData\Local\Temp\cc8udMHo.s 			page 20


 1051 0185 00000000 		.4byte	0x0
 1052 0189 00000000 		.4byte	0x0
 1053              	.LLST13:
 1054 018d 00000000 		.4byte	.LVL18
 1055 0191 0C000000 		.4byte	.LVL19
 1056 0195 0100     		.2byte	0x1
 1057 0197 50       		.byte	0x50
 1058 0198 00000000 		.4byte	0x0
 1059 019c 00000000 		.4byte	0x0
 1060              	.LLST14:
 1061 01a0 16000000 		.4byte	.LVL20
 1062 01a4 18000000 		.4byte	.LVL21
 1063 01a8 0200     		.2byte	0x2
 1064 01aa 30       		.byte	0x30
 1065 01ab 9F       		.byte	0x9f
 1066 01ac 00000000 		.4byte	0x0
 1067 01b0 00000000 		.4byte	0x0
 1068              	.LLST15:
 1069 01b4 00000000 		.4byte	.LFB67
 1070 01b8 02000000 		.4byte	.LCFI5
 1071 01bc 0200     		.2byte	0x2
 1072 01be 7D       		.byte	0x7d
 1073 01bf 00       		.sleb128 0
 1074 01c0 02000000 		.4byte	.LCFI5
 1075 01c4 06000000 		.4byte	.LCFI6
 1076 01c8 0200     		.2byte	0x2
 1077 01ca 7D       		.byte	0x7d
 1078 01cb 0C       		.sleb128 12
 1079 01cc 06000000 		.4byte	.LCFI6
 1080 01d0 30000000 		.4byte	.LFE67
 1081 01d4 0200     		.2byte	0x2
 1082 01d6 7D       		.byte	0x7d
 1083 01d7 20       		.sleb128 32
 1084 01d8 00000000 		.4byte	0x0
 1085 01dc 00000000 		.4byte	0x0
 1086              	.LLST16:
 1087 01e0 00000000 		.4byte	.LVL22
 1088 01e4 0A000000 		.4byte	.LVL23
 1089 01e8 0100     		.2byte	0x1
 1090 01ea 50       		.byte	0x50
 1091 01eb 00000000 		.4byte	0x0
 1092 01ef 00000000 		.4byte	0x0
 1093              	.LLST17:
 1094 01f3 0E000000 		.4byte	.LVL24
 1095 01f7 16000000 		.4byte	.LVL25
 1096 01fb 0200     		.2byte	0x2
 1097 01fd 30       		.byte	0x30
 1098 01fe 9F       		.byte	0x9f
 1099 01ff 00000000 		.4byte	0x0
 1100 0203 00000000 		.4byte	0x0
 1101              	.LLST18:
 1102 0207 00000000 		.4byte	.LFB74
 1103 020b 02000000 		.4byte	.LCFI7
 1104 020f 0200     		.2byte	0x2
 1105 0211 7D       		.byte	0x7d
 1106 0212 00       		.sleb128 0
 1107 0213 02000000 		.4byte	.LCFI7
ARM GAS  C:\Users\z80\AppData\Local\Temp\cc8udMHo.s 			page 21


 1108 0217 18000000 		.4byte	.LFE74
 1109 021b 0200     		.2byte	0x2
 1110 021d 7D       		.byte	0x7d
 1111 021e 08       		.sleb128 8
 1112 021f 00000000 		.4byte	0x0
 1113 0223 00000000 		.4byte	0x0
 1114              	.LLST19:
 1115 0227 00000000 		.4byte	.LVL26
 1116 022b 08000000 		.4byte	.LVL28
 1117 022f 0100     		.2byte	0x1
 1118 0231 50       		.byte	0x50
 1119 0232 00000000 		.4byte	0x0
 1120 0236 00000000 		.4byte	0x0
 1121              	.LLST20:
 1122 023a 06000000 		.4byte	.LVL27
 1123 023e 0E000000 		.4byte	.LVL29
 1124 0242 0800     		.2byte	0x8
 1125 0244 73       		.byte	0x73
 1126 0245 00       		.sleb128 0
 1127 0246 38       		.byte	0x38
 1128 0247 24       		.byte	0x24
 1129 0248 72       		.byte	0x72
 1130 0249 00       		.sleb128 0
 1131 024a 22       		.byte	0x22
 1132 024b 9F       		.byte	0x9f
 1133 024c 0E000000 		.4byte	.LVL29
 1134 0250 12000000 		.4byte	.LVL30
 1135 0254 0800     		.2byte	0x8
 1136 0256 73       		.byte	0x73
 1137 0257 00       		.sleb128 0
 1138 0258 48       		.byte	0x48
 1139 0259 24       		.byte	0x24
 1140 025a 70       		.byte	0x70
 1141 025b 00       		.sleb128 0
 1142 025c 22       		.byte	0x22
 1143 025d 9F       		.byte	0x9f
 1144 025e 00000000 		.4byte	0x0
 1145 0262 00000000 		.4byte	0x0
 1146              	.LLST21:
 1147 0266 00000000 		.4byte	.LFB73
 1148 026a 02000000 		.4byte	.LCFI8
 1149 026e 0200     		.2byte	0x2
 1150 0270 7D       		.byte	0x7d
 1151 0271 00       		.sleb128 0
 1152 0272 02000000 		.4byte	.LCFI8
 1153 0276 0A000000 		.4byte	.LFE73
 1154 027a 0200     		.2byte	0x2
 1155 027c 7D       		.byte	0x7d
 1156 027d 08       		.sleb128 8
 1157 027e 00000000 		.4byte	0x0
 1158 0282 00000000 		.4byte	0x0
 1159              	.LLST22:
 1160 0286 00000000 		.4byte	.LVL31
 1161 028a 04000000 		.4byte	.LVL32
 1162 028e 0100     		.2byte	0x1
 1163 0290 50       		.byte	0x50
 1164 0291 00000000 		.4byte	0x0
ARM GAS  C:\Users\z80\AppData\Local\Temp\cc8udMHo.s 			page 22


 1165 0295 00000000 		.4byte	0x0
 1166              	.LLST23:
 1167 0299 00000000 		.4byte	.LVL31
 1168 029d 04000000 		.4byte	.LVL32
 1169 02a1 0200     		.2byte	0x2
 1170 02a3 70       		.byte	0x70
 1171 02a4 00       		.sleb128 0
 1172 02a5 00000000 		.4byte	0x0
 1173 02a9 00000000 		.4byte	0x0
 1174              	.LLST24:
 1175 02ad 00000000 		.4byte	.LFB72
 1176 02b1 02000000 		.4byte	.LCFI9
 1177 02b5 0200     		.2byte	0x2
 1178 02b7 7D       		.byte	0x7d
 1179 02b8 00       		.sleb128 0
 1180 02b9 02000000 		.4byte	.LCFI9
 1181 02bd 04000000 		.4byte	.LCFI10
 1182 02c1 0200     		.2byte	0x2
 1183 02c3 7D       		.byte	0x7d
 1184 02c4 0C       		.sleb128 12
 1185 02c5 04000000 		.4byte	.LCFI10
 1186 02c9 3E000000 		.4byte	.LFE72
 1187 02cd 0200     		.2byte	0x2
 1188 02cf 7D       		.byte	0x7d
 1189 02d0 20       		.sleb128 32
 1190 02d1 00000000 		.4byte	0x0
 1191 02d5 00000000 		.4byte	0x0
 1192              	.LLST25:
 1193 02d9 00000000 		.4byte	.LVL33
 1194 02dd 06000000 		.4byte	.LVL34
 1195 02e1 0100     		.2byte	0x1
 1196 02e3 50       		.byte	0x50
 1197 02e4 00000000 		.4byte	0x0
 1198 02e8 00000000 		.4byte	0x0
 1199              	.LLST26:
 1200 02ec 0A000000 		.4byte	.LVL35
 1201 02f0 0E000000 		.4byte	.LVL36
 1202 02f4 0200     		.2byte	0x2
 1203 02f6 30       		.byte	0x30
 1204 02f7 9F       		.byte	0x9f
 1205 02f8 00000000 		.4byte	0x0
 1206 02fc 00000000 		.4byte	0x0
 1207              	.LLST27:
 1208 0300 0E000000 		.4byte	.LVL36
 1209 0304 13000000 		.4byte	.LVL37-1
 1210 0308 0800     		.2byte	0x8
 1211 030a 91       		.byte	0x91
 1212 030b 00       		.sleb128 0
 1213 030c 74       		.byte	0x74
 1214 030d 00       		.sleb128 0
 1215 030e 22       		.byte	0x22
 1216 030f 09       		.byte	0x9
 1217 0310 E0       		.byte	0xe0
 1218 0311 22       		.byte	0x22
 1219 0312 00000000 		.4byte	0x0
 1220 0316 00000000 		.4byte	0x0
 1221              	.LLST28:
ARM GAS  C:\Users\z80\AppData\Local\Temp\cc8udMHo.s 			page 23


 1222 031a 00000000 		.4byte	.LFB71
 1223 031e 02000000 		.4byte	.LCFI11
 1224 0322 0200     		.2byte	0x2
 1225 0324 7D       		.byte	0x7d
 1226 0325 00       		.sleb128 0
 1227 0326 02000000 		.4byte	.LCFI11
 1228 032a 1A000000 		.4byte	.LFE71
 1229 032e 0200     		.2byte	0x2
 1230 0330 7D       		.byte	0x7d
 1231 0331 08       		.sleb128 8
 1232 0332 00000000 		.4byte	0x0
 1233 0336 00000000 		.4byte	0x0
 1234              	.LLST29:
 1235 033a 00000000 		.4byte	.LVL38
 1236 033e 10000000 		.4byte	.LVL39
 1237 0342 0100     		.2byte	0x1
 1238 0344 50       		.byte	0x50
 1239 0345 00000000 		.4byte	0x0
 1240 0349 00000000 		.4byte	0x0
 1241              	.LLST30:
 1242 034d 00000000 		.4byte	.LFB70
 1243 0351 02000000 		.4byte	.LCFI12
 1244 0355 0200     		.2byte	0x2
 1245 0357 7D       		.byte	0x7d
 1246 0358 00       		.sleb128 0
 1247 0359 02000000 		.4byte	.LCFI12
 1248 035d 1A000000 		.4byte	.LFE70
 1249 0361 0200     		.2byte	0x2
 1250 0363 7D       		.byte	0x7d
 1251 0364 08       		.sleb128 8
 1252 0365 00000000 		.4byte	0x0
 1253 0369 00000000 		.4byte	0x0
 1254              	.LLST31:
 1255 036d 00000000 		.4byte	.LVL40
 1256 0371 10000000 		.4byte	.LVL41
 1257 0375 0100     		.2byte	0x1
 1258 0377 50       		.byte	0x50
 1259 0378 00000000 		.4byte	0x0
 1260 037c 00000000 		.4byte	0x0
 1261              	.LLST32:
 1262 0380 00000000 		.4byte	.LFB69
 1263 0384 02000000 		.4byte	.LCFI13
 1264 0388 0200     		.2byte	0x2
 1265 038a 7D       		.byte	0x7d
 1266 038b 00       		.sleb128 0
 1267 038c 02000000 		.4byte	.LCFI13
 1268 0390 0A000000 		.4byte	.LFE69
 1269 0394 0200     		.2byte	0x2
 1270 0396 7D       		.byte	0x7d
 1271 0397 08       		.sleb128 8
 1272 0398 00000000 		.4byte	0x0
 1273 039c 00000000 		.4byte	0x0
 1274              	.LLST33:
 1275 03a0 00000000 		.4byte	.LVL42
 1276 03a4 04000000 		.4byte	.LVL43
 1277 03a8 0100     		.2byte	0x1
 1278 03aa 50       		.byte	0x50
ARM GAS  C:\Users\z80\AppData\Local\Temp\cc8udMHo.s 			page 24


 1279 03ab 00000000 		.4byte	0x0
 1280 03af 00000000 		.4byte	0x0
 1281              	.LLST34:
 1282 03b3 00000000 		.4byte	.LFB62
 1283 03b7 02000000 		.4byte	.LCFI14
 1284 03bb 0200     		.2byte	0x2
 1285 03bd 7D       		.byte	0x7d
 1286 03be 00       		.sleb128 0
 1287 03bf 02000000 		.4byte	.LCFI14
 1288 03c3 50000000 		.4byte	.LFE62
 1289 03c7 0200     		.2byte	0x2
 1290 03c9 7D       		.byte	0x7d
 1291 03ca 08       		.sleb128 8
 1292 03cb 00000000 		.4byte	0x0
 1293 03cf 00000000 		.4byte	0x0
 1294              	.LLST35:
 1295 03d3 00000000 		.4byte	.LFB63
 1296 03d7 02000000 		.4byte	.LCFI15
 1297 03db 0200     		.2byte	0x2
 1298 03dd 7D       		.byte	0x7d
 1299 03de 00       		.sleb128 0
 1300 03df 02000000 		.4byte	.LCFI15
 1301 03e3 C4000000 		.4byte	.LFE63
 1302 03e7 0200     		.2byte	0x2
 1303 03e9 7D       		.byte	0x7d
 1304 03ea 08       		.sleb128 8
 1305 03eb 00000000 		.4byte	0x0
 1306 03ef 00000000 		.4byte	0x0
 1307              	.LLST36:
 1308 03f3 0C000000 		.4byte	.LVL44
 1309 03f7 16000000 		.4byte	.LVL45
 1310 03fb 0100     		.2byte	0x1
 1311 03fd 50       		.byte	0x50
 1312 03fe 16000000 		.4byte	.LVL45
 1313 0402 18000000 		.4byte	.LVL46
 1314 0406 0300     		.2byte	0x3
 1315 0408 73       		.byte	0x73
 1316 0409 7E       		.sleb128 -2
 1317 040a 9F       		.byte	0x9f
 1318 040b 00000000 		.4byte	0x0
 1319 040f 00000000 		.4byte	0x0
 1320              	.LLST37:
 1321 0413 0C000000 		.4byte	.LVL44
 1322 0417 16000000 		.4byte	.LVL45
 1323 041b 0F00     		.2byte	0xf
 1324 041d 70       		.byte	0x70
 1325 041e 02       		.sleb128 2
 1326 041f 23       		.byte	0x23
 1327 0420 80808080 		.uleb128 0x80000000
 1327      08
 1328 0425 0C       		.byte	0xc
 1329 0426 01000080 		.4byte	0x80000001
 1330 042a 2C       		.byte	0x2c
 1331 042b 9F       		.byte	0x9f
 1332 042c 16000000 		.4byte	.LVL45
 1333 0430 18000000 		.4byte	.LVL46
 1334 0434 0F00     		.2byte	0xf
ARM GAS  C:\Users\z80\AppData\Local\Temp\cc8udMHo.s 			page 25


 1335 0436 73       		.byte	0x73
 1336 0437 00       		.sleb128 0
 1337 0438 23       		.byte	0x23
 1338 0439 80808080 		.uleb128 0x80000000
 1338      08
 1339 043e 0C       		.byte	0xc
 1340 043f 01000080 		.4byte	0x80000001
 1341 0443 2C       		.byte	0x2c
 1342 0444 9F       		.byte	0x9f
 1343 0445 00000000 		.4byte	0x0
 1344 0449 00000000 		.4byte	0x0
 1345              	.LLST38:
 1346 044d 16000000 		.4byte	.LVL45
 1347 0451 24000000 		.4byte	.LVL47
 1348 0455 0100     		.2byte	0x1
 1349 0457 50       		.byte	0x50
 1350 0458 32000000 		.4byte	.LVL50
 1351 045c 66000000 		.4byte	.LVL51
 1352 0460 0100     		.2byte	0x1
 1353 0462 50       		.byte	0x50
 1354 0463 80000000 		.4byte	.LVL53
 1355 0467 92000000 		.4byte	.LVL54
 1356 046b 0100     		.2byte	0x1
 1357 046d 50       		.byte	0x50
 1358 046e 00000000 		.4byte	0x0
 1359 0472 00000000 		.4byte	0x0
 1360              	.LLST39:
 1361 0476 24000000 		.4byte	.LVL47
 1362 047a 2E000000 		.4byte	.LVL48
 1363 047e 0500     		.2byte	0x5
 1364 0480 03       		.byte	0x3
 1365 0481 00000000 		.4byte	out_index.3768
 1366 0485 66000000 		.4byte	.LVL51
 1367 0489 70000000 		.4byte	.LVL52
 1368 048d 0100     		.2byte	0x1
 1369 048f 50       		.byte	0x50
 1370 0490 70000000 		.4byte	.LVL52
 1371 0494 80000000 		.4byte	.LVL53
 1372 0498 0500     		.2byte	0x5
 1373 049a 03       		.byte	0x3
 1374 049b 00000000 		.4byte	out_index.3768
 1375 049f 92000000 		.4byte	.LVL54
 1376 04a3 A2000000 		.4byte	.LVL58
 1377 04a7 0100     		.2byte	0x1
 1378 04a9 50       		.byte	0x50
 1379 04aa A2000000 		.4byte	.LVL58
 1380 04ae A3000000 		.4byte	.LVL59-1
 1381 04b2 0500     		.2byte	0x5
 1382 04b4 03       		.byte	0x3
 1383 04b5 00000000 		.4byte	out_index.3768
 1384 04b9 00000000 		.4byte	0x0
 1385 04bd 00000000 		.4byte	0x0
 1386              	.LLST40:
 1387 04c1 24000000 		.4byte	.LVL47
 1388 04c5 30000000 		.4byte	.LVL49
 1389 04c9 0600     		.2byte	0x6
 1390 04cb 03       		.byte	0x3
ARM GAS  C:\Users\z80\AppData\Local\Temp\cc8udMHo.s 			page 26


 1391 04cc 00000000 		.4byte	buffer
 1392 04d0 9F       		.byte	0x9f
 1393 04d1 66000000 		.4byte	.LVL51
 1394 04d5 80000000 		.4byte	.LVL53
 1395 04d9 0600     		.2byte	0x6
 1396 04db 03       		.byte	0x3
 1397 04dc 00000000 		.4byte	buffer
 1398 04e0 9F       		.byte	0x9f
 1399 04e1 92000000 		.4byte	.LVL54
 1400 04e5 C4000000 		.4byte	.LFE63
 1401 04e9 0600     		.2byte	0x6
 1402 04eb 03       		.byte	0x3
 1403 04ec 00000000 		.4byte	buffer
 1404 04f0 9F       		.byte	0x9f
 1405 04f1 00000000 		.4byte	0x0
 1406 04f5 00000000 		.4byte	0x0
 1407              	.LLST41:
 1408 04f9 66000000 		.4byte	.LVL51
 1409 04fd 70000000 		.4byte	.LVL52
 1410 0501 0200     		.2byte	0x2
 1411 0503 30       		.byte	0x30
 1412 0504 9F       		.byte	0x9f
 1413 0505 00000000 		.4byte	0x0
 1414 0509 00000000 		.4byte	0x0
 1415              	.LLST42:
 1416 050d 24000000 		.4byte	.LVL47
 1417 0511 2E000000 		.4byte	.LVL48
 1418 0515 0500     		.2byte	0x5
 1419 0517 03       		.byte	0x3
 1420 0518 00000000 		.4byte	buffer
 1421 051c 66000000 		.4byte	.LVL51
 1422 0520 80000000 		.4byte	.LVL53
 1423 0524 0500     		.2byte	0x5
 1424 0526 03       		.byte	0x3
 1425 0527 00000000 		.4byte	buffer
 1426 052b 92000000 		.4byte	.LVL54
 1427 052f A3000000 		.4byte	.LVL59-1
 1428 0533 0500     		.2byte	0x5
 1429 0535 03       		.byte	0x3
 1430 0536 00000000 		.4byte	buffer
 1431 053a 00000000 		.4byte	0x0
 1432 053e 00000000 		.4byte	0x0
 1433              	.LLST43:
 1434 0542 24000000 		.4byte	.LVL47
 1435 0546 30000000 		.4byte	.LVL49
 1436 054a 0600     		.2byte	0x6
 1437 054c 03       		.byte	0x3
 1438 054d 01000000 		.4byte	buffer+1
 1439 0551 9F       		.byte	0x9f
 1440 0552 66000000 		.4byte	.LVL51
 1441 0556 80000000 		.4byte	.LVL53
 1442 055a 0600     		.2byte	0x6
 1443 055c 03       		.byte	0x3
 1444 055d 01000000 		.4byte	buffer+1
 1445 0561 9F       		.byte	0x9f
 1446 0562 92000000 		.4byte	.LVL54
 1447 0566 C4000000 		.4byte	.LFE63
ARM GAS  C:\Users\z80\AppData\Local\Temp\cc8udMHo.s 			page 27


 1448 056a 0600     		.2byte	0x6
 1449 056c 03       		.byte	0x3
 1450 056d 01000000 		.4byte	buffer+1
 1451 0571 9F       		.byte	0x9f
 1452 0572 00000000 		.4byte	0x0
 1453 0576 00000000 		.4byte	0x0
 1454              	.LLST44:
 1455 057a 94000000 		.4byte	.LVL55
 1456 057e 9C000000 		.4byte	.LVL56
 1457 0582 0100     		.2byte	0x1
 1458 0584 53       		.byte	0x53
 1459 0585 9C000000 		.4byte	.LVL56
 1460 0589 A0000000 		.4byte	.LVL57
 1461 058d 0100     		.2byte	0x1
 1462 058f 53       		.byte	0x53
 1463 0590 00000000 		.4byte	0x0
 1464 0594 00000000 		.4byte	0x0
 1465              		.file 2 "c:\\programs\\yagarto\\bin\\../lib/gcc/arm-none-eabi/4.5.0/include/stddef.h"
 1466              		.file 3 "c:/programs/yagarto/lib/gcc/../../arm-none-eabi/sys-include/stdint.h"
 1467              		.file 4 "../chibios_2.4.x/os/ports/GCC/ARMCMx/chtypes.h"
 1468              		.file 5 "../chibios_2.4.x/os/kernel/include/chlists.h"
 1469              		.file 6 "../chibios_2.4.x/os/kernel/include/chthreads.h"
 1470              		.file 7 "../chibios_2.4.x/os/ports/GCC/ARMCMx/chcore_v7m.h"
 1471              		.file 8 "../chibios_2.4.x/os/kernel/include/chmtx.h"
 1472              		.file 9 "../chibios_2.4.x/os/kernel/include/chevents.h"
 1473              		.file 10 "../chibios_2.4.x/os/kernel/include/chqueues.h"
 1474              		.file 11 "../chibios_2.4.x/os/kernel/include/chioch.h"
 1475              		.file 12 "./src/cpu_io.h"
 1476              		.file 13 "../chibios_2.4.x/os/hal/platforms/STM32F1xx/stm32f10x.h"
 1477              		.file 14 "../chibios_2.4.x/os/hal/platforms/STM32/GPIOv1/pal_lld.h"
 1478              		.file 15 "../chibios_2.4.x/os/hal/include/serial.h"
 1479              		.file 16 "../chibios_2.4.x/os/hal/platforms/STM32/serial_lld.h"
 1480              		.file 17 "../chibios_2.4.x/os/ports/common/ARMCMx/CMSIS/include/core_cm3.h"
 1481              		.section	.debug_info
 1482 0000 9F0E0000 		.4byte	0xe9f
 1483 0004 0200     		.2byte	0x2
 1484 0006 00000000 		.4byte	.Ldebug_abbrev0
 1485 000a 04       		.byte	0x4
 1486 000b 01       		.uleb128 0x1
 1487 000c 2E050000 		.4byte	.LASF138
 1488 0010 01       		.byte	0x1
 1489 0011 94020000 		.4byte	.LASF139
 1490 0015 FD000000 		.4byte	.LASF140
 1491 0019 00000000 		.4byte	0x0
 1492 001d 00000000 		.4byte	0x0
 1493 0021 E8000000 		.4byte	.Ldebug_ranges0+0xe8
 1494 0025 00000000 		.4byte	.Ldebug_line0
 1495 0029 02       		.uleb128 0x2
 1496 002a 04       		.byte	0x4
 1497 002b 05       		.byte	0x5
 1498 002c 696E7400 		.ascii	"int\000"
 1499 0030 03       		.uleb128 0x3
 1500 0031 12000000 		.4byte	.LASF2
 1501 0035 02       		.byte	0x2
 1502 0036 D3       		.byte	0xd3
 1503 0037 3B000000 		.4byte	0x3b
 1504 003b 04       		.uleb128 0x4
ARM GAS  C:\Users\z80\AppData\Local\Temp\cc8udMHo.s 			page 28


 1505 003c 04       		.byte	0x4
 1506 003d 07       		.byte	0x7
 1507 003e 96010000 		.4byte	.LASF0
 1508 0042 04       		.uleb128 0x4
 1509 0043 01       		.byte	0x1
 1510 0044 06       		.byte	0x6
 1511 0045 C8000000 		.4byte	.LASF1
 1512 0049 03       		.uleb128 0x3
 1513 004a 07050000 		.4byte	.LASF3
 1514 004e 03       		.byte	0x3
 1515 004f 2A       		.byte	0x2a
 1516 0050 54000000 		.4byte	0x54
 1517 0054 04       		.uleb128 0x4
 1518 0055 01       		.byte	0x1
 1519 0056 08       		.byte	0x8
 1520 0057 8E030000 		.4byte	.LASF4
 1521 005b 04       		.uleb128 0x4
 1522 005c 02       		.byte	0x2
 1523 005d 05       		.byte	0x5
 1524 005e C5030000 		.4byte	.LASF5
 1525 0062 03       		.uleb128 0x3
 1526 0063 A3010000 		.4byte	.LASF6
 1527 0067 03       		.byte	0x3
 1528 0068 36       		.byte	0x36
 1529 0069 6D000000 		.4byte	0x6d
 1530 006d 04       		.uleb128 0x4
 1531 006e 02       		.byte	0x2
 1532 006f 07       		.byte	0x7
 1533 0070 0F020000 		.4byte	.LASF7
 1534 0074 03       		.uleb128 0x3
 1535 0075 86030000 		.4byte	.LASF8
 1536 0079 03       		.byte	0x3
 1537 007a 4F       		.byte	0x4f
 1538 007b 7F000000 		.4byte	0x7f
 1539 007f 04       		.uleb128 0x4
 1540 0080 04       		.byte	0x4
 1541 0081 05       		.byte	0x5
 1542 0082 30010000 		.4byte	.LASF9
 1543 0086 03       		.uleb128 0x3
 1544 0087 2D040000 		.4byte	.LASF10
 1545 008b 03       		.byte	0x3
 1546 008c 50       		.byte	0x50
 1547 008d 91000000 		.4byte	0x91
 1548 0091 04       		.uleb128 0x4
 1549 0092 04       		.byte	0x4
 1550 0093 07       		.byte	0x7
 1551 0094 4D040000 		.4byte	.LASF11
 1552 0098 04       		.uleb128 0x4
 1553 0099 08       		.byte	0x8
 1554 009a 05       		.byte	0x5
 1555 009b BA000000 		.4byte	.LASF12
 1556 009f 03       		.uleb128 0x3
 1557 00a0 20000000 		.4byte	.LASF13
 1558 00a4 03       		.byte	0x3
 1559 00a5 78       		.byte	0x78
 1560 00a6 AA000000 		.4byte	0xaa
 1561 00aa 04       		.uleb128 0x4
ARM GAS  C:\Users\z80\AppData\Local\Temp\cc8udMHo.s 			page 29


 1562 00ab 08       		.byte	0x8
 1563 00ac 07       		.byte	0x7
 1564 00ad 5C000000 		.4byte	.LASF14
 1565 00b1 03       		.uleb128 0x3
 1566 00b2 4E000000 		.4byte	.LASF15
 1567 00b6 03       		.byte	0x3
 1568 00b7 A6       		.byte	0xa6
 1569 00b8 3B000000 		.4byte	0x3b
 1570 00bc 03       		.uleb128 0x3
 1571 00bd 9C000000 		.4byte	.LASF16
 1572 00c1 04       		.byte	0x4
 1573 00c2 2E       		.byte	0x2e
 1574 00c3 74000000 		.4byte	0x74
 1575 00c7 03       		.uleb128 0x3
 1576 00c8 5F020000 		.4byte	.LASF17
 1577 00cc 04       		.byte	0x4
 1578 00cd 2F       		.byte	0x2f
 1579 00ce 49000000 		.4byte	0x49
 1580 00d2 03       		.uleb128 0x3
 1581 00d3 39010000 		.4byte	.LASF18
 1582 00d7 04       		.byte	0x4
 1583 00d8 30       		.byte	0x30
 1584 00d9 49000000 		.4byte	0x49
 1585 00dd 03       		.uleb128 0x3
 1586 00de 01020000 		.4byte	.LASF19
 1587 00e2 04       		.byte	0x4
 1588 00e3 32       		.byte	0x32
 1589 00e4 86000000 		.4byte	0x86
 1590 00e8 03       		.uleb128 0x3
 1591 00e9 BB040000 		.4byte	.LASF20
 1592 00ed 04       		.byte	0x4
 1593 00ee 33       		.byte	0x33
 1594 00ef 74000000 		.4byte	0x74
 1595 00f3 03       		.uleb128 0x3
 1596 00f4 73020000 		.4byte	.LASF21
 1597 00f8 04       		.byte	0x4
 1598 00f9 35       		.byte	0x35
 1599 00fa 86000000 		.4byte	0x86
 1600 00fe 03       		.uleb128 0x3
 1601 00ff 89040000 		.4byte	.LASF22
 1602 0103 04       		.byte	0x4
 1603 0104 36       		.byte	0x36
 1604 0105 86000000 		.4byte	0x86
 1605 0109 03       		.uleb128 0x3
 1606 010a FD030000 		.4byte	.LASF23
 1607 010e 05       		.byte	0x5
 1608 010f 2A       		.byte	0x2a
 1609 0110 14010000 		.4byte	0x114
 1610 0114 05       		.uleb128 0x5
 1611 0115 FD030000 		.4byte	.LASF23
 1612 0119 48       		.byte	0x48
 1613 011a 06       		.byte	0x6
 1614 011b 5E       		.byte	0x5e
 1615 011c 1D020000 		.4byte	0x21d
 1616 0120 06       		.uleb128 0x6
 1617 0121 E6030000 		.4byte	.LASF24
 1618 0125 06       		.byte	0x6
ARM GAS  C:\Users\z80\AppData\Local\Temp\cc8udMHo.s 			page 30


 1619 0126 5F       		.byte	0x5f
 1620 0127 42020000 		.4byte	0x242
 1621 012b 02       		.byte	0x2
 1622 012c 23       		.byte	0x23
 1623 012d 00       		.uleb128 0x0
 1624 012e 06       		.uleb128 0x6
 1625 012f 5C030000 		.4byte	.LASF25
 1626 0133 06       		.byte	0x6
 1627 0134 61       		.byte	0x61
 1628 0135 42020000 		.4byte	0x242
 1629 0139 02       		.byte	0x2
 1630 013a 23       		.byte	0x23
 1631 013b 04       		.uleb128 0x4
 1632 013c 06       		.uleb128 0x6
 1633 013d A3000000 		.4byte	.LASF26
 1634 0141 06       		.byte	0x6
 1635 0142 63       		.byte	0x63
 1636 0143 DD000000 		.4byte	0xdd
 1637 0147 02       		.byte	0x2
 1638 0148 23       		.byte	0x23
 1639 0149 08       		.uleb128 0x8
 1640 014a 06       		.uleb128 0x6
 1641 014b 77050000 		.4byte	.LASF27
 1642 014f 06       		.byte	0x6
 1643 0150 64       		.byte	0x64
 1644 0151 1A030000 		.4byte	0x31a
 1645 0155 02       		.byte	0x2
 1646 0156 23       		.byte	0x23
 1647 0157 0C       		.uleb128 0xc
 1648 0158 06       		.uleb128 0x6
 1649 0159 53010000 		.4byte	.LASF28
 1650 015d 06       		.byte	0x6
 1651 015e 66       		.byte	0x66
 1652 015f 42020000 		.4byte	0x242
 1653 0163 02       		.byte	0x2
 1654 0164 23       		.byte	0x23
 1655 0165 10       		.uleb128 0x10
 1656 0166 06       		.uleb128 0x6
 1657 0167 E6020000 		.4byte	.LASF29
 1658 016b 06       		.byte	0x6
 1659 016c 67       		.byte	0x67
 1660 016d 42020000 		.4byte	0x242
 1661 0171 02       		.byte	0x2
 1662 0172 23       		.byte	0x23
 1663 0173 14       		.uleb128 0x14
 1664 0174 06       		.uleb128 0x6
 1665 0175 E1040000 		.4byte	.LASF30
 1666 0179 06       		.byte	0x6
 1667 017a 6E       		.byte	0x6e
 1668 017b 35040000 		.4byte	0x435
 1669 017f 02       		.byte	0x2
 1670 0180 23       		.byte	0x23
 1671 0181 18       		.uleb128 0x18
 1672 0182 06       		.uleb128 0x6
 1673 0183 05030000 		.4byte	.LASF31
 1674 0187 06       		.byte	0x6
 1675 0188 74       		.byte	0x74
ARM GAS  C:\Users\z80\AppData\Local\Temp\cc8udMHo.s 			page 31


 1676 0189 47040000 		.4byte	0x447
 1677 018d 02       		.byte	0x2
 1678 018e 23       		.byte	0x23
 1679 018f 1C       		.uleb128 0x1c
 1680 0190 06       		.uleb128 0x6
 1681 0191 B3030000 		.4byte	.LASF32
 1682 0195 06       		.byte	0x6
 1683 0196 79       		.byte	0x79
 1684 0197 D2000000 		.4byte	0xd2
 1685 019b 02       		.byte	0x2
 1686 019c 23       		.byte	0x23
 1687 019d 20       		.uleb128 0x20
 1688 019e 06       		.uleb128 0x6
 1689 019f ED030000 		.4byte	.LASF33
 1690 01a3 06       		.byte	0x6
 1691 01a4 7D       		.byte	0x7d
 1692 01a5 C7000000 		.4byte	0xc7
 1693 01a9 02       		.byte	0x2
 1694 01aa 23       		.byte	0x23
 1695 01ab 21       		.uleb128 0x21
 1696 01ac 06       		.uleb128 0x6
 1697 01ad BC010000 		.4byte	.LASF34
 1698 01b1 06       		.byte	0x6
 1699 01b2 89       		.byte	0x89
 1700 01b3 45030000 		.4byte	0x345
 1701 01b7 02       		.byte	0x2
 1702 01b8 23       		.byte	0x23
 1703 01b9 24       		.uleb128 0x24
 1704 01ba 07       		.uleb128 0x7
 1705 01bb 705F7500 		.ascii	"p_u\000"
 1706 01bf 06       		.byte	0x6
 1707 01c0 AE       		.byte	0xae
 1708 01c1 00040000 		.4byte	0x400
 1709 01c5 02       		.byte	0x2
 1710 01c6 23       		.byte	0x23
 1711 01c7 28       		.uleb128 0x28
 1712 01c8 06       		.uleb128 0x6
 1713 01c9 7D050000 		.4byte	.LASF35
 1714 01cd 06       		.byte	0x6
 1715 01ce B3       		.byte	0xb3
 1716 01cf 6A020000 		.4byte	0x26a
 1717 01d3 02       		.byte	0x2
 1718 01d4 23       		.byte	0x23
 1719 01d5 2C       		.uleb128 0x2c
 1720 01d6 06       		.uleb128 0x6
 1721 01d7 DB010000 		.4byte	.LASF36
 1722 01db 06       		.byte	0x6
 1723 01dc B9       		.byte	0xb9
 1724 01dd 48020000 		.4byte	0x248
 1725 01e1 02       		.byte	0x2
 1726 01e2 23       		.byte	0x23
 1727 01e3 30       		.uleb128 0x30
 1728 01e4 06       		.uleb128 0x6
 1729 01e5 F9040000 		.4byte	.LASF37
 1730 01e9 06       		.byte	0x6
 1731 01ea BD       		.byte	0xbd
 1732 01eb E8000000 		.4byte	0xe8
ARM GAS  C:\Users\z80\AppData\Local\Temp\cc8udMHo.s 			page 32


 1733 01ef 02       		.byte	0x2
 1734 01f0 23       		.byte	0x23
 1735 01f1 38       		.uleb128 0x38
 1736 01f2 06       		.uleb128 0x6
 1737 01f3 04040000 		.4byte	.LASF38
 1738 01f7 06       		.byte	0x6
 1739 01f8 C3       		.byte	0xc3
 1740 01f9 F3000000 		.4byte	0xf3
 1741 01fd 02       		.byte	0x2
 1742 01fe 23       		.byte	0x23
 1743 01ff 3C       		.uleb128 0x3c
 1744 0200 06       		.uleb128 0x6
 1745 0201 BB030000 		.4byte	.LASF39
 1746 0205 06       		.byte	0x6
 1747 0206 CA       		.byte	0xca
 1748 0207 4D040000 		.4byte	0x44d
 1749 020b 02       		.byte	0x2
 1750 020c 23       		.byte	0x23
 1751 020d 40       		.uleb128 0x40
 1752 020e 06       		.uleb128 0x6
 1753 020f 93040000 		.4byte	.LASF40
 1754 0213 06       		.byte	0x6
 1755 0214 CE       		.byte	0xce
 1756 0215 DD000000 		.4byte	0xdd
 1757 0219 02       		.byte	0x2
 1758 021a 23       		.byte	0x23
 1759 021b 44       		.uleb128 0x44
 1760 021c 00       		.byte	0x0
 1761 021d 08       		.uleb128 0x8
 1762 021e 08       		.byte	0x8
 1763 021f 05       		.byte	0x5
 1764 0220 61       		.byte	0x61
 1765 0221 42020000 		.4byte	0x242
 1766 0225 06       		.uleb128 0x6
 1767 0226 E6030000 		.4byte	.LASF24
 1768 022a 05       		.byte	0x5
 1769 022b 62       		.byte	0x62
 1770 022c 42020000 		.4byte	0x242
 1771 0230 02       		.byte	0x2
 1772 0231 23       		.byte	0x23
 1773 0232 00       		.uleb128 0x0
 1774 0233 06       		.uleb128 0x6
 1775 0234 5C030000 		.4byte	.LASF25
 1776 0238 05       		.byte	0x5
 1777 0239 64       		.byte	0x64
 1778 023a 42020000 		.4byte	0x242
 1779 023e 02       		.byte	0x2
 1780 023f 23       		.byte	0x23
 1781 0240 04       		.uleb128 0x4
 1782 0241 00       		.byte	0x0
 1783 0242 09       		.uleb128 0x9
 1784 0243 04       		.byte	0x4
 1785 0244 09010000 		.4byte	0x109
 1786 0248 03       		.uleb128 0x3
 1787 0249 F8020000 		.4byte	.LASF41
 1788 024d 05       		.byte	0x5
 1789 024e 66       		.byte	0x66
ARM GAS  C:\Users\z80\AppData\Local\Temp\cc8udMHo.s 			page 33


 1790 024f 1D020000 		.4byte	0x21d
 1791 0253 08       		.uleb128 0x8
 1792 0254 04       		.byte	0x4
 1793 0255 05       		.byte	0x5
 1794 0256 6B       		.byte	0x6b
 1795 0257 6A020000 		.4byte	0x26a
 1796 025b 06       		.uleb128 0x6
 1797 025c E6030000 		.4byte	.LASF24
 1798 0260 05       		.byte	0x5
 1799 0261 6D       		.byte	0x6d
 1800 0262 42020000 		.4byte	0x242
 1801 0266 02       		.byte	0x2
 1802 0267 23       		.byte	0x23
 1803 0268 00       		.uleb128 0x0
 1804 0269 00       		.byte	0x0
 1805 026a 03       		.uleb128 0x3
 1806 026b 67020000 		.4byte	.LASF42
 1807 026f 05       		.byte	0x5
 1808 0270 70       		.byte	0x70
 1809 0271 53020000 		.4byte	0x253
 1810 0275 03       		.uleb128 0x3
 1811 0276 76010000 		.4byte	.LASF43
 1812 027a 07       		.byte	0x7
 1813 027b D7       		.byte	0xd7
 1814 027c 80020000 		.4byte	0x280
 1815 0280 0A       		.uleb128 0xa
 1816 0281 04       		.byte	0x4
 1817 0282 03       		.uleb128 0x3
 1818 0283 B0020000 		.4byte	.LASF44
 1819 0287 07       		.byte	0x7
 1820 0288 DD       		.byte	0xdd
 1821 0289 9F000000 		.4byte	0x9f
 1822 028d 05       		.uleb128 0x5
 1823 028e C1040000 		.4byte	.LASF45
 1824 0292 24       		.byte	0x24
 1825 0293 07       		.byte	0x7
 1826 0294 FE       		.byte	0xfe
 1827 0295 1A030000 		.4byte	0x31a
 1828 0299 0B       		.uleb128 0xb
 1829 029a 723400   		.ascii	"r4\000"
 1830 029d 07       		.byte	0x7
 1831 029e 1101     		.2byte	0x111
 1832 02a0 75020000 		.4byte	0x275
 1833 02a4 02       		.byte	0x2
 1834 02a5 23       		.byte	0x23
 1835 02a6 00       		.uleb128 0x0
 1836 02a7 0B       		.uleb128 0xb
 1837 02a8 723500   		.ascii	"r5\000"
 1838 02ab 07       		.byte	0x7
 1839 02ac 1201     		.2byte	0x112
 1840 02ae 75020000 		.4byte	0x275
 1841 02b2 02       		.byte	0x2
 1842 02b3 23       		.byte	0x23
 1843 02b4 04       		.uleb128 0x4
 1844 02b5 0B       		.uleb128 0xb
 1845 02b6 723600   		.ascii	"r6\000"
 1846 02b9 07       		.byte	0x7
ARM GAS  C:\Users\z80\AppData\Local\Temp\cc8udMHo.s 			page 34


 1847 02ba 1301     		.2byte	0x113
 1848 02bc 75020000 		.4byte	0x275
 1849 02c0 02       		.byte	0x2
 1850 02c1 23       		.byte	0x23
 1851 02c2 08       		.uleb128 0x8
 1852 02c3 0B       		.uleb128 0xb
 1853 02c4 723700   		.ascii	"r7\000"
 1854 02c7 07       		.byte	0x7
 1855 02c8 1401     		.2byte	0x114
 1856 02ca 75020000 		.4byte	0x275
 1857 02ce 02       		.byte	0x2
 1858 02cf 23       		.byte	0x23
 1859 02d0 0C       		.uleb128 0xc
 1860 02d1 0B       		.uleb128 0xb
 1861 02d2 723800   		.ascii	"r8\000"
 1862 02d5 07       		.byte	0x7
 1863 02d6 1501     		.2byte	0x115
 1864 02d8 75020000 		.4byte	0x275
 1865 02dc 02       		.byte	0x2
 1866 02dd 23       		.byte	0x23
 1867 02de 10       		.uleb128 0x10
 1868 02df 0B       		.uleb128 0xb
 1869 02e0 723900   		.ascii	"r9\000"
 1870 02e3 07       		.byte	0x7
 1871 02e4 1601     		.2byte	0x116
 1872 02e6 75020000 		.4byte	0x275
 1873 02ea 02       		.byte	0x2
 1874 02eb 23       		.byte	0x23
 1875 02ec 14       		.uleb128 0x14
 1876 02ed 0B       		.uleb128 0xb
 1877 02ee 72313000 		.ascii	"r10\000"
 1878 02f2 07       		.byte	0x7
 1879 02f3 1701     		.2byte	0x117
 1880 02f5 75020000 		.4byte	0x275
 1881 02f9 02       		.byte	0x2
 1882 02fa 23       		.byte	0x23
 1883 02fb 18       		.uleb128 0x18
 1884 02fc 0B       		.uleb128 0xb
 1885 02fd 72313100 		.ascii	"r11\000"
 1886 0301 07       		.byte	0x7
 1887 0302 1801     		.2byte	0x118
 1888 0304 75020000 		.4byte	0x275
 1889 0308 02       		.byte	0x2
 1890 0309 23       		.byte	0x23
 1891 030a 1C       		.uleb128 0x1c
 1892 030b 0B       		.uleb128 0xb
 1893 030c 6C7200   		.ascii	"lr\000"
 1894 030f 07       		.byte	0x7
 1895 0310 1901     		.2byte	0x119
 1896 0312 75020000 		.4byte	0x275
 1897 0316 02       		.byte	0x2
 1898 0317 23       		.byte	0x23
 1899 0318 20       		.uleb128 0x20
 1900 0319 00       		.byte	0x0
 1901 031a 0C       		.uleb128 0xc
 1902 031b B3040000 		.4byte	.LASF46
 1903 031f 04       		.byte	0x4
ARM GAS  C:\Users\z80\AppData\Local\Temp\cc8udMHo.s 			page 35


 1904 0320 07       		.byte	0x7
 1905 0321 2301     		.2byte	0x123
 1906 0323 37030000 		.4byte	0x337
 1907 0327 0B       		.uleb128 0xb
 1908 0328 72313300 		.ascii	"r13\000"
 1909 032c 07       		.byte	0x7
 1910 032d 2401     		.2byte	0x124
 1911 032f 37030000 		.4byte	0x337
 1912 0333 02       		.byte	0x2
 1913 0334 23       		.byte	0x23
 1914 0335 00       		.uleb128 0x0
 1915 0336 00       		.byte	0x0
 1916 0337 09       		.uleb128 0x9
 1917 0338 04       		.byte	0x4
 1918 0339 8D020000 		.4byte	0x28d
 1919 033d 0D       		.uleb128 0xd
 1920 033e 86000000 		.4byte	0x86
 1921 0342 0E       		.uleb128 0xe
 1922 0343 04       		.byte	0x4
 1923 0344 07       		.byte	0x7
 1924 0345 0D       		.uleb128 0xd
 1925 0346 FE000000 		.4byte	0xfe
 1926 034a 05       		.uleb128 0x5
 1927 034b D8020000 		.4byte	.LASF47
 1928 034f 10       		.byte	0x10
 1929 0350 08       		.byte	0x8
 1930 0351 2C       		.byte	0x2c
 1931 0352 81030000 		.4byte	0x381
 1932 0356 06       		.uleb128 0x6
 1933 0357 F5000000 		.4byte	.LASF48
 1934 035b 08       		.byte	0x8
 1935 035c 2D       		.byte	0x2d
 1936 035d 48020000 		.4byte	0x248
 1937 0361 02       		.byte	0x2
 1938 0362 23       		.byte	0x23
 1939 0363 00       		.uleb128 0x0
 1940 0364 06       		.uleb128 0x6
 1941 0365 6F050000 		.4byte	.LASF49
 1942 0369 08       		.byte	0x8
 1943 036a 2F       		.byte	0x2f
 1944 036b 42020000 		.4byte	0x242
 1945 036f 02       		.byte	0x2
 1946 0370 23       		.byte	0x23
 1947 0371 08       		.uleb128 0x8
 1948 0372 06       		.uleb128 0x6
 1949 0373 82040000 		.4byte	.LASF50
 1950 0377 08       		.byte	0x8
 1951 0378 31       		.byte	0x31
 1952 0379 81030000 		.4byte	0x381
 1953 037d 02       		.byte	0x2
 1954 037e 23       		.byte	0x23
 1955 037f 0C       		.uleb128 0xc
 1956 0380 00       		.byte	0x0
 1957 0381 09       		.uleb128 0x9
 1958 0382 04       		.byte	0x4
 1959 0383 4A030000 		.4byte	0x34a
 1960 0387 03       		.uleb128 0x3
ARM GAS  C:\Users\z80\AppData\Local\Temp\cc8udMHo.s 			page 36


 1961 0388 D8020000 		.4byte	.LASF47
 1962 038c 08       		.byte	0x8
 1963 038d 33       		.byte	0x33
 1964 038e 4A030000 		.4byte	0x34a
 1965 0392 03       		.uleb128 0x3
 1966 0393 20050000 		.4byte	.LASF51
 1967 0397 09       		.byte	0x9
 1968 0398 29       		.byte	0x29
 1969 0399 9D030000 		.4byte	0x39d
 1970 039d 05       		.uleb128 0x5
 1971 039e 20050000 		.4byte	.LASF51
 1972 03a2 0C       		.byte	0xc
 1973 03a3 09       		.byte	0x9
 1974 03a4 2E       		.byte	0x2e
 1975 03a5 D4030000 		.4byte	0x3d4
 1976 03a9 06       		.uleb128 0x6
 1977 03aa F5030000 		.4byte	.LASF52
 1978 03ae 09       		.byte	0x9
 1979 03af 2F       		.byte	0x2f
 1980 03b0 D4030000 		.4byte	0x3d4
 1981 03b4 02       		.byte	0x2
 1982 03b5 23       		.byte	0x23
 1983 03b6 00       		.uleb128 0x0
 1984 03b7 06       		.uleb128 0x6
 1985 03b8 A7030000 		.4byte	.LASF53
 1986 03bc 09       		.byte	0x9
 1987 03bd 32       		.byte	0x32
 1988 03be 42020000 		.4byte	0x242
 1989 03c2 02       		.byte	0x2
 1990 03c3 23       		.byte	0x23
 1991 03c4 04       		.uleb128 0x4
 1992 03c5 06       		.uleb128 0x6
 1993 03c6 10030000 		.4byte	.LASF54
 1994 03ca 09       		.byte	0x9
 1995 03cb 34       		.byte	0x34
 1996 03cc F3000000 		.4byte	0xf3
 1997 03d0 02       		.byte	0x2
 1998 03d1 23       		.byte	0x23
 1999 03d2 08       		.uleb128 0x8
 2000 03d3 00       		.byte	0x0
 2001 03d4 09       		.uleb128 0x9
 2002 03d5 04       		.byte	0x4
 2003 03d6 92030000 		.4byte	0x392
 2004 03da 05       		.uleb128 0x5
 2005 03db 7F010000 		.4byte	.LASF55
 2006 03df 04       		.byte	0x4
 2007 03e0 09       		.byte	0x9
 2008 03e1 3C       		.byte	0x3c
 2009 03e2 F5030000 		.4byte	0x3f5
 2010 03e6 06       		.uleb128 0x6
 2011 03e7 E8040000 		.4byte	.LASF56
 2012 03eb 09       		.byte	0x9
 2013 03ec 3D       		.byte	0x3d
 2014 03ed D4030000 		.4byte	0x3d4
 2015 03f1 02       		.byte	0x2
 2016 03f2 23       		.byte	0x23
 2017 03f3 00       		.uleb128 0x0
ARM GAS  C:\Users\z80\AppData\Local\Temp\cc8udMHo.s 			page 37


 2018 03f4 00       		.byte	0x0
 2019 03f5 03       		.uleb128 0x3
 2020 03f6 7F010000 		.4byte	.LASF55
 2021 03fa 09       		.byte	0x9
 2022 03fb 40       		.byte	0x40
 2023 03fc DA030000 		.4byte	0x3da
 2024 0400 0F       		.uleb128 0xf
 2025 0401 04       		.byte	0x4
 2026 0402 06       		.byte	0x6
 2027 0403 90       		.byte	0x90
 2028 0404 35040000 		.4byte	0x435
 2029 0408 10       		.uleb128 0x10
 2030 0409 19000000 		.4byte	.LASF57
 2031 040d 06       		.byte	0x6
 2032 040e 97       		.byte	0x97
 2033 040f E8000000 		.4byte	0xe8
 2034 0413 10       		.uleb128 0x10
 2035 0414 7C000000 		.4byte	.LASF58
 2036 0418 06       		.byte	0x6
 2037 0419 9E       		.byte	0x9e
 2038 041a E8000000 		.4byte	0xe8
 2039 041e 10       		.uleb128 0x10
 2040 041f 3A050000 		.4byte	.LASF59
 2041 0423 06       		.byte	0x6
 2042 0424 A5       		.byte	0xa5
 2043 0425 80020000 		.4byte	0x280
 2044 0429 10       		.uleb128 0x10
 2045 042a DF030000 		.4byte	.LASF60
 2046 042e 06       		.byte	0x6
 2047 042f AC       		.byte	0xac
 2048 0430 F3000000 		.4byte	0xf3
 2049 0434 00       		.byte	0x0
 2050 0435 09       		.uleb128 0x9
 2051 0436 04       		.byte	0x4
 2052 0437 3B040000 		.4byte	0x43b
 2053 043b 11       		.uleb128 0x11
 2054 043c 40040000 		.4byte	0x440
 2055 0440 04       		.uleb128 0x4
 2056 0441 01       		.byte	0x1
 2057 0442 08       		.byte	0x8
 2058 0443 64040000 		.4byte	.LASF61
 2059 0447 09       		.uleb128 0x9
 2060 0448 04       		.byte	0x4
 2061 0449 82020000 		.4byte	0x282
 2062 044d 09       		.uleb128 0x9
 2063 044e 04       		.byte	0x4
 2064 044f 87030000 		.4byte	0x387
 2065 0453 03       		.uleb128 0x3
 2066 0454 A3020000 		.4byte	.LASF62
 2067 0458 0A       		.byte	0xa
 2068 0459 37       		.byte	0x37
 2069 045a 5E040000 		.4byte	0x45e
 2070 045e 05       		.uleb128 0x5
 2071 045f A3020000 		.4byte	.LASF62
 2072 0463 20       		.byte	0x20
 2073 0464 0A       		.byte	0xa
 2074 0465 45       		.byte	0x45
ARM GAS  C:\Users\z80\AppData\Local\Temp\cc8udMHo.s 			page 38


 2075 0466 CD040000 		.4byte	0x4cd
 2076 046a 06       		.uleb128 0x6
 2077 046b B0000000 		.4byte	.LASF63
 2078 046f 0A       		.byte	0xa
 2079 0470 46       		.byte	0x46
 2080 0471 48020000 		.4byte	0x248
 2081 0475 02       		.byte	0x2
 2082 0476 23       		.byte	0x23
 2083 0477 00       		.uleb128 0x0
 2084 0478 06       		.uleb128 0x6
 2085 0479 CE020000 		.4byte	.LASF64
 2086 047d 0A       		.byte	0xa
 2087 047e 47       		.byte	0x47
 2088 047f 30000000 		.4byte	0x30
 2089 0483 02       		.byte	0x2
 2090 0484 23       		.byte	0x23
 2091 0485 08       		.uleb128 0x8
 2092 0486 06       		.uleb128 0x6
 2093 0487 42010000 		.4byte	.LASF65
 2094 048b 0A       		.byte	0xa
 2095 048c 48       		.byte	0x48
 2096 048d F0040000 		.4byte	0x4f0
 2097 0491 02       		.byte	0x2
 2098 0492 23       		.byte	0x23
 2099 0493 0C       		.uleb128 0xc
 2100 0494 06       		.uleb128 0x6
 2101 0495 DB040000 		.4byte	.LASF66
 2102 0499 0A       		.byte	0xa
 2103 049a 49       		.byte	0x49
 2104 049b F0040000 		.4byte	0x4f0
 2105 049f 02       		.byte	0x2
 2106 04a0 23       		.byte	0x23
 2107 04a1 10       		.uleb128 0x10
 2108 04a2 06       		.uleb128 0x6
 2109 04a3 4B010000 		.4byte	.LASF67
 2110 04a7 0A       		.byte	0xa
 2111 04a8 4B       		.byte	0x4b
 2112 04a9 F0040000 		.4byte	0x4f0
 2113 04ad 02       		.byte	0x2
 2114 04ae 23       		.byte	0x23
 2115 04af 14       		.uleb128 0x14
 2116 04b0 06       		.uleb128 0x6
 2117 04b1 7E030000 		.4byte	.LASF68
 2118 04b5 0A       		.byte	0xa
 2119 04b6 4C       		.byte	0x4c
 2120 04b7 F0040000 		.4byte	0x4f0
 2121 04bb 02       		.byte	0x2
 2122 04bc 23       		.byte	0x23
 2123 04bd 18       		.uleb128 0x18
 2124 04be 06       		.uleb128 0x6
 2125 04bf F0040000 		.4byte	.LASF69
 2126 04c3 0A       		.byte	0xa
 2127 04c4 4D       		.byte	0x4d
 2128 04c5 CD040000 		.4byte	0x4cd
 2129 04c9 02       		.byte	0x2
 2130 04ca 23       		.byte	0x23
 2131 04cb 1C       		.uleb128 0x1c
ARM GAS  C:\Users\z80\AppData\Local\Temp\cc8udMHo.s 			page 39


 2132 04cc 00       		.byte	0x0
 2133 04cd 03       		.uleb128 0x3
 2134 04ce 8A020000 		.4byte	.LASF70
 2135 04d2 0A       		.byte	0xa
 2136 04d3 3A       		.byte	0x3a
 2137 04d4 D8040000 		.4byte	0x4d8
 2138 04d8 09       		.uleb128 0x9
 2139 04d9 04       		.byte	0x4
 2140 04da DE040000 		.4byte	0x4de
 2141 04de 12       		.uleb128 0x12
 2142 04df 01       		.byte	0x1
 2143 04e0 EA040000 		.4byte	0x4ea
 2144 04e4 13       		.uleb128 0x13
 2145 04e5 EA040000 		.4byte	0x4ea
 2146 04e9 00       		.byte	0x0
 2147 04ea 09       		.uleb128 0x9
 2148 04eb 04       		.byte	0x4
 2149 04ec 53040000 		.4byte	0x453
 2150 04f0 09       		.uleb128 0x9
 2151 04f1 04       		.byte	0x4
 2152 04f2 49000000 		.4byte	0x49
 2153 04f6 03       		.uleb128 0x3
 2154 04f7 7F020000 		.4byte	.LASF71
 2155 04fb 0A       		.byte	0xa
 2156 04fc 76       		.byte	0x76
 2157 04fd 53040000 		.4byte	0x453
 2158 0501 03       		.uleb128 0x3
 2159 0502 2F000000 		.4byte	.LASF72
 2160 0506 0A       		.byte	0xa
 2161 0507 E6       		.byte	0xe6
 2162 0508 53040000 		.4byte	0x453
 2163 050c 14       		.uleb128 0x14
 2164 050d 01       		.byte	0x1
 2165 050e 30000000 		.4byte	0x30
 2166 0512 26050000 		.4byte	0x526
 2167 0516 13       		.uleb128 0x13
 2168 0517 80020000 		.4byte	0x280
 2169 051b 13       		.uleb128 0x13
 2170 051c 26050000 		.4byte	0x526
 2171 0520 13       		.uleb128 0x13
 2172 0521 30000000 		.4byte	0x30
 2173 0525 00       		.byte	0x0
 2174 0526 09       		.uleb128 0x9
 2175 0527 04       		.byte	0x4
 2176 0528 2C050000 		.4byte	0x52c
 2177 052c 11       		.uleb128 0x11
 2178 052d 49000000 		.4byte	0x49
 2179 0531 09       		.uleb128 0x9
 2180 0532 04       		.byte	0x4
 2181 0533 0C050000 		.4byte	0x50c
 2182 0537 14       		.uleb128 0x14
 2183 0538 01       		.byte	0x1
 2184 0539 30000000 		.4byte	0x30
 2185 053d 51050000 		.4byte	0x551
 2186 0541 13       		.uleb128 0x13
 2187 0542 80020000 		.4byte	0x280
 2188 0546 13       		.uleb128 0x13
ARM GAS  C:\Users\z80\AppData\Local\Temp\cc8udMHo.s 			page 40


 2189 0547 F0040000 		.4byte	0x4f0
 2190 054b 13       		.uleb128 0x13
 2191 054c 30000000 		.4byte	0x30
 2192 0550 00       		.byte	0x0
 2193 0551 09       		.uleb128 0x9
 2194 0552 04       		.byte	0x4
 2195 0553 37050000 		.4byte	0x537
 2196 0557 14       		.uleb128 0x14
 2197 0558 01       		.byte	0x1
 2198 0559 BC000000 		.4byte	0xbc
 2199 055d 67050000 		.4byte	0x567
 2200 0561 13       		.uleb128 0x13
 2201 0562 80020000 		.4byte	0x280
 2202 0566 00       		.byte	0x0
 2203 0567 09       		.uleb128 0x9
 2204 0568 04       		.byte	0x4
 2205 0569 57050000 		.4byte	0x557
 2206 056d 14       		.uleb128 0x14
 2207 056e 01       		.byte	0x1
 2208 056f E8000000 		.4byte	0xe8
 2209 0573 87050000 		.4byte	0x587
 2210 0577 13       		.uleb128 0x13
 2211 0578 80020000 		.4byte	0x280
 2212 057c 13       		.uleb128 0x13
 2213 057d 49000000 		.4byte	0x49
 2214 0581 13       		.uleb128 0x13
 2215 0582 FE000000 		.4byte	0xfe
 2216 0586 00       		.byte	0x0
 2217 0587 09       		.uleb128 0x9
 2218 0588 04       		.byte	0x4
 2219 0589 6D050000 		.4byte	0x56d
 2220 058d 14       		.uleb128 0x14
 2221 058e 01       		.byte	0x1
 2222 058f E8000000 		.4byte	0xe8
 2223 0593 A2050000 		.4byte	0x5a2
 2224 0597 13       		.uleb128 0x13
 2225 0598 80020000 		.4byte	0x280
 2226 059c 13       		.uleb128 0x13
 2227 059d FE000000 		.4byte	0xfe
 2228 05a1 00       		.byte	0x0
 2229 05a2 09       		.uleb128 0x9
 2230 05a3 04       		.byte	0x4
 2231 05a4 8D050000 		.4byte	0x58d
 2232 05a8 14       		.uleb128 0x14
 2233 05a9 01       		.byte	0x1
 2234 05aa 30000000 		.4byte	0x30
 2235 05ae C7050000 		.4byte	0x5c7
 2236 05b2 13       		.uleb128 0x13
 2237 05b3 80020000 		.4byte	0x280
 2238 05b7 13       		.uleb128 0x13
 2239 05b8 26050000 		.4byte	0x526
 2240 05bc 13       		.uleb128 0x13
 2241 05bd 30000000 		.4byte	0x30
 2242 05c1 13       		.uleb128 0x13
 2243 05c2 FE000000 		.4byte	0xfe
 2244 05c6 00       		.byte	0x0
 2245 05c7 09       		.uleb128 0x9
ARM GAS  C:\Users\z80\AppData\Local\Temp\cc8udMHo.s 			page 41


 2246 05c8 04       		.byte	0x4
 2247 05c9 A8050000 		.4byte	0x5a8
 2248 05cd 14       		.uleb128 0x14
 2249 05ce 01       		.byte	0x1
 2250 05cf 30000000 		.4byte	0x30
 2251 05d3 EC050000 		.4byte	0x5ec
 2252 05d7 13       		.uleb128 0x13
 2253 05d8 80020000 		.4byte	0x280
 2254 05dc 13       		.uleb128 0x13
 2255 05dd F0040000 		.4byte	0x4f0
 2256 05e1 13       		.uleb128 0x13
 2257 05e2 30000000 		.4byte	0x30
 2258 05e6 13       		.uleb128 0x13
 2259 05e7 FE000000 		.4byte	0xfe
 2260 05eb 00       		.byte	0x0
 2261 05ec 09       		.uleb128 0x9
 2262 05ed 04       		.byte	0x4
 2263 05ee CD050000 		.4byte	0x5cd
 2264 05f2 15       		.uleb128 0x15
 2265 05f3 EE020000 		.4byte	.LASF73
 2266 05f7 0B       		.byte	0xb
 2267 05f8 0B01     		.2byte	0x10b
 2268 05fa B1000000 		.4byte	0xb1
 2269 05fe 14       		.uleb128 0x14
 2270 05ff 01       		.byte	0x1
 2271 0600 F2050000 		.4byte	0x5f2
 2272 0604 0E060000 		.4byte	0x60e
 2273 0608 13       		.uleb128 0x13
 2274 0609 80020000 		.4byte	0x280
 2275 060d 00       		.byte	0x0
 2276 060e 09       		.uleb128 0x9
 2277 060f 04       		.byte	0x4
 2278 0610 FE050000 		.4byte	0x5fe
 2279 0614 03       		.uleb128 0x3
 2280 0615 3B000000 		.4byte	.LASF74
 2281 0619 0C       		.byte	0xc
 2282 061a 0B       		.byte	0xb
 2283 061b 1F060000 		.4byte	0x61f
 2284 061f 09       		.uleb128 0x9
 2285 0620 04       		.byte	0x4
 2286 0621 25060000 		.4byte	0x625
 2287 0625 12       		.uleb128 0x12
 2288 0626 01       		.byte	0x1
 2289 0627 31060000 		.4byte	0x631
 2290 062b 13       		.uleb128 0x13
 2291 062c F0040000 		.4byte	0x4f0
 2292 0630 00       		.byte	0x0
 2293 0631 0D       		.uleb128 0xd
 2294 0632 62000000 		.4byte	0x62
 2295 0636 0D       		.uleb128 0xd
 2296 0637 74000000 		.4byte	0x74
 2297 063b 16       		.uleb128 0x16
 2298 063c 1C       		.byte	0x1c
 2299 063d 0D       		.byte	0xd
 2300 063e F803     		.2byte	0x3f8
 2301 0640 AE060000 		.4byte	0x6ae
 2302 0644 0B       		.uleb128 0xb
ARM GAS  C:\Users\z80\AppData\Local\Temp\cc8udMHo.s 			page 42


 2303 0645 43524C00 		.ascii	"CRL\000"
 2304 0649 0D       		.byte	0xd
 2305 064a FA03     		.2byte	0x3fa
 2306 064c 3D030000 		.4byte	0x33d
 2307 0650 02       		.byte	0x2
 2308 0651 23       		.byte	0x23
 2309 0652 00       		.uleb128 0x0
 2310 0653 0B       		.uleb128 0xb
 2311 0654 43524800 		.ascii	"CRH\000"
 2312 0658 0D       		.byte	0xd
 2313 0659 FB03     		.2byte	0x3fb
 2314 065b 3D030000 		.4byte	0x33d
 2315 065f 02       		.byte	0x2
 2316 0660 23       		.byte	0x23
 2317 0661 04       		.uleb128 0x4
 2318 0662 0B       		.uleb128 0xb
 2319 0663 49445200 		.ascii	"IDR\000"
 2320 0667 0D       		.byte	0xd
 2321 0668 FC03     		.2byte	0x3fc
 2322 066a 3D030000 		.4byte	0x33d
 2323 066e 02       		.byte	0x2
 2324 066f 23       		.byte	0x23
 2325 0670 08       		.uleb128 0x8
 2326 0671 0B       		.uleb128 0xb
 2327 0672 4F445200 		.ascii	"ODR\000"
 2328 0676 0D       		.byte	0xd
 2329 0677 FD03     		.2byte	0x3fd
 2330 0679 3D030000 		.4byte	0x33d
 2331 067d 02       		.byte	0x2
 2332 067e 23       		.byte	0x23
 2333 067f 0C       		.uleb128 0xc
 2334 0680 17       		.uleb128 0x17
 2335 0681 D4000000 		.4byte	.LASF75
 2336 0685 0D       		.byte	0xd
 2337 0686 FE03     		.2byte	0x3fe
 2338 0688 3D030000 		.4byte	0x33d
 2339 068c 02       		.byte	0x2
 2340 068d 23       		.byte	0x23
 2341 068e 10       		.uleb128 0x10
 2342 068f 0B       		.uleb128 0xb
 2343 0690 42525200 		.ascii	"BRR\000"
 2344 0694 0D       		.byte	0xd
 2345 0695 FF03     		.2byte	0x3ff
 2346 0697 3D030000 		.4byte	0x33d
 2347 069b 02       		.byte	0x2
 2348 069c 23       		.byte	0x23
 2349 069d 14       		.uleb128 0x14
 2350 069e 17       		.uleb128 0x17
 2351 069f EB010000 		.4byte	.LASF76
 2352 06a3 0D       		.byte	0xd
 2353 06a4 0004     		.2byte	0x400
 2354 06a6 3D030000 		.4byte	0x33d
 2355 06aa 02       		.byte	0x2
 2356 06ab 23       		.byte	0x23
 2357 06ac 18       		.uleb128 0x18
 2358 06ad 00       		.byte	0x0
 2359 06ae 15       		.uleb128 0x15
ARM GAS  C:\Users\z80\AppData\Local\Temp\cc8udMHo.s 			page 43


 2360 06af 69010000 		.4byte	.LASF77
 2361 06b3 0D       		.byte	0xd
 2362 06b4 0104     		.2byte	0x401
 2363 06b6 3B060000 		.4byte	0x63b
 2364 06ba 16       		.uleb128 0x16
 2365 06bb 1C       		.byte	0x1c
 2366 06bc 0D       		.byte	0xd
 2367 06bd E104     		.2byte	0x4e1
 2368 06bf 94070000 		.4byte	0x794
 2369 06c3 0B       		.uleb128 0xb
 2370 06c4 535200   		.ascii	"SR\000"
 2371 06c7 0D       		.byte	0xd
 2372 06c8 E304     		.2byte	0x4e3
 2373 06ca 31060000 		.4byte	0x631
 2374 06ce 02       		.byte	0x2
 2375 06cf 23       		.byte	0x23
 2376 06d0 00       		.uleb128 0x0
 2377 06d1 17       		.uleb128 0x17
 2378 06d2 2A030000 		.4byte	.LASF78
 2379 06d6 0D       		.byte	0xd
 2380 06d7 E404     		.2byte	0x4e4
 2381 06d9 62000000 		.4byte	0x62
 2382 06dd 02       		.byte	0x2
 2383 06de 23       		.byte	0x23
 2384 06df 02       		.uleb128 0x2
 2385 06e0 0B       		.uleb128 0xb
 2386 06e1 445200   		.ascii	"DR\000"
 2387 06e4 0D       		.byte	0xd
 2388 06e5 E504     		.2byte	0x4e5
 2389 06e7 31060000 		.4byte	0x631
 2390 06eb 02       		.byte	0x2
 2391 06ec 23       		.byte	0x23
 2392 06ed 04       		.uleb128 0x4
 2393 06ee 17       		.uleb128 0x17
 2394 06ef 34030000 		.4byte	.LASF79
 2395 06f3 0D       		.byte	0xd
 2396 06f4 E604     		.2byte	0x4e6
 2397 06f6 62000000 		.4byte	0x62
 2398 06fa 02       		.byte	0x2
 2399 06fb 23       		.byte	0x23
 2400 06fc 06       		.uleb128 0x6
 2401 06fd 0B       		.uleb128 0xb
 2402 06fe 42525200 		.ascii	"BRR\000"
 2403 0702 0D       		.byte	0xd
 2404 0703 E704     		.2byte	0x4e7
 2405 0705 31060000 		.4byte	0x631
 2406 0709 02       		.byte	0x2
 2407 070a 23       		.byte	0x23
 2408 070b 08       		.uleb128 0x8
 2409 070c 17       		.uleb128 0x17
 2410 070d 3E030000 		.4byte	.LASF80
 2411 0711 0D       		.byte	0xd
 2412 0712 E804     		.2byte	0x4e8
 2413 0714 62000000 		.4byte	0x62
 2414 0718 02       		.byte	0x2
 2415 0719 23       		.byte	0x23
 2416 071a 0A       		.uleb128 0xa
ARM GAS  C:\Users\z80\AppData\Local\Temp\cc8udMHo.s 			page 44


 2417 071b 0B       		.uleb128 0xb
 2418 071c 43523100 		.ascii	"CR1\000"
 2419 0720 0D       		.byte	0xd
 2420 0721 E904     		.2byte	0x4e9
 2421 0723 31060000 		.4byte	0x631
 2422 0727 02       		.byte	0x2
 2423 0728 23       		.byte	0x23
 2424 0729 0C       		.uleb128 0xc
 2425 072a 17       		.uleb128 0x17
 2426 072b 48030000 		.4byte	.LASF81
 2427 072f 0D       		.byte	0xd
 2428 0730 EA04     		.2byte	0x4ea
 2429 0732 62000000 		.4byte	0x62
 2430 0736 02       		.byte	0x2
 2431 0737 23       		.byte	0x23
 2432 0738 0E       		.uleb128 0xe
 2433 0739 0B       		.uleb128 0xb
 2434 073a 43523200 		.ascii	"CR2\000"
 2435 073e 0D       		.byte	0xd
 2436 073f EB04     		.2byte	0x4eb
 2437 0741 31060000 		.4byte	0x631
 2438 0745 02       		.byte	0x2
 2439 0746 23       		.byte	0x23
 2440 0747 10       		.uleb128 0x10
 2441 0748 17       		.uleb128 0x17
 2442 0749 52030000 		.4byte	.LASF82
 2443 074d 0D       		.byte	0xd
 2444 074e EC04     		.2byte	0x4ec
 2445 0750 62000000 		.4byte	0x62
 2446 0754 02       		.byte	0x2
 2447 0755 23       		.byte	0x23
 2448 0756 12       		.uleb128 0x12
 2449 0757 0B       		.uleb128 0xb
 2450 0758 43523300 		.ascii	"CR3\000"
 2451 075c 0D       		.byte	0xd
 2452 075d ED04     		.2byte	0x4ed
 2453 075f 31060000 		.4byte	0x631
 2454 0763 02       		.byte	0x2
 2455 0764 23       		.byte	0x23
 2456 0765 14       		.uleb128 0x14
 2457 0766 17       		.uleb128 0x17
 2458 0767 19040000 		.4byte	.LASF83
 2459 076b 0D       		.byte	0xd
 2460 076c EE04     		.2byte	0x4ee
 2461 076e 62000000 		.4byte	0x62
 2462 0772 02       		.byte	0x2
 2463 0773 23       		.byte	0x23
 2464 0774 16       		.uleb128 0x16
 2465 0775 17       		.uleb128 0x17
 2466 0776 D9000000 		.4byte	.LASF84
 2467 077a 0D       		.byte	0xd
 2468 077b EF04     		.2byte	0x4ef
 2469 077d 31060000 		.4byte	0x631
 2470 0781 02       		.byte	0x2
 2471 0782 23       		.byte	0x23
 2472 0783 18       		.uleb128 0x18
 2473 0784 17       		.uleb128 0x17
ARM GAS  C:\Users\z80\AppData\Local\Temp\cc8udMHo.s 			page 45


 2474 0785 23040000 		.4byte	.LASF85
 2475 0789 0D       		.byte	0xd
 2476 078a F004     		.2byte	0x4f0
 2477 078c 62000000 		.4byte	0x62
 2478 0790 02       		.byte	0x2
 2479 0791 23       		.byte	0x23
 2480 0792 1A       		.uleb128 0x1a
 2481 0793 00       		.byte	0x0
 2482 0794 15       		.uleb128 0x15
 2483 0795 4A020000 		.4byte	.LASF86
 2484 0799 0D       		.byte	0xd
 2485 079a F104     		.2byte	0x4f1
 2486 079c BA060000 		.4byte	0x6ba
 2487 07a0 03       		.uleb128 0x3
 2488 07a1 41000000 		.4byte	.LASF87
 2489 07a5 0E       		.byte	0xe
 2490 07a6 78       		.byte	0x78
 2491 07a7 86000000 		.4byte	0x86
 2492 07ab 18       		.uleb128 0x18
 2493 07ac 01       		.byte	0x1
 2494 07ad 0F       		.byte	0xf
 2495 07ae 64       		.byte	0x64
 2496 07af C6070000 		.4byte	0x7c6
 2497 07b3 19       		.uleb128 0x19
 2498 07b4 0F040000 		.4byte	.LASF88
 2499 07b8 00       		.sleb128 0
 2500 07b9 19       		.uleb128 0x19
 2501 07ba DE000000 		.4byte	.LASF89
 2502 07be 01       		.sleb128 1
 2503 07bf 19       		.uleb128 0x19
 2504 07c0 C8040000 		.4byte	.LASF90
 2505 07c4 02       		.sleb128 2
 2506 07c5 00       		.byte	0x0
 2507 07c6 03       		.uleb128 0x3
 2508 07c7 36040000 		.4byte	.LASF91
 2509 07cb 0F       		.byte	0xf
 2510 07cc 68       		.byte	0x68
 2511 07cd AB070000 		.4byte	0x7ab
 2512 07d1 03       		.uleb128 0x3
 2513 07d2 40040000 		.4byte	.LASF92
 2514 07d6 0F       		.byte	0xf
 2515 07d7 6D       		.byte	0x6d
 2516 07d8 DC070000 		.4byte	0x7dc
 2517 07dc 1A       		.uleb128 0x1a
 2518 07dd 40040000 		.4byte	.LASF92
 2519 07e1 5404     		.2byte	0x454
 2520 07e3 0F       		.byte	0xf
 2521 07e4 87       		.byte	0x87
 2522 07e5 68080000 		.4byte	0x868
 2523 07e9 07       		.uleb128 0x7
 2524 07ea 766D7400 		.ascii	"vmt\000"
 2525 07ee 0F       		.byte	0xf
 2526 07ef 89       		.byte	0x89
 2527 07f0 3F090000 		.4byte	0x93f
 2528 07f4 02       		.byte	0x2
 2529 07f5 23       		.byte	0x23
 2530 07f6 00       		.uleb128 0x0
ARM GAS  C:\Users\z80\AppData\Local\Temp\cc8udMHo.s 			page 46


 2531 07f7 06       		.uleb128 0x6
 2532 07f8 09020000 		.4byte	.LASF93
 2533 07fc 0F       		.byte	0xf
 2534 07fd 8A       		.byte	0x8a
 2535 07fe F5030000 		.4byte	0x3f5
 2536 0802 02       		.byte	0x2
 2537 0803 23       		.byte	0x23
 2538 0804 04       		.uleb128 0x4
 2539 0805 06       		.uleb128 0x6
 2540 0806 1A050000 		.4byte	.LASF94
 2541 080a 0F       		.byte	0xf
 2542 080b 8A       		.byte	0x8a
 2543 080c F2050000 		.4byte	0x5f2
 2544 0810 02       		.byte	0x2
 2545 0811 23       		.byte	0x23
 2546 0812 08       		.uleb128 0x8
 2547 0813 06       		.uleb128 0x6
 2548 0814 2A010000 		.4byte	.LASF95
 2549 0818 0F       		.byte	0xf
 2550 0819 8A       		.byte	0x8a
 2551 081a C6070000 		.4byte	0x7c6
 2552 081e 02       		.byte	0x2
 2553 081f 23       		.byte	0x23
 2554 0820 0C       		.uleb128 0xc
 2555 0821 06       		.uleb128 0x6
 2556 0822 D4010000 		.4byte	.LASF96
 2557 0826 0F       		.byte	0xf
 2558 0827 8A       		.byte	0x8a
 2559 0828 F6040000 		.4byte	0x4f6
 2560 082c 02       		.byte	0x2
 2561 082d 23       		.byte	0x23
 2562 082e 10       		.uleb128 0x10
 2563 082f 06       		.uleb128 0x6
 2564 0830 32020000 		.4byte	.LASF97
 2565 0834 0F       		.byte	0xf
 2566 0835 8A       		.byte	0x8a
 2567 0836 01050000 		.4byte	0x501
 2568 083a 02       		.byte	0x2
 2569 083b 23       		.byte	0x23
 2570 083c 30       		.uleb128 0x30
 2571 083d 07       		.uleb128 0x7
 2572 083e 696200   		.ascii	"ib\000"
 2573 0841 0F       		.byte	0xf
 2574 0842 8A       		.byte	0x8a
 2575 0843 4A090000 		.4byte	0x94a
 2576 0847 02       		.byte	0x2
 2577 0848 23       		.byte	0x23
 2578 0849 50       		.uleb128 0x50
 2579 084a 07       		.uleb128 0x7
 2580 084b 6F6200   		.ascii	"ob\000"
 2581 084e 0F       		.byte	0xf
 2582 084f 8A       		.byte	0x8a
 2583 0850 4A090000 		.4byte	0x94a
 2584 0854 03       		.byte	0x3
 2585 0855 23       		.byte	0x23
 2586 0856 D004     		.uleb128 0x250
 2587 0858 06       		.uleb128 0x6
ARM GAS  C:\Users\z80\AppData\Local\Temp\cc8udMHo.s 			page 47


 2588 0859 90010000 		.4byte	.LASF98
 2589 085d 0F       		.byte	0xf
 2590 085e 8A       		.byte	0x8a
 2591 085f 5B090000 		.4byte	0x95b
 2592 0863 03       		.byte	0x3
 2593 0864 23       		.byte	0x23
 2594 0865 D008     		.uleb128 0x450
 2595 0867 00       		.byte	0x0
 2596 0868 08       		.uleb128 0x8
 2597 0869 0C       		.byte	0xc
 2598 086a 10       		.byte	0x10
 2599 086b C4       		.byte	0xc4
 2600 086c A9080000 		.4byte	0x8a9
 2601 0870 06       		.uleb128 0x6
 2602 0871 09000000 		.4byte	.LASF99
 2603 0875 10       		.byte	0x10
 2604 0876 C8       		.byte	0xc8
 2605 0877 86000000 		.4byte	0x86
 2606 087b 02       		.byte	0x2
 2607 087c 23       		.byte	0x23
 2608 087d 00       		.uleb128 0x0
 2609 087e 06       		.uleb128 0x6
 2610 087f 55050000 		.4byte	.LASF100
 2611 0883 10       		.byte	0x10
 2612 0884 CC       		.byte	0xcc
 2613 0885 62000000 		.4byte	0x62
 2614 0889 02       		.byte	0x2
 2615 088a 23       		.byte	0x23
 2616 088b 04       		.uleb128 0x4
 2617 088c 06       		.uleb128 0x6
 2618 088d 5C050000 		.4byte	.LASF101
 2619 0891 10       		.byte	0x10
 2620 0892 D0       		.byte	0xd0
 2621 0893 62000000 		.4byte	0x62
 2622 0897 02       		.byte	0x2
 2623 0898 23       		.byte	0x23
 2624 0899 06       		.uleb128 0x6
 2625 089a 06       		.uleb128 0x6
 2626 089b 63050000 		.4byte	.LASF102
 2627 089f 10       		.byte	0x10
 2628 08a0 D4       		.byte	0xd4
 2629 08a1 62000000 		.4byte	0x62
 2630 08a5 02       		.byte	0x2
 2631 08a6 23       		.byte	0x23
 2632 08a7 08       		.uleb128 0x8
 2633 08a8 00       		.byte	0x0
 2634 08a9 03       		.uleb128 0x3
 2635 08aa 18030000 		.4byte	.LASF103
 2636 08ae 10       		.byte	0x10
 2637 08af D5       		.byte	0xd5
 2638 08b0 68080000 		.4byte	0x868
 2639 08b4 05       		.uleb128 0x5
 2640 08b5 AC010000 		.4byte	.LASF104
 2641 08b9 24       		.byte	0x24
 2642 08ba 0F       		.byte	0xf
 2643 08bb 7C       		.byte	0x7c
 2644 08bc 3F090000 		.4byte	0x93f
ARM GAS  C:\Users\z80\AppData\Local\Temp\cc8udMHo.s 			page 48


 2645 08c0 06       		.uleb128 0x6
 2646 08c1 C8020000 		.4byte	.LASF105
 2647 08c5 0F       		.byte	0xf
 2648 08c6 7D       		.byte	0x7d
 2649 08c7 31050000 		.4byte	0x531
 2650 08cb 02       		.byte	0x2
 2651 08cc 23       		.byte	0x23
 2652 08cd 00       		.uleb128 0x0
 2653 08ce 06       		.uleb128 0x6
 2654 08cf 5F040000 		.4byte	.LASF106
 2655 08d3 0F       		.byte	0xf
 2656 08d4 7D       		.byte	0x7d
 2657 08d5 51050000 		.4byte	0x551
 2658 08d9 02       		.byte	0x2
 2659 08da 23       		.byte	0x23
 2660 08db 04       		.uleb128 0x4
 2661 08dc 06       		.uleb128 0x6
 2662 08dd 5B010000 		.4byte	.LASF107
 2663 08e1 0F       		.byte	0xf
 2664 08e2 7D       		.byte	0x7d
 2665 08e3 67050000 		.4byte	0x567
 2666 08e7 02       		.byte	0x2
 2667 08e8 23       		.byte	0x23
 2668 08e9 08       		.uleb128 0x8
 2669 08ea 06       		.uleb128 0x6
 2670 08eb 47050000 		.4byte	.LASF108
 2671 08ef 0F       		.byte	0xf
 2672 08f0 7D       		.byte	0x7d
 2673 08f1 67050000 		.4byte	0x567
 2674 08f5 02       		.byte	0x2
 2675 08f6 23       		.byte	0x23
 2676 08f7 0C       		.uleb128 0xc
 2677 08f8 07       		.uleb128 0x7
 2678 08f9 70757400 		.ascii	"put\000"
 2679 08fd 0F       		.byte	0xf
 2680 08fe 7D       		.byte	0x7d
 2681 08ff 87050000 		.4byte	0x587
 2682 0903 02       		.byte	0x2
 2683 0904 23       		.byte	0x23
 2684 0905 10       		.uleb128 0x10
 2685 0906 07       		.uleb128 0x7
 2686 0907 67657400 		.ascii	"get\000"
 2687 090b 0F       		.byte	0xf
 2688 090c 7D       		.byte	0x7d
 2689 090d A2050000 		.4byte	0x5a2
 2690 0911 02       		.byte	0x2
 2691 0912 23       		.byte	0x23
 2692 0913 14       		.uleb128 0x14
 2693 0914 06       		.uleb128 0x6
 2694 0915 58020000 		.4byte	.LASF109
 2695 0919 0F       		.byte	0xf
 2696 091a 7D       		.byte	0x7d
 2697 091b C7050000 		.4byte	0x5c7
 2698 091f 02       		.byte	0x2
 2699 0920 23       		.byte	0x23
 2700 0921 18       		.uleb128 0x18
 2701 0922 06       		.uleb128 0x6
ARM GAS  C:\Users\z80\AppData\Local\Temp\cc8udMHo.s 			page 49


 2702 0923 AA000000 		.4byte	.LASF110
 2703 0927 0F       		.byte	0xf
 2704 0928 7D       		.byte	0x7d
 2705 0929 EC050000 		.4byte	0x5ec
 2706 092d 02       		.byte	0x2
 2707 092e 23       		.byte	0x23
 2708 092f 1C       		.uleb128 0x1c
 2709 0930 06       		.uleb128 0x6
 2710 0931 AA040000 		.4byte	.LASF111
 2711 0935 0F       		.byte	0xf
 2712 0936 7D       		.byte	0x7d
 2713 0937 0E060000 		.4byte	0x60e
 2714 093b 02       		.byte	0x2
 2715 093c 23       		.byte	0x23
 2716 093d 20       		.uleb128 0x20
 2717 093e 00       		.byte	0x0
 2718 093f 09       		.uleb128 0x9
 2719 0940 04       		.byte	0x4
 2720 0941 45090000 		.4byte	0x945
 2721 0945 11       		.uleb128 0x11
 2722 0946 B4080000 		.4byte	0x8b4
 2723 094a 1B       		.uleb128 0x1b
 2724 094b 49000000 		.4byte	0x49
 2725 094f 5B090000 		.4byte	0x95b
 2726 0953 1C       		.uleb128 0x1c
 2727 0954 42030000 		.4byte	0x342
 2728 0958 FF01     		.2byte	0x1ff
 2729 095a 00       		.byte	0x0
 2730 095b 09       		.uleb128 0x9
 2731 095c 04       		.byte	0x4
 2732 095d 94070000 		.4byte	0x794
 2733 0961 1D       		.uleb128 0x1d
 2734 0962 F0010000 		.4byte	.LASF114
 2735 0966 01       		.byte	0x1
 2736 0967 98       		.byte	0x98
 2737 0968 01       		.byte	0x1
 2738 0969 01       		.byte	0x1
 2739 096a 85090000 		.4byte	0x985
 2740 096e 1E       		.uleb128 0x1e
 2741 096f 0F050000 		.4byte	.LASF112
 2742 0973 01       		.byte	0x1
 2743 0974 9A       		.byte	0x9a
 2744 0975 29000000 		.4byte	0x29
 2745 0979 1E       		.uleb128 0x1e
 2746 097a 75030000 		.4byte	.LASF113
 2747 097e 01       		.byte	0x1
 2748 097f 9C       		.byte	0x9c
 2749 0980 29000000 		.4byte	0x29
 2750 0984 00       		.byte	0x0
 2751 0985 1D       		.uleb128 0x1d
 2752 0986 CF030000 		.4byte	.LASF115
 2753 098a 01       		.byte	0x1
 2754 098b 6E       		.byte	0x6e
 2755 098c 01       		.byte	0x1
 2756 098d 01       		.byte	0x1
 2757 098e C7090000 		.4byte	0x9c7
 2758 0992 1F       		.uleb128 0x1f
ARM GAS  C:\Users\z80\AppData\Local\Temp\cc8udMHo.s 			page 50


 2759 0993 62756600 		.ascii	"buf\000"
 2760 0997 01       		.byte	0x1
 2761 0998 6E       		.byte	0x6e
 2762 0999 F0040000 		.4byte	0x4f0
 2763 099d 1F       		.uleb128 0x1f
 2764 099e 737A00   		.ascii	"sz\000"
 2765 09a1 01       		.byte	0x1
 2766 09a2 6E       		.byte	0x6e
 2767 09a3 29000000 		.4byte	0x29
 2768 09a7 20       		.uleb128 0x20
 2769 09a8 6900     		.ascii	"i\000"
 2770 09aa 01       		.byte	0x1
 2771 09ab 70       		.byte	0x70
 2772 09ac 29000000 		.4byte	0x29
 2773 09b0 20       		.uleb128 0x20
 2774 09b1 636D6400 		.ascii	"cmd\000"
 2775 09b5 01       		.byte	0x1
 2776 09b6 71       		.byte	0x71
 2777 09b7 49000000 		.4byte	0x49
 2778 09bb 1E       		.uleb128 0x1e
 2779 09bc A5040000 		.4byte	.LASF116
 2780 09c0 01       		.byte	0x1
 2781 09c1 73       		.byte	0x73
 2782 09c2 F0040000 		.4byte	0x4f0
 2783 09c6 00       		.byte	0x0
 2784 09c7 21       		.uleb128 0x21
 2785 09c8 69040000 		.4byte	.LASF117
 2786 09cc 01       		.byte	0x1
 2787 09cd 0B01     		.2byte	0x10b
 2788 09cf 01       		.byte	0x1
 2789 09d0 00000000 		.4byte	.LFB76
 2790 09d4 34000000 		.4byte	.LFE76
 2791 09d8 00000000 		.4byte	.LLST0
 2792 09dc EF090000 		.4byte	0x9ef
 2793 09e0 22       		.uleb128 0x22
 2794 09e1 7600     		.ascii	"v\000"
 2795 09e3 01       		.byte	0x1
 2796 09e4 0B01     		.2byte	0x10b
 2797 09e6 49000000 		.4byte	0x49
 2798 09ea 20000000 		.4byte	.LLST1
 2799 09ee 00       		.byte	0x0
 2800 09ef 23       		.uleb128 0x23
 2801 09f0 00000000 		.4byte	.LASF141
 2802 09f4 01       		.byte	0x1
 2803 09f5 1201     		.2byte	0x112
 2804 09f7 01       		.byte	0x1
 2805 09f8 00000000 		.4byte	.LFB77
 2806 09fc 14000000 		.4byte	.LFE77
 2807 0a00 33000000 		.4byte	.LLST2
 2808 0a04 24       		.uleb128 0x24
 2809 0a05 BB020000 		.4byte	.LASF118
 2810 0a09 01       		.byte	0x1
 2811 0a0a EF       		.byte	0xef
 2812 0a0b 01       		.byte	0x1
 2813 0a0c 00000000 		.4byte	.LFB75
 2814 0a10 52000000 		.4byte	.LFE75
 2815 0a14 53000000 		.4byte	.LLST3
ARM GAS  C:\Users\z80\AppData\Local\Temp\cc8udMHo.s 			page 51


 2816 0a18 BA0A0000 		.4byte	0xaba
 2817 0a1c 25       		.uleb128 0x25
 2818 0a1d 61726700 		.ascii	"arg\000"
 2819 0a21 01       		.byte	0x1
 2820 0a22 EF       		.byte	0xef
 2821 0a23 F0040000 		.4byte	0x4f0
 2822 0a27 73000000 		.4byte	.LLST4
 2823 0a2b 26       		.uleb128 0x26
 2824 0a2c 6D736700 		.ascii	"msg\000"
 2825 0a30 01       		.byte	0x1
 2826 0a31 F2       		.byte	0xf2
 2827 0a32 E8000000 		.4byte	0xe8
 2828 0a36 86000000 		.4byte	.LLST5
 2829 0a3a 27       		.uleb128 0x27
 2830 0a3b FA010000 		.4byte	.LASF119
 2831 0a3f 01       		.byte	0x1
 2832 0a40 F3       		.byte	0xf3
 2833 0a41 49000000 		.4byte	0x49
 2834 0a45 A6000000 		.4byte	.LLST6
 2835 0a49 28       		.uleb128 0x28
 2836 0a4a 636E7400 		.ascii	"cnt\000"
 2837 0a4e 01       		.byte	0x1
 2838 0a4f F4       		.byte	0xf4
 2839 0a50 30000000 		.4byte	0x30
 2840 0a54 01       		.byte	0x1
 2841 0a55 55       		.byte	0x55
 2842 0a56 26       		.uleb128 0x26
 2843 0a57 6900     		.ascii	"i\000"
 2844 0a59 01       		.byte	0x1
 2845 0a5a F4       		.byte	0xf4
 2846 0a5b 30000000 		.4byte	0x30
 2847 0a5f E0000000 		.4byte	.LLST7
 2848 0a63 26       		.uleb128 0x26
 2849 0a64 7100     		.ascii	"q\000"
 2850 0a66 01       		.byte	0x1
 2851 0a67 F5       		.byte	0xf5
 2852 0a68 BA0A0000 		.4byte	0xaba
 2853 0a6c FF000000 		.4byte	.LLST8
 2854 0a70 29       		.uleb128 0x29
 2855 0a71 00000000 		.4byte	.Ldebug_ranges0+0x0
 2856 0a75 890A0000 		.4byte	0xa89
 2857 0a79 26       		.uleb128 0x26
 2858 0a7a 746D7000 		.ascii	"tmp\000"
 2859 0a7e 01       		.byte	0x1
 2860 0a7f F6       		.byte	0xf6
 2861 0a80 86000000 		.4byte	0x86
 2862 0a84 1D010000 		.4byte	.LLST9
 2863 0a88 00       		.byte	0x0
 2864 0a89 2A       		.uleb128 0x2a
 2865 0a8a 26000000 		.4byte	.LBB11
 2866 0a8e 2C000000 		.4byte	.LBE11
 2867 0a92 A60A0000 		.4byte	0xaa6
 2868 0a96 26       		.uleb128 0x26
 2869 0a97 746D7000 		.ascii	"tmp\000"
 2870 0a9b 01       		.byte	0x1
 2871 0a9c F8       		.byte	0xf8
 2872 0a9d 86000000 		.4byte	0x86
ARM GAS  C:\Users\z80\AppData\Local\Temp\cc8udMHo.s 			page 52


 2873 0aa1 30010000 		.4byte	.LLST10
 2874 0aa5 00       		.byte	0x0
 2875 0aa6 2B       		.uleb128 0x2b
 2876 0aa7 18000000 		.4byte	.Ldebug_ranges0+0x18
 2877 0aab 26       		.uleb128 0x26
 2878 0aac 7600     		.ascii	"v\000"
 2879 0aae 01       		.byte	0x1
 2880 0aaf FD       		.byte	0xfd
 2881 0ab0 49000000 		.4byte	0x49
 2882 0ab4 4E010000 		.4byte	.LLST11
 2883 0ab8 00       		.byte	0x0
 2884 0ab9 00       		.byte	0x0
 2885 0aba 09       		.uleb128 0x9
 2886 0abb 04       		.byte	0x4
 2887 0abc F6040000 		.4byte	0x4f6
 2888 0ac0 24       		.uleb128 0x24
 2889 0ac1 39020000 		.4byte	.LASF120
 2890 0ac5 01       		.byte	0x1
 2891 0ac6 AC       		.byte	0xac
 2892 0ac7 01       		.byte	0x1
 2893 0ac8 00000000 		.4byte	.LFB68
 2894 0acc 30000000 		.4byte	.LFE68
 2895 0ad0 61010000 		.4byte	.LLST12
 2896 0ad4 0D0B0000 		.4byte	0xb0d
 2897 0ad8 2C       		.uleb128 0x2c
 2898 0ad9 6A050000 		.4byte	.LASF121
 2899 0add 01       		.byte	0x1
 2900 0ade AC       		.byte	0xac
 2901 0adf F0040000 		.4byte	0x4f0
 2902 0ae3 8D010000 		.4byte	.LLST13
 2903 0ae7 2D       		.uleb128 0x2d
 2904 0ae8 E6010000 		.4byte	.LASF122
 2905 0aec 01       		.byte	0x1
 2906 0aed AF       		.byte	0xaf
 2907 0aee 1D0B0000 		.4byte	0xb1d
 2908 0af2 02       		.byte	0x2
 2909 0af3 91       		.byte	0x91
 2910 0af4 68       		.sleb128 -24
 2911 0af5 2E       		.uleb128 0x2e
 2912 0af6 6C00     		.ascii	"l\000"
 2913 0af8 01       		.byte	0x1
 2914 0af9 B0       		.byte	0xb0
 2915 0afa 29000000 		.4byte	0x29
 2916 0afe 05       		.byte	0x5
 2917 0aff 26       		.uleb128 0x26
 2918 0b00 6900     		.ascii	"i\000"
 2919 0b02 01       		.byte	0x1
 2920 0b03 B1       		.byte	0xb1
 2921 0b04 29000000 		.4byte	0x29
 2922 0b08 A0010000 		.4byte	.LLST14
 2923 0b0c 00       		.byte	0x0
 2924 0b0d 1B       		.uleb128 0x1b
 2925 0b0e 49000000 		.4byte	0x49
 2926 0b12 1D0B0000 		.4byte	0xb1d
 2927 0b16 2F       		.uleb128 0x2f
 2928 0b17 42030000 		.4byte	0x342
 2929 0b1b 05       		.byte	0x5
ARM GAS  C:\Users\z80\AppData\Local\Temp\cc8udMHo.s 			page 53


 2930 0b1c 00       		.byte	0x0
 2931 0b1d 11       		.uleb128 0x11
 2932 0b1e 0D0B0000 		.4byte	0xb0d
 2933 0b22 24       		.uleb128 0x24
 2934 0b23 C3010000 		.4byte	.LASF123
 2935 0b27 01       		.byte	0x1
 2936 0b28 A1       		.byte	0xa1
 2937 0b29 01       		.byte	0x1
 2938 0b2a 00000000 		.4byte	.LFB67
 2939 0b2e 30000000 		.4byte	.LFE67
 2940 0b32 B4010000 		.4byte	.LLST15
 2941 0b36 6F0B0000 		.4byte	0xb6f
 2942 0b3a 2C       		.uleb128 0x2c
 2943 0b3b 6A050000 		.4byte	.LASF121
 2944 0b3f 01       		.byte	0x1
 2945 0b40 A1       		.byte	0xa1
 2946 0b41 F0040000 		.4byte	0x4f0
 2947 0b45 E0010000 		.4byte	.LLST16
 2948 0b49 2D       		.uleb128 0x2d
 2949 0b4a E6010000 		.4byte	.LASF122
 2950 0b4e 01       		.byte	0x1
 2951 0b4f A4       		.byte	0xa4
 2952 0b50 7F0B0000 		.4byte	0xb7f
 2953 0b54 02       		.byte	0x2
 2954 0b55 91       		.byte	0x91
 2955 0b56 60       		.sleb128 -32
 2956 0b57 2E       		.uleb128 0x2e
 2957 0b58 6C00     		.ascii	"l\000"
 2958 0b5a 01       		.byte	0x1
 2959 0b5b A5       		.byte	0xa5
 2960 0b5c 29000000 		.4byte	0x29
 2961 0b60 0F       		.byte	0xf
 2962 0b61 26       		.uleb128 0x26
 2963 0b62 6900     		.ascii	"i\000"
 2964 0b64 01       		.byte	0x1
 2965 0b65 A6       		.byte	0xa6
 2966 0b66 29000000 		.4byte	0x29
 2967 0b6a F3010000 		.4byte	.LLST17
 2968 0b6e 00       		.byte	0x0
 2969 0b6f 1B       		.uleb128 0x1b
 2970 0b70 49000000 		.4byte	0x49
 2971 0b74 7F0B0000 		.4byte	0xb7f
 2972 0b78 2F       		.uleb128 0x2f
 2973 0b79 42030000 		.4byte	0x342
 2974 0b7d 0F       		.byte	0xf
 2975 0b7e 00       		.byte	0x0
 2976 0b7f 11       		.uleb128 0x11
 2977 0b80 6F0B0000 		.4byte	0xb6f
 2978 0b84 24       		.uleb128 0x24
 2979 0b85 E6000000 		.4byte	.LASF124
 2980 0b89 01       		.byte	0x1
 2981 0b8a E5       		.byte	0xe5
 2982 0b8b 01       		.byte	0x1
 2983 0b8c 00000000 		.4byte	.LFB74
 2984 0b90 18000000 		.4byte	.LFE74
 2985 0b94 07020000 		.4byte	.LLST18
 2986 0b98 B90B0000 		.4byte	0xbb9
ARM GAS  C:\Users\z80\AppData\Local\Temp\cc8udMHo.s 			page 54


 2987 0b9c 25       		.uleb128 0x25
 2988 0b9d 61726700 		.ascii	"arg\000"
 2989 0ba1 01       		.byte	0x1
 2990 0ba2 E5       		.byte	0xe5
 2991 0ba3 F0040000 		.4byte	0x4f0
 2992 0ba7 27020000 		.4byte	.LLST19
 2993 0bab 26       		.uleb128 0x26
 2994 0bac 7600     		.ascii	"v\000"
 2995 0bae 01       		.byte	0x1
 2996 0baf E7       		.byte	0xe7
 2997 0bb0 86000000 		.4byte	0x86
 2998 0bb4 3A020000 		.4byte	.LLST20
 2999 0bb8 00       		.byte	0x0
 3000 0bb9 24       		.uleb128 0x24
 3001 0bba 22020000 		.4byte	.LASF125
 3002 0bbe 01       		.byte	0x1
 3003 0bbf DF       		.byte	0xdf
 3004 0bc0 01       		.byte	0x1
 3005 0bc1 00000000 		.4byte	.LFB73
 3006 0bc5 0A000000 		.4byte	.LFE73
 3007 0bc9 66020000 		.4byte	.LLST21
 3008 0bcd EE0B0000 		.4byte	0xbee
 3009 0bd1 25       		.uleb128 0x25
 3010 0bd2 61726700 		.ascii	"arg\000"
 3011 0bd6 01       		.byte	0x1
 3012 0bd7 DF       		.byte	0xdf
 3013 0bd8 F0040000 		.4byte	0x4f0
 3014 0bdc 86020000 		.4byte	.LLST22
 3015 0be0 26       		.uleb128 0x26
 3016 0be1 7600     		.ascii	"v\000"
 3017 0be3 01       		.byte	0x1
 3018 0be4 E1       		.byte	0xe1
 3019 0be5 49000000 		.4byte	0x49
 3020 0be9 99020000 		.4byte	.LLST23
 3021 0bed 00       		.byte	0x0
 3022 0bee 24       		.uleb128 0x24
 3023 0bef FF040000 		.4byte	.LASF126
 3024 0bf3 01       		.byte	0x1
 3025 0bf4 CB       		.byte	0xcb
 3026 0bf5 01       		.byte	0x1
 3027 0bf6 00000000 		.4byte	.LFB72
 3028 0bfa 3E000000 		.4byte	.LFE72
 3029 0bfe AD020000 		.4byte	.LLST24
 3030 0c02 480C0000 		.4byte	0xc48
 3031 0c06 2C       		.uleb128 0x2c
 3032 0c07 6A050000 		.4byte	.LASF121
 3033 0c0b 01       		.byte	0x1
 3034 0c0c CB       		.byte	0xcb
 3035 0c0d F0040000 		.4byte	0x4f0
 3036 0c11 D9020000 		.4byte	.LLST25
 3037 0c15 28       		.uleb128 0x28
 3038 0c16 72657300 		.ascii	"res\000"
 3039 0c1a 01       		.byte	0x1
 3040 0c1b CE       		.byte	0xce
 3041 0c1c 480C0000 		.4byte	0xc48
 3042 0c20 02       		.byte	0x2
 3043 0c21 91       		.byte	0x91
ARM GAS  C:\Users\z80\AppData\Local\Temp\cc8udMHo.s 			page 55


 3044 0c22 60       		.sleb128 -32
 3045 0c23 26       		.uleb128 0x26
 3046 0c24 6900     		.ascii	"i\000"
 3047 0c26 01       		.byte	0x1
 3048 0c27 D0       		.byte	0xd0
 3049 0c28 29000000 		.4byte	0x29
 3050 0c2c EC020000 		.4byte	.LLST26
 3051 0c30 30       		.uleb128 0x30
 3052 0c31 0E000000 		.4byte	.LBB14
 3053 0c35 32000000 		.4byte	.LBE14
 3054 0c39 26       		.uleb128 0x26
 3055 0c3a 6200     		.ascii	"b\000"
 3056 0c3c 01       		.byte	0x1
 3057 0c3d D3       		.byte	0xd3
 3058 0c3e 49000000 		.4byte	0x49
 3059 0c42 00030000 		.4byte	.LLST27
 3060 0c46 00       		.byte	0x0
 3061 0c47 00       		.byte	0x0
 3062 0c48 1B       		.uleb128 0x1b
 3063 0c49 29000000 		.4byte	0x29
 3064 0c4d 580C0000 		.4byte	0xc58
 3065 0c51 2F       		.uleb128 0x2f
 3066 0c52 42030000 		.4byte	0x342
 3067 0c56 03       		.byte	0x3
 3068 0c57 00       		.byte	0x0
 3069 0c58 24       		.uleb128 0x24
 3070 0c59 6C030000 		.4byte	.LASF127
 3071 0c5d 01       		.byte	0x1
 3072 0c5e C4       		.byte	0xc4
 3073 0c5f 01       		.byte	0x1
 3074 0c60 00000000 		.4byte	.LFB71
 3075 0c64 1A000000 		.4byte	.LFE71
 3076 0c68 1A030000 		.4byte	.LLST28
 3077 0c6c 960C0000 		.4byte	0xc96
 3078 0c70 2C       		.uleb128 0x2c
 3079 0c71 6A050000 		.4byte	.LASF121
 3080 0c75 01       		.byte	0x1
 3081 0c76 C4       		.byte	0xc4
 3082 0c77 F0040000 		.4byte	0x4f0
 3083 0c7b 3A030000 		.4byte	.LLST29
 3084 0c7f 1E       		.uleb128 0x1e
 3085 0c80 8B010000 		.4byte	.LASF128
 3086 0c84 01       		.byte	0x1
 3087 0c85 C6       		.byte	0xc6
 3088 0c86 29000000 		.4byte	0x29
 3089 0c8a 1E       		.uleb128 0x1e
 3090 0c8b 25030000 		.4byte	.LASF129
 3091 0c8f 01       		.byte	0x1
 3092 0c90 C7       		.byte	0xc7
 3093 0c91 29000000 		.4byte	0x29
 3094 0c95 00       		.byte	0x0
 3095 0c96 24       		.uleb128 0x24
 3096 0c97 63030000 		.4byte	.LASF130
 3097 0c9b 01       		.byte	0x1
 3098 0c9c BD       		.byte	0xbd
 3099 0c9d 01       		.byte	0x1
 3100 0c9e 00000000 		.4byte	.LFB70
ARM GAS  C:\Users\z80\AppData\Local\Temp\cc8udMHo.s 			page 56


 3101 0ca2 1A000000 		.4byte	.LFE70
 3102 0ca6 4D030000 		.4byte	.LLST30
 3103 0caa D40C0000 		.4byte	0xcd4
 3104 0cae 2C       		.uleb128 0x2c
 3105 0caf 6A050000 		.4byte	.LASF121
 3106 0cb3 01       		.byte	0x1
 3107 0cb4 BD       		.byte	0xbd
 3108 0cb5 F0040000 		.4byte	0x4f0
 3109 0cb9 6D030000 		.4byte	.LLST31
 3110 0cbd 1E       		.uleb128 0x1e
 3111 0cbe 8B010000 		.4byte	.LASF128
 3112 0cc2 01       		.byte	0x1
 3113 0cc3 BF       		.byte	0xbf
 3114 0cc4 29000000 		.4byte	0x29
 3115 0cc8 1E       		.uleb128 0x1e
 3116 0cc9 25030000 		.4byte	.LASF129
 3117 0ccd 01       		.byte	0x1
 3118 0cce C0       		.byte	0xc0
 3119 0ccf 29000000 		.4byte	0x29
 3120 0cd3 00       		.byte	0x0
 3121 0cd4 24       		.uleb128 0x24
 3122 0cd5 DE020000 		.4byte	.LASF131
 3123 0cd9 01       		.byte	0x1
 3124 0cda B7       		.byte	0xb7
 3125 0cdb 01       		.byte	0x1
 3126 0cdc 00000000 		.4byte	.LFB69
 3127 0ce0 0A000000 		.4byte	.LFE69
 3128 0ce4 80030000 		.4byte	.LLST32
 3129 0ce8 FC0C0000 		.4byte	0xcfc
 3130 0cec 2C       		.uleb128 0x2c
 3131 0ced 6A050000 		.4byte	.LASF121
 3132 0cf1 01       		.byte	0x1
 3133 0cf2 B7       		.byte	0xb7
 3134 0cf3 F0040000 		.4byte	0x4f0
 3135 0cf7 A0030000 		.4byte	.LLST33
 3136 0cfb 00       		.byte	0x0
 3137 0cfc 31       		.uleb128 0x31
 3138 0cfd 01       		.byte	0x1
 3139 0cfe D1040000 		.4byte	.LASF142
 3140 0d02 01       		.byte	0x1
 3141 0d03 29       		.byte	0x29
 3142 0d04 01       		.byte	0x1
 3143 0d05 00000000 		.4byte	.LFB62
 3144 0d09 50000000 		.4byte	.LFE62
 3145 0d0d B3030000 		.4byte	.LLST34
 3146 0d11 32       		.uleb128 0x32
 3147 0d12 01       		.byte	0x1
 3148 0d13 75040000 		.4byte	.LASF143
 3149 0d17 01       		.byte	0x1
 3150 0d18 3A       		.byte	0x3a
 3151 0d19 01       		.byte	0x1
 3152 0d1a 00000000 		.4byte	.LFB63
 3153 0d1e C4000000 		.4byte	.LFE63
 3154 0d22 D3030000 		.4byte	.LLST35
 3155 0d26 E60D0000 		.4byte	0xde6
 3156 0d2a 2D       		.uleb128 0x2d
 3157 0d2b 41050000 		.4byte	.LASF132
ARM GAS  C:\Users\z80\AppData\Local\Temp\cc8udMHo.s 			page 57


 3158 0d2f 01       		.byte	0x1
 3159 0d30 3C       		.byte	0x3c
 3160 0d31 49000000 		.4byte	0x49
 3161 0d35 05       		.byte	0x5
 3162 0d36 03       		.byte	0x3
 3163 0d37 00000000 		.4byte	slash.3767
 3164 0d3b 2D       		.uleb128 0x2d
 3165 0d3c 85000000 		.4byte	.LASF133
 3166 0d40 01       		.byte	0x1
 3167 0d41 3D       		.byte	0x3d
 3168 0d42 29000000 		.4byte	0x29
 3169 0d46 05       		.byte	0x5
 3170 0d47 03       		.byte	0x3
 3171 0d48 00000000 		.4byte	out_index.3768
 3172 0d4c 26       		.uleb128 0x26
 3173 0d4d 6D736700 		.ascii	"msg\000"
 3174 0d51 01       		.byte	0x1
 3175 0d52 48       		.byte	0x48
 3176 0d53 E8000000 		.4byte	0xe8
 3177 0d57 F3030000 		.4byte	.LLST36
 3178 0d5b 27       		.uleb128 0x27
 3179 0d5c FA010000 		.4byte	.LASF119
 3180 0d60 01       		.byte	0x1
 3181 0d61 4A       		.byte	0x4a
 3182 0d62 49000000 		.4byte	0x49
 3183 0d66 13040000 		.4byte	.LLST37
 3184 0d6a 2B       		.uleb128 0x2b
 3185 0d6b 30000000 		.4byte	.Ldebug_ranges0+0x30
 3186 0d6f 26       		.uleb128 0x26
 3187 0d70 7600     		.ascii	"v\000"
 3188 0d72 01       		.byte	0x1
 3189 0d73 4D       		.byte	0x4d
 3190 0d74 49000000 		.4byte	0x49
 3191 0d78 4D040000 		.4byte	.LLST38
 3192 0d7c 33       		.uleb128 0x33
 3193 0d7d 85090000 		.4byte	0x985
 3194 0d81 1C000000 		.4byte	.LBB18
 3195 0d85 48000000 		.4byte	.Ldebug_ranges0+0x48
 3196 0d89 01       		.byte	0x1
 3197 0d8a 54       		.byte	0x54
 3198 0d8b 34       		.uleb128 0x34
 3199 0d8c 9D090000 		.4byte	0x99d
 3200 0d90 76040000 		.4byte	.LLST39
 3201 0d94 34       		.uleb128 0x34
 3202 0d95 92090000 		.4byte	0x992
 3203 0d99 C1040000 		.4byte	.LLST40
 3204 0d9d 2B       		.uleb128 0x2b
 3205 0d9e 78000000 		.4byte	.Ldebug_ranges0+0x78
 3206 0da2 35       		.uleb128 0x35
 3207 0da3 A7090000 		.4byte	0x9a7
 3208 0da7 F9040000 		.4byte	.LLST41
 3209 0dab 35       		.uleb128 0x35
 3210 0dac B0090000 		.4byte	0x9b0
 3211 0db0 0D050000 		.4byte	.LLST42
 3212 0db4 35       		.uleb128 0x35
 3213 0db5 BB090000 		.4byte	0x9bb
 3214 0db9 42050000 		.4byte	.LLST43
ARM GAS  C:\Users\z80\AppData\Local\Temp\cc8udMHo.s 			page 58


 3215 0dbd 33       		.uleb128 0x33
 3216 0dbe 61090000 		.4byte	0x961
 3217 0dc2 2C000000 		.4byte	.LBB23
 3218 0dc6 A8000000 		.4byte	.Ldebug_ranges0+0xa8
 3219 0dca 01       		.byte	0x1
 3220 0dcb 7C       		.byte	0x7c
 3221 0dcc 2B       		.uleb128 0x2b
 3222 0dcd C8000000 		.4byte	.Ldebug_ranges0+0xc8
 3223 0dd1 35       		.uleb128 0x35
 3224 0dd2 6E090000 		.4byte	0x96e
 3225 0dd6 7A050000 		.4byte	.LLST44
 3226 0dda 36       		.uleb128 0x36
 3227 0ddb 79090000 		.4byte	0x979
 3228 0ddf 09       		.byte	0x9
 3229 0de0 00       		.byte	0x0
 3230 0de1 00       		.byte	0x0
 3231 0de2 00       		.byte	0x0
 3232 0de3 00       		.byte	0x0
 3233 0de4 00       		.byte	0x0
 3234 0de5 00       		.byte	0x0
 3235 0de6 37       		.uleb128 0x37
 3236 0de7 01       		.byte	0x1
 3237 0de8 73000000 		.4byte	.LASF144
 3238 0dec 01       		.byte	0x1
 3239 0ded 67       		.byte	0x67
 3240 0dee 01       		.byte	0x1
 3241 0def F0040000 		.4byte	0x4f0
 3242 0df3 00000000 		.4byte	.LFB64
 3243 0df7 0A000000 		.4byte	.LFE64
 3244 0dfb 02       		.byte	0x2
 3245 0dfc 7D       		.byte	0x7d
 3246 0dfd 00       		.sleb128 0
 3247 0dfe 38       		.uleb128 0x38
 3248 0dff 8F000000 		.4byte	.LASF134
 3249 0e03 11       		.byte	0x11
 3250 0e04 9404     		.2byte	0x494
 3251 0e06 36060000 		.4byte	0x636
 3252 0e0a 01       		.byte	0x1
 3253 0e0b 01       		.byte	0x1
 3254 0e0c 39       		.uleb128 0x39
 3255 0e0d 53443100 		.ascii	"SD1\000"
 3256 0e11 10       		.byte	0x10
 3257 0e12 FB       		.byte	0xfb
 3258 0e13 D1070000 		.4byte	0x7d1
 3259 0e17 01       		.byte	0x1
 3260 0e18 01       		.byte	0x1
 3261 0e19 1B       		.uleb128 0x1b
 3262 0e1a 49000000 		.4byte	0x49
 3263 0e1e 290E0000 		.4byte	0xe29
 3264 0e22 2F       		.uleb128 0x2f
 3265 0e23 42030000 		.4byte	0x342
 3266 0e27 1F       		.byte	0x1f
 3267 0e28 00       		.byte	0x0
 3268 0e29 2D       		.uleb128 0x2d
 3269 0e2a 9E040000 		.4byte	.LASF135
 3270 0e2e 01       		.byte	0x1
 3271 0e2f 18       		.byte	0x18
ARM GAS  C:\Users\z80\AppData\Local\Temp\cc8udMHo.s 			page 59


 3272 0e30 190E0000 		.4byte	0xe19
 3273 0e34 05       		.byte	0x5
 3274 0e35 03       		.byte	0x3
 3275 0e36 00000000 		.4byte	buffer
 3276 0e3a 2D       		.uleb128 0x2d
 3277 0e3b 6A050000 		.4byte	.LASF121
 3278 0e3f 01       		.byte	0x1
 3279 0e40 19       		.byte	0x19
 3280 0e41 190E0000 		.4byte	0xe19
 3281 0e45 05       		.byte	0x5
 3282 0e46 03       		.byte	0x3
 3283 0e47 00000000 		.4byte	args
 3284 0e4b 2D       		.uleb128 0x2d
 3285 0e4c 9C030000 		.4byte	.LASF136
 3286 0e50 01       		.byte	0x1
 3287 0e51 20       		.byte	0x20
 3288 0e52 5C0E0000 		.4byte	0xe5c
 3289 0e56 05       		.byte	0x5
 3290 0e57 03       		.byte	0x3
 3291 0e58 00000000 		.4byte	serial_cfg
 3292 0e5c 11       		.uleb128 0x11
 3293 0e5d A9080000 		.4byte	0x8a9
 3294 0e61 1B       		.uleb128 0x1b
 3295 0e62 14060000 		.4byte	0x614
 3296 0e66 710E0000 		.4byte	0xe71
 3297 0e6a 2F       		.uleb128 0x2f
 3298 0e6b 42030000 		.4byte	0x342
 3299 0e6f 08       		.byte	0x8
 3300 0e70 00       		.byte	0x0
 3301 0e71 2D       		.uleb128 0x2d
 3302 0e72 29000000 		.4byte	.LASF137
 3303 0e76 01       		.byte	0x1
 3304 0e77 8B       		.byte	0x8b
 3305 0e78 820E0000 		.4byte	0xe82
 3306 0e7c 05       		.byte	0x5
 3307 0e7d 03       		.byte	0x3
 3308 0e7e 00000000 		.4byte	funcs
 3309 0e82 11       		.uleb128 0x11
 3310 0e83 610E0000 		.4byte	0xe61
 3311 0e87 38       		.uleb128 0x38
 3312 0e88 8F000000 		.4byte	.LASF134
 3313 0e8c 11       		.byte	0x11
 3314 0e8d 9404     		.2byte	0x494
 3315 0e8f 36060000 		.4byte	0x636
 3316 0e93 01       		.byte	0x1
 3317 0e94 01       		.byte	0x1
 3318 0e95 39       		.uleb128 0x39
 3319 0e96 53443100 		.ascii	"SD1\000"
 3320 0e9a 10       		.byte	0x10
 3321 0e9b FB       		.byte	0xfb
 3322 0e9c D1070000 		.4byte	0x7d1
 3323 0ea0 01       		.byte	0x1
 3324 0ea1 01       		.byte	0x1
 3325 0ea2 00       		.byte	0x0
 3326              		.section	.debug_abbrev
 3327 0000 01       		.uleb128 0x1
 3328 0001 11       		.uleb128 0x11
ARM GAS  C:\Users\z80\AppData\Local\Temp\cc8udMHo.s 			page 60


 3329 0002 01       		.byte	0x1
 3330 0003 25       		.uleb128 0x25
 3331 0004 0E       		.uleb128 0xe
 3332 0005 13       		.uleb128 0x13
 3333 0006 0B       		.uleb128 0xb
 3334 0007 03       		.uleb128 0x3
 3335 0008 0E       		.uleb128 0xe
 3336 0009 1B       		.uleb128 0x1b
 3337 000a 0E       		.uleb128 0xe
 3338 000b 11       		.uleb128 0x11
 3339 000c 01       		.uleb128 0x1
 3340 000d 52       		.uleb128 0x52
 3341 000e 01       		.uleb128 0x1
 3342 000f 55       		.uleb128 0x55
 3343 0010 06       		.uleb128 0x6
 3344 0011 10       		.uleb128 0x10
 3345 0012 06       		.uleb128 0x6
 3346 0013 00       		.byte	0x0
 3347 0014 00       		.byte	0x0
 3348 0015 02       		.uleb128 0x2
 3349 0016 24       		.uleb128 0x24
 3350 0017 00       		.byte	0x0
 3351 0018 0B       		.uleb128 0xb
 3352 0019 0B       		.uleb128 0xb
 3353 001a 3E       		.uleb128 0x3e
 3354 001b 0B       		.uleb128 0xb
 3355 001c 03       		.uleb128 0x3
 3356 001d 08       		.uleb128 0x8
 3357 001e 00       		.byte	0x0
 3358 001f 00       		.byte	0x0
 3359 0020 03       		.uleb128 0x3
 3360 0021 16       		.uleb128 0x16
 3361 0022 00       		.byte	0x0
 3362 0023 03       		.uleb128 0x3
 3363 0024 0E       		.uleb128 0xe
 3364 0025 3A       		.uleb128 0x3a
 3365 0026 0B       		.uleb128 0xb
 3366 0027 3B       		.uleb128 0x3b
 3367 0028 0B       		.uleb128 0xb
 3368 0029 49       		.uleb128 0x49
 3369 002a 13       		.uleb128 0x13
 3370 002b 00       		.byte	0x0
 3371 002c 00       		.byte	0x0
 3372 002d 04       		.uleb128 0x4
 3373 002e 24       		.uleb128 0x24
 3374 002f 00       		.byte	0x0
 3375 0030 0B       		.uleb128 0xb
 3376 0031 0B       		.uleb128 0xb
 3377 0032 3E       		.uleb128 0x3e
 3378 0033 0B       		.uleb128 0xb
 3379 0034 03       		.uleb128 0x3
 3380 0035 0E       		.uleb128 0xe
 3381 0036 00       		.byte	0x0
 3382 0037 00       		.byte	0x0
 3383 0038 05       		.uleb128 0x5
 3384 0039 13       		.uleb128 0x13
 3385 003a 01       		.byte	0x1
ARM GAS  C:\Users\z80\AppData\Local\Temp\cc8udMHo.s 			page 61


 3386 003b 03       		.uleb128 0x3
 3387 003c 0E       		.uleb128 0xe
 3388 003d 0B       		.uleb128 0xb
 3389 003e 0B       		.uleb128 0xb
 3390 003f 3A       		.uleb128 0x3a
 3391 0040 0B       		.uleb128 0xb
 3392 0041 3B       		.uleb128 0x3b
 3393 0042 0B       		.uleb128 0xb
 3394 0043 01       		.uleb128 0x1
 3395 0044 13       		.uleb128 0x13
 3396 0045 00       		.byte	0x0
 3397 0046 00       		.byte	0x0
 3398 0047 06       		.uleb128 0x6
 3399 0048 0D       		.uleb128 0xd
 3400 0049 00       		.byte	0x0
 3401 004a 03       		.uleb128 0x3
 3402 004b 0E       		.uleb128 0xe
 3403 004c 3A       		.uleb128 0x3a
 3404 004d 0B       		.uleb128 0xb
 3405 004e 3B       		.uleb128 0x3b
 3406 004f 0B       		.uleb128 0xb
 3407 0050 49       		.uleb128 0x49
 3408 0051 13       		.uleb128 0x13
 3409 0052 38       		.uleb128 0x38
 3410 0053 0A       		.uleb128 0xa
 3411 0054 00       		.byte	0x0
 3412 0055 00       		.byte	0x0
 3413 0056 07       		.uleb128 0x7
 3414 0057 0D       		.uleb128 0xd
 3415 0058 00       		.byte	0x0
 3416 0059 03       		.uleb128 0x3
 3417 005a 08       		.uleb128 0x8
 3418 005b 3A       		.uleb128 0x3a
 3419 005c 0B       		.uleb128 0xb
 3420 005d 3B       		.uleb128 0x3b
 3421 005e 0B       		.uleb128 0xb
 3422 005f 49       		.uleb128 0x49
 3423 0060 13       		.uleb128 0x13
 3424 0061 38       		.uleb128 0x38
 3425 0062 0A       		.uleb128 0xa
 3426 0063 00       		.byte	0x0
 3427 0064 00       		.byte	0x0
 3428 0065 08       		.uleb128 0x8
 3429 0066 13       		.uleb128 0x13
 3430 0067 01       		.byte	0x1
 3431 0068 0B       		.uleb128 0xb
 3432 0069 0B       		.uleb128 0xb
 3433 006a 3A       		.uleb128 0x3a
 3434 006b 0B       		.uleb128 0xb
 3435 006c 3B       		.uleb128 0x3b
 3436 006d 0B       		.uleb128 0xb
 3437 006e 01       		.uleb128 0x1
 3438 006f 13       		.uleb128 0x13
 3439 0070 00       		.byte	0x0
 3440 0071 00       		.byte	0x0
 3441 0072 09       		.uleb128 0x9
 3442 0073 0F       		.uleb128 0xf
ARM GAS  C:\Users\z80\AppData\Local\Temp\cc8udMHo.s 			page 62


 3443 0074 00       		.byte	0x0
 3444 0075 0B       		.uleb128 0xb
 3445 0076 0B       		.uleb128 0xb
 3446 0077 49       		.uleb128 0x49
 3447 0078 13       		.uleb128 0x13
 3448 0079 00       		.byte	0x0
 3449 007a 00       		.byte	0x0
 3450 007b 0A       		.uleb128 0xa
 3451 007c 0F       		.uleb128 0xf
 3452 007d 00       		.byte	0x0
 3453 007e 0B       		.uleb128 0xb
 3454 007f 0B       		.uleb128 0xb
 3455 0080 00       		.byte	0x0
 3456 0081 00       		.byte	0x0
 3457 0082 0B       		.uleb128 0xb
 3458 0083 0D       		.uleb128 0xd
 3459 0084 00       		.byte	0x0
 3460 0085 03       		.uleb128 0x3
 3461 0086 08       		.uleb128 0x8
 3462 0087 3A       		.uleb128 0x3a
 3463 0088 0B       		.uleb128 0xb
 3464 0089 3B       		.uleb128 0x3b
 3465 008a 05       		.uleb128 0x5
 3466 008b 49       		.uleb128 0x49
 3467 008c 13       		.uleb128 0x13
 3468 008d 38       		.uleb128 0x38
 3469 008e 0A       		.uleb128 0xa
 3470 008f 00       		.byte	0x0
 3471 0090 00       		.byte	0x0
 3472 0091 0C       		.uleb128 0xc
 3473 0092 13       		.uleb128 0x13
 3474 0093 01       		.byte	0x1
 3475 0094 03       		.uleb128 0x3
 3476 0095 0E       		.uleb128 0xe
 3477 0096 0B       		.uleb128 0xb
 3478 0097 0B       		.uleb128 0xb
 3479 0098 3A       		.uleb128 0x3a
 3480 0099 0B       		.uleb128 0xb
 3481 009a 3B       		.uleb128 0x3b
 3482 009b 05       		.uleb128 0x5
 3483 009c 01       		.uleb128 0x1
 3484 009d 13       		.uleb128 0x13
 3485 009e 00       		.byte	0x0
 3486 009f 00       		.byte	0x0
 3487 00a0 0D       		.uleb128 0xd
 3488 00a1 35       		.uleb128 0x35
 3489 00a2 00       		.byte	0x0
 3490 00a3 49       		.uleb128 0x49
 3491 00a4 13       		.uleb128 0x13
 3492 00a5 00       		.byte	0x0
 3493 00a6 00       		.byte	0x0
 3494 00a7 0E       		.uleb128 0xe
 3495 00a8 24       		.uleb128 0x24
 3496 00a9 00       		.byte	0x0
 3497 00aa 0B       		.uleb128 0xb
 3498 00ab 0B       		.uleb128 0xb
 3499 00ac 3E       		.uleb128 0x3e
ARM GAS  C:\Users\z80\AppData\Local\Temp\cc8udMHo.s 			page 63


 3500 00ad 0B       		.uleb128 0xb
 3501 00ae 00       		.byte	0x0
 3502 00af 00       		.byte	0x0
 3503 00b0 0F       		.uleb128 0xf
 3504 00b1 17       		.uleb128 0x17
 3505 00b2 01       		.byte	0x1
 3506 00b3 0B       		.uleb128 0xb
 3507 00b4 0B       		.uleb128 0xb
 3508 00b5 3A       		.uleb128 0x3a
 3509 00b6 0B       		.uleb128 0xb
 3510 00b7 3B       		.uleb128 0x3b
 3511 00b8 0B       		.uleb128 0xb
 3512 00b9 01       		.uleb128 0x1
 3513 00ba 13       		.uleb128 0x13
 3514 00bb 00       		.byte	0x0
 3515 00bc 00       		.byte	0x0
 3516 00bd 10       		.uleb128 0x10
 3517 00be 0D       		.uleb128 0xd
 3518 00bf 00       		.byte	0x0
 3519 00c0 03       		.uleb128 0x3
 3520 00c1 0E       		.uleb128 0xe
 3521 00c2 3A       		.uleb128 0x3a
 3522 00c3 0B       		.uleb128 0xb
 3523 00c4 3B       		.uleb128 0x3b
 3524 00c5 0B       		.uleb128 0xb
 3525 00c6 49       		.uleb128 0x49
 3526 00c7 13       		.uleb128 0x13
 3527 00c8 00       		.byte	0x0
 3528 00c9 00       		.byte	0x0
 3529 00ca 11       		.uleb128 0x11
 3530 00cb 26       		.uleb128 0x26
 3531 00cc 00       		.byte	0x0
 3532 00cd 49       		.uleb128 0x49
 3533 00ce 13       		.uleb128 0x13
 3534 00cf 00       		.byte	0x0
 3535 00d0 00       		.byte	0x0
 3536 00d1 12       		.uleb128 0x12
 3537 00d2 15       		.uleb128 0x15
 3538 00d3 01       		.byte	0x1
 3539 00d4 27       		.uleb128 0x27
 3540 00d5 0C       		.uleb128 0xc
 3541 00d6 01       		.uleb128 0x1
 3542 00d7 13       		.uleb128 0x13
 3543 00d8 00       		.byte	0x0
 3544 00d9 00       		.byte	0x0
 3545 00da 13       		.uleb128 0x13
 3546 00db 05       		.uleb128 0x5
 3547 00dc 00       		.byte	0x0
 3548 00dd 49       		.uleb128 0x49
 3549 00de 13       		.uleb128 0x13
 3550 00df 00       		.byte	0x0
 3551 00e0 00       		.byte	0x0
 3552 00e1 14       		.uleb128 0x14
 3553 00e2 15       		.uleb128 0x15
 3554 00e3 01       		.byte	0x1
 3555 00e4 27       		.uleb128 0x27
 3556 00e5 0C       		.uleb128 0xc
ARM GAS  C:\Users\z80\AppData\Local\Temp\cc8udMHo.s 			page 64


 3557 00e6 49       		.uleb128 0x49
 3558 00e7 13       		.uleb128 0x13
 3559 00e8 01       		.uleb128 0x1
 3560 00e9 13       		.uleb128 0x13
 3561 00ea 00       		.byte	0x0
 3562 00eb 00       		.byte	0x0
 3563 00ec 15       		.uleb128 0x15
 3564 00ed 16       		.uleb128 0x16
 3565 00ee 00       		.byte	0x0
 3566 00ef 03       		.uleb128 0x3
 3567 00f0 0E       		.uleb128 0xe
 3568 00f1 3A       		.uleb128 0x3a
 3569 00f2 0B       		.uleb128 0xb
 3570 00f3 3B       		.uleb128 0x3b
 3571 00f4 05       		.uleb128 0x5
 3572 00f5 49       		.uleb128 0x49
 3573 00f6 13       		.uleb128 0x13
 3574 00f7 00       		.byte	0x0
 3575 00f8 00       		.byte	0x0
 3576 00f9 16       		.uleb128 0x16
 3577 00fa 13       		.uleb128 0x13
 3578 00fb 01       		.byte	0x1
 3579 00fc 0B       		.uleb128 0xb
 3580 00fd 0B       		.uleb128 0xb
 3581 00fe 3A       		.uleb128 0x3a
 3582 00ff 0B       		.uleb128 0xb
 3583 0100 3B       		.uleb128 0x3b
 3584 0101 05       		.uleb128 0x5
 3585 0102 01       		.uleb128 0x1
 3586 0103 13       		.uleb128 0x13
 3587 0104 00       		.byte	0x0
 3588 0105 00       		.byte	0x0
 3589 0106 17       		.uleb128 0x17
 3590 0107 0D       		.uleb128 0xd
 3591 0108 00       		.byte	0x0
 3592 0109 03       		.uleb128 0x3
 3593 010a 0E       		.uleb128 0xe
 3594 010b 3A       		.uleb128 0x3a
 3595 010c 0B       		.uleb128 0xb
 3596 010d 3B       		.uleb128 0x3b
 3597 010e 05       		.uleb128 0x5
 3598 010f 49       		.uleb128 0x49
 3599 0110 13       		.uleb128 0x13
 3600 0111 38       		.uleb128 0x38
 3601 0112 0A       		.uleb128 0xa
 3602 0113 00       		.byte	0x0
 3603 0114 00       		.byte	0x0
 3604 0115 18       		.uleb128 0x18
 3605 0116 04       		.uleb128 0x4
 3606 0117 01       		.byte	0x1
 3607 0118 0B       		.uleb128 0xb
 3608 0119 0B       		.uleb128 0xb
 3609 011a 3A       		.uleb128 0x3a
 3610 011b 0B       		.uleb128 0xb
 3611 011c 3B       		.uleb128 0x3b
 3612 011d 0B       		.uleb128 0xb
 3613 011e 01       		.uleb128 0x1
ARM GAS  C:\Users\z80\AppData\Local\Temp\cc8udMHo.s 			page 65


 3614 011f 13       		.uleb128 0x13
 3615 0120 00       		.byte	0x0
 3616 0121 00       		.byte	0x0
 3617 0122 19       		.uleb128 0x19
 3618 0123 28       		.uleb128 0x28
 3619 0124 00       		.byte	0x0
 3620 0125 03       		.uleb128 0x3
 3621 0126 0E       		.uleb128 0xe
 3622 0127 1C       		.uleb128 0x1c
 3623 0128 0D       		.uleb128 0xd
 3624 0129 00       		.byte	0x0
 3625 012a 00       		.byte	0x0
 3626 012b 1A       		.uleb128 0x1a
 3627 012c 13       		.uleb128 0x13
 3628 012d 01       		.byte	0x1
 3629 012e 03       		.uleb128 0x3
 3630 012f 0E       		.uleb128 0xe
 3631 0130 0B       		.uleb128 0xb
 3632 0131 05       		.uleb128 0x5
 3633 0132 3A       		.uleb128 0x3a
 3634 0133 0B       		.uleb128 0xb
 3635 0134 3B       		.uleb128 0x3b
 3636 0135 0B       		.uleb128 0xb
 3637 0136 01       		.uleb128 0x1
 3638 0137 13       		.uleb128 0x13
 3639 0138 00       		.byte	0x0
 3640 0139 00       		.byte	0x0
 3641 013a 1B       		.uleb128 0x1b
 3642 013b 01       		.uleb128 0x1
 3643 013c 01       		.byte	0x1
 3644 013d 49       		.uleb128 0x49
 3645 013e 13       		.uleb128 0x13
 3646 013f 01       		.uleb128 0x1
 3647 0140 13       		.uleb128 0x13
 3648 0141 00       		.byte	0x0
 3649 0142 00       		.byte	0x0
 3650 0143 1C       		.uleb128 0x1c
 3651 0144 21       		.uleb128 0x21
 3652 0145 00       		.byte	0x0
 3653 0146 49       		.uleb128 0x49
 3654 0147 13       		.uleb128 0x13
 3655 0148 2F       		.uleb128 0x2f
 3656 0149 05       		.uleb128 0x5
 3657 014a 00       		.byte	0x0
 3658 014b 00       		.byte	0x0
 3659 014c 1D       		.uleb128 0x1d
 3660 014d 2E       		.uleb128 0x2e
 3661 014e 01       		.byte	0x1
 3662 014f 03       		.uleb128 0x3
 3663 0150 0E       		.uleb128 0xe
 3664 0151 3A       		.uleb128 0x3a
 3665 0152 0B       		.uleb128 0xb
 3666 0153 3B       		.uleb128 0x3b
 3667 0154 0B       		.uleb128 0xb
 3668 0155 27       		.uleb128 0x27
 3669 0156 0C       		.uleb128 0xc
 3670 0157 20       		.uleb128 0x20
ARM GAS  C:\Users\z80\AppData\Local\Temp\cc8udMHo.s 			page 66


 3671 0158 0B       		.uleb128 0xb
 3672 0159 01       		.uleb128 0x1
 3673 015a 13       		.uleb128 0x13
 3674 015b 00       		.byte	0x0
 3675 015c 00       		.byte	0x0
 3676 015d 1E       		.uleb128 0x1e
 3677 015e 34       		.uleb128 0x34
 3678 015f 00       		.byte	0x0
 3679 0160 03       		.uleb128 0x3
 3680 0161 0E       		.uleb128 0xe
 3681 0162 3A       		.uleb128 0x3a
 3682 0163 0B       		.uleb128 0xb
 3683 0164 3B       		.uleb128 0x3b
 3684 0165 0B       		.uleb128 0xb
 3685 0166 49       		.uleb128 0x49
 3686 0167 13       		.uleb128 0x13
 3687 0168 00       		.byte	0x0
 3688 0169 00       		.byte	0x0
 3689 016a 1F       		.uleb128 0x1f
 3690 016b 05       		.uleb128 0x5
 3691 016c 00       		.byte	0x0
 3692 016d 03       		.uleb128 0x3
 3693 016e 08       		.uleb128 0x8
 3694 016f 3A       		.uleb128 0x3a
 3695 0170 0B       		.uleb128 0xb
 3696 0171 3B       		.uleb128 0x3b
 3697 0172 0B       		.uleb128 0xb
 3698 0173 49       		.uleb128 0x49
 3699 0174 13       		.uleb128 0x13
 3700 0175 00       		.byte	0x0
 3701 0176 00       		.byte	0x0
 3702 0177 20       		.uleb128 0x20
 3703 0178 34       		.uleb128 0x34
 3704 0179 00       		.byte	0x0
 3705 017a 03       		.uleb128 0x3
 3706 017b 08       		.uleb128 0x8
 3707 017c 3A       		.uleb128 0x3a
 3708 017d 0B       		.uleb128 0xb
 3709 017e 3B       		.uleb128 0x3b
 3710 017f 0B       		.uleb128 0xb
 3711 0180 49       		.uleb128 0x49
 3712 0181 13       		.uleb128 0x13
 3713 0182 00       		.byte	0x0
 3714 0183 00       		.byte	0x0
 3715 0184 21       		.uleb128 0x21
 3716 0185 2E       		.uleb128 0x2e
 3717 0186 01       		.byte	0x1
 3718 0187 03       		.uleb128 0x3
 3719 0188 0E       		.uleb128 0xe
 3720 0189 3A       		.uleb128 0x3a
 3721 018a 0B       		.uleb128 0xb
 3722 018b 3B       		.uleb128 0x3b
 3723 018c 05       		.uleb128 0x5
 3724 018d 27       		.uleb128 0x27
 3725 018e 0C       		.uleb128 0xc
 3726 018f 11       		.uleb128 0x11
 3727 0190 01       		.uleb128 0x1
ARM GAS  C:\Users\z80\AppData\Local\Temp\cc8udMHo.s 			page 67


 3728 0191 12       		.uleb128 0x12
 3729 0192 01       		.uleb128 0x1
 3730 0193 40       		.uleb128 0x40
 3731 0194 06       		.uleb128 0x6
 3732 0195 01       		.uleb128 0x1
 3733 0196 13       		.uleb128 0x13
 3734 0197 00       		.byte	0x0
 3735 0198 00       		.byte	0x0
 3736 0199 22       		.uleb128 0x22
 3737 019a 05       		.uleb128 0x5
 3738 019b 00       		.byte	0x0
 3739 019c 03       		.uleb128 0x3
 3740 019d 08       		.uleb128 0x8
 3741 019e 3A       		.uleb128 0x3a
 3742 019f 0B       		.uleb128 0xb
 3743 01a0 3B       		.uleb128 0x3b
 3744 01a1 05       		.uleb128 0x5
 3745 01a2 49       		.uleb128 0x49
 3746 01a3 13       		.uleb128 0x13
 3747 01a4 02       		.uleb128 0x2
 3748 01a5 06       		.uleb128 0x6
 3749 01a6 00       		.byte	0x0
 3750 01a7 00       		.byte	0x0
 3751 01a8 23       		.uleb128 0x23
 3752 01a9 2E       		.uleb128 0x2e
 3753 01aa 00       		.byte	0x0
 3754 01ab 03       		.uleb128 0x3
 3755 01ac 0E       		.uleb128 0xe
 3756 01ad 3A       		.uleb128 0x3a
 3757 01ae 0B       		.uleb128 0xb
 3758 01af 3B       		.uleb128 0x3b
 3759 01b0 05       		.uleb128 0x5
 3760 01b1 27       		.uleb128 0x27
 3761 01b2 0C       		.uleb128 0xc
 3762 01b3 11       		.uleb128 0x11
 3763 01b4 01       		.uleb128 0x1
 3764 01b5 12       		.uleb128 0x12
 3765 01b6 01       		.uleb128 0x1
 3766 01b7 40       		.uleb128 0x40
 3767 01b8 06       		.uleb128 0x6
 3768 01b9 00       		.byte	0x0
 3769 01ba 00       		.byte	0x0
 3770 01bb 24       		.uleb128 0x24
 3771 01bc 2E       		.uleb128 0x2e
 3772 01bd 01       		.byte	0x1
 3773 01be 03       		.uleb128 0x3
 3774 01bf 0E       		.uleb128 0xe
 3775 01c0 3A       		.uleb128 0x3a
 3776 01c1 0B       		.uleb128 0xb
 3777 01c2 3B       		.uleb128 0x3b
 3778 01c3 0B       		.uleb128 0xb
 3779 01c4 27       		.uleb128 0x27
 3780 01c5 0C       		.uleb128 0xc
 3781 01c6 11       		.uleb128 0x11
 3782 01c7 01       		.uleb128 0x1
 3783 01c8 12       		.uleb128 0x12
 3784 01c9 01       		.uleb128 0x1
ARM GAS  C:\Users\z80\AppData\Local\Temp\cc8udMHo.s 			page 68


 3785 01ca 40       		.uleb128 0x40
 3786 01cb 06       		.uleb128 0x6
 3787 01cc 01       		.uleb128 0x1
 3788 01cd 13       		.uleb128 0x13
 3789 01ce 00       		.byte	0x0
 3790 01cf 00       		.byte	0x0
 3791 01d0 25       		.uleb128 0x25
 3792 01d1 05       		.uleb128 0x5
 3793 01d2 00       		.byte	0x0
 3794 01d3 03       		.uleb128 0x3
 3795 01d4 08       		.uleb128 0x8
 3796 01d5 3A       		.uleb128 0x3a
 3797 01d6 0B       		.uleb128 0xb
 3798 01d7 3B       		.uleb128 0x3b
 3799 01d8 0B       		.uleb128 0xb
 3800 01d9 49       		.uleb128 0x49
 3801 01da 13       		.uleb128 0x13
 3802 01db 02       		.uleb128 0x2
 3803 01dc 06       		.uleb128 0x6
 3804 01dd 00       		.byte	0x0
 3805 01de 00       		.byte	0x0
 3806 01df 26       		.uleb128 0x26
 3807 01e0 34       		.uleb128 0x34
 3808 01e1 00       		.byte	0x0
 3809 01e2 03       		.uleb128 0x3
 3810 01e3 08       		.uleb128 0x8
 3811 01e4 3A       		.uleb128 0x3a
 3812 01e5 0B       		.uleb128 0xb
 3813 01e6 3B       		.uleb128 0x3b
 3814 01e7 0B       		.uleb128 0xb
 3815 01e8 49       		.uleb128 0x49
 3816 01e9 13       		.uleb128 0x13
 3817 01ea 02       		.uleb128 0x2
 3818 01eb 06       		.uleb128 0x6
 3819 01ec 00       		.byte	0x0
 3820 01ed 00       		.byte	0x0
 3821 01ee 27       		.uleb128 0x27
 3822 01ef 34       		.uleb128 0x34
 3823 01f0 00       		.byte	0x0
 3824 01f1 03       		.uleb128 0x3
 3825 01f2 0E       		.uleb128 0xe
 3826 01f3 3A       		.uleb128 0x3a
 3827 01f4 0B       		.uleb128 0xb
 3828 01f5 3B       		.uleb128 0x3b
 3829 01f6 0B       		.uleb128 0xb
 3830 01f7 49       		.uleb128 0x49
 3831 01f8 13       		.uleb128 0x13
 3832 01f9 02       		.uleb128 0x2
 3833 01fa 06       		.uleb128 0x6
 3834 01fb 00       		.byte	0x0
 3835 01fc 00       		.byte	0x0
 3836 01fd 28       		.uleb128 0x28
 3837 01fe 34       		.uleb128 0x34
 3838 01ff 00       		.byte	0x0
 3839 0200 03       		.uleb128 0x3
 3840 0201 08       		.uleb128 0x8
 3841 0202 3A       		.uleb128 0x3a
ARM GAS  C:\Users\z80\AppData\Local\Temp\cc8udMHo.s 			page 69


 3842 0203 0B       		.uleb128 0xb
 3843 0204 3B       		.uleb128 0x3b
 3844 0205 0B       		.uleb128 0xb
 3845 0206 49       		.uleb128 0x49
 3846 0207 13       		.uleb128 0x13
 3847 0208 02       		.uleb128 0x2
 3848 0209 0A       		.uleb128 0xa
 3849 020a 00       		.byte	0x0
 3850 020b 00       		.byte	0x0
 3851 020c 29       		.uleb128 0x29
 3852 020d 0B       		.uleb128 0xb
 3853 020e 01       		.byte	0x1
 3854 020f 55       		.uleb128 0x55
 3855 0210 06       		.uleb128 0x6
 3856 0211 01       		.uleb128 0x1
 3857 0212 13       		.uleb128 0x13
 3858 0213 00       		.byte	0x0
 3859 0214 00       		.byte	0x0
 3860 0215 2A       		.uleb128 0x2a
 3861 0216 0B       		.uleb128 0xb
 3862 0217 01       		.byte	0x1
 3863 0218 11       		.uleb128 0x11
 3864 0219 01       		.uleb128 0x1
 3865 021a 12       		.uleb128 0x12
 3866 021b 01       		.uleb128 0x1
 3867 021c 01       		.uleb128 0x1
 3868 021d 13       		.uleb128 0x13
 3869 021e 00       		.byte	0x0
 3870 021f 00       		.byte	0x0
 3871 0220 2B       		.uleb128 0x2b
 3872 0221 0B       		.uleb128 0xb
 3873 0222 01       		.byte	0x1
 3874 0223 55       		.uleb128 0x55
 3875 0224 06       		.uleb128 0x6
 3876 0225 00       		.byte	0x0
 3877 0226 00       		.byte	0x0
 3878 0227 2C       		.uleb128 0x2c
 3879 0228 05       		.uleb128 0x5
 3880 0229 00       		.byte	0x0
 3881 022a 03       		.uleb128 0x3
 3882 022b 0E       		.uleb128 0xe
 3883 022c 3A       		.uleb128 0x3a
 3884 022d 0B       		.uleb128 0xb
 3885 022e 3B       		.uleb128 0x3b
 3886 022f 0B       		.uleb128 0xb
 3887 0230 49       		.uleb128 0x49
 3888 0231 13       		.uleb128 0x13
 3889 0232 02       		.uleb128 0x2
 3890 0233 06       		.uleb128 0x6
 3891 0234 00       		.byte	0x0
 3892 0235 00       		.byte	0x0
 3893 0236 2D       		.uleb128 0x2d
 3894 0237 34       		.uleb128 0x34
 3895 0238 00       		.byte	0x0
 3896 0239 03       		.uleb128 0x3
 3897 023a 0E       		.uleb128 0xe
 3898 023b 3A       		.uleb128 0x3a
ARM GAS  C:\Users\z80\AppData\Local\Temp\cc8udMHo.s 			page 70


 3899 023c 0B       		.uleb128 0xb
 3900 023d 3B       		.uleb128 0x3b
 3901 023e 0B       		.uleb128 0xb
 3902 023f 49       		.uleb128 0x49
 3903 0240 13       		.uleb128 0x13
 3904 0241 02       		.uleb128 0x2
 3905 0242 0A       		.uleb128 0xa
 3906 0243 00       		.byte	0x0
 3907 0244 00       		.byte	0x0
 3908 0245 2E       		.uleb128 0x2e
 3909 0246 34       		.uleb128 0x34
 3910 0247 00       		.byte	0x0
 3911 0248 03       		.uleb128 0x3
 3912 0249 08       		.uleb128 0x8
 3913 024a 3A       		.uleb128 0x3a
 3914 024b 0B       		.uleb128 0xb
 3915 024c 3B       		.uleb128 0x3b
 3916 024d 0B       		.uleb128 0xb
 3917 024e 49       		.uleb128 0x49
 3918 024f 13       		.uleb128 0x13
 3919 0250 1C       		.uleb128 0x1c
 3920 0251 0B       		.uleb128 0xb
 3921 0252 00       		.byte	0x0
 3922 0253 00       		.byte	0x0
 3923 0254 2F       		.uleb128 0x2f
 3924 0255 21       		.uleb128 0x21
 3925 0256 00       		.byte	0x0
 3926 0257 49       		.uleb128 0x49
 3927 0258 13       		.uleb128 0x13
 3928 0259 2F       		.uleb128 0x2f
 3929 025a 0B       		.uleb128 0xb
 3930 025b 00       		.byte	0x0
 3931 025c 00       		.byte	0x0
 3932 025d 30       		.uleb128 0x30
 3933 025e 0B       		.uleb128 0xb
 3934 025f 01       		.byte	0x1
 3935 0260 11       		.uleb128 0x11
 3936 0261 01       		.uleb128 0x1
 3937 0262 12       		.uleb128 0x12
 3938 0263 01       		.uleb128 0x1
 3939 0264 00       		.byte	0x0
 3940 0265 00       		.byte	0x0
 3941 0266 31       		.uleb128 0x31
 3942 0267 2E       		.uleb128 0x2e
 3943 0268 00       		.byte	0x0
 3944 0269 3F       		.uleb128 0x3f
 3945 026a 0C       		.uleb128 0xc
 3946 026b 03       		.uleb128 0x3
 3947 026c 0E       		.uleb128 0xe
 3948 026d 3A       		.uleb128 0x3a
 3949 026e 0B       		.uleb128 0xb
 3950 026f 3B       		.uleb128 0x3b
 3951 0270 0B       		.uleb128 0xb
 3952 0271 27       		.uleb128 0x27
 3953 0272 0C       		.uleb128 0xc
 3954 0273 11       		.uleb128 0x11
 3955 0274 01       		.uleb128 0x1
ARM GAS  C:\Users\z80\AppData\Local\Temp\cc8udMHo.s 			page 71


 3956 0275 12       		.uleb128 0x12
 3957 0276 01       		.uleb128 0x1
 3958 0277 40       		.uleb128 0x40
 3959 0278 06       		.uleb128 0x6
 3960 0279 00       		.byte	0x0
 3961 027a 00       		.byte	0x0
 3962 027b 32       		.uleb128 0x32
 3963 027c 2E       		.uleb128 0x2e
 3964 027d 01       		.byte	0x1
 3965 027e 3F       		.uleb128 0x3f
 3966 027f 0C       		.uleb128 0xc
 3967 0280 03       		.uleb128 0x3
 3968 0281 0E       		.uleb128 0xe
 3969 0282 3A       		.uleb128 0x3a
 3970 0283 0B       		.uleb128 0xb
 3971 0284 3B       		.uleb128 0x3b
 3972 0285 0B       		.uleb128 0xb
 3973 0286 27       		.uleb128 0x27
 3974 0287 0C       		.uleb128 0xc
 3975 0288 11       		.uleb128 0x11
 3976 0289 01       		.uleb128 0x1
 3977 028a 12       		.uleb128 0x12
 3978 028b 01       		.uleb128 0x1
 3979 028c 40       		.uleb128 0x40
 3980 028d 06       		.uleb128 0x6
 3981 028e 01       		.uleb128 0x1
 3982 028f 13       		.uleb128 0x13
 3983 0290 00       		.byte	0x0
 3984 0291 00       		.byte	0x0
 3985 0292 33       		.uleb128 0x33
 3986 0293 1D       		.uleb128 0x1d
 3987 0294 01       		.byte	0x1
 3988 0295 31       		.uleb128 0x31
 3989 0296 13       		.uleb128 0x13
 3990 0297 52       		.uleb128 0x52
 3991 0298 01       		.uleb128 0x1
 3992 0299 55       		.uleb128 0x55
 3993 029a 06       		.uleb128 0x6
 3994 029b 58       		.uleb128 0x58
 3995 029c 0B       		.uleb128 0xb
 3996 029d 59       		.uleb128 0x59
 3997 029e 0B       		.uleb128 0xb
 3998 029f 00       		.byte	0x0
 3999 02a0 00       		.byte	0x0
 4000 02a1 34       		.uleb128 0x34
 4001 02a2 05       		.uleb128 0x5
 4002 02a3 00       		.byte	0x0
 4003 02a4 31       		.uleb128 0x31
 4004 02a5 13       		.uleb128 0x13
 4005 02a6 02       		.uleb128 0x2
 4006 02a7 06       		.uleb128 0x6
 4007 02a8 00       		.byte	0x0
 4008 02a9 00       		.byte	0x0
 4009 02aa 35       		.uleb128 0x35
 4010 02ab 34       		.uleb128 0x34
 4011 02ac 00       		.byte	0x0
 4012 02ad 31       		.uleb128 0x31
ARM GAS  C:\Users\z80\AppData\Local\Temp\cc8udMHo.s 			page 72


 4013 02ae 13       		.uleb128 0x13
 4014 02af 02       		.uleb128 0x2
 4015 02b0 06       		.uleb128 0x6
 4016 02b1 00       		.byte	0x0
 4017 02b2 00       		.byte	0x0
 4018 02b3 36       		.uleb128 0x36
 4019 02b4 34       		.uleb128 0x34
 4020 02b5 00       		.byte	0x0
 4021 02b6 31       		.uleb128 0x31
 4022 02b7 13       		.uleb128 0x13
 4023 02b8 1C       		.uleb128 0x1c
 4024 02b9 0B       		.uleb128 0xb
 4025 02ba 00       		.byte	0x0
 4026 02bb 00       		.byte	0x0
 4027 02bc 37       		.uleb128 0x37
 4028 02bd 2E       		.uleb128 0x2e
 4029 02be 00       		.byte	0x0
 4030 02bf 3F       		.uleb128 0x3f
 4031 02c0 0C       		.uleb128 0xc
 4032 02c1 03       		.uleb128 0x3
 4033 02c2 0E       		.uleb128 0xe
 4034 02c3 3A       		.uleb128 0x3a
 4035 02c4 0B       		.uleb128 0xb
 4036 02c5 3B       		.uleb128 0x3b
 4037 02c6 0B       		.uleb128 0xb
 4038 02c7 27       		.uleb128 0x27
 4039 02c8 0C       		.uleb128 0xc
 4040 02c9 49       		.uleb128 0x49
 4041 02ca 13       		.uleb128 0x13
 4042 02cb 11       		.uleb128 0x11
 4043 02cc 01       		.uleb128 0x1
 4044 02cd 12       		.uleb128 0x12
 4045 02ce 01       		.uleb128 0x1
 4046 02cf 40       		.uleb128 0x40
 4047 02d0 0A       		.uleb128 0xa
 4048 02d1 00       		.byte	0x0
 4049 02d2 00       		.byte	0x0
 4050 02d3 38       		.uleb128 0x38
 4051 02d4 34       		.uleb128 0x34
 4052 02d5 00       		.byte	0x0
 4053 02d6 03       		.uleb128 0x3
 4054 02d7 0E       		.uleb128 0xe
 4055 02d8 3A       		.uleb128 0x3a
 4056 02d9 0B       		.uleb128 0xb
 4057 02da 3B       		.uleb128 0x3b
 4058 02db 05       		.uleb128 0x5
 4059 02dc 49       		.uleb128 0x49
 4060 02dd 13       		.uleb128 0x13
 4061 02de 3F       		.uleb128 0x3f
 4062 02df 0C       		.uleb128 0xc
 4063 02e0 3C       		.uleb128 0x3c
 4064 02e1 0C       		.uleb128 0xc
 4065 02e2 00       		.byte	0x0
 4066 02e3 00       		.byte	0x0
 4067 02e4 39       		.uleb128 0x39
 4068 02e5 34       		.uleb128 0x34
 4069 02e6 00       		.byte	0x0
ARM GAS  C:\Users\z80\AppData\Local\Temp\cc8udMHo.s 			page 73


 4070 02e7 03       		.uleb128 0x3
 4071 02e8 08       		.uleb128 0x8
 4072 02e9 3A       		.uleb128 0x3a
 4073 02ea 0B       		.uleb128 0xb
 4074 02eb 3B       		.uleb128 0x3b
 4075 02ec 0B       		.uleb128 0xb
 4076 02ed 49       		.uleb128 0x49
 4077 02ee 13       		.uleb128 0x13
 4078 02ef 3F       		.uleb128 0x3f
 4079 02f0 0C       		.uleb128 0xc
 4080 02f1 3C       		.uleb128 0x3c
 4081 02f2 0C       		.uleb128 0xc
 4082 02f3 00       		.byte	0x0
 4083 02f4 00       		.byte	0x0
 4084 02f5 00       		.byte	0x0
 4085              		.section	.debug_pubnames,"",%progbits
 4086 0000 3A000000 		.4byte	0x3a
 4087 0004 0200     		.2byte	0x2
 4088 0006 00000000 		.4byte	.Ldebug_info0
 4089 000a A30E0000 		.4byte	0xea3
 4090 000e FC0C0000 		.4byte	0xcfc
 4091 0012 696E6974 		.ascii	"initCpuIo\000"
 4091      43707549 
 4091      6F00
 4092 001c 110D0000 		.4byte	0xd11
 4093 0020 70726F63 		.ascii	"processCpuIo\000"
 4093      65737343 
 4093      7075496F 
 4093      00
 4094 002d E60D0000 		.4byte	0xde6
 4095 0031 66756E63 		.ascii	"funcArgs\000"
 4095      41726773 
 4095      00
 4096 003a 00000000 		.4byte	0x0
 4097              		.section	.debug_pubtypes,"",%progbits
 4098 0000 74020000 		.4byte	0x274
 4099 0004 0200     		.2byte	0x2
 4100 0006 00000000 		.4byte	.Ldebug_info0
 4101 000a A30E0000 		.4byte	0xea3
 4102 000e 30000000 		.4byte	0x30
 4103 0012 73697A65 		.ascii	"size_t\000"
 4103      5F7400
 4104 0019 49000000 		.4byte	0x49
 4105 001d 75696E74 		.ascii	"uint8_t\000"
 4105      385F7400 
 4106 0025 62000000 		.4byte	0x62
 4107 0029 75696E74 		.ascii	"uint16_t\000"
 4107      31365F74 
 4107      00
 4108 0032 74000000 		.4byte	0x74
 4109 0036 696E7433 		.ascii	"int32_t\000"
 4109      325F7400 
 4110 003e 86000000 		.4byte	0x86
 4111 0042 75696E74 		.ascii	"uint32_t\000"
 4111      33325F74 
 4111      00
 4112 004b 9F000000 		.4byte	0x9f
ARM GAS  C:\Users\z80\AppData\Local\Temp\cc8udMHo.s 			page 74


 4113 004f 75696E74 		.ascii	"uint64_t\000"
 4113      36345F74 
 4113      00
 4114 0058 B1000000 		.4byte	0xb1
 4115 005c 75696E74 		.ascii	"uint_fast16_t\000"
 4115      5F666173 
 4115      7431365F 
 4115      7400
 4116 006a BC000000 		.4byte	0xbc
 4117 006e 626F6F6C 		.ascii	"bool_t\000"
 4117      5F7400
 4118 0075 C7000000 		.4byte	0xc7
 4119 0079 746D6F64 		.ascii	"tmode_t\000"
 4119      655F7400 
 4120 0081 D2000000 		.4byte	0xd2
 4121 0085 74737461 		.ascii	"tstate_t\000"
 4121      74655F74 
 4121      00
 4122 008e DD000000 		.4byte	0xdd
 4123 0092 74707269 		.ascii	"tprio_t\000"
 4123      6F5F7400 
 4124 009a E8000000 		.4byte	0xe8
 4125 009e 6D73675F 		.ascii	"msg_t\000"
 4125      7400
 4126 00a4 F3000000 		.4byte	0xf3
 4127 00a8 6576656E 		.ascii	"eventmask_t\000"
 4127      746D6173 
 4127      6B5F7400 
 4128 00b4 FE000000 		.4byte	0xfe
 4129 00b8 73797374 		.ascii	"systime_t\000"
 4129      696D655F 
 4129      7400
 4130 00c2 09010000 		.4byte	0x109
 4131 00c6 54687265 		.ascii	"Thread\000"
 4131      616400
 4132 00cd 48020000 		.4byte	0x248
 4133 00d1 54687265 		.ascii	"ThreadsQueue\000"
 4133      61647351 
 4133      75657565 
 4133      00
 4134 00de 6A020000 		.4byte	0x26a
 4135 00e2 54687265 		.ascii	"ThreadsList\000"
 4135      6164734C 
 4135      69737400 
 4136 00ee 75020000 		.4byte	0x275
 4137 00f2 72656761 		.ascii	"regarm_t\000"
 4137      726D5F74 
 4137      00
 4138 00fb 82020000 		.4byte	0x282
 4139 00ff 73746B61 		.ascii	"stkalign_t\000"
 4139      6C69676E 
 4139      5F7400
 4140 010a 8D020000 		.4byte	0x28d
 4141 010e 696E7463 		.ascii	"intctx\000"
 4141      747800
 4142 0115 1A030000 		.4byte	0x31a
 4143 0119 636F6E74 		.ascii	"context\000"
ARM GAS  C:\Users\z80\AppData\Local\Temp\cc8udMHo.s 			page 75


 4143      65787400 
 4144 0121 4A030000 		.4byte	0x34a
 4145 0125 4D757465 		.ascii	"Mutex\000"
 4145      7800
 4146 012b 87030000 		.4byte	0x387
 4147 012f 4D757465 		.ascii	"Mutex\000"
 4147      7800
 4148 0135 92030000 		.4byte	0x392
 4149 0139 4576656E 		.ascii	"EventListener\000"
 4149      744C6973 
 4149      74656E65 
 4149      7200
 4150 0147 9D030000 		.4byte	0x39d
 4151 014b 4576656E 		.ascii	"EventListener\000"
 4151      744C6973 
 4151      74656E65 
 4151      7200
 4152 0159 DA030000 		.4byte	0x3da
 4153 015d 4576656E 		.ascii	"EventSource\000"
 4153      74536F75 
 4153      72636500 
 4154 0169 F5030000 		.4byte	0x3f5
 4155 016d 4576656E 		.ascii	"EventSource\000"
 4155      74536F75 
 4155      72636500 
 4156 0179 14010000 		.4byte	0x114
 4157 017d 54687265 		.ascii	"Thread\000"
 4157      616400
 4158 0184 53040000 		.4byte	0x453
 4159 0188 47656E65 		.ascii	"GenericQueue\000"
 4159      72696351 
 4159      75657565 
 4159      00
 4160 0195 CD040000 		.4byte	0x4cd
 4161 0199 716E6F74 		.ascii	"qnotify_t\000"
 4161      6966795F 
 4161      7400
 4162 01a3 5E040000 		.4byte	0x45e
 4163 01a7 47656E65 		.ascii	"GenericQueue\000"
 4163      72696351 
 4163      75657565 
 4163      00
 4164 01b4 F6040000 		.4byte	0x4f6
 4165 01b8 496E7075 		.ascii	"InputQueue\000"
 4165      74517565 
 4165      756500
 4166 01c3 01050000 		.4byte	0x501
 4167 01c7 4F757470 		.ascii	"OutputQueue\000"
 4167      75745175 
 4167      65756500 
 4168 01d3 F2050000 		.4byte	0x5f2
 4169 01d7 696F666C 		.ascii	"ioflags_t\000"
 4169      6167735F 
 4169      7400
 4170 01e1 14060000 		.4byte	0x614
 4171 01e5 5446756E 		.ascii	"TFunc\000"
 4171      6300
ARM GAS  C:\Users\z80\AppData\Local\Temp\cc8udMHo.s 			page 76


 4172 01eb AE060000 		.4byte	0x6ae
 4173 01ef 4750494F 		.ascii	"GPIO_TypeDef\000"
 4173      5F547970 
 4173      65446566 
 4173      00
 4174 01fc 94070000 		.4byte	0x794
 4175 0200 55534152 		.ascii	"USART_TypeDef\000"
 4175      545F5479 
 4175      70654465 
 4175      6600
 4176 020e A0070000 		.4byte	0x7a0
 4177 0212 696F706F 		.ascii	"ioportmask_t\000"
 4177      72746D61 
 4177      736B5F74 
 4177      00
 4178 021f C6070000 		.4byte	0x7c6
 4179 0223 73647374 		.ascii	"sdstate_t\000"
 4179      6174655F 
 4179      7400
 4180 022d D1070000 		.4byte	0x7d1
 4181 0231 53657269 		.ascii	"SerialDriver\000"
 4181      616C4472 
 4181      69766572 
 4181      00
 4182 023e A9080000 		.4byte	0x8a9
 4183 0242 53657269 		.ascii	"SerialConfig\000"
 4183      616C436F 
 4183      6E666967 
 4183      00
 4184 024f B4080000 		.4byte	0x8b4
 4185 0253 53657269 		.ascii	"SerialDriverVMT\000"
 4185      616C4472 
 4185      69766572 
 4185      564D5400 
 4186 0263 DC070000 		.4byte	0x7dc
 4187 0267 53657269 		.ascii	"SerialDriver\000"
 4187      616C4472 
 4187      69766572 
 4187      00
 4188 0274 00000000 		.4byte	0x0
 4189              		.section	.debug_aranges,"",%progbits
 4190 0000 84000000 		.4byte	0x84
 4191 0004 0200     		.2byte	0x2
 4192 0006 00000000 		.4byte	.Ldebug_info0
 4193 000a 04       		.byte	0x4
 4194 000b 00       		.byte	0x0
 4195 000c 0000     		.2byte	0x0
 4196 000e 0000     		.2byte	0x0
 4197 0010 00000000 		.4byte	.LFB76
 4198 0014 34000000 		.4byte	.LFE76-.LFB76
 4199 0018 00000000 		.4byte	.LFB77
 4200 001c 14000000 		.4byte	.LFE77-.LFB77
 4201 0020 00000000 		.4byte	.LFB75
 4202 0024 52000000 		.4byte	.LFE75-.LFB75
 4203 0028 00000000 		.4byte	.LFB68
 4204 002c 30000000 		.4byte	.LFE68-.LFB68
 4205 0030 00000000 		.4byte	.LFB67
ARM GAS  C:\Users\z80\AppData\Local\Temp\cc8udMHo.s 			page 77


 4206 0034 30000000 		.4byte	.LFE67-.LFB67
 4207 0038 00000000 		.4byte	.LFB74
 4208 003c 18000000 		.4byte	.LFE74-.LFB74
 4209 0040 00000000 		.4byte	.LFB73
 4210 0044 0A000000 		.4byte	.LFE73-.LFB73
 4211 0048 00000000 		.4byte	.LFB72
 4212 004c 3E000000 		.4byte	.LFE72-.LFB72
 4213 0050 00000000 		.4byte	.LFB71
 4214 0054 1A000000 		.4byte	.LFE71-.LFB71
 4215 0058 00000000 		.4byte	.LFB70
 4216 005c 1A000000 		.4byte	.LFE70-.LFB70
 4217 0060 00000000 		.4byte	.LFB69
 4218 0064 0A000000 		.4byte	.LFE69-.LFB69
 4219 0068 00000000 		.4byte	.LFB62
 4220 006c 50000000 		.4byte	.LFE62-.LFB62
 4221 0070 00000000 		.4byte	.LFB63
 4222 0074 C4000000 		.4byte	.LFE63-.LFB63
 4223 0078 00000000 		.4byte	.LFB64
 4224 007c 0A000000 		.4byte	.LFE64-.LFB64
 4225 0080 00000000 		.4byte	0x0
 4226 0084 00000000 		.4byte	0x0
 4227              		.section	.debug_ranges,"",%progbits
 4228              	.Ldebug_ranges0:
 4229 0000 06000000 		.4byte	.LBB9
 4230 0004 08000000 		.4byte	.LBE9
 4231 0008 0A000000 		.4byte	.LBB10
 4232 000c 0E000000 		.4byte	.LBE10
 4233 0010 00000000 		.4byte	0x0
 4234 0014 00000000 		.4byte	0x0
 4235 0018 30000000 		.4byte	.LBB12
 4236 001c 42000000 		.4byte	.LBE12
 4237 0020 44000000 		.4byte	.LBB13
 4238 0024 48000000 		.4byte	.LBE13
 4239 0028 00000000 		.4byte	0x0
 4240 002c 00000000 		.4byte	0x0
 4241 0030 12000000 		.4byte	.LBB15
 4242 0034 30000000 		.4byte	.LBE15
 4243 0038 32000000 		.4byte	.LBB32
 4244 003c C4000000 		.4byte	.LBE32
 4245 0040 00000000 		.4byte	0x0
 4246 0044 00000000 		.4byte	0x0
 4247 0048 1C000000 		.4byte	.LBB18
 4248 004c 1E000000 		.4byte	.LBE18
 4249 0050 92000000 		.4byte	.LBB31
 4250 0054 C4000000 		.4byte	.LBE31
 4251 0058 66000000 		.4byte	.LBB30
 4252 005c 80000000 		.4byte	.LBE30
 4253 0060 24000000 		.4byte	.LBB16
 4254 0064 2E000000 		.4byte	.LBE16
 4255 0068 20000000 		.4byte	.LBB17
 4256 006c 22000000 		.4byte	.LBE17
 4257 0070 00000000 		.4byte	0x0
 4258 0074 00000000 		.4byte	0x0
 4259 0078 1C000000 		.4byte	.LBB21
 4260 007c 1E000000 		.4byte	.LBE21
 4261 0080 92000000 		.4byte	.LBB29
 4262 0084 C4000000 		.4byte	.LBE29
ARM GAS  C:\Users\z80\AppData\Local\Temp\cc8udMHo.s 			page 78


 4263 0088 66000000 		.4byte	.LBB19
 4264 008c 80000000 		.4byte	.LBE19
 4265 0090 24000000 		.4byte	.LBB28
 4266 0094 2E000000 		.4byte	.LBE28
 4267 0098 20000000 		.4byte	.LBB20
 4268 009c 22000000 		.4byte	.LBE20
 4269 00a0 00000000 		.4byte	0x0
 4270 00a4 00000000 		.4byte	0x0
 4271 00a8 2C000000 		.4byte	.LBB23
 4272 00ac 2E000000 		.4byte	.LBE23
 4273 00b0 92000000 		.4byte	.LBB27
 4274 00b4 C4000000 		.4byte	.LBE27
 4275 00b8 7C000000 		.4byte	.LBB22
 4276 00bc 80000000 		.4byte	.LBE22
 4277 00c0 00000000 		.4byte	0x0
 4278 00c4 00000000 		.4byte	0x0
 4279 00c8 2C000000 		.4byte	.LBB25
 4280 00cc 2E000000 		.4byte	.LBE25
 4281 00d0 92000000 		.4byte	.LBB26
 4282 00d4 C4000000 		.4byte	.LBE26
 4283 00d8 7C000000 		.4byte	.LBB24
 4284 00dc 80000000 		.4byte	.LBE24
 4285 00e0 00000000 		.4byte	0x0
 4286 00e4 00000000 		.4byte	0x0
 4287 00e8 00000000 		.4byte	.LFB76
 4288 00ec 34000000 		.4byte	.LFE76
 4289 00f0 00000000 		.4byte	.LFB77
 4290 00f4 14000000 		.4byte	.LFE77
 4291 00f8 00000000 		.4byte	.LFB75
 4292 00fc 52000000 		.4byte	.LFE75
 4293 0100 00000000 		.4byte	.LFB68
 4294 0104 30000000 		.4byte	.LFE68
 4295 0108 00000000 		.4byte	.LFB67
 4296 010c 30000000 		.4byte	.LFE67
 4297 0110 00000000 		.4byte	.LFB74
 4298 0114 18000000 		.4byte	.LFE74
 4299 0118 00000000 		.4byte	.LFB73
 4300 011c 0A000000 		.4byte	.LFE73
 4301 0120 00000000 		.4byte	.LFB72
 4302 0124 3E000000 		.4byte	.LFE72
 4303 0128 00000000 		.4byte	.LFB71
 4304 012c 1A000000 		.4byte	.LFE71
 4305 0130 00000000 		.4byte	.LFB70
 4306 0134 1A000000 		.4byte	.LFE70
 4307 0138 00000000 		.4byte	.LFB69
 4308 013c 0A000000 		.4byte	.LFE69
 4309 0140 00000000 		.4byte	.LFB62
 4310 0144 50000000 		.4byte	.LFE62
 4311 0148 00000000 		.4byte	.LFB63
 4312 014c C4000000 		.4byte	.LFE63
 4313 0150 00000000 		.4byte	.LFB64
 4314 0154 0A000000 		.4byte	.LFE64
 4315 0158 00000000 		.4byte	0x0
 4316 015c 00000000 		.4byte	0x0
 4317              		.section	.debug_str,"MS",%progbits,1
 4318              	.LASF141:
 4319 0000 77726974 		.ascii	"writeEom\000"
ARM GAS  C:\Users\z80\AppData\Local\Temp\cc8udMHo.s 			page 79


 4319      65456F6D 
 4319      00
 4320              	.LASF99:
 4321 0009 73635F73 		.ascii	"sc_speed\000"
 4321      70656564 
 4321      00
 4322              	.LASF2:
 4323 0012 73697A65 		.ascii	"size_t\000"
 4323      5F7400
 4324              	.LASF57:
 4325 0019 7264796D 		.ascii	"rdymsg\000"
 4325      736700
 4326              	.LASF13:
 4327 0020 75696E74 		.ascii	"uint64_t\000"
 4327      36345F74 
 4327      00
 4328              	.LASF137:
 4329 0029 66756E63 		.ascii	"funcs\000"
 4329      7300
 4330              	.LASF72:
 4331 002f 4F757470 		.ascii	"OutputQueue\000"
 4331      75745175 
 4331      65756500 
 4332              	.LASF74:
 4333 003b 5446756E 		.ascii	"TFunc\000"
 4333      6300
 4334              	.LASF87:
 4335 0041 696F706F 		.ascii	"ioportmask_t\000"
 4335      72746D61 
 4335      736B5F74 
 4335      00
 4336              	.LASF15:
 4337 004e 75696E74 		.ascii	"uint_fast16_t\000"
 4337      5F666173 
 4337      7431365F 
 4337      7400
 4338              	.LASF14:
 4339 005c 6C6F6E67 		.ascii	"long long unsigned int\000"
 4339      206C6F6E 
 4339      6720756E 
 4339      7369676E 
 4339      65642069 
 4340              	.LASF144:
 4341 0073 66756E63 		.ascii	"funcArgs\000"
 4341      41726773 
 4341      00
 4342              	.LASF58:
 4343 007c 65786974 		.ascii	"exitcode\000"
 4343      636F6465 
 4343      00
 4344              	.LASF133:
 4345 0085 6F75745F 		.ascii	"out_index\000"
 4345      696E6465 
 4345      7800
 4346              	.LASF134:
 4347 008f 49544D5F 		.ascii	"ITM_RxBuffer\000"
 4347      52784275 
ARM GAS  C:\Users\z80\AppData\Local\Temp\cc8udMHo.s 			page 80


 4347      66666572 
 4347      00
 4348              	.LASF16:
 4349 009c 626F6F6C 		.ascii	"bool_t\000"
 4349      5F7400
 4350              	.LASF26:
 4351 00a3 705F7072 		.ascii	"p_prio\000"
 4351      696F00
 4352              	.LASF110:
 4353 00aa 72656164 		.ascii	"readt\000"
 4353      7400
 4354              	.LASF63:
 4355 00b0 715F7761 		.ascii	"q_waiting\000"
 4355      6974696E 
 4355      6700
 4356              	.LASF12:
 4357 00ba 6C6F6E67 		.ascii	"long long int\000"
 4357      206C6F6E 
 4357      6720696E 
 4357      7400
 4358              	.LASF1:
 4359 00c8 7369676E 		.ascii	"signed char\000"
 4359      65642063 
 4359      68617200 
 4360              	.LASF75:
 4361 00d4 42535252 		.ascii	"BSRR\000"
 4361      00
 4362              	.LASF84:
 4363 00d9 47545052 		.ascii	"GTPR\000"
 4363      00
 4364              	.LASF89:
 4365 00de 53445F53 		.ascii	"SD_STOP\000"
 4365      544F5000 
 4366              	.LASF124:
 4367 00e6 7365745F 		.ascii	"set_osc_period\000"
 4367      6F73635F 
 4367      70657269 
 4367      6F6400
 4368              	.LASF48:
 4369 00f5 6D5F7175 		.ascii	"m_queue\000"
 4369      65756500 
 4370              	.LASF140:
 4371 00fd 433A5C70 		.ascii	"C:\\projects\\digitizer.git\\firmware\\digitizer\000"
 4371      726F6A65 
 4371      6374735C 
 4371      64696769 
 4371      74697A65 
 4372              	.LASF95:
 4373 012a 73746174 		.ascii	"state\000"
 4373      6500
 4374              	.LASF9:
 4375 0130 6C6F6E67 		.ascii	"long int\000"
 4375      20696E74 
 4375      00
 4376              	.LASF18:
 4377 0139 74737461 		.ascii	"tstate_t\000"
 4377      74655F74 
ARM GAS  C:\Users\z80\AppData\Local\Temp\cc8udMHo.s 			page 81


 4377      00
 4378              	.LASF65:
 4379 0142 715F6275 		.ascii	"q_buffer\000"
 4379      66666572 
 4379      00
 4380              	.LASF67:
 4381 014b 715F7772 		.ascii	"q_wrptr\000"
 4381      70747200 
 4382              	.LASF28:
 4383 0153 705F6E65 		.ascii	"p_newer\000"
 4383      77657200 
 4384              	.LASF107:
 4385 015b 70757477 		.ascii	"putwouldblock\000"
 4385      6F756C64 
 4385      626C6F63 
 4385      6B00
 4386              	.LASF77:
 4387 0169 4750494F 		.ascii	"GPIO_TypeDef\000"
 4387      5F547970 
 4387      65446566 
 4387      00
 4388              	.LASF43:
 4389 0176 72656761 		.ascii	"regarm_t\000"
 4389      726D5F74 
 4389      00
 4390              	.LASF55:
 4391 017f 4576656E 		.ascii	"EventSource\000"
 4391      74536F75 
 4391      72636500 
 4392              	.LASF128:
 4393 018b 76616C4C 		.ascii	"valL\000"
 4393      00
 4394              	.LASF98:
 4395 0190 75736172 		.ascii	"usart\000"
 4395      7400
 4396              	.LASF0:
 4397 0196 756E7369 		.ascii	"unsigned int\000"
 4397      676E6564 
 4397      20696E74 
 4397      00
 4398              	.LASF6:
 4399 01a3 75696E74 		.ascii	"uint16_t\000"
 4399      31365F74 
 4399      00
 4400              	.LASF104:
 4401 01ac 53657269 		.ascii	"SerialDriverVMT\000"
 4401      616C4472 
 4401      69766572 
 4401      564D5400 
 4402              	.LASF34:
 4403 01bc 705F7469 		.ascii	"p_time\000"
 4403      6D6500
 4404              	.LASF123:
 4405 01c3 68617264 		.ascii	"hardware_version\000"
 4405      77617265 
 4405      5F766572 
 4405      73696F6E 
ARM GAS  C:\Users\z80\AppData\Local\Temp\cc8udMHo.s 			page 82


 4405      00
 4406              	.LASF96:
 4407 01d4 69717565 		.ascii	"iqueue\000"
 4407      756500
 4408              	.LASF36:
 4409 01db 705F6D73 		.ascii	"p_msgqueue\000"
 4409      67717565 
 4409      756500
 4410              	.LASF122:
 4411 01e6 73747269 		.ascii	"stri\000"
 4411      00
 4412              	.LASF76:
 4413 01eb 4C434B52 		.ascii	"LCKR\000"
 4413      00
 4414              	.LASF114:
 4415 01f0 65786563 		.ascii	"exec_func\000"
 4415      5F66756E 
 4415      6300
 4416              	.LASF119:
 4417 01fa 6E6F4461 		.ascii	"noData\000"
 4417      746100
 4418              	.LASF19:
 4419 0201 74707269 		.ascii	"tprio_t\000"
 4419      6F5F7400 
 4420              	.LASF93:
 4421 0209 6576656E 		.ascii	"event\000"
 4421      7400
 4422              	.LASF7:
 4423 020f 73686F72 		.ascii	"short unsigned int\000"
 4423      7420756E 
 4423      7369676E 
 4423      65642069 
 4423      6E7400
 4424              	.LASF125:
 4425 0222 7365745F 		.ascii	"set_osc_signals\000"
 4425      6F73635F 
 4425      7369676E 
 4425      616C7300 
 4426              	.LASF97:
 4427 0232 6F717565 		.ascii	"oqueue\000"
 4427      756500
 4428              	.LASF120:
 4429 0239 6669726D 		.ascii	"firmware_version\000"
 4429      77617265 
 4429      5F766572 
 4429      73696F6E 
 4429      00
 4430              	.LASF86:
 4431 024a 55534152 		.ascii	"USART_TypeDef\000"
 4431      545F5479 
 4431      70654465 
 4431      6600
 4432              	.LASF109:
 4433 0258 77726974 		.ascii	"writet\000"
 4433      657400
 4434              	.LASF17:
 4435 025f 746D6F64 		.ascii	"tmode_t\000"
ARM GAS  C:\Users\z80\AppData\Local\Temp\cc8udMHo.s 			page 83


 4435      655F7400 
 4436              	.LASF42:
 4437 0267 54687265 		.ascii	"ThreadsList\000"
 4437      6164734C 
 4437      69737400 
 4438              	.LASF21:
 4439 0273 6576656E 		.ascii	"eventmask_t\000"
 4439      746D6173 
 4439      6B5F7400 
 4440              	.LASF71:
 4441 027f 496E7075 		.ascii	"InputQueue\000"
 4441      74517565 
 4441      756500
 4442              	.LASF70:
 4443 028a 716E6F74 		.ascii	"qnotify_t\000"
 4443      6966795F 
 4443      7400
 4444              	.LASF139:
 4445 0294 2E2F7372 		.ascii	"./src/cpu_io.c\000"
 4445      632F6370 
 4445      755F696F 
 4445      2E6300
 4446              	.LASF62:
 4447 02a3 47656E65 		.ascii	"GenericQueue\000"
 4447      72696351 
 4447      75657565 
 4447      00
 4448              	.LASF44:
 4449 02b0 73746B61 		.ascii	"stkalign_t\000"
 4449      6C69676E 
 4449      5F7400
 4450              	.LASF118:
 4451 02bb 6765745F 		.ascii	"get_osc_data\000"
 4451      6F73635F 
 4451      64617461 
 4451      00
 4452              	.LASF105:
 4453 02c8 77726974 		.ascii	"write\000"
 4453      6500
 4454              	.LASF64:
 4455 02ce 715F636F 		.ascii	"q_counter\000"
 4455      756E7465 
 4455      7200
 4456              	.LASF47:
 4457 02d8 4D757465 		.ascii	"Mutex\000"
 4457      7800
 4458              	.LASF131:
 4459 02de 7365745F 		.ascii	"set_led\000"
 4459      6C656400 
 4460              	.LASF29:
 4461 02e6 705F6F6C 		.ascii	"p_older\000"
 4461      64657200 
 4462              	.LASF73:
 4463 02ee 696F666C 		.ascii	"ioflags_t\000"
 4463      6167735F 
 4463      7400
 4464              	.LASF41:
ARM GAS  C:\Users\z80\AppData\Local\Temp\cc8udMHo.s 			page 84


 4465 02f8 54687265 		.ascii	"ThreadsQueue\000"
 4465      61647351 
 4465      75657565 
 4465      00
 4466              	.LASF31:
 4467 0305 705F7374 		.ascii	"p_stklimit\000"
 4467      6B6C696D 
 4467      697400
 4468              	.LASF54:
 4469 0310 656C5F6D 		.ascii	"el_mask\000"
 4469      61736B00 
 4470              	.LASF103:
 4471 0318 53657269 		.ascii	"SerialConfig\000"
 4471      616C436F 
 4471      6E666967 
 4471      00
 4472              	.LASF129:
 4473 0325 76616C48 		.ascii	"valH\000"
 4473      00
 4474              	.LASF78:
 4475 032a 52455345 		.ascii	"RESERVED0\000"
 4475      52564544 
 4475      3000
 4476              	.LASF79:
 4477 0334 52455345 		.ascii	"RESERVED1\000"
 4477      52564544 
 4477      3100
 4478              	.LASF80:
 4479 033e 52455345 		.ascii	"RESERVED2\000"
 4479      52564544 
 4479      3200
 4480              	.LASF81:
 4481 0348 52455345 		.ascii	"RESERVED3\000"
 4481      52564544 
 4481      3300
 4482              	.LASF82:
 4483 0352 52455345 		.ascii	"RESERVED4\000"
 4483      52564544 
 4483      3400
 4484              	.LASF25:
 4485 035c 705F7072 		.ascii	"p_prev\000"
 4485      657600
 4486              	.LASF130:
 4487 0363 7365745F 		.ascii	"set_dac1\000"
 4487      64616331 
 4487      00
 4488              	.LASF127:
 4489 036c 7365745F 		.ascii	"set_dac2\000"
 4489      64616332 
 4489      00
 4490              	.LASF113:
 4491 0375 66756E63 		.ascii	"funcs_sz\000"
 4491      735F737A 
 4491      00
 4492              	.LASF68:
 4493 037e 715F7264 		.ascii	"q_rdptr\000"
 4493      70747200 
ARM GAS  C:\Users\z80\AppData\Local\Temp\cc8udMHo.s 			page 85


 4494              	.LASF8:
 4495 0386 696E7433 		.ascii	"int32_t\000"
 4495      325F7400 
 4496              	.LASF4:
 4497 038e 756E7369 		.ascii	"unsigned char\000"
 4497      676E6564 
 4497      20636861 
 4497      7200
 4498              	.LASF136:
 4499 039c 73657269 		.ascii	"serial_cfg\000"
 4499      616C5F63 
 4499      666700
 4500              	.LASF53:
 4501 03a7 656C5F6C 		.ascii	"el_listener\000"
 4501      69737465 
 4501      6E657200 
 4502              	.LASF32:
 4503 03b3 705F7374 		.ascii	"p_state\000"
 4503      61746500 
 4504              	.LASF39:
 4505 03bb 705F6D74 		.ascii	"p_mtxlist\000"
 4505      786C6973 
 4505      7400
 4506              	.LASF5:
 4507 03c5 73686F72 		.ascii	"short int\000"
 4507      7420696E 
 4507      7400
 4508              	.LASF115:
 4509 03cf 70726F63 		.ascii	"process_command\000"
 4509      6573735F 
 4509      636F6D6D 
 4509      616E6400 
 4510              	.LASF60:
 4511 03df 65776D61 		.ascii	"ewmask\000"
 4511      736B00
 4512              	.LASF24:
 4513 03e6 705F6E65 		.ascii	"p_next\000"
 4513      787400
 4514              	.LASF33:
 4515 03ed 705F666C 		.ascii	"p_flags\000"
 4515      61677300 
 4516              	.LASF52:
 4517 03f5 656C5F6E 		.ascii	"el_next\000"
 4517      65787400 
 4518              	.LASF23:
 4519 03fd 54687265 		.ascii	"Thread\000"
 4519      616400
 4520              	.LASF38:
 4521 0404 705F6570 		.ascii	"p_epending\000"
 4521      656E6469 
 4521      6E6700
 4522              	.LASF88:
 4523 040f 53445F55 		.ascii	"SD_UNINIT\000"
 4523      4E494E49 
 4523      5400
 4524              	.LASF83:
 4525 0419 52455345 		.ascii	"RESERVED5\000"
ARM GAS  C:\Users\z80\AppData\Local\Temp\cc8udMHo.s 			page 86


 4525      52564544 
 4525      3500
 4526              	.LASF85:
 4527 0423 52455345 		.ascii	"RESERVED6\000"
 4527      52564544 
 4527      3600
 4528              	.LASF10:
 4529 042d 75696E74 		.ascii	"uint32_t\000"
 4529      33325F74 
 4529      00
 4530              	.LASF91:
 4531 0436 73647374 		.ascii	"sdstate_t\000"
 4531      6174655F 
 4531      7400
 4532              	.LASF92:
 4533 0440 53657269 		.ascii	"SerialDriver\000"
 4533      616C4472 
 4533      69766572 
 4533      00
 4534              	.LASF11:
 4535 044d 6C6F6E67 		.ascii	"long unsigned int\000"
 4535      20756E73 
 4535      69676E65 
 4535      6420696E 
 4535      7400
 4536              	.LASF106:
 4537 045f 72656164 		.ascii	"read\000"
 4537      00
 4538              	.LASF61:
 4539 0464 63686172 		.ascii	"char\000"
 4539      00
 4540              	.LASF117:
 4541 0469 77726974 		.ascii	"writeResult\000"
 4541      65526573 
 4541      756C7400 
 4542              	.LASF143:
 4543 0475 70726F63 		.ascii	"processCpuIo\000"
 4543      65737343 
 4543      7075496F 
 4543      00
 4544              	.LASF50:
 4545 0482 6D5F6E65 		.ascii	"m_next\000"
 4545      787400
 4546              	.LASF22:
 4547 0489 73797374 		.ascii	"systime_t\000"
 4547      696D655F 
 4547      7400
 4548              	.LASF40:
 4549 0493 705F7265 		.ascii	"p_realprio\000"
 4549      616C7072 
 4549      696F00
 4550              	.LASF135:
 4551 049e 62756666 		.ascii	"buffer\000"
 4551      657200
 4552              	.LASF116:
 4553 04a5 64617461 		.ascii	"data\000"
 4553      00
ARM GAS  C:\Users\z80\AppData\Local\Temp\cc8udMHo.s 			page 87


 4554              	.LASF111:
 4555 04aa 67657466 		.ascii	"getflags\000"
 4555      6C616773 
 4555      00
 4556              	.LASF46:
 4557 04b3 636F6E74 		.ascii	"context\000"
 4557      65787400 
 4558              	.LASF20:
 4559 04bb 6D73675F 		.ascii	"msg_t\000"
 4559      7400
 4560              	.LASF45:
 4561 04c1 696E7463 		.ascii	"intctx\000"
 4561      747800
 4562              	.LASF90:
 4563 04c8 53445F52 		.ascii	"SD_READY\000"
 4563      45414459 
 4563      00
 4564              	.LASF142:
 4565 04d1 696E6974 		.ascii	"initCpuIo\000"
 4565      43707549 
 4565      6F00
 4566              	.LASF66:
 4567 04db 715F746F 		.ascii	"q_top\000"
 4567      7000
 4568              	.LASF30:
 4569 04e1 705F6E61 		.ascii	"p_name\000"
 4569      6D6500
 4570              	.LASF56:
 4571 04e8 65735F6E 		.ascii	"es_next\000"
 4571      65787400 
 4572              	.LASF69:
 4573 04f0 715F6E6F 		.ascii	"q_notify\000"
 4573      74696679 
 4573      00
 4574              	.LASF37:
 4575 04f9 705F6D73 		.ascii	"p_msg\000"
 4575      6700
 4576              	.LASF126:
 4577 04ff 6765745F 		.ascii	"get_adc\000"
 4577      61646300 
 4578              	.LASF3:
 4579 0507 75696E74 		.ascii	"uint8_t\000"
 4579      385F7400 
 4580              	.LASF112:
 4581 050f 66756E63 		.ascii	"func_index\000"
 4581      5F696E64 
 4581      657800
 4582              	.LASF94:
 4583 051a 666C6167 		.ascii	"flags\000"
 4583      7300
 4584              	.LASF51:
 4585 0520 4576656E 		.ascii	"EventListener\000"
 4585      744C6973 
 4585      74656E65 
 4585      7200
 4586              	.LASF138:
 4587 052e 474E5520 		.ascii	"GNU C 4.5.0\000"
ARM GAS  C:\Users\z80\AppData\Local\Temp\cc8udMHo.s 			page 88


 4587      4320342E 
 4587      352E3000 
 4588              	.LASF59:
 4589 053a 77746F62 		.ascii	"wtobjp\000"
 4589      6A7000
 4590              	.LASF132:
 4591 0541 736C6173 		.ascii	"slash\000"
 4591      6800
 4592              	.LASF108:
 4593 0547 67657477 		.ascii	"getwouldblock\000"
 4593      6F756C64 
 4593      626C6F63 
 4593      6B00
 4594              	.LASF100:
 4595 0555 73635F63 		.ascii	"sc_cr1\000"
 4595      723100
 4596              	.LASF101:
 4597 055c 73635F63 		.ascii	"sc_cr2\000"
 4597      723200
 4598              	.LASF102:
 4599 0563 73635F63 		.ascii	"sc_cr3\000"
 4599      723300
 4600              	.LASF121:
 4601 056a 61726773 		.ascii	"args\000"
 4601      00
 4602              	.LASF49:
 4603 056f 6D5F6F77 		.ascii	"m_owner\000"
 4603      6E657200 
 4604              	.LASF27:
 4605 0577 705F6374 		.ascii	"p_ctx\000"
 4605      7800
 4606              	.LASF35:
 4607 057d 705F7761 		.ascii	"p_waiting\000"
 4607      6974696E 
 4607      6700
 4608              		.ident	"GCC: (GNU) 4.5.0"
ARM GAS  C:\Users\z80\AppData\Local\Temp\cc8udMHo.s 			page 89


DEFINED SYMBOLS
                            *ABS*:00000000 cpu_io.c
C:\Users\z80\AppData\Local\Temp\cc8udMHo.s:24     .text.writeResult:00000000 $t
C:\Users\z80\AppData\Local\Temp\cc8udMHo.s:29     .text.writeResult:00000000 writeResult
C:\Users\z80\AppData\Local\Temp\cc8udMHo.s:71     .text.writeResult:00000030 $d
C:\Users\z80\AppData\Local\Temp\cc8udMHo.s:76     .text.writeEom:00000000 $t
C:\Users\z80\AppData\Local\Temp\cc8udMHo.s:81     .text.writeEom:00000000 writeEom
C:\Users\z80\AppData\Local\Temp\cc8udMHo.s:102    .text.writeEom:00000010 $d
C:\Users\z80\AppData\Local\Temp\cc8udMHo.s:107    .text.get_osc_data:00000000 $t
C:\Users\z80\AppData\Local\Temp\cc8udMHo.s:112    .text.get_osc_data:00000000 get_osc_data
C:\Users\z80\AppData\Local\Temp\cc8udMHo.s:209    .text.firmware_version:00000000 $t
C:\Users\z80\AppData\Local\Temp\cc8udMHo.s:214    .text.firmware_version:00000000 firmware_version
C:\Users\z80\AppData\Local\Temp\cc8udMHo.s:259    .text.firmware_version:0000002c $d
C:\Users\z80\AppData\Local\Temp\cc8udMHo.s:264    .text.hardware_version:00000000 $t
C:\Users\z80\AppData\Local\Temp\cc8udMHo.s:269    .text.hardware_version:00000000 hardware_version
C:\Users\z80\AppData\Local\Temp\cc8udMHo.s:313    .text.hardware_version:0000002c $d
C:\Users\z80\AppData\Local\Temp\cc8udMHo.s:318    .text.set_osc_period:00000000 $t
C:\Users\z80\AppData\Local\Temp\cc8udMHo.s:323    .text.set_osc_period:00000000 set_osc_period
C:\Users\z80\AppData\Local\Temp\cc8udMHo.s:359    .text.set_osc_signals:00000000 $t
C:\Users\z80\AppData\Local\Temp\cc8udMHo.s:364    .text.set_osc_signals:00000000 set_osc_signals
C:\Users\z80\AppData\Local\Temp\cc8udMHo.s:386    .text.get_adc:00000000 $t
C:\Users\z80\AppData\Local\Temp\cc8udMHo.s:391    .text.get_adc:00000000 get_adc
C:\Users\z80\AppData\Local\Temp\cc8udMHo.s:450    .text.set_dac2:00000000 $t
C:\Users\z80\AppData\Local\Temp\cc8udMHo.s:455    .text.set_dac2:00000000 set_dac2
C:\Users\z80\AppData\Local\Temp\cc8udMHo.s:487    .text.set_dac1:00000000 $t
C:\Users\z80\AppData\Local\Temp\cc8udMHo.s:492    .text.set_dac1:00000000 set_dac1
C:\Users\z80\AppData\Local\Temp\cc8udMHo.s:524    .text.set_led:00000000 $t
C:\Users\z80\AppData\Local\Temp\cc8udMHo.s:529    .text.set_led:00000000 set_led
C:\Users\z80\AppData\Local\Temp\cc8udMHo.s:551    .text.initCpuIo:00000000 $t
C:\Users\z80\AppData\Local\Temp\cc8udMHo.s:557    .text.initCpuIo:00000000 initCpuIo
C:\Users\z80\AppData\Local\Temp\cc8udMHo.s:840    .rodata.serial_cfg:00000000 .LANCHOR0
C:\Users\z80\AppData\Local\Temp\cc8udMHo.s:604    .text.processCpuIo:00000000 $t
C:\Users\z80\AppData\Local\Temp\cc8udMHo.s:610    .text.processCpuIo:00000000 processCpuIo
C:\Users\z80\AppData\Local\Temp\cc8udMHo.s:795    .text.processCpuIo:000000a8 $d
C:\Users\z80\AppData\Local\Temp\cc8udMHo.s:811    .text.funcArgs:00000000 $t
C:\Users\z80\AppData\Local\Temp\cc8udMHo.s:817    .text.funcArgs:00000000 funcArgs
C:\Users\z80\AppData\Local\Temp\cc8udMHo.s:887    .bss.args:00000000 .LANCHOR4
C:\Users\z80\AppData\Local\Temp\cc8udMHo.s:836    .bss.slash.3767:00000000 slash.3767
C:\Users\z80\AppData\Local\Temp\cc8udMHo.s:837    .bss.slash.3767:00000000 $d
C:\Users\z80\AppData\Local\Temp\cc8udMHo.s:839    .rodata.serial_cfg:00000000 $d
C:\Users\z80\AppData\Local\Temp\cc8udMHo.s:843    .rodata.serial_cfg:00000000 serial_cfg
C:\Users\z80\AppData\Local\Temp\cc8udMHo.s:850    .bss.out_index.3768:00000000 $d
C:\Users\z80\AppData\Local\Temp\cc8udMHo.s:854    .bss.out_index.3768:00000000 out_index.3768
C:\Users\z80\AppData\Local\Temp\cc8udMHo.s:857    .rodata.funcs:00000000 $d
C:\Users\z80\AppData\Local\Temp\cc8udMHo.s:861    .rodata.funcs:00000000 funcs
C:\Users\z80\AppData\Local\Temp\cc8udMHo.s:872    .bss.buffer:00000000 $d
C:\Users\z80\AppData\Local\Temp\cc8udMHo.s:876    .bss.buffer:00000000 buffer
C:\Users\z80\AppData\Local\Temp\cc8udMHo.s:879    .rodata.str1.4:00000000 $d
C:\Users\z80\AppData\Local\Temp\cc8udMHo.s:886    .bss.args:00000000 $d
C:\Users\z80\AppData\Local\Temp\cc8udMHo.s:890    .bss.args:00000000 args
                     .debug_frame:00000010 $d
C:\Users\z80\AppData\Local\Temp\cc8udMHo.s:75     .text.writeResult:00000034 $t
C:\Users\z80\AppData\Local\Temp\cc8udMHo.s:106    .text.writeEom:00000014 $t
C:\Users\z80\AppData\Local\Temp\cc8udMHo.s:810    .text.processCpuIo:000000c4 $t

UNDEFINED SYMBOLS
chOQPutTimeout
ARM GAS  C:\Users\z80\AppData\Local\Temp\cc8udMHo.s 			page 90


SD1
adcQueue
dbg_check_lock
dbg_check_unlock
chIQGetTimeout
setOscPeriod
setOscSignals
instantAdc
setDac2
setDac1
setLeds
sdStart
_pal_lld_setgroupmode
