ARM GAS  C:\Users\z80\AppData\Local\Temp\cckqF1C0.s 			page 1


   1              		.syntax unified
   2              		.cpu cortex-m3
   3              		.fpu softvfp
   4              		.eabi_attribute 20, 1
   5              		.eabi_attribute 21, 1
   6              		.eabi_attribute 23, 3
   7              		.eabi_attribute 24, 1
   8              		.eabi_attribute 25, 1
   9              		.eabi_attribute 26, 1
  10              		.eabi_attribute 30, 2
  11              		.eabi_attribute 18, 4
  12              		.thumb
  13              		.file	"dac_ctrl.c"
  14              		.section	.debug_abbrev,"",%progbits
  15              	.Ldebug_abbrev0:
  16              		.section	.debug_info,"",%progbits
  17              	.Ldebug_info0:
  18              		.section	.debug_line,"",%progbits
  19              	.Ldebug_line0:
  20 0000 5A030000 		.text
  20      02007C02 
  20      00000201 
  20      FB0E0D00 
  20      01010101 
  21              	.Ltext0:
  22              		.cfi_sections	.debug_frame
  23              		.section	.text.onDacSpiComplete,"ax",%progbits
  24              		.align	2
  25              		.p2align 4,,15
  26              		.thumb
  27              		.thumb_func
  28              		.type	onDacSpiComplete, %function
  29              	onDacSpiComplete:
  30              	.LFB68:
  31              		.file 1 "./src/dac_ctrl.c"
  32              		.loc 1 179 0
  33              		.cfi_startproc
  34              		@ args = 0, pretend = 0, frame = 0
  35              		@ frame_needed = 0, uses_anonymous_args = 0
  36              	.LVL0:
  37 0000 08B5     		push	{r3, lr}
  38              	.LCFI0:
  39              		.cfi_def_cfa_offset 8
  40              	.LBB2:
  41              		.loc 1 181 0
  42 0002 2023     		movs	r3, #32
  43              		.cfi_offset 14, -4
  44              		.cfi_offset 3, -8
  45              	.LVL1:
  46              	@ 181 "./src/dac_ctrl.c" 1
  47 0004 83F31188 		msr     BASEPRI, r3
  48              	@ 0 "" 2
  49              	.LVL2:
  50              		.thumb
  51              	.LBE2:
  52 0008 FFF7FEFF 		bl	dbg_check_lock_from_isr
  53              	.LVL3:
ARM GAS  C:\Users\z80\AppData\Local\Temp\cckqF1C0.s 			page 2


  54              		.loc 1 182 0
  55 000c 40F20000 		movw	r0, #:lower16:SPID2
  56 0010 C0F20000 		movt	r0, #:upper16:SPID2
  57 0014 FFF7FEFF 		bl	spi_lld_unselect
  58              		.loc 1 187 0
  59 0018 FFF7FEFF 		bl	dbg_check_unlock_from_isr
  60              	.LBB3:
  61 001c 0023     		movs	r3, #0
  62              	.LVL4:
  63              	@ 187 "./src/dac_ctrl.c" 1
  64 001e 83F31188 		msr     BASEPRI, r3
  65              	@ 0 "" 2
  66              	.LVL5:
  67              		.thumb
  68              	.LBE3:
  69              		.loc 1 188 0
  70 0022 08BD     		pop	{r3, pc}
  71              		.cfi_endproc
  72              	.LFE68:
  73              		.size	onDacSpiComplete, .-onDacSpiComplete
  74 0024 AFF30080 		.section	.text.setDacI,"ax",%progbits
  74      AFF30080 
  74      AFF30080 
  75              		.align	2
  76              		.p2align 4,,15
  77              		.global	setDacI
  78              		.thumb
  79              		.thumb_func
  80              		.type	setDacI, %function
  81              	setDacI:
  82              	.LFB63:
  83              		.loc 1 83 0
  84              		.cfi_startproc
  85              		@ args = 0, pretend = 0, frame = 0
  86              		@ frame_needed = 0, uses_anonymous_args = 0
  87              		@ link register save eliminated.
  88              	.LVL6:
  89              		.loc 1 84 0
  90 0000 C217     		asrs	r2, r0, #31
  91 0002 920F     		lsrs	r2, r2, #30
  92 0004 8018     		adds	r0, r0, r2
  93              	.LVL7:
  94 0006 40F20003 		movw	r3, #:lower16:.LANCHOR0
  95 000a 00F00300 		and	r0, r0, #3
  96 000e C0F20003 		movt	r3, #:upper16:.LANCHOR0
  97 0012 821A     		subs	r2, r0, r2
  98 0014 43F82210 		str	r1, [r3, r2, lsl #2]
  99              		.loc 1 85 0
 100 0018 7047     		bx	lr
 101              		.cfi_endproc
 102              	.LFE63:
 103              		.size	setDacI, .-setDacI
 104 001a 00BFAFF3 		.section	.text.setDac,"ax",%progbits
 104      0080
 105              		.align	2
 106              		.p2align 4,,15
 107              		.global	setDac
ARM GAS  C:\Users\z80\AppData\Local\Temp\cckqF1C0.s 			page 3


 108              		.thumb
 109              		.thumb_func
 110              		.type	setDac, %function
 111              	setDac:
 112              	.LFB64:
 113              		.loc 1 88 0
 114              		.cfi_startproc
 115              		@ args = 0, pretend = 0, frame = 0
 116              		@ frame_needed = 0, uses_anonymous_args = 0
 117              	.LVL8:
 118 0000 F8B5     		push	{r3, r4, r5, r6, r7, lr}
 119              	.LCFI1:
 120              		.cfi_def_cfa_offset 24
 121              		.loc 1 88 0
 122 0002 0646     		mov	r6, r0
 123              		.cfi_offset 14, -4
 124              		.cfi_offset 7, -8
 125              		.cfi_offset 6, -12
 126              		.cfi_offset 5, -16
 127              		.cfi_offset 4, -20
 128              		.cfi_offset 3, -24
 129 0004 0D46     		mov	r5, r1
 130              	.LBB4:
 131              		.loc 1 90 0
 132 0006 2023     		movs	r3, #32
 133              	.LVL9:
 134              	@ 90 "./src/dac_ctrl.c" 1
 135 0008 83F31188 		msr     BASEPRI, r3
 136              	@ 0 "" 2
 137              	.LVL10:
 138              		.thumb
 139              	.LBE4:
 140              		.loc 1 91 0
 141 000c 104C     		ldr	r4, .L8
 142              		.loc 1 90 0
 143 000e FFF7FEFF 		bl	dbg_check_lock
 144              	.LVL11:
 145              		.loc 1 91 0
 146 0012 A768     		ldr	r7, [r4, #8]
 147              	.LVL12:
 148              		.loc 1 92 0
 149 0014 FFF7FEFF 		bl	dbg_check_unlock
 150              	.LVL13:
 151              	.LBB5:
 152 0018 0023     		movs	r3, #0
 153              	.LVL14:
 154              	@ 92 "./src/dac_ctrl.c" 1
 155 001a 83F31188 		msr     BASEPRI, r3
 156              	@ 0 "" 2
 157              	.LVL15:
 158              		.thumb
 159              	.LBE5:
 160              		.loc 1 93 0
 161 001e 022F     		cmp	r7, #2
 162 0020 01DC     		bgt	.L7
 163              		.loc 1 101 0
 164 0022 0120     		movs	r0, #1
ARM GAS  C:\Users\z80\AppData\Local\Temp\cckqF1C0.s 			page 4


 165              	.L4:
 166              	.LVL16:
 167              		.loc 1 103 0
 168 0024 F8BD     		pop	{r3, r4, r5, r6, r7, pc}
 169              	.LVL17:
 170              	.L7:
 171              		.loc 1 95 0
 172 0026 F1B2     		uxtb	r1, r6
 173 0028 4FF0FF32 		mov	r2, #-1
 174 002c 2046     		mov	r0, r4
 175 002e FFF7FEFF 		bl	chOQPutTimeout
 176              	.LVL18:
 177              		.loc 1 96 0
 178 0032 E9B2     		uxtb	r1, r5
 179 0034 4FF0FF32 		mov	r2, #-1
 180 0038 2046     		mov	r0, r4
 181 003a FFF7FEFF 		bl	chOQPutTimeout
 182              		.loc 1 97 0
 183 003e C5F30721 		ubfx	r1, r5, #8, #8
 184 0042 2046     		mov	r0, r4
 185 0044 4FF0FF32 		mov	r2, #-1
 186 0048 FFF7FEFF 		bl	chOQPutTimeout
 187              	.LVL19:
 188              		.loc 1 98 0
 189 004c 0020     		movs	r0, #0
 190 004e E9E7     		b	.L4
 191              	.L9:
 192              		.align	2
 193              	.L8:
 194 0050 00000000 		.word	.LANCHOR1
 195              		.cfi_endproc
 196              	.LFE64:
 197              		.size	setDac, .-setDac
 198 0054 AFF30080 		.section	.text.initDac,"ax",%progbits
 198      AFF30080 
 198      AFF30080 
 199              		.align	2
 200              		.p2align 4,,15
 201              		.global	initDac
 202              		.thumb
 203              		.thumb_func
 204              		.type	initDac, %function
 205              	initDac:
 206              	.LFB62:
 207              		.loc 1 58 0
 208              		.cfi_startproc
 209              		@ args = 0, pretend = 0, frame = 0
 210              		@ frame_needed = 0, uses_anonymous_args = 0
 211 0000 F8B5     		push	{r3, r4, r5, r6, r7, lr}
 212              	.LCFI2:
 213              		.cfi_def_cfa_offset 24
 214              		.loc 1 59 0
 215 0002 40F20000 		movw	r0, #:lower16:.LANCHOR1
 216 0006 40F20001 		movw	r1, #:lower16:.LANCHOR2
 217              		.loc 1 61 0
 218 000a 4FF44064 		mov	r4, #3072
 219              		.cfi_offset 14, -4
ARM GAS  C:\Users\z80\AppData\Local\Temp\cckqF1C0.s 			page 5


 220              		.cfi_offset 7, -8
 221              		.cfi_offset 6, -12
 222              		.cfi_offset 5, -16
 223              		.cfi_offset 4, -20
 224              		.cfi_offset 3, -24
 225              		.loc 1 59 0
 226 000e 0023     		movs	r3, #0
 227              		.loc 1 61 0
 228 0010 C4F20104 		movt	r4, 16385
 229              		.loc 1 59 0
 230 0014 1822     		movs	r2, #24
 231 0016 C0F20000 		movt	r0, #:upper16:.LANCHOR1
 232 001a C0F20001 		movt	r1, #:upper16:.LANCHOR2
 233 001e FFF7FEFF 		bl	chOQInit
 234              		.loc 1 61 0
 235 0022 1022     		movs	r2, #16
 236 0024 2046     		mov	r0, r4
 237 0026 4FF40051 		mov	r1, #8192
 238 002a FFF7FEFF 		bl	_pal_lld_setgroupmode
 239              		.loc 1 62 0
 240 002e 2046     		mov	r0, r4
 241 0030 1022     		movs	r2, #16
 242 0032 4FF40041 		mov	r1, #32768
 243 0036 FFF7FEFF 		bl	_pal_lld_setgroupmode
 244              		.loc 1 65 0
 245 003a 4FF48067 		mov	r7, #1024
 246              		.loc 1 64 0
 247 003e 4FF40071 		mov	r1, #512
 248              		.loc 1 66 0
 249 0042 4FF40066 		mov	r6, #2048
 250              		.loc 1 67 0
 251 0046 4FF48055 		mov	r5, #4096
 252              		.loc 1 64 0
 253 004a 2161     		str	r1, [r4, #16]
 254              		.loc 1 69 0
 255 004c 0622     		movs	r2, #6
 256              		.loc 1 65 0
 257 004e 2761     		str	r7, [r4, #16]
 258              		.loc 1 69 0
 259 0050 2046     		mov	r0, r4
 260              		.loc 1 66 0
 261 0052 2661     		str	r6, [r4, #16]
 262              		.loc 1 67 0
 263 0054 2561     		str	r5, [r4, #16]
 264              		.loc 1 69 0
 265 0056 FFF7FEFF 		bl	_pal_lld_setgroupmode
 266              		.loc 1 70 0
 267 005a 2046     		mov	r0, r4
 268 005c 3946     		mov	r1, r7
 269 005e 0622     		movs	r2, #6
 270 0060 FFF7FEFF 		bl	_pal_lld_setgroupmode
 271              		.loc 1 71 0
 272 0064 2046     		mov	r0, r4
 273 0066 3146     		mov	r1, r6
 274 0068 0622     		movs	r2, #6
 275 006a FFF7FEFF 		bl	_pal_lld_setgroupmode
 276              		.loc 1 72 0
ARM GAS  C:\Users\z80\AppData\Local\Temp\cckqF1C0.s 			page 6


 277 006e 0622     		movs	r2, #6
 278 0070 2046     		mov	r0, r4
 279 0072 2946     		mov	r1, r5
 280 0074 FFF7FEFF 		bl	_pal_lld_setgroupmode
 281              		.loc 1 74 0
 282 0078 40F20000 		movw	r0, #:lower16:SPID2
 283 007c 40F20001 		movw	r1, #:lower16:.LANCHOR3
 284 0080 C0F20001 		movt	r1, #:upper16:.LANCHOR3
 285 0084 C0F20000 		movt	r0, #:upper16:SPID2
 286 0088 FFF7FEFF 		bl	spiStart
 287              		.loc 1 76 0
 288 008c 0020     		movs	r0, #0
 289 008e 47F6FF71 		movw	r1, #32767
 290 0092 FFF7FEFF 		bl	setDac
 291              		.loc 1 77 0
 292 0096 0120     		movs	r0, #1
 293 0098 47F6FF71 		movw	r1, #32767
 294 009c FFF7FEFF 		bl	setDac
 295              		.loc 1 78 0
 296 00a0 0220     		movs	r0, #2
 297 00a2 47F6FF71 		movw	r1, #32767
 298 00a6 FFF7FEFF 		bl	setDac
 299              		.loc 1 79 0
 300 00aa 0320     		movs	r0, #3
 301 00ac 47F6FF71 		movw	r1, #32767
 302 00b0 FFF7FEFF 		bl	setDac
 303              		.loc 1 80 0
 304 00b4 F8BD     		pop	{r3, r4, r5, r6, r7, pc}
 305              		.cfi_endproc
 306              	.LFE62:
 307              		.size	initDac, .-initDac
 308 00b6 00BFAFF3 		.section	.text.setDac1,"ax",%progbits
 308      0080AFF3 
 308      0080
 309              		.align	2
 310              		.p2align 4,,15
 311              		.global	setDac1
 312              		.thumb
 313              		.thumb_func
 314              		.type	setDac1, %function
 315              	setDac1:
 316              	.LFB65:
 317              		.loc 1 106 0
 318              		.cfi_startproc
 319              		@ args = 0, pretend = 0, frame = 0
 320              		@ frame_needed = 0, uses_anonymous_args = 0
 321              	.LVL20:
 322 0000 38B5     		push	{r3, r4, r5, lr}
 323              	.LCFI3:
 324              		.cfi_def_cfa_offset 16
 325              		.loc 1 106 0
 326 0002 0346     		mov	r3, r0
 327              		.cfi_offset 14, -4
 328              		.cfi_offset 5, -8
 329              		.cfi_offset 4, -12
 330              		.cfi_offset 3, -16
 331 0004 0D46     		mov	r5, r1
ARM GAS  C:\Users\z80\AppData\Local\Temp\cckqF1C0.s 			page 7


 332              		.loc 1 108 0
 333 0006 0020     		movs	r0, #0
 334              	.LVL21:
 335 0008 1946     		mov	r1, r3
 336              	.LVL22:
 337 000a FFF7FEFF 		bl	setDac
 338              	.LVL23:
 339              		.loc 1 109 0
 340 000e 2946     		mov	r1, r5
 341              		.loc 1 108 0
 342 0010 0446     		mov	r4, r0
 343              	.LVL24:
 344              		.loc 1 109 0
 345 0012 0120     		movs	r0, #1
 346              	.LVL25:
 347 0014 FFF7FEFF 		bl	setDac
 348              	.LVL26:
 349 0018 0019     		adds	r0, r0, r4
 350              	.LVL27:
 351              		.loc 1 111 0
 352 001a 38BD     		pop	{r3, r4, r5, pc}
 353              		.cfi_endproc
 354              	.LFE65:
 355              		.size	setDac1, .-setDac1
 356 001c AFF30080 		.section	.text.setDac2,"ax",%progbits
 357              		.align	2
 358              		.p2align 4,,15
 359              		.global	setDac2
 360              		.thumb
 361              		.thumb_func
 362              		.type	setDac2, %function
 363              	setDac2:
 364              	.LFB66:
 365              		.loc 1 114 0
 366              		.cfi_startproc
 367              		@ args = 0, pretend = 0, frame = 0
 368              		@ frame_needed = 0, uses_anonymous_args = 0
 369              	.LVL28:
 370 0000 38B5     		push	{r3, r4, r5, lr}
 371              	.LCFI4:
 372              		.cfi_def_cfa_offset 16
 373              		.loc 1 114 0
 374 0002 0346     		mov	r3, r0
 375              		.cfi_offset 14, -4
 376              		.cfi_offset 5, -8
 377              		.cfi_offset 4, -12
 378              		.cfi_offset 3, -16
 379 0004 0D46     		mov	r5, r1
 380              		.loc 1 116 0
 381 0006 0220     		movs	r0, #2
 382              	.LVL29:
 383 0008 1946     		mov	r1, r3
 384              	.LVL30:
 385 000a FFF7FEFF 		bl	setDac
 386              	.LVL31:
 387              		.loc 1 117 0
 388 000e 2946     		mov	r1, r5
ARM GAS  C:\Users\z80\AppData\Local\Temp\cckqF1C0.s 			page 8


 389              		.loc 1 116 0
 390 0010 0446     		mov	r4, r0
 391              	.LVL32:
 392              		.loc 1 117 0
 393 0012 0320     		movs	r0, #3
 394              	.LVL33:
 395 0014 FFF7FEFF 		bl	setDac
 396              	.LVL34:
 397 0018 0019     		adds	r0, r0, r4
 398              	.LVL35:
 399              		.loc 1 119 0
 400 001a 38BD     		pop	{r3, r4, r5, pc}
 401              		.cfi_endproc
 402              	.LFE66:
 403              		.size	setDac2, .-setDac2
 404 001c AFF30080 		.section	.text.processDacI,"ax",%progbits
 405              		.align	2
 406              		.p2align 4,,15
 407              		.global	processDacI
 408              		.thumb
 409              		.thumb_func
 410              		.type	processDacI, %function
 411              	processDacI:
 412              	.LFB67:
 413              		.loc 1 122 0
 414              		.cfi_startproc
 415              		@ args = 0, pretend = 0, frame = 0
 416              		@ frame_needed = 0, uses_anonymous_args = 0
 417              	.LVL36:
 418 0000 70B5     		push	{r4, r5, r6, lr}
 419              	.LCFI5:
 420              		.cfi_def_cfa_offset 16
 421              		.loc 1 124 0
 422 0002 2C4C     		ldr	r4, .L22
 423              		.cfi_offset 14, -4
 424              		.cfi_offset 6, -8
 425              		.cfi_offset 5, -12
 426              		.cfi_offset 4, -16
 427 0004 2169     		ldr	r1, [r4, #16]
 428 0006 E368     		ldr	r3, [r4, #12]
 429 0008 A268     		ldr	r2, [r4, #8]
 430 000a CB1A     		subs	r3, r1, r3
 431 000c 9B1A     		subs	r3, r3, r2
 432              		.loc 1 125 0
 433 000e 022B     		cmp	r3, #2
 434 0010 00DC     		bgt	.L21
 435              	.LVL37:
 436              	.L13:
 437              		.loc 1 176 0
 438 0012 70BD     		pop	{r4, r5, r6, pc}
 439              	.LVL38:
 440              	.L21:
 441              	.LBB6:
 442              		.loc 1 129 0
 443 0014 2046     		mov	r0, r4
 444 0016 FFF7FEFF 		bl	chOQGetI
 445              	.LVL39:
ARM GAS  C:\Users\z80\AppData\Local\Temp\cckqF1C0.s 			page 9


 446 001a 0546     		mov	r5, r0
 447              	.LVL40:
 448              		.loc 1 133 0
 449 001c 2046     		mov	r0, r4
 450              	.LVL41:
 451 001e FFF7FEFF 		bl	chOQGetI
 452 0022 0646     		mov	r6, r0
 453              	.LVL42:
 454              		.loc 1 135 0
 455 0024 2046     		mov	r0, r4
 456              	.LVL43:
 457 0026 FFF7FEFF 		bl	chOQGetI
 458              	.LVL44:
 459              		.loc 1 138 0
 460 002a 4FEAE57C 		asr	ip, r5, #31
 461 002e 4FEA9C7C 		lsr	ip, ip, #30
 462 0032 05EB0C02 		add	r2, r5, ip
 463 0036 02F00302 		and	r2, r2, #3
 464              		.loc 1 143 0
 465 003a 1F49     		ldr	r1, .L22+4
 466              		.loc 1 138 0
 467 003c CCEB0202 		rsb	r2, ip, r2
 468              		.loc 1 143 0
 469 0040 51F822C0 		ldr	ip, [r1, r2, lsl #2]
 470              		.loc 1 136 0
 471 0044 06EB0023 		add	r3, r6, r0, lsl #8
 472              	.LVL45:
 473              		.loc 1 141 0
 474 0048 1C48     		ldr	r0, .L22+8
 475              	.LVL46:
 476              		.loc 1 143 0
 477 004a 6345     		cmp	r3, ip
 478              		.loc 1 141 0
 479 004c 40F82230 		str	r3, [r0, r2, lsl #2]
 480              		.loc 1 143 0
 481 0050 DFD0     		beq	.L13
 482              		.loc 1 145 0
 483 0052 032A     		cmp	r2, #3
 484 0054 08D8     		bhi	.L15
 485 0056 DFE802F0 		tbb	[pc, r2]
 486              	.L20:
 487 005a 27       		.byte	(.L16-.L20)/2
 488 005b 21       		.byte	(.L17-.L20)/2
 489 005c 1B       		.byte	(.L18-.L20)/2
 490 005d 02       		.byte	(.L19-.L20)/2
 491              		.align	1
 492              	.L19:
 493              		.loc 1 160 0
 494 005e 1848     		ldr	r0, .L22+12
 495 0060 4FF00C0C 		mov	ip, #12	@ movhi
 496 0064 A0F808C0 		strh	ip, [r0, #8]	@ movhi
 497              	.L15:
 498              		.loc 1 168 0
 499 0068 164D     		ldr	r5, .L22+16
 500              		.loc 1 165 0
 501 006a 174C     		ldr	r4, .L22+20
 502 006c 4FEA232C 		asr	ip, r3, #8
ARM GAS  C:\Users\z80\AppData\Local\Temp\cckqF1C0.s 			page 10


 503              		.loc 1 164 0
 504 0070 41F82230 		str	r3, [r1, r2, lsl #2]
 505              		.loc 1 168 0
 506 0074 2846     		mov	r0, r5
 507              		.loc 1 166 0
 508 0076 6370     		strb	r3, [r4, #1]
 509              		.loc 1 165 0
 510 0078 84F800C0 		strb	ip, [r4, #0]
 511              		.loc 1 168 0
 512 007c FFF7FEFF 		bl	spi_lld_select
 513              	.LVL47:
 514              		.loc 1 170 0
 515 0080 0323     		movs	r3, #3
 516 0082 2B70     		strb	r3, [r5, #0]
 517 0084 2846     		mov	r0, r5
 518 0086 0221     		movs	r1, #2
 519 0088 2246     		mov	r2, r4
 520 008a FFF7FEFF 		bl	spi_lld_send
 521 008e C0E7     		b	.L13
 522              	.LVL48:
 523              	.L18:
 524              		.loc 1 156 0
 525 0090 0B48     		ldr	r0, .L22+12
 526 0092 4FF00B0C 		mov	ip, #11	@ movhi
 527 0096 A0F808C0 		strh	ip, [r0, #8]	@ movhi
 528              		.loc 1 158 0
 529 009a E5E7     		b	.L15
 530              	.L17:
 531              		.loc 1 152 0
 532 009c 0848     		ldr	r0, .L22+12
 533 009e 4FF00A0C 		mov	ip, #10	@ movhi
 534 00a2 A0F808C0 		strh	ip, [r0, #8]	@ movhi
 535              		.loc 1 154 0
 536 00a6 DFE7     		b	.L15
 537              	.L16:
 538              		.loc 1 148 0
 539 00a8 0548     		ldr	r0, .L22+12
 540 00aa 4FF0090C 		mov	ip, #9	@ movhi
 541 00ae A0F808C0 		strh	ip, [r0, #8]	@ movhi
 542              		.loc 1 150 0
 543 00b2 D9E7     		b	.L15
 544              	.L23:
 545              		.align	2
 546              	.L22:
 547 00b4 00000000 		.word	.LANCHOR1
 548 00b8 00000000 		.word	.LANCHOR4
 549 00bc 00000000 		.word	.LANCHOR0
 550 00c0 00000000 		.word	.LANCHOR3
 551 00c4 00000000 		.word	SPID2
 552 00c8 00000000 		.word	.LANCHOR5
 553              	.LBE6:
 554              		.cfi_endproc
 555              	.LFE67:
 556              		.size	processDacI, .-processDacI
 557              		.global	newValues
 558              		.global	dacValues
 559              		.global	dac_queue
ARM GAS  C:\Users\z80\AppData\Local\Temp\cckqF1C0.s 			page 11


 560              		.global	dac_queue_buffer
 561              		.global	dac_tx_buffer
 562 00cc AFF30080 		.section	.data.dacValues,"aw",%progbits
 563              		.align	2
 564              		.set	.LANCHOR4,. + 0
 565              		.type	dacValues, %object
 566              		.size	dacValues, 16
 567              	dacValues:
 568 0000 FFFFFFFF 		.word	-1
 569 0004 FFFFFFFF 		.word	-1
 570 0008 FFFFFFFF 		.word	-1
 571 000c FFFFFFFF 		.word	-1
 572              		.section	.bss.dac_tx_buffer,"aw",%nobits
 573              		.align	2
 574              		.set	.LANCHOR5,. + 0
 575              		.type	dac_tx_buffer, %object
 576              		.size	dac_tx_buffer, 2
 577              	dac_tx_buffer:
 578 0000 0000     		.space	2
 579 0002 0000     		.section	.data.newValues,"aw",%progbits
 580              		.align	2
 581              		.set	.LANCHOR0,. + 0
 582              		.type	newValues, %object
 583              		.size	newValues, 16
 584              	newValues:
 585 0000 FFFFFFFF 		.word	-1
 586 0004 FFFFFFFF 		.word	-1
 587 0008 FFFFFFFF 		.word	-1
 588 000c FFFFFFFF 		.word	-1
 589              		.section	.bss.dac_queue,"aw",%nobits
 590              		.align	2
 591              		.set	.LANCHOR1,. + 0
 592              		.type	dac_queue, %object
 593              		.size	dac_queue, 32
 594              	dac_queue:
 595 0000 00000000 		.space	32
 595      00000000 
 595      00000000 
 595      00000000 
 595      00000000 
 596              		.section	.bss.dac_queue_buffer,"aw",%nobits
 597              		.align	2
 598              		.set	.LANCHOR2,. + 0
 599              		.type	dac_queue_buffer, %object
 600              		.size	dac_queue_buffer, 24
 601              	dac_queue_buffer:
 602 0000 00000000 		.space	24
 602      00000000 
 602      00000000 
 602      00000000 
 602      00000000 
 603              		.section	.data.hs_spicfg,"aw",%progbits
 604              		.align	2
 605              		.set	.LANCHOR3,. + 0
 606              		.type	hs_spicfg, %object
 607              		.size	hs_spicfg, 12
 608              	hs_spicfg:
ARM GAS  C:\Users\z80\AppData\Local\Temp\cckqF1C0.s 			page 12


 609 0000 00000000 		.word	onDacSpiComplete
 610 0004 000C0140 		.word	1073810432
 611 0008 0900     		.short	9
 612 000a 0000     		.short	0
 613              		.text
 614              	.Letext0:
 615              		.section	.debug_loc,"",%progbits
 616              	.Ldebug_loc0:
 617              	.LLST0:
 618 0000 00000000 		.4byte	.LFB68
 619 0004 02000000 		.4byte	.LCFI0
 620 0008 0200     		.2byte	0x2
 621 000a 7D       		.byte	0x7d
 622 000b 00       		.sleb128 0
 623 000c 02000000 		.4byte	.LCFI0
 624 0010 24000000 		.4byte	.LFE68
 625 0014 0200     		.2byte	0x2
 626 0016 7D       		.byte	0x7d
 627 0017 08       		.sleb128 8
 628 0018 00000000 		.4byte	0x0
 629 001c 00000000 		.4byte	0x0
 630              	.LLST1:
 631 0020 00000000 		.4byte	.LVL0
 632 0024 0B000000 		.4byte	.LVL3-1
 633 0028 0100     		.2byte	0x1
 634 002a 50       		.byte	0x50
 635 002b 00000000 		.4byte	0x0
 636 002f 00000000 		.4byte	0x0
 637              	.LLST2:
 638 0033 08000000 		.4byte	.LVL2
 639 0037 0B000000 		.4byte	.LVL3-1
 640 003b 0100     		.2byte	0x1
 641 003d 53       		.byte	0x53
 642 003e 00000000 		.4byte	0x0
 643 0042 00000000 		.4byte	0x0
 644              	.LLST3:
 645 0046 22000000 		.4byte	.LVL5
 646 004a 24000000 		.4byte	.LFE68
 647 004e 0100     		.2byte	0x1
 648 0050 53       		.byte	0x53
 649 0051 00000000 		.4byte	0x0
 650 0055 00000000 		.4byte	0x0
 651              	.LLST4:
 652 0059 00000000 		.4byte	.LVL6
 653 005d 06000000 		.4byte	.LVL7
 654 0061 0100     		.2byte	0x1
 655 0063 50       		.byte	0x50
 656 0064 00000000 		.4byte	0x0
 657 0068 00000000 		.4byte	0x0
 658              	.LLST5:
 659 006c 00000000 		.4byte	.LFB64
 660 0070 02000000 		.4byte	.LCFI1
 661 0074 0200     		.2byte	0x2
 662 0076 7D       		.byte	0x7d
 663 0077 00       		.sleb128 0
 664 0078 02000000 		.4byte	.LCFI1
 665 007c 54000000 		.4byte	.LFE64
ARM GAS  C:\Users\z80\AppData\Local\Temp\cckqF1C0.s 			page 13


 666 0080 0200     		.2byte	0x2
 667 0082 7D       		.byte	0x7d
 668 0083 18       		.sleb128 24
 669 0084 00000000 		.4byte	0x0
 670 0088 00000000 		.4byte	0x0
 671              	.LLST6:
 672 008c 00000000 		.4byte	.LVL8
 673 0090 11000000 		.4byte	.LVL11-1
 674 0094 0100     		.2byte	0x1
 675 0096 50       		.byte	0x50
 676 0097 11000000 		.4byte	.LVL11-1
 677 009b 54000000 		.4byte	.LFE64
 678 009f 0100     		.2byte	0x1
 679 00a1 56       		.byte	0x56
 680 00a2 00000000 		.4byte	0x0
 681 00a6 00000000 		.4byte	0x0
 682              	.LLST7:
 683 00aa 00000000 		.4byte	.LVL8
 684 00ae 11000000 		.4byte	.LVL11-1
 685 00b2 0100     		.2byte	0x1
 686 00b4 51       		.byte	0x51
 687 00b5 11000000 		.4byte	.LVL11-1
 688 00b9 54000000 		.4byte	.LFE64
 689 00bd 0100     		.2byte	0x1
 690 00bf 55       		.byte	0x55
 691 00c0 00000000 		.4byte	0x0
 692 00c4 00000000 		.4byte	0x0
 693              	.LLST8:
 694 00c8 24000000 		.4byte	.LVL16
 695 00cc 26000000 		.4byte	.LVL17
 696 00d0 0100     		.2byte	0x1
 697 00d2 50       		.byte	0x50
 698 00d3 4C000000 		.4byte	.LVL19
 699 00d7 54000000 		.4byte	.LFE64
 700 00db 0200     		.2byte	0x2
 701 00dd 30       		.byte	0x30
 702 00de 9F       		.byte	0x9f
 703 00df 00000000 		.4byte	0x0
 704 00e3 00000000 		.4byte	0x0
 705              	.LLST9:
 706 00e7 14000000 		.4byte	.LVL12
 707 00eb 17000000 		.4byte	.LVL13-1
 708 00ef 0500     		.2byte	0x5
 709 00f1 03       		.byte	0x3
 710 00f2 08000000 		.4byte	dac_queue+8
 711 00f6 17000000 		.4byte	.LVL13-1
 712 00fa 54000000 		.4byte	.LFE64
 713 00fe 0100     		.2byte	0x1
 714 0100 57       		.byte	0x57
 715 0101 00000000 		.4byte	0x0
 716 0105 00000000 		.4byte	0x0
 717              	.LLST10:
 718 0109 0C000000 		.4byte	.LVL10
 719 010d 11000000 		.4byte	.LVL11-1
 720 0111 0100     		.2byte	0x1
 721 0113 53       		.byte	0x53
 722 0114 00000000 		.4byte	0x0
ARM GAS  C:\Users\z80\AppData\Local\Temp\cckqF1C0.s 			page 14


 723 0118 00000000 		.4byte	0x0
 724              	.LLST11:
 725 011c 1E000000 		.4byte	.LVL15
 726 0120 31000000 		.4byte	.LVL18-1
 727 0124 0100     		.2byte	0x1
 728 0126 53       		.byte	0x53
 729 0127 00000000 		.4byte	0x0
 730 012b 00000000 		.4byte	0x0
 731              	.LLST12:
 732 012f 00000000 		.4byte	.LFB62
 733 0133 02000000 		.4byte	.LCFI2
 734 0137 0200     		.2byte	0x2
 735 0139 7D       		.byte	0x7d
 736 013a 00       		.sleb128 0
 737 013b 02000000 		.4byte	.LCFI2
 738 013f B6000000 		.4byte	.LFE62
 739 0143 0200     		.2byte	0x2
 740 0145 7D       		.byte	0x7d
 741 0146 18       		.sleb128 24
 742 0147 00000000 		.4byte	0x0
 743 014b 00000000 		.4byte	0x0
 744              	.LLST13:
 745 014f 00000000 		.4byte	.LFB65
 746 0153 02000000 		.4byte	.LCFI3
 747 0157 0200     		.2byte	0x2
 748 0159 7D       		.byte	0x7d
 749 015a 00       		.sleb128 0
 750 015b 02000000 		.4byte	.LCFI3
 751 015f 1C000000 		.4byte	.LFE65
 752 0163 0200     		.2byte	0x2
 753 0165 7D       		.byte	0x7d
 754 0166 10       		.sleb128 16
 755 0167 00000000 		.4byte	0x0
 756 016b 00000000 		.4byte	0x0
 757              	.LLST14:
 758 016f 00000000 		.4byte	.LVL20
 759 0173 08000000 		.4byte	.LVL21
 760 0177 0100     		.2byte	0x1
 761 0179 50       		.byte	0x50
 762 017a 08000000 		.4byte	.LVL21
 763 017e 0D000000 		.4byte	.LVL23-1
 764 0182 0100     		.2byte	0x1
 765 0184 53       		.byte	0x53
 766 0185 00000000 		.4byte	0x0
 767 0189 00000000 		.4byte	0x0
 768              	.LLST15:
 769 018d 00000000 		.4byte	.LVL20
 770 0191 0A000000 		.4byte	.LVL22
 771 0195 0100     		.2byte	0x1
 772 0197 51       		.byte	0x51
 773 0198 0A000000 		.4byte	.LVL22
 774 019c 1C000000 		.4byte	.LFE65
 775 01a0 0100     		.2byte	0x1
 776 01a2 55       		.byte	0x55
 777 01a3 00000000 		.4byte	0x0
 778 01a7 00000000 		.4byte	0x0
 779              	.LLST16:
ARM GAS  C:\Users\z80\AppData\Local\Temp\cckqF1C0.s 			page 15


 780 01ab 12000000 		.4byte	.LVL24
 781 01af 14000000 		.4byte	.LVL25
 782 01b3 0100     		.2byte	0x1
 783 01b5 50       		.byte	0x50
 784 01b6 14000000 		.4byte	.LVL25
 785 01ba 18000000 		.4byte	.LVL26
 786 01be 0100     		.2byte	0x1
 787 01c0 54       		.byte	0x54
 788 01c1 18000000 		.4byte	.LVL26
 789 01c5 1A000000 		.4byte	.LVL27
 790 01c9 0600     		.2byte	0x6
 791 01cb 70       		.byte	0x70
 792 01cc 00       		.sleb128 0
 793 01cd 74       		.byte	0x74
 794 01ce 00       		.sleb128 0
 795 01cf 22       		.byte	0x22
 796 01d0 9F       		.byte	0x9f
 797 01d1 1A000000 		.4byte	.LVL27
 798 01d5 1C000000 		.4byte	.LFE65
 799 01d9 0100     		.2byte	0x1
 800 01db 50       		.byte	0x50
 801 01dc 00000000 		.4byte	0x0
 802 01e0 00000000 		.4byte	0x0
 803              	.LLST17:
 804 01e4 00000000 		.4byte	.LFB66
 805 01e8 02000000 		.4byte	.LCFI4
 806 01ec 0200     		.2byte	0x2
 807 01ee 7D       		.byte	0x7d
 808 01ef 00       		.sleb128 0
 809 01f0 02000000 		.4byte	.LCFI4
 810 01f4 1C000000 		.4byte	.LFE66
 811 01f8 0200     		.2byte	0x2
 812 01fa 7D       		.byte	0x7d
 813 01fb 10       		.sleb128 16
 814 01fc 00000000 		.4byte	0x0
 815 0200 00000000 		.4byte	0x0
 816              	.LLST18:
 817 0204 00000000 		.4byte	.LVL28
 818 0208 08000000 		.4byte	.LVL29
 819 020c 0100     		.2byte	0x1
 820 020e 50       		.byte	0x50
 821 020f 08000000 		.4byte	.LVL29
 822 0213 0D000000 		.4byte	.LVL31-1
 823 0217 0100     		.2byte	0x1
 824 0219 53       		.byte	0x53
 825 021a 00000000 		.4byte	0x0
 826 021e 00000000 		.4byte	0x0
 827              	.LLST19:
 828 0222 00000000 		.4byte	.LVL28
 829 0226 0A000000 		.4byte	.LVL30
 830 022a 0100     		.2byte	0x1
 831 022c 51       		.byte	0x51
 832 022d 0A000000 		.4byte	.LVL30
 833 0231 1C000000 		.4byte	.LFE66
 834 0235 0100     		.2byte	0x1
 835 0237 55       		.byte	0x55
 836 0238 00000000 		.4byte	0x0
ARM GAS  C:\Users\z80\AppData\Local\Temp\cckqF1C0.s 			page 16


 837 023c 00000000 		.4byte	0x0
 838              	.LLST20:
 839 0240 12000000 		.4byte	.LVL32
 840 0244 14000000 		.4byte	.LVL33
 841 0248 0100     		.2byte	0x1
 842 024a 50       		.byte	0x50
 843 024b 14000000 		.4byte	.LVL33
 844 024f 18000000 		.4byte	.LVL34
 845 0253 0100     		.2byte	0x1
 846 0255 54       		.byte	0x54
 847 0256 18000000 		.4byte	.LVL34
 848 025a 1A000000 		.4byte	.LVL35
 849 025e 0600     		.2byte	0x6
 850 0260 70       		.byte	0x70
 851 0261 00       		.sleb128 0
 852 0262 74       		.byte	0x74
 853 0263 00       		.sleb128 0
 854 0264 22       		.byte	0x22
 855 0265 9F       		.byte	0x9f
 856 0266 1A000000 		.4byte	.LVL35
 857 026a 1C000000 		.4byte	.LFE66
 858 026e 0100     		.2byte	0x1
 859 0270 50       		.byte	0x50
 860 0271 00000000 		.4byte	0x0
 861 0275 00000000 		.4byte	0x0
 862              	.LLST21:
 863 0279 00000000 		.4byte	.LFB67
 864 027d 02000000 		.4byte	.LCFI5
 865 0281 0200     		.2byte	0x2
 866 0283 7D       		.byte	0x7d
 867 0284 00       		.sleb128 0
 868 0285 02000000 		.4byte	.LCFI5
 869 0289 CC000000 		.4byte	.LFE67
 870 028d 0200     		.2byte	0x2
 871 028f 7D       		.byte	0x7d
 872 0290 10       		.sleb128 16
 873 0291 00000000 		.4byte	0x0
 874 0295 00000000 		.4byte	0x0
 875              	.LLST22:
 876 0299 00000000 		.4byte	.LVL36
 877 029d 12000000 		.4byte	.LVL37
 878 02a1 1500     		.2byte	0x15
 879 02a3 03       		.byte	0x3
 880 02a4 10000000 		.4byte	dac_queue+16
 881 02a8 06       		.byte	0x6
 882 02a9 03       		.byte	0x3
 883 02aa 0C000000 		.4byte	dac_queue+12
 884 02ae 06       		.byte	0x6
 885 02af 1C       		.byte	0x1c
 886 02b0 03       		.byte	0x3
 887 02b1 08000000 		.4byte	dac_queue+8
 888 02b5 06       		.byte	0x6
 889 02b6 1C       		.byte	0x1c
 890 02b7 9F       		.byte	0x9f
 891 02b8 14000000 		.4byte	.LVL38
 892 02bc 19000000 		.4byte	.LVL39-1
 893 02c0 0100     		.2byte	0x1
ARM GAS  C:\Users\z80\AppData\Local\Temp\cckqF1C0.s 			page 17


 894 02c2 53       		.byte	0x53
 895 02c3 00000000 		.4byte	0x0
 896 02c7 00000000 		.4byte	0x0
 897              	.LLST23:
 898 02cb 1C000000 		.4byte	.LVL40
 899 02cf 1E000000 		.4byte	.LVL41
 900 02d3 0100     		.2byte	0x1
 901 02d5 50       		.byte	0x50
 902 02d6 1E000000 		.4byte	.LVL41
 903 02da 48000000 		.4byte	.LVL45
 904 02de 0100     		.2byte	0x1
 905 02e0 55       		.byte	0x55
 906 02e1 48000000 		.4byte	.LVL45
 907 02e5 7F000000 		.4byte	.LVL47-1
 908 02e9 0100     		.2byte	0x1
 909 02eb 52       		.byte	0x52
 910 02ec 90000000 		.4byte	.LVL48
 911 02f0 CC000000 		.4byte	.LFE67
 912 02f4 0100     		.2byte	0x1
 913 02f6 52       		.byte	0x52
 914 02f7 00000000 		.4byte	0x0
 915 02fb 00000000 		.4byte	0x0
 916              	.LLST24:
 917 02ff 1C000000 		.4byte	.LVL40
 918 0303 1E000000 		.4byte	.LVL41
 919 0307 0100     		.2byte	0x1
 920 0309 50       		.byte	0x50
 921 030a 1E000000 		.4byte	.LVL41
 922 030e 24000000 		.4byte	.LVL42
 923 0312 0100     		.2byte	0x1
 924 0314 55       		.byte	0x55
 925 0315 24000000 		.4byte	.LVL42
 926 0319 26000000 		.4byte	.LVL43
 927 031d 0100     		.2byte	0x1
 928 031f 50       		.byte	0x50
 929 0320 26000000 		.4byte	.LVL43
 930 0324 2A000000 		.4byte	.LVL44
 931 0328 0100     		.2byte	0x1
 932 032a 56       		.byte	0x56
 933 032b 2A000000 		.4byte	.LVL44
 934 032f 4A000000 		.4byte	.LVL46
 935 0333 0100     		.2byte	0x1
 936 0335 50       		.byte	0x50
 937 0336 00000000 		.4byte	0x0
 938 033a 00000000 		.4byte	0x0
 939              	.LLST25:
 940 033e 24000000 		.4byte	.LVL42
 941 0342 26000000 		.4byte	.LVL43
 942 0346 0100     		.2byte	0x1
 943 0348 50       		.byte	0x50
 944 0349 26000000 		.4byte	.LVL43
 945 034d 48000000 		.4byte	.LVL45
 946 0351 0100     		.2byte	0x1
 947 0353 56       		.byte	0x56
 948 0354 48000000 		.4byte	.LVL45
 949 0358 7F000000 		.4byte	.LVL47-1
 950 035c 0100     		.2byte	0x1
ARM GAS  C:\Users\z80\AppData\Local\Temp\cckqF1C0.s 			page 18


 951 035e 53       		.byte	0x53
 952 035f 90000000 		.4byte	.LVL48
 953 0363 CC000000 		.4byte	.LFE67
 954 0367 0100     		.2byte	0x1
 955 0369 53       		.byte	0x53
 956 036a 00000000 		.4byte	0x0
 957 036e 00000000 		.4byte	0x0
 958              		.file 2 "c:\\programs\\yagarto\\bin\\../lib/gcc/arm-none-eabi/4.5.0/include/stddef.h"
 959              		.file 3 "c:/programs/yagarto/lib/gcc/../../arm-none-eabi/sys-include/stdint.h"
 960              		.file 4 "../chibios_2.4.x/os/ports/GCC/ARMCMx/chtypes.h"
 961              		.file 5 "../chibios_2.4.x/os/kernel/include/chlists.h"
 962              		.file 6 "../chibios_2.4.x/os/kernel/include/chthreads.h"
 963              		.file 7 "../chibios_2.4.x/os/ports/GCC/ARMCMx/chcore_v7m.h"
 964              		.file 8 "../chibios_2.4.x/os/kernel/include/chmtx.h"
 965              		.file 9 "../chibios_2.4.x/os/kernel/include/chqueues.h"
 966              		.file 10 "../chibios_2.4.x/os/hal/platforms/STM32F1xx/stm32f10x.h"
 967              		.file 11 "../chibios_2.4.x/os/hal/platforms/STM32F1xx/stm32_dma.h"
 968              		.file 12 "../chibios_2.4.x/os/hal/platforms/STM32/GPIOv1/pal_lld.h"
 969              		.file 13 "../chibios_2.4.x/os/hal/include/spi.h"
 970              		.file 14 "../chibios_2.4.x/os/hal/platforms/STM32/spi_lld.h"
 971              		.file 15 "../chibios_2.4.x/os/ports/common/ARMCMx/CMSIS/include/core_cm3.h"
 972              		.section	.debug_info
 973 0000 800B0000 		.4byte	0xb80
 974 0004 0200     		.2byte	0x2
 975 0006 00000000 		.4byte	.Ldebug_abbrev0
 976 000a 04       		.byte	0x4
 977 000b 01       		.uleb128 0x1
 978 000c D0040000 		.4byte	.LASF132
 979 0010 01       		.byte	0x1
 980 0011 A0030000 		.4byte	.LASF133
 981 0015 18010000 		.4byte	.LASF134
 982 0019 00000000 		.4byte	0x0
 983 001d 00000000 		.4byte	0x0
 984 0021 00000000 		.4byte	.Ldebug_ranges0+0x0
 985 0025 00000000 		.4byte	.Ldebug_line0
 986 0029 02       		.uleb128 0x2
 987 002a 04       		.byte	0x4
 988 002b 05       		.byte	0x5
 989 002c 696E7400 		.ascii	"int\000"
 990 0030 03       		.uleb128 0x3
 991 0031 17000000 		.4byte	.LASF2
 992 0035 02       		.byte	0x2
 993 0036 D3       		.byte	0xd3
 994 0037 3B000000 		.4byte	0x3b
 995 003b 04       		.uleb128 0x4
 996 003c 04       		.byte	0x4
 997 003d 07       		.byte	0x7
 998 003e C6010000 		.4byte	.LASF0
 999 0042 04       		.uleb128 0x4
 1000 0043 01       		.byte	0x1
 1001 0044 06       		.byte	0x6
 1002 0045 E2000000 		.4byte	.LASF1
 1003 0049 03       		.uleb128 0x3
 1004 004a C8040000 		.4byte	.LASF3
 1005 004e 03       		.byte	0x3
 1006 004f 2A       		.byte	0x2a
 1007 0050 54000000 		.4byte	0x54
ARM GAS  C:\Users\z80\AppData\Local\Temp\cckqF1C0.s 			page 19


 1008 0054 04       		.uleb128 0x4
 1009 0055 01       		.byte	0x1
 1010 0056 08       		.byte	0x8
 1011 0057 3F030000 		.4byte	.LASF4
 1012 005b 04       		.uleb128 0x4
 1013 005c 02       		.byte	0x2
 1014 005d 05       		.byte	0x5
 1015 005e 70030000 		.4byte	.LASF5
 1016 0062 03       		.uleb128 0x3
 1017 0063 D3010000 		.4byte	.LASF6
 1018 0067 03       		.byte	0x3
 1019 0068 36       		.byte	0x36
 1020 0069 6D000000 		.4byte	0x6d
 1021 006d 04       		.uleb128 0x4
 1022 006e 02       		.byte	0x2
 1023 006f 07       		.byte	0x7
 1024 0070 05020000 		.4byte	.LASF7
 1025 0074 03       		.uleb128 0x3
 1026 0075 37030000 		.4byte	.LASF8
 1027 0079 03       		.byte	0x3
 1028 007a 4F       		.byte	0x4f
 1029 007b 7F000000 		.4byte	0x7f
 1030 007f 04       		.uleb128 0x4
 1031 0080 04       		.byte	0x4
 1032 0081 05       		.byte	0x5
 1033 0082 4B010000 		.4byte	.LASF9
 1034 0086 03       		.uleb128 0x3
 1035 0087 CB030000 		.4byte	.LASF10
 1036 008b 03       		.byte	0x3
 1037 008c 50       		.byte	0x50
 1038 008d 91000000 		.4byte	0x91
 1039 0091 04       		.uleb128 0x4
 1040 0092 04       		.byte	0x4
 1041 0093 07       		.byte	0x7
 1042 0094 FD030000 		.4byte	.LASF11
 1043 0098 04       		.uleb128 0x4
 1044 0099 08       		.byte	0x8
 1045 009a 05       		.byte	0x5
 1046 009b D4000000 		.4byte	.LASF12
 1047 009f 03       		.uleb128 0x3
 1048 00a0 2F000000 		.4byte	.LASF13
 1049 00a4 03       		.byte	0x3
 1050 00a5 78       		.byte	0x78
 1051 00a6 AA000000 		.4byte	0xaa
 1052 00aa 04       		.uleb128 0x4
 1053 00ab 08       		.byte	0x8
 1054 00ac 07       		.byte	0x7
 1055 00ad 62000000 		.4byte	.LASF14
 1056 00b1 03       		.uleb128 0x3
 1057 00b2 1E020000 		.4byte	.LASF15
 1058 00b6 04       		.byte	0x4
 1059 00b7 2F       		.byte	0x2f
 1060 00b8 49000000 		.4byte	0x49
 1061 00bc 03       		.uleb128 0x3
 1062 00bd 54010000 		.4byte	.LASF16
 1063 00c1 04       		.byte	0x4
 1064 00c2 30       		.byte	0x30
ARM GAS  C:\Users\z80\AppData\Local\Temp\cckqF1C0.s 			page 20


 1065 00c3 49000000 		.4byte	0x49
 1066 00c7 03       		.uleb128 0x3
 1067 00c8 27030000 		.4byte	.LASF17
 1068 00cc 04       		.byte	0x4
 1069 00cd 32       		.byte	0x32
 1070 00ce 86000000 		.4byte	0x86
 1071 00d2 03       		.uleb128 0x3
 1072 00d3 18020000 		.4byte	.LASF18
 1073 00d7 04       		.byte	0x4
 1074 00d8 33       		.byte	0x33
 1075 00d9 74000000 		.4byte	0x74
 1076 00dd 03       		.uleb128 0x3
 1077 00de 39020000 		.4byte	.LASF19
 1078 00e2 04       		.byte	0x4
 1079 00e3 35       		.byte	0x35
 1080 00e4 86000000 		.4byte	0x86
 1081 00e8 03       		.uleb128 0x3
 1082 00e9 4C040000 		.4byte	.LASF20
 1083 00ed 04       		.byte	0x4
 1084 00ee 36       		.byte	0x36
 1085 00ef 86000000 		.4byte	0x86
 1086 00f3 03       		.uleb128 0x3
 1087 00f4 71020000 		.4byte	.LASF21
 1088 00f8 05       		.byte	0x5
 1089 00f9 2A       		.byte	0x2a
 1090 00fa FE000000 		.4byte	0xfe
 1091 00fe 05       		.uleb128 0x5
 1092 00ff 71020000 		.4byte	.LASF21
 1093 0103 48       		.byte	0x48
 1094 0104 06       		.byte	0x6
 1095 0105 5E       		.byte	0x5e
 1096 0106 07020000 		.4byte	0x207
 1097 010a 06       		.uleb128 0x6
 1098 010b 89030000 		.4byte	.LASF22
 1099 010f 06       		.byte	0x6
 1100 0110 5F       		.byte	0x5f
 1101 0111 2C020000 		.4byte	0x22c
 1102 0115 02       		.byte	0x2
 1103 0116 23       		.byte	0x23
 1104 0117 00       		.uleb128 0x0
 1105 0118 06       		.uleb128 0x6
 1106 0119 02030000 		.4byte	.LASF23
 1107 011d 06       		.byte	0x6
 1108 011e 61       		.byte	0x61
 1109 011f 2C020000 		.4byte	0x22c
 1110 0123 02       		.byte	0x2
 1111 0124 23       		.byte	0x23
 1112 0125 04       		.uleb128 0x4
 1113 0126 06       		.uleb128 0x6
 1114 0127 BD000000 		.4byte	.LASF24
 1115 012b 06       		.byte	0x6
 1116 012c 63       		.byte	0x63
 1117 012d C7000000 		.4byte	0xc7
 1118 0131 02       		.byte	0x2
 1119 0132 23       		.byte	0x23
 1120 0133 08       		.uleb128 0x8
 1121 0134 06       		.uleb128 0x6
ARM GAS  C:\Users\z80\AppData\Local\Temp\cckqF1C0.s 			page 21


 1122 0135 1A050000 		.4byte	.LASF25
 1123 0139 06       		.byte	0x6
 1124 013a 64       		.byte	0x64
 1125 013b 04030000 		.4byte	0x304
 1126 013f 02       		.byte	0x2
 1127 0140 23       		.byte	0x23
 1128 0141 0C       		.uleb128 0xc
 1129 0142 06       		.uleb128 0x6
 1130 0143 75010000 		.4byte	.LASF26
 1131 0147 06       		.byte	0x6
 1132 0148 66       		.byte	0x66
 1133 0149 2C020000 		.4byte	0x22c
 1134 014d 02       		.byte	0x2
 1135 014e 23       		.byte	0x23
 1136 014f 10       		.uleb128 0x10
 1137 0150 06       		.uleb128 0x6
 1138 0151 9B020000 		.4byte	.LASF27
 1139 0155 06       		.byte	0x6
 1140 0156 67       		.byte	0x67
 1141 0157 2C020000 		.4byte	0x22c
 1142 015b 02       		.byte	0x2
 1143 015c 23       		.byte	0x23
 1144 015d 14       		.uleb128 0x14
 1145 015e 06       		.uleb128 0x6
 1146 015f E3040000 		.4byte	.LASF28
 1147 0163 06       		.byte	0x6
 1148 0164 6E       		.byte	0x6e
 1149 0165 B1030000 		.4byte	0x3b1
 1150 0169 02       		.byte	0x2
 1151 016a 23       		.byte	0x23
 1152 016b 18       		.uleb128 0x18
 1153 016c 06       		.uleb128 0x6
 1154 016d BB010000 		.4byte	.LASF29
 1155 0171 06       		.byte	0x6
 1156 0172 74       		.byte	0x74
 1157 0173 C3030000 		.4byte	0x3c3
 1158 0177 02       		.byte	0x2
 1159 0178 23       		.byte	0x23
 1160 0179 1C       		.uleb128 0x1c
 1161 017a 06       		.uleb128 0x6
 1162 017b 7A030000 		.4byte	.LASF30
 1163 017f 06       		.byte	0x6
 1164 0180 79       		.byte	0x79
 1165 0181 BC000000 		.4byte	0xbc
 1166 0185 02       		.byte	0x2
 1167 0186 23       		.byte	0x23
 1168 0187 20       		.uleb128 0x20
 1169 0188 06       		.uleb128 0x6
 1170 0189 90030000 		.4byte	.LASF31
 1171 018d 06       		.byte	0x6
 1172 018e 7D       		.byte	0x7d
 1173 018f B1000000 		.4byte	0xb1
 1174 0193 02       		.byte	0x2
 1175 0194 23       		.byte	0x23
 1176 0195 21       		.uleb128 0x21
 1177 0196 06       		.uleb128 0x6
 1178 0197 6E010000 		.4byte	.LASF32
ARM GAS  C:\Users\z80\AppData\Local\Temp\cckqF1C0.s 			page 22


 1179 019b 06       		.byte	0x6
 1180 019c 89       		.byte	0x89
 1181 019d 2F030000 		.4byte	0x32f
 1182 01a1 02       		.byte	0x2
 1183 01a2 23       		.byte	0x23
 1184 01a3 24       		.uleb128 0x24
 1185 01a4 07       		.uleb128 0x7
 1186 01a5 705F7500 		.ascii	"p_u\000"
 1187 01a9 06       		.byte	0x6
 1188 01aa AE       		.byte	0xae
 1189 01ab 7C030000 		.4byte	0x37c
 1190 01af 02       		.byte	0x2
 1191 01b0 23       		.byte	0x23
 1192 01b1 28       		.uleb128 0x28
 1193 01b2 06       		.uleb128 0x6
 1194 01b3 20050000 		.4byte	.LASF33
 1195 01b7 06       		.byte	0x6
 1196 01b8 B3       		.byte	0xb3
 1197 01b9 54020000 		.4byte	0x254
 1198 01bd 02       		.byte	0x2
 1199 01be 23       		.byte	0x23
 1200 01bf 2C       		.uleb128 0x2c
 1201 01c0 06       		.uleb128 0x6
 1202 01c1 E1010000 		.4byte	.LASF34
 1203 01c5 06       		.byte	0x6
 1204 01c6 B9       		.byte	0xb9
 1205 01c7 32020000 		.4byte	0x232
 1206 01cb 02       		.byte	0x2
 1207 01cc 23       		.byte	0x23
 1208 01cd 30       		.uleb128 0x30
 1209 01ce 06       		.uleb128 0x6
 1210 01cf 02050000 		.4byte	.LASF35
 1211 01d3 06       		.byte	0x6
 1212 01d4 BD       		.byte	0xbd
 1213 01d5 D2000000 		.4byte	0xd2
 1214 01d9 02       		.byte	0x2
 1215 01da 23       		.byte	0x23
 1216 01db 38       		.uleb128 0x38
 1217 01dc 06       		.uleb128 0x6
 1218 01dd B1030000 		.4byte	.LASF36
 1219 01e1 06       		.byte	0x6
 1220 01e2 C3       		.byte	0xc3
 1221 01e3 DD000000 		.4byte	0xdd
 1222 01e7 02       		.byte	0x2
 1223 01e8 23       		.byte	0x23
 1224 01e9 3C       		.uleb128 0x3c
 1225 01ea 06       		.uleb128 0x6
 1226 01eb 66030000 		.4byte	.LASF37
 1227 01ef 06       		.byte	0x6
 1228 01f0 CA       		.byte	0xca
 1229 01f1 C9030000 		.4byte	0x3c9
 1230 01f5 02       		.byte	0x2
 1231 01f6 23       		.byte	0x23
 1232 01f7 40       		.uleb128 0x40
 1233 01f8 06       		.uleb128 0x6
 1234 01f9 56040000 		.4byte	.LASF38
 1235 01fd 06       		.byte	0x6
ARM GAS  C:\Users\z80\AppData\Local\Temp\cckqF1C0.s 			page 23


 1236 01fe CE       		.byte	0xce
 1237 01ff C7000000 		.4byte	0xc7
 1238 0203 02       		.byte	0x2
 1239 0204 23       		.byte	0x23
 1240 0205 44       		.uleb128 0x44
 1241 0206 00       		.byte	0x0
 1242 0207 08       		.uleb128 0x8
 1243 0208 08       		.byte	0x8
 1244 0209 05       		.byte	0x5
 1245 020a 61       		.byte	0x61
 1246 020b 2C020000 		.4byte	0x22c
 1247 020f 06       		.uleb128 0x6
 1248 0210 89030000 		.4byte	.LASF22
 1249 0214 05       		.byte	0x5
 1250 0215 62       		.byte	0x62
 1251 0216 2C020000 		.4byte	0x22c
 1252 021a 02       		.byte	0x2
 1253 021b 23       		.byte	0x23
 1254 021c 00       		.uleb128 0x0
 1255 021d 06       		.uleb128 0x6
 1256 021e 02030000 		.4byte	.LASF23
 1257 0222 05       		.byte	0x5
 1258 0223 64       		.byte	0x64
 1259 0224 2C020000 		.4byte	0x22c
 1260 0228 02       		.byte	0x2
 1261 0229 23       		.byte	0x23
 1262 022a 04       		.uleb128 0x4
 1263 022b 00       		.byte	0x0
 1264 022c 09       		.uleb128 0x9
 1265 022d 04       		.byte	0x4
 1266 022e F3000000 		.4byte	0xf3
 1267 0232 03       		.uleb128 0x3
 1268 0233 78020000 		.4byte	.LASF39
 1269 0237 05       		.byte	0x5
 1270 0238 66       		.byte	0x66
 1271 0239 07020000 		.4byte	0x207
 1272 023d 08       		.uleb128 0x8
 1273 023e 04       		.byte	0x4
 1274 023f 05       		.byte	0x5
 1275 0240 6B       		.byte	0x6b
 1276 0241 54020000 		.4byte	0x254
 1277 0245 06       		.uleb128 0x6
 1278 0246 89030000 		.4byte	.LASF22
 1279 024a 05       		.byte	0x5
 1280 024b 6D       		.byte	0x6d
 1281 024c 2C020000 		.4byte	0x22c
 1282 0250 02       		.byte	0x2
 1283 0251 23       		.byte	0x23
 1284 0252 00       		.uleb128 0x0
 1285 0253 00       		.byte	0x0
 1286 0254 03       		.uleb128 0x3
 1287 0255 2D020000 		.4byte	.LASF40
 1288 0259 05       		.byte	0x5
 1289 025a 70       		.byte	0x70
 1290 025b 3D020000 		.4byte	0x23d
 1291 025f 03       		.uleb128 0x3
 1292 0260 94010000 		.4byte	.LASF41
ARM GAS  C:\Users\z80\AppData\Local\Temp\cckqF1C0.s 			page 24


 1293 0264 07       		.byte	0x7
 1294 0265 D7       		.byte	0xd7
 1295 0266 6A020000 		.4byte	0x26a
 1296 026a 0A       		.uleb128 0xa
 1297 026b 04       		.byte	0x4
 1298 026c 03       		.uleb128 0x3
 1299 026d 66020000 		.4byte	.LASF42
 1300 0271 07       		.byte	0x7
 1301 0272 DD       		.byte	0xdd
 1302 0273 9F000000 		.4byte	0x9f
 1303 0277 05       		.uleb128 0x5
 1304 0278 80040000 		.4byte	.LASF43
 1305 027c 24       		.byte	0x24
 1306 027d 07       		.byte	0x7
 1307 027e FE       		.byte	0xfe
 1308 027f 04030000 		.4byte	0x304
 1309 0283 0B       		.uleb128 0xb
 1310 0284 723400   		.ascii	"r4\000"
 1311 0287 07       		.byte	0x7
 1312 0288 1101     		.2byte	0x111
 1313 028a 5F020000 		.4byte	0x25f
 1314 028e 02       		.byte	0x2
 1315 028f 23       		.byte	0x23
 1316 0290 00       		.uleb128 0x0
 1317 0291 0B       		.uleb128 0xb
 1318 0292 723500   		.ascii	"r5\000"
 1319 0295 07       		.byte	0x7
 1320 0296 1201     		.2byte	0x112
 1321 0298 5F020000 		.4byte	0x25f
 1322 029c 02       		.byte	0x2
 1323 029d 23       		.byte	0x23
 1324 029e 04       		.uleb128 0x4
 1325 029f 0B       		.uleb128 0xb
 1326 02a0 723600   		.ascii	"r6\000"
 1327 02a3 07       		.byte	0x7
 1328 02a4 1301     		.2byte	0x113
 1329 02a6 5F020000 		.4byte	0x25f
 1330 02aa 02       		.byte	0x2
 1331 02ab 23       		.byte	0x23
 1332 02ac 08       		.uleb128 0x8
 1333 02ad 0B       		.uleb128 0xb
 1334 02ae 723700   		.ascii	"r7\000"
 1335 02b1 07       		.byte	0x7
 1336 02b2 1401     		.2byte	0x114
 1337 02b4 5F020000 		.4byte	0x25f
 1338 02b8 02       		.byte	0x2
 1339 02b9 23       		.byte	0x23
 1340 02ba 0C       		.uleb128 0xc
 1341 02bb 0B       		.uleb128 0xb
 1342 02bc 723800   		.ascii	"r8\000"
 1343 02bf 07       		.byte	0x7
 1344 02c0 1501     		.2byte	0x115
 1345 02c2 5F020000 		.4byte	0x25f
 1346 02c6 02       		.byte	0x2
 1347 02c7 23       		.byte	0x23
 1348 02c8 10       		.uleb128 0x10
 1349 02c9 0B       		.uleb128 0xb
ARM GAS  C:\Users\z80\AppData\Local\Temp\cckqF1C0.s 			page 25


 1350 02ca 723900   		.ascii	"r9\000"
 1351 02cd 07       		.byte	0x7
 1352 02ce 1601     		.2byte	0x116
 1353 02d0 5F020000 		.4byte	0x25f
 1354 02d4 02       		.byte	0x2
 1355 02d5 23       		.byte	0x23
 1356 02d6 14       		.uleb128 0x14
 1357 02d7 0B       		.uleb128 0xb
 1358 02d8 72313000 		.ascii	"r10\000"
 1359 02dc 07       		.byte	0x7
 1360 02dd 1701     		.2byte	0x117
 1361 02df 5F020000 		.4byte	0x25f
 1362 02e3 02       		.byte	0x2
 1363 02e4 23       		.byte	0x23
 1364 02e5 18       		.uleb128 0x18
 1365 02e6 0B       		.uleb128 0xb
 1366 02e7 72313100 		.ascii	"r11\000"
 1367 02eb 07       		.byte	0x7
 1368 02ec 1801     		.2byte	0x118
 1369 02ee 5F020000 		.4byte	0x25f
 1370 02f2 02       		.byte	0x2
 1371 02f3 23       		.byte	0x23
 1372 02f4 1C       		.uleb128 0x1c
 1373 02f5 0B       		.uleb128 0xb
 1374 02f6 6C7200   		.ascii	"lr\000"
 1375 02f9 07       		.byte	0x7
 1376 02fa 1901     		.2byte	0x119
 1377 02fc 5F020000 		.4byte	0x25f
 1378 0300 02       		.byte	0x2
 1379 0301 23       		.byte	0x23
 1380 0302 20       		.uleb128 0x20
 1381 0303 00       		.byte	0x0
 1382 0304 0C       		.uleb128 0xc
 1383 0305 6C040000 		.4byte	.LASF44
 1384 0309 04       		.byte	0x4
 1385 030a 07       		.byte	0x7
 1386 030b 2301     		.2byte	0x123
 1387 030d 21030000 		.4byte	0x321
 1388 0311 0B       		.uleb128 0xb
 1389 0312 72313300 		.ascii	"r13\000"
 1390 0316 07       		.byte	0x7
 1391 0317 2401     		.2byte	0x124
 1392 0319 21030000 		.4byte	0x321
 1393 031d 02       		.byte	0x2
 1394 031e 23       		.byte	0x23
 1395 031f 00       		.uleb128 0x0
 1396 0320 00       		.byte	0x0
 1397 0321 09       		.uleb128 0x9
 1398 0322 04       		.byte	0x4
 1399 0323 77020000 		.4byte	0x277
 1400 0327 0D       		.uleb128 0xd
 1401 0328 86000000 		.4byte	0x86
 1402 032c 0E       		.uleb128 0xe
 1403 032d 04       		.byte	0x4
 1404 032e 07       		.byte	0x7
 1405 032f 0D       		.uleb128 0xd
 1406 0330 E8000000 		.4byte	0xe8
ARM GAS  C:\Users\z80\AppData\Local\Temp\cckqF1C0.s 			page 26


 1407 0334 05       		.uleb128 0x5
 1408 0335 95020000 		.4byte	.LASF45
 1409 0339 10       		.byte	0x10
 1410 033a 08       		.byte	0x8
 1411 033b 2C       		.byte	0x2c
 1412 033c 6B030000 		.4byte	0x36b
 1413 0340 06       		.uleb128 0x6
 1414 0341 10010000 		.4byte	.LASF46
 1415 0345 08       		.byte	0x8
 1416 0346 2D       		.byte	0x2d
 1417 0347 32020000 		.4byte	0x232
 1418 034b 02       		.byte	0x2
 1419 034c 23       		.byte	0x23
 1420 034d 00       		.uleb128 0x0
 1421 034e 06       		.uleb128 0x6
 1422 034f 12050000 		.4byte	.LASF47
 1423 0353 08       		.byte	0x8
 1424 0354 2F       		.byte	0x2f
 1425 0355 2C020000 		.4byte	0x22c
 1426 0359 02       		.byte	0x2
 1427 035a 23       		.byte	0x23
 1428 035b 08       		.uleb128 0x8
 1429 035c 06       		.uleb128 0x6
 1430 035d 45040000 		.4byte	.LASF48
 1431 0361 08       		.byte	0x8
 1432 0362 31       		.byte	0x31
 1433 0363 6B030000 		.4byte	0x36b
 1434 0367 02       		.byte	0x2
 1435 0368 23       		.byte	0x23
 1436 0369 0C       		.uleb128 0xc
 1437 036a 00       		.byte	0x0
 1438 036b 09       		.uleb128 0x9
 1439 036c 04       		.byte	0x4
 1440 036d 34030000 		.4byte	0x334
 1441 0371 03       		.uleb128 0x3
 1442 0372 95020000 		.4byte	.LASF45
 1443 0376 08       		.byte	0x8
 1444 0377 33       		.byte	0x33
 1445 0378 34030000 		.4byte	0x334
 1446 037c 0F       		.uleb128 0xf
 1447 037d 04       		.byte	0x4
 1448 037e 06       		.byte	0x6
 1449 037f 90       		.byte	0x90
 1450 0380 B1030000 		.4byte	0x3b1
 1451 0384 10       		.uleb128 0x10
 1452 0385 1E000000 		.4byte	.LASF49
 1453 0389 06       		.byte	0x6
 1454 038a 97       		.byte	0x97
 1455 038b D2000000 		.4byte	0xd2
 1456 038f 10       		.uleb128 0x10
 1457 0390 7F000000 		.4byte	.LASF50
 1458 0394 06       		.byte	0x6
 1459 0395 9E       		.byte	0x9e
 1460 0396 D2000000 		.4byte	0xd2
 1461 039a 10       		.uleb128 0x10
 1462 039b DC040000 		.4byte	.LASF51
 1463 039f 06       		.byte	0x6
ARM GAS  C:\Users\z80\AppData\Local\Temp\cckqF1C0.s 			page 27


 1464 03a0 A5       		.byte	0xa5
 1465 03a1 6A020000 		.4byte	0x26a
 1466 03a5 10       		.uleb128 0x10
 1467 03a6 82030000 		.4byte	.LASF52
 1468 03aa 06       		.byte	0x6
 1469 03ab AC       		.byte	0xac
 1470 03ac DD000000 		.4byte	0xdd
 1471 03b0 00       		.byte	0x0
 1472 03b1 09       		.uleb128 0x9
 1473 03b2 04       		.byte	0x4
 1474 03b3 B7030000 		.4byte	0x3b7
 1475 03b7 11       		.uleb128 0x11
 1476 03b8 BC030000 		.4byte	0x3bc
 1477 03bc 04       		.uleb128 0x4
 1478 03bd 01       		.byte	0x1
 1479 03be 08       		.byte	0x8
 1480 03bf 1B040000 		.4byte	.LASF53
 1481 03c3 09       		.uleb128 0x9
 1482 03c4 04       		.byte	0x4
 1483 03c5 6C020000 		.4byte	0x26c
 1484 03c9 09       		.uleb128 0x9
 1485 03ca 04       		.byte	0x4
 1486 03cb 71030000 		.4byte	0x371
 1487 03cf 03       		.uleb128 0x3
 1488 03d0 4F020000 		.4byte	.LASF54
 1489 03d4 09       		.byte	0x9
 1490 03d5 37       		.byte	0x37
 1491 03d6 DA030000 		.4byte	0x3da
 1492 03da 05       		.uleb128 0x5
 1493 03db 4F020000 		.4byte	.LASF54
 1494 03df 20       		.byte	0x20
 1495 03e0 09       		.byte	0x9
 1496 03e1 45       		.byte	0x45
 1497 03e2 49040000 		.4byte	0x449
 1498 03e6 06       		.uleb128 0x6
 1499 03e7 CA000000 		.4byte	.LASF55
 1500 03eb 09       		.byte	0x9
 1501 03ec 46       		.byte	0x46
 1502 03ed 32020000 		.4byte	0x232
 1503 03f1 02       		.byte	0x2
 1504 03f2 23       		.byte	0x23
 1505 03f3 00       		.uleb128 0x0
 1506 03f4 06       		.uleb128 0x6
 1507 03f5 8B020000 		.4byte	.LASF56
 1508 03f9 09       		.byte	0x9
 1509 03fa 47       		.byte	0x47
 1510 03fb 30000000 		.4byte	0x30
 1511 03ff 02       		.byte	0x2
 1512 0400 23       		.byte	0x23
 1513 0401 08       		.uleb128 0x8
 1514 0402 06       		.uleb128 0x6
 1515 0403 5D010000 		.4byte	.LASF57
 1516 0407 09       		.byte	0x9
 1517 0408 48       		.byte	0x48
 1518 0409 6C040000 		.4byte	0x46c
 1519 040d 02       		.byte	0x2
 1520 040e 23       		.byte	0x23
ARM GAS  C:\Users\z80\AppData\Local\Temp\cckqF1C0.s 			page 28


 1521 040f 0C       		.uleb128 0xc
 1522 0410 06       		.uleb128 0x6
 1523 0411 9C040000 		.4byte	.LASF58
 1524 0415 09       		.byte	0x9
 1525 0416 49       		.byte	0x49
 1526 0417 6C040000 		.4byte	0x46c
 1527 041b 02       		.byte	0x2
 1528 041c 23       		.byte	0x23
 1529 041d 10       		.uleb128 0x10
 1530 041e 06       		.uleb128 0x6
 1531 041f 66010000 		.4byte	.LASF59
 1532 0423 09       		.byte	0x9
 1533 0424 4B       		.byte	0x4b
 1534 0425 6C040000 		.4byte	0x46c
 1535 0429 02       		.byte	0x2
 1536 042a 23       		.byte	0x23
 1537 042b 14       		.uleb128 0x14
 1538 042c 06       		.uleb128 0x6
 1539 042d 2F030000 		.4byte	.LASF60
 1540 0431 09       		.byte	0x9
 1541 0432 4C       		.byte	0x4c
 1542 0433 6C040000 		.4byte	0x46c
 1543 0437 02       		.byte	0x2
 1544 0438 23       		.byte	0x23
 1545 0439 18       		.uleb128 0x18
 1546 043a 06       		.uleb128 0x6
 1547 043b BF040000 		.4byte	.LASF61
 1548 043f 09       		.byte	0x9
 1549 0440 4D       		.byte	0x4d
 1550 0441 49040000 		.4byte	0x449
 1551 0445 02       		.byte	0x2
 1552 0446 23       		.byte	0x23
 1553 0447 1C       		.uleb128 0x1c
 1554 0448 00       		.byte	0x0
 1555 0449 03       		.uleb128 0x3
 1556 044a 45020000 		.4byte	.LASF62
 1557 044e 09       		.byte	0x9
 1558 044f 3A       		.byte	0x3a
 1559 0450 54040000 		.4byte	0x454
 1560 0454 09       		.uleb128 0x9
 1561 0455 04       		.byte	0x4
 1562 0456 5A040000 		.4byte	0x45a
 1563 045a 12       		.uleb128 0x12
 1564 045b 01       		.byte	0x1
 1565 045c 66040000 		.4byte	0x466
 1566 0460 13       		.uleb128 0x13
 1567 0461 66040000 		.4byte	0x466
 1568 0465 00       		.byte	0x0
 1569 0466 09       		.uleb128 0x9
 1570 0467 04       		.byte	0x4
 1571 0468 CF030000 		.4byte	0x3cf
 1572 046c 09       		.uleb128 0x9
 1573 046d 04       		.byte	0x4
 1574 046e 49000000 		.4byte	0x49
 1575 0472 03       		.uleb128 0x3
 1576 0473 38000000 		.4byte	.LASF63
 1577 0477 09       		.byte	0x9
ARM GAS  C:\Users\z80\AppData\Local\Temp\cckqF1C0.s 			page 29


 1578 0478 E6       		.byte	0xe6
 1579 0479 CF030000 		.4byte	0x3cf
 1580 047d 0D       		.uleb128 0xd
 1581 047e 62000000 		.4byte	0x62
 1582 0482 0D       		.uleb128 0xd
 1583 0483 74000000 		.4byte	0x74
 1584 0487 14       		.uleb128 0x14
 1585 0488 10       		.byte	0x10
 1586 0489 0A       		.byte	0xa
 1587 048a 2D03     		.2byte	0x32d
 1588 048c CD040000 		.4byte	0x4cd
 1589 0490 0B       		.uleb128 0xb
 1590 0491 43435200 		.ascii	"CCR\000"
 1591 0495 0A       		.byte	0xa
 1592 0496 2F03     		.2byte	0x32f
 1593 0498 27030000 		.4byte	0x327
 1594 049c 02       		.byte	0x2
 1595 049d 23       		.byte	0x23
 1596 049e 00       		.uleb128 0x0
 1597 049f 15       		.uleb128 0x15
 1598 04a0 B4040000 		.4byte	.LASF64
 1599 04a4 0A       		.byte	0xa
 1600 04a5 3003     		.2byte	0x330
 1601 04a7 27030000 		.4byte	0x327
 1602 04ab 02       		.byte	0x2
 1603 04ac 23       		.byte	0x23
 1604 04ad 04       		.uleb128 0x4
 1605 04ae 15       		.uleb128 0x15
 1606 04af DC010000 		.4byte	.LASF65
 1607 04b3 0A       		.byte	0xa
 1608 04b4 3103     		.2byte	0x331
 1609 04b6 27030000 		.4byte	0x327
 1610 04ba 02       		.byte	0x2
 1611 04bb 23       		.byte	0x23
 1612 04bc 08       		.uleb128 0x8
 1613 04bd 15       		.uleb128 0x15
 1614 04be BA040000 		.4byte	.LASF66
 1615 04c2 0A       		.byte	0xa
 1616 04c3 3203     		.2byte	0x332
 1617 04c5 27030000 		.4byte	0x327
 1618 04c9 02       		.byte	0x2
 1619 04ca 23       		.byte	0x23
 1620 04cb 0C       		.uleb128 0xc
 1621 04cc 00       		.byte	0x0
 1622 04cd 16       		.uleb128 0x16
 1623 04ce B5020000 		.4byte	.LASF67
 1624 04d2 0A       		.byte	0xa
 1625 04d3 3303     		.2byte	0x333
 1626 04d5 87040000 		.4byte	0x487
 1627 04d9 14       		.uleb128 0x14
 1628 04da 1C       		.byte	0x1c
 1629 04db 0A       		.byte	0xa
 1630 04dc F803     		.2byte	0x3f8
 1631 04de 4C050000 		.4byte	0x54c
 1632 04e2 0B       		.uleb128 0xb
 1633 04e3 43524C00 		.ascii	"CRL\000"
 1634 04e7 0A       		.byte	0xa
ARM GAS  C:\Users\z80\AppData\Local\Temp\cckqF1C0.s 			page 30


 1635 04e8 FA03     		.2byte	0x3fa
 1636 04ea 27030000 		.4byte	0x327
 1637 04ee 02       		.byte	0x2
 1638 04ef 23       		.byte	0x23
 1639 04f0 00       		.uleb128 0x0
 1640 04f1 0B       		.uleb128 0xb
 1641 04f2 43524800 		.ascii	"CRH\000"
 1642 04f6 0A       		.byte	0xa
 1643 04f7 FB03     		.2byte	0x3fb
 1644 04f9 27030000 		.4byte	0x327
 1645 04fd 02       		.byte	0x2
 1646 04fe 23       		.byte	0x23
 1647 04ff 04       		.uleb128 0x4
 1648 0500 0B       		.uleb128 0xb
 1649 0501 49445200 		.ascii	"IDR\000"
 1650 0505 0A       		.byte	0xa
 1651 0506 FC03     		.2byte	0x3fc
 1652 0508 27030000 		.4byte	0x327
 1653 050c 02       		.byte	0x2
 1654 050d 23       		.byte	0x23
 1655 050e 08       		.uleb128 0x8
 1656 050f 0B       		.uleb128 0xb
 1657 0510 4F445200 		.ascii	"ODR\000"
 1658 0514 0A       		.byte	0xa
 1659 0515 FD03     		.2byte	0x3fd
 1660 0517 27030000 		.4byte	0x327
 1661 051b 02       		.byte	0x2
 1662 051c 23       		.byte	0x23
 1663 051d 0C       		.uleb128 0xc
 1664 051e 15       		.uleb128 0x15
 1665 051f A2040000 		.4byte	.LASF68
 1666 0523 0A       		.byte	0xa
 1667 0524 FE03     		.2byte	0x3fe
 1668 0526 27030000 		.4byte	0x327
 1669 052a 02       		.byte	0x2
 1670 052b 23       		.byte	0x23
 1671 052c 10       		.uleb128 0x10
 1672 052d 0B       		.uleb128 0xb
 1673 052e 42525200 		.ascii	"BRR\000"
 1674 0532 0A       		.byte	0xa
 1675 0533 FF03     		.2byte	0x3ff
 1676 0535 27030000 		.4byte	0x327
 1677 0539 02       		.byte	0x2
 1678 053a 23       		.byte	0x23
 1679 053b 14       		.uleb128 0x14
 1680 053c 15       		.uleb128 0x15
 1681 053d F9010000 		.4byte	.LASF69
 1682 0541 0A       		.byte	0xa
 1683 0542 0004     		.2byte	0x400
 1684 0544 27030000 		.4byte	0x327
 1685 0548 02       		.byte	0x2
 1686 0549 23       		.byte	0x23
 1687 054a 18       		.uleb128 0x18
 1688 054b 00       		.byte	0x0
 1689 054c 16       		.uleb128 0x16
 1690 054d EC010000 		.4byte	.LASF70
 1691 0551 0A       		.byte	0xa
ARM GAS  C:\Users\z80\AppData\Local\Temp\cckqF1C0.s 			page 31


 1692 0552 0104     		.2byte	0x401
 1693 0554 D9040000 		.4byte	0x4d9
 1694 0558 14       		.uleb128 0x14
 1695 0559 24       		.byte	0x24
 1696 055a 0A       		.byte	0xa
 1697 055b 9704     		.2byte	0x497
 1698 055d 6E060000 		.4byte	0x66e
 1699 0561 0B       		.uleb128 0xb
 1700 0562 43523100 		.ascii	"CR1\000"
 1701 0566 0A       		.byte	0xa
 1702 0567 9904     		.2byte	0x499
 1703 0569 7D040000 		.4byte	0x47d
 1704 056d 02       		.byte	0x2
 1705 056e 23       		.byte	0x23
 1706 056f 00       		.uleb128 0x0
 1707 0570 15       		.uleb128 0x15
 1708 0571 D0020000 		.4byte	.LASF71
 1709 0575 0A       		.byte	0xa
 1710 0576 9A04     		.2byte	0x49a
 1711 0578 62000000 		.4byte	0x62
 1712 057c 02       		.byte	0x2
 1713 057d 23       		.byte	0x23
 1714 057e 02       		.uleb128 0x2
 1715 057f 0B       		.uleb128 0xb
 1716 0580 43523200 		.ascii	"CR2\000"
 1717 0584 0A       		.byte	0xa
 1718 0585 9B04     		.2byte	0x49b
 1719 0587 7D040000 		.4byte	0x47d
 1720 058b 02       		.byte	0x2
 1721 058c 23       		.byte	0x23
 1722 058d 04       		.uleb128 0x4
 1723 058e 15       		.uleb128 0x15
 1724 058f DA020000 		.4byte	.LASF72
 1725 0593 0A       		.byte	0xa
 1726 0594 9C04     		.2byte	0x49c
 1727 0596 62000000 		.4byte	0x62
 1728 059a 02       		.byte	0x2
 1729 059b 23       		.byte	0x23
 1730 059c 06       		.uleb128 0x6
 1731 059d 0B       		.uleb128 0xb
 1732 059e 535200   		.ascii	"SR\000"
 1733 05a1 0A       		.byte	0xa
 1734 05a2 9D04     		.2byte	0x49d
 1735 05a4 7D040000 		.4byte	0x47d
 1736 05a8 02       		.byte	0x2
 1737 05a9 23       		.byte	0x23
 1738 05aa 08       		.uleb128 0x8
 1739 05ab 15       		.uleb128 0x15
 1740 05ac E4020000 		.4byte	.LASF73
 1741 05b0 0A       		.byte	0xa
 1742 05b1 9E04     		.2byte	0x49e
 1743 05b3 62000000 		.4byte	0x62
 1744 05b7 02       		.byte	0x2
 1745 05b8 23       		.byte	0x23
 1746 05b9 0A       		.uleb128 0xa
 1747 05ba 0B       		.uleb128 0xb
 1748 05bb 445200   		.ascii	"DR\000"
ARM GAS  C:\Users\z80\AppData\Local\Temp\cckqF1C0.s 			page 32


 1749 05be 0A       		.byte	0xa
 1750 05bf 9F04     		.2byte	0x49f
 1751 05c1 7D040000 		.4byte	0x47d
 1752 05c5 02       		.byte	0x2
 1753 05c6 23       		.byte	0x23
 1754 05c7 0C       		.uleb128 0xc
 1755 05c8 15       		.uleb128 0x15
 1756 05c9 EE020000 		.4byte	.LASF74
 1757 05cd 0A       		.byte	0xa
 1758 05ce A004     		.2byte	0x4a0
 1759 05d0 62000000 		.4byte	0x62
 1760 05d4 02       		.byte	0x2
 1761 05d5 23       		.byte	0x23
 1762 05d6 0E       		.uleb128 0xe
 1763 05d7 15       		.uleb128 0x15
 1764 05d8 79000000 		.4byte	.LASF75
 1765 05dc 0A       		.byte	0xa
 1766 05dd A104     		.2byte	0x4a1
 1767 05df 7D040000 		.4byte	0x47d
 1768 05e3 02       		.byte	0x2
 1769 05e4 23       		.byte	0x23
 1770 05e5 10       		.uleb128 0x10
 1771 05e6 15       		.uleb128 0x15
 1772 05e7 F8020000 		.4byte	.LASF76
 1773 05eb 0A       		.byte	0xa
 1774 05ec A204     		.2byte	0x4a2
 1775 05ee 62000000 		.4byte	0x62
 1776 05f2 02       		.byte	0x2
 1777 05f3 23       		.byte	0x23
 1778 05f4 12       		.uleb128 0x12
 1779 05f5 15       		.uleb128 0x15
 1780 05f6 E5030000 		.4byte	.LASF77
 1781 05fa 0A       		.byte	0xa
 1782 05fb A304     		.2byte	0x4a3
 1783 05fd 7D040000 		.4byte	0x47d
 1784 0601 02       		.byte	0x2
 1785 0602 23       		.byte	0x23
 1786 0603 14       		.uleb128 0x14
 1787 0604 15       		.uleb128 0x15
 1788 0605 C1030000 		.4byte	.LASF78
 1789 0609 0A       		.byte	0xa
 1790 060a A404     		.2byte	0x4a4
 1791 060c 62000000 		.4byte	0x62
 1792 0610 02       		.byte	0x2
 1793 0611 23       		.byte	0x23
 1794 0612 16       		.uleb128 0x16
 1795 0613 15       		.uleb128 0x15
 1796 0614 C9020000 		.4byte	.LASF79
 1797 0618 0A       		.byte	0xa
 1798 0619 A504     		.2byte	0x4a5
 1799 061b 7D040000 		.4byte	0x47d
 1800 061f 02       		.byte	0x2
 1801 0620 23       		.byte	0x23
 1802 0621 18       		.uleb128 0x18
 1803 0622 15       		.uleb128 0x15
 1804 0623 09030000 		.4byte	.LASF80
 1805 0627 0A       		.byte	0xa
ARM GAS  C:\Users\z80\AppData\Local\Temp\cckqF1C0.s 			page 33


 1806 0628 A604     		.2byte	0x4a6
 1807 062a 62000000 		.4byte	0x62
 1808 062e 02       		.byte	0x2
 1809 062f 23       		.byte	0x23
 1810 0630 1A       		.uleb128 0x1a
 1811 0631 15       		.uleb128 0x15
 1812 0632 08010000 		.4byte	.LASF81
 1813 0636 0A       		.byte	0xa
 1814 0637 A704     		.2byte	0x4a7
 1815 0639 7D040000 		.4byte	0x47d
 1816 063d 02       		.byte	0x2
 1817 063e 23       		.byte	0x23
 1818 063f 1C       		.uleb128 0x1c
 1819 0640 15       		.uleb128 0x15
 1820 0641 13030000 		.4byte	.LASF82
 1821 0645 0A       		.byte	0xa
 1822 0646 A804     		.2byte	0x4a8
 1823 0648 62000000 		.4byte	0x62
 1824 064c 02       		.byte	0x2
 1825 064d 23       		.byte	0x23
 1826 064e 1E       		.uleb128 0x1e
 1827 064f 15       		.uleb128 0x15
 1828 0650 85020000 		.4byte	.LASF83
 1829 0654 0A       		.byte	0xa
 1830 0655 A904     		.2byte	0x4a9
 1831 0657 7D040000 		.4byte	0x47d
 1832 065b 02       		.byte	0x2
 1833 065c 23       		.byte	0x23
 1834 065d 20       		.uleb128 0x20
 1835 065e 15       		.uleb128 0x15
 1836 065f 1D030000 		.4byte	.LASF84
 1837 0663 0A       		.byte	0xa
 1838 0664 AA04     		.2byte	0x4aa
 1839 0666 62000000 		.4byte	0x62
 1840 066a 02       		.byte	0x2
 1841 066b 23       		.byte	0x23
 1842 066c 22       		.uleb128 0x22
 1843 066d 00       		.byte	0x0
 1844 066e 16       		.uleb128 0x16
 1845 066f 0F040000 		.4byte	.LASF85
 1846 0673 0A       		.byte	0xa
 1847 0674 AB04     		.2byte	0x4ab
 1848 0676 58050000 		.4byte	0x558
 1849 067a 08       		.uleb128 0x8
 1850 067b 0C       		.byte	0xc
 1851 067c 0B       		.byte	0xb
 1852 067d C2       		.byte	0xc2
 1853 067e C9060000 		.4byte	0x6c9
 1854 0682 06       		.uleb128 0x6
 1855 0683 98030000 		.4byte	.LASF86
 1856 0687 0B       		.byte	0xb
 1857 0688 C3       		.byte	0xc3
 1858 0689 C9060000 		.4byte	0x6c9
 1859 068d 02       		.byte	0x2
 1860 068e 23       		.byte	0x23
 1861 068f 00       		.uleb128 0x0
 1862 0690 06       		.uleb128 0x6
ARM GAS  C:\Users\z80\AppData\Local\Temp\cckqF1C0.s 			page 34


 1863 0691 BC030000 		.4byte	.LASF87
 1864 0695 0B       		.byte	0xb
 1865 0696 C4       		.byte	0xc4
 1866 0697 CF060000 		.4byte	0x6cf
 1867 069b 02       		.byte	0x2
 1868 069c 23       		.byte	0x23
 1869 069d 04       		.uleb128 0x4
 1870 069e 06       		.uleb128 0x6
 1871 069f FE010000 		.4byte	.LASF88
 1872 06a3 0B       		.byte	0xb
 1873 06a4 C5       		.byte	0xc5
 1874 06a5 49000000 		.4byte	0x49
 1875 06a9 02       		.byte	0x2
 1876 06aa 23       		.byte	0x23
 1877 06ab 08       		.uleb128 0x8
 1878 06ac 06       		.uleb128 0x6
 1879 06ad 9D010000 		.4byte	.LASF89
 1880 06b1 0B       		.byte	0xb
 1881 06b2 C7       		.byte	0xc7
 1882 06b3 49000000 		.4byte	0x49
 1883 06b7 02       		.byte	0x2
 1884 06b8 23       		.byte	0x23
 1885 06b9 09       		.uleb128 0x9
 1886 06ba 06       		.uleb128 0x6
 1887 06bb 88000000 		.4byte	.LASF90
 1888 06bf 0B       		.byte	0xb
 1889 06c0 C8       		.byte	0xc8
 1890 06c1 49000000 		.4byte	0x49
 1891 06c5 02       		.byte	0x2
 1892 06c6 23       		.byte	0x23
 1893 06c7 0A       		.uleb128 0xa
 1894 06c8 00       		.byte	0x0
 1895 06c9 09       		.uleb128 0x9
 1896 06ca 04       		.byte	0x4
 1897 06cb CD040000 		.4byte	0x4cd
 1898 06cf 09       		.uleb128 0x9
 1899 06d0 04       		.byte	0x4
 1900 06d1 27030000 		.4byte	0x327
 1901 06d5 03       		.uleb128 0x3
 1902 06d6 4D030000 		.4byte	.LASF91
 1903 06da 0B       		.byte	0xb
 1904 06db C9       		.byte	0xc9
 1905 06dc 7A060000 		.4byte	0x67a
 1906 06e0 03       		.uleb128 0x3
 1907 06e1 4F000000 		.4byte	.LASF92
 1908 06e5 0C       		.byte	0xc
 1909 06e6 78       		.byte	0x78
 1910 06e7 86000000 		.4byte	0x86
 1911 06eb 03       		.uleb128 0x3
 1912 06ec 61040000 		.4byte	.LASF93
 1913 06f0 0C       		.byte	0xc
 1914 06f1 85       		.byte	0x85
 1915 06f2 F6060000 		.4byte	0x6f6
 1916 06f6 09       		.uleb128 0x9
 1917 06f7 04       		.byte	0x4
 1918 06f8 4C050000 		.4byte	0x54c
 1919 06fc 17       		.uleb128 0x17
ARM GAS  C:\Users\z80\AppData\Local\Temp\cckqF1C0.s 			page 35


 1920 06fd 01       		.byte	0x1
 1921 06fe 0D       		.byte	0xd
 1922 06ff 55       		.byte	0x55
 1923 0700 23070000 		.4byte	0x723
 1924 0704 18       		.uleb128 0x18
 1925 0705 91040000 		.4byte	.LASF94
 1926 0709 00       		.sleb128 0
 1927 070a 18       		.uleb128 0x18
 1928 070b FF000000 		.4byte	.LASF95
 1929 070f 01       		.sleb128 1
 1930 0710 18       		.uleb128 0x18
 1931 0711 87040000 		.4byte	.LASF96
 1932 0715 02       		.sleb128 2
 1933 0716 18       		.uleb128 0x18
 1934 0717 44000000 		.4byte	.LASF97
 1935 071b 03       		.sleb128 3
 1936 071c 18       		.uleb128 0x18
 1937 071d 20040000 		.4byte	.LASF98
 1938 0721 04       		.sleb128 4
 1939 0722 00       		.byte	0x0
 1940 0723 03       		.uleb128 0x3
 1941 0724 3A040000 		.4byte	.LASF99
 1942 0728 0D       		.byte	0xd
 1943 0729 5B       		.byte	0x5b
 1944 072a FC060000 		.4byte	0x6fc
 1945 072e 16       		.uleb128 0x16
 1946 072f 8F000000 		.4byte	.LASF100
 1947 0733 0E       		.byte	0xe
 1948 0734 0701     		.2byte	0x107
 1949 0736 3A070000 		.4byte	0x73a
 1950 073a 0C       		.uleb128 0xc
 1951 073b 8F000000 		.4byte	.LASF100
 1952 073f 1C       		.byte	0x1c
 1953 0740 0E       		.byte	0xe
 1954 0741 2B01     		.2byte	0x12b
 1955 0743 B1070000 		.4byte	0x7b1
 1956 0747 15       		.uleb128 0x15
 1957 0748 45010000 		.4byte	.LASF101
 1958 074c 0E       		.byte	0xe
 1959 074d 2F01     		.2byte	0x12f
 1960 074f 23070000 		.4byte	0x723
 1961 0753 02       		.byte	0x2
 1962 0754 23       		.byte	0x23
 1963 0755 00       		.uleb128 0x0
 1964 0756 15       		.uleb128 0x15
 1965 0757 2D040000 		.4byte	.LASF102
 1966 075b 0E       		.byte	0xe
 1967 075c 3301     		.2byte	0x133
 1968 075e 27080000 		.4byte	0x827
 1969 0762 02       		.byte	0x2
 1970 0763 23       		.byte	0x23
 1971 0764 04       		.uleb128 0x4
 1972 0765 0B       		.uleb128 0xb
 1973 0766 73706900 		.ascii	"spi\000"
 1974 076a 0E       		.byte	0xe
 1975 076b 4B01     		.2byte	0x14b
 1976 076d 32080000 		.4byte	0x832
ARM GAS  C:\Users\z80\AppData\Local\Temp\cckqF1C0.s 			page 36


 1977 0771 02       		.byte	0x2
 1978 0772 23       		.byte	0x23
 1979 0773 08       		.uleb128 0x8
 1980 0774 15       		.uleb128 0x15
 1981 0775 00000000 		.4byte	.LASF103
 1982 0779 0E       		.byte	0xe
 1983 077a 4F01     		.2byte	0x14f
 1984 077c 38080000 		.4byte	0x838
 1985 0780 02       		.byte	0x2
 1986 0781 23       		.byte	0x23
 1987 0782 0C       		.uleb128 0xc
 1988 0783 15       		.uleb128 0x15
 1989 0784 8E010000 		.4byte	.LASF104
 1990 0788 0E       		.byte	0xe
 1991 0789 5301     		.2byte	0x153
 1992 078b 38080000 		.4byte	0x838
 1993 078f 02       		.byte	0x2
 1994 0790 23       		.byte	0x23
 1995 0791 10       		.uleb128 0x10
 1996 0792 15       		.uleb128 0x15
 1997 0793 84010000 		.4byte	.LASF105
 1998 0797 0E       		.byte	0xe
 1999 0798 5701     		.2byte	0x157
 2000 079a 86000000 		.4byte	0x86
 2001 079e 02       		.byte	0x2
 2002 079f 23       		.byte	0x23
 2003 07a0 14       		.uleb128 0x14
 2004 07a1 15       		.uleb128 0x15
 2005 07a2 AB020000 		.4byte	.LASF106
 2006 07a6 0E       		.byte	0xe
 2007 07a7 5B01     		.2byte	0x15b
 2008 07a9 86000000 		.4byte	0x86
 2009 07ad 02       		.byte	0x2
 2010 07ae 23       		.byte	0x23
 2011 07af 18       		.uleb128 0x18
 2012 07b0 00       		.byte	0x0
 2013 07b1 16       		.uleb128 0x16
 2014 07b2 A7010000 		.4byte	.LASF107
 2015 07b6 0E       		.byte	0xe
 2016 07b7 0F01     		.2byte	0x10f
 2017 07b9 BD070000 		.4byte	0x7bd
 2018 07bd 09       		.uleb128 0x9
 2019 07be 04       		.byte	0x4
 2020 07bf C3070000 		.4byte	0x7c3
 2021 07c3 12       		.uleb128 0x12
 2022 07c4 01       		.byte	0x1
 2023 07c5 CF070000 		.4byte	0x7cf
 2024 07c9 13       		.uleb128 0x13
 2025 07ca CF070000 		.4byte	0x7cf
 2026 07ce 00       		.byte	0x0
 2027 07cf 09       		.uleb128 0x9
 2028 07d0 04       		.byte	0x4
 2029 07d1 2E070000 		.4byte	0x72e
 2030 07d5 14       		.uleb128 0x14
 2031 07d6 0C       		.byte	0xc
 2032 07d7 0E       		.byte	0xe
 2033 07d8 1401     		.2byte	0x114
ARM GAS  C:\Users\z80\AppData\Local\Temp\cckqF1C0.s 			page 37


 2034 07da 1B080000 		.4byte	0x81b
 2035 07de 15       		.uleb128 0x15
 2036 07df 7D010000 		.4byte	.LASF108
 2037 07e3 0E       		.byte	0xe
 2038 07e4 1801     		.2byte	0x118
 2039 07e6 B1070000 		.4byte	0x7b1
 2040 07ea 02       		.byte	0x2
 2041 07eb 23       		.byte	0x23
 2042 07ec 00       		.uleb128 0x0
 2043 07ed 15       		.uleb128 0x15
 2044 07ee 99000000 		.4byte	.LASF109
 2045 07f2 0E       		.byte	0xe
 2046 07f3 1D01     		.2byte	0x11d
 2047 07f5 EB060000 		.4byte	0x6eb
 2048 07f9 02       		.byte	0x2
 2049 07fa 23       		.byte	0x23
 2050 07fb 04       		.uleb128 0x4
 2051 07fc 15       		.uleb128 0x15
 2052 07fd 5C000000 		.4byte	.LASF110
 2053 0801 0E       		.byte	0xe
 2054 0802 2101     		.2byte	0x121
 2055 0804 62000000 		.4byte	0x62
 2056 0808 02       		.byte	0x2
 2057 0809 23       		.byte	0x23
 2058 080a 08       		.uleb128 0x8
 2059 080b 0B       		.uleb128 0xb
 2060 080c 63723100 		.ascii	"cr1\000"
 2061 0810 0E       		.byte	0xe
 2062 0811 2501     		.2byte	0x125
 2063 0813 62000000 		.4byte	0x62
 2064 0817 02       		.byte	0x2
 2065 0818 23       		.byte	0x23
 2066 0819 0A       		.uleb128 0xa
 2067 081a 00       		.byte	0x0
 2068 081b 16       		.uleb128 0x16
 2069 081c F8040000 		.4byte	.LASF111
 2070 0820 0E       		.byte	0xe
 2071 0821 2601     		.2byte	0x126
 2072 0823 D5070000 		.4byte	0x7d5
 2073 0827 09       		.uleb128 0x9
 2074 0828 04       		.byte	0x4
 2075 0829 2D080000 		.4byte	0x82d
 2076 082d 11       		.uleb128 0x11
 2077 082e 1B080000 		.4byte	0x81b
 2078 0832 09       		.uleb128 0x9
 2079 0833 04       		.byte	0x4
 2080 0834 6E060000 		.4byte	0x66e
 2081 0838 09       		.uleb128 0x9
 2082 0839 04       		.byte	0x4
 2083 083a 3E080000 		.4byte	0x83e
 2084 083e 11       		.uleb128 0x11
 2085 083f D5060000 		.4byte	0x6d5
 2086 0843 19       		.uleb128 0x19
 2087 0844 D4030000 		.4byte	.LASF135
 2088 0848 01       		.byte	0x1
 2089 0849 B2       		.byte	0xb2
 2090 084a 01       		.byte	0x1
ARM GAS  C:\Users\z80\AppData\Local\Temp\cckqF1C0.s 			page 38


 2091 084b 00000000 		.4byte	.LFB68
 2092 084f 24000000 		.4byte	.LFE68
 2093 0853 00000000 		.4byte	.LLST0
 2094 0857 A1080000 		.4byte	0x8a1
 2095 085b 1A       		.uleb128 0x1a
 2096 085c AF040000 		.4byte	.LASF112
 2097 0860 01       		.byte	0x1
 2098 0861 B2       		.byte	0xb2
 2099 0862 CF070000 		.4byte	0x7cf
 2100 0866 20000000 		.4byte	.LLST1
 2101 086a 1B       		.uleb128 0x1b
 2102 086b 02000000 		.4byte	.LBB2
 2103 086f 08000000 		.4byte	.LBE2
 2104 0873 87080000 		.4byte	0x887
 2105 0877 1C       		.uleb128 0x1c
 2106 0878 746D7000 		.ascii	"tmp\000"
 2107 087c 01       		.byte	0x1
 2108 087d B5       		.byte	0xb5
 2109 087e 86000000 		.4byte	0x86
 2110 0882 33000000 		.4byte	.LLST2
 2111 0886 00       		.byte	0x0
 2112 0887 1D       		.uleb128 0x1d
 2113 0888 1C000000 		.4byte	.LBB3
 2114 088c 22000000 		.4byte	.LBE3
 2115 0890 1C       		.uleb128 0x1c
 2116 0891 746D7000 		.ascii	"tmp\000"
 2117 0895 01       		.byte	0x1
 2118 0896 BB       		.byte	0xbb
 2119 0897 86000000 		.4byte	0x86
 2120 089b 46000000 		.4byte	.LLST3
 2121 089f 00       		.byte	0x0
 2122 08a0 00       		.byte	0x0
 2123 08a1 1E       		.uleb128 0x1e
 2124 08a2 01       		.byte	0x1
 2125 08a3 A7040000 		.4byte	.LASF121
 2126 08a7 01       		.byte	0x1
 2127 08a8 52       		.byte	0x52
 2128 08a9 01       		.byte	0x1
 2129 08aa 00000000 		.4byte	.LFB63
 2130 08ae 1A000000 		.4byte	.LFE63
 2131 08b2 02       		.byte	0x2
 2132 08b3 7D       		.byte	0x7d
 2133 08b4 00       		.sleb128 0
 2134 08b5 D6080000 		.4byte	0x8d6
 2135 08b9 1A       		.uleb128 0x1a
 2136 08ba 34040000 		.4byte	.LASF113
 2137 08be 01       		.byte	0x1
 2138 08bf 52       		.byte	0x52
 2139 08c0 29000000 		.4byte	0x29
 2140 08c4 59000000 		.4byte	.LLST4
 2141 08c8 1F       		.uleb128 0x1f
 2142 08c9 B5010000 		.4byte	.LASF114
 2143 08cd 01       		.byte	0x1
 2144 08ce 52       		.byte	0x52
 2145 08cf 29000000 		.4byte	0x29
 2146 08d3 01       		.byte	0x1
 2147 08d4 51       		.byte	0x51
ARM GAS  C:\Users\z80\AppData\Local\Temp\cckqF1C0.s 			page 39


 2148 08d5 00       		.byte	0x0
 2149 08d6 20       		.uleb128 0x20
 2150 08d7 01       		.byte	0x1
 2151 08d8 F8000000 		.4byte	.LASF116
 2152 08dc 01       		.byte	0x1
 2153 08dd 57       		.byte	0x57
 2154 08de 01       		.byte	0x1
 2155 08df 29000000 		.4byte	0x29
 2156 08e3 00000000 		.4byte	.LFB64
 2157 08e7 54000000 		.4byte	.LFE64
 2158 08eb 6C000000 		.4byte	.LLST5
 2159 08ef 66090000 		.4byte	0x966
 2160 08f3 1A       		.uleb128 0x1a
 2161 08f4 34040000 		.4byte	.LASF113
 2162 08f8 01       		.byte	0x1
 2163 08f9 57       		.byte	0x57
 2164 08fa 29000000 		.4byte	0x29
 2165 08fe 8C000000 		.4byte	.LLST6
 2166 0902 1A       		.uleb128 0x1a
 2167 0903 B5010000 		.4byte	.LASF114
 2168 0907 01       		.byte	0x1
 2169 0908 57       		.byte	0x57
 2170 0909 29000000 		.4byte	0x29
 2171 090d AA000000 		.4byte	.LLST7
 2172 0911 1C       		.uleb128 0x1c
 2173 0912 72657300 		.ascii	"res\000"
 2174 0916 01       		.byte	0x1
 2175 0917 59       		.byte	0x59
 2176 0918 29000000 		.4byte	0x29
 2177 091c C8000000 		.4byte	.LLST8
 2178 0920 21       		.uleb128 0x21
 2179 0921 C4000000 		.4byte	.LASF115
 2180 0925 01       		.byte	0x1
 2181 0926 5B       		.byte	0x5b
 2182 0927 29000000 		.4byte	0x29
 2183 092b E7000000 		.4byte	.LLST9
 2184 092f 1B       		.uleb128 0x1b
 2185 0930 06000000 		.4byte	.LBB4
 2186 0934 0C000000 		.4byte	.LBE4
 2187 0938 4C090000 		.4byte	0x94c
 2188 093c 1C       		.uleb128 0x1c
 2189 093d 746D7000 		.ascii	"tmp\000"
 2190 0941 01       		.byte	0x1
 2191 0942 5A       		.byte	0x5a
 2192 0943 86000000 		.4byte	0x86
 2193 0947 09010000 		.4byte	.LLST10
 2194 094b 00       		.byte	0x0
 2195 094c 1D       		.uleb128 0x1d
 2196 094d 18000000 		.4byte	.LBB5
 2197 0951 1E000000 		.4byte	.LBE5
 2198 0955 1C       		.uleb128 0x1c
 2199 0956 746D7000 		.ascii	"tmp\000"
 2200 095a 01       		.byte	0x1
 2201 095b 5C       		.byte	0x5c
 2202 095c 86000000 		.4byte	0x86
 2203 0960 1C010000 		.4byte	.LLST11
 2204 0964 00       		.byte	0x0
ARM GAS  C:\Users\z80\AppData\Local\Temp\cckqF1C0.s 			page 40


 2205 0965 00       		.byte	0x0
 2206 0966 22       		.uleb128 0x22
 2207 0967 01       		.byte	0x1
 2208 0968 A3020000 		.4byte	.LASF136
 2209 096c 01       		.byte	0x1
 2210 096d 39       		.byte	0x39
 2211 096e 01       		.byte	0x1
 2212 096f 00000000 		.4byte	.LFB62
 2213 0973 B6000000 		.4byte	.LFE62
 2214 0977 2F010000 		.4byte	.LLST12
 2215 097b 20       		.uleb128 0x20
 2216 097c 01       		.byte	0x1
 2217 097d AD000000 		.4byte	.LASF117
 2218 0981 01       		.byte	0x1
 2219 0982 69       		.byte	0x69
 2220 0983 01       		.byte	0x1
 2221 0984 29000000 		.4byte	0x29
 2222 0988 00000000 		.4byte	.LFB65
 2223 098c 1C000000 		.4byte	.LFE65
 2224 0990 4F010000 		.4byte	.LLST13
 2225 0994 C6090000 		.4byte	0x9c6
 2226 0998 1A       		.uleb128 0x1a
 2227 0999 10000000 		.4byte	.LASF118
 2228 099d 01       		.byte	0x1
 2229 099e 69       		.byte	0x69
 2230 099f 29000000 		.4byte	0x29
 2231 09a3 6F010000 		.4byte	.LLST14
 2232 09a7 1A       		.uleb128 0x1a
 2233 09a8 26020000 		.4byte	.LASF119
 2234 09ac 01       		.byte	0x1
 2235 09ad 69       		.byte	0x69
 2236 09ae 29000000 		.4byte	0x29
 2237 09b2 8D010000 		.4byte	.LLST15
 2238 09b6 1C       		.uleb128 0x1c
 2239 09b7 72657300 		.ascii	"res\000"
 2240 09bb 01       		.byte	0x1
 2241 09bc 6B       		.byte	0x6b
 2242 09bd 29000000 		.4byte	0x29
 2243 09c1 AB010000 		.4byte	.LLST16
 2244 09c5 00       		.byte	0x0
 2245 09c6 20       		.uleb128 0x20
 2246 09c7 01       		.byte	0x1
 2247 09c8 B5000000 		.4byte	.LASF120
 2248 09cc 01       		.byte	0x1
 2249 09cd 71       		.byte	0x71
 2250 09ce 01       		.byte	0x1
 2251 09cf 29000000 		.4byte	0x29
 2252 09d3 00000000 		.4byte	.LFB66
 2253 09d7 1C000000 		.4byte	.LFE66
 2254 09db E4010000 		.4byte	.LLST17
 2255 09df 110A0000 		.4byte	0xa11
 2256 09e3 1A       		.uleb128 0x1a
 2257 09e4 10000000 		.4byte	.LASF118
 2258 09e8 01       		.byte	0x1
 2259 09e9 71       		.byte	0x71
 2260 09ea 29000000 		.4byte	0x29
 2261 09ee 04020000 		.4byte	.LLST18
ARM GAS  C:\Users\z80\AppData\Local\Temp\cckqF1C0.s 			page 41


 2262 09f2 1A       		.uleb128 0x1a
 2263 09f3 26020000 		.4byte	.LASF119
 2264 09f7 01       		.byte	0x1
 2265 09f8 71       		.byte	0x71
 2266 09f9 29000000 		.4byte	0x29
 2267 09fd 22020000 		.4byte	.LLST19
 2268 0a01 1C       		.uleb128 0x1c
 2269 0a02 72657300 		.ascii	"res\000"
 2270 0a06 01       		.byte	0x1
 2271 0a07 73       		.byte	0x73
 2272 0a08 29000000 		.4byte	0x29
 2273 0a0c 40020000 		.4byte	.LLST20
 2274 0a10 00       		.byte	0x0
 2275 0a11 23       		.uleb128 0x23
 2276 0a12 01       		.byte	0x1
 2277 0a13 74040000 		.4byte	.LASF122
 2278 0a17 01       		.byte	0x1
 2279 0a18 79       		.byte	0x79
 2280 0a19 01       		.byte	0x1
 2281 0a1a 00000000 		.4byte	.LFB67
 2282 0a1e CC000000 		.4byte	.LFE67
 2283 0a22 79020000 		.4byte	.LLST21
 2284 0a26 6F0A0000 		.4byte	0xa6f
 2285 0a2a 21       		.uleb128 0x21
 2286 0a2b 5C020000 		.4byte	.LASF123
 2287 0a2f 01       		.byte	0x1
 2288 0a30 7C       		.byte	0x7c
 2289 0a31 29000000 		.4byte	0x29
 2290 0a35 99020000 		.4byte	.LLST22
 2291 0a39 1D       		.uleb128 0x1d
 2292 0a3a 14000000 		.4byte	.LBB6
 2293 0a3e CC000000 		.4byte	.LBE6
 2294 0a42 1C       		.uleb128 0x1c
 2295 0a43 6900     		.ascii	"i\000"
 2296 0a45 01       		.byte	0x1
 2297 0a46 7F       		.byte	0x7f
 2298 0a47 29000000 		.4byte	0x29
 2299 0a4b CB020000 		.4byte	.LLST23
 2300 0a4f 1C       		.uleb128 0x1c
 2301 0a50 72657300 		.ascii	"res\000"
 2302 0a54 01       		.byte	0x1
 2303 0a55 80       		.byte	0x80
 2304 0a56 D2000000 		.4byte	0xd2
 2305 0a5a FF020000 		.4byte	.LLST24
 2306 0a5e 1C       		.uleb128 0x1c
 2307 0a5f 76616C00 		.ascii	"val\000"
 2308 0a63 01       		.byte	0x1
 2309 0a64 84       		.byte	0x84
 2310 0a65 29000000 		.4byte	0x29
 2311 0a69 3E030000 		.4byte	.LLST25
 2312 0a6d 00       		.byte	0x0
 2313 0a6e 00       		.byte	0x0
 2314 0a6f 24       		.uleb128 0x24
 2315 0a70 A0000000 		.4byte	.LASF124
 2316 0a74 0F       		.byte	0xf
 2317 0a75 9404     		.2byte	0x494
 2318 0a77 82040000 		.4byte	0x482
ARM GAS  C:\Users\z80\AppData\Local\Temp\cckqF1C0.s 			page 42


 2319 0a7b 01       		.byte	0x1
 2320 0a7c 01       		.byte	0x1
 2321 0a7d 24       		.uleb128 0x24
 2322 0a7e 60030000 		.4byte	.LASF125
 2323 0a82 0E       		.byte	0xe
 2324 0a83 6B01     		.2byte	0x16b
 2325 0a85 2E070000 		.4byte	0x72e
 2326 0a89 01       		.byte	0x1
 2327 0a8a 01       		.byte	0x1
 2328 0a8b 25       		.uleb128 0x25
 2329 0a8c 06000000 		.4byte	.LASF126
 2330 0a90 01       		.byte	0x1
 2331 0a91 0C       		.byte	0xc
 2332 0a92 72040000 		.4byte	0x472
 2333 0a96 01       		.byte	0x1
 2334 0a97 01       		.byte	0x1
 2335 0a98 26       		.uleb128 0x26
 2336 0a99 49000000 		.4byte	0x49
 2337 0a9d A80A0000 		.4byte	0xaa8
 2338 0aa1 27       		.uleb128 0x27
 2339 0aa2 2C030000 		.4byte	0x32c
 2340 0aa6 17       		.byte	0x17
 2341 0aa7 00       		.byte	0x0
 2342 0aa8 25       		.uleb128 0x25
 2343 0aa9 EC030000 		.4byte	.LASF127
 2344 0aad 01       		.byte	0x1
 2345 0aae 0D       		.byte	0xd
 2346 0aaf 980A0000 		.4byte	0xa98
 2347 0ab3 01       		.byte	0x1
 2348 0ab4 01       		.byte	0x1
 2349 0ab5 26       		.uleb128 0x26
 2350 0ab6 49000000 		.4byte	0x49
 2351 0aba C50A0000 		.4byte	0xac5
 2352 0abe 27       		.uleb128 0x27
 2353 0abf 2C030000 		.4byte	0x32c
 2354 0ac3 01       		.byte	0x1
 2355 0ac4 00       		.byte	0x0
 2356 0ac5 25       		.uleb128 0x25
 2357 0ac6 EA040000 		.4byte	.LASF128
 2358 0aca 01       		.byte	0x1
 2359 0acb 14       		.byte	0x14
 2360 0acc B50A0000 		.4byte	0xab5
 2361 0ad0 01       		.byte	0x1
 2362 0ad1 01       		.byte	0x1
 2363 0ad2 26       		.uleb128 0x26
 2364 0ad3 29000000 		.4byte	0x29
 2365 0ad7 E20A0000 		.4byte	0xae2
 2366 0adb 27       		.uleb128 0x27
 2367 0adc 2C030000 		.4byte	0x32c
 2368 0ae0 03       		.byte	0x3
 2369 0ae1 00       		.byte	0x0
 2370 0ae2 25       		.uleb128 0x25
 2371 0ae3 EE000000 		.4byte	.LASF129
 2372 0ae7 01       		.byte	0x1
 2373 0ae8 16       		.byte	0x16
 2374 0ae9 D20A0000 		.4byte	0xad2
 2375 0aed 01       		.byte	0x1
ARM GAS  C:\Users\z80\AppData\Local\Temp\cckqF1C0.s 			page 43


 2376 0aee 01       		.byte	0x1
 2377 0aef 25       		.uleb128 0x25
 2378 0af0 08050000 		.4byte	.LASF130
 2379 0af4 01       		.byte	0x1
 2380 0af5 17       		.byte	0x17
 2381 0af6 D20A0000 		.4byte	0xad2
 2382 0afa 01       		.byte	0x1
 2383 0afb 01       		.byte	0x1
 2384 0afc 28       		.uleb128 0x28
 2385 0afd 25000000 		.4byte	.LASF131
 2386 0b01 01       		.byte	0x1
 2387 0b02 1E       		.byte	0x1e
 2388 0b03 1B080000 		.4byte	0x81b
 2389 0b07 05       		.byte	0x5
 2390 0b08 03       		.byte	0x3
 2391 0b09 00000000 		.4byte	hs_spicfg
 2392 0b0d 24       		.uleb128 0x24
 2393 0b0e A0000000 		.4byte	.LASF124
 2394 0b12 0F       		.byte	0xf
 2395 0b13 9404     		.2byte	0x494
 2396 0b15 82040000 		.4byte	0x482
 2397 0b19 01       		.byte	0x1
 2398 0b1a 01       		.byte	0x1
 2399 0b1b 24       		.uleb128 0x24
 2400 0b1c 60030000 		.4byte	.LASF125
 2401 0b20 0E       		.byte	0xe
 2402 0b21 6B01     		.2byte	0x16b
 2403 0b23 2E070000 		.4byte	0x72e
 2404 0b27 01       		.byte	0x1
 2405 0b28 01       		.byte	0x1
 2406 0b29 29       		.uleb128 0x29
 2407 0b2a 06000000 		.4byte	.LASF126
 2408 0b2e 01       		.byte	0x1
 2409 0b2f 0C       		.byte	0xc
 2410 0b30 72040000 		.4byte	0x472
 2411 0b34 01       		.byte	0x1
 2412 0b35 05       		.byte	0x5
 2413 0b36 03       		.byte	0x3
 2414 0b37 00000000 		.4byte	dac_queue
 2415 0b3b 29       		.uleb128 0x29
 2416 0b3c EC030000 		.4byte	.LASF127
 2417 0b40 01       		.byte	0x1
 2418 0b41 0D       		.byte	0xd
 2419 0b42 980A0000 		.4byte	0xa98
 2420 0b46 01       		.byte	0x1
 2421 0b47 05       		.byte	0x5
 2422 0b48 03       		.byte	0x3
 2423 0b49 00000000 		.4byte	dac_queue_buffer
 2424 0b4d 29       		.uleb128 0x29
 2425 0b4e EA040000 		.4byte	.LASF128
 2426 0b52 01       		.byte	0x1
 2427 0b53 14       		.byte	0x14
 2428 0b54 B50A0000 		.4byte	0xab5
 2429 0b58 01       		.byte	0x1
 2430 0b59 05       		.byte	0x5
 2431 0b5a 03       		.byte	0x3
 2432 0b5b 00000000 		.4byte	dac_tx_buffer
ARM GAS  C:\Users\z80\AppData\Local\Temp\cckqF1C0.s 			page 44


 2433 0b5f 29       		.uleb128 0x29
 2434 0b60 EE000000 		.4byte	.LASF129
 2435 0b64 01       		.byte	0x1
 2436 0b65 16       		.byte	0x16
 2437 0b66 D20A0000 		.4byte	0xad2
 2438 0b6a 01       		.byte	0x1
 2439 0b6b 05       		.byte	0x5
 2440 0b6c 03       		.byte	0x3
 2441 0b6d 00000000 		.4byte	newValues
 2442 0b71 29       		.uleb128 0x29
 2443 0b72 08050000 		.4byte	.LASF130
 2444 0b76 01       		.byte	0x1
 2445 0b77 17       		.byte	0x17
 2446 0b78 D20A0000 		.4byte	0xad2
 2447 0b7c 01       		.byte	0x1
 2448 0b7d 05       		.byte	0x5
 2449 0b7e 03       		.byte	0x3
 2450 0b7f 00000000 		.4byte	dacValues
 2451 0b83 00       		.byte	0x0
 2452              		.section	.debug_abbrev
 2453 0000 01       		.uleb128 0x1
 2454 0001 11       		.uleb128 0x11
 2455 0002 01       		.byte	0x1
 2456 0003 25       		.uleb128 0x25
 2457 0004 0E       		.uleb128 0xe
 2458 0005 13       		.uleb128 0x13
 2459 0006 0B       		.uleb128 0xb
 2460 0007 03       		.uleb128 0x3
 2461 0008 0E       		.uleb128 0xe
 2462 0009 1B       		.uleb128 0x1b
 2463 000a 0E       		.uleb128 0xe
 2464 000b 11       		.uleb128 0x11
 2465 000c 01       		.uleb128 0x1
 2466 000d 52       		.uleb128 0x52
 2467 000e 01       		.uleb128 0x1
 2468 000f 55       		.uleb128 0x55
 2469 0010 06       		.uleb128 0x6
 2470 0011 10       		.uleb128 0x10
 2471 0012 06       		.uleb128 0x6
 2472 0013 00       		.byte	0x0
 2473 0014 00       		.byte	0x0
 2474 0015 02       		.uleb128 0x2
 2475 0016 24       		.uleb128 0x24
 2476 0017 00       		.byte	0x0
 2477 0018 0B       		.uleb128 0xb
 2478 0019 0B       		.uleb128 0xb
 2479 001a 3E       		.uleb128 0x3e
 2480 001b 0B       		.uleb128 0xb
 2481 001c 03       		.uleb128 0x3
 2482 001d 08       		.uleb128 0x8
 2483 001e 00       		.byte	0x0
 2484 001f 00       		.byte	0x0
 2485 0020 03       		.uleb128 0x3
 2486 0021 16       		.uleb128 0x16
 2487 0022 00       		.byte	0x0
 2488 0023 03       		.uleb128 0x3
 2489 0024 0E       		.uleb128 0xe
ARM GAS  C:\Users\z80\AppData\Local\Temp\cckqF1C0.s 			page 45


 2490 0025 3A       		.uleb128 0x3a
 2491 0026 0B       		.uleb128 0xb
 2492 0027 3B       		.uleb128 0x3b
 2493 0028 0B       		.uleb128 0xb
 2494 0029 49       		.uleb128 0x49
 2495 002a 13       		.uleb128 0x13
 2496 002b 00       		.byte	0x0
 2497 002c 00       		.byte	0x0
 2498 002d 04       		.uleb128 0x4
 2499 002e 24       		.uleb128 0x24
 2500 002f 00       		.byte	0x0
 2501 0030 0B       		.uleb128 0xb
 2502 0031 0B       		.uleb128 0xb
 2503 0032 3E       		.uleb128 0x3e
 2504 0033 0B       		.uleb128 0xb
 2505 0034 03       		.uleb128 0x3
 2506 0035 0E       		.uleb128 0xe
 2507 0036 00       		.byte	0x0
 2508 0037 00       		.byte	0x0
 2509 0038 05       		.uleb128 0x5
 2510 0039 13       		.uleb128 0x13
 2511 003a 01       		.byte	0x1
 2512 003b 03       		.uleb128 0x3
 2513 003c 0E       		.uleb128 0xe
 2514 003d 0B       		.uleb128 0xb
 2515 003e 0B       		.uleb128 0xb
 2516 003f 3A       		.uleb128 0x3a
 2517 0040 0B       		.uleb128 0xb
 2518 0041 3B       		.uleb128 0x3b
 2519 0042 0B       		.uleb128 0xb
 2520 0043 01       		.uleb128 0x1
 2521 0044 13       		.uleb128 0x13
 2522 0045 00       		.byte	0x0
 2523 0046 00       		.byte	0x0
 2524 0047 06       		.uleb128 0x6
 2525 0048 0D       		.uleb128 0xd
 2526 0049 00       		.byte	0x0
 2527 004a 03       		.uleb128 0x3
 2528 004b 0E       		.uleb128 0xe
 2529 004c 3A       		.uleb128 0x3a
 2530 004d 0B       		.uleb128 0xb
 2531 004e 3B       		.uleb128 0x3b
 2532 004f 0B       		.uleb128 0xb
 2533 0050 49       		.uleb128 0x49
 2534 0051 13       		.uleb128 0x13
 2535 0052 38       		.uleb128 0x38
 2536 0053 0A       		.uleb128 0xa
 2537 0054 00       		.byte	0x0
 2538 0055 00       		.byte	0x0
 2539 0056 07       		.uleb128 0x7
 2540 0057 0D       		.uleb128 0xd
 2541 0058 00       		.byte	0x0
 2542 0059 03       		.uleb128 0x3
 2543 005a 08       		.uleb128 0x8
 2544 005b 3A       		.uleb128 0x3a
 2545 005c 0B       		.uleb128 0xb
 2546 005d 3B       		.uleb128 0x3b
ARM GAS  C:\Users\z80\AppData\Local\Temp\cckqF1C0.s 			page 46


 2547 005e 0B       		.uleb128 0xb
 2548 005f 49       		.uleb128 0x49
 2549 0060 13       		.uleb128 0x13
 2550 0061 38       		.uleb128 0x38
 2551 0062 0A       		.uleb128 0xa
 2552 0063 00       		.byte	0x0
 2553 0064 00       		.byte	0x0
 2554 0065 08       		.uleb128 0x8
 2555 0066 13       		.uleb128 0x13
 2556 0067 01       		.byte	0x1
 2557 0068 0B       		.uleb128 0xb
 2558 0069 0B       		.uleb128 0xb
 2559 006a 3A       		.uleb128 0x3a
 2560 006b 0B       		.uleb128 0xb
 2561 006c 3B       		.uleb128 0x3b
 2562 006d 0B       		.uleb128 0xb
 2563 006e 01       		.uleb128 0x1
 2564 006f 13       		.uleb128 0x13
 2565 0070 00       		.byte	0x0
 2566 0071 00       		.byte	0x0
 2567 0072 09       		.uleb128 0x9
 2568 0073 0F       		.uleb128 0xf
 2569 0074 00       		.byte	0x0
 2570 0075 0B       		.uleb128 0xb
 2571 0076 0B       		.uleb128 0xb
 2572 0077 49       		.uleb128 0x49
 2573 0078 13       		.uleb128 0x13
 2574 0079 00       		.byte	0x0
 2575 007a 00       		.byte	0x0
 2576 007b 0A       		.uleb128 0xa
 2577 007c 0F       		.uleb128 0xf
 2578 007d 00       		.byte	0x0
 2579 007e 0B       		.uleb128 0xb
 2580 007f 0B       		.uleb128 0xb
 2581 0080 00       		.byte	0x0
 2582 0081 00       		.byte	0x0
 2583 0082 0B       		.uleb128 0xb
 2584 0083 0D       		.uleb128 0xd
 2585 0084 00       		.byte	0x0
 2586 0085 03       		.uleb128 0x3
 2587 0086 08       		.uleb128 0x8
 2588 0087 3A       		.uleb128 0x3a
 2589 0088 0B       		.uleb128 0xb
 2590 0089 3B       		.uleb128 0x3b
 2591 008a 05       		.uleb128 0x5
 2592 008b 49       		.uleb128 0x49
 2593 008c 13       		.uleb128 0x13
 2594 008d 38       		.uleb128 0x38
 2595 008e 0A       		.uleb128 0xa
 2596 008f 00       		.byte	0x0
 2597 0090 00       		.byte	0x0
 2598 0091 0C       		.uleb128 0xc
 2599 0092 13       		.uleb128 0x13
 2600 0093 01       		.byte	0x1
 2601 0094 03       		.uleb128 0x3
 2602 0095 0E       		.uleb128 0xe
 2603 0096 0B       		.uleb128 0xb
ARM GAS  C:\Users\z80\AppData\Local\Temp\cckqF1C0.s 			page 47


 2604 0097 0B       		.uleb128 0xb
 2605 0098 3A       		.uleb128 0x3a
 2606 0099 0B       		.uleb128 0xb
 2607 009a 3B       		.uleb128 0x3b
 2608 009b 05       		.uleb128 0x5
 2609 009c 01       		.uleb128 0x1
 2610 009d 13       		.uleb128 0x13
 2611 009e 00       		.byte	0x0
 2612 009f 00       		.byte	0x0
 2613 00a0 0D       		.uleb128 0xd
 2614 00a1 35       		.uleb128 0x35
 2615 00a2 00       		.byte	0x0
 2616 00a3 49       		.uleb128 0x49
 2617 00a4 13       		.uleb128 0x13
 2618 00a5 00       		.byte	0x0
 2619 00a6 00       		.byte	0x0
 2620 00a7 0E       		.uleb128 0xe
 2621 00a8 24       		.uleb128 0x24
 2622 00a9 00       		.byte	0x0
 2623 00aa 0B       		.uleb128 0xb
 2624 00ab 0B       		.uleb128 0xb
 2625 00ac 3E       		.uleb128 0x3e
 2626 00ad 0B       		.uleb128 0xb
 2627 00ae 00       		.byte	0x0
 2628 00af 00       		.byte	0x0
 2629 00b0 0F       		.uleb128 0xf
 2630 00b1 17       		.uleb128 0x17
 2631 00b2 01       		.byte	0x1
 2632 00b3 0B       		.uleb128 0xb
 2633 00b4 0B       		.uleb128 0xb
 2634 00b5 3A       		.uleb128 0x3a
 2635 00b6 0B       		.uleb128 0xb
 2636 00b7 3B       		.uleb128 0x3b
 2637 00b8 0B       		.uleb128 0xb
 2638 00b9 01       		.uleb128 0x1
 2639 00ba 13       		.uleb128 0x13
 2640 00bb 00       		.byte	0x0
 2641 00bc 00       		.byte	0x0
 2642 00bd 10       		.uleb128 0x10
 2643 00be 0D       		.uleb128 0xd
 2644 00bf 00       		.byte	0x0
 2645 00c0 03       		.uleb128 0x3
 2646 00c1 0E       		.uleb128 0xe
 2647 00c2 3A       		.uleb128 0x3a
 2648 00c3 0B       		.uleb128 0xb
 2649 00c4 3B       		.uleb128 0x3b
 2650 00c5 0B       		.uleb128 0xb
 2651 00c6 49       		.uleb128 0x49
 2652 00c7 13       		.uleb128 0x13
 2653 00c8 00       		.byte	0x0
 2654 00c9 00       		.byte	0x0
 2655 00ca 11       		.uleb128 0x11
 2656 00cb 26       		.uleb128 0x26
 2657 00cc 00       		.byte	0x0
 2658 00cd 49       		.uleb128 0x49
 2659 00ce 13       		.uleb128 0x13
 2660 00cf 00       		.byte	0x0
ARM GAS  C:\Users\z80\AppData\Local\Temp\cckqF1C0.s 			page 48


 2661 00d0 00       		.byte	0x0
 2662 00d1 12       		.uleb128 0x12
 2663 00d2 15       		.uleb128 0x15
 2664 00d3 01       		.byte	0x1
 2665 00d4 27       		.uleb128 0x27
 2666 00d5 0C       		.uleb128 0xc
 2667 00d6 01       		.uleb128 0x1
 2668 00d7 13       		.uleb128 0x13
 2669 00d8 00       		.byte	0x0
 2670 00d9 00       		.byte	0x0
 2671 00da 13       		.uleb128 0x13
 2672 00db 05       		.uleb128 0x5
 2673 00dc 00       		.byte	0x0
 2674 00dd 49       		.uleb128 0x49
 2675 00de 13       		.uleb128 0x13
 2676 00df 00       		.byte	0x0
 2677 00e0 00       		.byte	0x0
 2678 00e1 14       		.uleb128 0x14
 2679 00e2 13       		.uleb128 0x13
 2680 00e3 01       		.byte	0x1
 2681 00e4 0B       		.uleb128 0xb
 2682 00e5 0B       		.uleb128 0xb
 2683 00e6 3A       		.uleb128 0x3a
 2684 00e7 0B       		.uleb128 0xb
 2685 00e8 3B       		.uleb128 0x3b
 2686 00e9 05       		.uleb128 0x5
 2687 00ea 01       		.uleb128 0x1
 2688 00eb 13       		.uleb128 0x13
 2689 00ec 00       		.byte	0x0
 2690 00ed 00       		.byte	0x0
 2691 00ee 15       		.uleb128 0x15
 2692 00ef 0D       		.uleb128 0xd
 2693 00f0 00       		.byte	0x0
 2694 00f1 03       		.uleb128 0x3
 2695 00f2 0E       		.uleb128 0xe
 2696 00f3 3A       		.uleb128 0x3a
 2697 00f4 0B       		.uleb128 0xb
 2698 00f5 3B       		.uleb128 0x3b
 2699 00f6 05       		.uleb128 0x5
 2700 00f7 49       		.uleb128 0x49
 2701 00f8 13       		.uleb128 0x13
 2702 00f9 38       		.uleb128 0x38
 2703 00fa 0A       		.uleb128 0xa
 2704 00fb 00       		.byte	0x0
 2705 00fc 00       		.byte	0x0
 2706 00fd 16       		.uleb128 0x16
 2707 00fe 16       		.uleb128 0x16
 2708 00ff 00       		.byte	0x0
 2709 0100 03       		.uleb128 0x3
 2710 0101 0E       		.uleb128 0xe
 2711 0102 3A       		.uleb128 0x3a
 2712 0103 0B       		.uleb128 0xb
 2713 0104 3B       		.uleb128 0x3b
 2714 0105 05       		.uleb128 0x5
 2715 0106 49       		.uleb128 0x49
 2716 0107 13       		.uleb128 0x13
 2717 0108 00       		.byte	0x0
ARM GAS  C:\Users\z80\AppData\Local\Temp\cckqF1C0.s 			page 49


 2718 0109 00       		.byte	0x0
 2719 010a 17       		.uleb128 0x17
 2720 010b 04       		.uleb128 0x4
 2721 010c 01       		.byte	0x1
 2722 010d 0B       		.uleb128 0xb
 2723 010e 0B       		.uleb128 0xb
 2724 010f 3A       		.uleb128 0x3a
 2725 0110 0B       		.uleb128 0xb
 2726 0111 3B       		.uleb128 0x3b
 2727 0112 0B       		.uleb128 0xb
 2728 0113 01       		.uleb128 0x1
 2729 0114 13       		.uleb128 0x13
 2730 0115 00       		.byte	0x0
 2731 0116 00       		.byte	0x0
 2732 0117 18       		.uleb128 0x18
 2733 0118 28       		.uleb128 0x28
 2734 0119 00       		.byte	0x0
 2735 011a 03       		.uleb128 0x3
 2736 011b 0E       		.uleb128 0xe
 2737 011c 1C       		.uleb128 0x1c
 2738 011d 0D       		.uleb128 0xd
 2739 011e 00       		.byte	0x0
 2740 011f 00       		.byte	0x0
 2741 0120 19       		.uleb128 0x19
 2742 0121 2E       		.uleb128 0x2e
 2743 0122 01       		.byte	0x1
 2744 0123 03       		.uleb128 0x3
 2745 0124 0E       		.uleb128 0xe
 2746 0125 3A       		.uleb128 0x3a
 2747 0126 0B       		.uleb128 0xb
 2748 0127 3B       		.uleb128 0x3b
 2749 0128 0B       		.uleb128 0xb
 2750 0129 27       		.uleb128 0x27
 2751 012a 0C       		.uleb128 0xc
 2752 012b 11       		.uleb128 0x11
 2753 012c 01       		.uleb128 0x1
 2754 012d 12       		.uleb128 0x12
 2755 012e 01       		.uleb128 0x1
 2756 012f 40       		.uleb128 0x40
 2757 0130 06       		.uleb128 0x6
 2758 0131 01       		.uleb128 0x1
 2759 0132 13       		.uleb128 0x13
 2760 0133 00       		.byte	0x0
 2761 0134 00       		.byte	0x0
 2762 0135 1A       		.uleb128 0x1a
 2763 0136 05       		.uleb128 0x5
 2764 0137 00       		.byte	0x0
 2765 0138 03       		.uleb128 0x3
 2766 0139 0E       		.uleb128 0xe
 2767 013a 3A       		.uleb128 0x3a
 2768 013b 0B       		.uleb128 0xb
 2769 013c 3B       		.uleb128 0x3b
 2770 013d 0B       		.uleb128 0xb
 2771 013e 49       		.uleb128 0x49
 2772 013f 13       		.uleb128 0x13
 2773 0140 02       		.uleb128 0x2
 2774 0141 06       		.uleb128 0x6
ARM GAS  C:\Users\z80\AppData\Local\Temp\cckqF1C0.s 			page 50


 2775 0142 00       		.byte	0x0
 2776 0143 00       		.byte	0x0
 2777 0144 1B       		.uleb128 0x1b
 2778 0145 0B       		.uleb128 0xb
 2779 0146 01       		.byte	0x1
 2780 0147 11       		.uleb128 0x11
 2781 0148 01       		.uleb128 0x1
 2782 0149 12       		.uleb128 0x12
 2783 014a 01       		.uleb128 0x1
 2784 014b 01       		.uleb128 0x1
 2785 014c 13       		.uleb128 0x13
 2786 014d 00       		.byte	0x0
 2787 014e 00       		.byte	0x0
 2788 014f 1C       		.uleb128 0x1c
 2789 0150 34       		.uleb128 0x34
 2790 0151 00       		.byte	0x0
 2791 0152 03       		.uleb128 0x3
 2792 0153 08       		.uleb128 0x8
 2793 0154 3A       		.uleb128 0x3a
 2794 0155 0B       		.uleb128 0xb
 2795 0156 3B       		.uleb128 0x3b
 2796 0157 0B       		.uleb128 0xb
 2797 0158 49       		.uleb128 0x49
 2798 0159 13       		.uleb128 0x13
 2799 015a 02       		.uleb128 0x2
 2800 015b 06       		.uleb128 0x6
 2801 015c 00       		.byte	0x0
 2802 015d 00       		.byte	0x0
 2803 015e 1D       		.uleb128 0x1d
 2804 015f 0B       		.uleb128 0xb
 2805 0160 01       		.byte	0x1
 2806 0161 11       		.uleb128 0x11
 2807 0162 01       		.uleb128 0x1
 2808 0163 12       		.uleb128 0x12
 2809 0164 01       		.uleb128 0x1
 2810 0165 00       		.byte	0x0
 2811 0166 00       		.byte	0x0
 2812 0167 1E       		.uleb128 0x1e
 2813 0168 2E       		.uleb128 0x2e
 2814 0169 01       		.byte	0x1
 2815 016a 3F       		.uleb128 0x3f
 2816 016b 0C       		.uleb128 0xc
 2817 016c 03       		.uleb128 0x3
 2818 016d 0E       		.uleb128 0xe
 2819 016e 3A       		.uleb128 0x3a
 2820 016f 0B       		.uleb128 0xb
 2821 0170 3B       		.uleb128 0x3b
 2822 0171 0B       		.uleb128 0xb
 2823 0172 27       		.uleb128 0x27
 2824 0173 0C       		.uleb128 0xc
 2825 0174 11       		.uleb128 0x11
 2826 0175 01       		.uleb128 0x1
 2827 0176 12       		.uleb128 0x12
 2828 0177 01       		.uleb128 0x1
 2829 0178 40       		.uleb128 0x40
 2830 0179 0A       		.uleb128 0xa
 2831 017a 01       		.uleb128 0x1
ARM GAS  C:\Users\z80\AppData\Local\Temp\cckqF1C0.s 			page 51


 2832 017b 13       		.uleb128 0x13
 2833 017c 00       		.byte	0x0
 2834 017d 00       		.byte	0x0
 2835 017e 1F       		.uleb128 0x1f
 2836 017f 05       		.uleb128 0x5
 2837 0180 00       		.byte	0x0
 2838 0181 03       		.uleb128 0x3
 2839 0182 0E       		.uleb128 0xe
 2840 0183 3A       		.uleb128 0x3a
 2841 0184 0B       		.uleb128 0xb
 2842 0185 3B       		.uleb128 0x3b
 2843 0186 0B       		.uleb128 0xb
 2844 0187 49       		.uleb128 0x49
 2845 0188 13       		.uleb128 0x13
 2846 0189 02       		.uleb128 0x2
 2847 018a 0A       		.uleb128 0xa
 2848 018b 00       		.byte	0x0
 2849 018c 00       		.byte	0x0
 2850 018d 20       		.uleb128 0x20
 2851 018e 2E       		.uleb128 0x2e
 2852 018f 01       		.byte	0x1
 2853 0190 3F       		.uleb128 0x3f
 2854 0191 0C       		.uleb128 0xc
 2855 0192 03       		.uleb128 0x3
 2856 0193 0E       		.uleb128 0xe
 2857 0194 3A       		.uleb128 0x3a
 2858 0195 0B       		.uleb128 0xb
 2859 0196 3B       		.uleb128 0x3b
 2860 0197 0B       		.uleb128 0xb
 2861 0198 27       		.uleb128 0x27
 2862 0199 0C       		.uleb128 0xc
 2863 019a 49       		.uleb128 0x49
 2864 019b 13       		.uleb128 0x13
 2865 019c 11       		.uleb128 0x11
 2866 019d 01       		.uleb128 0x1
 2867 019e 12       		.uleb128 0x12
 2868 019f 01       		.uleb128 0x1
 2869 01a0 40       		.uleb128 0x40
 2870 01a1 06       		.uleb128 0x6
 2871 01a2 01       		.uleb128 0x1
 2872 01a3 13       		.uleb128 0x13
 2873 01a4 00       		.byte	0x0
 2874 01a5 00       		.byte	0x0
 2875 01a6 21       		.uleb128 0x21
 2876 01a7 34       		.uleb128 0x34
 2877 01a8 00       		.byte	0x0
 2878 01a9 03       		.uleb128 0x3
 2879 01aa 0E       		.uleb128 0xe
 2880 01ab 3A       		.uleb128 0x3a
 2881 01ac 0B       		.uleb128 0xb
 2882 01ad 3B       		.uleb128 0x3b
 2883 01ae 0B       		.uleb128 0xb
 2884 01af 49       		.uleb128 0x49
 2885 01b0 13       		.uleb128 0x13
 2886 01b1 02       		.uleb128 0x2
 2887 01b2 06       		.uleb128 0x6
 2888 01b3 00       		.byte	0x0
ARM GAS  C:\Users\z80\AppData\Local\Temp\cckqF1C0.s 			page 52


 2889 01b4 00       		.byte	0x0
 2890 01b5 22       		.uleb128 0x22
 2891 01b6 2E       		.uleb128 0x2e
 2892 01b7 00       		.byte	0x0
 2893 01b8 3F       		.uleb128 0x3f
 2894 01b9 0C       		.uleb128 0xc
 2895 01ba 03       		.uleb128 0x3
 2896 01bb 0E       		.uleb128 0xe
 2897 01bc 3A       		.uleb128 0x3a
 2898 01bd 0B       		.uleb128 0xb
 2899 01be 3B       		.uleb128 0x3b
 2900 01bf 0B       		.uleb128 0xb
 2901 01c0 27       		.uleb128 0x27
 2902 01c1 0C       		.uleb128 0xc
 2903 01c2 11       		.uleb128 0x11
 2904 01c3 01       		.uleb128 0x1
 2905 01c4 12       		.uleb128 0x12
 2906 01c5 01       		.uleb128 0x1
 2907 01c6 40       		.uleb128 0x40
 2908 01c7 06       		.uleb128 0x6
 2909 01c8 00       		.byte	0x0
 2910 01c9 00       		.byte	0x0
 2911 01ca 23       		.uleb128 0x23
 2912 01cb 2E       		.uleb128 0x2e
 2913 01cc 01       		.byte	0x1
 2914 01cd 3F       		.uleb128 0x3f
 2915 01ce 0C       		.uleb128 0xc
 2916 01cf 03       		.uleb128 0x3
 2917 01d0 0E       		.uleb128 0xe
 2918 01d1 3A       		.uleb128 0x3a
 2919 01d2 0B       		.uleb128 0xb
 2920 01d3 3B       		.uleb128 0x3b
 2921 01d4 0B       		.uleb128 0xb
 2922 01d5 27       		.uleb128 0x27
 2923 01d6 0C       		.uleb128 0xc
 2924 01d7 11       		.uleb128 0x11
 2925 01d8 01       		.uleb128 0x1
 2926 01d9 12       		.uleb128 0x12
 2927 01da 01       		.uleb128 0x1
 2928 01db 40       		.uleb128 0x40
 2929 01dc 06       		.uleb128 0x6
 2930 01dd 01       		.uleb128 0x1
 2931 01de 13       		.uleb128 0x13
 2932 01df 00       		.byte	0x0
 2933 01e0 00       		.byte	0x0
 2934 01e1 24       		.uleb128 0x24
 2935 01e2 34       		.uleb128 0x34
 2936 01e3 00       		.byte	0x0
 2937 01e4 03       		.uleb128 0x3
 2938 01e5 0E       		.uleb128 0xe
 2939 01e6 3A       		.uleb128 0x3a
 2940 01e7 0B       		.uleb128 0xb
 2941 01e8 3B       		.uleb128 0x3b
 2942 01e9 05       		.uleb128 0x5
 2943 01ea 49       		.uleb128 0x49
 2944 01eb 13       		.uleb128 0x13
 2945 01ec 3F       		.uleb128 0x3f
ARM GAS  C:\Users\z80\AppData\Local\Temp\cckqF1C0.s 			page 53


 2946 01ed 0C       		.uleb128 0xc
 2947 01ee 3C       		.uleb128 0x3c
 2948 01ef 0C       		.uleb128 0xc
 2949 01f0 00       		.byte	0x0
 2950 01f1 00       		.byte	0x0
 2951 01f2 25       		.uleb128 0x25
 2952 01f3 34       		.uleb128 0x34
 2953 01f4 00       		.byte	0x0
 2954 01f5 03       		.uleb128 0x3
 2955 01f6 0E       		.uleb128 0xe
 2956 01f7 3A       		.uleb128 0x3a
 2957 01f8 0B       		.uleb128 0xb
 2958 01f9 3B       		.uleb128 0x3b
 2959 01fa 0B       		.uleb128 0xb
 2960 01fb 49       		.uleb128 0x49
 2961 01fc 13       		.uleb128 0x13
 2962 01fd 3F       		.uleb128 0x3f
 2963 01fe 0C       		.uleb128 0xc
 2964 01ff 3C       		.uleb128 0x3c
 2965 0200 0C       		.uleb128 0xc
 2966 0201 00       		.byte	0x0
 2967 0202 00       		.byte	0x0
 2968 0203 26       		.uleb128 0x26
 2969 0204 01       		.uleb128 0x1
 2970 0205 01       		.byte	0x1
 2971 0206 49       		.uleb128 0x49
 2972 0207 13       		.uleb128 0x13
 2973 0208 01       		.uleb128 0x1
 2974 0209 13       		.uleb128 0x13
 2975 020a 00       		.byte	0x0
 2976 020b 00       		.byte	0x0
 2977 020c 27       		.uleb128 0x27
 2978 020d 21       		.uleb128 0x21
 2979 020e 00       		.byte	0x0
 2980 020f 49       		.uleb128 0x49
 2981 0210 13       		.uleb128 0x13
 2982 0211 2F       		.uleb128 0x2f
 2983 0212 0B       		.uleb128 0xb
 2984 0213 00       		.byte	0x0
 2985 0214 00       		.byte	0x0
 2986 0215 28       		.uleb128 0x28
 2987 0216 34       		.uleb128 0x34
 2988 0217 00       		.byte	0x0
 2989 0218 03       		.uleb128 0x3
 2990 0219 0E       		.uleb128 0xe
 2991 021a 3A       		.uleb128 0x3a
 2992 021b 0B       		.uleb128 0xb
 2993 021c 3B       		.uleb128 0x3b
 2994 021d 0B       		.uleb128 0xb
 2995 021e 49       		.uleb128 0x49
 2996 021f 13       		.uleb128 0x13
 2997 0220 02       		.uleb128 0x2
 2998 0221 0A       		.uleb128 0xa
 2999 0222 00       		.byte	0x0
 3000 0223 00       		.byte	0x0
 3001 0224 29       		.uleb128 0x29
 3002 0225 34       		.uleb128 0x34
ARM GAS  C:\Users\z80\AppData\Local\Temp\cckqF1C0.s 			page 54


 3003 0226 00       		.byte	0x0
 3004 0227 03       		.uleb128 0x3
 3005 0228 0E       		.uleb128 0xe
 3006 0229 3A       		.uleb128 0x3a
 3007 022a 0B       		.uleb128 0xb
 3008 022b 3B       		.uleb128 0x3b
 3009 022c 0B       		.uleb128 0xb
 3010 022d 49       		.uleb128 0x49
 3011 022e 13       		.uleb128 0x13
 3012 022f 3F       		.uleb128 0x3f
 3013 0230 0C       		.uleb128 0xc
 3014 0231 02       		.uleb128 0x2
 3015 0232 0A       		.uleb128 0xa
 3016 0233 00       		.byte	0x0
 3017 0234 00       		.byte	0x0
 3018 0235 00       		.byte	0x0
 3019              		.section	.debug_pubnames,"",%progbits
 3020 0000 AA000000 		.4byte	0xaa
 3021 0004 0200     		.2byte	0x2
 3022 0006 00000000 		.4byte	.Ldebug_info0
 3023 000a 840B0000 		.4byte	0xb84
 3024 000e A1080000 		.4byte	0x8a1
 3025 0012 73657444 		.ascii	"setDacI\000"
 3025      61634900 
 3026 001a D6080000 		.4byte	0x8d6
 3027 001e 73657444 		.ascii	"setDac\000"
 3027      616300
 3028 0025 66090000 		.4byte	0x966
 3029 0029 696E6974 		.ascii	"initDac\000"
 3029      44616300 
 3030 0031 7B090000 		.4byte	0x97b
 3031 0035 73657444 		.ascii	"setDac1\000"
 3031      61633100 
 3032 003d C6090000 		.4byte	0x9c6
 3033 0041 73657444 		.ascii	"setDac2\000"
 3033      61633200 
 3034 0049 110A0000 		.4byte	0xa11
 3035 004d 70726F63 		.ascii	"processDacI\000"
 3035      65737344 
 3035      61634900 
 3036 0059 290B0000 		.4byte	0xb29
 3037 005d 6461635F 		.ascii	"dac_queue\000"
 3037      71756575 
 3037      6500
 3038 0067 3B0B0000 		.4byte	0xb3b
 3039 006b 6461635F 		.ascii	"dac_queue_buffer\000"
 3039      71756575 
 3039      655F6275 
 3039      66666572 
 3039      00
 3040 007c 4D0B0000 		.4byte	0xb4d
 3041 0080 6461635F 		.ascii	"dac_tx_buffer\000"
 3041      74785F62 
 3041      75666665 
 3041      7200
 3042 008e 5F0B0000 		.4byte	0xb5f
 3043 0092 6E657756 		.ascii	"newValues\000"
ARM GAS  C:\Users\z80\AppData\Local\Temp\cckqF1C0.s 			page 55


 3043      616C7565 
 3043      7300
 3044 009c 710B0000 		.4byte	0xb71
 3045 00a0 64616356 		.ascii	"dacValues\000"
 3045      616C7565 
 3045      7300
 3046 00aa 00000000 		.4byte	0x0
 3047              		.section	.debug_pubtypes,"",%progbits
 3048 0000 1E020000 		.4byte	0x21e
 3049 0004 0200     		.2byte	0x2
 3050 0006 00000000 		.4byte	.Ldebug_info0
 3051 000a 840B0000 		.4byte	0xb84
 3052 000e 30000000 		.4byte	0x30
 3053 0012 73697A65 		.ascii	"size_t\000"
 3053      5F7400
 3054 0019 49000000 		.4byte	0x49
 3055 001d 75696E74 		.ascii	"uint8_t\000"
 3055      385F7400 
 3056 0025 62000000 		.4byte	0x62
 3057 0029 75696E74 		.ascii	"uint16_t\000"
 3057      31365F74 
 3057      00
 3058 0032 74000000 		.4byte	0x74
 3059 0036 696E7433 		.ascii	"int32_t\000"
 3059      325F7400 
 3060 003e 86000000 		.4byte	0x86
 3061 0042 75696E74 		.ascii	"uint32_t\000"
 3061      33325F74 
 3061      00
 3062 004b 9F000000 		.4byte	0x9f
 3063 004f 75696E74 		.ascii	"uint64_t\000"
 3063      36345F74 
 3063      00
 3064 0058 B1000000 		.4byte	0xb1
 3065 005c 746D6F64 		.ascii	"tmode_t\000"
 3065      655F7400 
 3066 0064 BC000000 		.4byte	0xbc
 3067 0068 74737461 		.ascii	"tstate_t\000"
 3067      74655F74 
 3067      00
 3068 0071 C7000000 		.4byte	0xc7
 3069 0075 74707269 		.ascii	"tprio_t\000"
 3069      6F5F7400 
 3070 007d D2000000 		.4byte	0xd2
 3071 0081 6D73675F 		.ascii	"msg_t\000"
 3071      7400
 3072 0087 DD000000 		.4byte	0xdd
 3073 008b 6576656E 		.ascii	"eventmask_t\000"
 3073      746D6173 
 3073      6B5F7400 
 3074 0097 E8000000 		.4byte	0xe8
 3075 009b 73797374 		.ascii	"systime_t\000"
 3075      696D655F 
 3075      7400
 3076 00a5 F3000000 		.4byte	0xf3
 3077 00a9 54687265 		.ascii	"Thread\000"
 3077      616400
ARM GAS  C:\Users\z80\AppData\Local\Temp\cckqF1C0.s 			page 56


 3078 00b0 32020000 		.4byte	0x232
 3079 00b4 54687265 		.ascii	"ThreadsQueue\000"
 3079      61647351 
 3079      75657565 
 3079      00
 3080 00c1 54020000 		.4byte	0x254
 3081 00c5 54687265 		.ascii	"ThreadsList\000"
 3081      6164734C 
 3081      69737400 
 3082 00d1 5F020000 		.4byte	0x25f
 3083 00d5 72656761 		.ascii	"regarm_t\000"
 3083      726D5F74 
 3083      00
 3084 00de 6C020000 		.4byte	0x26c
 3085 00e2 73746B61 		.ascii	"stkalign_t\000"
 3085      6C69676E 
 3085      5F7400
 3086 00ed 77020000 		.4byte	0x277
 3087 00f1 696E7463 		.ascii	"intctx\000"
 3087      747800
 3088 00f8 04030000 		.4byte	0x304
 3089 00fc 636F6E74 		.ascii	"context\000"
 3089      65787400 
 3090 0104 34030000 		.4byte	0x334
 3091 0108 4D757465 		.ascii	"Mutex\000"
 3091      7800
 3092 010e 71030000 		.4byte	0x371
 3093 0112 4D757465 		.ascii	"Mutex\000"
 3093      7800
 3094 0118 FE000000 		.4byte	0xfe
 3095 011c 54687265 		.ascii	"Thread\000"
 3095      616400
 3096 0123 CF030000 		.4byte	0x3cf
 3097 0127 47656E65 		.ascii	"GenericQueue\000"
 3097      72696351 
 3097      75657565 
 3097      00
 3098 0134 49040000 		.4byte	0x449
 3099 0138 716E6F74 		.ascii	"qnotify_t\000"
 3099      6966795F 
 3099      7400
 3100 0142 DA030000 		.4byte	0x3da
 3101 0146 47656E65 		.ascii	"GenericQueue\000"
 3101      72696351 
 3101      75657565 
 3101      00
 3102 0153 72040000 		.4byte	0x472
 3103 0157 4F757470 		.ascii	"OutputQueue\000"
 3103      75745175 
 3103      65756500 
 3104 0163 CD040000 		.4byte	0x4cd
 3105 0167 444D415F 		.ascii	"DMA_Channel_TypeDef\000"
 3105      4368616E 
 3105      6E656C5F 
 3105      54797065 
 3105      44656600 
 3106 017b 4C050000 		.4byte	0x54c
ARM GAS  C:\Users\z80\AppData\Local\Temp\cckqF1C0.s 			page 57


 3107 017f 4750494F 		.ascii	"GPIO_TypeDef\000"
 3107      5F547970 
 3107      65446566 
 3107      00
 3108 018c 6E060000 		.4byte	0x66e
 3109 0190 5350495F 		.ascii	"SPI_TypeDef\000"
 3109      54797065 
 3109      44656600 
 3110 019c D5060000 		.4byte	0x6d5
 3111 01a0 73746D33 		.ascii	"stm32_dma_stream_t\000"
 3111      325F646D 
 3111      615F7374 
 3111      7265616D 
 3111      5F7400
 3112 01b3 E0060000 		.4byte	0x6e0
 3113 01b7 696F706F 		.ascii	"ioportmask_t\000"
 3113      72746D61 
 3113      736B5F74 
 3113      00
 3114 01c4 EB060000 		.4byte	0x6eb
 3115 01c8 696F706F 		.ascii	"ioportid_t\000"
 3115      72746964 
 3115      5F7400
 3116 01d3 23070000 		.4byte	0x723
 3117 01d7 73706973 		.ascii	"spistate_t\000"
 3117      74617465 
 3117      5F7400
 3118 01e2 2E070000 		.4byte	0x72e
 3119 01e6 53504944 		.ascii	"SPIDriver\000"
 3119      72697665 
 3119      7200
 3120 01f0 B1070000 		.4byte	0x7b1
 3121 01f4 73706963 		.ascii	"spicallback_t\000"
 3121      616C6C62 
 3121      61636B5F 
 3121      7400
 3122 0202 1B080000 		.4byte	0x81b
 3123 0206 53504943 		.ascii	"SPIConfig\000"
 3123      6F6E6669 
 3123      6700
 3124 0210 3A070000 		.4byte	0x73a
 3125 0214 53504944 		.ascii	"SPIDriver\000"
 3125      72697665 
 3125      7200
 3126 021e 00000000 		.4byte	0x0
 3127              		.section	.debug_aranges,"",%progbits
 3128 0000 4C000000 		.4byte	0x4c
 3129 0004 0200     		.2byte	0x2
 3130 0006 00000000 		.4byte	.Ldebug_info0
 3131 000a 04       		.byte	0x4
 3132 000b 00       		.byte	0x0
 3133 000c 0000     		.2byte	0x0
 3134 000e 0000     		.2byte	0x0
 3135 0010 00000000 		.4byte	.LFB68
 3136 0014 24000000 		.4byte	.LFE68-.LFB68
 3137 0018 00000000 		.4byte	.LFB63
 3138 001c 1A000000 		.4byte	.LFE63-.LFB63
ARM GAS  C:\Users\z80\AppData\Local\Temp\cckqF1C0.s 			page 58


 3139 0020 00000000 		.4byte	.LFB64
 3140 0024 54000000 		.4byte	.LFE64-.LFB64
 3141 0028 00000000 		.4byte	.LFB62
 3142 002c B6000000 		.4byte	.LFE62-.LFB62
 3143 0030 00000000 		.4byte	.LFB65
 3144 0034 1C000000 		.4byte	.LFE65-.LFB65
 3145 0038 00000000 		.4byte	.LFB66
 3146 003c 1C000000 		.4byte	.LFE66-.LFB66
 3147 0040 00000000 		.4byte	.LFB67
 3148 0044 CC000000 		.4byte	.LFE67-.LFB67
 3149 0048 00000000 		.4byte	0x0
 3150 004c 00000000 		.4byte	0x0
 3151              		.section	.debug_ranges,"",%progbits
 3152              	.Ldebug_ranges0:
 3153 0000 00000000 		.4byte	.LFB68
 3154 0004 24000000 		.4byte	.LFE68
 3155 0008 00000000 		.4byte	.LFB63
 3156 000c 1A000000 		.4byte	.LFE63
 3157 0010 00000000 		.4byte	.LFB64
 3158 0014 54000000 		.4byte	.LFE64
 3159 0018 00000000 		.4byte	.LFB62
 3160 001c B6000000 		.4byte	.LFE62
 3161 0020 00000000 		.4byte	.LFB65
 3162 0024 1C000000 		.4byte	.LFE65
 3163 0028 00000000 		.4byte	.LFB66
 3164 002c 1C000000 		.4byte	.LFE66
 3165 0030 00000000 		.4byte	.LFB67
 3166 0034 CC000000 		.4byte	.LFE67
 3167 0038 00000000 		.4byte	0x0
 3168 003c 00000000 		.4byte	0x0
 3169              		.section	.debug_str,"MS",%progbits,1
 3170              	.LASF103:
 3171 0000 646D6172 		.ascii	"dmarx\000"
 3171      7800
 3172              	.LASF126:
 3173 0006 6461635F 		.ascii	"dac_queue\000"
 3173      71756575 
 3173      6500
 3174              	.LASF118:
 3175 0010 76616C75 		.ascii	"valueL\000"
 3175      654C00
 3176              	.LASF2:
 3177 0017 73697A65 		.ascii	"size_t\000"
 3177      5F7400
 3178              	.LASF49:
 3179 001e 7264796D 		.ascii	"rdymsg\000"
 3179      736700
 3180              	.LASF131:
 3181 0025 68735F73 		.ascii	"hs_spicfg\000"
 3181      70696366 
 3181      6700
 3182              	.LASF13:
 3183 002f 75696E74 		.ascii	"uint64_t\000"
 3183      36345F74 
 3183      00
 3184              	.LASF63:
 3185 0038 4F757470 		.ascii	"OutputQueue\000"
ARM GAS  C:\Users\z80\AppData\Local\Temp\cckqF1C0.s 			page 59


 3185      75745175 
 3185      65756500 
 3186              	.LASF97:
 3187 0044 5350495F 		.ascii	"SPI_ACTIVE\000"
 3187      41435449 
 3187      564500
 3188              	.LASF92:
 3189 004f 696F706F 		.ascii	"ioportmask_t\000"
 3189      72746D61 
 3189      736B5F74 
 3189      00
 3190              	.LASF110:
 3191 005c 73737061 		.ascii	"sspad\000"
 3191      6400
 3192              	.LASF14:
 3193 0062 6C6F6E67 		.ascii	"long long unsigned int\000"
 3193      206C6F6E 
 3193      6720756E 
 3193      7369676E 
 3193      65642069 
 3194              	.LASF75:
 3195 0079 43524350 		.ascii	"CRCPR\000"
 3195      5200
 3196              	.LASF50:
 3197 007f 65786974 		.ascii	"exitcode\000"
 3197      636F6465 
 3197      00
 3198              	.LASF90:
 3199 0088 76656374 		.ascii	"vector\000"
 3199      6F7200
 3200              	.LASF100:
 3201 008f 53504944 		.ascii	"SPIDriver\000"
 3201      72697665 
 3201      7200
 3202              	.LASF109:
 3203 0099 7373706F 		.ascii	"ssport\000"
 3203      727400
 3204              	.LASF124:
 3205 00a0 49544D5F 		.ascii	"ITM_RxBuffer\000"
 3205      52784275 
 3205      66666572 
 3205      00
 3206              	.LASF117:
 3207 00ad 73657444 		.ascii	"setDac1\000"
 3207      61633100 
 3208              	.LASF120:
 3209 00b5 73657444 		.ascii	"setDac2\000"
 3209      61633200 
 3210              	.LASF24:
 3211 00bd 705F7072 		.ascii	"p_prio\000"
 3211      696F00
 3212              	.LASF115:
 3213 00c4 656D7074 		.ascii	"empty\000"
 3213      7900
 3214              	.LASF55:
 3215 00ca 715F7761 		.ascii	"q_waiting\000"
 3215      6974696E 
ARM GAS  C:\Users\z80\AppData\Local\Temp\cckqF1C0.s 			page 60


 3215      6700
 3216              	.LASF12:
 3217 00d4 6C6F6E67 		.ascii	"long long int\000"
 3217      206C6F6E 
 3217      6720696E 
 3217      7400
 3218              	.LASF1:
 3219 00e2 7369676E 		.ascii	"signed char\000"
 3219      65642063 
 3219      68617200 
 3220              	.LASF129:
 3221 00ee 6E657756 		.ascii	"newValues\000"
 3221      616C7565 
 3221      7300
 3222              	.LASF116:
 3223 00f8 73657444 		.ascii	"setDac\000"
 3223      616300
 3224              	.LASF95:
 3225 00ff 5350495F 		.ascii	"SPI_STOP\000"
 3225      53544F50 
 3225      00
 3226              	.LASF81:
 3227 0108 49325343 		.ascii	"I2SCFGR\000"
 3227      46475200 
 3228              	.LASF46:
 3229 0110 6D5F7175 		.ascii	"m_queue\000"
 3229      65756500 
 3230              	.LASF134:
 3231 0118 433A5C70 		.ascii	"C:\\projects\\digitizer.git\\firmware\\digitizer\000"
 3231      726F6A65 
 3231      6374735C 
 3231      64696769 
 3231      74697A65 
 3232              	.LASF101:
 3233 0145 73746174 		.ascii	"state\000"
 3233      6500
 3234              	.LASF9:
 3235 014b 6C6F6E67 		.ascii	"long int\000"
 3235      20696E74 
 3235      00
 3236              	.LASF16:
 3237 0154 74737461 		.ascii	"tstate_t\000"
 3237      74655F74 
 3237      00
 3238              	.LASF57:
 3239 015d 715F6275 		.ascii	"q_buffer\000"
 3239      66666572 
 3239      00
 3240              	.LASF59:
 3241 0166 715F7772 		.ascii	"q_wrptr\000"
 3241      70747200 
 3242              	.LASF32:
 3243 016e 705F7469 		.ascii	"p_time\000"
 3243      6D6500
 3244              	.LASF26:
 3245 0175 705F6E65 		.ascii	"p_newer\000"
 3245      77657200 
ARM GAS  C:\Users\z80\AppData\Local\Temp\cckqF1C0.s 			page 61


 3246              	.LASF108:
 3247 017d 656E645F 		.ascii	"end_cb\000"
 3247      636200
 3248              	.LASF105:
 3249 0184 7278646D 		.ascii	"rxdmamode\000"
 3249      616D6F64 
 3249      6500
 3250              	.LASF104:
 3251 018e 646D6174 		.ascii	"dmatx\000"
 3251      7800
 3252              	.LASF41:
 3253 0194 72656761 		.ascii	"regarm_t\000"
 3253      726D5F74 
 3253      00
 3254              	.LASF89:
 3255 019d 73656C66 		.ascii	"selfindex\000"
 3255      696E6465 
 3255      7800
 3256              	.LASF107:
 3257 01a7 73706963 		.ascii	"spicallback_t\000"
 3257      616C6C62 
 3257      61636B5F 
 3257      7400
 3258              	.LASF114:
 3259 01b5 76616C75 		.ascii	"value\000"
 3259      6500
 3260              	.LASF29:
 3261 01bb 705F7374 		.ascii	"p_stklimit\000"
 3261      6B6C696D 
 3261      697400
 3262              	.LASF0:
 3263 01c6 756E7369 		.ascii	"unsigned int\000"
 3263      676E6564 
 3263      20696E74 
 3263      00
 3264              	.LASF6:
 3265 01d3 75696E74 		.ascii	"uint16_t\000"
 3265      31365F74 
 3265      00
 3266              	.LASF65:
 3267 01dc 43504152 		.ascii	"CPAR\000"
 3267      00
 3268              	.LASF34:
 3269 01e1 705F6D73 		.ascii	"p_msgqueue\000"
 3269      67717565 
 3269      756500
 3270              	.LASF70:
 3271 01ec 4750494F 		.ascii	"GPIO_TypeDef\000"
 3271      5F547970 
 3271      65446566 
 3271      00
 3272              	.LASF69:
 3273 01f9 4C434B52 		.ascii	"LCKR\000"
 3273      00
 3274              	.LASF88:
 3275 01fe 69736869 		.ascii	"ishift\000"
 3275      667400
ARM GAS  C:\Users\z80\AppData\Local\Temp\cckqF1C0.s 			page 62


 3276              	.LASF7:
 3277 0205 73686F72 		.ascii	"short unsigned int\000"
 3277      7420756E 
 3277      7369676E 
 3277      65642069 
 3277      6E7400
 3278              	.LASF18:
 3279 0218 6D73675F 		.ascii	"msg_t\000"
 3279      7400
 3280              	.LASF15:
 3281 021e 746D6F64 		.ascii	"tmode_t\000"
 3281      655F7400 
 3282              	.LASF119:
 3283 0226 76616C75 		.ascii	"valueH\000"
 3283      654800
 3284              	.LASF40:
 3285 022d 54687265 		.ascii	"ThreadsList\000"
 3285      6164734C 
 3285      69737400 
 3286              	.LASF19:
 3287 0239 6576656E 		.ascii	"eventmask_t\000"
 3287      746D6173 
 3287      6B5F7400 
 3288              	.LASF62:
 3289 0245 716E6F74 		.ascii	"qnotify_t\000"
 3289      6966795F 
 3289      7400
 3290              	.LASF54:
 3291 024f 47656E65 		.ascii	"GenericQueue\000"
 3291      72696351 
 3291      75657565 
 3291      00
 3292              	.LASF123:
 3293 025c 71756575 		.ascii	"queueSize\000"
 3293      6553697A 
 3293      6500
 3294              	.LASF42:
 3295 0266 73746B61 		.ascii	"stkalign_t\000"
 3295      6C69676E 
 3295      5F7400
 3296              	.LASF21:
 3297 0271 54687265 		.ascii	"Thread\000"
 3297      616400
 3298              	.LASF39:
 3299 0278 54687265 		.ascii	"ThreadsQueue\000"
 3299      61647351 
 3299      75657565 
 3299      00
 3300              	.LASF83:
 3301 0285 49325350 		.ascii	"I2SPR\000"
 3301      5200
 3302              	.LASF56:
 3303 028b 715F636F 		.ascii	"q_counter\000"
 3303      756E7465 
 3303      7200
 3304              	.LASF45:
 3305 0295 4D757465 		.ascii	"Mutex\000"
ARM GAS  C:\Users\z80\AppData\Local\Temp\cckqF1C0.s 			page 63


 3305      7800
 3306              	.LASF27:
 3307 029b 705F6F6C 		.ascii	"p_older\000"
 3307      64657200 
 3308              	.LASF136:
 3309 02a3 696E6974 		.ascii	"initDac\000"
 3309      44616300 
 3310              	.LASF106:
 3311 02ab 7478646D 		.ascii	"txdmamode\000"
 3311      616D6F64 
 3311      6500
 3312              	.LASF67:
 3313 02b5 444D415F 		.ascii	"DMA_Channel_TypeDef\000"
 3313      4368616E 
 3313      6E656C5F 
 3313      54797065 
 3313      44656600 
 3314              	.LASF79:
 3315 02c9 54584352 		.ascii	"TXCRCR\000"
 3315      435200
 3316              	.LASF71:
 3317 02d0 52455345 		.ascii	"RESERVED0\000"
 3317      52564544 
 3317      3000
 3318              	.LASF72:
 3319 02da 52455345 		.ascii	"RESERVED1\000"
 3319      52564544 
 3319      3100
 3320              	.LASF73:
 3321 02e4 52455345 		.ascii	"RESERVED2\000"
 3321      52564544 
 3321      3200
 3322              	.LASF74:
 3323 02ee 52455345 		.ascii	"RESERVED3\000"
 3323      52564544 
 3323      3300
 3324              	.LASF76:
 3325 02f8 52455345 		.ascii	"RESERVED4\000"
 3325      52564544 
 3325      3400
 3326              	.LASF23:
 3327 0302 705F7072 		.ascii	"p_prev\000"
 3327      657600
 3328              	.LASF80:
 3329 0309 52455345 		.ascii	"RESERVED6\000"
 3329      52564544 
 3329      3600
 3330              	.LASF82:
 3331 0313 52455345 		.ascii	"RESERVED7\000"
 3331      52564544 
 3331      3700
 3332              	.LASF84:
 3333 031d 52455345 		.ascii	"RESERVED8\000"
 3333      52564544 
 3333      3800
 3334              	.LASF17:
 3335 0327 74707269 		.ascii	"tprio_t\000"
ARM GAS  C:\Users\z80\AppData\Local\Temp\cckqF1C0.s 			page 64


 3335      6F5F7400 
 3336              	.LASF60:
 3337 032f 715F7264 		.ascii	"q_rdptr\000"
 3337      70747200 
 3338              	.LASF8:
 3339 0337 696E7433 		.ascii	"int32_t\000"
 3339      325F7400 
 3340              	.LASF4:
 3341 033f 756E7369 		.ascii	"unsigned char\000"
 3341      676E6564 
 3341      20636861 
 3341      7200
 3342              	.LASF91:
 3343 034d 73746D33 		.ascii	"stm32_dma_stream_t\000"
 3343      325F646D 
 3343      615F7374 
 3343      7265616D 
 3343      5F7400
 3344              	.LASF125:
 3345 0360 53504944 		.ascii	"SPID2\000"
 3345      3200
 3346              	.LASF37:
 3347 0366 705F6D74 		.ascii	"p_mtxlist\000"
 3347      786C6973 
 3347      7400
 3348              	.LASF5:
 3349 0370 73686F72 		.ascii	"short int\000"
 3349      7420696E 
 3349      7400
 3350              	.LASF30:
 3351 037a 705F7374 		.ascii	"p_state\000"
 3351      61746500 
 3352              	.LASF52:
 3353 0382 65776D61 		.ascii	"ewmask\000"
 3353      736B00
 3354              	.LASF22:
 3355 0389 705F6E65 		.ascii	"p_next\000"
 3355      787400
 3356              	.LASF31:
 3357 0390 705F666C 		.ascii	"p_flags\000"
 3357      61677300 
 3358              	.LASF86:
 3359 0398 6368616E 		.ascii	"channel\000"
 3359      6E656C00 
 3360              	.LASF133:
 3361 03a0 2E2F7372 		.ascii	"./src/dac_ctrl.c\000"
 3361      632F6461 
 3361      635F6374 
 3361      726C2E63 
 3361      00
 3362              	.LASF36:
 3363 03b1 705F6570 		.ascii	"p_epending\000"
 3363      656E6469 
 3363      6E6700
 3364              	.LASF87:
 3365 03bc 69666372 		.ascii	"ifcr\000"
 3365      00
ARM GAS  C:\Users\z80\AppData\Local\Temp\cckqF1C0.s 			page 65


 3366              	.LASF78:
 3367 03c1 52455345 		.ascii	"RESERVED5\000"
 3367      52564544 
 3367      3500
 3368              	.LASF10:
 3369 03cb 75696E74 		.ascii	"uint32_t\000"
 3369      33325F74 
 3369      00
 3370              	.LASF135:
 3371 03d4 6F6E4461 		.ascii	"onDacSpiComplete\000"
 3371      63537069 
 3371      436F6D70 
 3371      6C657465 
 3371      00
 3372              	.LASF77:
 3373 03e5 52584352 		.ascii	"RXCRCR\000"
 3373      435200
 3374              	.LASF127:
 3375 03ec 6461635F 		.ascii	"dac_queue_buffer\000"
 3375      71756575 
 3375      655F6275 
 3375      66666572 
 3375      00
 3376              	.LASF11:
 3377 03fd 6C6F6E67 		.ascii	"long unsigned int\000"
 3377      20756E73 
 3377      69676E65 
 3377      6420696E 
 3377      7400
 3378              	.LASF85:
 3379 040f 5350495F 		.ascii	"SPI_TypeDef\000"
 3379      54797065 
 3379      44656600 
 3380              	.LASF53:
 3381 041b 63686172 		.ascii	"char\000"
 3381      00
 3382              	.LASF98:
 3383 0420 5350495F 		.ascii	"SPI_COMPLETE\000"
 3383      434F4D50 
 3383      4C455445 
 3383      00
 3384              	.LASF102:
 3385 042d 636F6E66 		.ascii	"config\000"
 3385      696700
 3386              	.LASF113:
 3387 0434 696E6465 		.ascii	"index\000"
 3387      7800
 3388              	.LASF99:
 3389 043a 73706973 		.ascii	"spistate_t\000"
 3389      74617465 
 3389      5F7400
 3390              	.LASF48:
 3391 0445 6D5F6E65 		.ascii	"m_next\000"
 3391      787400
 3392              	.LASF20:
 3393 044c 73797374 		.ascii	"systime_t\000"
 3393      696D655F 
ARM GAS  C:\Users\z80\AppData\Local\Temp\cckqF1C0.s 			page 66


 3393      7400
 3394              	.LASF38:
 3395 0456 705F7265 		.ascii	"p_realprio\000"
 3395      616C7072 
 3395      696F00
 3396              	.LASF93:
 3397 0461 696F706F 		.ascii	"ioportid_t\000"
 3397      72746964 
 3397      5F7400
 3398              	.LASF44:
 3399 046c 636F6E74 		.ascii	"context\000"
 3399      65787400 
 3400              	.LASF122:
 3401 0474 70726F63 		.ascii	"processDacI\000"
 3401      65737344 
 3401      61634900 
 3402              	.LASF43:
 3403 0480 696E7463 		.ascii	"intctx\000"
 3403      747800
 3404              	.LASF96:
 3405 0487 5350495F 		.ascii	"SPI_READY\000"
 3405      52454144 
 3405      5900
 3406              	.LASF94:
 3407 0491 5350495F 		.ascii	"SPI_UNINIT\000"
 3407      554E494E 
 3407      495400
 3408              	.LASF58:
 3409 049c 715F746F 		.ascii	"q_top\000"
 3409      7000
 3410              	.LASF68:
 3411 04a2 42535252 		.ascii	"BSRR\000"
 3411      00
 3412              	.LASF121:
 3413 04a7 73657444 		.ascii	"setDacI\000"
 3413      61634900 
 3414              	.LASF112:
 3415 04af 73706964 		.ascii	"spid\000"
 3415      00
 3416              	.LASF64:
 3417 04b4 434E4454 		.ascii	"CNDTR\000"
 3417      5200
 3418              	.LASF66:
 3419 04ba 434D4152 		.ascii	"CMAR\000"
 3419      00
 3420              	.LASF61:
 3421 04bf 715F6E6F 		.ascii	"q_notify\000"
 3421      74696679 
 3421      00
 3422              	.LASF3:
 3423 04c8 75696E74 		.ascii	"uint8_t\000"
 3423      385F7400 
 3424              	.LASF132:
 3425 04d0 474E5520 		.ascii	"GNU C 4.5.0\000"
 3425      4320342E 
 3425      352E3000 
 3426              	.LASF51:
ARM GAS  C:\Users\z80\AppData\Local\Temp\cckqF1C0.s 			page 67


 3427 04dc 77746F62 		.ascii	"wtobjp\000"
 3427      6A7000
 3428              	.LASF28:
 3429 04e3 705F6E61 		.ascii	"p_name\000"
 3429      6D6500
 3430              	.LASF128:
 3431 04ea 6461635F 		.ascii	"dac_tx_buffer\000"
 3431      74785F62 
 3431      75666665 
 3431      7200
 3432              	.LASF111:
 3433 04f8 53504943 		.ascii	"SPIConfig\000"
 3433      6F6E6669 
 3433      6700
 3434              	.LASF35:
 3435 0502 705F6D73 		.ascii	"p_msg\000"
 3435      6700
 3436              	.LASF130:
 3437 0508 64616356 		.ascii	"dacValues\000"
 3437      616C7565 
 3437      7300
 3438              	.LASF47:
 3439 0512 6D5F6F77 		.ascii	"m_owner\000"
 3439      6E657200 
 3440              	.LASF25:
 3441 051a 705F6374 		.ascii	"p_ctx\000"
 3441      7800
 3442              	.LASF33:
 3443 0520 705F7761 		.ascii	"p_waiting\000"
 3443      6974696E 
 3443      6700
 3444              		.ident	"GCC: (GNU) 4.5.0"
ARM GAS  C:\Users\z80\AppData\Local\Temp\cckqF1C0.s 			page 68


DEFINED SYMBOLS
                            *ABS*:00000000 dac_ctrl.c
C:\Users\z80\AppData\Local\Temp\cckqF1C0.s:24     .text.onDacSpiComplete:00000000 $t
C:\Users\z80\AppData\Local\Temp\cckqF1C0.s:29     .text.onDacSpiComplete:00000000 onDacSpiComplete
C:\Users\z80\AppData\Local\Temp\cckqF1C0.s:75     .text.setDacI:00000000 $t
C:\Users\z80\AppData\Local\Temp\cckqF1C0.s:81     .text.setDacI:00000000 setDacI
C:\Users\z80\AppData\Local\Temp\cckqF1C0.s:581    .data.newValues:00000000 .LANCHOR0
C:\Users\z80\AppData\Local\Temp\cckqF1C0.s:105    .text.setDac:00000000 $t
C:\Users\z80\AppData\Local\Temp\cckqF1C0.s:111    .text.setDac:00000000 setDac
C:\Users\z80\AppData\Local\Temp\cckqF1C0.s:194    .text.setDac:00000050 $d
C:\Users\z80\AppData\Local\Temp\cckqF1C0.s:199    .text.initDac:00000000 $t
C:\Users\z80\AppData\Local\Temp\cckqF1C0.s:205    .text.initDac:00000000 initDac
C:\Users\z80\AppData\Local\Temp\cckqF1C0.s:591    .bss.dac_queue:00000000 .LANCHOR1
C:\Users\z80\AppData\Local\Temp\cckqF1C0.s:598    .bss.dac_queue_buffer:00000000 .LANCHOR2
C:\Users\z80\AppData\Local\Temp\cckqF1C0.s:605    .data.hs_spicfg:00000000 .LANCHOR3
C:\Users\z80\AppData\Local\Temp\cckqF1C0.s:309    .text.setDac1:00000000 $t
C:\Users\z80\AppData\Local\Temp\cckqF1C0.s:315    .text.setDac1:00000000 setDac1
C:\Users\z80\AppData\Local\Temp\cckqF1C0.s:357    .text.setDac2:00000000 $t
C:\Users\z80\AppData\Local\Temp\cckqF1C0.s:363    .text.setDac2:00000000 setDac2
C:\Users\z80\AppData\Local\Temp\cckqF1C0.s:405    .text.processDacI:00000000 $t
C:\Users\z80\AppData\Local\Temp\cckqF1C0.s:411    .text.processDacI:00000000 processDacI
C:\Users\z80\AppData\Local\Temp\cckqF1C0.s:487    .text.processDacI:0000005a $d
C:\Users\z80\AppData\Local\Temp\cckqF1C0.s:491    .text.processDacI:0000005e $t
C:\Users\z80\AppData\Local\Temp\cckqF1C0.s:547    .text.processDacI:000000b4 $d
C:\Users\z80\AppData\Local\Temp\cckqF1C0.s:584    .data.newValues:00000000 newValues
C:\Users\z80\AppData\Local\Temp\cckqF1C0.s:567    .data.dacValues:00000000 dacValues
C:\Users\z80\AppData\Local\Temp\cckqF1C0.s:594    .bss.dac_queue:00000000 dac_queue
C:\Users\z80\AppData\Local\Temp\cckqF1C0.s:601    .bss.dac_queue_buffer:00000000 dac_queue_buffer
C:\Users\z80\AppData\Local\Temp\cckqF1C0.s:577    .bss.dac_tx_buffer:00000000 dac_tx_buffer
C:\Users\z80\AppData\Local\Temp\cckqF1C0.s:563    .data.dacValues:00000000 $d
C:\Users\z80\AppData\Local\Temp\cckqF1C0.s:573    .bss.dac_tx_buffer:00000000 $d
C:\Users\z80\AppData\Local\Temp\cckqF1C0.s:580    .data.newValues:00000000 $d
C:\Users\z80\AppData\Local\Temp\cckqF1C0.s:590    .bss.dac_queue:00000000 $d
C:\Users\z80\AppData\Local\Temp\cckqF1C0.s:597    .bss.dac_queue_buffer:00000000 $d
C:\Users\z80\AppData\Local\Temp\cckqF1C0.s:604    .data.hs_spicfg:00000000 $d
C:\Users\z80\AppData\Local\Temp\cckqF1C0.s:608    .data.hs_spicfg:00000000 hs_spicfg
                     .debug_frame:00000010 $d
C:\Users\z80\AppData\Local\Temp\cckqF1C0.s:198    .text.setDac:00000054 $t
C:\Users\z80\AppData\Local\Temp\cckqF1C0.s:562    .text.processDacI:000000cc $t

UNDEFINED SYMBOLS
dbg_check_lock_from_isr
SPID2
spi_lld_unselect
dbg_check_unlock_from_isr
dbg_check_lock
dbg_check_unlock
chOQPutTimeout
chOQInit
_pal_lld_setgroupmode
spiStart
chOQGetI
spi_lld_select
spi_lld_send
