ARM GAS  C:\Users\z80\AppData\Local\Temp\cchsHRHB.s 			page 1


   1              		.syntax unified
   2              		.cpu cortex-m3
   3              		.fpu softvfp
   4              		.eabi_attribute 20, 1
   5              		.eabi_attribute 21, 1
   6              		.eabi_attribute 23, 3
   7              		.eabi_attribute 24, 1
   8              		.eabi_attribute 25, 1
   9              		.eabi_attribute 26, 1
  10              		.eabi_attribute 30, 6
  11              		.eabi_attribute 34, 1
  12              		.eabi_attribute 18, 4
  13              		.thumb
  14              		.file	"dac_ctrl.c"
  15              		.text
  16              	.Ltext0:
  17              		.cfi_sections	.debug_frame
  18              		.global	dac_queue
  19              		.section	.bss.dac_queue,"aw",%nobits
  20              		.align	2
  21              		.type	dac_queue, %object
  22              		.size	dac_queue, 32
  23              	dac_queue:
  24 0000 00000000 		.space	32
  24      00000000 
  24      00000000 
  24      00000000 
  24      00000000 
  25              		.global	dac_queue_buffer
  26              		.section	.bss.dac_queue_buffer,"aw",%nobits
  27              		.align	2
  28              		.type	dac_queue_buffer, %object
  29              		.size	dac_queue_buffer, 24
  30              	dac_queue_buffer:
  31 0000 00000000 		.space	24
  31      00000000 
  31      00000000 
  31      00000000 
  31      00000000 
  32              		.global	dac_tx_buffer
  33              		.section	.bss.dac_tx_buffer,"aw",%nobits
  34              		.align	2
  35              		.type	dac_tx_buffer, %object
  36              		.size	dac_tx_buffer, 2
  37              	dac_tx_buffer:
  38 0000 0000     		.space	2
  39              		.global	newValues
  40 0002 0000     		.section	.data.newValues,"aw",%progbits
  41              		.align	2
  42              		.type	newValues, %object
  43              		.size	newValues, 16
  44              	newValues:
  45 0000 FFFFFFFF 		.word	-1
  46 0004 FFFFFFFF 		.word	-1
  47 0008 FFFFFFFF 		.word	-1
  48 000c FFFFFFFF 		.word	-1
  49              		.global	dacValues
ARM GAS  C:\Users\z80\AppData\Local\Temp\cchsHRHB.s 			page 2


  50              		.section	.data.dacValues,"aw",%progbits
  51              		.align	2
  52              		.type	dacValues, %object
  53              		.size	dacValues, 16
  54              	dacValues:
  55 0000 FFFFFFFF 		.word	-1
  56 0004 FFFFFFFF 		.word	-1
  57 0008 FFFFFFFF 		.word	-1
  58 000c FFFFFFFF 		.word	-1
  59              		.section	.data.hs_spicfg,"aw",%progbits
  60              		.align	2
  61              		.type	hs_spicfg, %object
  62              		.size	hs_spicfg, 12
  63              	hs_spicfg:
  64 0000 00000000 		.word	onDacSpiComplete
  65 0004 000C0140 		.word	1073810432
  66 0008 0900     		.short	9
  67 000a 1000     		.short	16
  68              		.section	.text.initDac,"ax",%progbits
  69              		.align	2
  70              		.p2align 4,,15
  71              		.global	initDac
  72              		.thumb
  73              		.thumb_func
  74              		.type	initDac, %function
  75              	initDac:
  76              	.LFB62:
  77              		.file 1 "./src/dac_ctrl.c"
  78              		.loc 1 59 0
  79              		.cfi_startproc
  80              		@ args = 0, pretend = 0, frame = 0
  81              		@ frame_needed = 0, uses_anonymous_args = 0
  82 0000 08B5     		push	{r3, lr}
  83              	.LCFI0:
  84              		.cfi_def_cfa_offset 8
  85              		.cfi_offset 14, -4
  86              		.cfi_offset 3, -8
  87              		.loc 1 60 0
  88 0002 4FF44060 		mov	r0, #3072
  89 0006 C4F20100 		movt	r0, 16385
  90 000a 4FF02001 		mov	r1, #32
  91 000e 4FF00602 		mov	r2, #6
  92 0012 FFF7FEFF 		bl	_pal_lld_setgroupmode
  93              		.loc 1 62 0
  94 0016 40F20000 		movw	r0, #:lower16:dac_queue
  95 001a C0F20000 		movt	r0, #:upper16:dac_queue
  96 001e 40F20001 		movw	r1, #:lower16:dac_queue_buffer
  97 0022 C0F20001 		movt	r1, #:upper16:dac_queue_buffer
  98 0026 4FF01802 		mov	r2, #24
  99 002a 4FF00003 		mov	r3, #0
 100 002e FFF7FEFF 		bl	chOQInit
 101              		.loc 1 64 0
 102 0032 4FF44060 		mov	r0, #3072
 103 0036 C4F20100 		movt	r0, 16385
 104 003a 4FF40051 		mov	r1, #8192
 105 003e 4FF01002 		mov	r2, #16
 106 0042 FFF7FEFF 		bl	_pal_lld_setgroupmode
ARM GAS  C:\Users\z80\AppData\Local\Temp\cchsHRHB.s 			page 3


 107              		.loc 1 65 0
 108 0046 4FF44060 		mov	r0, #3072
 109 004a C4F20100 		movt	r0, 16385
 110 004e 4FF40041 		mov	r1, #32768
 111 0052 4FF01002 		mov	r2, #16
 112 0056 FFF7FEFF 		bl	_pal_lld_setgroupmode
 113              		.loc 1 67 0
 114 005a 4FF44063 		mov	r3, #3072
 115 005e C4F20103 		movt	r3, 16385
 116 0062 4FF40072 		mov	r2, #512
 117 0066 1A61     		str	r2, [r3, #16]
 118              		.loc 1 68 0
 119 0068 4FF44063 		mov	r3, #3072
 120 006c C4F20103 		movt	r3, 16385
 121 0070 4FF48062 		mov	r2, #1024
 122 0074 1A61     		str	r2, [r3, #16]
 123              		.loc 1 69 0
 124 0076 4FF44063 		mov	r3, #3072
 125 007a C4F20103 		movt	r3, 16385
 126 007e 4FF40062 		mov	r2, #2048
 127 0082 1A61     		str	r2, [r3, #16]
 128              		.loc 1 70 0
 129 0084 4FF44063 		mov	r3, #3072
 130 0088 C4F20103 		movt	r3, 16385
 131 008c 4FF48052 		mov	r2, #4096
 132 0090 1A61     		str	r2, [r3, #16]
 133              		.loc 1 72 0
 134 0092 4FF44060 		mov	r0, #3072
 135 0096 C4F20100 		movt	r0, 16385
 136 009a 4FF40071 		mov	r1, #512
 137 009e 4FF00602 		mov	r2, #6
 138 00a2 FFF7FEFF 		bl	_pal_lld_setgroupmode
 139              		.loc 1 73 0
 140 00a6 4FF44060 		mov	r0, #3072
 141 00aa C4F20100 		movt	r0, 16385
 142 00ae 4FF48061 		mov	r1, #1024
 143 00b2 4FF00602 		mov	r2, #6
 144 00b6 FFF7FEFF 		bl	_pal_lld_setgroupmode
 145              		.loc 1 74 0
 146 00ba 4FF44060 		mov	r0, #3072
 147 00be C4F20100 		movt	r0, 16385
 148 00c2 4FF40061 		mov	r1, #2048
 149 00c6 4FF00602 		mov	r2, #6
 150 00ca FFF7FEFF 		bl	_pal_lld_setgroupmode
 151              		.loc 1 75 0
 152 00ce 4FF44060 		mov	r0, #3072
 153 00d2 C4F20100 		movt	r0, 16385
 154 00d6 4FF48051 		mov	r1, #4096
 155 00da 4FF00602 		mov	r2, #6
 156 00de FFF7FEFF 		bl	_pal_lld_setgroupmode
 157              		.loc 1 77 0
 158 00e2 40F20000 		movw	r0, #:lower16:SPID2
 159 00e6 C0F20000 		movt	r0, #:upper16:SPID2
 160 00ea 40F20001 		movw	r1, #:lower16:hs_spicfg
 161 00ee C0F20001 		movt	r1, #:upper16:hs_spicfg
 162 00f2 FFF7FEFF 		bl	spiStart
 163              		.loc 1 79 0
ARM GAS  C:\Users\z80\AppData\Local\Temp\cchsHRHB.s 			page 4


 164 00f6 4FF00000 		mov	r0, #0
 165 00fa 47F6FF71 		movw	r1, #32767
 166 00fe FFF7FEFF 		bl	setDac
 167              		.loc 1 80 0
 168 0102 4FF00100 		mov	r0, #1
 169 0106 47F6FF71 		movw	r1, #32767
 170 010a FFF7FEFF 		bl	setDac
 171              		.loc 1 81 0
 172 010e 4FF00200 		mov	r0, #2
 173 0112 47F6FF71 		movw	r1, #32767
 174 0116 FFF7FEFF 		bl	setDac
 175              		.loc 1 82 0
 176 011a 4FF00300 		mov	r0, #3
 177 011e 47F6FF71 		movw	r1, #32767
 178 0122 FFF7FEFF 		bl	setDac
 179              		.loc 1 83 0
 180 0126 08BD     		pop	{r3, pc}
 181              		.cfi_endproc
 182              	.LFE62:
 183              		.size	initDac, .-initDac
 184 0128 AFF30080 		.section	.text.setDacI,"ax",%progbits
 184      AFF30080 
 185              		.align	2
 186              		.p2align 4,,15
 187              		.global	setDacI
 188              		.thumb
 189              		.thumb_func
 190              		.type	setDacI, %function
 191              	setDacI:
 192              	.LFB63:
 193              		.loc 1 86 0
 194              		.cfi_startproc
 195              		@ args = 0, pretend = 0, frame = 8
 196              		@ frame_needed = 0, uses_anonymous_args = 0
 197              		@ link register save eliminated.
 198 0000 82B0     		sub	sp, sp, #8
 199              	.LCFI1:
 200              		.cfi_def_cfa_offset 8
 201 0002 0190     		str	r0, [sp, #4]
 202 0004 0091     		str	r1, [sp, #0]
 203              		.loc 1 87 0
 204 0006 019A     		ldr	r2, [sp, #4]
 205 0008 4FEAE273 		asr	r3, r2, #31
 206 000c 4FEA9373 		lsr	r3, r3, #30
 207 0010 D218     		adds	r2, r2, r3
 208 0012 02F00302 		and	r2, r2, #3
 209 0016 D31A     		subs	r3, r2, r3
 210 0018 1A46     		mov	r2, r3
 211 001a 40F20003 		movw	r3, #:lower16:newValues
 212 001e C0F20003 		movt	r3, #:upper16:newValues
 213 0022 0099     		ldr	r1, [sp, #0]
 214 0024 43F82210 		str	r1, [r3, r2, lsl #2]
 215              		.loc 1 88 0
 216 0028 02B0     		add	sp, sp, #8
 217 002a 7047     		bx	lr
 218              		.cfi_endproc
 219              	.LFE63:
ARM GAS  C:\Users\z80\AppData\Local\Temp\cchsHRHB.s 			page 5


 220              		.size	setDacI, .-setDacI
 221 002c AFF30080 		.section	.text.setDac,"ax",%progbits
 222              		.align	2
 223              		.p2align 4,,15
 224              		.global	setDac
 225              		.thumb
 226              		.thumb_func
 227              		.type	setDac, %function
 228              	setDac:
 229              	.LFB64:
 230              		.loc 1 91 0
 231              		.cfi_startproc
 232              		@ args = 0, pretend = 0, frame = 16
 233              		@ frame_needed = 0, uses_anonymous_args = 0
 234 0000 00B5     		push	{lr}
 235              	.LCFI2:
 236              		.cfi_def_cfa_offset 4
 237              		.cfi_offset 14, -4
 238 0002 85B0     		sub	sp, sp, #20
 239              	.LCFI3:
 240              		.cfi_def_cfa_offset 24
 241 0004 0190     		str	r0, [sp, #4]
 242 0006 0091     		str	r1, [sp, #0]
 243              	.LBB2:
 244              		.loc 1 93 0
 245 0008 4FF02003 		mov	r3, #32
 246              	@ 93 "./src/dac_ctrl.c" 1
 247 000c 83F31188 		msr     BASEPRI, r3
 248              	@ 0 "" 2
 249              		.thumb
 250              	.LBE2:
 251 0010 FFF7FEFF 		bl	dbg_check_lock
 252              		.loc 1 94 0
 253 0014 40F20003 		movw	r3, #:lower16:dac_queue
 254 0018 C0F20003 		movt	r3, #:upper16:dac_queue
 255 001c 9B68     		ldr	r3, [r3, #8]
 256 001e 0293     		str	r3, [sp, #8]
 257              		.loc 1 95 0
 258 0020 FFF7FEFF 		bl	dbg_check_unlock
 259              	.LBB3:
 260 0024 4FF00003 		mov	r3, #0
 261              	@ 95 "./src/dac_ctrl.c" 1
 262 0028 83F31188 		msr     BASEPRI, r3
 263              	@ 0 "" 2
 264              		.thumb
 265              	.LBE3:
 266              		.loc 1 96 0
 267 002c 029B     		ldr	r3, [sp, #8]
 268 002e 022B     		cmp	r3, #2
 269 0030 26DD     		ble	.L4
 270              		.loc 1 98 0
 271 0032 019B     		ldr	r3, [sp, #4]
 272 0034 DBB2     		uxtb	r3, r3
 273 0036 40F20000 		movw	r0, #:lower16:dac_queue
 274 003a C0F20000 		movt	r0, #:upper16:dac_queue
 275 003e 1946     		mov	r1, r3
 276 0040 4FF0FF32 		mov	r2, #-1
ARM GAS  C:\Users\z80\AppData\Local\Temp\cchsHRHB.s 			page 6


 277 0044 FFF7FEFF 		bl	chOQPutTimeout
 278              		.loc 1 99 0
 279 0048 009B     		ldr	r3, [sp, #0]
 280 004a DBB2     		uxtb	r3, r3
 281 004c 40F20000 		movw	r0, #:lower16:dac_queue
 282 0050 C0F20000 		movt	r0, #:upper16:dac_queue
 283 0054 1946     		mov	r1, r3
 284 0056 4FF0FF32 		mov	r2, #-1
 285 005a FFF7FEFF 		bl	chOQPutTimeout
 286              		.loc 1 100 0
 287 005e 009B     		ldr	r3, [sp, #0]
 288 0060 4FEA2323 		asr	r3, r3, #8
 289 0064 DBB2     		uxtb	r3, r3
 290 0066 40F20000 		movw	r0, #:lower16:dac_queue
 291 006a C0F20000 		movt	r0, #:upper16:dac_queue
 292 006e 1946     		mov	r1, r3
 293 0070 4FF0FF32 		mov	r2, #-1
 294 0074 FFF7FEFF 		bl	chOQPutTimeout
 295              		.loc 1 101 0
 296 0078 4FF00003 		mov	r3, #0
 297 007c 0393     		str	r3, [sp, #12]
 298 007e 02E0     		b	.L5
 299              	.L4:
 300              		.loc 1 104 0
 301 0080 4FF00103 		mov	r3, #1
 302 0084 0393     		str	r3, [sp, #12]
 303              	.L5:
 304              		.loc 1 105 0
 305 0086 039B     		ldr	r3, [sp, #12]
 306              		.loc 1 106 0
 307 0088 1846     		mov	r0, r3
 308 008a 05B0     		add	sp, sp, #20
 309 008c 00BD     		pop	{pc}
 310              		.cfi_endproc
 311              	.LFE64:
 312              		.size	setDac, .-setDac
 313 008e 00BF     		.section	.text.setDac1,"ax",%progbits
 314              		.align	2
 315              		.p2align 4,,15
 316              		.global	setDac1
 317              		.thumb
 318              		.thumb_func
 319              		.type	setDac1, %function
 320              	setDac1:
 321              	.LFB65:
 322              		.loc 1 109 0
 323              		.cfi_startproc
 324              		@ args = 0, pretend = 0, frame = 16
 325              		@ frame_needed = 0, uses_anonymous_args = 0
 326 0000 00B5     		push	{lr}
 327              	.LCFI4:
 328              		.cfi_def_cfa_offset 4
 329              		.cfi_offset 14, -4
 330 0002 85B0     		sub	sp, sp, #20
 331              	.LCFI5:
 332              		.cfi_def_cfa_offset 24
 333 0004 0190     		str	r0, [sp, #4]
ARM GAS  C:\Users\z80\AppData\Local\Temp\cchsHRHB.s 			page 7


 334 0006 0091     		str	r1, [sp, #0]
 335              		.loc 1 111 0
 336 0008 4FF00000 		mov	r0, #0
 337 000c 0199     		ldr	r1, [sp, #4]
 338 000e FFF7FEFF 		bl	setDac
 339 0012 0390     		str	r0, [sp, #12]
 340              		.loc 1 112 0
 341 0014 4FF00100 		mov	r0, #1
 342 0018 0099     		ldr	r1, [sp, #0]
 343 001a FFF7FEFF 		bl	setDac
 344 001e 0346     		mov	r3, r0
 345 0020 039A     		ldr	r2, [sp, #12]
 346 0022 D318     		adds	r3, r2, r3
 347 0024 0393     		str	r3, [sp, #12]
 348              		.loc 1 113 0
 349 0026 039B     		ldr	r3, [sp, #12]
 350              		.loc 1 114 0
 351 0028 1846     		mov	r0, r3
 352 002a 05B0     		add	sp, sp, #20
 353 002c 00BD     		pop	{pc}
 354              		.cfi_endproc
 355              	.LFE65:
 356              		.size	setDac1, .-setDac1
 357 002e 00BF     		.section	.text.setDac2,"ax",%progbits
 358              		.align	2
 359              		.p2align 4,,15
 360              		.global	setDac2
 361              		.thumb
 362              		.thumb_func
 363              		.type	setDac2, %function
 364              	setDac2:
 365              	.LFB66:
 366              		.loc 1 117 0
 367              		.cfi_startproc
 368              		@ args = 0, pretend = 0, frame = 16
 369              		@ frame_needed = 0, uses_anonymous_args = 0
 370 0000 00B5     		push	{lr}
 371              	.LCFI6:
 372              		.cfi_def_cfa_offset 4
 373              		.cfi_offset 14, -4
 374 0002 85B0     		sub	sp, sp, #20
 375              	.LCFI7:
 376              		.cfi_def_cfa_offset 24
 377 0004 0190     		str	r0, [sp, #4]
 378 0006 0091     		str	r1, [sp, #0]
 379              		.loc 1 119 0
 380 0008 4FF00200 		mov	r0, #2
 381 000c 0199     		ldr	r1, [sp, #4]
 382 000e FFF7FEFF 		bl	setDac
 383 0012 0390     		str	r0, [sp, #12]
 384              		.loc 1 120 0
 385 0014 4FF00300 		mov	r0, #3
 386 0018 0099     		ldr	r1, [sp, #0]
 387 001a FFF7FEFF 		bl	setDac
 388 001e 0346     		mov	r3, r0
 389 0020 039A     		ldr	r2, [sp, #12]
 390 0022 D318     		adds	r3, r2, r3
ARM GAS  C:\Users\z80\AppData\Local\Temp\cchsHRHB.s 			page 8


 391 0024 0393     		str	r3, [sp, #12]
 392              		.loc 1 121 0
 393 0026 039B     		ldr	r3, [sp, #12]
 394              		.loc 1 122 0
 395 0028 1846     		mov	r0, r3
 396 002a 05B0     		add	sp, sp, #20
 397 002c 00BD     		pop	{pc}
 398              		.cfi_endproc
 399              	.LFE66:
 400              		.size	setDac2, .-setDac2
 401 002e 00BF     		.section	.text.processDacI,"ax",%progbits
 402              		.align	2
 403              		.p2align 4,,15
 404              		.global	processDacI
 405              		.thumb
 406              		.thumb_func
 407              		.type	processDacI, %function
 408              	processDacI:
 409              	.LFB67:
 410              		.loc 1 125 0
 411              		.cfi_startproc
 412              		@ args = 0, pretend = 0, frame = 16
 413              		@ frame_needed = 0, uses_anonymous_args = 0
 414 0000 00B5     		push	{lr}
 415              	.LCFI8:
 416              		.cfi_def_cfa_offset 4
 417              		.cfi_offset 14, -4
 418 0002 85B0     		sub	sp, sp, #20
 419              	.LCFI9:
 420              		.cfi_def_cfa_offset 24
 421              		.loc 1 129 0
 422 0004 40F20003 		movw	r3, #:lower16:dac_queue
 423 0008 C0F20003 		movt	r3, #:upper16:dac_queue
 424 000c 1B69     		ldr	r3, [r3, #16]
 425 000e 1A46     		mov	r2, r3
 426 0010 40F20003 		movw	r3, #:lower16:dac_queue
 427 0014 C0F20003 		movt	r3, #:upper16:dac_queue
 428 0018 DB68     		ldr	r3, [r3, #12]
 429 001a D31A     		subs	r3, r2, r3
 430 001c 1A46     		mov	r2, r3
 431 001e 40F20003 		movw	r3, #:lower16:dac_queue
 432 0022 C0F20003 		movt	r3, #:upper16:dac_queue
 433 0026 9B68     		ldr	r3, [r3, #8]
 434 0028 D31A     		subs	r3, r2, r3
 435 002a 0393     		str	r3, [sp, #12]
 436              		.loc 1 130 0
 437 002c 039B     		ldr	r3, [sp, #12]
 438 002e 022B     		cmp	r3, #2
 439 0030 3DDD     		ble	.L9
 440              	.LBB4:
 441              		.loc 1 133 0
 442 0032 40F20000 		movw	r0, #:lower16:dac_queue
 443 0036 C0F20000 		movt	r0, #:upper16:dac_queue
 444 003a FFF7FEFF 		bl	chOQGetI
 445 003e 0290     		str	r0, [sp, #8]
 446              		.loc 1 134 0
 447 0040 029B     		ldr	r3, [sp, #8]
ARM GAS  C:\Users\z80\AppData\Local\Temp\cchsHRHB.s 			page 9


 448 0042 DAB2     		uxtb	r2, r3
 449 0044 40F20003 		movw	r3, #:lower16:i.6123
 450 0048 C0F20003 		movt	r3, #:upper16:i.6123
 451 004c 1A70     		strb	r2, [r3, #0]
 452              		.loc 1 137 0
 453 004e 40F20000 		movw	r0, #:lower16:dac_queue
 454 0052 C0F20000 		movt	r0, #:upper16:dac_queue
 455 0056 FFF7FEFF 		bl	chOQGetI
 456 005a 0290     		str	r0, [sp, #8]
 457              		.loc 1 138 0
 458 005c 029B     		ldr	r3, [sp, #8]
 459 005e 0193     		str	r3, [sp, #4]
 460              		.loc 1 139 0
 461 0060 40F20000 		movw	r0, #:lower16:dac_queue
 462 0064 C0F20000 		movt	r0, #:upper16:dac_queue
 463 0068 FFF7FEFF 		bl	chOQGetI
 464 006c 0290     		str	r0, [sp, #8]
 465              		.loc 1 140 0
 466 006e 029B     		ldr	r3, [sp, #8]
 467 0070 4FEA0323 		lsl	r3, r3, #8
 468 0074 019A     		ldr	r2, [sp, #4]
 469 0076 D318     		adds	r3, r2, r3
 470 0078 0193     		str	r3, [sp, #4]
 471              		.loc 1 142 0
 472 007a 40F20003 		movw	r3, #:lower16:i.6123
 473 007e C0F20003 		movt	r3, #:upper16:i.6123
 474 0082 1B78     		ldrb	r3, [r3, #0]	@ zero_extendqisi2
 475 0084 03F00303 		and	r3, r3, #3
 476 0088 DAB2     		uxtb	r2, r3
 477 008a 40F20003 		movw	r3, #:lower16:i.6123
 478 008e C0F20003 		movt	r3, #:upper16:i.6123
 479 0092 1A70     		strb	r2, [r3, #0]
 480              		.loc 1 144 0
 481 0094 40F20003 		movw	r3, #:lower16:i.6123
 482 0098 C0F20003 		movt	r3, #:upper16:i.6123
 483 009c 1B78     		ldrb	r3, [r3, #0]	@ zero_extendqisi2
 484 009e 1A46     		mov	r2, r3
 485 00a0 40F20003 		movw	r3, #:lower16:newValues
 486 00a4 C0F20003 		movt	r3, #:upper16:newValues
 487 00a8 0199     		ldr	r1, [sp, #4]
 488 00aa 43F82210 		str	r1, [r3, r2, lsl #2]
 489              	.L9:
 490              	.LBE4:
 491              		.loc 1 148 0
 492 00ae 40F20003 		movw	r3, #:lower16:i.6123
 493 00b2 C0F20003 		movt	r3, #:upper16:i.6123
 494 00b6 1B78     		ldrb	r3, [r3, #0]	@ zero_extendqisi2
 495 00b8 1A46     		mov	r2, r3
 496 00ba 40F20003 		movw	r3, #:lower16:newValues
 497 00be C0F20003 		movt	r3, #:upper16:newValues
 498 00c2 53F82220 		ldr	r2, [r3, r2, lsl #2]
 499 00c6 40F20003 		movw	r3, #:lower16:i.6123
 500 00ca C0F20003 		movt	r3, #:upper16:i.6123
 501 00ce 1B78     		ldrb	r3, [r3, #0]	@ zero_extendqisi2
 502 00d0 1946     		mov	r1, r3
 503 00d2 40F20003 		movw	r3, #:lower16:dacValues
 504 00d6 C0F20003 		movt	r3, #:upper16:dacValues
ARM GAS  C:\Users\z80\AppData\Local\Temp\cchsHRHB.s 			page 10


 505 00da 53F82130 		ldr	r3, [r3, r1, lsl #2]
 506 00de 9A42     		cmp	r2, r3
 507 00e0 00F08980 		beq	.L10
 508              		.loc 1 150 0
 509 00e4 40F20003 		movw	r3, #:lower16:i.6123
 510 00e8 C0F20003 		movt	r3, #:upper16:i.6123
 511 00ec 1B78     		ldrb	r3, [r3, #0]	@ zero_extendqisi2
 512 00ee 032B     		cmp	r3, #3
 513 00f0 2AD8     		bhi	.L11
 514 00f2 01A2     		adr	r2, .L16
 515 00f4 52F823F0 		ldr	pc, [r2, r3, lsl #2]
 516              		.align	2
 517              	.L16:
 518 00f8 09010000 		.word	.L12+1
 519 00fc 19010000 		.word	.L13+1
 520 0100 29010000 		.word	.L14+1
 521 0104 39010000 		.word	.L15+1
 522              	.L12:
 523              		.loc 1 153 0
 524 0108 40F20003 		movw	r3, #:lower16:hs_spicfg
 525 010c C0F20003 		movt	r3, #:upper16:hs_spicfg
 526 0110 4FF00902 		mov	r2, #9
 527 0114 1A81     		strh	r2, [r3, #8]	@ movhi
 528              		.loc 1 155 0
 529 0116 17E0     		b	.L11
 530              	.L13:
 531              		.loc 1 157 0
 532 0118 40F20003 		movw	r3, #:lower16:hs_spicfg
 533 011c C0F20003 		movt	r3, #:upper16:hs_spicfg
 534 0120 4FF00A02 		mov	r2, #10
 535 0124 1A81     		strh	r2, [r3, #8]	@ movhi
 536              		.loc 1 159 0
 537 0126 0FE0     		b	.L11
 538              	.L14:
 539              		.loc 1 161 0
 540 0128 40F20003 		movw	r3, #:lower16:hs_spicfg
 541 012c C0F20003 		movt	r3, #:upper16:hs_spicfg
 542 0130 4FF00B02 		mov	r2, #11
 543 0134 1A81     		strh	r2, [r3, #8]	@ movhi
 544              		.loc 1 163 0
 545 0136 07E0     		b	.L11
 546              	.L15:
 547              		.loc 1 165 0
 548 0138 40F20003 		movw	r3, #:lower16:hs_spicfg
 549 013c C0F20003 		movt	r3, #:upper16:hs_spicfg
 550 0140 4FF00C02 		mov	r2, #12
 551 0144 1A81     		strh	r2, [r3, #8]	@ movhi
 552              		.loc 1 167 0
 553 0146 00BF     		nop
 554              	.L11:
 555              		.loc 1 169 0
 556 0148 40F20003 		movw	r3, #:lower16:i.6123
 557 014c C0F20003 		movt	r3, #:upper16:i.6123
 558 0150 1B78     		ldrb	r3, [r3, #0]	@ zero_extendqisi2
 559 0152 1A46     		mov	r2, r3
 560 0154 40F20003 		movw	r3, #:lower16:i.6123
 561 0158 C0F20003 		movt	r3, #:upper16:i.6123
ARM GAS  C:\Users\z80\AppData\Local\Temp\cchsHRHB.s 			page 11


 562 015c 1B78     		ldrb	r3, [r3, #0]	@ zero_extendqisi2
 563 015e 1946     		mov	r1, r3
 564 0160 40F20003 		movw	r3, #:lower16:newValues
 565 0164 C0F20003 		movt	r3, #:upper16:newValues
 566 0168 53F82110 		ldr	r1, [r3, r1, lsl #2]
 567 016c 40F20003 		movw	r3, #:lower16:dacValues
 568 0170 C0F20003 		movt	r3, #:upper16:dacValues
 569 0174 43F82210 		str	r1, [r3, r2, lsl #2]
 570              		.loc 1 170 0
 571 0178 40F20003 		movw	r3, #:lower16:i.6123
 572 017c C0F20003 		movt	r3, #:upper16:i.6123
 573 0180 1B78     		ldrb	r3, [r3, #0]	@ zero_extendqisi2
 574 0182 1A46     		mov	r2, r3
 575 0184 40F20003 		movw	r3, #:lower16:newValues
 576 0188 C0F20003 		movt	r3, #:upper16:newValues
 577 018c 53F82230 		ldr	r3, [r3, r2, lsl #2]
 578 0190 4FEA2323 		asr	r3, r3, #8
 579 0194 DAB2     		uxtb	r2, r3
 580 0196 40F20003 		movw	r3, #:lower16:dac_tx_buffer
 581 019a C0F20003 		movt	r3, #:upper16:dac_tx_buffer
 582 019e 1A70     		strb	r2, [r3, #0]
 583              		.loc 1 171 0
 584 01a0 40F20003 		movw	r3, #:lower16:i.6123
 585 01a4 C0F20003 		movt	r3, #:upper16:i.6123
 586 01a8 1B78     		ldrb	r3, [r3, #0]	@ zero_extendqisi2
 587 01aa 1A46     		mov	r2, r3
 588 01ac 40F20003 		movw	r3, #:lower16:newValues
 589 01b0 C0F20003 		movt	r3, #:upper16:newValues
 590 01b4 53F82230 		ldr	r3, [r3, r2, lsl #2]
 591 01b8 DAB2     		uxtb	r2, r3
 592 01ba 40F20003 		movw	r3, #:lower16:dac_tx_buffer
 593 01be C0F20003 		movt	r3, #:upper16:dac_tx_buffer
 594 01c2 5A70     		strb	r2, [r3, #1]
 595              		.loc 1 173 0
 596 01c4 40F20000 		movw	r0, #:lower16:SPID2
 597 01c8 C0F20000 		movt	r0, #:upper16:SPID2
 598 01cc FFF7FEFF 		bl	spi_lld_select
 599              		.loc 1 175 0
 600 01d0 40F20003 		movw	r3, #:lower16:SPID2
 601 01d4 C0F20003 		movt	r3, #:upper16:SPID2
 602 01d8 4FF00302 		mov	r2, #3
 603 01dc 1A70     		strb	r2, [r3, #0]
 604 01de 40F20000 		movw	r0, #:lower16:SPID2
 605 01e2 C0F20000 		movt	r0, #:upper16:SPID2
 606 01e6 4FF00201 		mov	r1, #2
 607 01ea 40F20002 		movw	r2, #:lower16:dac_tx_buffer
 608 01ee C0F20002 		movt	r2, #:upper16:dac_tx_buffer
 609 01f2 FFF7FEFF 		bl	spi_lld_send
 610              	.L10:
 611              		.loc 1 180 0
 612 01f6 40F20003 		movw	r3, #:lower16:i.6123
 613 01fa C0F20003 		movt	r3, #:upper16:i.6123
 614 01fe 1B78     		ldrb	r3, [r3, #0]	@ zero_extendqisi2
 615 0200 1846     		mov	r0, r3
 616 0202 FFF7FEFF 		bl	processSweepI
 617              		.loc 1 182 0
 618 0206 40F20003 		movw	r3, #:lower16:i.6123
ARM GAS  C:\Users\z80\AppData\Local\Temp\cchsHRHB.s 			page 12


 619 020a C0F20003 		movt	r3, #:upper16:i.6123
 620 020e 1B78     		ldrb	r3, [r3, #0]	@ zero_extendqisi2
 621 0210 03F10103 		add	r3, r3, #1
 622 0214 DAB2     		uxtb	r2, r3
 623 0216 40F20003 		movw	r3, #:lower16:i.6123
 624 021a C0F20003 		movt	r3, #:upper16:i.6123
 625 021e 1A70     		strb	r2, [r3, #0]
 626              		.loc 1 183 0
 627 0220 40F20003 		movw	r3, #:lower16:i.6123
 628 0224 C0F20003 		movt	r3, #:upper16:i.6123
 629 0228 1B78     		ldrb	r3, [r3, #0]	@ zero_extendqisi2
 630 022a 03F00303 		and	r3, r3, #3
 631 022e DAB2     		uxtb	r2, r3
 632 0230 40F20003 		movw	r3, #:lower16:i.6123
 633 0234 C0F20003 		movt	r3, #:upper16:i.6123
 634 0238 1A70     		strb	r2, [r3, #0]
 635              		.loc 1 184 0
 636 023a 05B0     		add	sp, sp, #20
 637 023c 00BD     		pop	{pc}
 638              		.cfi_endproc
 639              	.LFE67:
 640              		.size	processDacI, .-processDacI
 641 023e 00BF     		.section	.text.onDacSpiComplete,"ax",%progbits
 642              		.align	2
 643              		.p2align 4,,15
 644              		.thumb
 645              		.thumb_func
 646              		.type	onDacSpiComplete, %function
 647              	onDacSpiComplete:
 648              	.LFB68:
 649              		.loc 1 187 0
 650              		.cfi_startproc
 651              		@ args = 0, pretend = 0, frame = 8
 652              		@ frame_needed = 0, uses_anonymous_args = 0
 653 0000 00B5     		push	{lr}
 654              	.LCFI10:
 655              		.cfi_def_cfa_offset 4
 656              		.cfi_offset 14, -4
 657 0002 83B0     		sub	sp, sp, #12
 658              	.LCFI11:
 659              		.cfi_def_cfa_offset 16
 660 0004 0190     		str	r0, [sp, #4]
 661              		.loc 1 189 0
 662 0006 4FF44063 		mov	r3, #3072
 663 000a C4F20103 		movt	r3, 16385
 664 000e 4FF02002 		mov	r2, #32
 665 0012 1A61     		str	r2, [r3, #16]
 666              	.LBB5:
 667              		.loc 1 190 0
 668 0014 4FF02003 		mov	r3, #32
 669              	@ 190 "./src/dac_ctrl.c" 1
 670 0018 83F31188 		msr     BASEPRI, r3
 671              	@ 0 "" 2
 672              		.thumb
 673              	.LBE5:
 674 001c FFF7FEFF 		bl	dbg_check_lock_from_isr
 675              		.loc 1 191 0
ARM GAS  C:\Users\z80\AppData\Local\Temp\cchsHRHB.s 			page 13


 676 0020 40F20000 		movw	r0, #:lower16:SPID2
 677 0024 C0F20000 		movt	r0, #:upper16:SPID2
 678 0028 FFF7FEFF 		bl	spi_lld_unselect
 679              		.loc 1 196 0
 680 002c FFF7FEFF 		bl	dbg_check_unlock_from_isr
 681              	.LBB6:
 682 0030 4FF00003 		mov	r3, #0
 683              	@ 196 "./src/dac_ctrl.c" 1
 684 0034 83F31188 		msr     BASEPRI, r3
 685              	@ 0 "" 2
 686              		.thumb
 687              	.LBE6:
 688              		.loc 1 197 0
 689 0038 4FF44063 		mov	r3, #3072
 690 003c C4F20103 		movt	r3, 16385
 691 0040 4FF02002 		mov	r2, #32
 692 0044 5A61     		str	r2, [r3, #20]
 693              		.loc 1 198 0
 694 0046 03B0     		add	sp, sp, #12
 695 0048 00BD     		pop	{pc}
 696              		.cfi_endproc
 697              	.LFE68:
 698              		.size	onDacSpiComplete, .-onDacSpiComplete
 699 004a 00BFAFF3 		.section	.text.currentDacs,"ax",%progbits
 699      0080
 700              		.align	2
 701              		.p2align 4,,15
 702              		.global	currentDacs
 703              		.thumb
 704              		.thumb_func
 705              		.type	currentDacs, %function
 706              	currentDacs:
 707              	.LFB69:
 708              		.loc 1 201 0
 709              		.cfi_startproc
 710              		@ args = 0, pretend = 0, frame = 8
 711              		@ frame_needed = 0, uses_anonymous_args = 0
 712 0000 00B5     		push	{lr}
 713              	.LCFI12:
 714              		.cfi_def_cfa_offset 4
 715              		.cfi_offset 14, -4
 716 0002 83B0     		sub	sp, sp, #12
 717              	.LCFI13:
 718              		.cfi_def_cfa_offset 16
 719 0004 0190     		str	r0, [sp, #4]
 720              	.LBB7:
 721              		.loc 1 202 0
 722 0006 4FF02003 		mov	r3, #32
 723              	@ 202 "./src/dac_ctrl.c" 1
 724 000a 83F31188 		msr     BASEPRI, r3
 725              	@ 0 "" 2
 726              		.thumb
 727              	.LBE7:
 728 000e FFF7FEFF 		bl	dbg_check_lock
 729              		.loc 1 203 0
 730 0012 40F20003 		movw	r3, #:lower16:dacValues
 731 0016 C0F20003 		movt	r3, #:upper16:dacValues
ARM GAS  C:\Users\z80\AppData\Local\Temp\cchsHRHB.s 			page 14


 732 001a 1A68     		ldr	r2, [r3, #0]
 733 001c 019B     		ldr	r3, [sp, #4]
 734 001e 1A60     		str	r2, [r3, #0]
 735              		.loc 1 204 0
 736 0020 019B     		ldr	r3, [sp, #4]
 737 0022 03F10402 		add	r2, r3, #4
 738 0026 40F20003 		movw	r3, #:lower16:dacValues
 739 002a C0F20003 		movt	r3, #:upper16:dacValues
 740 002e 5B68     		ldr	r3, [r3, #4]
 741 0030 1360     		str	r3, [r2, #0]
 742              		.loc 1 205 0
 743 0032 019B     		ldr	r3, [sp, #4]
 744 0034 03F10802 		add	r2, r3, #8
 745 0038 40F20003 		movw	r3, #:lower16:dacValues
 746 003c C0F20003 		movt	r3, #:upper16:dacValues
 747 0040 9B68     		ldr	r3, [r3, #8]
 748 0042 1360     		str	r3, [r2, #0]
 749              		.loc 1 206 0
 750 0044 019B     		ldr	r3, [sp, #4]
 751 0046 03F10C02 		add	r2, r3, #12
 752 004a 40F20003 		movw	r3, #:lower16:dacValues
 753 004e C0F20003 		movt	r3, #:upper16:dacValues
 754 0052 DB68     		ldr	r3, [r3, #12]
 755 0054 1360     		str	r3, [r2, #0]
 756              		.loc 1 207 0
 757 0056 FFF7FEFF 		bl	dbg_check_unlock
 758              	.LBB8:
 759 005a 4FF00003 		mov	r3, #0
 760              	@ 207 "./src/dac_ctrl.c" 1
 761 005e 83F31188 		msr     BASEPRI, r3
 762              	@ 0 "" 2
 763              		.thumb
 764              	.LBE8:
 765              		.loc 1 208 0
 766 0062 03B0     		add	sp, sp, #12
 767 0064 00BD     		pop	{pc}
 768              		.cfi_endproc
 769              	.LFE69:
 770              		.size	currentDacs, .-currentDacs
 771 0066 00BFAFF3 		.section	.bss.i.6123,"aw",%nobits
 771      0080AFF3 
 771      0080
 772              		.type	i.6123, %object
 773              		.size	i.6123, 1
 774              	i.6123:
 775 0000 00       		.space	1
 776              		.text
 777              	.Letext0:
 778              		.file 2 "c:\\programs\\codesourcery\\2011.03-56\\bin\\../lib/gcc/arm-none-eabi/4.6.3/include/stdde
 779              		.file 3 "c:\\programs\\codesourcery\\2011.03-56\\bin\\../lib/gcc/arm-none-eabi/4.6.3/../../../../a
 780              		.file 4 "../chibios_2.4.x/os/ports/GCC/ARMCMx/chtypes.h"
 781              		.file 5 "../chibios_2.4.x/os/kernel/include/chlists.h"
 782              		.file 6 "../chibios_2.4.x/os/kernel/include/chthreads.h"
 783              		.file 7 "../chibios_2.4.x/os/ports/GCC/ARMCMx/chcore_v7m.h"
 784              		.file 8 "../chibios_2.4.x/os/kernel/include/chmtx.h"
 785              		.file 9 "../chibios_2.4.x/os/kernel/include/chqueues.h"
 786              		.file 10 "../chibios_2.4.x/os/hal/platforms/STM32F1xx/stm32f10x.h"
ARM GAS  C:\Users\z80\AppData\Local\Temp\cchsHRHB.s 			page 15


 787              		.file 11 "../chibios_2.4.x/os/hal/platforms/STM32F1xx/stm32_dma.h"
 788              		.file 12 "../chibios_2.4.x/os/hal/platforms/STM32/GPIOv1/pal_lld.h"
 789              		.file 13 "../chibios_2.4.x/os/hal/include/spi.h"
 790              		.file 14 "../chibios_2.4.x/os/hal/platforms/STM32/spi_lld.h"
 791              		.file 15 "../chibios_2.4.x/os/ports/common/ARMCMx/CMSIS/include/core_cm3.h"