ARM GAS  C:\Users\z80\AppData\Local\Temp\cchWT0Ou.s 			page 1


   1              		.syntax unified
   2              		.cpu cortex-m3
   3              		.fpu softvfp
   4              		.eabi_attribute 20, 1
   5              		.eabi_attribute 21, 1
   6              		.eabi_attribute 23, 3
   7              		.eabi_attribute 24, 1
   8              		.eabi_attribute 25, 1
   9              		.eabi_attribute 26, 1
  10              		.eabi_attribute 30, 6
  11              		.eabi_attribute 18, 4
  12              		.thumb
  13              		.file	"dac_ctrl.c"
  14              		.section	.debug_abbrev,"",%progbits
  15              	.Ldebug_abbrev0:
  16              		.section	.debug_info,"",%progbits
  17              	.Ldebug_info0:
  18              		.section	.debug_line,"",%progbits
  19              	.Ldebug_line0:
  20 0000 50030000 		.text
  20      02007C02 
  20      00000201 
  20      FB0E0D00 
  20      01010101 
  21              	.Ltext0:
  22              		.cfi_sections	.debug_frame
  23              		.global	dac_queue
  24              		.section	.bss.dac_queue,"aw",%nobits
  25              		.align	2
  26              		.type	dac_queue, %object
  27              		.size	dac_queue, 32
  28              	dac_queue:
  29 0000 00000000 		.space	32
  29      00000000 
  29      00000000 
  29      00000000 
  29      00000000 
  30              		.global	dac_queue_buffer
  31              		.section	.bss.dac_queue_buffer,"aw",%nobits
  32              		.align	2
  33              		.type	dac_queue_buffer, %object
  34              		.size	dac_queue_buffer, 24
  35              	dac_queue_buffer:
  36 0000 00000000 		.space	24
  36      00000000 
  36      00000000 
  36      00000000 
  36      00000000 
  37              		.global	dac_tx_buffer
  38              		.section	.bss.dac_tx_buffer,"aw",%nobits
  39              		.align	2
  40              		.type	dac_tx_buffer, %object
  41              		.size	dac_tx_buffer, 2
  42              	dac_tx_buffer:
  43 0000 0000     		.space	2
  44              		.global	newValues
  45 0002 0000     		.section	.data.newValues,"aw",%progbits
ARM GAS  C:\Users\z80\AppData\Local\Temp\cchWT0Ou.s 			page 2


  46              		.align	2
  47              		.type	newValues, %object
  48              		.size	newValues, 16
  49              	newValues:
  50 0000 FFFFFFFF 		.word	-1
  51 0004 FFFFFFFF 		.word	-1
  52 0008 FFFFFFFF 		.word	-1
  53 000c FFFFFFFF 		.word	-1
  54              		.global	dacValues
  55              		.section	.data.dacValues,"aw",%progbits
  56              		.align	2
  57              		.type	dacValues, %object
  58              		.size	dacValues, 16
  59              	dacValues:
  60 0000 FFFFFFFF 		.word	-1
  61 0004 FFFFFFFF 		.word	-1
  62 0008 FFFFFFFF 		.word	-1
  63 000c FFFFFFFF 		.word	-1
  64              		.section	.data.hs_spicfg,"aw",%progbits
  65              		.align	2
  66              		.type	hs_spicfg, %object
  67              		.size	hs_spicfg, 12
  68              	hs_spicfg:
  69 0000 00000000 		.word	onSpiComplete
  70 0004 000C0140 		.word	1073810432
  71 0008 0900     		.short	9
  72 000a 0000     		.short	0
  73              		.section	.text.initDac,"ax",%progbits
  74              		.align	2
  75              		.p2align 4,,15
  76              		.global	initDac
  77              		.thumb
  78              		.thumb_func
  79              		.type	initDac, %function
  80              	initDac:
  81              	.LFB62:
  82              		.file 1 "./src/dac_ctrl.c"
  83              		.loc 1 35 0
  84              		.cfi_startproc
  85              		@ args = 0, pretend = 0, frame = 0
  86              		@ frame_needed = 0, uses_anonymous_args = 0
  87 0000 08B5     		push	{r3, lr}
  88              	.LCFI0:
  89              		.cfi_def_cfa_offset 8
  90              		.loc 1 36 0
  91 0002 40F20000 		movw	r0, #:lower16:dac_queue
  92 0006 C0F20000 		movt	r0, #:upper16:dac_queue
  93 000a 40F20001 		movw	r1, #:lower16:dac_queue_buffer
  94 000e C0F20001 		movt	r1, #:upper16:dac_queue_buffer
  95 0012 4FF01802 		mov	r2, #24
  96 0016 4FF00003 		mov	r3, #0
  97              		.cfi_offset 14, -4
  98              		.cfi_offset 3, -8
  99 001a FFF7FEFF 		bl	chOQInit
 100              		.loc 1 38 0
 101 001e 4FF44060 		mov	r0, #3072
 102 0022 C4F20100 		movt	r0, 16385
ARM GAS  C:\Users\z80\AppData\Local\Temp\cchWT0Ou.s 			page 3


 103 0026 4FF40051 		mov	r1, #8192
 104 002a 4FF01002 		mov	r2, #16
 105 002e FFF7FEFF 		bl	_pal_lld_setgroupmode
 106              		.loc 1 39 0
 107 0032 4FF44060 		mov	r0, #3072
 108 0036 C4F20100 		movt	r0, 16385
 109 003a 4FF48041 		mov	r1, #16384
 110 003e 4FF01002 		mov	r2, #16
 111 0042 FFF7FEFF 		bl	_pal_lld_setgroupmode
 112              		.loc 1 40 0
 113 0046 4FF44060 		mov	r0, #3072
 114 004a C4F20100 		movt	r0, 16385
 115 004e 4FF40041 		mov	r1, #32768
 116 0052 4FF01002 		mov	r2, #16
 117 0056 FFF7FEFF 		bl	_pal_lld_setgroupmode
 118              		.loc 1 42 0
 119 005a 4FF44063 		mov	r3, #3072
 120 005e C4F20103 		movt	r3, 16385
 121 0062 4FF40072 		mov	r2, #512
 122 0066 1A61     		str	r2, [r3, #16]
 123              		.loc 1 43 0
 124 0068 4FF44063 		mov	r3, #3072
 125 006c C4F20103 		movt	r3, 16385
 126 0070 4FF48062 		mov	r2, #1024
 127 0074 1A61     		str	r2, [r3, #16]
 128              		.loc 1 44 0
 129 0076 4FF44063 		mov	r3, #3072
 130 007a C4F20103 		movt	r3, 16385
 131 007e 4FF40062 		mov	r2, #2048
 132 0082 1A61     		str	r2, [r3, #16]
 133              		.loc 1 45 0
 134 0084 4FF44063 		mov	r3, #3072
 135 0088 C4F20103 		movt	r3, 16385
 136 008c 4FF48052 		mov	r2, #4096
 137 0090 1A61     		str	r2, [r3, #16]
 138              		.loc 1 47 0
 139 0092 4FF44060 		mov	r0, #3072
 140 0096 C4F20100 		movt	r0, 16385
 141 009a 4FF40071 		mov	r1, #512
 142 009e 4FF00602 		mov	r2, #6
 143 00a2 FFF7FEFF 		bl	_pal_lld_setgroupmode
 144              		.loc 1 48 0
 145 00a6 4FF44060 		mov	r0, #3072
 146 00aa C4F20100 		movt	r0, 16385
 147 00ae 4FF48061 		mov	r1, #1024
 148 00b2 4FF00602 		mov	r2, #6
 149 00b6 FFF7FEFF 		bl	_pal_lld_setgroupmode
 150              		.loc 1 49 0
 151 00ba 4FF44060 		mov	r0, #3072
 152 00be C4F20100 		movt	r0, 16385
 153 00c2 4FF40061 		mov	r1, #2048
 154 00c6 4FF00602 		mov	r2, #6
 155 00ca FFF7FEFF 		bl	_pal_lld_setgroupmode
 156              		.loc 1 50 0
 157 00ce 4FF44060 		mov	r0, #3072
 158 00d2 C4F20100 		movt	r0, 16385
 159 00d6 4FF48051 		mov	r1, #4096
ARM GAS  C:\Users\z80\AppData\Local\Temp\cchWT0Ou.s 			page 4


 160 00da 4FF00602 		mov	r2, #6
 161 00de FFF7FEFF 		bl	_pal_lld_setgroupmode
 162              		.loc 1 52 0
 163 00e2 40F20000 		movw	r0, #:lower16:SPID2
 164 00e6 C0F20000 		movt	r0, #:upper16:SPID2
 165 00ea 40F20001 		movw	r1, #:lower16:hs_spicfg
 166 00ee C0F20001 		movt	r1, #:upper16:hs_spicfg
 167 00f2 FFF7FEFF 		bl	spiStart
 168              		.loc 1 53 0
 169 00f6 08BD     		pop	{r3, pc}
 170              		.cfi_endproc
 171              	.LFE62:
 172              		.size	initDac, .-initDac
 173 00f8 AFF30080 		.section	.text.setDacI,"ax",%progbits
 173      AFF30080 
 174              		.align	2
 175              		.p2align 4,,15
 176              		.global	setDacI
 177              		.thumb
 178              		.thumb_func
 179              		.type	setDacI, %function
 180              	setDacI:
 181              	.LFB63:
 182              		.loc 1 56 0
 183              		.cfi_startproc
 184              		@ args = 0, pretend = 0, frame = 8
 185              		@ frame_needed = 0, uses_anonymous_args = 0
 186              		@ link register save eliminated.
 187 0000 82B0     		sub	sp, sp, #8
 188              	.LCFI1:
 189              		.cfi_def_cfa_offset 8
 190 0002 0190     		str	r0, [sp, #4]
 191 0004 0091     		str	r1, [sp, #0]
 192              		.loc 1 57 0
 193 0006 019A     		ldr	r2, [sp, #4]
 194 0008 4FEAE273 		asr	r3, r2, #31
 195 000c 4FEA9373 		lsr	r3, r3, #30
 196 0010 1A44     		add	r2, r2, r3
 197 0012 02F00302 		and	r2, r2, #3
 198 0016 C3EB0203 		rsb	r3, r3, r2
 199 001a 1A46     		mov	r2, r3
 200 001c 40F20003 		movw	r3, #:lower16:newValues
 201 0020 C0F20003 		movt	r3, #:upper16:newValues
 202 0024 0099     		ldr	r1, [sp, #0]
 203 0026 43F82210 		str	r1, [r3, r2, lsl #2]
 204              		.loc 1 58 0
 205 002a 02B0     		add	sp, sp, #8
 206 002c 7047     		bx	lr
 207              		.cfi_endproc
 208              	.LFE63:
 209              		.size	setDacI, .-setDacI
 210 002e 00BF     		.section	.text.setDac,"ax",%progbits
 211              		.align	2
 212              		.p2align 4,,15
 213              		.global	setDac
 214              		.thumb
 215              		.thumb_func
ARM GAS  C:\Users\z80\AppData\Local\Temp\cchWT0Ou.s 			page 5


 216              		.type	setDac, %function
 217              	setDac:
 218              	.LFB64:
 219              		.loc 1 61 0
 220              		.cfi_startproc
 221              		@ args = 0, pretend = 0, frame = 16
 222              		@ frame_needed = 0, uses_anonymous_args = 0
 223 0000 00B5     		push	{lr}
 224              	.LCFI2:
 225              		.cfi_def_cfa_offset 4
 226 0002 85B0     		sub	sp, sp, #20
 227              	.LCFI3:
 228              		.cfi_def_cfa_offset 24
 229 0004 0190     		str	r0, [sp, #4]
 230 0006 0091     		str	r1, [sp, #0]
 231              	.LBB2:
 232              		.loc 1 63 0
 233 0008 4FF02003 		mov	r3, #32
 234              	@ 63 "./src/dac_ctrl.c" 1
 235 000c 83F31188 		msr     BASEPRI, r3
 236              	@ 0 "" 2
 237              		.thumb
 238              	.LBE2:
 239              		.cfi_offset 14, -4
 240 0010 FFF7FEFF 		bl	dbg_check_lock
 241              		.loc 1 64 0
 242 0014 40F20003 		movw	r3, #:lower16:dac_queue
 243 0018 C0F20003 		movt	r3, #:upper16:dac_queue
 244 001c 9B68     		ldr	r3, [r3, #8]
 245 001e 022B     		cmp	r3, #2
 246 0020 26D9     		bls	.L4
 247              		.loc 1 66 0
 248 0022 019B     		ldr	r3, [sp, #4]
 249 0024 DBB2     		uxtb	r3, r3
 250 0026 40F20000 		movw	r0, #:lower16:dac_queue
 251 002a C0F20000 		movt	r0, #:upper16:dac_queue
 252 002e 1946     		mov	r1, r3
 253 0030 4FF0FF32 		mov	r2, #-1
 254 0034 FFF7FEFF 		bl	chOQPutTimeout
 255              		.loc 1 67 0
 256 0038 009B     		ldr	r3, [sp, #0]
 257 003a DBB2     		uxtb	r3, r3
 258 003c 40F20000 		movw	r0, #:lower16:dac_queue
 259 0040 C0F20000 		movt	r0, #:upper16:dac_queue
 260 0044 1946     		mov	r1, r3
 261 0046 4FF0FF32 		mov	r2, #-1
 262 004a FFF7FEFF 		bl	chOQPutTimeout
 263              		.loc 1 68 0
 264 004e 009B     		ldr	r3, [sp, #0]
 265 0050 4FEA2323 		asr	r3, r3, #8
 266 0054 DBB2     		uxtb	r3, r3
 267 0056 40F20000 		movw	r0, #:lower16:dac_queue
 268 005a C0F20000 		movt	r0, #:upper16:dac_queue
 269 005e 1946     		mov	r1, r3
 270 0060 4FF0FF32 		mov	r2, #-1
 271 0064 FFF7FEFF 		bl	chOQPutTimeout
 272              		.loc 1 69 0
ARM GAS  C:\Users\z80\AppData\Local\Temp\cchWT0Ou.s 			page 6


 273 0068 4FF00003 		mov	r3, #0
 274 006c 0393     		str	r3, [sp, #12]
 275 006e 02E0     		b	.L5
 276              	.L4:
 277              		.loc 1 72 0
 278 0070 4FF00103 		mov	r3, #1
 279 0074 0393     		str	r3, [sp, #12]
 280              	.L5:
 281              		.loc 1 73 0
 282 0076 FFF7FEFF 		bl	dbg_check_unlock
 283              	.LBB3:
 284 007a 4FF00003 		mov	r3, #0
 285              	@ 73 "./src/dac_ctrl.c" 1
 286 007e 83F31188 		msr     BASEPRI, r3
 287              	@ 0 "" 2
 288              		.thumb
 289              	.LBE3:
 290              		.loc 1 74 0
 291 0082 039B     		ldr	r3, [sp, #12]
 292              		.loc 1 75 0
 293 0084 1846     		mov	r0, r3
 294 0086 05B0     		add	sp, sp, #20
 295 0088 00BD     		pop	{pc}
 296              		.cfi_endproc
 297              	.LFE64:
 298              		.size	setDac, .-setDac
 299 008a 00BFAFF3 		.section	.text.setDac1,"ax",%progbits
 299      0080
 300              		.align	2
 301              		.p2align 4,,15
 302              		.global	setDac1
 303              		.thumb
 304              		.thumb_func
 305              		.type	setDac1, %function
 306              	setDac1:
 307              	.LFB65:
 308              		.loc 1 78 0
 309              		.cfi_startproc
 310              		@ args = 0, pretend = 0, frame = 16
 311              		@ frame_needed = 0, uses_anonymous_args = 0
 312 0000 00B5     		push	{lr}
 313              	.LCFI4:
 314              		.cfi_def_cfa_offset 4
 315 0002 85B0     		sub	sp, sp, #20
 316              	.LCFI5:
 317              		.cfi_def_cfa_offset 24
 318 0004 0190     		str	r0, [sp, #4]
 319 0006 0091     		str	r1, [sp, #0]
 320              		.loc 1 80 0
 321 0008 4FF00000 		mov	r0, #0
 322 000c 0199     		ldr	r1, [sp, #4]
 323              		.cfi_offset 14, -4
 324 000e FFF7FEFF 		bl	setDac
 325 0012 0346     		mov	r3, r0
 326 0014 0393     		str	r3, [sp, #12]
 327              		.loc 1 81 0
 328 0016 4FF00100 		mov	r0, #1
ARM GAS  C:\Users\z80\AppData\Local\Temp\cchWT0Ou.s 			page 7


 329 001a 0099     		ldr	r1, [sp, #0]
 330 001c FFF7FEFF 		bl	setDac
 331 0020 0346     		mov	r3, r0
 332 0022 039A     		ldr	r2, [sp, #12]
 333 0024 1344     		add	r3, r2, r3
 334 0026 0393     		str	r3, [sp, #12]
 335              		.loc 1 82 0
 336 0028 039B     		ldr	r3, [sp, #12]
 337              		.loc 1 83 0
 338 002a 1846     		mov	r0, r3
 339 002c 05B0     		add	sp, sp, #20
 340 002e 00BD     		pop	{pc}
 341              		.cfi_endproc
 342              	.LFE65:
 343              		.size	setDac1, .-setDac1
 344              		.section	.text.setDac2,"ax",%progbits
 345              		.align	2
 346              		.p2align 4,,15
 347              		.global	setDac2
 348              		.thumb
 349              		.thumb_func
 350              		.type	setDac2, %function
 351              	setDac2:
 352              	.LFB66:
 353              		.loc 1 86 0
 354              		.cfi_startproc
 355              		@ args = 0, pretend = 0, frame = 16
 356              		@ frame_needed = 0, uses_anonymous_args = 0
 357 0000 00B5     		push	{lr}
 358              	.LCFI6:
 359              		.cfi_def_cfa_offset 4
 360 0002 85B0     		sub	sp, sp, #20
 361              	.LCFI7:
 362              		.cfi_def_cfa_offset 24
 363 0004 0190     		str	r0, [sp, #4]
 364 0006 0091     		str	r1, [sp, #0]
 365              		.loc 1 88 0
 366 0008 4FF00200 		mov	r0, #2
 367 000c 0199     		ldr	r1, [sp, #4]
 368              		.cfi_offset 14, -4
 369 000e FFF7FEFF 		bl	setDac
 370 0012 0346     		mov	r3, r0
 371 0014 0393     		str	r3, [sp, #12]
 372              		.loc 1 89 0
 373 0016 4FF00300 		mov	r0, #3
 374 001a 0099     		ldr	r1, [sp, #0]
 375 001c FFF7FEFF 		bl	setDac
 376 0020 0346     		mov	r3, r0
 377 0022 039A     		ldr	r2, [sp, #12]
 378 0024 1344     		add	r3, r2, r3
 379 0026 0393     		str	r3, [sp, #12]
 380              		.loc 1 90 0
 381 0028 039B     		ldr	r3, [sp, #12]
 382              		.loc 1 91 0
 383 002a 1846     		mov	r0, r3
 384 002c 05B0     		add	sp, sp, #20
 385 002e 00BD     		pop	{pc}
ARM GAS  C:\Users\z80\AppData\Local\Temp\cchWT0Ou.s 			page 8


 386              		.cfi_endproc
 387              	.LFE66:
 388              		.size	setDac2, .-setDac2
 389              		.section	.text.processDacI,"ax",%progbits
 390              		.align	2
 391              		.p2align 4,,15
 392              		.global	processDacI
 393              		.thumb
 394              		.thumb_func
 395              		.type	processDacI, %function
 396              	processDacI:
 397              	.LFB67:
 398              		.loc 1 94 0
 399              		.cfi_startproc
 400              		@ args = 0, pretend = 0, frame = 16
 401              		@ frame_needed = 0, uses_anonymous_args = 0
 402 0000 00B5     		push	{lr}
 403              	.LCFI8:
 404              		.cfi_def_cfa_offset 4
 405 0002 85B0     		sub	sp, sp, #20
 406              	.LCFI9:
 407              		.cfi_def_cfa_offset 24
 408              	.LBB4:
 409              		.loc 1 96 0
 410 0004 4FF02003 		mov	r3, #32
 411              	@ 96 "./src/dac_ctrl.c" 1
 412 0008 83F31188 		msr     BASEPRI, r3
 413              	@ 0 "" 2
 414              		.thumb
 415              	.LBE4:
 416              		.cfi_offset 14, -4
 417 000c FFF7FEFF 		bl	dbg_check_lock_from_isr
 418              		.loc 1 98 0
 419 0010 34E0     		b	.L9
 420              	.L10:
 421              	.LBB5:
 422              		.loc 1 101 0
 423 0012 40F20000 		movw	r0, #:lower16:dac_queue
 424 0016 C0F20000 		movt	r0, #:upper16:dac_queue
 425 001a FFF7FEFF 		bl	chOQGetI
 426 001e 0346     		mov	r3, r0
 427 0020 0293     		str	r3, [sp, #8]
 428              		.loc 1 102 0
 429 0022 029B     		ldr	r3, [sp, #8]
 430 0024 0393     		str	r3, [sp, #12]
 431              		.loc 1 105 0
 432 0026 40F20000 		movw	r0, #:lower16:dac_queue
 433 002a C0F20000 		movt	r0, #:upper16:dac_queue
 434 002e FFF7FEFF 		bl	chOQGetI
 435 0032 0346     		mov	r3, r0
 436 0034 0293     		str	r3, [sp, #8]
 437              		.loc 1 106 0
 438 0036 029B     		ldr	r3, [sp, #8]
 439 0038 0193     		str	r3, [sp, #4]
 440              		.loc 1 107 0
 441 003a 40F20000 		movw	r0, #:lower16:dac_queue
 442 003e C0F20000 		movt	r0, #:upper16:dac_queue
ARM GAS  C:\Users\z80\AppData\Local\Temp\cchWT0Ou.s 			page 9


 443 0042 FFF7FEFF 		bl	chOQGetI
 444 0046 0346     		mov	r3, r0
 445 0048 0293     		str	r3, [sp, #8]
 446              		.loc 1 108 0
 447 004a 029B     		ldr	r3, [sp, #8]
 448 004c 4FEA0323 		lsl	r3, r3, #8
 449 0050 019A     		ldr	r2, [sp, #4]
 450 0052 1344     		add	r3, r2, r3
 451 0054 0193     		str	r3, [sp, #4]
 452              		.loc 1 110 0
 453 0056 039A     		ldr	r2, [sp, #12]
 454 0058 4FEAE273 		asr	r3, r2, #31
 455 005c 4FEA9373 		lsr	r3, r3, #30
 456 0060 1A44     		add	r2, r2, r3
 457 0062 02F00302 		and	r2, r2, #3
 458 0066 C3EB0203 		rsb	r3, r3, r2
 459 006a 0393     		str	r3, [sp, #12]
 460              		.loc 1 111 0
 461 006c 40F20003 		movw	r3, #:lower16:newValues
 462 0070 C0F20003 		movt	r3, #:upper16:newValues
 463 0074 039A     		ldr	r2, [sp, #12]
 464 0076 0199     		ldr	r1, [sp, #4]
 465 0078 43F82210 		str	r1, [r3, r2, lsl #2]
 466              	.L9:
 467              	.LBE5:
 468              		.loc 1 98 0 discriminator 1
 469 007c 40F20003 		movw	r3, #:lower16:dac_queue
 470 0080 C0F20003 		movt	r3, #:upper16:dac_queue
 471 0084 1B69     		ldr	r3, [r3, #16]
 472 0086 1A46     		mov	r2, r3
 473 0088 40F20003 		movw	r3, #:lower16:dac_queue
 474 008c C0F20003 		movt	r3, #:upper16:dac_queue
 475 0090 DB68     		ldr	r3, [r3, #12]
 476 0092 C3EB0203 		rsb	r3, r3, r2
 477 0096 1A46     		mov	r2, r3
 478 0098 40F20003 		movw	r3, #:lower16:dac_queue
 479 009c C0F20003 		movt	r3, #:upper16:dac_queue
 480 00a0 9B68     		ldr	r3, [r3, #8]
 481 00a2 C3EB0203 		rsb	r3, r3, r2
 482 00a6 022B     		cmp	r3, #2
 483 00a8 B3D8     		bhi	.L10
 484              		.loc 1 113 0
 485 00aa FFF7FEFF 		bl	dbg_check_unlock_from_isr
 486              	.LBB6:
 487 00ae 4FF00003 		mov	r3, #0
 488              	@ 113 "./src/dac_ctrl.c" 1
 489 00b2 83F31188 		msr     BASEPRI, r3
 490              	@ 0 "" 2
 491              		.thumb
 492              	.LBE6:
 493              		.loc 1 115 0
 494 00b6 4FF00003 		mov	r3, #0
 495 00ba 0393     		str	r3, [sp, #12]
 496 00bc BCE0     		b	.L11
 497              	.L20:
 498              		.loc 1 117 0
 499 00be 40F20003 		movw	r3, #:lower16:newValues
ARM GAS  C:\Users\z80\AppData\Local\Temp\cchWT0Ou.s 			page 10


 500 00c2 C0F20003 		movt	r3, #:upper16:newValues
 501 00c6 039A     		ldr	r2, [sp, #12]
 502 00c8 53F82220 		ldr	r2, [r3, r2, lsl #2]
 503 00cc 40F20003 		movw	r3, #:lower16:dacValues
 504 00d0 C0F20003 		movt	r3, #:upper16:dacValues
 505 00d4 0399     		ldr	r1, [sp, #12]
 506 00d6 53F82130 		ldr	r3, [r3, r1, lsl #2]
 507 00da 9A42     		cmp	r2, r3
 508 00dc 00F0A880 		beq	.L12
 509              		.loc 1 119 0
 510 00e0 039B     		ldr	r3, [sp, #12]
 511 00e2 032B     		cmp	r3, #3
 512 00e4 62D8     		bhi	.L13
 513 00e6 01A2     		adr	r2, .L18
 514 00e8 52F823F0 		ldr	pc, [r2, r3, lsl #2]
 515              		.align	2
 516              	.L18:
 517 00ec FD000000 		.word	.L14+1
 518 00f0 29010000 		.word	.L15+1
 519 00f4 55010000 		.word	.L16+1
 520 00f8 81010000 		.word	.L17+1
 521              	.L14:
 522              		.loc 1 122 0
 523 00fc 40F20003 		movw	r3, #:lower16:hs_spicfg
 524 0100 C0F20003 		movt	r3, #:upper16:hs_spicfg
 525 0104 4FF00902 		mov	r2, #9
 526 0108 1A81     		strh	r2, [r3, #8]	@ movhi
 527              		.loc 1 123 0
 528 010a 40F20003 		movw	r3, #:lower16:newValues
 529 010e C0F20003 		movt	r3, #:upper16:newValues
 530 0112 039A     		ldr	r2, [sp, #12]
 531 0114 53F82210 		ldr	r1, [r3, r2, lsl #2]
 532 0118 40F20003 		movw	r3, #:lower16:dacValues
 533 011c C0F20003 		movt	r3, #:upper16:dacValues
 534 0120 039A     		ldr	r2, [sp, #12]
 535 0122 43F82210 		str	r1, [r3, r2, lsl #2]
 536              		.loc 1 124 0
 537 0126 41E0     		b	.L13
 538              	.L15:
 539              		.loc 1 126 0
 540 0128 40F20003 		movw	r3, #:lower16:hs_spicfg
 541 012c C0F20003 		movt	r3, #:upper16:hs_spicfg
 542 0130 4FF00A02 		mov	r2, #10
 543 0134 1A81     		strh	r2, [r3, #8]	@ movhi
 544              		.loc 1 127 0
 545 0136 40F20003 		movw	r3, #:lower16:newValues
 546 013a C0F20003 		movt	r3, #:upper16:newValues
 547 013e 039A     		ldr	r2, [sp, #12]
 548 0140 53F82210 		ldr	r1, [r3, r2, lsl #2]
 549 0144 40F20003 		movw	r3, #:lower16:dacValues
 550 0148 C0F20003 		movt	r3, #:upper16:dacValues
 551 014c 039A     		ldr	r2, [sp, #12]
 552 014e 43F82210 		str	r1, [r3, r2, lsl #2]
 553              		.loc 1 128 0
 554 0152 2BE0     		b	.L13
 555              	.L16:
 556              		.loc 1 130 0
ARM GAS  C:\Users\z80\AppData\Local\Temp\cchWT0Ou.s 			page 11


 557 0154 40F20003 		movw	r3, #:lower16:hs_spicfg
 558 0158 C0F20003 		movt	r3, #:upper16:hs_spicfg
 559 015c 4FF00B02 		mov	r2, #11
 560 0160 1A81     		strh	r2, [r3, #8]	@ movhi
 561              		.loc 1 131 0
 562 0162 40F20003 		movw	r3, #:lower16:newValues
 563 0166 C0F20003 		movt	r3, #:upper16:newValues
 564 016a 039A     		ldr	r2, [sp, #12]
 565 016c 53F82210 		ldr	r1, [r3, r2, lsl #2]
 566 0170 40F20003 		movw	r3, #:lower16:dacValues
 567 0174 C0F20003 		movt	r3, #:upper16:dacValues
 568 0178 039A     		ldr	r2, [sp, #12]
 569 017a 43F82210 		str	r1, [r3, r2, lsl #2]
 570              		.loc 1 132 0
 571 017e 15E0     		b	.L13
 572              	.L17:
 573              		.loc 1 134 0
 574 0180 40F20003 		movw	r3, #:lower16:hs_spicfg
 575 0184 C0F20003 		movt	r3, #:upper16:hs_spicfg
 576 0188 4FF00C02 		mov	r2, #12
 577 018c 1A81     		strh	r2, [r3, #8]	@ movhi
 578              		.loc 1 135 0
 579 018e 40F20003 		movw	r3, #:lower16:newValues
 580 0192 C0F20003 		movt	r3, #:upper16:newValues
 581 0196 039A     		ldr	r2, [sp, #12]
 582 0198 53F82210 		ldr	r1, [r3, r2, lsl #2]
 583 019c 40F20003 		movw	r3, #:lower16:dacValues
 584 01a0 C0F20003 		movt	r3, #:upper16:dacValues
 585 01a4 039A     		ldr	r2, [sp, #12]
 586 01a6 43F82210 		str	r1, [r3, r2, lsl #2]
 587              		.loc 1 136 0
 588 01aa 00BF     		nop
 589              	.L13:
 590              		.loc 1 138 0
 591 01ac 40F20003 		movw	r3, #:lower16:newValues
 592 01b0 C0F20003 		movt	r3, #:upper16:newValues
 593 01b4 039A     		ldr	r2, [sp, #12]
 594 01b6 53F82230 		ldr	r3, [r3, r2, lsl #2]
 595 01ba 4FEA2323 		asr	r3, r3, #8
 596 01be DAB2     		uxtb	r2, r3
 597 01c0 40F20003 		movw	r3, #:lower16:dac_tx_buffer
 598 01c4 C0F20003 		movt	r3, #:upper16:dac_tx_buffer
 599 01c8 1A70     		strb	r2, [r3, #0]
 600              		.loc 1 139 0
 601 01ca 40F20003 		movw	r3, #:lower16:newValues
 602 01ce C0F20003 		movt	r3, #:upper16:newValues
 603 01d2 039A     		ldr	r2, [sp, #12]
 604 01d4 53F82230 		ldr	r3, [r3, r2, lsl #2]
 605 01d8 DAB2     		uxtb	r2, r3
 606 01da 40F20003 		movw	r3, #:lower16:dac_tx_buffer
 607 01de C0F20003 		movt	r3, #:upper16:dac_tx_buffer
 608 01e2 5A70     		strb	r2, [r3, #1]
 609              	.LBB7:
 610              		.loc 1 140 0
 611 01e4 4FF02003 		mov	r3, #32
 612              	@ 140 "./src/dac_ctrl.c" 1
 613 01e8 83F31188 		msr     BASEPRI, r3
ARM GAS  C:\Users\z80\AppData\Local\Temp\cchWT0Ou.s 			page 12


 614              	@ 0 "" 2
 615              		.thumb
 616              	.LBE7:
 617 01ec FFF7FEFF 		bl	dbg_check_lock_from_isr
 618              		.loc 1 141 0
 619 01f0 40F20000 		movw	r0, #:lower16:SPID2
 620 01f4 C0F20000 		movt	r0, #:upper16:SPID2
 621 01f8 FFF7FEFF 		bl	spi_lld_select
 622              		.loc 1 142 0
 623 01fc 40F20003 		movw	r3, #:lower16:SPID2
 624 0200 C0F20003 		movt	r3, #:upper16:SPID2
 625 0204 4FF00302 		mov	r2, #3
 626 0208 1A70     		strb	r2, [r3, #0]
 627 020a 40F20000 		movw	r0, #:lower16:SPID2
 628 020e C0F20000 		movt	r0, #:upper16:SPID2
 629 0212 4FF00201 		mov	r1, #2
 630 0216 40F20002 		movw	r2, #:lower16:dac_tx_buffer
 631 021a C0F20002 		movt	r2, #:upper16:dac_tx_buffer
 632 021e FFF7FEFF 		bl	spi_lld_send
 633              		.loc 1 143 0
 634 0222 FFF7FEFF 		bl	dbg_check_unlock_from_isr
 635              	.LBB8:
 636 0226 4FF00003 		mov	r3, #0
 637              	@ 143 "./src/dac_ctrl.c" 1
 638 022a 83F31188 		msr     BASEPRI, r3
 639              	@ 0 "" 2
 640              		.thumb
 641              	.LBE8:
 642              		.loc 1 146 0
 643 022e 07E0     		b	.L8
 644              	.L12:
 645              		.loc 1 115 0
 646 0230 039B     		ldr	r3, [sp, #12]
 647 0232 03F10103 		add	r3, r3, #1
 648 0236 0393     		str	r3, [sp, #12]
 649              	.L11:
 650              		.loc 1 115 0 is_stmt 0 discriminator 1
 651 0238 039B     		ldr	r3, [sp, #12]
 652 023a 032B     		cmp	r3, #3
 653 023c 7FF73FAF 		ble	.L20
 654              	.L8:
 655              		.loc 1 149 0 is_stmt 1
 656 0240 05B0     		add	sp, sp, #20
 657 0242 00BD     		pop	{pc}
 658              		.cfi_endproc
 659              	.LFE67:
 660              		.size	processDacI, .-processDacI
 661 0244 AFF30080 		.section	.text.onSpiComplete,"ax",%progbits
 661      AFF30080 
 661      AFF30080 
 662              		.align	2
 663              		.p2align 4,,15
 664              		.thumb
 665              		.thumb_func
 666              		.type	onSpiComplete, %function
 667              	onSpiComplete:
 668              	.LFB68:
ARM GAS  C:\Users\z80\AppData\Local\Temp\cchWT0Ou.s 			page 13


 669              		.loc 1 152 0
 670              		.cfi_startproc
 671              		@ args = 0, pretend = 0, frame = 8
 672              		@ frame_needed = 0, uses_anonymous_args = 0
 673 0000 00B5     		push	{lr}
 674              	.LCFI10:
 675              		.cfi_def_cfa_offset 4
 676 0002 83B0     		sub	sp, sp, #12
 677              	.LCFI11:
 678              		.cfi_def_cfa_offset 16
 679 0004 0190     		str	r0, [sp, #4]
 680              	.LBB9:
 681              		.loc 1 154 0
 682 0006 4FF02003 		mov	r3, #32
 683              	@ 154 "./src/dac_ctrl.c" 1
 684 000a 83F31188 		msr     BASEPRI, r3
 685              	@ 0 "" 2
 686              		.thumb
 687              	.LBE9:
 688              		.cfi_offset 14, -4
 689 000e FFF7FEFF 		bl	dbg_check_lock_from_isr
 690              		.loc 1 155 0
 691 0012 40F20000 		movw	r0, #:lower16:SPID2
 692 0016 C0F20000 		movt	r0, #:upper16:SPID2
 693 001a FFF7FEFF 		bl	spi_lld_unselect
 694              		.loc 1 156 0
 695 001e FFF7FEFF 		bl	dbg_check_unlock_from_isr
 696              	.LBB10:
 697 0022 4FF00003 		mov	r3, #0
 698              	@ 156 "./src/dac_ctrl.c" 1
 699 0026 83F31188 		msr     BASEPRI, r3
 700              	@ 0 "" 2
 701              		.thumb
 702              	.LBE10:
 703              		.loc 1 157 0
 704 002a 03B0     		add	sp, sp, #12
 705 002c 00BD     		pop	{pc}
 706              		.cfi_endproc
 707              	.LFE68:
 708              		.size	onSpiComplete, .-onSpiComplete
 709 002e 00BF     		.text
 710              	.Letext0:
 711              		.section	.debug_loc,"",%progbits
 712              	.Ldebug_loc0:
 713              	.LLST0:
 714 0000 00000000 		.4byte	.LFB62
 715 0004 02000000 		.4byte	.LCFI0
 716 0008 0200     		.2byte	0x2
 717 000a 7D       		.byte	0x7d
 718 000b 00       		.sleb128 0
 719 000c 02000000 		.4byte	.LCFI0
 720 0010 F8000000 		.4byte	.LFE62
 721 0014 0200     		.2byte	0x2
 722 0016 7D       		.byte	0x7d
 723 0017 08       		.sleb128 8
 724 0018 00000000 		.4byte	0x0
 725 001c 00000000 		.4byte	0x0
ARM GAS  C:\Users\z80\AppData\Local\Temp\cchWT0Ou.s 			page 14


 726              	.LLST1:
 727 0020 00000000 		.4byte	.LFB63
 728 0024 02000000 		.4byte	.LCFI1
 729 0028 0200     		.2byte	0x2
 730 002a 7D       		.byte	0x7d
 731 002b 00       		.sleb128 0
 732 002c 02000000 		.4byte	.LCFI1
 733 0030 2E000000 		.4byte	.LFE63
 734 0034 0200     		.2byte	0x2
 735 0036 7D       		.byte	0x7d
 736 0037 08       		.sleb128 8
 737 0038 00000000 		.4byte	0x0
 738 003c 00000000 		.4byte	0x0
 739              	.LLST2:
 740 0040 00000000 		.4byte	.LFB64
 741 0044 02000000 		.4byte	.LCFI2
 742 0048 0200     		.2byte	0x2
 743 004a 7D       		.byte	0x7d
 744 004b 00       		.sleb128 0
 745 004c 02000000 		.4byte	.LCFI2
 746 0050 04000000 		.4byte	.LCFI3
 747 0054 0200     		.2byte	0x2
 748 0056 7D       		.byte	0x7d
 749 0057 04       		.sleb128 4
 750 0058 04000000 		.4byte	.LCFI3
 751 005c 8A000000 		.4byte	.LFE64
 752 0060 0200     		.2byte	0x2
 753 0062 7D       		.byte	0x7d
 754 0063 18       		.sleb128 24
 755 0064 00000000 		.4byte	0x0
 756 0068 00000000 		.4byte	0x0
 757              	.LLST3:
 758 006c 00000000 		.4byte	.LFB65
 759 0070 02000000 		.4byte	.LCFI4
 760 0074 0200     		.2byte	0x2
 761 0076 7D       		.byte	0x7d
 762 0077 00       		.sleb128 0
 763 0078 02000000 		.4byte	.LCFI4
 764 007c 04000000 		.4byte	.LCFI5
 765 0080 0200     		.2byte	0x2
 766 0082 7D       		.byte	0x7d
 767 0083 04       		.sleb128 4
 768 0084 04000000 		.4byte	.LCFI5
 769 0088 30000000 		.4byte	.LFE65
 770 008c 0200     		.2byte	0x2
 771 008e 7D       		.byte	0x7d
 772 008f 18       		.sleb128 24
 773 0090 00000000 		.4byte	0x0
 774 0094 00000000 		.4byte	0x0
 775              	.LLST4:
 776 0098 00000000 		.4byte	.LFB66
 777 009c 02000000 		.4byte	.LCFI6
 778 00a0 0200     		.2byte	0x2
 779 00a2 7D       		.byte	0x7d
 780 00a3 00       		.sleb128 0
 781 00a4 02000000 		.4byte	.LCFI6
 782 00a8 04000000 		.4byte	.LCFI7
ARM GAS  C:\Users\z80\AppData\Local\Temp\cchWT0Ou.s 			page 15


 783 00ac 0200     		.2byte	0x2
 784 00ae 7D       		.byte	0x7d
 785 00af 04       		.sleb128 4
 786 00b0 04000000 		.4byte	.LCFI7
 787 00b4 30000000 		.4byte	.LFE66
 788 00b8 0200     		.2byte	0x2
 789 00ba 7D       		.byte	0x7d
 790 00bb 18       		.sleb128 24
 791 00bc 00000000 		.4byte	0x0
 792 00c0 00000000 		.4byte	0x0
 793              	.LLST5:
 794 00c4 00000000 		.4byte	.LFB67
 795 00c8 02000000 		.4byte	.LCFI8
 796 00cc 0200     		.2byte	0x2
 797 00ce 7D       		.byte	0x7d
 798 00cf 00       		.sleb128 0
 799 00d0 02000000 		.4byte	.LCFI8
 800 00d4 04000000 		.4byte	.LCFI9
 801 00d8 0200     		.2byte	0x2
 802 00da 7D       		.byte	0x7d
 803 00db 04       		.sleb128 4
 804 00dc 04000000 		.4byte	.LCFI9
 805 00e0 44020000 		.4byte	.LFE67
 806 00e4 0200     		.2byte	0x2
 807 00e6 7D       		.byte	0x7d
 808 00e7 18       		.sleb128 24
 809 00e8 00000000 		.4byte	0x0
 810 00ec 00000000 		.4byte	0x0
 811              	.LLST6:
 812 00f0 00000000 		.4byte	.LFB68
 813 00f4 02000000 		.4byte	.LCFI10
 814 00f8 0200     		.2byte	0x2
 815 00fa 7D       		.byte	0x7d
 816 00fb 00       		.sleb128 0
 817 00fc 02000000 		.4byte	.LCFI10
 818 0100 04000000 		.4byte	.LCFI11
 819 0104 0200     		.2byte	0x2
 820 0106 7D       		.byte	0x7d
 821 0107 04       		.sleb128 4
 822 0108 04000000 		.4byte	.LCFI11
 823 010c 2E000000 		.4byte	.LFE68
 824 0110 0200     		.2byte	0x2
 825 0112 7D       		.byte	0x7d
 826 0113 10       		.sleb128 16
 827 0114 00000000 		.4byte	0x0
 828 0118 00000000 		.4byte	0x0
 829              		.file 2 "c:\\programs\\yagarto\\bin\\../lib/gcc/arm-none-eabi/4.5.0/include/stddef.h"
 830              		.file 3 "c:/programs/yagarto/lib/gcc/../../arm-none-eabi/sys-include/stdint.h"
 831              		.file 4 "../chibios_2.4.x/os/ports/GCC/ARMCMx/chtypes.h"
 832              		.file 5 "../chibios_2.4.x/os/kernel/include/chlists.h"
 833              		.file 6 "../chibios_2.4.x/os/kernel/include/chthreads.h"
 834              		.file 7 "../chibios_2.4.x/os/ports/GCC/ARMCMx/chcore_v7m.h"
 835              		.file 8 "../chibios_2.4.x/os/kernel/include/chmtx.h"
 836              		.file 9 "../chibios_2.4.x/os/kernel/include/chqueues.h"
 837              		.file 10 "../chibios_2.4.x/os/hal/platforms/STM32F1xx/stm32f10x.h"
 838              		.file 11 "../chibios_2.4.x/os/hal/platforms/STM32F1xx/stm32_dma.h"
 839              		.file 12 "../chibios_2.4.x/os/hal/platforms/STM32/GPIOv1/pal_lld.h"
ARM GAS  C:\Users\z80\AppData\Local\Temp\cchWT0Ou.s 			page 16


 840              		.file 13 "../chibios_2.4.x/os/hal/include/spi.h"
 841              		.file 14 "../chibios_2.4.x/os/hal/platforms/STM32/spi_lld.h"
 842              		.file 15 "../chibios_2.4.x/os/ports/common/ARMCMx/CMSIS/include/core_cm3.h"
 843              		.section	.debug_info
 844 0000 BA0B0000 		.4byte	0xbba
 845 0004 0200     		.2byte	0x2
 846 0006 00000000 		.4byte	.Ldebug_abbrev0
 847 000a 04       		.byte	0x4
 848 000b 01       		.uleb128 0x1
 849 000c BD040000 		.4byte	.LASF130
 850 0010 01       		.byte	0x1
 851 0011 9E030000 		.4byte	.LASF131
 852 0015 12010000 		.4byte	.LASF132
 853 0019 00000000 		.4byte	0x0
 854 001d 00000000 		.4byte	0x0
 855 0021 00000000 		.4byte	.Ldebug_ranges0+0x0
 856 0025 00000000 		.4byte	.Ldebug_line0
 857 0029 02       		.uleb128 0x2
 858 002a 04       		.byte	0x4
 859 002b 05       		.byte	0x5
 860 002c 696E7400 		.ascii	"int\000"
 861 0030 03       		.uleb128 0x3
 862 0031 17000000 		.4byte	.LASF2
 863 0035 02       		.byte	0x2
 864 0036 D3       		.byte	0xd3
 865 0037 3B000000 		.4byte	0x3b
 866 003b 04       		.uleb128 0x4
 867 003c 04       		.byte	0x4
 868 003d 07       		.byte	0x7
 869 003e CE010000 		.4byte	.LASF0
 870 0042 04       		.uleb128 0x4
 871 0043 01       		.byte	0x1
 872 0044 06       		.byte	0x6
 873 0045 DC000000 		.4byte	.LASF1
 874 0049 03       		.uleb128 0x3
 875 004a B5040000 		.4byte	.LASF3
 876 004e 03       		.byte	0x3
 877 004f 2A       		.byte	0x2a
 878 0050 54000000 		.4byte	0x54
 879 0054 04       		.uleb128 0x4
 880 0055 01       		.byte	0x1
 881 0056 08       		.byte	0x8
 882 0057 3D030000 		.4byte	.LASF4
 883 005b 04       		.uleb128 0x4
 884 005c 02       		.byte	0x2
 885 005d 05       		.byte	0x5
 886 005e 6E030000 		.4byte	.LASF5
 887 0062 03       		.uleb128 0x3
 888 0063 DB010000 		.4byte	.LASF6
 889 0067 03       		.byte	0x3
 890 0068 36       		.byte	0x36
 891 0069 6D000000 		.4byte	0x6d
 892 006d 04       		.uleb128 0x4
 893 006e 02       		.byte	0x2
 894 006f 07       		.byte	0x7
 895 0070 0D020000 		.4byte	.LASF7
 896 0074 03       		.uleb128 0x3
ARM GAS  C:\Users\z80\AppData\Local\Temp\cchWT0Ou.s 			page 17


 897 0075 35030000 		.4byte	.LASF8
 898 0079 03       		.byte	0x3
 899 007a 4F       		.byte	0x4f
 900 007b 7F000000 		.4byte	0x7f
 901 007f 04       		.uleb128 0x4
 902 0080 04       		.byte	0x4
 903 0081 05       		.byte	0x5
 904 0082 45010000 		.4byte	.LASF9
 905 0086 03       		.uleb128 0x3
 906 0087 C9030000 		.4byte	.LASF10
 907 008b 03       		.byte	0x3
 908 008c 50       		.byte	0x50
 909 008d 91000000 		.4byte	0x91
 910 0091 04       		.uleb128 0x4
 911 0092 04       		.byte	0x4
 912 0093 07       		.byte	0x7
 913 0094 EA030000 		.4byte	.LASF11
 914 0098 04       		.uleb128 0x4
 915 0099 08       		.byte	0x8
 916 009a 05       		.byte	0x5
 917 009b CE000000 		.4byte	.LASF12
 918 009f 03       		.uleb128 0x3
 919 00a0 2F000000 		.4byte	.LASF13
 920 00a4 03       		.byte	0x3
 921 00a5 78       		.byte	0x78
 922 00a6 AA000000 		.4byte	0xaa
 923 00aa 04       		.uleb128 0x4
 924 00ab 08       		.byte	0x8
 925 00ac 07       		.byte	0x7
 926 00ad 62000000 		.4byte	.LASF14
 927 00b1 03       		.uleb128 0x3
 928 00b2 26020000 		.4byte	.LASF15
 929 00b6 04       		.byte	0x4
 930 00b7 2F       		.byte	0x2f
 931 00b8 49000000 		.4byte	0x49
 932 00bc 03       		.uleb128 0x3
 933 00bd 4E010000 		.4byte	.LASF16
 934 00c1 04       		.byte	0x4
 935 00c2 30       		.byte	0x30
 936 00c3 49000000 		.4byte	0x49
 937 00c7 03       		.uleb128 0x3
 938 00c8 25030000 		.4byte	.LASF17
 939 00cc 04       		.byte	0x4
 940 00cd 32       		.byte	0x32
 941 00ce 86000000 		.4byte	0x86
 942 00d2 03       		.uleb128 0x3
 943 00d3 20020000 		.4byte	.LASF18
 944 00d7 04       		.byte	0x4
 945 00d8 33       		.byte	0x33
 946 00d9 74000000 		.4byte	0x74
 947 00dd 03       		.uleb128 0x3
 948 00de 41020000 		.4byte	.LASF19
 949 00e2 04       		.byte	0x4
 950 00e3 35       		.byte	0x35
 951 00e4 86000000 		.4byte	0x86
 952 00e8 03       		.uleb128 0x3
 953 00e9 39040000 		.4byte	.LASF20
ARM GAS  C:\Users\z80\AppData\Local\Temp\cchWT0Ou.s 			page 18


 954 00ed 04       		.byte	0x4
 955 00ee 36       		.byte	0x36
 956 00ef 86000000 		.4byte	0x86
 957 00f3 03       		.uleb128 0x3
 958 00f4 6F020000 		.4byte	.LASF21
 959 00f8 05       		.byte	0x5
 960 00f9 2A       		.byte	0x2a
 961 00fa FE000000 		.4byte	0xfe
 962 00fe 05       		.uleb128 0x5
 963 00ff 6F020000 		.4byte	.LASF21
 964 0103 48       		.byte	0x48
 965 0104 06       		.byte	0x6
 966 0105 5E       		.byte	0x5e
 967 0106 07020000 		.4byte	0x207
 968 010a 06       		.uleb128 0x6
 969 010b 87030000 		.4byte	.LASF22
 970 010f 06       		.byte	0x6
 971 0110 5F       		.byte	0x5f
 972 0111 2C020000 		.4byte	0x22c
 973 0115 02       		.byte	0x2
 974 0116 23       		.byte	0x23
 975 0117 00       		.uleb128 0x0
 976 0118 06       		.uleb128 0x6
 977 0119 00030000 		.4byte	.LASF23
 978 011d 06       		.byte	0x6
 979 011e 61       		.byte	0x61
 980 011f 2C020000 		.4byte	0x22c
 981 0123 02       		.byte	0x2
 982 0124 23       		.byte	0x23
 983 0125 04       		.uleb128 0x4
 984 0126 06       		.uleb128 0x6
 985 0127 BD000000 		.4byte	.LASF24
 986 012b 06       		.byte	0x6
 987 012c 63       		.byte	0x63
 988 012d C7000000 		.4byte	0xc7
 989 0131 02       		.byte	0x2
 990 0132 23       		.byte	0x23
 991 0133 08       		.uleb128 0x8
 992 0134 06       		.uleb128 0x6
 993 0135 07050000 		.4byte	.LASF25
 994 0139 06       		.byte	0x6
 995 013a 64       		.byte	0x64
 996 013b 04030000 		.4byte	0x304
 997 013f 02       		.byte	0x2
 998 0140 23       		.byte	0x23
 999 0141 0C       		.uleb128 0xc
 1000 0142 06       		.uleb128 0x6
 1001 0143 6F010000 		.4byte	.LASF26
 1002 0147 06       		.byte	0x6
 1003 0148 66       		.byte	0x66
 1004 0149 2C020000 		.4byte	0x22c
 1005 014d 02       		.byte	0x2
 1006 014e 23       		.byte	0x23
 1007 014f 10       		.uleb128 0x10
 1008 0150 06       		.uleb128 0x6
 1009 0151 99020000 		.4byte	.LASF27
 1010 0155 06       		.byte	0x6
ARM GAS  C:\Users\z80\AppData\Local\Temp\cchWT0Ou.s 			page 19


 1011 0156 67       		.byte	0x67
 1012 0157 2C020000 		.4byte	0x22c
 1013 015b 02       		.byte	0x2
 1014 015c 23       		.byte	0x23
 1015 015d 14       		.uleb128 0x14
 1016 015e 06       		.uleb128 0x6
 1017 015f D0040000 		.4byte	.LASF28
 1018 0163 06       		.byte	0x6
 1019 0164 6E       		.byte	0x6e
 1020 0165 B1030000 		.4byte	0x3b1
 1021 0169 02       		.byte	0x2
 1022 016a 23       		.byte	0x23
 1023 016b 18       		.uleb128 0x18
 1024 016c 06       		.uleb128 0x6
 1025 016d C3010000 		.4byte	.LASF29
 1026 0171 06       		.byte	0x6
 1027 0172 74       		.byte	0x74
 1028 0173 C3030000 		.4byte	0x3c3
 1029 0177 02       		.byte	0x2
 1030 0178 23       		.byte	0x23
 1031 0179 1C       		.uleb128 0x1c
 1032 017a 06       		.uleb128 0x6
 1033 017b 78030000 		.4byte	.LASF30
 1034 017f 06       		.byte	0x6
 1035 0180 79       		.byte	0x79
 1036 0181 BC000000 		.4byte	0xbc
 1037 0185 02       		.byte	0x2
 1038 0186 23       		.byte	0x23
 1039 0187 20       		.uleb128 0x20
 1040 0188 06       		.uleb128 0x6
 1041 0189 8E030000 		.4byte	.LASF31
 1042 018d 06       		.byte	0x6
 1043 018e 7D       		.byte	0x7d
 1044 018f B1000000 		.4byte	0xb1
 1045 0193 02       		.byte	0x2
 1046 0194 23       		.byte	0x23
 1047 0195 21       		.uleb128 0x21
 1048 0196 06       		.uleb128 0x6
 1049 0197 68010000 		.4byte	.LASF32
 1050 019b 06       		.byte	0x6
 1051 019c 89       		.byte	0x89
 1052 019d 2F030000 		.4byte	0x32f
 1053 01a1 02       		.byte	0x2
 1054 01a2 23       		.byte	0x23
 1055 01a3 24       		.uleb128 0x24
 1056 01a4 07       		.uleb128 0x7
 1057 01a5 705F7500 		.ascii	"p_u\000"
 1058 01a9 06       		.byte	0x6
 1059 01aa AE       		.byte	0xae
 1060 01ab 7C030000 		.4byte	0x37c
 1061 01af 02       		.byte	0x2
 1062 01b0 23       		.byte	0x23
 1063 01b1 28       		.uleb128 0x28
 1064 01b2 06       		.uleb128 0x6
 1065 01b3 0D050000 		.4byte	.LASF33
 1066 01b7 06       		.byte	0x6
 1067 01b8 B3       		.byte	0xb3
ARM GAS  C:\Users\z80\AppData\Local\Temp\cchWT0Ou.s 			page 20


 1068 01b9 54020000 		.4byte	0x254
 1069 01bd 02       		.byte	0x2
 1070 01be 23       		.byte	0x23
 1071 01bf 2C       		.uleb128 0x2c
 1072 01c0 06       		.uleb128 0x6
 1073 01c1 E9010000 		.4byte	.LASF34
 1074 01c5 06       		.byte	0x6
 1075 01c6 B9       		.byte	0xb9
 1076 01c7 32020000 		.4byte	0x232
 1077 01cb 02       		.byte	0x2
 1078 01cc 23       		.byte	0x23
 1079 01cd 30       		.uleb128 0x30
 1080 01ce 06       		.uleb128 0x6
 1081 01cf EF040000 		.4byte	.LASF35
 1082 01d3 06       		.byte	0x6
 1083 01d4 BD       		.byte	0xbd
 1084 01d5 D2000000 		.4byte	0xd2
 1085 01d9 02       		.byte	0x2
 1086 01da 23       		.byte	0x23
 1087 01db 38       		.uleb128 0x38
 1088 01dc 06       		.uleb128 0x6
 1089 01dd AF030000 		.4byte	.LASF36
 1090 01e1 06       		.byte	0x6
 1091 01e2 C3       		.byte	0xc3
 1092 01e3 DD000000 		.4byte	0xdd
 1093 01e7 02       		.byte	0x2
 1094 01e8 23       		.byte	0x23
 1095 01e9 3C       		.uleb128 0x3c
 1096 01ea 06       		.uleb128 0x6
 1097 01eb 64030000 		.4byte	.LASF37
 1098 01ef 06       		.byte	0x6
 1099 01f0 CA       		.byte	0xca
 1100 01f1 C9030000 		.4byte	0x3c9
 1101 01f5 02       		.byte	0x2
 1102 01f6 23       		.byte	0x23
 1103 01f7 40       		.uleb128 0x40
 1104 01f8 06       		.uleb128 0x6
 1105 01f9 43040000 		.4byte	.LASF38
 1106 01fd 06       		.byte	0x6
 1107 01fe CE       		.byte	0xce
 1108 01ff C7000000 		.4byte	0xc7
 1109 0203 02       		.byte	0x2
 1110 0204 23       		.byte	0x23
 1111 0205 44       		.uleb128 0x44
 1112 0206 00       		.byte	0x0
 1113 0207 08       		.uleb128 0x8
 1114 0208 08       		.byte	0x8
 1115 0209 05       		.byte	0x5
 1116 020a 61       		.byte	0x61
 1117 020b 2C020000 		.4byte	0x22c
 1118 020f 06       		.uleb128 0x6
 1119 0210 87030000 		.4byte	.LASF22
 1120 0214 05       		.byte	0x5
 1121 0215 62       		.byte	0x62
 1122 0216 2C020000 		.4byte	0x22c
 1123 021a 02       		.byte	0x2
 1124 021b 23       		.byte	0x23
ARM GAS  C:\Users\z80\AppData\Local\Temp\cchWT0Ou.s 			page 21


 1125 021c 00       		.uleb128 0x0
 1126 021d 06       		.uleb128 0x6
 1127 021e 00030000 		.4byte	.LASF23
 1128 0222 05       		.byte	0x5
 1129 0223 64       		.byte	0x64
 1130 0224 2C020000 		.4byte	0x22c
 1131 0228 02       		.byte	0x2
 1132 0229 23       		.byte	0x23
 1133 022a 04       		.uleb128 0x4
 1134 022b 00       		.byte	0x0
 1135 022c 09       		.uleb128 0x9
 1136 022d 04       		.byte	0x4
 1137 022e F3000000 		.4byte	0xf3
 1138 0232 03       		.uleb128 0x3
 1139 0233 76020000 		.4byte	.LASF39
 1140 0237 05       		.byte	0x5
 1141 0238 66       		.byte	0x66
 1142 0239 07020000 		.4byte	0x207
 1143 023d 08       		.uleb128 0x8
 1144 023e 04       		.byte	0x4
 1145 023f 05       		.byte	0x5
 1146 0240 6B       		.byte	0x6b
 1147 0241 54020000 		.4byte	0x254
 1148 0245 06       		.uleb128 0x6
 1149 0246 87030000 		.4byte	.LASF22
 1150 024a 05       		.byte	0x5
 1151 024b 6D       		.byte	0x6d
 1152 024c 2C020000 		.4byte	0x22c
 1153 0250 02       		.byte	0x2
 1154 0251 23       		.byte	0x23
 1155 0252 00       		.uleb128 0x0
 1156 0253 00       		.byte	0x0
 1157 0254 03       		.uleb128 0x3
 1158 0255 35020000 		.4byte	.LASF40
 1159 0259 05       		.byte	0x5
 1160 025a 70       		.byte	0x70
 1161 025b 3D020000 		.4byte	0x23d
 1162 025f 03       		.uleb128 0x3
 1163 0260 8E010000 		.4byte	.LASF41
 1164 0264 07       		.byte	0x7
 1165 0265 D7       		.byte	0xd7
 1166 0266 6A020000 		.4byte	0x26a
 1167 026a 0A       		.uleb128 0xa
 1168 026b 04       		.byte	0x4
 1169 026c 03       		.uleb128 0x3
 1170 026d 64020000 		.4byte	.LASF42
 1171 0271 07       		.byte	0x7
 1172 0272 DD       		.byte	0xdd
 1173 0273 9F000000 		.4byte	0x9f
 1174 0277 05       		.uleb128 0x5
 1175 0278 6D040000 		.4byte	.LASF43
 1176 027c 24       		.byte	0x24
 1177 027d 07       		.byte	0x7
 1178 027e FE       		.byte	0xfe
 1179 027f 04030000 		.4byte	0x304
 1180 0283 0B       		.uleb128 0xb
 1181 0284 723400   		.ascii	"r4\000"
ARM GAS  C:\Users\z80\AppData\Local\Temp\cchWT0Ou.s 			page 22


 1182 0287 07       		.byte	0x7
 1183 0288 1101     		.2byte	0x111
 1184 028a 5F020000 		.4byte	0x25f
 1185 028e 02       		.byte	0x2
 1186 028f 23       		.byte	0x23
 1187 0290 00       		.uleb128 0x0
 1188 0291 0B       		.uleb128 0xb
 1189 0292 723500   		.ascii	"r5\000"
 1190 0295 07       		.byte	0x7
 1191 0296 1201     		.2byte	0x112
 1192 0298 5F020000 		.4byte	0x25f
 1193 029c 02       		.byte	0x2
 1194 029d 23       		.byte	0x23
 1195 029e 04       		.uleb128 0x4
 1196 029f 0B       		.uleb128 0xb
 1197 02a0 723600   		.ascii	"r6\000"
 1198 02a3 07       		.byte	0x7
 1199 02a4 1301     		.2byte	0x113
 1200 02a6 5F020000 		.4byte	0x25f
 1201 02aa 02       		.byte	0x2
 1202 02ab 23       		.byte	0x23
 1203 02ac 08       		.uleb128 0x8
 1204 02ad 0B       		.uleb128 0xb
 1205 02ae 723700   		.ascii	"r7\000"
 1206 02b1 07       		.byte	0x7
 1207 02b2 1401     		.2byte	0x114
 1208 02b4 5F020000 		.4byte	0x25f
 1209 02b8 02       		.byte	0x2
 1210 02b9 23       		.byte	0x23
 1211 02ba 0C       		.uleb128 0xc
 1212 02bb 0B       		.uleb128 0xb
 1213 02bc 723800   		.ascii	"r8\000"
 1214 02bf 07       		.byte	0x7
 1215 02c0 1501     		.2byte	0x115
 1216 02c2 5F020000 		.4byte	0x25f
 1217 02c6 02       		.byte	0x2
 1218 02c7 23       		.byte	0x23
 1219 02c8 10       		.uleb128 0x10
 1220 02c9 0B       		.uleb128 0xb
 1221 02ca 723900   		.ascii	"r9\000"
 1222 02cd 07       		.byte	0x7
 1223 02ce 1601     		.2byte	0x116
 1224 02d0 5F020000 		.4byte	0x25f
 1225 02d4 02       		.byte	0x2
 1226 02d5 23       		.byte	0x23
 1227 02d6 14       		.uleb128 0x14
 1228 02d7 0B       		.uleb128 0xb
 1229 02d8 72313000 		.ascii	"r10\000"
 1230 02dc 07       		.byte	0x7
 1231 02dd 1701     		.2byte	0x117
 1232 02df 5F020000 		.4byte	0x25f
 1233 02e3 02       		.byte	0x2
 1234 02e4 23       		.byte	0x23
 1235 02e5 18       		.uleb128 0x18
 1236 02e6 0B       		.uleb128 0xb
 1237 02e7 72313100 		.ascii	"r11\000"
 1238 02eb 07       		.byte	0x7
ARM GAS  C:\Users\z80\AppData\Local\Temp\cchWT0Ou.s 			page 23


 1239 02ec 1801     		.2byte	0x118
 1240 02ee 5F020000 		.4byte	0x25f
 1241 02f2 02       		.byte	0x2
 1242 02f3 23       		.byte	0x23
 1243 02f4 1C       		.uleb128 0x1c
 1244 02f5 0B       		.uleb128 0xb
 1245 02f6 6C7200   		.ascii	"lr\000"
 1246 02f9 07       		.byte	0x7
 1247 02fa 1901     		.2byte	0x119
 1248 02fc 5F020000 		.4byte	0x25f
 1249 0300 02       		.byte	0x2
 1250 0301 23       		.byte	0x23
 1251 0302 20       		.uleb128 0x20
 1252 0303 00       		.byte	0x0
 1253 0304 0C       		.uleb128 0xc
 1254 0305 59040000 		.4byte	.LASF44
 1255 0309 04       		.byte	0x4
 1256 030a 07       		.byte	0x7
 1257 030b 2301     		.2byte	0x123
 1258 030d 21030000 		.4byte	0x321
 1259 0311 0B       		.uleb128 0xb
 1260 0312 72313300 		.ascii	"r13\000"
 1261 0316 07       		.byte	0x7
 1262 0317 2401     		.2byte	0x124
 1263 0319 21030000 		.4byte	0x321
 1264 031d 02       		.byte	0x2
 1265 031e 23       		.byte	0x23
 1266 031f 00       		.uleb128 0x0
 1267 0320 00       		.byte	0x0
 1268 0321 09       		.uleb128 0x9
 1269 0322 04       		.byte	0x4
 1270 0323 77020000 		.4byte	0x277
 1271 0327 0D       		.uleb128 0xd
 1272 0328 86000000 		.4byte	0x86
 1273 032c 0E       		.uleb128 0xe
 1274 032d 04       		.byte	0x4
 1275 032e 07       		.byte	0x7
 1276 032f 0D       		.uleb128 0xd
 1277 0330 E8000000 		.4byte	0xe8
 1278 0334 05       		.uleb128 0x5
 1279 0335 93020000 		.4byte	.LASF45
 1280 0339 10       		.byte	0x10
 1281 033a 08       		.byte	0x8
 1282 033b 2C       		.byte	0x2c
 1283 033c 6B030000 		.4byte	0x36b
 1284 0340 06       		.uleb128 0x6
 1285 0341 0A010000 		.4byte	.LASF46
 1286 0345 08       		.byte	0x8
 1287 0346 2D       		.byte	0x2d
 1288 0347 32020000 		.4byte	0x232
 1289 034b 02       		.byte	0x2
 1290 034c 23       		.byte	0x23
 1291 034d 00       		.uleb128 0x0
 1292 034e 06       		.uleb128 0x6
 1293 034f FF040000 		.4byte	.LASF47
 1294 0353 08       		.byte	0x8
 1295 0354 2F       		.byte	0x2f
ARM GAS  C:\Users\z80\AppData\Local\Temp\cchWT0Ou.s 			page 24


 1296 0355 2C020000 		.4byte	0x22c
 1297 0359 02       		.byte	0x2
 1298 035a 23       		.byte	0x23
 1299 035b 08       		.uleb128 0x8
 1300 035c 06       		.uleb128 0x6
 1301 035d 32040000 		.4byte	.LASF48
 1302 0361 08       		.byte	0x8
 1303 0362 31       		.byte	0x31
 1304 0363 6B030000 		.4byte	0x36b
 1305 0367 02       		.byte	0x2
 1306 0368 23       		.byte	0x23
 1307 0369 0C       		.uleb128 0xc
 1308 036a 00       		.byte	0x0
 1309 036b 09       		.uleb128 0x9
 1310 036c 04       		.byte	0x4
 1311 036d 34030000 		.4byte	0x334
 1312 0371 03       		.uleb128 0x3
 1313 0372 93020000 		.4byte	.LASF45
 1314 0376 08       		.byte	0x8
 1315 0377 33       		.byte	0x33
 1316 0378 34030000 		.4byte	0x334
 1317 037c 0F       		.uleb128 0xf
 1318 037d 04       		.byte	0x4
 1319 037e 06       		.byte	0x6
 1320 037f 90       		.byte	0x90
 1321 0380 B1030000 		.4byte	0x3b1
 1322 0384 10       		.uleb128 0x10
 1323 0385 1E000000 		.4byte	.LASF49
 1324 0389 06       		.byte	0x6
 1325 038a 97       		.byte	0x97
 1326 038b D2000000 		.4byte	0xd2
 1327 038f 10       		.uleb128 0x10
 1328 0390 7F000000 		.4byte	.LASF50
 1329 0394 06       		.byte	0x6
 1330 0395 9E       		.byte	0x9e
 1331 0396 D2000000 		.4byte	0xd2
 1332 039a 10       		.uleb128 0x10
 1333 039b C9040000 		.4byte	.LASF51
 1334 039f 06       		.byte	0x6
 1335 03a0 A5       		.byte	0xa5
 1336 03a1 6A020000 		.4byte	0x26a
 1337 03a5 10       		.uleb128 0x10
 1338 03a6 80030000 		.4byte	.LASF52
 1339 03aa 06       		.byte	0x6
 1340 03ab AC       		.byte	0xac
 1341 03ac DD000000 		.4byte	0xdd
 1342 03b0 00       		.byte	0x0
 1343 03b1 09       		.uleb128 0x9
 1344 03b2 04       		.byte	0x4
 1345 03b3 B7030000 		.4byte	0x3b7
 1346 03b7 11       		.uleb128 0x11
 1347 03b8 BC030000 		.4byte	0x3bc
 1348 03bc 04       		.uleb128 0x4
 1349 03bd 01       		.byte	0x1
 1350 03be 08       		.byte	0x8
 1351 03bf 08040000 		.4byte	.LASF53
 1352 03c3 09       		.uleb128 0x9
ARM GAS  C:\Users\z80\AppData\Local\Temp\cchWT0Ou.s 			page 25


 1353 03c4 04       		.byte	0x4
 1354 03c5 6C020000 		.4byte	0x26c
 1355 03c9 09       		.uleb128 0x9
 1356 03ca 04       		.byte	0x4
 1357 03cb 71030000 		.4byte	0x371
 1358 03cf 03       		.uleb128 0x3
 1359 03d0 57020000 		.4byte	.LASF54
 1360 03d4 09       		.byte	0x9
 1361 03d5 37       		.byte	0x37
 1362 03d6 DA030000 		.4byte	0x3da
 1363 03da 05       		.uleb128 0x5
 1364 03db 57020000 		.4byte	.LASF54
 1365 03df 20       		.byte	0x20
 1366 03e0 09       		.byte	0x9
 1367 03e1 45       		.byte	0x45
 1368 03e2 49040000 		.4byte	0x449
 1369 03e6 06       		.uleb128 0x6
 1370 03e7 C4000000 		.4byte	.LASF55
 1371 03eb 09       		.byte	0x9
 1372 03ec 46       		.byte	0x46
 1373 03ed 32020000 		.4byte	0x232
 1374 03f1 02       		.byte	0x2
 1375 03f2 23       		.byte	0x23
 1376 03f3 00       		.uleb128 0x0
 1377 03f4 06       		.uleb128 0x6
 1378 03f5 89020000 		.4byte	.LASF56
 1379 03f9 09       		.byte	0x9
 1380 03fa 47       		.byte	0x47
 1381 03fb 30000000 		.4byte	0x30
 1382 03ff 02       		.byte	0x2
 1383 0400 23       		.byte	0x23
 1384 0401 08       		.uleb128 0x8
 1385 0402 06       		.uleb128 0x6
 1386 0403 57010000 		.4byte	.LASF57
 1387 0407 09       		.byte	0x9
 1388 0408 48       		.byte	0x48
 1389 0409 6C040000 		.4byte	0x46c
 1390 040d 02       		.byte	0x2
 1391 040e 23       		.byte	0x23
 1392 040f 0C       		.uleb128 0xc
 1393 0410 06       		.uleb128 0x6
 1394 0411 89040000 		.4byte	.LASF58
 1395 0415 09       		.byte	0x9
 1396 0416 49       		.byte	0x49
 1397 0417 6C040000 		.4byte	0x46c
 1398 041b 02       		.byte	0x2
 1399 041c 23       		.byte	0x23
 1400 041d 10       		.uleb128 0x10
 1401 041e 06       		.uleb128 0x6
 1402 041f 60010000 		.4byte	.LASF59
 1403 0423 09       		.byte	0x9
 1404 0424 4B       		.byte	0x4b
 1405 0425 6C040000 		.4byte	0x46c
 1406 0429 02       		.byte	0x2
 1407 042a 23       		.byte	0x23
 1408 042b 14       		.uleb128 0x14
 1409 042c 06       		.uleb128 0x6
ARM GAS  C:\Users\z80\AppData\Local\Temp\cchWT0Ou.s 			page 26


 1410 042d 2D030000 		.4byte	.LASF60
 1411 0431 09       		.byte	0x9
 1412 0432 4C       		.byte	0x4c
 1413 0433 6C040000 		.4byte	0x46c
 1414 0437 02       		.byte	0x2
 1415 0438 23       		.byte	0x23
 1416 0439 18       		.uleb128 0x18
 1417 043a 06       		.uleb128 0x6
 1418 043b AC040000 		.4byte	.LASF61
 1419 043f 09       		.byte	0x9
 1420 0440 4D       		.byte	0x4d
 1421 0441 49040000 		.4byte	0x449
 1422 0445 02       		.byte	0x2
 1423 0446 23       		.byte	0x23
 1424 0447 1C       		.uleb128 0x1c
 1425 0448 00       		.byte	0x0
 1426 0449 03       		.uleb128 0x3
 1427 044a 4D020000 		.4byte	.LASF62
 1428 044e 09       		.byte	0x9
 1429 044f 3A       		.byte	0x3a
 1430 0450 54040000 		.4byte	0x454
 1431 0454 09       		.uleb128 0x9
 1432 0455 04       		.byte	0x4
 1433 0456 5A040000 		.4byte	0x45a
 1434 045a 12       		.uleb128 0x12
 1435 045b 01       		.byte	0x1
 1436 045c 66040000 		.4byte	0x466
 1437 0460 13       		.uleb128 0x13
 1438 0461 66040000 		.4byte	0x466
 1439 0465 00       		.byte	0x0
 1440 0466 09       		.uleb128 0x9
 1441 0467 04       		.byte	0x4
 1442 0468 CF030000 		.4byte	0x3cf
 1443 046c 09       		.uleb128 0x9
 1444 046d 04       		.byte	0x4
 1445 046e 49000000 		.4byte	0x49
 1446 0472 03       		.uleb128 0x3
 1447 0473 38000000 		.4byte	.LASF63
 1448 0477 09       		.byte	0x9
 1449 0478 E6       		.byte	0xe6
 1450 0479 CF030000 		.4byte	0x3cf
 1451 047d 0D       		.uleb128 0xd
 1452 047e 62000000 		.4byte	0x62
 1453 0482 0D       		.uleb128 0xd
 1454 0483 74000000 		.4byte	0x74
 1455 0487 14       		.uleb128 0x14
 1456 0488 10       		.byte	0x10
 1457 0489 0A       		.byte	0xa
 1458 048a 2D03     		.2byte	0x32d
 1459 048c CD040000 		.4byte	0x4cd
 1460 0490 0B       		.uleb128 0xb
 1461 0491 43435200 		.ascii	"CCR\000"
 1462 0495 0A       		.byte	0xa
 1463 0496 2F03     		.2byte	0x32f
 1464 0498 27030000 		.4byte	0x327
 1465 049c 02       		.byte	0x2
 1466 049d 23       		.byte	0x23
ARM GAS  C:\Users\z80\AppData\Local\Temp\cchWT0Ou.s 			page 27


 1467 049e 00       		.uleb128 0x0
 1468 049f 15       		.uleb128 0x15
 1469 04a0 A1040000 		.4byte	.LASF64
 1470 04a4 0A       		.byte	0xa
 1471 04a5 3003     		.2byte	0x330
 1472 04a7 27030000 		.4byte	0x327
 1473 04ab 02       		.byte	0x2
 1474 04ac 23       		.byte	0x23
 1475 04ad 04       		.uleb128 0x4
 1476 04ae 15       		.uleb128 0x15
 1477 04af E4010000 		.4byte	.LASF65
 1478 04b3 0A       		.byte	0xa
 1479 04b4 3103     		.2byte	0x331
 1480 04b6 27030000 		.4byte	0x327
 1481 04ba 02       		.byte	0x2
 1482 04bb 23       		.byte	0x23
 1483 04bc 08       		.uleb128 0x8
 1484 04bd 15       		.uleb128 0x15
 1485 04be A7040000 		.4byte	.LASF66
 1486 04c2 0A       		.byte	0xa
 1487 04c3 3203     		.2byte	0x332
 1488 04c5 27030000 		.4byte	0x327
 1489 04c9 02       		.byte	0x2
 1490 04ca 23       		.byte	0x23
 1491 04cb 0C       		.uleb128 0xc
 1492 04cc 00       		.byte	0x0
 1493 04cd 16       		.uleb128 0x16
 1494 04ce B3020000 		.4byte	.LASF67
 1495 04d2 0A       		.byte	0xa
 1496 04d3 3303     		.2byte	0x333
 1497 04d5 87040000 		.4byte	0x487
 1498 04d9 14       		.uleb128 0x14
 1499 04da 1C       		.byte	0x1c
 1500 04db 0A       		.byte	0xa
 1501 04dc F803     		.2byte	0x3f8
 1502 04de 4C050000 		.4byte	0x54c
 1503 04e2 0B       		.uleb128 0xb
 1504 04e3 43524C00 		.ascii	"CRL\000"
 1505 04e7 0A       		.byte	0xa
 1506 04e8 FA03     		.2byte	0x3fa
 1507 04ea 27030000 		.4byte	0x327
 1508 04ee 02       		.byte	0x2
 1509 04ef 23       		.byte	0x23
 1510 04f0 00       		.uleb128 0x0
 1511 04f1 0B       		.uleb128 0xb
 1512 04f2 43524800 		.ascii	"CRH\000"
 1513 04f6 0A       		.byte	0xa
 1514 04f7 FB03     		.2byte	0x3fb
 1515 04f9 27030000 		.4byte	0x327
 1516 04fd 02       		.byte	0x2
 1517 04fe 23       		.byte	0x23
 1518 04ff 04       		.uleb128 0x4
 1519 0500 0B       		.uleb128 0xb
 1520 0501 49445200 		.ascii	"IDR\000"
 1521 0505 0A       		.byte	0xa
 1522 0506 FC03     		.2byte	0x3fc
 1523 0508 27030000 		.4byte	0x327
ARM GAS  C:\Users\z80\AppData\Local\Temp\cchWT0Ou.s 			page 28


 1524 050c 02       		.byte	0x2
 1525 050d 23       		.byte	0x23
 1526 050e 08       		.uleb128 0x8
 1527 050f 0B       		.uleb128 0xb
 1528 0510 4F445200 		.ascii	"ODR\000"
 1529 0514 0A       		.byte	0xa
 1530 0515 FD03     		.2byte	0x3fd
 1531 0517 27030000 		.4byte	0x327
 1532 051b 02       		.byte	0x2
 1533 051c 23       		.byte	0x23
 1534 051d 0C       		.uleb128 0xc
 1535 051e 15       		.uleb128 0x15
 1536 051f 8F040000 		.4byte	.LASF68
 1537 0523 0A       		.byte	0xa
 1538 0524 FE03     		.2byte	0x3fe
 1539 0526 27030000 		.4byte	0x327
 1540 052a 02       		.byte	0x2
 1541 052b 23       		.byte	0x23
 1542 052c 10       		.uleb128 0x10
 1543 052d 0B       		.uleb128 0xb
 1544 052e 42525200 		.ascii	"BRR\000"
 1545 0532 0A       		.byte	0xa
 1546 0533 FF03     		.2byte	0x3ff
 1547 0535 27030000 		.4byte	0x327
 1548 0539 02       		.byte	0x2
 1549 053a 23       		.byte	0x23
 1550 053b 14       		.uleb128 0x14
 1551 053c 15       		.uleb128 0x15
 1552 053d 01020000 		.4byte	.LASF69
 1553 0541 0A       		.byte	0xa
 1554 0542 0004     		.2byte	0x400
 1555 0544 27030000 		.4byte	0x327
 1556 0548 02       		.byte	0x2
 1557 0549 23       		.byte	0x23
 1558 054a 18       		.uleb128 0x18
 1559 054b 00       		.byte	0x0
 1560 054c 16       		.uleb128 0x16
 1561 054d F4010000 		.4byte	.LASF70
 1562 0551 0A       		.byte	0xa
 1563 0552 0104     		.2byte	0x401
 1564 0554 D9040000 		.4byte	0x4d9
 1565 0558 14       		.uleb128 0x14
 1566 0559 24       		.byte	0x24
 1567 055a 0A       		.byte	0xa
 1568 055b 9704     		.2byte	0x497
 1569 055d 6E060000 		.4byte	0x66e
 1570 0561 0B       		.uleb128 0xb
 1571 0562 43523100 		.ascii	"CR1\000"
 1572 0566 0A       		.byte	0xa
 1573 0567 9904     		.2byte	0x499
 1574 0569 7D040000 		.4byte	0x47d
 1575 056d 02       		.byte	0x2
 1576 056e 23       		.byte	0x23
 1577 056f 00       		.uleb128 0x0
 1578 0570 15       		.uleb128 0x15
 1579 0571 CE020000 		.4byte	.LASF71
 1580 0575 0A       		.byte	0xa
ARM GAS  C:\Users\z80\AppData\Local\Temp\cchWT0Ou.s 			page 29


 1581 0576 9A04     		.2byte	0x49a
 1582 0578 62000000 		.4byte	0x62
 1583 057c 02       		.byte	0x2
 1584 057d 23       		.byte	0x23
 1585 057e 02       		.uleb128 0x2
 1586 057f 0B       		.uleb128 0xb
 1587 0580 43523200 		.ascii	"CR2\000"
 1588 0584 0A       		.byte	0xa
 1589 0585 9B04     		.2byte	0x49b
 1590 0587 7D040000 		.4byte	0x47d
 1591 058b 02       		.byte	0x2
 1592 058c 23       		.byte	0x23
 1593 058d 04       		.uleb128 0x4
 1594 058e 15       		.uleb128 0x15
 1595 058f D8020000 		.4byte	.LASF72
 1596 0593 0A       		.byte	0xa
 1597 0594 9C04     		.2byte	0x49c
 1598 0596 62000000 		.4byte	0x62
 1599 059a 02       		.byte	0x2
 1600 059b 23       		.byte	0x23
 1601 059c 06       		.uleb128 0x6
 1602 059d 0B       		.uleb128 0xb
 1603 059e 535200   		.ascii	"SR\000"
 1604 05a1 0A       		.byte	0xa
 1605 05a2 9D04     		.2byte	0x49d
 1606 05a4 7D040000 		.4byte	0x47d
 1607 05a8 02       		.byte	0x2
 1608 05a9 23       		.byte	0x23
 1609 05aa 08       		.uleb128 0x8
 1610 05ab 15       		.uleb128 0x15
 1611 05ac E2020000 		.4byte	.LASF73
 1612 05b0 0A       		.byte	0xa
 1613 05b1 9E04     		.2byte	0x49e
 1614 05b3 62000000 		.4byte	0x62
 1615 05b7 02       		.byte	0x2
 1616 05b8 23       		.byte	0x23
 1617 05b9 0A       		.uleb128 0xa
 1618 05ba 0B       		.uleb128 0xb
 1619 05bb 445200   		.ascii	"DR\000"
 1620 05be 0A       		.byte	0xa
 1621 05bf 9F04     		.2byte	0x49f
 1622 05c1 7D040000 		.4byte	0x47d
 1623 05c5 02       		.byte	0x2
 1624 05c6 23       		.byte	0x23
 1625 05c7 0C       		.uleb128 0xc
 1626 05c8 15       		.uleb128 0x15
 1627 05c9 EC020000 		.4byte	.LASF74
 1628 05cd 0A       		.byte	0xa
 1629 05ce A004     		.2byte	0x4a0
 1630 05d0 62000000 		.4byte	0x62
 1631 05d4 02       		.byte	0x2
 1632 05d5 23       		.byte	0x23
 1633 05d6 0E       		.uleb128 0xe
 1634 05d7 15       		.uleb128 0x15
 1635 05d8 79000000 		.4byte	.LASF75
 1636 05dc 0A       		.byte	0xa
 1637 05dd A104     		.2byte	0x4a1
ARM GAS  C:\Users\z80\AppData\Local\Temp\cchWT0Ou.s 			page 30


 1638 05df 7D040000 		.4byte	0x47d
 1639 05e3 02       		.byte	0x2
 1640 05e4 23       		.byte	0x23
 1641 05e5 10       		.uleb128 0x10
 1642 05e6 15       		.uleb128 0x15
 1643 05e7 F6020000 		.4byte	.LASF76
 1644 05eb 0A       		.byte	0xa
 1645 05ec A204     		.2byte	0x4a2
 1646 05ee 62000000 		.4byte	0x62
 1647 05f2 02       		.byte	0x2
 1648 05f3 23       		.byte	0x23
 1649 05f4 12       		.uleb128 0x12
 1650 05f5 15       		.uleb128 0x15
 1651 05f6 D2030000 		.4byte	.LASF77
 1652 05fa 0A       		.byte	0xa
 1653 05fb A304     		.2byte	0x4a3
 1654 05fd 7D040000 		.4byte	0x47d
 1655 0601 02       		.byte	0x2
 1656 0602 23       		.byte	0x23
 1657 0603 14       		.uleb128 0x14
 1658 0604 15       		.uleb128 0x15
 1659 0605 BF030000 		.4byte	.LASF78
 1660 0609 0A       		.byte	0xa
 1661 060a A404     		.2byte	0x4a4
 1662 060c 62000000 		.4byte	0x62
 1663 0610 02       		.byte	0x2
 1664 0611 23       		.byte	0x23
 1665 0612 16       		.uleb128 0x16
 1666 0613 15       		.uleb128 0x15
 1667 0614 C7020000 		.4byte	.LASF79
 1668 0618 0A       		.byte	0xa
 1669 0619 A504     		.2byte	0x4a5
 1670 061b 7D040000 		.4byte	0x47d
 1671 061f 02       		.byte	0x2
 1672 0620 23       		.byte	0x23
 1673 0621 18       		.uleb128 0x18
 1674 0622 15       		.uleb128 0x15
 1675 0623 07030000 		.4byte	.LASF80
 1676 0627 0A       		.byte	0xa
 1677 0628 A604     		.2byte	0x4a6
 1678 062a 62000000 		.4byte	0x62
 1679 062e 02       		.byte	0x2
 1680 062f 23       		.byte	0x23
 1681 0630 1A       		.uleb128 0x1a
 1682 0631 15       		.uleb128 0x15
 1683 0632 02010000 		.4byte	.LASF81
 1684 0636 0A       		.byte	0xa
 1685 0637 A704     		.2byte	0x4a7
 1686 0639 7D040000 		.4byte	0x47d
 1687 063d 02       		.byte	0x2
 1688 063e 23       		.byte	0x23
 1689 063f 1C       		.uleb128 0x1c
 1690 0640 15       		.uleb128 0x15
 1691 0641 11030000 		.4byte	.LASF82
 1692 0645 0A       		.byte	0xa
 1693 0646 A804     		.2byte	0x4a8
 1694 0648 62000000 		.4byte	0x62
ARM GAS  C:\Users\z80\AppData\Local\Temp\cchWT0Ou.s 			page 31


 1695 064c 02       		.byte	0x2
 1696 064d 23       		.byte	0x23
 1697 064e 1E       		.uleb128 0x1e
 1698 064f 15       		.uleb128 0x15
 1699 0650 83020000 		.4byte	.LASF83
 1700 0654 0A       		.byte	0xa
 1701 0655 A904     		.2byte	0x4a9
 1702 0657 7D040000 		.4byte	0x47d
 1703 065b 02       		.byte	0x2
 1704 065c 23       		.byte	0x23
 1705 065d 20       		.uleb128 0x20
 1706 065e 15       		.uleb128 0x15
 1707 065f 1B030000 		.4byte	.LASF84
 1708 0663 0A       		.byte	0xa
 1709 0664 AA04     		.2byte	0x4aa
 1710 0666 62000000 		.4byte	0x62
 1711 066a 02       		.byte	0x2
 1712 066b 23       		.byte	0x23
 1713 066c 22       		.uleb128 0x22
 1714 066d 00       		.byte	0x0
 1715 066e 16       		.uleb128 0x16
 1716 066f FC030000 		.4byte	.LASF85
 1717 0673 0A       		.byte	0xa
 1718 0674 AB04     		.2byte	0x4ab
 1719 0676 58050000 		.4byte	0x558
 1720 067a 08       		.uleb128 0x8
 1721 067b 0C       		.byte	0xc
 1722 067c 0B       		.byte	0xb
 1723 067d C2       		.byte	0xc2
 1724 067e C9060000 		.4byte	0x6c9
 1725 0682 06       		.uleb128 0x6
 1726 0683 96030000 		.4byte	.LASF86
 1727 0687 0B       		.byte	0xb
 1728 0688 C3       		.byte	0xc3
 1729 0689 C9060000 		.4byte	0x6c9
 1730 068d 02       		.byte	0x2
 1731 068e 23       		.byte	0x23
 1732 068f 00       		.uleb128 0x0
 1733 0690 06       		.uleb128 0x6
 1734 0691 BA030000 		.4byte	.LASF87
 1735 0695 0B       		.byte	0xb
 1736 0696 C4       		.byte	0xc4
 1737 0697 CF060000 		.4byte	0x6cf
 1738 069b 02       		.byte	0x2
 1739 069c 23       		.byte	0x23
 1740 069d 04       		.uleb128 0x4
 1741 069e 06       		.uleb128 0x6
 1742 069f 06020000 		.4byte	.LASF88
 1743 06a3 0B       		.byte	0xb
 1744 06a4 C5       		.byte	0xc5
 1745 06a5 49000000 		.4byte	0x49
 1746 06a9 02       		.byte	0x2
 1747 06aa 23       		.byte	0x23
 1748 06ab 08       		.uleb128 0x8
 1749 06ac 06       		.uleb128 0x6
 1750 06ad 97010000 		.4byte	.LASF89
 1751 06b1 0B       		.byte	0xb
ARM GAS  C:\Users\z80\AppData\Local\Temp\cchWT0Ou.s 			page 32


 1752 06b2 C7       		.byte	0xc7
 1753 06b3 49000000 		.4byte	0x49
 1754 06b7 02       		.byte	0x2
 1755 06b8 23       		.byte	0x23
 1756 06b9 09       		.uleb128 0x9
 1757 06ba 06       		.uleb128 0x6
 1758 06bb 88000000 		.4byte	.LASF90
 1759 06bf 0B       		.byte	0xb
 1760 06c0 C8       		.byte	0xc8
 1761 06c1 49000000 		.4byte	0x49
 1762 06c5 02       		.byte	0x2
 1763 06c6 23       		.byte	0x23
 1764 06c7 0A       		.uleb128 0xa
 1765 06c8 00       		.byte	0x0
 1766 06c9 09       		.uleb128 0x9
 1767 06ca 04       		.byte	0x4
 1768 06cb CD040000 		.4byte	0x4cd
 1769 06cf 09       		.uleb128 0x9
 1770 06d0 04       		.byte	0x4
 1771 06d1 27030000 		.4byte	0x327
 1772 06d5 03       		.uleb128 0x3
 1773 06d6 4B030000 		.4byte	.LASF91
 1774 06da 0B       		.byte	0xb
 1775 06db C9       		.byte	0xc9
 1776 06dc 7A060000 		.4byte	0x67a
 1777 06e0 03       		.uleb128 0x3
 1778 06e1 4F000000 		.4byte	.LASF92
 1779 06e5 0C       		.byte	0xc
 1780 06e6 78       		.byte	0x78
 1781 06e7 86000000 		.4byte	0x86
 1782 06eb 03       		.uleb128 0x3
 1783 06ec 4E040000 		.4byte	.LASF93
 1784 06f0 0C       		.byte	0xc
 1785 06f1 85       		.byte	0x85
 1786 06f2 F6060000 		.4byte	0x6f6
 1787 06f6 09       		.uleb128 0x9
 1788 06f7 04       		.byte	0x4
 1789 06f8 4C050000 		.4byte	0x54c
 1790 06fc 17       		.uleb128 0x17
 1791 06fd 01       		.byte	0x1
 1792 06fe 0D       		.byte	0xd
 1793 06ff 55       		.byte	0x55
 1794 0700 23070000 		.4byte	0x723
 1795 0704 18       		.uleb128 0x18
 1796 0705 7E040000 		.4byte	.LASF94
 1797 0709 00       		.sleb128 0
 1798 070a 18       		.uleb128 0x18
 1799 070b F9000000 		.4byte	.LASF95
 1800 070f 01       		.sleb128 1
 1801 0710 18       		.uleb128 0x18
 1802 0711 74040000 		.4byte	.LASF96
 1803 0715 02       		.sleb128 2
 1804 0716 18       		.uleb128 0x18
 1805 0717 44000000 		.4byte	.LASF97
 1806 071b 03       		.sleb128 3
 1807 071c 18       		.uleb128 0x18
 1808 071d 0D040000 		.4byte	.LASF98
ARM GAS  C:\Users\z80\AppData\Local\Temp\cchWT0Ou.s 			page 33


 1809 0721 04       		.sleb128 4
 1810 0722 00       		.byte	0x0
 1811 0723 03       		.uleb128 0x3
 1812 0724 27040000 		.4byte	.LASF99
 1813 0728 0D       		.byte	0xd
 1814 0729 5B       		.byte	0x5b
 1815 072a FC060000 		.4byte	0x6fc
 1816 072e 16       		.uleb128 0x16
 1817 072f 8F000000 		.4byte	.LASF100
 1818 0733 0E       		.byte	0xe
 1819 0734 0701     		.2byte	0x107
 1820 0736 3A070000 		.4byte	0x73a
 1821 073a 0C       		.uleb128 0xc
 1822 073b 8F000000 		.4byte	.LASF100
 1823 073f 1C       		.byte	0x1c
 1824 0740 0E       		.byte	0xe
 1825 0741 2B01     		.2byte	0x12b
 1826 0743 B1070000 		.4byte	0x7b1
 1827 0747 15       		.uleb128 0x15
 1828 0748 3F010000 		.4byte	.LASF101
 1829 074c 0E       		.byte	0xe
 1830 074d 2F01     		.2byte	0x12f
 1831 074f 23070000 		.4byte	0x723
 1832 0753 02       		.byte	0x2
 1833 0754 23       		.byte	0x23
 1834 0755 00       		.uleb128 0x0
 1835 0756 15       		.uleb128 0x15
 1836 0757 1A040000 		.4byte	.LASF102
 1837 075b 0E       		.byte	0xe
 1838 075c 3301     		.2byte	0x133
 1839 075e 27080000 		.4byte	0x827
 1840 0762 02       		.byte	0x2
 1841 0763 23       		.byte	0x23
 1842 0764 04       		.uleb128 0x4
 1843 0765 0B       		.uleb128 0xb
 1844 0766 73706900 		.ascii	"spi\000"
 1845 076a 0E       		.byte	0xe
 1846 076b 4B01     		.2byte	0x14b
 1847 076d 32080000 		.4byte	0x832
 1848 0771 02       		.byte	0x2
 1849 0772 23       		.byte	0x23
 1850 0773 08       		.uleb128 0x8
 1851 0774 15       		.uleb128 0x15
 1852 0775 00000000 		.4byte	.LASF103
 1853 0779 0E       		.byte	0xe
 1854 077a 4F01     		.2byte	0x14f
 1855 077c 38080000 		.4byte	0x838
 1856 0780 02       		.byte	0x2
 1857 0781 23       		.byte	0x23
 1858 0782 0C       		.uleb128 0xc
 1859 0783 15       		.uleb128 0x15
 1860 0784 88010000 		.4byte	.LASF104
 1861 0788 0E       		.byte	0xe
 1862 0789 5301     		.2byte	0x153
 1863 078b 38080000 		.4byte	0x838
 1864 078f 02       		.byte	0x2
 1865 0790 23       		.byte	0x23
ARM GAS  C:\Users\z80\AppData\Local\Temp\cchWT0Ou.s 			page 34


 1866 0791 10       		.uleb128 0x10
 1867 0792 15       		.uleb128 0x15
 1868 0793 7E010000 		.4byte	.LASF105
 1869 0797 0E       		.byte	0xe
 1870 0798 5701     		.2byte	0x157
 1871 079a 86000000 		.4byte	0x86
 1872 079e 02       		.byte	0x2
 1873 079f 23       		.byte	0x23
 1874 07a0 14       		.uleb128 0x14
 1875 07a1 15       		.uleb128 0x15
 1876 07a2 A9020000 		.4byte	.LASF106
 1877 07a6 0E       		.byte	0xe
 1878 07a7 5B01     		.2byte	0x15b
 1879 07a9 86000000 		.4byte	0x86
 1880 07ad 02       		.byte	0x2
 1881 07ae 23       		.byte	0x23
 1882 07af 18       		.uleb128 0x18
 1883 07b0 00       		.byte	0x0
 1884 07b1 16       		.uleb128 0x16
 1885 07b2 A1010000 		.4byte	.LASF107
 1886 07b6 0E       		.byte	0xe
 1887 07b7 0F01     		.2byte	0x10f
 1888 07b9 BD070000 		.4byte	0x7bd
 1889 07bd 09       		.uleb128 0x9
 1890 07be 04       		.byte	0x4
 1891 07bf C3070000 		.4byte	0x7c3
 1892 07c3 12       		.uleb128 0x12
 1893 07c4 01       		.byte	0x1
 1894 07c5 CF070000 		.4byte	0x7cf
 1895 07c9 13       		.uleb128 0x13
 1896 07ca CF070000 		.4byte	0x7cf
 1897 07ce 00       		.byte	0x0
 1898 07cf 09       		.uleb128 0x9
 1899 07d0 04       		.byte	0x4
 1900 07d1 2E070000 		.4byte	0x72e
 1901 07d5 14       		.uleb128 0x14
 1902 07d6 0C       		.byte	0xc
 1903 07d7 0E       		.byte	0xe
 1904 07d8 1401     		.2byte	0x114
 1905 07da 1B080000 		.4byte	0x81b
 1906 07de 15       		.uleb128 0x15
 1907 07df 77010000 		.4byte	.LASF108
 1908 07e3 0E       		.byte	0xe
 1909 07e4 1801     		.2byte	0x118
 1910 07e6 B1070000 		.4byte	0x7b1
 1911 07ea 02       		.byte	0x2
 1912 07eb 23       		.byte	0x23
 1913 07ec 00       		.uleb128 0x0
 1914 07ed 15       		.uleb128 0x15
 1915 07ee 99000000 		.4byte	.LASF109
 1916 07f2 0E       		.byte	0xe
 1917 07f3 1D01     		.2byte	0x11d
 1918 07f5 EB060000 		.4byte	0x6eb
 1919 07f9 02       		.byte	0x2
 1920 07fa 23       		.byte	0x23
 1921 07fb 04       		.uleb128 0x4
 1922 07fc 15       		.uleb128 0x15
ARM GAS  C:\Users\z80\AppData\Local\Temp\cchWT0Ou.s 			page 35


 1923 07fd 5C000000 		.4byte	.LASF110
 1924 0801 0E       		.byte	0xe
 1925 0802 2101     		.2byte	0x121
 1926 0804 62000000 		.4byte	0x62
 1927 0808 02       		.byte	0x2
 1928 0809 23       		.byte	0x23
 1929 080a 08       		.uleb128 0x8
 1930 080b 0B       		.uleb128 0xb
 1931 080c 63723100 		.ascii	"cr1\000"
 1932 0810 0E       		.byte	0xe
 1933 0811 2501     		.2byte	0x125
 1934 0813 62000000 		.4byte	0x62
 1935 0817 02       		.byte	0x2
 1936 0818 23       		.byte	0x23
 1937 0819 0A       		.uleb128 0xa
 1938 081a 00       		.byte	0x0
 1939 081b 16       		.uleb128 0x16
 1940 081c E5040000 		.4byte	.LASF111
 1941 0820 0E       		.byte	0xe
 1942 0821 2601     		.2byte	0x126
 1943 0823 D5070000 		.4byte	0x7d5
 1944 0827 09       		.uleb128 0x9
 1945 0828 04       		.byte	0x4
 1946 0829 2D080000 		.4byte	0x82d
 1947 082d 11       		.uleb128 0x11
 1948 082e 1B080000 		.4byte	0x81b
 1949 0832 09       		.uleb128 0x9
 1950 0833 04       		.byte	0x4
 1951 0834 6E060000 		.4byte	0x66e
 1952 0838 09       		.uleb128 0x9
 1953 0839 04       		.byte	0x4
 1954 083a 3E080000 		.4byte	0x83e
 1955 083e 11       		.uleb128 0x11
 1956 083f D5060000 		.4byte	0x6d5
 1957 0843 19       		.uleb128 0x19
 1958 0844 01       		.byte	0x1
 1959 0845 A1020000 		.4byte	.LASF133
 1960 0849 01       		.byte	0x1
 1961 084a 22       		.byte	0x22
 1962 084b 01       		.byte	0x1
 1963 084c 00000000 		.4byte	.LFB62
 1964 0850 F8000000 		.4byte	.LFE62
 1965 0854 00000000 		.4byte	.LLST0
 1966 0858 1A       		.uleb128 0x1a
 1967 0859 01       		.byte	0x1
 1968 085a 94040000 		.4byte	.LASF119
 1969 085e 01       		.byte	0x1
 1970 085f 37       		.byte	0x37
 1971 0860 01       		.byte	0x1
 1972 0861 00000000 		.4byte	.LFB63
 1973 0865 2E000000 		.4byte	.LFE63
 1974 0869 20000000 		.4byte	.LLST1
 1975 086d 8E080000 		.4byte	0x88e
 1976 0871 1B       		.uleb128 0x1b
 1977 0872 21040000 		.4byte	.LASF112
 1978 0876 01       		.byte	0x1
 1979 0877 37       		.byte	0x37
ARM GAS  C:\Users\z80\AppData\Local\Temp\cchWT0Ou.s 			page 36


 1980 0878 29000000 		.4byte	0x29
 1981 087c 02       		.byte	0x2
 1982 087d 91       		.byte	0x91
 1983 087e 7C       		.sleb128 -4
 1984 087f 1B       		.uleb128 0x1b
 1985 0880 AF010000 		.4byte	.LASF113
 1986 0884 01       		.byte	0x1
 1987 0885 37       		.byte	0x37
 1988 0886 29000000 		.4byte	0x29
 1989 088a 02       		.byte	0x2
 1990 088b 91       		.byte	0x91
 1991 088c 78       		.sleb128 -8
 1992 088d 00       		.byte	0x0
 1993 088e 1C       		.uleb128 0x1c
 1994 088f 01       		.byte	0x1
 1995 0890 F2000000 		.4byte	.LASF114
 1996 0894 01       		.byte	0x1
 1997 0895 3C       		.byte	0x3c
 1998 0896 01       		.byte	0x1
 1999 0897 29000000 		.4byte	0x29
 2000 089b 00000000 		.4byte	.LFB64
 2001 089f 8A000000 		.4byte	.LFE64
 2002 08a3 40000000 		.4byte	.LLST2
 2003 08a7 08090000 		.4byte	0x908
 2004 08ab 1B       		.uleb128 0x1b
 2005 08ac 21040000 		.4byte	.LASF112
 2006 08b0 01       		.byte	0x1
 2007 08b1 3C       		.byte	0x3c
 2008 08b2 29000000 		.4byte	0x29
 2009 08b6 02       		.byte	0x2
 2010 08b7 91       		.byte	0x91
 2011 08b8 6C       		.sleb128 -20
 2012 08b9 1B       		.uleb128 0x1b
 2013 08ba AF010000 		.4byte	.LASF113
 2014 08be 01       		.byte	0x1
 2015 08bf 3C       		.byte	0x3c
 2016 08c0 29000000 		.4byte	0x29
 2017 08c4 02       		.byte	0x2
 2018 08c5 91       		.byte	0x91
 2019 08c6 68       		.sleb128 -24
 2020 08c7 1D       		.uleb128 0x1d
 2021 08c8 72657300 		.ascii	"res\000"
 2022 08cc 01       		.byte	0x1
 2023 08cd 3E       		.byte	0x3e
 2024 08ce 29000000 		.4byte	0x29
 2025 08d2 02       		.byte	0x2
 2026 08d3 91       		.byte	0x91
 2027 08d4 74       		.sleb128 -12
 2028 08d5 1E       		.uleb128 0x1e
 2029 08d6 08000000 		.4byte	.LBB2
 2030 08da 10000000 		.4byte	.LBE2
 2031 08de F0080000 		.4byte	0x8f0
 2032 08e2 1D       		.uleb128 0x1d
 2033 08e3 746D7000 		.ascii	"tmp\000"
 2034 08e7 01       		.byte	0x1
 2035 08e8 3F       		.byte	0x3f
 2036 08e9 86000000 		.4byte	0x86
ARM GAS  C:\Users\z80\AppData\Local\Temp\cchWT0Ou.s 			page 37


 2037 08ed 01       		.byte	0x1
 2038 08ee 53       		.byte	0x53
 2039 08ef 00       		.byte	0x0
 2040 08f0 1F       		.uleb128 0x1f
 2041 08f1 7A000000 		.4byte	.LBB3
 2042 08f5 82000000 		.4byte	.LBE3
 2043 08f9 1D       		.uleb128 0x1d
 2044 08fa 746D7000 		.ascii	"tmp\000"
 2045 08fe 01       		.byte	0x1
 2046 08ff 49       		.byte	0x49
 2047 0900 86000000 		.4byte	0x86
 2048 0904 01       		.byte	0x1
 2049 0905 53       		.byte	0x53
 2050 0906 00       		.byte	0x0
 2051 0907 00       		.byte	0x0
 2052 0908 1C       		.uleb128 0x1c
 2053 0909 01       		.byte	0x1
 2054 090a AD000000 		.4byte	.LASF115
 2055 090e 01       		.byte	0x1
 2056 090f 4D       		.byte	0x4d
 2057 0910 01       		.byte	0x1
 2058 0911 29000000 		.4byte	0x29
 2059 0915 00000000 		.4byte	.LFB65
 2060 0919 30000000 		.4byte	.LFE65
 2061 091d 6C000000 		.4byte	.LLST3
 2062 0921 50090000 		.4byte	0x950
 2063 0925 1B       		.uleb128 0x1b
 2064 0926 10000000 		.4byte	.LASF116
 2065 092a 01       		.byte	0x1
 2066 092b 4D       		.byte	0x4d
 2067 092c 29000000 		.4byte	0x29
 2068 0930 02       		.byte	0x2
 2069 0931 91       		.byte	0x91
 2070 0932 6C       		.sleb128 -20
 2071 0933 1B       		.uleb128 0x1b
 2072 0934 2E020000 		.4byte	.LASF117
 2073 0938 01       		.byte	0x1
 2074 0939 4D       		.byte	0x4d
 2075 093a 29000000 		.4byte	0x29
 2076 093e 02       		.byte	0x2
 2077 093f 91       		.byte	0x91
 2078 0940 68       		.sleb128 -24
 2079 0941 1D       		.uleb128 0x1d
 2080 0942 72657300 		.ascii	"res\000"
 2081 0946 01       		.byte	0x1
 2082 0947 4F       		.byte	0x4f
 2083 0948 29000000 		.4byte	0x29
 2084 094c 02       		.byte	0x2
 2085 094d 91       		.byte	0x91
 2086 094e 74       		.sleb128 -12
 2087 094f 00       		.byte	0x0
 2088 0950 1C       		.uleb128 0x1c
 2089 0951 01       		.byte	0x1
 2090 0952 B5000000 		.4byte	.LASF118
 2091 0956 01       		.byte	0x1
 2092 0957 55       		.byte	0x55
 2093 0958 01       		.byte	0x1
ARM GAS  C:\Users\z80\AppData\Local\Temp\cchWT0Ou.s 			page 38


 2094 0959 29000000 		.4byte	0x29
 2095 095d 00000000 		.4byte	.LFB66
 2096 0961 30000000 		.4byte	.LFE66
 2097 0965 98000000 		.4byte	.LLST4
 2098 0969 98090000 		.4byte	0x998
 2099 096d 1B       		.uleb128 0x1b
 2100 096e 10000000 		.4byte	.LASF116
 2101 0972 01       		.byte	0x1
 2102 0973 55       		.byte	0x55
 2103 0974 29000000 		.4byte	0x29
 2104 0978 02       		.byte	0x2
 2105 0979 91       		.byte	0x91
 2106 097a 6C       		.sleb128 -20
 2107 097b 1B       		.uleb128 0x1b
 2108 097c 2E020000 		.4byte	.LASF117
 2109 0980 01       		.byte	0x1
 2110 0981 55       		.byte	0x55
 2111 0982 29000000 		.4byte	0x29
 2112 0986 02       		.byte	0x2
 2113 0987 91       		.byte	0x91
 2114 0988 68       		.sleb128 -24
 2115 0989 1D       		.uleb128 0x1d
 2116 098a 72657300 		.ascii	"res\000"
 2117 098e 01       		.byte	0x1
 2118 098f 57       		.byte	0x57
 2119 0990 29000000 		.4byte	0x29
 2120 0994 02       		.byte	0x2
 2121 0995 91       		.byte	0x91
 2122 0996 74       		.sleb128 -12
 2123 0997 00       		.byte	0x0
 2124 0998 1A       		.uleb128 0x1a
 2125 0999 01       		.byte	0x1
 2126 099a 61040000 		.4byte	.LASF120
 2127 099e 01       		.byte	0x1
 2128 099f 5D       		.byte	0x5d
 2129 09a0 01       		.byte	0x1
 2130 09a1 00000000 		.4byte	.LFB67
 2131 09a5 44020000 		.4byte	.LFE67
 2132 09a9 C4000000 		.4byte	.LLST5
 2133 09ad 500A0000 		.4byte	0xa50
 2134 09b1 1D       		.uleb128 0x1d
 2135 09b2 6900     		.ascii	"i\000"
 2136 09b4 01       		.byte	0x1
 2137 09b5 5F       		.byte	0x5f
 2138 09b6 29000000 		.4byte	0x29
 2139 09ba 02       		.byte	0x2
 2140 09bb 91       		.byte	0x91
 2141 09bc 74       		.sleb128 -12
 2142 09bd 1E       		.uleb128 0x1e
 2143 09be 04000000 		.4byte	.LBB4
 2144 09c2 0C000000 		.4byte	.LBE4
 2145 09c6 D8090000 		.4byte	0x9d8
 2146 09ca 1D       		.uleb128 0x1d
 2147 09cb 746D7000 		.ascii	"tmp\000"
 2148 09cf 01       		.byte	0x1
 2149 09d0 60       		.byte	0x60
 2150 09d1 86000000 		.4byte	0x86
ARM GAS  C:\Users\z80\AppData\Local\Temp\cchWT0Ou.s 			page 39


 2151 09d5 01       		.byte	0x1
 2152 09d6 53       		.byte	0x53
 2153 09d7 00       		.byte	0x0
 2154 09d8 1E       		.uleb128 0x1e
 2155 09d9 12000000 		.4byte	.LBB5
 2156 09dd 7C000000 		.4byte	.LBE5
 2157 09e1 020A0000 		.4byte	0xa02
 2158 09e5 1D       		.uleb128 0x1d
 2159 09e6 72657300 		.ascii	"res\000"
 2160 09ea 01       		.byte	0x1
 2161 09eb 64       		.byte	0x64
 2162 09ec D2000000 		.4byte	0xd2
 2163 09f0 02       		.byte	0x2
 2164 09f1 91       		.byte	0x91
 2165 09f2 70       		.sleb128 -16
 2166 09f3 1D       		.uleb128 0x1d
 2167 09f4 76616C00 		.ascii	"val\000"
 2168 09f8 01       		.byte	0x1
 2169 09f9 68       		.byte	0x68
 2170 09fa 29000000 		.4byte	0x29
 2171 09fe 02       		.byte	0x2
 2172 09ff 91       		.byte	0x91
 2173 0a00 6C       		.sleb128 -20
 2174 0a01 00       		.byte	0x0
 2175 0a02 1E       		.uleb128 0x1e
 2176 0a03 AE000000 		.4byte	.LBB6
 2177 0a07 B6000000 		.4byte	.LBE6
 2178 0a0b 1D0A0000 		.4byte	0xa1d
 2179 0a0f 1D       		.uleb128 0x1d
 2180 0a10 746D7000 		.ascii	"tmp\000"
 2181 0a14 01       		.byte	0x1
 2182 0a15 71       		.byte	0x71
 2183 0a16 86000000 		.4byte	0x86
 2184 0a1a 01       		.byte	0x1
 2185 0a1b 53       		.byte	0x53
 2186 0a1c 00       		.byte	0x0
 2187 0a1d 1E       		.uleb128 0x1e
 2188 0a1e E4010000 		.4byte	.LBB7
 2189 0a22 EC010000 		.4byte	.LBE7
 2190 0a26 380A0000 		.4byte	0xa38
 2191 0a2a 1D       		.uleb128 0x1d
 2192 0a2b 746D7000 		.ascii	"tmp\000"
 2193 0a2f 01       		.byte	0x1
 2194 0a30 8C       		.byte	0x8c
 2195 0a31 86000000 		.4byte	0x86
 2196 0a35 01       		.byte	0x1
 2197 0a36 53       		.byte	0x53
 2198 0a37 00       		.byte	0x0
 2199 0a38 1F       		.uleb128 0x1f
 2200 0a39 26020000 		.4byte	.LBB8
 2201 0a3d 2E020000 		.4byte	.LBE8
 2202 0a41 1D       		.uleb128 0x1d
 2203 0a42 746D7000 		.ascii	"tmp\000"
 2204 0a46 01       		.byte	0x1
 2205 0a47 8F       		.byte	0x8f
 2206 0a48 86000000 		.4byte	0x86
 2207 0a4c 01       		.byte	0x1
ARM GAS  C:\Users\z80\AppData\Local\Temp\cchWT0Ou.s 			page 40


 2208 0a4d 53       		.byte	0x53
 2209 0a4e 00       		.byte	0x0
 2210 0a4f 00       		.byte	0x0
 2211 0a50 20       		.uleb128 0x20
 2212 0a51 B5010000 		.4byte	.LASF134
 2213 0a55 01       		.byte	0x1
 2214 0a56 97       		.byte	0x97
 2215 0a57 01       		.byte	0x1
 2216 0a58 00000000 		.4byte	.LFB68
 2217 0a5c 2E000000 		.4byte	.LFE68
 2218 0a60 F0000000 		.4byte	.LLST6
 2219 0a64 A90A0000 		.4byte	0xaa9
 2220 0a68 1B       		.uleb128 0x1b
 2221 0a69 9C040000 		.4byte	.LASF121
 2222 0a6d 01       		.byte	0x1
 2223 0a6e 97       		.byte	0x97
 2224 0a6f CF070000 		.4byte	0x7cf
 2225 0a73 02       		.byte	0x2
 2226 0a74 91       		.byte	0x91
 2227 0a75 74       		.sleb128 -12
 2228 0a76 1E       		.uleb128 0x1e
 2229 0a77 06000000 		.4byte	.LBB9
 2230 0a7b 0E000000 		.4byte	.LBE9
 2231 0a7f 910A0000 		.4byte	0xa91
 2232 0a83 1D       		.uleb128 0x1d
 2233 0a84 746D7000 		.ascii	"tmp\000"
 2234 0a88 01       		.byte	0x1
 2235 0a89 9A       		.byte	0x9a
 2236 0a8a 86000000 		.4byte	0x86
 2237 0a8e 01       		.byte	0x1
 2238 0a8f 53       		.byte	0x53
 2239 0a90 00       		.byte	0x0
 2240 0a91 1F       		.uleb128 0x1f
 2241 0a92 22000000 		.4byte	.LBB10
 2242 0a96 2A000000 		.4byte	.LBE10
 2243 0a9a 1D       		.uleb128 0x1d
 2244 0a9b 746D7000 		.ascii	"tmp\000"
 2245 0a9f 01       		.byte	0x1
 2246 0aa0 9C       		.byte	0x9c
 2247 0aa1 86000000 		.4byte	0x86
 2248 0aa5 01       		.byte	0x1
 2249 0aa6 53       		.byte	0x53
 2250 0aa7 00       		.byte	0x0
 2251 0aa8 00       		.byte	0x0
 2252 0aa9 21       		.uleb128 0x21
 2253 0aaa A0000000 		.4byte	.LASF122
 2254 0aae 0F       		.byte	0xf
 2255 0aaf 9404     		.2byte	0x494
 2256 0ab1 82040000 		.4byte	0x482
 2257 0ab5 01       		.byte	0x1
 2258 0ab6 01       		.byte	0x1
 2259 0ab7 21       		.uleb128 0x21
 2260 0ab8 5E030000 		.4byte	.LASF123
 2261 0abc 0E       		.byte	0xe
 2262 0abd 6B01     		.2byte	0x16b
 2263 0abf 2E070000 		.4byte	0x72e
 2264 0ac3 01       		.byte	0x1
ARM GAS  C:\Users\z80\AppData\Local\Temp\cchWT0Ou.s 			page 41


 2265 0ac4 01       		.byte	0x1
 2266 0ac5 22       		.uleb128 0x22
 2267 0ac6 06000000 		.4byte	.LASF124
 2268 0aca 01       		.byte	0x1
 2269 0acb 07       		.byte	0x7
 2270 0acc 72040000 		.4byte	0x472
 2271 0ad0 01       		.byte	0x1
 2272 0ad1 01       		.byte	0x1
 2273 0ad2 23       		.uleb128 0x23
 2274 0ad3 49000000 		.4byte	0x49
 2275 0ad7 E20A0000 		.4byte	0xae2
 2276 0adb 24       		.uleb128 0x24
 2277 0adc 2C030000 		.4byte	0x32c
 2278 0ae0 17       		.byte	0x17
 2279 0ae1 00       		.byte	0x0
 2280 0ae2 22       		.uleb128 0x22
 2281 0ae3 D9030000 		.4byte	.LASF125
 2282 0ae7 01       		.byte	0x1
 2283 0ae8 08       		.byte	0x8
 2284 0ae9 D20A0000 		.4byte	0xad2
 2285 0aed 01       		.byte	0x1
 2286 0aee 01       		.byte	0x1
 2287 0aef 23       		.uleb128 0x23
 2288 0af0 49000000 		.4byte	0x49
 2289 0af4 FF0A0000 		.4byte	0xaff
 2290 0af8 24       		.uleb128 0x24
 2291 0af9 2C030000 		.4byte	0x32c
 2292 0afd 01       		.byte	0x1
 2293 0afe 00       		.byte	0x0
 2294 0aff 22       		.uleb128 0x22
 2295 0b00 D7040000 		.4byte	.LASF126
 2296 0b04 01       		.byte	0x1
 2297 0b05 0F       		.byte	0xf
 2298 0b06 EF0A0000 		.4byte	0xaef
 2299 0b0a 01       		.byte	0x1
 2300 0b0b 01       		.byte	0x1
 2301 0b0c 23       		.uleb128 0x23
 2302 0b0d 29000000 		.4byte	0x29
 2303 0b11 1C0B0000 		.4byte	0xb1c
 2304 0b15 24       		.uleb128 0x24
 2305 0b16 2C030000 		.4byte	0x32c
 2306 0b1a 03       		.byte	0x3
 2307 0b1b 00       		.byte	0x0
 2308 0b1c 22       		.uleb128 0x22
 2309 0b1d E8000000 		.4byte	.LASF127
 2310 0b21 01       		.byte	0x1
 2311 0b22 11       		.byte	0x11
 2312 0b23 0C0B0000 		.4byte	0xb0c
 2313 0b27 01       		.byte	0x1
 2314 0b28 01       		.byte	0x1
 2315 0b29 22       		.uleb128 0x22
 2316 0b2a F5040000 		.4byte	.LASF128
 2317 0b2e 01       		.byte	0x1
 2318 0b2f 12       		.byte	0x12
 2319 0b30 0C0B0000 		.4byte	0xb0c
 2320 0b34 01       		.byte	0x1
 2321 0b35 01       		.byte	0x1
ARM GAS  C:\Users\z80\AppData\Local\Temp\cchWT0Ou.s 			page 42


 2322 0b36 25       		.uleb128 0x25
 2323 0b37 25000000 		.4byte	.LASF129
 2324 0b3b 01       		.byte	0x1
 2325 0b3c 19       		.byte	0x19
 2326 0b3d 1B080000 		.4byte	0x81b
 2327 0b41 05       		.byte	0x5
 2328 0b42 03       		.byte	0x3
 2329 0b43 00000000 		.4byte	hs_spicfg
 2330 0b47 21       		.uleb128 0x21
 2331 0b48 A0000000 		.4byte	.LASF122
 2332 0b4c 0F       		.byte	0xf
 2333 0b4d 9404     		.2byte	0x494
 2334 0b4f 82040000 		.4byte	0x482
 2335 0b53 01       		.byte	0x1
 2336 0b54 01       		.byte	0x1
 2337 0b55 21       		.uleb128 0x21
 2338 0b56 5E030000 		.4byte	.LASF123
 2339 0b5a 0E       		.byte	0xe
 2340 0b5b 6B01     		.2byte	0x16b
 2341 0b5d 2E070000 		.4byte	0x72e
 2342 0b61 01       		.byte	0x1
 2343 0b62 01       		.byte	0x1
 2344 0b63 26       		.uleb128 0x26
 2345 0b64 06000000 		.4byte	.LASF124
 2346 0b68 01       		.byte	0x1
 2347 0b69 07       		.byte	0x7
 2348 0b6a 72040000 		.4byte	0x472
 2349 0b6e 01       		.byte	0x1
 2350 0b6f 05       		.byte	0x5
 2351 0b70 03       		.byte	0x3
 2352 0b71 00000000 		.4byte	dac_queue
 2353 0b75 26       		.uleb128 0x26
 2354 0b76 D9030000 		.4byte	.LASF125
 2355 0b7a 01       		.byte	0x1
 2356 0b7b 08       		.byte	0x8
 2357 0b7c D20A0000 		.4byte	0xad2
 2358 0b80 01       		.byte	0x1
 2359 0b81 05       		.byte	0x5
 2360 0b82 03       		.byte	0x3
 2361 0b83 00000000 		.4byte	dac_queue_buffer
 2362 0b87 26       		.uleb128 0x26
 2363 0b88 D7040000 		.4byte	.LASF126
 2364 0b8c 01       		.byte	0x1
 2365 0b8d 0F       		.byte	0xf
 2366 0b8e EF0A0000 		.4byte	0xaef
 2367 0b92 01       		.byte	0x1
 2368 0b93 05       		.byte	0x5
 2369 0b94 03       		.byte	0x3
 2370 0b95 00000000 		.4byte	dac_tx_buffer
 2371 0b99 26       		.uleb128 0x26
 2372 0b9a E8000000 		.4byte	.LASF127
 2373 0b9e 01       		.byte	0x1
 2374 0b9f 11       		.byte	0x11
 2375 0ba0 0C0B0000 		.4byte	0xb0c
 2376 0ba4 01       		.byte	0x1
 2377 0ba5 05       		.byte	0x5
 2378 0ba6 03       		.byte	0x3
ARM GAS  C:\Users\z80\AppData\Local\Temp\cchWT0Ou.s 			page 43


 2379 0ba7 00000000 		.4byte	newValues
 2380 0bab 26       		.uleb128 0x26
 2381 0bac F5040000 		.4byte	.LASF128
 2382 0bb0 01       		.byte	0x1
 2383 0bb1 12       		.byte	0x12
 2384 0bb2 0C0B0000 		.4byte	0xb0c
 2385 0bb6 01       		.byte	0x1
 2386 0bb7 05       		.byte	0x5
 2387 0bb8 03       		.byte	0x3
 2388 0bb9 00000000 		.4byte	dacValues
 2389 0bbd 00       		.byte	0x0
 2390              		.section	.debug_abbrev
 2391 0000 01       		.uleb128 0x1
 2392 0001 11       		.uleb128 0x11
 2393 0002 01       		.byte	0x1
 2394 0003 25       		.uleb128 0x25
 2395 0004 0E       		.uleb128 0xe
 2396 0005 13       		.uleb128 0x13
 2397 0006 0B       		.uleb128 0xb
 2398 0007 03       		.uleb128 0x3
 2399 0008 0E       		.uleb128 0xe
 2400 0009 1B       		.uleb128 0x1b
 2401 000a 0E       		.uleb128 0xe
 2402 000b 11       		.uleb128 0x11
 2403 000c 01       		.uleb128 0x1
 2404 000d 52       		.uleb128 0x52
 2405 000e 01       		.uleb128 0x1
 2406 000f 55       		.uleb128 0x55
 2407 0010 06       		.uleb128 0x6
 2408 0011 10       		.uleb128 0x10
 2409 0012 06       		.uleb128 0x6
 2410 0013 00       		.byte	0x0
 2411 0014 00       		.byte	0x0
 2412 0015 02       		.uleb128 0x2
 2413 0016 24       		.uleb128 0x24
 2414 0017 00       		.byte	0x0
 2415 0018 0B       		.uleb128 0xb
 2416 0019 0B       		.uleb128 0xb
 2417 001a 3E       		.uleb128 0x3e
 2418 001b 0B       		.uleb128 0xb
 2419 001c 03       		.uleb128 0x3
 2420 001d 08       		.uleb128 0x8
 2421 001e 00       		.byte	0x0
 2422 001f 00       		.byte	0x0
 2423 0020 03       		.uleb128 0x3
 2424 0021 16       		.uleb128 0x16
 2425 0022 00       		.byte	0x0
 2426 0023 03       		.uleb128 0x3
 2427 0024 0E       		.uleb128 0xe
 2428 0025 3A       		.uleb128 0x3a
 2429 0026 0B       		.uleb128 0xb
 2430 0027 3B       		.uleb128 0x3b
 2431 0028 0B       		.uleb128 0xb
 2432 0029 49       		.uleb128 0x49
 2433 002a 13       		.uleb128 0x13
 2434 002b 00       		.byte	0x0
 2435 002c 00       		.byte	0x0
ARM GAS  C:\Users\z80\AppData\Local\Temp\cchWT0Ou.s 			page 44


 2436 002d 04       		.uleb128 0x4
 2437 002e 24       		.uleb128 0x24
 2438 002f 00       		.byte	0x0
 2439 0030 0B       		.uleb128 0xb
 2440 0031 0B       		.uleb128 0xb
 2441 0032 3E       		.uleb128 0x3e
 2442 0033 0B       		.uleb128 0xb
 2443 0034 03       		.uleb128 0x3
 2444 0035 0E       		.uleb128 0xe
 2445 0036 00       		.byte	0x0
 2446 0037 00       		.byte	0x0
 2447 0038 05       		.uleb128 0x5
 2448 0039 13       		.uleb128 0x13
 2449 003a 01       		.byte	0x1
 2450 003b 03       		.uleb128 0x3
 2451 003c 0E       		.uleb128 0xe
 2452 003d 0B       		.uleb128 0xb
 2453 003e 0B       		.uleb128 0xb
 2454 003f 3A       		.uleb128 0x3a
 2455 0040 0B       		.uleb128 0xb
 2456 0041 3B       		.uleb128 0x3b
 2457 0042 0B       		.uleb128 0xb
 2458 0043 01       		.uleb128 0x1
 2459 0044 13       		.uleb128 0x13
 2460 0045 00       		.byte	0x0
 2461 0046 00       		.byte	0x0
 2462 0047 06       		.uleb128 0x6
 2463 0048 0D       		.uleb128 0xd
 2464 0049 00       		.byte	0x0
 2465 004a 03       		.uleb128 0x3
 2466 004b 0E       		.uleb128 0xe
 2467 004c 3A       		.uleb128 0x3a
 2468 004d 0B       		.uleb128 0xb
 2469 004e 3B       		.uleb128 0x3b
 2470 004f 0B       		.uleb128 0xb
 2471 0050 49       		.uleb128 0x49
 2472 0051 13       		.uleb128 0x13
 2473 0052 38       		.uleb128 0x38
 2474 0053 0A       		.uleb128 0xa
 2475 0054 00       		.byte	0x0
 2476 0055 00       		.byte	0x0
 2477 0056 07       		.uleb128 0x7
 2478 0057 0D       		.uleb128 0xd
 2479 0058 00       		.byte	0x0
 2480 0059 03       		.uleb128 0x3
 2481 005a 08       		.uleb128 0x8
 2482 005b 3A       		.uleb128 0x3a
 2483 005c 0B       		.uleb128 0xb
 2484 005d 3B       		.uleb128 0x3b
 2485 005e 0B       		.uleb128 0xb
 2486 005f 49       		.uleb128 0x49
 2487 0060 13       		.uleb128 0x13
 2488 0061 38       		.uleb128 0x38
 2489 0062 0A       		.uleb128 0xa
 2490 0063 00       		.byte	0x0
 2491 0064 00       		.byte	0x0
 2492 0065 08       		.uleb128 0x8
ARM GAS  C:\Users\z80\AppData\Local\Temp\cchWT0Ou.s 			page 45


 2493 0066 13       		.uleb128 0x13
 2494 0067 01       		.byte	0x1
 2495 0068 0B       		.uleb128 0xb
 2496 0069 0B       		.uleb128 0xb
 2497 006a 3A       		.uleb128 0x3a
 2498 006b 0B       		.uleb128 0xb
 2499 006c 3B       		.uleb128 0x3b
 2500 006d 0B       		.uleb128 0xb
 2501 006e 01       		.uleb128 0x1
 2502 006f 13       		.uleb128 0x13
 2503 0070 00       		.byte	0x0
 2504 0071 00       		.byte	0x0
 2505 0072 09       		.uleb128 0x9
 2506 0073 0F       		.uleb128 0xf
 2507 0074 00       		.byte	0x0
 2508 0075 0B       		.uleb128 0xb
 2509 0076 0B       		.uleb128 0xb
 2510 0077 49       		.uleb128 0x49
 2511 0078 13       		.uleb128 0x13
 2512 0079 00       		.byte	0x0
 2513 007a 00       		.byte	0x0
 2514 007b 0A       		.uleb128 0xa
 2515 007c 0F       		.uleb128 0xf
 2516 007d 00       		.byte	0x0
 2517 007e 0B       		.uleb128 0xb
 2518 007f 0B       		.uleb128 0xb
 2519 0080 00       		.byte	0x0
 2520 0081 00       		.byte	0x0
 2521 0082 0B       		.uleb128 0xb
 2522 0083 0D       		.uleb128 0xd
 2523 0084 00       		.byte	0x0
 2524 0085 03       		.uleb128 0x3
 2525 0086 08       		.uleb128 0x8
 2526 0087 3A       		.uleb128 0x3a
 2527 0088 0B       		.uleb128 0xb
 2528 0089 3B       		.uleb128 0x3b
 2529 008a 05       		.uleb128 0x5
 2530 008b 49       		.uleb128 0x49
 2531 008c 13       		.uleb128 0x13
 2532 008d 38       		.uleb128 0x38
 2533 008e 0A       		.uleb128 0xa
 2534 008f 00       		.byte	0x0
 2535 0090 00       		.byte	0x0
 2536 0091 0C       		.uleb128 0xc
 2537 0092 13       		.uleb128 0x13
 2538 0093 01       		.byte	0x1
 2539 0094 03       		.uleb128 0x3
 2540 0095 0E       		.uleb128 0xe
 2541 0096 0B       		.uleb128 0xb
 2542 0097 0B       		.uleb128 0xb
 2543 0098 3A       		.uleb128 0x3a
 2544 0099 0B       		.uleb128 0xb
 2545 009a 3B       		.uleb128 0x3b
 2546 009b 05       		.uleb128 0x5
 2547 009c 01       		.uleb128 0x1
 2548 009d 13       		.uleb128 0x13
 2549 009e 00       		.byte	0x0
ARM GAS  C:\Users\z80\AppData\Local\Temp\cchWT0Ou.s 			page 46


 2550 009f 00       		.byte	0x0
 2551 00a0 0D       		.uleb128 0xd
 2552 00a1 35       		.uleb128 0x35
 2553 00a2 00       		.byte	0x0
 2554 00a3 49       		.uleb128 0x49
 2555 00a4 13       		.uleb128 0x13
 2556 00a5 00       		.byte	0x0
 2557 00a6 00       		.byte	0x0
 2558 00a7 0E       		.uleb128 0xe
 2559 00a8 24       		.uleb128 0x24
 2560 00a9 00       		.byte	0x0
 2561 00aa 0B       		.uleb128 0xb
 2562 00ab 0B       		.uleb128 0xb
 2563 00ac 3E       		.uleb128 0x3e
 2564 00ad 0B       		.uleb128 0xb
 2565 00ae 00       		.byte	0x0
 2566 00af 00       		.byte	0x0
 2567 00b0 0F       		.uleb128 0xf
 2568 00b1 17       		.uleb128 0x17
 2569 00b2 01       		.byte	0x1
 2570 00b3 0B       		.uleb128 0xb
 2571 00b4 0B       		.uleb128 0xb
 2572 00b5 3A       		.uleb128 0x3a
 2573 00b6 0B       		.uleb128 0xb
 2574 00b7 3B       		.uleb128 0x3b
 2575 00b8 0B       		.uleb128 0xb
 2576 00b9 01       		.uleb128 0x1
 2577 00ba 13       		.uleb128 0x13
 2578 00bb 00       		.byte	0x0
 2579 00bc 00       		.byte	0x0
 2580 00bd 10       		.uleb128 0x10
 2581 00be 0D       		.uleb128 0xd
 2582 00bf 00       		.byte	0x0
 2583 00c0 03       		.uleb128 0x3
 2584 00c1 0E       		.uleb128 0xe
 2585 00c2 3A       		.uleb128 0x3a
 2586 00c3 0B       		.uleb128 0xb
 2587 00c4 3B       		.uleb128 0x3b
 2588 00c5 0B       		.uleb128 0xb
 2589 00c6 49       		.uleb128 0x49
 2590 00c7 13       		.uleb128 0x13
 2591 00c8 00       		.byte	0x0
 2592 00c9 00       		.byte	0x0
 2593 00ca 11       		.uleb128 0x11
 2594 00cb 26       		.uleb128 0x26
 2595 00cc 00       		.byte	0x0
 2596 00cd 49       		.uleb128 0x49
 2597 00ce 13       		.uleb128 0x13
 2598 00cf 00       		.byte	0x0
 2599 00d0 00       		.byte	0x0
 2600 00d1 12       		.uleb128 0x12
 2601 00d2 15       		.uleb128 0x15
 2602 00d3 01       		.byte	0x1
 2603 00d4 27       		.uleb128 0x27
 2604 00d5 0C       		.uleb128 0xc
 2605 00d6 01       		.uleb128 0x1
 2606 00d7 13       		.uleb128 0x13
ARM GAS  C:\Users\z80\AppData\Local\Temp\cchWT0Ou.s 			page 47


 2607 00d8 00       		.byte	0x0
 2608 00d9 00       		.byte	0x0
 2609 00da 13       		.uleb128 0x13
 2610 00db 05       		.uleb128 0x5
 2611 00dc 00       		.byte	0x0
 2612 00dd 49       		.uleb128 0x49
 2613 00de 13       		.uleb128 0x13
 2614 00df 00       		.byte	0x0
 2615 00e0 00       		.byte	0x0
 2616 00e1 14       		.uleb128 0x14
 2617 00e2 13       		.uleb128 0x13
 2618 00e3 01       		.byte	0x1
 2619 00e4 0B       		.uleb128 0xb
 2620 00e5 0B       		.uleb128 0xb
 2621 00e6 3A       		.uleb128 0x3a
 2622 00e7 0B       		.uleb128 0xb
 2623 00e8 3B       		.uleb128 0x3b
 2624 00e9 05       		.uleb128 0x5
 2625 00ea 01       		.uleb128 0x1
 2626 00eb 13       		.uleb128 0x13
 2627 00ec 00       		.byte	0x0
 2628 00ed 00       		.byte	0x0
 2629 00ee 15       		.uleb128 0x15
 2630 00ef 0D       		.uleb128 0xd
 2631 00f0 00       		.byte	0x0
 2632 00f1 03       		.uleb128 0x3
 2633 00f2 0E       		.uleb128 0xe
 2634 00f3 3A       		.uleb128 0x3a
 2635 00f4 0B       		.uleb128 0xb
 2636 00f5 3B       		.uleb128 0x3b
 2637 00f6 05       		.uleb128 0x5
 2638 00f7 49       		.uleb128 0x49
 2639 00f8 13       		.uleb128 0x13
 2640 00f9 38       		.uleb128 0x38
 2641 00fa 0A       		.uleb128 0xa
 2642 00fb 00       		.byte	0x0
 2643 00fc 00       		.byte	0x0
 2644 00fd 16       		.uleb128 0x16
 2645 00fe 16       		.uleb128 0x16
 2646 00ff 00       		.byte	0x0
 2647 0100 03       		.uleb128 0x3
 2648 0101 0E       		.uleb128 0xe
 2649 0102 3A       		.uleb128 0x3a
 2650 0103 0B       		.uleb128 0xb
 2651 0104 3B       		.uleb128 0x3b
 2652 0105 05       		.uleb128 0x5
 2653 0106 49       		.uleb128 0x49
 2654 0107 13       		.uleb128 0x13
 2655 0108 00       		.byte	0x0
 2656 0109 00       		.byte	0x0
 2657 010a 17       		.uleb128 0x17
 2658 010b 04       		.uleb128 0x4
 2659 010c 01       		.byte	0x1
 2660 010d 0B       		.uleb128 0xb
 2661 010e 0B       		.uleb128 0xb
 2662 010f 3A       		.uleb128 0x3a
 2663 0110 0B       		.uleb128 0xb
ARM GAS  C:\Users\z80\AppData\Local\Temp\cchWT0Ou.s 			page 48


 2664 0111 3B       		.uleb128 0x3b
 2665 0112 0B       		.uleb128 0xb
 2666 0113 01       		.uleb128 0x1
 2667 0114 13       		.uleb128 0x13
 2668 0115 00       		.byte	0x0
 2669 0116 00       		.byte	0x0
 2670 0117 18       		.uleb128 0x18
 2671 0118 28       		.uleb128 0x28
 2672 0119 00       		.byte	0x0
 2673 011a 03       		.uleb128 0x3
 2674 011b 0E       		.uleb128 0xe
 2675 011c 1C       		.uleb128 0x1c
 2676 011d 0D       		.uleb128 0xd
 2677 011e 00       		.byte	0x0
 2678 011f 00       		.byte	0x0
 2679 0120 19       		.uleb128 0x19
 2680 0121 2E       		.uleb128 0x2e
 2681 0122 00       		.byte	0x0
 2682 0123 3F       		.uleb128 0x3f
 2683 0124 0C       		.uleb128 0xc
 2684 0125 03       		.uleb128 0x3
 2685 0126 0E       		.uleb128 0xe
 2686 0127 3A       		.uleb128 0x3a
 2687 0128 0B       		.uleb128 0xb
 2688 0129 3B       		.uleb128 0x3b
 2689 012a 0B       		.uleb128 0xb
 2690 012b 27       		.uleb128 0x27
 2691 012c 0C       		.uleb128 0xc
 2692 012d 11       		.uleb128 0x11
 2693 012e 01       		.uleb128 0x1
 2694 012f 12       		.uleb128 0x12
 2695 0130 01       		.uleb128 0x1
 2696 0131 40       		.uleb128 0x40
 2697 0132 06       		.uleb128 0x6
 2698 0133 00       		.byte	0x0
 2699 0134 00       		.byte	0x0
 2700 0135 1A       		.uleb128 0x1a
 2701 0136 2E       		.uleb128 0x2e
 2702 0137 01       		.byte	0x1
 2703 0138 3F       		.uleb128 0x3f
 2704 0139 0C       		.uleb128 0xc
 2705 013a 03       		.uleb128 0x3
 2706 013b 0E       		.uleb128 0xe
 2707 013c 3A       		.uleb128 0x3a
 2708 013d 0B       		.uleb128 0xb
 2709 013e 3B       		.uleb128 0x3b
 2710 013f 0B       		.uleb128 0xb
 2711 0140 27       		.uleb128 0x27
 2712 0141 0C       		.uleb128 0xc
 2713 0142 11       		.uleb128 0x11
 2714 0143 01       		.uleb128 0x1
 2715 0144 12       		.uleb128 0x12
 2716 0145 01       		.uleb128 0x1
 2717 0146 40       		.uleb128 0x40
 2718 0147 06       		.uleb128 0x6
 2719 0148 01       		.uleb128 0x1
 2720 0149 13       		.uleb128 0x13
ARM GAS  C:\Users\z80\AppData\Local\Temp\cchWT0Ou.s 			page 49


 2721 014a 00       		.byte	0x0
 2722 014b 00       		.byte	0x0
 2723 014c 1B       		.uleb128 0x1b
 2724 014d 05       		.uleb128 0x5
 2725 014e 00       		.byte	0x0
 2726 014f 03       		.uleb128 0x3
 2727 0150 0E       		.uleb128 0xe
 2728 0151 3A       		.uleb128 0x3a
 2729 0152 0B       		.uleb128 0xb
 2730 0153 3B       		.uleb128 0x3b
 2731 0154 0B       		.uleb128 0xb
 2732 0155 49       		.uleb128 0x49
 2733 0156 13       		.uleb128 0x13
 2734 0157 02       		.uleb128 0x2
 2735 0158 0A       		.uleb128 0xa
 2736 0159 00       		.byte	0x0
 2737 015a 00       		.byte	0x0
 2738 015b 1C       		.uleb128 0x1c
 2739 015c 2E       		.uleb128 0x2e
 2740 015d 01       		.byte	0x1
 2741 015e 3F       		.uleb128 0x3f
 2742 015f 0C       		.uleb128 0xc
 2743 0160 03       		.uleb128 0x3
 2744 0161 0E       		.uleb128 0xe
 2745 0162 3A       		.uleb128 0x3a
 2746 0163 0B       		.uleb128 0xb
 2747 0164 3B       		.uleb128 0x3b
 2748 0165 0B       		.uleb128 0xb
 2749 0166 27       		.uleb128 0x27
 2750 0167 0C       		.uleb128 0xc
 2751 0168 49       		.uleb128 0x49
 2752 0169 13       		.uleb128 0x13
 2753 016a 11       		.uleb128 0x11
 2754 016b 01       		.uleb128 0x1
 2755 016c 12       		.uleb128 0x12
 2756 016d 01       		.uleb128 0x1
 2757 016e 40       		.uleb128 0x40
 2758 016f 06       		.uleb128 0x6
 2759 0170 01       		.uleb128 0x1
 2760 0171 13       		.uleb128 0x13
 2761 0172 00       		.byte	0x0
 2762 0173 00       		.byte	0x0
 2763 0174 1D       		.uleb128 0x1d
 2764 0175 34       		.uleb128 0x34
 2765 0176 00       		.byte	0x0
 2766 0177 03       		.uleb128 0x3
 2767 0178 08       		.uleb128 0x8
 2768 0179 3A       		.uleb128 0x3a
 2769 017a 0B       		.uleb128 0xb
 2770 017b 3B       		.uleb128 0x3b
 2771 017c 0B       		.uleb128 0xb
 2772 017d 49       		.uleb128 0x49
 2773 017e 13       		.uleb128 0x13
 2774 017f 02       		.uleb128 0x2
 2775 0180 0A       		.uleb128 0xa
 2776 0181 00       		.byte	0x0
 2777 0182 00       		.byte	0x0
ARM GAS  C:\Users\z80\AppData\Local\Temp\cchWT0Ou.s 			page 50


 2778 0183 1E       		.uleb128 0x1e
 2779 0184 0B       		.uleb128 0xb
 2780 0185 01       		.byte	0x1
 2781 0186 11       		.uleb128 0x11
 2782 0187 01       		.uleb128 0x1
 2783 0188 12       		.uleb128 0x12
 2784 0189 01       		.uleb128 0x1
 2785 018a 01       		.uleb128 0x1
 2786 018b 13       		.uleb128 0x13
 2787 018c 00       		.byte	0x0
 2788 018d 00       		.byte	0x0
 2789 018e 1F       		.uleb128 0x1f
 2790 018f 0B       		.uleb128 0xb
 2791 0190 01       		.byte	0x1
 2792 0191 11       		.uleb128 0x11
 2793 0192 01       		.uleb128 0x1
 2794 0193 12       		.uleb128 0x12
 2795 0194 01       		.uleb128 0x1
 2796 0195 00       		.byte	0x0
 2797 0196 00       		.byte	0x0
 2798 0197 20       		.uleb128 0x20
 2799 0198 2E       		.uleb128 0x2e
 2800 0199 01       		.byte	0x1
 2801 019a 03       		.uleb128 0x3
 2802 019b 0E       		.uleb128 0xe
 2803 019c 3A       		.uleb128 0x3a
 2804 019d 0B       		.uleb128 0xb
 2805 019e 3B       		.uleb128 0x3b
 2806 019f 0B       		.uleb128 0xb
 2807 01a0 27       		.uleb128 0x27
 2808 01a1 0C       		.uleb128 0xc
 2809 01a2 11       		.uleb128 0x11
 2810 01a3 01       		.uleb128 0x1
 2811 01a4 12       		.uleb128 0x12
 2812 01a5 01       		.uleb128 0x1
 2813 01a6 40       		.uleb128 0x40
 2814 01a7 06       		.uleb128 0x6
 2815 01a8 01       		.uleb128 0x1
 2816 01a9 13       		.uleb128 0x13
 2817 01aa 00       		.byte	0x0
 2818 01ab 00       		.byte	0x0
 2819 01ac 21       		.uleb128 0x21
 2820 01ad 34       		.uleb128 0x34
 2821 01ae 00       		.byte	0x0
 2822 01af 03       		.uleb128 0x3
 2823 01b0 0E       		.uleb128 0xe
 2824 01b1 3A       		.uleb128 0x3a
 2825 01b2 0B       		.uleb128 0xb
 2826 01b3 3B       		.uleb128 0x3b
 2827 01b4 05       		.uleb128 0x5
 2828 01b5 49       		.uleb128 0x49
 2829 01b6 13       		.uleb128 0x13
 2830 01b7 3F       		.uleb128 0x3f
 2831 01b8 0C       		.uleb128 0xc
 2832 01b9 3C       		.uleb128 0x3c
 2833 01ba 0C       		.uleb128 0xc
 2834 01bb 00       		.byte	0x0
ARM GAS  C:\Users\z80\AppData\Local\Temp\cchWT0Ou.s 			page 51


 2835 01bc 00       		.byte	0x0
 2836 01bd 22       		.uleb128 0x22
 2837 01be 34       		.uleb128 0x34
 2838 01bf 00       		.byte	0x0
 2839 01c0 03       		.uleb128 0x3
 2840 01c1 0E       		.uleb128 0xe
 2841 01c2 3A       		.uleb128 0x3a
 2842 01c3 0B       		.uleb128 0xb
 2843 01c4 3B       		.uleb128 0x3b
 2844 01c5 0B       		.uleb128 0xb
 2845 01c6 49       		.uleb128 0x49
 2846 01c7 13       		.uleb128 0x13
 2847 01c8 3F       		.uleb128 0x3f
 2848 01c9 0C       		.uleb128 0xc
 2849 01ca 3C       		.uleb128 0x3c
 2850 01cb 0C       		.uleb128 0xc
 2851 01cc 00       		.byte	0x0
 2852 01cd 00       		.byte	0x0
 2853 01ce 23       		.uleb128 0x23
 2854 01cf 01       		.uleb128 0x1
 2855 01d0 01       		.byte	0x1
 2856 01d1 49       		.uleb128 0x49
 2857 01d2 13       		.uleb128 0x13
 2858 01d3 01       		.uleb128 0x1
 2859 01d4 13       		.uleb128 0x13
 2860 01d5 00       		.byte	0x0
 2861 01d6 00       		.byte	0x0
 2862 01d7 24       		.uleb128 0x24
 2863 01d8 21       		.uleb128 0x21
 2864 01d9 00       		.byte	0x0
 2865 01da 49       		.uleb128 0x49
 2866 01db 13       		.uleb128 0x13
 2867 01dc 2F       		.uleb128 0x2f
 2868 01dd 0B       		.uleb128 0xb
 2869 01de 00       		.byte	0x0
 2870 01df 00       		.byte	0x0
 2871 01e0 25       		.uleb128 0x25
 2872 01e1 34       		.uleb128 0x34
 2873 01e2 00       		.byte	0x0
 2874 01e3 03       		.uleb128 0x3
 2875 01e4 0E       		.uleb128 0xe
 2876 01e5 3A       		.uleb128 0x3a
 2877 01e6 0B       		.uleb128 0xb
 2878 01e7 3B       		.uleb128 0x3b
 2879 01e8 0B       		.uleb128 0xb
 2880 01e9 49       		.uleb128 0x49
 2881 01ea 13       		.uleb128 0x13
 2882 01eb 02       		.uleb128 0x2
 2883 01ec 0A       		.uleb128 0xa
 2884 01ed 00       		.byte	0x0
 2885 01ee 00       		.byte	0x0
 2886 01ef 26       		.uleb128 0x26
 2887 01f0 34       		.uleb128 0x34
 2888 01f1 00       		.byte	0x0
 2889 01f2 03       		.uleb128 0x3
 2890 01f3 0E       		.uleb128 0xe
 2891 01f4 3A       		.uleb128 0x3a
ARM GAS  C:\Users\z80\AppData\Local\Temp\cchWT0Ou.s 			page 52


 2892 01f5 0B       		.uleb128 0xb
 2893 01f6 3B       		.uleb128 0x3b
 2894 01f7 0B       		.uleb128 0xb
 2895 01f8 49       		.uleb128 0x49
 2896 01f9 13       		.uleb128 0x13
 2897 01fa 3F       		.uleb128 0x3f
 2898 01fb 0C       		.uleb128 0xc
 2899 01fc 02       		.uleb128 0x2
 2900 01fd 0A       		.uleb128 0xa
 2901 01fe 00       		.byte	0x0
 2902 01ff 00       		.byte	0x0
 2903 0200 00       		.byte	0x0
 2904              		.section	.debug_pubnames,"",%progbits
 2905 0000 AA000000 		.4byte	0xaa
 2906 0004 0200     		.2byte	0x2
 2907 0006 00000000 		.4byte	.Ldebug_info0
 2908 000a BE0B0000 		.4byte	0xbbe
 2909 000e 43080000 		.4byte	0x843
 2910 0012 696E6974 		.ascii	"initDac\000"
 2910      44616300 
 2911 001a 58080000 		.4byte	0x858
 2912 001e 73657444 		.ascii	"setDacI\000"
 2912      61634900 
 2913 0026 8E080000 		.4byte	0x88e
 2914 002a 73657444 		.ascii	"setDac\000"
 2914      616300
 2915 0031 08090000 		.4byte	0x908
 2916 0035 73657444 		.ascii	"setDac1\000"
 2916      61633100 
 2917 003d 50090000 		.4byte	0x950
 2918 0041 73657444 		.ascii	"setDac2\000"
 2918      61633200 
 2919 0049 98090000 		.4byte	0x998
 2920 004d 70726F63 		.ascii	"processDacI\000"
 2920      65737344 
 2920      61634900 
 2921 0059 630B0000 		.4byte	0xb63
 2922 005d 6461635F 		.ascii	"dac_queue\000"
 2922      71756575 
 2922      6500
 2923 0067 750B0000 		.4byte	0xb75
 2924 006b 6461635F 		.ascii	"dac_queue_buffer\000"
 2924      71756575 
 2924      655F6275 
 2924      66666572 
 2924      00
 2925 007c 870B0000 		.4byte	0xb87
 2926 0080 6461635F 		.ascii	"dac_tx_buffer\000"
 2926      74785F62 
 2926      75666665 
 2926      7200
 2927 008e 990B0000 		.4byte	0xb99
 2928 0092 6E657756 		.ascii	"newValues\000"
 2928      616C7565 
 2928      7300
 2929 009c AB0B0000 		.4byte	0xbab
 2930 00a0 64616356 		.ascii	"dacValues\000"
ARM GAS  C:\Users\z80\AppData\Local\Temp\cchWT0Ou.s 			page 53


 2930      616C7565 
 2930      7300
 2931 00aa 00000000 		.4byte	0x0
 2932              		.section	.debug_pubtypes,"",%progbits
 2933 0000 1E020000 		.4byte	0x21e
 2934 0004 0200     		.2byte	0x2
 2935 0006 00000000 		.4byte	.Ldebug_info0
 2936 000a BE0B0000 		.4byte	0xbbe
 2937 000e 30000000 		.4byte	0x30
 2938 0012 73697A65 		.ascii	"size_t\000"
 2938      5F7400
 2939 0019 49000000 		.4byte	0x49
 2940 001d 75696E74 		.ascii	"uint8_t\000"
 2940      385F7400 
 2941 0025 62000000 		.4byte	0x62
 2942 0029 75696E74 		.ascii	"uint16_t\000"
 2942      31365F74 
 2942      00
 2943 0032 74000000 		.4byte	0x74
 2944 0036 696E7433 		.ascii	"int32_t\000"
 2944      325F7400 
 2945 003e 86000000 		.4byte	0x86
 2946 0042 75696E74 		.ascii	"uint32_t\000"
 2946      33325F74 
 2946      00
 2947 004b 9F000000 		.4byte	0x9f
 2948 004f 75696E74 		.ascii	"uint64_t\000"
 2948      36345F74 
 2948      00
 2949 0058 B1000000 		.4byte	0xb1
 2950 005c 746D6F64 		.ascii	"tmode_t\000"
 2950      655F7400 
 2951 0064 BC000000 		.4byte	0xbc
 2952 0068 74737461 		.ascii	"tstate_t\000"
 2952      74655F74 
 2952      00
 2953 0071 C7000000 		.4byte	0xc7
 2954 0075 74707269 		.ascii	"tprio_t\000"
 2954      6F5F7400 
 2955 007d D2000000 		.4byte	0xd2
 2956 0081 6D73675F 		.ascii	"msg_t\000"
 2956      7400
 2957 0087 DD000000 		.4byte	0xdd
 2958 008b 6576656E 		.ascii	"eventmask_t\000"
 2958      746D6173 
 2958      6B5F7400 
 2959 0097 E8000000 		.4byte	0xe8
 2960 009b 73797374 		.ascii	"systime_t\000"
 2960      696D655F 
 2960      7400
 2961 00a5 F3000000 		.4byte	0xf3
 2962 00a9 54687265 		.ascii	"Thread\000"
 2962      616400
 2963 00b0 32020000 		.4byte	0x232
 2964 00b4 54687265 		.ascii	"ThreadsQueue\000"
 2964      61647351 
 2964      75657565 
ARM GAS  C:\Users\z80\AppData\Local\Temp\cchWT0Ou.s 			page 54


 2964      00
 2965 00c1 54020000 		.4byte	0x254
 2966 00c5 54687265 		.ascii	"ThreadsList\000"
 2966      6164734C 
 2966      69737400 
 2967 00d1 5F020000 		.4byte	0x25f
 2968 00d5 72656761 		.ascii	"regarm_t\000"
 2968      726D5F74 
 2968      00
 2969 00de 6C020000 		.4byte	0x26c
 2970 00e2 73746B61 		.ascii	"stkalign_t\000"
 2970      6C69676E 
 2970      5F7400
 2971 00ed 77020000 		.4byte	0x277
 2972 00f1 696E7463 		.ascii	"intctx\000"
 2972      747800
 2973 00f8 04030000 		.4byte	0x304
 2974 00fc 636F6E74 		.ascii	"context\000"
 2974      65787400 
 2975 0104 34030000 		.4byte	0x334
 2976 0108 4D757465 		.ascii	"Mutex\000"
 2976      7800
 2977 010e 71030000 		.4byte	0x371
 2978 0112 4D757465 		.ascii	"Mutex\000"
 2978      7800
 2979 0118 FE000000 		.4byte	0xfe
 2980 011c 54687265 		.ascii	"Thread\000"
 2980      616400
 2981 0123 CF030000 		.4byte	0x3cf
 2982 0127 47656E65 		.ascii	"GenericQueue\000"
 2982      72696351 
 2982      75657565 
 2982      00
 2983 0134 49040000 		.4byte	0x449
 2984 0138 716E6F74 		.ascii	"qnotify_t\000"
 2984      6966795F 
 2984      7400
 2985 0142 DA030000 		.4byte	0x3da
 2986 0146 47656E65 		.ascii	"GenericQueue\000"
 2986      72696351 
 2986      75657565 
 2986      00
 2987 0153 72040000 		.4byte	0x472
 2988 0157 4F757470 		.ascii	"OutputQueue\000"
 2988      75745175 
 2988      65756500 
 2989 0163 CD040000 		.4byte	0x4cd
 2990 0167 444D415F 		.ascii	"DMA_Channel_TypeDef\000"
 2990      4368616E 
 2990      6E656C5F 
 2990      54797065 
 2990      44656600 
 2991 017b 4C050000 		.4byte	0x54c
 2992 017f 4750494F 		.ascii	"GPIO_TypeDef\000"
 2992      5F547970 
 2992      65446566 
 2992      00
ARM GAS  C:\Users\z80\AppData\Local\Temp\cchWT0Ou.s 			page 55


 2993 018c 6E060000 		.4byte	0x66e
 2994 0190 5350495F 		.ascii	"SPI_TypeDef\000"
 2994      54797065 
 2994      44656600 
 2995 019c D5060000 		.4byte	0x6d5
 2996 01a0 73746D33 		.ascii	"stm32_dma_stream_t\000"
 2996      325F646D 
 2996      615F7374 
 2996      7265616D 
 2996      5F7400
 2997 01b3 E0060000 		.4byte	0x6e0
 2998 01b7 696F706F 		.ascii	"ioportmask_t\000"
 2998      72746D61 
 2998      736B5F74 
 2998      00
 2999 01c4 EB060000 		.4byte	0x6eb
 3000 01c8 696F706F 		.ascii	"ioportid_t\000"
 3000      72746964 
 3000      5F7400
 3001 01d3 23070000 		.4byte	0x723
 3002 01d7 73706973 		.ascii	"spistate_t\000"
 3002      74617465 
 3002      5F7400
 3003 01e2 2E070000 		.4byte	0x72e
 3004 01e6 53504944 		.ascii	"SPIDriver\000"
 3004      72697665 
 3004      7200
 3005 01f0 B1070000 		.4byte	0x7b1
 3006 01f4 73706963 		.ascii	"spicallback_t\000"
 3006      616C6C62 
 3006      61636B5F 
 3006      7400
 3007 0202 1B080000 		.4byte	0x81b
 3008 0206 53504943 		.ascii	"SPIConfig\000"
 3008      6F6E6669 
 3008      6700
 3009 0210 3A070000 		.4byte	0x73a
 3010 0214 53504944 		.ascii	"SPIDriver\000"
 3010      72697665 
 3010      7200
 3011 021e 00000000 		.4byte	0x0
 3012              		.section	.debug_aranges,"",%progbits
 3013 0000 4C000000 		.4byte	0x4c
 3014 0004 0200     		.2byte	0x2
 3015 0006 00000000 		.4byte	.Ldebug_info0
 3016 000a 04       		.byte	0x4
 3017 000b 00       		.byte	0x0
 3018 000c 0000     		.2byte	0x0
 3019 000e 0000     		.2byte	0x0
 3020 0010 00000000 		.4byte	.LFB62
 3021 0014 F8000000 		.4byte	.LFE62-.LFB62
 3022 0018 00000000 		.4byte	.LFB63
 3023 001c 2E000000 		.4byte	.LFE63-.LFB63
 3024 0020 00000000 		.4byte	.LFB64
 3025 0024 8A000000 		.4byte	.LFE64-.LFB64
 3026 0028 00000000 		.4byte	.LFB65
 3027 002c 30000000 		.4byte	.LFE65-.LFB65
ARM GAS  C:\Users\z80\AppData\Local\Temp\cchWT0Ou.s 			page 56


 3028 0030 00000000 		.4byte	.LFB66
 3029 0034 30000000 		.4byte	.LFE66-.LFB66
 3030 0038 00000000 		.4byte	.LFB67
 3031 003c 44020000 		.4byte	.LFE67-.LFB67
 3032 0040 00000000 		.4byte	.LFB68
 3033 0044 2E000000 		.4byte	.LFE68-.LFB68
 3034 0048 00000000 		.4byte	0x0
 3035 004c 00000000 		.4byte	0x0
 3036              		.section	.debug_ranges,"",%progbits
 3037              	.Ldebug_ranges0:
 3038 0000 00000000 		.4byte	.LFB62
 3039 0004 F8000000 		.4byte	.LFE62
 3040 0008 00000000 		.4byte	.LFB63
 3041 000c 2E000000 		.4byte	.LFE63
 3042 0010 00000000 		.4byte	.LFB64
 3043 0014 8A000000 		.4byte	.LFE64
 3044 0018 00000000 		.4byte	.LFB65
 3045 001c 30000000 		.4byte	.LFE65
 3046 0020 00000000 		.4byte	.LFB66
 3047 0024 30000000 		.4byte	.LFE66
 3048 0028 00000000 		.4byte	.LFB67
 3049 002c 44020000 		.4byte	.LFE67
 3050 0030 00000000 		.4byte	.LFB68
 3051 0034 2E000000 		.4byte	.LFE68
 3052 0038 00000000 		.4byte	0x0
 3053 003c 00000000 		.4byte	0x0
 3054              		.section	.debug_str,"MS",%progbits,1
 3055              	.LASF103:
 3056 0000 646D6172 		.ascii	"dmarx\000"
 3056      7800
 3057              	.LASF124:
 3058 0006 6461635F 		.ascii	"dac_queue\000"
 3058      71756575 
 3058      6500
 3059              	.LASF116:
 3060 0010 76616C75 		.ascii	"valueL\000"
 3060      654C00
 3061              	.LASF2:
 3062 0017 73697A65 		.ascii	"size_t\000"
 3062      5F7400
 3063              	.LASF49:
 3064 001e 7264796D 		.ascii	"rdymsg\000"
 3064      736700
 3065              	.LASF129:
 3066 0025 68735F73 		.ascii	"hs_spicfg\000"
 3066      70696366 
 3066      6700
 3067              	.LASF13:
 3068 002f 75696E74 		.ascii	"uint64_t\000"
 3068      36345F74 
 3068      00
 3069              	.LASF63:
 3070 0038 4F757470 		.ascii	"OutputQueue\000"
 3070      75745175 
 3070      65756500 
 3071              	.LASF97:
 3072 0044 5350495F 		.ascii	"SPI_ACTIVE\000"
ARM GAS  C:\Users\z80\AppData\Local\Temp\cchWT0Ou.s 			page 57


 3072      41435449 
 3072      564500
 3073              	.LASF92:
 3074 004f 696F706F 		.ascii	"ioportmask_t\000"
 3074      72746D61 
 3074      736B5F74 
 3074      00
 3075              	.LASF110:
 3076 005c 73737061 		.ascii	"sspad\000"
 3076      6400
 3077              	.LASF14:
 3078 0062 6C6F6E67 		.ascii	"long long unsigned int\000"
 3078      206C6F6E 
 3078      6720756E 
 3078      7369676E 
 3078      65642069 
 3079              	.LASF75:
 3080 0079 43524350 		.ascii	"CRCPR\000"
 3080      5200
 3081              	.LASF50:
 3082 007f 65786974 		.ascii	"exitcode\000"
 3082      636F6465 
 3082      00
 3083              	.LASF90:
 3084 0088 76656374 		.ascii	"vector\000"
 3084      6F7200
 3085              	.LASF100:
 3086 008f 53504944 		.ascii	"SPIDriver\000"
 3086      72697665 
 3086      7200
 3087              	.LASF109:
 3088 0099 7373706F 		.ascii	"ssport\000"
 3088      727400
 3089              	.LASF122:
 3090 00a0 49544D5F 		.ascii	"ITM_RxBuffer\000"
 3090      52784275 
 3090      66666572 
 3090      00
 3091              	.LASF115:
 3092 00ad 73657444 		.ascii	"setDac1\000"
 3092      61633100 
 3093              	.LASF118:
 3094 00b5 73657444 		.ascii	"setDac2\000"
 3094      61633200 
 3095              	.LASF24:
 3096 00bd 705F7072 		.ascii	"p_prio\000"
 3096      696F00
 3097              	.LASF55:
 3098 00c4 715F7761 		.ascii	"q_waiting\000"
 3098      6974696E 
 3098      6700
 3099              	.LASF12:
 3100 00ce 6C6F6E67 		.ascii	"long long int\000"
 3100      206C6F6E 
 3100      6720696E 
 3100      7400
 3101              	.LASF1:
ARM GAS  C:\Users\z80\AppData\Local\Temp\cchWT0Ou.s 			page 58


 3102 00dc 7369676E 		.ascii	"signed char\000"
 3102      65642063 
 3102      68617200 
 3103              	.LASF127:
 3104 00e8 6E657756 		.ascii	"newValues\000"
 3104      616C7565 
 3104      7300
 3105              	.LASF114:
 3106 00f2 73657444 		.ascii	"setDac\000"
 3106      616300
 3107              	.LASF95:
 3108 00f9 5350495F 		.ascii	"SPI_STOP\000"
 3108      53544F50 
 3108      00
 3109              	.LASF81:
 3110 0102 49325343 		.ascii	"I2SCFGR\000"
 3110      46475200 
 3111              	.LASF46:
 3112 010a 6D5F7175 		.ascii	"m_queue\000"
 3112      65756500 
 3113              	.LASF132:
 3114 0112 433A5C70 		.ascii	"C:\\projects\\digitizer.git\\firmware\\digitizer\000"
 3114      726F6A65 
 3114      6374735C 
 3114      64696769 
 3114      74697A65 
 3115              	.LASF101:
 3116 013f 73746174 		.ascii	"state\000"
 3116      6500
 3117              	.LASF9:
 3118 0145 6C6F6E67 		.ascii	"long int\000"
 3118      20696E74 
 3118      00
 3119              	.LASF16:
 3120 014e 74737461 		.ascii	"tstate_t\000"
 3120      74655F74 
 3120      00
 3121              	.LASF57:
 3122 0157 715F6275 		.ascii	"q_buffer\000"
 3122      66666572 
 3122      00
 3123              	.LASF59:
 3124 0160 715F7772 		.ascii	"q_wrptr\000"
 3124      70747200 
 3125              	.LASF32:
 3126 0168 705F7469 		.ascii	"p_time\000"
 3126      6D6500
 3127              	.LASF26:
 3128 016f 705F6E65 		.ascii	"p_newer\000"
 3128      77657200 
 3129              	.LASF108:
 3130 0177 656E645F 		.ascii	"end_cb\000"
 3130      636200
 3131              	.LASF105:
 3132 017e 7278646D 		.ascii	"rxdmamode\000"
 3132      616D6F64 
 3132      6500
ARM GAS  C:\Users\z80\AppData\Local\Temp\cchWT0Ou.s 			page 59


 3133              	.LASF104:
 3134 0188 646D6174 		.ascii	"dmatx\000"
 3134      7800
 3135              	.LASF41:
 3136 018e 72656761 		.ascii	"regarm_t\000"
 3136      726D5F74 
 3136      00
 3137              	.LASF89:
 3138 0197 73656C66 		.ascii	"selfindex\000"
 3138      696E6465 
 3138      7800
 3139              	.LASF107:
 3140 01a1 73706963 		.ascii	"spicallback_t\000"
 3140      616C6C62 
 3140      61636B5F 
 3140      7400
 3141              	.LASF113:
 3142 01af 76616C75 		.ascii	"value\000"
 3142      6500
 3143              	.LASF134:
 3144 01b5 6F6E5370 		.ascii	"onSpiComplete\000"
 3144      69436F6D 
 3144      706C6574 
 3144      6500
 3145              	.LASF29:
 3146 01c3 705F7374 		.ascii	"p_stklimit\000"
 3146      6B6C696D 
 3146      697400
 3147              	.LASF0:
 3148 01ce 756E7369 		.ascii	"unsigned int\000"
 3148      676E6564 
 3148      20696E74 
 3148      00
 3149              	.LASF6:
 3150 01db 75696E74 		.ascii	"uint16_t\000"
 3150      31365F74 
 3150      00
 3151              	.LASF65:
 3152 01e4 43504152 		.ascii	"CPAR\000"
 3152      00
 3153              	.LASF34:
 3154 01e9 705F6D73 		.ascii	"p_msgqueue\000"
 3154      67717565 
 3154      756500
 3155              	.LASF70:
 3156 01f4 4750494F 		.ascii	"GPIO_TypeDef\000"
 3156      5F547970 
 3156      65446566 
 3156      00
 3157              	.LASF69:
 3158 0201 4C434B52 		.ascii	"LCKR\000"
 3158      00
 3159              	.LASF88:
 3160 0206 69736869 		.ascii	"ishift\000"
 3160      667400
 3161              	.LASF7:
 3162 020d 73686F72 		.ascii	"short unsigned int\000"
ARM GAS  C:\Users\z80\AppData\Local\Temp\cchWT0Ou.s 			page 60


 3162      7420756E 
 3162      7369676E 
 3162      65642069 
 3162      6E7400
 3163              	.LASF18:
 3164 0220 6D73675F 		.ascii	"msg_t\000"
 3164      7400
 3165              	.LASF15:
 3166 0226 746D6F64 		.ascii	"tmode_t\000"
 3166      655F7400 
 3167              	.LASF117:
 3168 022e 76616C75 		.ascii	"valueH\000"
 3168      654800
 3169              	.LASF40:
 3170 0235 54687265 		.ascii	"ThreadsList\000"
 3170      6164734C 
 3170      69737400 
 3171              	.LASF19:
 3172 0241 6576656E 		.ascii	"eventmask_t\000"
 3172      746D6173 
 3172      6B5F7400 
 3173              	.LASF62:
 3174 024d 716E6F74 		.ascii	"qnotify_t\000"
 3174      6966795F 
 3174      7400
 3175              	.LASF54:
 3176 0257 47656E65 		.ascii	"GenericQueue\000"
 3176      72696351 
 3176      75657565 
 3176      00
 3177              	.LASF42:
 3178 0264 73746B61 		.ascii	"stkalign_t\000"
 3178      6C69676E 
 3178      5F7400
 3179              	.LASF21:
 3180 026f 54687265 		.ascii	"Thread\000"
 3180      616400
 3181              	.LASF39:
 3182 0276 54687265 		.ascii	"ThreadsQueue\000"
 3182      61647351 
 3182      75657565 
 3182      00
 3183              	.LASF83:
 3184 0283 49325350 		.ascii	"I2SPR\000"
 3184      5200
 3185              	.LASF56:
 3186 0289 715F636F 		.ascii	"q_counter\000"
 3186      756E7465 
 3186      7200
 3187              	.LASF45:
 3188 0293 4D757465 		.ascii	"Mutex\000"
 3188      7800
 3189              	.LASF27:
 3190 0299 705F6F6C 		.ascii	"p_older\000"
 3190      64657200 
 3191              	.LASF133:
 3192 02a1 696E6974 		.ascii	"initDac\000"
ARM GAS  C:\Users\z80\AppData\Local\Temp\cchWT0Ou.s 			page 61


 3192      44616300 
 3193              	.LASF106:
 3194 02a9 7478646D 		.ascii	"txdmamode\000"
 3194      616D6F64 
 3194      6500
 3195              	.LASF67:
 3196 02b3 444D415F 		.ascii	"DMA_Channel_TypeDef\000"
 3196      4368616E 
 3196      6E656C5F 
 3196      54797065 
 3196      44656600 
 3197              	.LASF79:
 3198 02c7 54584352 		.ascii	"TXCRCR\000"
 3198      435200
 3199              	.LASF71:
 3200 02ce 52455345 		.ascii	"RESERVED0\000"
 3200      52564544 
 3200      3000
 3201              	.LASF72:
 3202 02d8 52455345 		.ascii	"RESERVED1\000"
 3202      52564544 
 3202      3100
 3203              	.LASF73:
 3204 02e2 52455345 		.ascii	"RESERVED2\000"
 3204      52564544 
 3204      3200
 3205              	.LASF74:
 3206 02ec 52455345 		.ascii	"RESERVED3\000"
 3206      52564544 
 3206      3300
 3207              	.LASF76:
 3208 02f6 52455345 		.ascii	"RESERVED4\000"
 3208      52564544 
 3208      3400
 3209              	.LASF23:
 3210 0300 705F7072 		.ascii	"p_prev\000"
 3210      657600
 3211              	.LASF80:
 3212 0307 52455345 		.ascii	"RESERVED6\000"
 3212      52564544 
 3212      3600
 3213              	.LASF82:
 3214 0311 52455345 		.ascii	"RESERVED7\000"
 3214      52564544 
 3214      3700
 3215              	.LASF84:
 3216 031b 52455345 		.ascii	"RESERVED8\000"
 3216      52564544 
 3216      3800
 3217              	.LASF17:
 3218 0325 74707269 		.ascii	"tprio_t\000"
 3218      6F5F7400 
 3219              	.LASF60:
 3220 032d 715F7264 		.ascii	"q_rdptr\000"
 3220      70747200 
 3221              	.LASF8:
 3222 0335 696E7433 		.ascii	"int32_t\000"
ARM GAS  C:\Users\z80\AppData\Local\Temp\cchWT0Ou.s 			page 62


 3222      325F7400 
 3223              	.LASF4:
 3224 033d 756E7369 		.ascii	"unsigned char\000"
 3224      676E6564 
 3224      20636861 
 3224      7200
 3225              	.LASF91:
 3226 034b 73746D33 		.ascii	"stm32_dma_stream_t\000"
 3226      325F646D 
 3226      615F7374 
 3226      7265616D 
 3226      5F7400
 3227              	.LASF123:
 3228 035e 53504944 		.ascii	"SPID2\000"
 3228      3200
 3229              	.LASF37:
 3230 0364 705F6D74 		.ascii	"p_mtxlist\000"
 3230      786C6973 
 3230      7400
 3231              	.LASF5:
 3232 036e 73686F72 		.ascii	"short int\000"
 3232      7420696E 
 3232      7400
 3233              	.LASF30:
 3234 0378 705F7374 		.ascii	"p_state\000"
 3234      61746500 
 3235              	.LASF52:
 3236 0380 65776D61 		.ascii	"ewmask\000"
 3236      736B00
 3237              	.LASF22:
 3238 0387 705F6E65 		.ascii	"p_next\000"
 3238      787400
 3239              	.LASF31:
 3240 038e 705F666C 		.ascii	"p_flags\000"
 3240      61677300 
 3241              	.LASF86:
 3242 0396 6368616E 		.ascii	"channel\000"
 3242      6E656C00 
 3243              	.LASF131:
 3244 039e 2E2F7372 		.ascii	"./src/dac_ctrl.c\000"
 3244      632F6461 
 3244      635F6374 
 3244      726C2E63 
 3244      00
 3245              	.LASF36:
 3246 03af 705F6570 		.ascii	"p_epending\000"
 3246      656E6469 
 3246      6E6700
 3247              	.LASF87:
 3248 03ba 69666372 		.ascii	"ifcr\000"
 3248      00
 3249              	.LASF78:
 3250 03bf 52455345 		.ascii	"RESERVED5\000"
 3250      52564544 
 3250      3500
 3251              	.LASF10:
 3252 03c9 75696E74 		.ascii	"uint32_t\000"
ARM GAS  C:\Users\z80\AppData\Local\Temp\cchWT0Ou.s 			page 63


 3252      33325F74 
 3252      00
 3253              	.LASF77:
 3254 03d2 52584352 		.ascii	"RXCRCR\000"
 3254      435200
 3255              	.LASF125:
 3256 03d9 6461635F 		.ascii	"dac_queue_buffer\000"
 3256      71756575 
 3256      655F6275 
 3256      66666572 
 3256      00
 3257              	.LASF11:
 3258 03ea 6C6F6E67 		.ascii	"long unsigned int\000"
 3258      20756E73 
 3258      69676E65 
 3258      6420696E 
 3258      7400
 3259              	.LASF85:
 3260 03fc 5350495F 		.ascii	"SPI_TypeDef\000"
 3260      54797065 
 3260      44656600 
 3261              	.LASF53:
 3262 0408 63686172 		.ascii	"char\000"
 3262      00
 3263              	.LASF98:
 3264 040d 5350495F 		.ascii	"SPI_COMPLETE\000"
 3264      434F4D50 
 3264      4C455445 
 3264      00
 3265              	.LASF102:
 3266 041a 636F6E66 		.ascii	"config\000"
 3266      696700
 3267              	.LASF112:
 3268 0421 696E6465 		.ascii	"index\000"
 3268      7800
 3269              	.LASF99:
 3270 0427 73706973 		.ascii	"spistate_t\000"
 3270      74617465 
 3270      5F7400
 3271              	.LASF48:
 3272 0432 6D5F6E65 		.ascii	"m_next\000"
 3272      787400
 3273              	.LASF20:
 3274 0439 73797374 		.ascii	"systime_t\000"
 3274      696D655F 
 3274      7400
 3275              	.LASF38:
 3276 0443 705F7265 		.ascii	"p_realprio\000"
 3276      616C7072 
 3276      696F00
 3277              	.LASF93:
 3278 044e 696F706F 		.ascii	"ioportid_t\000"
 3278      72746964 
 3278      5F7400
 3279              	.LASF44:
 3280 0459 636F6E74 		.ascii	"context\000"
 3280      65787400 
ARM GAS  C:\Users\z80\AppData\Local\Temp\cchWT0Ou.s 			page 64


 3281              	.LASF120:
 3282 0461 70726F63 		.ascii	"processDacI\000"
 3282      65737344 
 3282      61634900 
 3283              	.LASF43:
 3284 046d 696E7463 		.ascii	"intctx\000"
 3284      747800
 3285              	.LASF96:
 3286 0474 5350495F 		.ascii	"SPI_READY\000"
 3286      52454144 
 3286      5900
 3287              	.LASF94:
 3288 047e 5350495F 		.ascii	"SPI_UNINIT\000"
 3288      554E494E 
 3288      495400
 3289              	.LASF58:
 3290 0489 715F746F 		.ascii	"q_top\000"
 3290      7000
 3291              	.LASF68:
 3292 048f 42535252 		.ascii	"BSRR\000"
 3292      00
 3293              	.LASF119:
 3294 0494 73657444 		.ascii	"setDacI\000"
 3294      61634900 
 3295              	.LASF121:
 3296 049c 73706964 		.ascii	"spid\000"
 3296      00
 3297              	.LASF64:
 3298 04a1 434E4454 		.ascii	"CNDTR\000"
 3298      5200
 3299              	.LASF66:
 3300 04a7 434D4152 		.ascii	"CMAR\000"
 3300      00
 3301              	.LASF61:
 3302 04ac 715F6E6F 		.ascii	"q_notify\000"
 3302      74696679 
 3302      00
 3303              	.LASF3:
 3304 04b5 75696E74 		.ascii	"uint8_t\000"
 3304      385F7400 
 3305              	.LASF130:
 3306 04bd 474E5520 		.ascii	"GNU C 4.5.0\000"
 3306      4320342E 
 3306      352E3000 
 3307              	.LASF51:
 3308 04c9 77746F62 		.ascii	"wtobjp\000"
 3308      6A7000
 3309              	.LASF28:
 3310 04d0 705F6E61 		.ascii	"p_name\000"
 3310      6D6500
 3311              	.LASF126:
 3312 04d7 6461635F 		.ascii	"dac_tx_buffer\000"
 3312      74785F62 
 3312      75666665 
 3312      7200
 3313              	.LASF111:
 3314 04e5 53504943 		.ascii	"SPIConfig\000"
ARM GAS  C:\Users\z80\AppData\Local\Temp\cchWT0Ou.s 			page 65


 3314      6F6E6669 
 3314      6700
 3315              	.LASF35:
 3316 04ef 705F6D73 		.ascii	"p_msg\000"
 3316      6700
 3317              	.LASF128:
 3318 04f5 64616356 		.ascii	"dacValues\000"
 3318      616C7565 
 3318      7300
 3319              	.LASF47:
 3320 04ff 6D5F6F77 		.ascii	"m_owner\000"
 3320      6E657200 
 3321              	.LASF25:
 3322 0507 705F6374 		.ascii	"p_ctx\000"
 3322      7800
 3323              	.LASF33:
 3324 050d 705F7761 		.ascii	"p_waiting\000"
 3324      6974696E 
 3324      6700
 3325              		.ident	"GCC: (GNU) 4.5.0"
ARM GAS  C:\Users\z80\AppData\Local\Temp\cchWT0Ou.s 			page 66


DEFINED SYMBOLS
                            *ABS*:00000000 dac_ctrl.c
C:\Users\z80\AppData\Local\Temp\cchWT0Ou.s:28     .bss.dac_queue:00000000 dac_queue
C:\Users\z80\AppData\Local\Temp\cchWT0Ou.s:25     .bss.dac_queue:00000000 $d
C:\Users\z80\AppData\Local\Temp\cchWT0Ou.s:35     .bss.dac_queue_buffer:00000000 dac_queue_buffer
C:\Users\z80\AppData\Local\Temp\cchWT0Ou.s:32     .bss.dac_queue_buffer:00000000 $d
C:\Users\z80\AppData\Local\Temp\cchWT0Ou.s:42     .bss.dac_tx_buffer:00000000 dac_tx_buffer
C:\Users\z80\AppData\Local\Temp\cchWT0Ou.s:39     .bss.dac_tx_buffer:00000000 $d
C:\Users\z80\AppData\Local\Temp\cchWT0Ou.s:49     .data.newValues:00000000 newValues
C:\Users\z80\AppData\Local\Temp\cchWT0Ou.s:46     .data.newValues:00000000 $d
C:\Users\z80\AppData\Local\Temp\cchWT0Ou.s:59     .data.dacValues:00000000 dacValues
C:\Users\z80\AppData\Local\Temp\cchWT0Ou.s:56     .data.dacValues:00000000 $d
C:\Users\z80\AppData\Local\Temp\cchWT0Ou.s:65     .data.hs_spicfg:00000000 $d
C:\Users\z80\AppData\Local\Temp\cchWT0Ou.s:68     .data.hs_spicfg:00000000 hs_spicfg
C:\Users\z80\AppData\Local\Temp\cchWT0Ou.s:667    .text.onSpiComplete:00000000 onSpiComplete
C:\Users\z80\AppData\Local\Temp\cchWT0Ou.s:74     .text.initDac:00000000 $t
C:\Users\z80\AppData\Local\Temp\cchWT0Ou.s:80     .text.initDac:00000000 initDac
C:\Users\z80\AppData\Local\Temp\cchWT0Ou.s:174    .text.setDacI:00000000 $t
C:\Users\z80\AppData\Local\Temp\cchWT0Ou.s:180    .text.setDacI:00000000 setDacI
C:\Users\z80\AppData\Local\Temp\cchWT0Ou.s:211    .text.setDac:00000000 $t
C:\Users\z80\AppData\Local\Temp\cchWT0Ou.s:217    .text.setDac:00000000 setDac
C:\Users\z80\AppData\Local\Temp\cchWT0Ou.s:300    .text.setDac1:00000000 $t
C:\Users\z80\AppData\Local\Temp\cchWT0Ou.s:306    .text.setDac1:00000000 setDac1
C:\Users\z80\AppData\Local\Temp\cchWT0Ou.s:345    .text.setDac2:00000000 $t
C:\Users\z80\AppData\Local\Temp\cchWT0Ou.s:351    .text.setDac2:00000000 setDac2
C:\Users\z80\AppData\Local\Temp\cchWT0Ou.s:390    .text.processDacI:00000000 $t
C:\Users\z80\AppData\Local\Temp\cchWT0Ou.s:396    .text.processDacI:00000000 processDacI
C:\Users\z80\AppData\Local\Temp\cchWT0Ou.s:517    .text.processDacI:000000ec $d
C:\Users\z80\AppData\Local\Temp\cchWT0Ou.s:523    .text.processDacI:000000fc $t
C:\Users\z80\AppData\Local\Temp\cchWT0Ou.s:662    .text.onSpiComplete:00000000 $t
                     .debug_frame:00000010 $d

UNDEFINED SYMBOLS
chOQInit
_pal_lld_setgroupmode
SPID2
spiStart
dbg_check_lock
chOQPutTimeout
dbg_check_unlock
dbg_check_lock_from_isr
chOQGetI
dbg_check_unlock_from_isr
spi_lld_select
spi_lld_send
spi_lld_unselect
