ARM GAS  C:\Users\z80\AppData\Local\Temp\cct4UN1K.s 			page 1


   1              		.syntax unified
   2              		.cpu cortex-m3
   3              		.fpu softvfp
   4              		.eabi_attribute 20, 1
   5              		.eabi_attribute 21, 1
   6              		.eabi_attribute 23, 3
   7              		.eabi_attribute 24, 1
   8              		.eabi_attribute 25, 1
   9              		.eabi_attribute 26, 1
  10              		.eabi_attribute 30, 2
  11              		.eabi_attribute 34, 1
  12              		.eabi_attribute 18, 4
  13              		.thumb
  14              		.file	"dac_ctrl.c"
  15              		.text
  16              	.Ltext0:
  17              		.cfi_sections	.debug_frame
  18              		.section	.text.onDacSpiComplete,"ax",%progbits
  19              		.align	2
  20              		.p2align 4,,15
  21              		.thumb
  22              		.thumb_func
  23              		.type	onDacSpiComplete, %function
  24              	onDacSpiComplete:
  25              	.LFB68:
  26              		.file 1 "./src/dac_ctrl.c"
  27              		.loc 1 187 0
  28              		.cfi_startproc
  29              		@ args = 0, pretend = 0, frame = 0
  30              		@ frame_needed = 0, uses_anonymous_args = 0
  31              	.LVL0:
  32 0000 38B5     		push	{r3, r4, r5, lr}
  33              	.LCFI0:
  34              		.cfi_def_cfa_offset 16
  35              		.cfi_offset 14, -4
  36              		.cfi_offset 5, -8
  37              		.cfi_offset 4, -12
  38              		.cfi_offset 3, -16
  39              		.loc 1 189 0
  40 0002 4FF44064 		mov	r4, #3072
  41 0006 2025     		movs	r5, #32
  42 0008 C4F20104 		movt	r4, 16385
  43 000c 2561     		str	r5, [r4, #16]
  44              	.LBB4:
  45              		.loc 1 190 0
  46 000e 2B46     		mov	r3, r5
  47              	.LVL1:
  48              	@ 190 "./src/dac_ctrl.c" 1
  49 0010 83F31188 		msr     BASEPRI, r3
  50              	@ 0 "" 2
  51              	.LVL2:
  52              		.thumb
  53              	.LBE4:
  54 0014 FFF7FEFF 		bl	dbg_check_lock_from_isr
  55              	.LVL3:
  56              		.loc 1 191 0
  57 0018 40F20000 		movw	r0, #:lower16:SPID2
ARM GAS  C:\Users\z80\AppData\Local\Temp\cct4UN1K.s 			page 2


  58 001c C0F20000 		movt	r0, #:upper16:SPID2
  59 0020 FFF7FEFF 		bl	spi_lld_unselect
  60              		.loc 1 196 0
  61 0024 FFF7FEFF 		bl	dbg_check_unlock_from_isr
  62              	.LBB5:
  63 0028 0023     		movs	r3, #0
  64              	.LVL4:
  65              	@ 196 "./src/dac_ctrl.c" 1
  66 002a 83F31188 		msr     BASEPRI, r3
  67              	@ 0 "" 2
  68              	.LVL5:
  69              		.thumb
  70              	.LBE5:
  71              		.loc 1 197 0
  72 002e 6561     		str	r5, [r4, #20]
  73              		.loc 1 198 0
  74 0030 38BD     		pop	{r3, r4, r5, pc}
  75              		.cfi_endproc
  76              	.LFE68:
  77              		.size	onDacSpiComplete, .-onDacSpiComplete
  78 0032 00BFAFF3 		.section	.text.setDacI,"ax",%progbits
  78      0080AFF3 
  78      0080AFF3 
  78      0080
  79              		.align	2
  80              		.p2align 4,,15
  81              		.global	setDacI
  82              		.thumb
  83              		.thumb_func
  84              		.type	setDacI, %function
  85              	setDacI:
  86              	.LFB63:
  87              		.loc 1 86 0
  88              		.cfi_startproc
  89              		@ args = 0, pretend = 0, frame = 0
  90              		@ frame_needed = 0, uses_anonymous_args = 0
  91              		@ link register save eliminated.
  92              	.LVL6:
  93              		.loc 1 87 0
  94 0000 C317     		asrs	r3, r0, #31
  95 0002 9A0F     		lsrs	r2, r3, #30
  96 0004 00EB020C 		add	ip, r0, r2
  97 0008 40F20003 		movw	r3, #:lower16:.LANCHOR0
  98 000c 0CF00300 		and	r0, ip, #3
  99              	.LVL7:
 100 0010 C0F20003 		movt	r3, #:upper16:.LANCHOR0
 101 0014 821A     		subs	r2, r0, r2
 102 0016 43F82210 		str	r1, [r3, r2, lsl #2]
 103              		.loc 1 88 0
 104 001a 7047     		bx	lr
 105              		.cfi_endproc
 106              	.LFE63:
 107              		.size	setDacI, .-setDacI
 108 001c AFF30080 		.section	.text.setDac,"ax",%progbits
 109              		.align	2
 110              		.p2align 4,,15
 111              		.global	setDac
ARM GAS  C:\Users\z80\AppData\Local\Temp\cct4UN1K.s 			page 3


 112              		.thumb
 113              		.thumb_func
 114              		.type	setDac, %function
 115              	setDac:
 116              	.LFB64:
 117              		.loc 1 91 0
 118              		.cfi_startproc
 119              		@ args = 0, pretend = 0, frame = 0
 120              		@ frame_needed = 0, uses_anonymous_args = 0
 121              	.LVL8:
 122 0000 F8B5     		push	{r3, r4, r5, r6, r7, lr}
 123              	.LCFI1:
 124              		.cfi_def_cfa_offset 24
 125              		.cfi_offset 14, -4
 126              		.cfi_offset 7, -8
 127              		.cfi_offset 6, -12
 128              		.cfi_offset 5, -16
 129              		.cfi_offset 4, -20
 130              		.cfi_offset 3, -24
 131              		.loc 1 91 0
 132 0002 0646     		mov	r6, r0
 133 0004 0D46     		mov	r5, r1
 134              	.LBB12:
 135              		.loc 1 93 0
 136 0006 2023     		movs	r3, #32
 137              	.LVL9:
 138              	@ 93 "./src/dac_ctrl.c" 1
 139 0008 83F31188 		msr     BASEPRI, r3
 140              	@ 0 "" 2
 141              	.LVL10:
 142              		.thumb
 143              	.LBE12:
 144              		.loc 1 94 0
 145 000c 40F20004 		movw	r4, #:lower16:.LANCHOR1
 146 0010 C0F20004 		movt	r4, #:upper16:.LANCHOR1
 147              		.loc 1 93 0
 148 0014 FFF7FEFF 		bl	dbg_check_lock
 149              	.LVL11:
 150              		.loc 1 94 0
 151 0018 A768     		ldr	r7, [r4, #8]
 152              	.LVL12:
 153              		.loc 1 95 0
 154 001a FFF7FEFF 		bl	dbg_check_unlock
 155              	.LVL13:
 156              	.LBB13:
 157 001e 0023     		movs	r3, #0
 158              	.LVL14:
 159              	@ 95 "./src/dac_ctrl.c" 1
 160 0020 83F31188 		msr     BASEPRI, r3
 161              	@ 0 "" 2
 162              	.LVL15:
 163              		.thumb
 164              	.LBE13:
 165              		.loc 1 96 0
 166 0024 022F     		cmp	r7, #2
 167 0026 01DC     		bgt	.L7
 168              		.loc 1 104 0
ARM GAS  C:\Users\z80\AppData\Local\Temp\cct4UN1K.s 			page 4


 169 0028 0120     		movs	r0, #1
 170              	.LVL16:
 171              		.loc 1 106 0
 172 002a F8BD     		pop	{r3, r4, r5, r6, r7, pc}
 173              	.LVL17:
 174              	.L7:
 175              	.LBB14:
 176              	.LBB15:
 177              		.loc 1 98 0
 178 002c F1B2     		uxtb	r1, r6
 179 002e 4FF0FF32 		mov	r2, #-1
 180 0032 2046     		mov	r0, r4
 181 0034 FFF7FEFF 		bl	chOQPutTimeout
 182              	.LVL18:
 183              		.loc 1 99 0
 184 0038 E9B2     		uxtb	r1, r5
 185 003a 4FF0FF32 		mov	r2, #-1
 186 003e 2046     		mov	r0, r4
 187 0040 FFF7FEFF 		bl	chOQPutTimeout
 188              		.loc 1 100 0
 189 0044 2046     		mov	r0, r4
 190 0046 C5F30721 		ubfx	r1, r5, #8, #8
 191 004a 4FF0FF32 		mov	r2, #-1
 192 004e FFF7FEFF 		bl	chOQPutTimeout
 193              	.LVL19:
 194 0052 0020     		movs	r0, #0
 195 0054 F8BD     		pop	{r3, r4, r5, r6, r7, pc}
 196              	.LBE15:
 197              	.LBE14:
 198              		.cfi_endproc
 199              	.LFE64:
 200              		.size	setDac, .-setDac
 201 0056 00BFAFF3 		.section	.text.initDac,"ax",%progbits
 201      0080AFF3 
 201      0080
 202              		.align	2
 203              		.p2align 4,,15
 204              		.global	initDac
 205              		.thumb
 206              		.thumb_func
 207              		.type	initDac, %function
 208              	initDac:
 209              	.LFB62:
 210              		.loc 1 59 0
 211              		.cfi_startproc
 212              		@ args = 0, pretend = 0, frame = 0
 213              		@ frame_needed = 0, uses_anonymous_args = 0
 214 0000 F8B5     		push	{r3, r4, r5, r6, r7, lr}
 215              	.LCFI2:
 216              		.cfi_def_cfa_offset 24
 217              		.cfi_offset 14, -4
 218              		.cfi_offset 7, -8
 219              		.cfi_offset 6, -12
 220              		.cfi_offset 5, -16
 221              		.cfi_offset 4, -20
 222              		.cfi_offset 3, -24
 223              		.loc 1 60 0
ARM GAS  C:\Users\z80\AppData\Local\Temp\cct4UN1K.s 			page 5


 224 0002 4FF44064 		mov	r4, #3072
 225 0006 C4F20104 		movt	r4, 16385
 226 000a 2046     		mov	r0, r4
 227 000c 2021     		movs	r1, #32
 228 000e 0622     		movs	r2, #6
 229 0010 FFF7FEFF 		bl	_pal_lld_setgroupmode
 230              		.loc 1 62 0
 231 0014 40F20000 		movw	r0, #:lower16:.LANCHOR1
 232 0018 40F20001 		movw	r1, #:lower16:.LANCHOR2
 233 001c 0023     		movs	r3, #0
 234 001e 1822     		movs	r2, #24
 235 0020 C0F20001 		movt	r1, #:upper16:.LANCHOR2
 236 0024 C0F20000 		movt	r0, #:upper16:.LANCHOR1
 237 0028 FFF7FEFF 		bl	chOQInit
 238              		.loc 1 64 0
 239 002c 2046     		mov	r0, r4
 240 002e 1022     		movs	r2, #16
 241 0030 4FF40051 		mov	r1, #8192
 242 0034 FFF7FEFF 		bl	_pal_lld_setgroupmode
 243              		.loc 1 65 0
 244 0038 2046     		mov	r0, r4
 245 003a 1022     		movs	r2, #16
 246 003c 4FF40041 		mov	r1, #32768
 247 0040 FFF7FEFF 		bl	_pal_lld_setgroupmode
 248              		.loc 1 68 0
 249 0044 4FF48067 		mov	r7, #1024
 250              		.loc 1 67 0
 251 0048 4FF40071 		mov	r1, #512
 252              		.loc 1 69 0
 253 004c 4FF40066 		mov	r6, #2048
 254              		.loc 1 70 0
 255 0050 4FF48055 		mov	r5, #4096
 256              		.loc 1 67 0
 257 0054 2161     		str	r1, [r4, #16]
 258              		.loc 1 72 0
 259 0056 0622     		movs	r2, #6
 260              		.loc 1 68 0
 261 0058 2761     		str	r7, [r4, #16]
 262              		.loc 1 72 0
 263 005a 2046     		mov	r0, r4
 264              		.loc 1 69 0
 265 005c 2661     		str	r6, [r4, #16]
 266              		.loc 1 70 0
 267 005e 2561     		str	r5, [r4, #16]
 268              		.loc 1 72 0
 269 0060 FFF7FEFF 		bl	_pal_lld_setgroupmode
 270              		.loc 1 73 0
 271 0064 2046     		mov	r0, r4
 272 0066 3946     		mov	r1, r7
 273 0068 0622     		movs	r2, #6
 274 006a FFF7FEFF 		bl	_pal_lld_setgroupmode
 275              		.loc 1 74 0
 276 006e 2046     		mov	r0, r4
 277 0070 3146     		mov	r1, r6
 278 0072 0622     		movs	r2, #6
 279 0074 FFF7FEFF 		bl	_pal_lld_setgroupmode
 280              		.loc 1 75 0
ARM GAS  C:\Users\z80\AppData\Local\Temp\cct4UN1K.s 			page 6


 281 0078 0622     		movs	r2, #6
 282 007a 2046     		mov	r0, r4
 283 007c 2946     		mov	r1, r5
 284 007e FFF7FEFF 		bl	_pal_lld_setgroupmode
 285              		.loc 1 77 0
 286 0082 40F20000 		movw	r0, #:lower16:SPID2
 287 0086 40F20001 		movw	r1, #:lower16:.LANCHOR3
 288 008a C0F20000 		movt	r0, #:upper16:SPID2
 289 008e C0F20001 		movt	r1, #:upper16:.LANCHOR3
 290 0092 FFF7FEFF 		bl	spiStart
 291              		.loc 1 79 0
 292 0096 47F6FF71 		movw	r1, #32767
 293 009a 0020     		movs	r0, #0
 294 009c FFF7FEFF 		bl	setDac
 295              		.loc 1 80 0
 296 00a0 47F6FF71 		movw	r1, #32767
 297 00a4 0120     		movs	r0, #1
 298 00a6 FFF7FEFF 		bl	setDac
 299              		.loc 1 81 0
 300 00aa 47F6FF71 		movw	r1, #32767
 301 00ae 0220     		movs	r0, #2
 302 00b0 FFF7FEFF 		bl	setDac
 303              		.loc 1 82 0
 304 00b4 0320     		movs	r0, #3
 305 00b6 47F6FF71 		movw	r1, #32767
 306              		.loc 1 83 0
 307 00ba BDE8F840 		pop	{r3, r4, r5, r6, r7, lr}
 308              		.loc 1 82 0
 309 00be FFF7FEBF 		b	setDac
 310              		.cfi_endproc
 311              	.LFE62:
 312              		.size	initDac, .-initDac
 313 00c2 00BFAFF3 		.section	.text.setDac1,"ax",%progbits
 313      0080AFF3 
 313      0080AFF3 
 313      0080
 314              		.align	2
 315              		.p2align 4,,15
 316              		.global	setDac1
 317              		.thumb
 318              		.thumb_func
 319              		.type	setDac1, %function
 320              	setDac1:
 321              	.LFB65:
 322              		.loc 1 109 0
 323              		.cfi_startproc
 324              		@ args = 0, pretend = 0, frame = 0
 325              		@ frame_needed = 0, uses_anonymous_args = 0
 326              	.LVL20:
 327 0000 38B5     		push	{r3, r4, r5, lr}
 328              	.LCFI3:
 329              		.cfi_def_cfa_offset 16
 330              		.cfi_offset 14, -4
 331              		.cfi_offset 5, -8
 332              		.cfi_offset 4, -12
 333              		.cfi_offset 3, -16
 334              		.loc 1 109 0
ARM GAS  C:\Users\z80\AppData\Local\Temp\cct4UN1K.s 			page 7


 335 0002 0346     		mov	r3, r0
 336 0004 0D46     		mov	r5, r1
 337              		.loc 1 111 0
 338 0006 0020     		movs	r0, #0
 339              	.LVL21:
 340 0008 1946     		mov	r1, r3
 341              	.LVL22:
 342 000a FFF7FEFF 		bl	setDac
 343              	.LVL23:
 344              		.loc 1 112 0
 345 000e 2946     		mov	r1, r5
 346              		.loc 1 111 0
 347 0010 0446     		mov	r4, r0
 348              	.LVL24:
 349              		.loc 1 112 0
 350 0012 0120     		movs	r0, #1
 351              	.LVL25:
 352 0014 FFF7FEFF 		bl	setDac
 353              	.LVL26:
 354              		.loc 1 114 0
 355 0018 0019     		adds	r0, r0, r4
 356              	.LVL27:
 357 001a 38BD     		pop	{r3, r4, r5, pc}
 358              		.cfi_endproc
 359              	.LFE65:
 360              		.size	setDac1, .-setDac1
 361 001c AFF30080 		.section	.text.setDac2,"ax",%progbits
 362              		.align	2
 363              		.p2align 4,,15
 364              		.global	setDac2
 365              		.thumb
 366              		.thumb_func
 367              		.type	setDac2, %function
 368              	setDac2:
 369              	.LFB66:
 370              		.loc 1 117 0
 371              		.cfi_startproc
 372              		@ args = 0, pretend = 0, frame = 0
 373              		@ frame_needed = 0, uses_anonymous_args = 0
 374              	.LVL28:
 375 0000 38B5     		push	{r3, r4, r5, lr}
 376              	.LCFI4:
 377              		.cfi_def_cfa_offset 16
 378              		.cfi_offset 14, -4
 379              		.cfi_offset 5, -8
 380              		.cfi_offset 4, -12
 381              		.cfi_offset 3, -16
 382              		.loc 1 117 0
 383 0002 0346     		mov	r3, r0
 384 0004 0D46     		mov	r5, r1
 385              		.loc 1 119 0
 386 0006 0220     		movs	r0, #2
 387              	.LVL29:
 388 0008 1946     		mov	r1, r3
 389              	.LVL30:
 390 000a FFF7FEFF 		bl	setDac
 391              	.LVL31:
ARM GAS  C:\Users\z80\AppData\Local\Temp\cct4UN1K.s 			page 8


 392              		.loc 1 120 0
 393 000e 2946     		mov	r1, r5
 394              		.loc 1 119 0
 395 0010 0446     		mov	r4, r0
 396              	.LVL32:
 397              		.loc 1 120 0
 398 0012 0320     		movs	r0, #3
 399              	.LVL33:
 400 0014 FFF7FEFF 		bl	setDac
 401              	.LVL34:
 402              		.loc 1 122 0
 403 0018 0019     		adds	r0, r0, r4
 404              	.LVL35:
 405 001a 38BD     		pop	{r3, r4, r5, pc}
 406              		.cfi_endproc
 407              	.LFE66:
 408              		.size	setDac2, .-setDac2
 409 001c AFF30080 		.section	.text.processDacI,"ax",%progbits
 410              		.align	2
 411              		.p2align 4,,15
 412              		.global	processDacI
 413              		.thumb
 414              		.thumb_func
 415              		.type	processDacI, %function
 416              	processDacI:
 417              	.LFB67:
 418              		.loc 1 125 0
 419              		.cfi_startproc
 420              		@ args = 0, pretend = 0, frame = 0
 421              		@ frame_needed = 0, uses_anonymous_args = 0
 422              	.LVL36:
 423 0000 F8B5     		push	{r3, r4, r5, r6, r7, lr}
 424              	.LCFI5:
 425              		.cfi_def_cfa_offset 24
 426              		.cfi_offset 14, -4
 427              		.cfi_offset 7, -8
 428              		.cfi_offset 6, -12
 429              		.cfi_offset 5, -16
 430              		.cfi_offset 4, -20
 431              		.cfi_offset 3, -24
 432              		.loc 1 129 0
 433 0002 40F20005 		movw	r5, #:lower16:.LANCHOR1
 434 0006 C0F20005 		movt	r5, #:upper16:.LANCHOR1
 435 000a 2969     		ldr	r1, [r5, #16]
 436 000c EC68     		ldr	r4, [r5, #12]
 437 000e AA68     		ldr	r2, [r5, #8]
 438 0010 081B     		subs	r0, r1, r4
 439 0012 831A     		subs	r3, r0, r2
 440              		.loc 1 130 0
 441 0014 022B     		cmp	r3, #2
 442 0016 40DC     		bgt	.L12
 443 0018 40F20004 		movw	r4, #:lower16:.LANCHOR4
 444 001c C0F20004 		movt	r4, #:upper16:.LANCHOR4
 445 0020 2378     		ldrb	r3, [r4, #0]	@ zero_extendqisi2
 446 0022 40F2000C 		movw	ip, #:lower16:.LANCHOR0
 447 0026 C0F2000C 		movt	ip, #:upper16:.LANCHOR0
 448 002a 5CF82310 		ldr	r1, [ip, r3, lsl #2]
ARM GAS  C:\Users\z80\AppData\Local\Temp\cct4UN1K.s 			page 9


 449              	.LVL37:
 450              	.L13:
 451              		.loc 1 148 0
 452 002e 40F20002 		movw	r2, #:lower16:.LANCHOR5
 453 0032 C0F20002 		movt	r2, #:upper16:.LANCHOR5
 454 0036 52F82300 		ldr	r0, [r2, r3, lsl #2]
 455 003a 8842     		cmp	r0, r1
 456 003c 24D0     		beq	.L14
 457              		.loc 1 150 0
 458 003e 032B     		cmp	r3, #3
 459 0040 0AD8     		bhi	.L15
 460 0042 DFE803F0 		tbb	[pc, r3]
 461              	.L20:
 462 0046 46       		.byte	(.L16-.L20)/2
 463 0047 4D       		.byte	(.L17-.L20)/2
 464 0048 54       		.byte	(.L18-.L20)/2
 465 0049 02       		.byte	(.L19-.L20)/2
 466              		.align	1
 467              	.L19:
 468              		.loc 1 165 0
 469 004a 40F2000C 		movw	ip, #:lower16:.LANCHOR3
 470 004e C0F2000C 		movt	ip, #:upper16:.LANCHOR3
 471 0052 0C25     		movs	r5, #12
 472 0054 ACF80850 		strh	r5, [ip, #8]	@ movhi
 473              	.L15:
 474              		.loc 1 173 0
 475 0058 40F20005 		movw	r5, #:lower16:SPID2
 476              		.loc 1 170 0
 477 005c 40F20006 		movw	r6, #:lower16:.LANCHOR6
 478              		.loc 1 173 0
 479 0060 C0F20005 		movt	r5, #:upper16:SPID2
 480              		.loc 1 170 0
 481 0064 C0F20006 		movt	r6, #:upper16:.LANCHOR6
 482 0068 0F12     		asrs	r7, r1, #8
 483              		.loc 1 169 0
 484 006a 42F82310 		str	r1, [r2, r3, lsl #2]
 485              		.loc 1 173 0
 486 006e 2846     		mov	r0, r5
 487              		.loc 1 171 0
 488 0070 7170     		strb	r1, [r6, #1]
 489              		.loc 1 170 0
 490 0072 3770     		strb	r7, [r6, #0]
 491              		.loc 1 173 0
 492 0074 FFF7FEFF 		bl	spi_lld_select
 493              		.loc 1 175 0
 494 0078 0323     		movs	r3, #3
 495 007a 2B70     		strb	r3, [r5, #0]
 496 007c 2846     		mov	r0, r5
 497 007e 0221     		movs	r1, #2
 498 0080 3246     		mov	r2, r6
 499 0082 FFF7FEFF 		bl	spi_lld_send
 500 0086 2378     		ldrb	r3, [r4, #0]	@ zero_extendqisi2
 501              	.L14:
 502              		.loc 1 180 0
 503 0088 1846     		mov	r0, r3
 504 008a FFF7FEFF 		bl	processSweepI
 505              		.loc 1 182 0
ARM GAS  C:\Users\z80\AppData\Local\Temp\cct4UN1K.s 			page 10


 506 008e 2078     		ldrb	r0, [r4, #0]	@ zero_extendqisi2
 507 0090 421C     		adds	r2, r0, #1
 508              		.loc 1 183 0
 509 0092 02F00301 		and	r1, r2, #3
 510 0096 2170     		strb	r1, [r4, #0]
 511              		.loc 1 184 0
 512 0098 F8BD     		pop	{r3, r4, r5, r6, r7, pc}
 513              	.LVL38:
 514              	.L12:
 515              	.LBB16:
 516              		.loc 1 133 0
 517 009a 2846     		mov	r0, r5
 518 009c FFF7FEFF 		bl	chOQGetI
 519              	.LVL39:
 520              		.loc 1 134 0
 521 00a0 40F20004 		movw	r4, #:lower16:.LANCHOR4
 522 00a4 C0F20004 		movt	r4, #:upper16:.LANCHOR4
 523 00a8 2070     		strb	r0, [r4, #0]
 524              		.loc 1 137 0
 525 00aa 2846     		mov	r0, r5
 526              	.LVL40:
 527 00ac FFF7FEFF 		bl	chOQGetI
 528 00b0 0646     		mov	r6, r0
 529              	.LVL41:
 530              		.loc 1 139 0
 531 00b2 2846     		mov	r0, r5
 532              	.LVL42:
 533 00b4 FFF7FEFF 		bl	chOQGetI
 534              	.LVL43:
 535              		.loc 1 142 0
 536 00b8 2378     		ldrb	r3, [r4, #0]	@ zero_extendqisi2
 537              		.loc 1 140 0
 538 00ba 0202     		lsls	r2, r0, #8
 539              		.loc 1 144 0
 540 00bc 40F20000 		movw	r0, #:lower16:.LANCHOR0
 541              	.LVL44:
 542              		.loc 1 142 0
 543 00c0 03F00303 		and	r3, r3, #3
 544              		.loc 1 140 0
 545 00c4 B118     		adds	r1, r6, r2
 546              	.LVL45:
 547              		.loc 1 144 0
 548 00c6 C0F20000 		movt	r0, #:upper16:.LANCHOR0
 549              		.loc 1 142 0
 550 00ca 2370     		strb	r3, [r4, #0]
 551              		.loc 1 144 0
 552 00cc 40F82310 		str	r1, [r0, r3, lsl #2]
 553 00d0 ADE7     		b	.L13
 554              	.LVL46:
 555              	.L16:
 556              	.LBE16:
 557              		.loc 1 153 0
 558 00d2 40F20006 		movw	r6, #:lower16:.LANCHOR3
 559 00d6 C0F20006 		movt	r6, #:upper16:.LANCHOR3
 560 00da 0925     		movs	r5, #9
 561 00dc 3581     		strh	r5, [r6, #8]	@ movhi
 562              		.loc 1 155 0
ARM GAS  C:\Users\z80\AppData\Local\Temp\cct4UN1K.s 			page 11


 563 00de BBE7     		b	.L15
 564              	.L17:
 565              		.loc 1 157 0
 566 00e0 40F20007 		movw	r7, #:lower16:.LANCHOR3
 567 00e4 C0F20007 		movt	r7, #:upper16:.LANCHOR3
 568 00e8 0A20     		movs	r0, #10
 569 00ea 3881     		strh	r0, [r7, #8]	@ movhi
 570              		.loc 1 159 0
 571 00ec B4E7     		b	.L15
 572              	.L18:
 573              		.loc 1 161 0
 574 00ee 40F2000E 		movw	lr, #:lower16:.LANCHOR3
 575 00f2 C0F2000E 		movt	lr, #:upper16:.LANCHOR3
 576 00f6 0B26     		movs	r6, #11
 577 00f8 AEF80860 		strh	r6, [lr, #8]	@ movhi
 578              		.loc 1 163 0
 579 00fc ACE7     		b	.L15
 580              		.cfi_endproc
 581              	.LFE67:
 582              		.size	processDacI, .-processDacI
 583 00fe 00BF     		.section	.text.currentDacs,"ax",%progbits
 584              		.align	2
 585              		.p2align 4,,15
 586              		.global	currentDacs
 587              		.thumb
 588              		.thumb_func
 589              		.type	currentDacs, %function
 590              	currentDacs:
 591              	.LFB69:
 592              		.loc 1 201 0
 593              		.cfi_startproc
 594              		@ args = 0, pretend = 0, frame = 0
 595              		@ frame_needed = 0, uses_anonymous_args = 0
 596              	.LVL47:
 597 0000 10B5     		push	{r4, lr}
 598              	.LCFI6:
 599              		.cfi_def_cfa_offset 8
 600              		.cfi_offset 14, -4
 601              		.cfi_offset 4, -8
 602              	.LBB17:
 603              		.loc 1 202 0
 604 0002 2023     		movs	r3, #32
 605              	.LVL48:
 606              	.LBE17:
 607              		.loc 1 201 0
 608 0004 0446     		mov	r4, r0
 609              	.LBB18:
 610              		.loc 1 202 0
 611              	@ 202 "./src/dac_ctrl.c" 1
 612 0006 83F31188 		msr     BASEPRI, r3
 613              	@ 0 "" 2
 614              	.LVL49:
 615              		.thumb
 616              	.LBE18:
 617 000a FFF7FEFF 		bl	dbg_check_lock
 618              	.LVL50:
 619              		.loc 1 203 0
ARM GAS  C:\Users\z80\AppData\Local\Temp\cct4UN1K.s 			page 12


 620 000e 40F20000 		movw	r0, #:lower16:.LANCHOR5
 621 0012 C0F20000 		movt	r0, #:upper16:.LANCHOR5
 622 0016 0368     		ldr	r3, [r0, #0]
 623 0018 2360     		str	r3, [r4, #0]
 624              		.loc 1 204 0
 625 001a 4168     		ldr	r1, [r0, #4]
 626 001c 6160     		str	r1, [r4, #4]
 627              		.loc 1 205 0
 628 001e 8268     		ldr	r2, [r0, #8]
 629 0020 A260     		str	r2, [r4, #8]
 630              		.loc 1 206 0
 631 0022 C368     		ldr	r3, [r0, #12]
 632 0024 E360     		str	r3, [r4, #12]
 633              		.loc 1 207 0
 634 0026 FFF7FEFF 		bl	dbg_check_unlock
 635              	.LBB19:
 636 002a 0023     		movs	r3, #0
 637              	.LVL51:
 638              	@ 207 "./src/dac_ctrl.c" 1
 639 002c 83F31188 		msr     BASEPRI, r3
 640              	@ 0 "" 2
 641              	.LVL52:
 642              		.thumb
 643              	.LBE19:
 644              		.loc 1 208 0
 645 0030 10BD     		pop	{r4, pc}
 646              		.cfi_endproc
 647              	.LFE69:
 648              		.size	currentDacs, .-currentDacs
 649              		.global	dacValues
 650              		.global	newValues
 651              		.global	dac_tx_buffer
 652              		.global	dac_queue_buffer
 653              		.global	dac_queue
 654              		.section	.data.dacValues,"aw",%progbits
 655              		.align	2
 656              		.set	.LANCHOR5,. + 0
 657              		.type	dacValues, %object
 658              		.size	dacValues, 16
 659              	dacValues:
 660 0000 FFFFFFFF 		.word	-1
 661 0004 FFFFFFFF 		.word	-1
 662 0008 FFFFFFFF 		.word	-1
 663 000c FFFFFFFF 		.word	-1
 664              		.section	.bss.dac_tx_buffer,"aw",%nobits
 665              		.align	2
 666              		.set	.LANCHOR6,. + 0
 667              		.type	dac_tx_buffer, %object
 668              		.size	dac_tx_buffer, 2
 669              	dac_tx_buffer:
 670 0000 0000     		.space	2
 671 0002 0000     		.section	.data.newValues,"aw",%progbits
 672              		.align	2
 673              		.set	.LANCHOR0,. + 0
 674              		.type	newValues, %object
 675              		.size	newValues, 16
 676              	newValues:
ARM GAS  C:\Users\z80\AppData\Local\Temp\cct4UN1K.s 			page 13


 677 0000 FFFFFFFF 		.word	-1
 678 0004 FFFFFFFF 		.word	-1
 679 0008 FFFFFFFF 		.word	-1
 680 000c FFFFFFFF 		.word	-1
 681              		.section	.bss.dac_queue,"aw",%nobits
 682              		.align	2
 683              		.set	.LANCHOR1,. + 0
 684              		.type	dac_queue, %object
 685              		.size	dac_queue, 32
 686              	dac_queue:
 687 0000 00000000 		.space	32
 687      00000000 
 687      00000000 
 687      00000000 
 687      00000000 
 688              		.section	.bss.dac_queue_buffer,"aw",%nobits
 689              		.align	2
 690              		.set	.LANCHOR2,. + 0
 691              		.type	dac_queue_buffer, %object
 692              		.size	dac_queue_buffer, 24
 693              	dac_queue_buffer:
 694 0000 00000000 		.space	24
 694      00000000 
 694      00000000 
 694      00000000 
 694      00000000 
 695              		.section	.bss.i.6123,"aw",%nobits
 696              		.set	.LANCHOR4,. + 0
 697              		.type	i.6123, %object
 698              		.size	i.6123, 1
 699              	i.6123:
 700 0000 00       		.space	1
 701              		.section	.data.hs_spicfg,"aw",%progbits
 702              		.align	2
 703              		.set	.LANCHOR3,. + 0
 704              		.type	hs_spicfg, %object
 705              		.size	hs_spicfg, 12
 706              	hs_spicfg:
 707 0000 00000000 		.word	onDacSpiComplete
 708 0004 000C0140 		.word	1073810432
 709 0008 0900     		.short	9
 710 000a 1000     		.short	16
 711              		.text
 712              	.Letext0:
 713              		.file 2 "c:\\programs\\codesourcery\\2011.03-56\\bin\\../lib/gcc/arm-none-eabi/4.6.3/include/stdde
 714              		.file 3 "c:\\programs\\codesourcery\\2011.03-56\\bin\\../lib/gcc/arm-none-eabi/4.6.3/../../../../a
 715              		.file 4 "../chibios_2.4.x/os/ports/GCC/ARMCMx/chtypes.h"
 716              		.file 5 "../chibios_2.4.x/os/kernel/include/chlists.h"
 717              		.file 6 "../chibios_2.4.x/os/kernel/include/chthreads.h"
 718              		.file 7 "../chibios_2.4.x/os/ports/GCC/ARMCMx/chcore_v7m.h"
 719              		.file 8 "../chibios_2.4.x/os/kernel/include/chmtx.h"
 720              		.file 9 "../chibios_2.4.x/os/kernel/include/chqueues.h"
 721              		.file 10 "../chibios_2.4.x/os/hal/platforms/STM32F1xx/stm32f10x.h"
 722              		.file 11 "../chibios_2.4.x/os/hal/platforms/STM32F1xx/stm32_dma.h"
 723              		.file 12 "../chibios_2.4.x/os/hal/platforms/STM32/GPIOv1/pal_lld.h"
 724              		.file 13 "../chibios_2.4.x/os/hal/include/spi.h"
 725              		.file 14 "../chibios_2.4.x/os/hal/platforms/STM32/spi_lld.h"
ARM GAS  C:\Users\z80\AppData\Local\Temp\cct4UN1K.s 			page 14


 726              		.file 15 "../chibios_2.4.x/os/ports/common/ARMCMx/CMSIS/include/core_cm3.h"
 727              		.section	.debug_info,"",%progbits
 728              	.Ldebug_info0:
 729 0000 EB0B0000 		.4byte	0xbeb
 730 0004 0200     		.2byte	0x2
 731 0006 00000000 		.4byte	.Ldebug_abbrev0
 732 000a 04       		.byte	0x4
 733 000b 01       		.uleb128 0x1
 734 000c F1030000 		.4byte	.LASF133
 735 0010 01       		.byte	0x1
 736 0011 A5030000 		.4byte	.LASF134
 737 0015 1D010000 		.4byte	.LASF135
 738 0019 00000000 		.4byte	0
 739 001d 00000000 		.4byte	0
 740 0021 18000000 		.4byte	.Ldebug_ranges0+0x18
 741 0025 00000000 		.4byte	.Ldebug_line0
 742 0029 02       		.uleb128 0x2
 743 002a 04       		.byte	0x4
 744 002b 05       		.byte	0x5
 745 002c 696E7400 		.ascii	"int\000"
 746 0030 03       		.uleb128 0x3
 747 0031 17000000 		.4byte	.LASF2
 748 0035 02       		.byte	0x2
 749 0036 D4       		.byte	0xd4
 750 0037 3B000000 		.4byte	0x3b
 751 003b 04       		.uleb128 0x4
 752 003c 04       		.byte	0x4
 753 003d 07       		.byte	0x7
 754 003e CB010000 		.4byte	.LASF0
 755 0042 04       		.uleb128 0x4
 756 0043 01       		.byte	0x1
 757 0044 06       		.byte	0x6
 758 0045 E2000000 		.4byte	.LASF1
 759 0049 03       		.uleb128 0x3
 760 004a E5040000 		.4byte	.LASF3
 761 004e 03       		.byte	0x3
 762 004f 2A       		.byte	0x2a
 763 0050 54000000 		.4byte	0x54
 764 0054 04       		.uleb128 0x4
 765 0055 01       		.byte	0x1
 766 0056 08       		.byte	0x8
 767 0057 44030000 		.4byte	.LASF4
 768 005b 04       		.uleb128 0x4
 769 005c 02       		.byte	0x2
 770 005d 05       		.byte	0x5
 771 005e 75030000 		.4byte	.LASF5
 772 0062 03       		.uleb128 0x3
 773 0063 D8010000 		.4byte	.LASF6
 774 0067 03       		.byte	0x3
 775 0068 36       		.byte	0x36
 776 0069 6D000000 		.4byte	0x6d
 777 006d 04       		.uleb128 0x4
 778 006e 02       		.byte	0x2
 779 006f 07       		.byte	0x7
 780 0070 0A020000 		.4byte	.LASF7
 781 0074 03       		.uleb128 0x3
 782 0075 3C030000 		.4byte	.LASF8
ARM GAS  C:\Users\z80\AppData\Local\Temp\cct4UN1K.s 			page 15


 783 0079 03       		.byte	0x3
 784 007a 4F       		.byte	0x4f
 785 007b 7F000000 		.4byte	0x7f
 786 007f 04       		.uleb128 0x4
 787 0080 04       		.byte	0x4
 788 0081 05       		.byte	0x5
 789 0082 50010000 		.4byte	.LASF9
 790 0086 03       		.uleb128 0x3
 791 0087 D0030000 		.4byte	.LASF10
 792 008b 03       		.byte	0x3
 793 008c 50       		.byte	0x50
 794 008d 91000000 		.4byte	0x91
 795 0091 04       		.uleb128 0x4
 796 0092 04       		.byte	0x4
 797 0093 07       		.byte	0x7
 798 0094 0E040000 		.4byte	.LASF11
 799 0098 04       		.uleb128 0x4
 800 0099 08       		.byte	0x8
 801 009a 05       		.byte	0x5
 802 009b D4000000 		.4byte	.LASF12
 803 009f 03       		.uleb128 0x3
 804 00a0 2F000000 		.4byte	.LASF13
 805 00a4 03       		.byte	0x3
 806 00a5 78       		.byte	0x78
 807 00a6 AA000000 		.4byte	0xaa
 808 00aa 04       		.uleb128 0x4
 809 00ab 08       		.byte	0x8
 810 00ac 07       		.byte	0x7
 811 00ad 62000000 		.4byte	.LASF14
 812 00b1 03       		.uleb128 0x3
 813 00b2 23020000 		.4byte	.LASF15
 814 00b6 04       		.byte	0x4
 815 00b7 2F       		.byte	0x2f
 816 00b8 49000000 		.4byte	0x49
 817 00bc 03       		.uleb128 0x3
 818 00bd 59010000 		.4byte	.LASF16
 819 00c1 04       		.byte	0x4
 820 00c2 30       		.byte	0x30
 821 00c3 49000000 		.4byte	0x49
 822 00c7 03       		.uleb128 0x3
 823 00c8 2C030000 		.4byte	.LASF17
 824 00cc 04       		.byte	0x4
 825 00cd 32       		.byte	0x32
 826 00ce 86000000 		.4byte	0x86
 827 00d2 03       		.uleb128 0x3
 828 00d3 1D020000 		.4byte	.LASF18
 829 00d7 04       		.byte	0x4
 830 00d8 33       		.byte	0x33
 831 00d9 74000000 		.4byte	0x74
 832 00dd 03       		.uleb128 0x3
 833 00de 3E020000 		.4byte	.LASF19
 834 00e2 04       		.byte	0x4
 835 00e3 35       		.byte	0x35
 836 00e4 86000000 		.4byte	0x86
 837 00e8 03       		.uleb128 0x3
 838 00e9 5D040000 		.4byte	.LASF20
 839 00ed 04       		.byte	0x4
ARM GAS  C:\Users\z80\AppData\Local\Temp\cct4UN1K.s 			page 16


 840 00ee 36       		.byte	0x36
 841 00ef 86000000 		.4byte	0x86
 842 00f3 03       		.uleb128 0x3
 843 00f4 76020000 		.4byte	.LASF21
 844 00f8 05       		.byte	0x5
 845 00f9 2A       		.byte	0x2a
 846 00fa FE000000 		.4byte	0xfe
 847 00fe 05       		.uleb128 0x5
 848 00ff 76020000 		.4byte	.LASF21
 849 0103 48       		.byte	0x48
 850 0104 06       		.byte	0x6
 851 0105 5E       		.byte	0x5e
 852 0106 07020000 		.4byte	0x207
 853 010a 06       		.uleb128 0x6
 854 010b 8E030000 		.4byte	.LASF22
 855 010f 06       		.byte	0x6
 856 0110 5F       		.byte	0x5f
 857 0111 2C020000 		.4byte	0x22c
 858 0115 02       		.byte	0x2
 859 0116 23       		.byte	0x23
 860 0117 00       		.uleb128 0
 861 0118 06       		.uleb128 0x6
 862 0119 07030000 		.4byte	.LASF23
 863 011d 06       		.byte	0x6
 864 011e 61       		.byte	0x61
 865 011f 2C020000 		.4byte	0x22c
 866 0123 02       		.byte	0x2
 867 0124 23       		.byte	0x23
 868 0125 04       		.uleb128 0x4
 869 0126 06       		.uleb128 0x6
 870 0127 BD000000 		.4byte	.LASF24
 871 012b 06       		.byte	0x6
 872 012c 63       		.byte	0x63
 873 012d C7000000 		.4byte	0xc7
 874 0131 02       		.byte	0x2
 875 0132 23       		.byte	0x23
 876 0133 08       		.uleb128 0x8
 877 0134 06       		.uleb128 0x6
 878 0135 2B050000 		.4byte	.LASF25
 879 0139 06       		.byte	0x6
 880 013a 64       		.byte	0x64
 881 013b 04030000 		.4byte	0x304
 882 013f 02       		.byte	0x2
 883 0140 23       		.byte	0x23
 884 0141 0C       		.uleb128 0xc
 885 0142 06       		.uleb128 0x6
 886 0143 7A010000 		.4byte	.LASF26
 887 0147 06       		.byte	0x6
 888 0148 66       		.byte	0x66
 889 0149 2C020000 		.4byte	0x22c
 890 014d 02       		.byte	0x2
 891 014e 23       		.byte	0x23
 892 014f 10       		.uleb128 0x10
 893 0150 06       		.uleb128 0x6
 894 0151 A0020000 		.4byte	.LASF27
 895 0155 06       		.byte	0x6
 896 0156 67       		.byte	0x67
ARM GAS  C:\Users\z80\AppData\Local\Temp\cct4UN1K.s 			page 17


 897 0157 2C020000 		.4byte	0x22c
 898 015b 02       		.byte	0x2
 899 015c 23       		.byte	0x23
 900 015d 14       		.uleb128 0x14
 901 015e 06       		.uleb128 0x6
 902 015f F4040000 		.4byte	.LASF28
 903 0163 06       		.byte	0x6
 904 0164 6E       		.byte	0x6e
 905 0165 AE030000 		.4byte	0x3ae
 906 0169 02       		.byte	0x2
 907 016a 23       		.byte	0x23
 908 016b 18       		.uleb128 0x18
 909 016c 06       		.uleb128 0x6
 910 016d C0010000 		.4byte	.LASF29
 911 0171 06       		.byte	0x6
 912 0172 74       		.byte	0x74
 913 0173 C0030000 		.4byte	0x3c0
 914 0177 02       		.byte	0x2
 915 0178 23       		.byte	0x23
 916 0179 1C       		.uleb128 0x1c
 917 017a 06       		.uleb128 0x6
 918 017b 7F030000 		.4byte	.LASF30
 919 017f 06       		.byte	0x6
 920 0180 79       		.byte	0x79
 921 0181 BC000000 		.4byte	0xbc
 922 0185 02       		.byte	0x2
 923 0186 23       		.byte	0x23
 924 0187 20       		.uleb128 0x20
 925 0188 06       		.uleb128 0x6
 926 0189 95030000 		.4byte	.LASF31
 927 018d 06       		.byte	0x6
 928 018e 7D       		.byte	0x7d
 929 018f B1000000 		.4byte	0xb1
 930 0193 02       		.byte	0x2
 931 0194 23       		.byte	0x23
 932 0195 21       		.uleb128 0x21
 933 0196 06       		.uleb128 0x6
 934 0197 73010000 		.4byte	.LASF32
 935 019b 06       		.byte	0x6
 936 019c 89       		.byte	0x89
 937 019d 2C030000 		.4byte	0x32c
 938 01a1 02       		.byte	0x2
 939 01a2 23       		.byte	0x23
 940 01a3 24       		.uleb128 0x24
 941 01a4 07       		.uleb128 0x7
 942 01a5 705F7500 		.ascii	"p_u\000"
 943 01a9 06       		.byte	0x6
 944 01aa AE       		.byte	0xae
 945 01ab 79030000 		.4byte	0x379
 946 01af 02       		.byte	0x2
 947 01b0 23       		.byte	0x23
 948 01b1 28       		.uleb128 0x28
 949 01b2 06       		.uleb128 0x6
 950 01b3 31050000 		.4byte	.LASF33
 951 01b7 06       		.byte	0x6
 952 01b8 B3       		.byte	0xb3
 953 01b9 54020000 		.4byte	0x254
ARM GAS  C:\Users\z80\AppData\Local\Temp\cct4UN1K.s 			page 18


 954 01bd 02       		.byte	0x2
 955 01be 23       		.byte	0x23
 956 01bf 2C       		.uleb128 0x2c
 957 01c0 06       		.uleb128 0x6
 958 01c1 E6010000 		.4byte	.LASF34
 959 01c5 06       		.byte	0x6
 960 01c6 B9       		.byte	0xb9
 961 01c7 32020000 		.4byte	0x232
 962 01cb 02       		.byte	0x2
 963 01cc 23       		.byte	0x23
 964 01cd 30       		.uleb128 0x30
 965 01ce 06       		.uleb128 0x6
 966 01cf 13050000 		.4byte	.LASF35
 967 01d3 06       		.byte	0x6
 968 01d4 BD       		.byte	0xbd
 969 01d5 D2000000 		.4byte	0xd2
 970 01d9 02       		.byte	0x2
 971 01da 23       		.byte	0x23
 972 01db 38       		.uleb128 0x38
 973 01dc 06       		.uleb128 0x6
 974 01dd B6030000 		.4byte	.LASF36
 975 01e1 06       		.byte	0x6
 976 01e2 C3       		.byte	0xc3
 977 01e3 DD000000 		.4byte	0xdd
 978 01e7 02       		.byte	0x2
 979 01e8 23       		.byte	0x23
 980 01e9 3C       		.uleb128 0x3c
 981 01ea 06       		.uleb128 0x6
 982 01eb 6B030000 		.4byte	.LASF37
 983 01ef 06       		.byte	0x6
 984 01f0 CA       		.byte	0xca
 985 01f1 C6030000 		.4byte	0x3c6
 986 01f5 02       		.byte	0x2
 987 01f6 23       		.byte	0x23
 988 01f7 40       		.uleb128 0x40
 989 01f8 06       		.uleb128 0x6
 990 01f9 67040000 		.4byte	.LASF38
 991 01fd 06       		.byte	0x6
 992 01fe CE       		.byte	0xce
 993 01ff C7000000 		.4byte	0xc7
 994 0203 02       		.byte	0x2
 995 0204 23       		.byte	0x23
 996 0205 44       		.uleb128 0x44
 997 0206 00       		.byte	0
 998 0207 08       		.uleb128 0x8
 999 0208 08       		.byte	0x8
 1000 0209 05       		.byte	0x5
 1001 020a 61       		.byte	0x61
 1002 020b 2C020000 		.4byte	0x22c
 1003 020f 06       		.uleb128 0x6
 1004 0210 8E030000 		.4byte	.LASF22
 1005 0214 05       		.byte	0x5
 1006 0215 62       		.byte	0x62
 1007 0216 2C020000 		.4byte	0x22c
 1008 021a 02       		.byte	0x2
 1009 021b 23       		.byte	0x23
 1010 021c 00       		.uleb128 0
ARM GAS  C:\Users\z80\AppData\Local\Temp\cct4UN1K.s 			page 19


 1011 021d 06       		.uleb128 0x6
 1012 021e 07030000 		.4byte	.LASF23
 1013 0222 05       		.byte	0x5
 1014 0223 64       		.byte	0x64
 1015 0224 2C020000 		.4byte	0x22c
 1016 0228 02       		.byte	0x2
 1017 0229 23       		.byte	0x23
 1018 022a 04       		.uleb128 0x4
 1019 022b 00       		.byte	0
 1020 022c 09       		.uleb128 0x9
 1021 022d 04       		.byte	0x4
 1022 022e F3000000 		.4byte	0xf3
 1023 0232 03       		.uleb128 0x3
 1024 0233 7D020000 		.4byte	.LASF39
 1025 0237 05       		.byte	0x5
 1026 0238 66       		.byte	0x66
 1027 0239 07020000 		.4byte	0x207
 1028 023d 08       		.uleb128 0x8
 1029 023e 04       		.byte	0x4
 1030 023f 05       		.byte	0x5
 1031 0240 6B       		.byte	0x6b
 1032 0241 54020000 		.4byte	0x254
 1033 0245 06       		.uleb128 0x6
 1034 0246 8E030000 		.4byte	.LASF22
 1035 024a 05       		.byte	0x5
 1036 024b 6D       		.byte	0x6d
 1037 024c 2C020000 		.4byte	0x22c
 1038 0250 02       		.byte	0x2
 1039 0251 23       		.byte	0x23
 1040 0252 00       		.uleb128 0
 1041 0253 00       		.byte	0
 1042 0254 03       		.uleb128 0x3
 1043 0255 32020000 		.4byte	.LASF40
 1044 0259 05       		.byte	0x5
 1045 025a 70       		.byte	0x70
 1046 025b 3D020000 		.4byte	0x23d
 1047 025f 03       		.uleb128 0x3
 1048 0260 99010000 		.4byte	.LASF41
 1049 0264 07       		.byte	0x7
 1050 0265 D7       		.byte	0xd7
 1051 0266 6A020000 		.4byte	0x26a
 1052 026a 0A       		.uleb128 0xa
 1053 026b 04       		.byte	0x4
 1054 026c 03       		.uleb128 0x3
 1055 026d 6B020000 		.4byte	.LASF42
 1056 0271 07       		.byte	0x7
 1057 0272 DD       		.byte	0xdd
 1058 0273 9F000000 		.4byte	0x9f
 1059 0277 05       		.uleb128 0x5
 1060 0278 9D040000 		.4byte	.LASF43
 1061 027c 24       		.byte	0x24
 1062 027d 07       		.byte	0x7
 1063 027e FE       		.byte	0xfe
 1064 027f 04030000 		.4byte	0x304
 1065 0283 0B       		.uleb128 0xb
 1066 0284 723400   		.ascii	"r4\000"
 1067 0287 07       		.byte	0x7
ARM GAS  C:\Users\z80\AppData\Local\Temp\cct4UN1K.s 			page 20


 1068 0288 1101     		.2byte	0x111
 1069 028a 5F020000 		.4byte	0x25f
 1070 028e 02       		.byte	0x2
 1071 028f 23       		.byte	0x23
 1072 0290 00       		.uleb128 0
 1073 0291 0B       		.uleb128 0xb
 1074 0292 723500   		.ascii	"r5\000"
 1075 0295 07       		.byte	0x7
 1076 0296 1201     		.2byte	0x112
 1077 0298 5F020000 		.4byte	0x25f
 1078 029c 02       		.byte	0x2
 1079 029d 23       		.byte	0x23
 1080 029e 04       		.uleb128 0x4
 1081 029f 0B       		.uleb128 0xb
 1082 02a0 723600   		.ascii	"r6\000"
 1083 02a3 07       		.byte	0x7
 1084 02a4 1301     		.2byte	0x113
 1085 02a6 5F020000 		.4byte	0x25f
 1086 02aa 02       		.byte	0x2
 1087 02ab 23       		.byte	0x23
 1088 02ac 08       		.uleb128 0x8
 1089 02ad 0B       		.uleb128 0xb
 1090 02ae 723700   		.ascii	"r7\000"
 1091 02b1 07       		.byte	0x7
 1092 02b2 1401     		.2byte	0x114
 1093 02b4 5F020000 		.4byte	0x25f
 1094 02b8 02       		.byte	0x2
 1095 02b9 23       		.byte	0x23
 1096 02ba 0C       		.uleb128 0xc
 1097 02bb 0B       		.uleb128 0xb
 1098 02bc 723800   		.ascii	"r8\000"
 1099 02bf 07       		.byte	0x7
 1100 02c0 1501     		.2byte	0x115
 1101 02c2 5F020000 		.4byte	0x25f
 1102 02c6 02       		.byte	0x2
 1103 02c7 23       		.byte	0x23
 1104 02c8 10       		.uleb128 0x10
 1105 02c9 0B       		.uleb128 0xb
 1106 02ca 723900   		.ascii	"r9\000"
 1107 02cd 07       		.byte	0x7
 1108 02ce 1601     		.2byte	0x116
 1109 02d0 5F020000 		.4byte	0x25f
 1110 02d4 02       		.byte	0x2
 1111 02d5 23       		.byte	0x23
 1112 02d6 14       		.uleb128 0x14
 1113 02d7 0B       		.uleb128 0xb
 1114 02d8 72313000 		.ascii	"r10\000"
 1115 02dc 07       		.byte	0x7
 1116 02dd 1701     		.2byte	0x117
 1117 02df 5F020000 		.4byte	0x25f
 1118 02e3 02       		.byte	0x2
 1119 02e4 23       		.byte	0x23
 1120 02e5 18       		.uleb128 0x18
 1121 02e6 0B       		.uleb128 0xb
 1122 02e7 72313100 		.ascii	"r11\000"
 1123 02eb 07       		.byte	0x7
 1124 02ec 1801     		.2byte	0x118
ARM GAS  C:\Users\z80\AppData\Local\Temp\cct4UN1K.s 			page 21


 1125 02ee 5F020000 		.4byte	0x25f
 1126 02f2 02       		.byte	0x2
 1127 02f3 23       		.byte	0x23
 1128 02f4 1C       		.uleb128 0x1c
 1129 02f5 0B       		.uleb128 0xb
 1130 02f6 6C7200   		.ascii	"lr\000"
 1131 02f9 07       		.byte	0x7
 1132 02fa 1901     		.2byte	0x119
 1133 02fc 5F020000 		.4byte	0x25f
 1134 0300 02       		.byte	0x2
 1135 0301 23       		.byte	0x23
 1136 0302 20       		.uleb128 0x20
 1137 0303 00       		.byte	0
 1138 0304 0C       		.uleb128 0xc
 1139 0305 89040000 		.4byte	.LASF44
 1140 0309 04       		.byte	0x4
 1141 030a 07       		.byte	0x7
 1142 030b 2301     		.2byte	0x123
 1143 030d 21030000 		.4byte	0x321
 1144 0311 0B       		.uleb128 0xb
 1145 0312 72313300 		.ascii	"r13\000"
 1146 0316 07       		.byte	0x7
 1147 0317 2401     		.2byte	0x124
 1148 0319 21030000 		.4byte	0x321
 1149 031d 02       		.byte	0x2
 1150 031e 23       		.byte	0x23
 1151 031f 00       		.uleb128 0
 1152 0320 00       		.byte	0
 1153 0321 09       		.uleb128 0x9
 1154 0322 04       		.byte	0x4
 1155 0323 77020000 		.4byte	0x277
 1156 0327 0D       		.uleb128 0xd
 1157 0328 86000000 		.4byte	0x86
 1158 032c 0D       		.uleb128 0xd
 1159 032d E8000000 		.4byte	0xe8
 1160 0331 05       		.uleb128 0x5
 1161 0332 9A020000 		.4byte	.LASF45
 1162 0336 10       		.byte	0x10
 1163 0337 08       		.byte	0x8
 1164 0338 2C       		.byte	0x2c
 1165 0339 68030000 		.4byte	0x368
 1166 033d 06       		.uleb128 0x6
 1167 033e 10010000 		.4byte	.LASF46
 1168 0342 08       		.byte	0x8
 1169 0343 2D       		.byte	0x2d
 1170 0344 32020000 		.4byte	0x232
 1171 0348 02       		.byte	0x2
 1172 0349 23       		.byte	0x23
 1173 034a 00       		.uleb128 0
 1174 034b 06       		.uleb128 0x6
 1175 034c 23050000 		.4byte	.LASF47
 1176 0350 08       		.byte	0x8
 1177 0351 2F       		.byte	0x2f
 1178 0352 2C020000 		.4byte	0x22c
 1179 0356 02       		.byte	0x2
 1180 0357 23       		.byte	0x23
 1181 0358 08       		.uleb128 0x8
ARM GAS  C:\Users\z80\AppData\Local\Temp\cct4UN1K.s 			page 22


 1182 0359 06       		.uleb128 0x6
 1183 035a 56040000 		.4byte	.LASF48
 1184 035e 08       		.byte	0x8
 1185 035f 31       		.byte	0x31
 1186 0360 68030000 		.4byte	0x368
 1187 0364 02       		.byte	0x2
 1188 0365 23       		.byte	0x23
 1189 0366 0C       		.uleb128 0xc
 1190 0367 00       		.byte	0
 1191 0368 09       		.uleb128 0x9
 1192 0369 04       		.byte	0x4
 1193 036a 31030000 		.4byte	0x331
 1194 036e 03       		.uleb128 0x3
 1195 036f 9A020000 		.4byte	.LASF45
 1196 0373 08       		.byte	0x8
 1197 0374 33       		.byte	0x33
 1198 0375 31030000 		.4byte	0x331
 1199 0379 0E       		.uleb128 0xe
 1200 037a 04       		.byte	0x4
 1201 037b 06       		.byte	0x6
 1202 037c 90       		.byte	0x90
 1203 037d AE030000 		.4byte	0x3ae
 1204 0381 0F       		.uleb128 0xf
 1205 0382 1E000000 		.4byte	.LASF49
 1206 0386 06       		.byte	0x6
 1207 0387 97       		.byte	0x97
 1208 0388 D2000000 		.4byte	0xd2
 1209 038c 0F       		.uleb128 0xf
 1210 038d 7F000000 		.4byte	.LASF50
 1211 0391 06       		.byte	0x6
 1212 0392 9E       		.byte	0x9e
 1213 0393 D2000000 		.4byte	0xd2
 1214 0397 0F       		.uleb128 0xf
 1215 0398 ED040000 		.4byte	.LASF51
 1216 039c 06       		.byte	0x6
 1217 039d A5       		.byte	0xa5
 1218 039e 6A020000 		.4byte	0x26a
 1219 03a2 0F       		.uleb128 0xf
 1220 03a3 87030000 		.4byte	.LASF52
 1221 03a7 06       		.byte	0x6
 1222 03a8 AC       		.byte	0xac
 1223 03a9 DD000000 		.4byte	0xdd
 1224 03ad 00       		.byte	0
 1225 03ae 09       		.uleb128 0x9
 1226 03af 04       		.byte	0x4
 1227 03b0 B4030000 		.4byte	0x3b4
 1228 03b4 10       		.uleb128 0x10
 1229 03b5 B9030000 		.4byte	0x3b9
 1230 03b9 04       		.uleb128 0x4
 1231 03ba 01       		.byte	0x1
 1232 03bb 08       		.byte	0x8
 1233 03bc 2C040000 		.4byte	.LASF53
 1234 03c0 09       		.uleb128 0x9
 1235 03c1 04       		.byte	0x4
 1236 03c2 6C020000 		.4byte	0x26c
 1237 03c6 09       		.uleb128 0x9
 1238 03c7 04       		.byte	0x4
ARM GAS  C:\Users\z80\AppData\Local\Temp\cct4UN1K.s 			page 23


 1239 03c8 6E030000 		.4byte	0x36e
 1240 03cc 03       		.uleb128 0x3
 1241 03cd 54020000 		.4byte	.LASF54
 1242 03d1 09       		.byte	0x9
 1243 03d2 37       		.byte	0x37
 1244 03d3 D7030000 		.4byte	0x3d7
 1245 03d7 05       		.uleb128 0x5
 1246 03d8 54020000 		.4byte	.LASF54
 1247 03dc 20       		.byte	0x20
 1248 03dd 09       		.byte	0x9
 1249 03de 45       		.byte	0x45
 1250 03df 46040000 		.4byte	0x446
 1251 03e3 06       		.uleb128 0x6
 1252 03e4 CA000000 		.4byte	.LASF55
 1253 03e8 09       		.byte	0x9
 1254 03e9 46       		.byte	0x46
 1255 03ea 32020000 		.4byte	0x232
 1256 03ee 02       		.byte	0x2
 1257 03ef 23       		.byte	0x23
 1258 03f0 00       		.uleb128 0
 1259 03f1 06       		.uleb128 0x6
 1260 03f2 90020000 		.4byte	.LASF56
 1261 03f6 09       		.byte	0x9
 1262 03f7 47       		.byte	0x47
 1263 03f8 30000000 		.4byte	0x30
 1264 03fc 02       		.byte	0x2
 1265 03fd 23       		.byte	0x23
 1266 03fe 08       		.uleb128 0x8
 1267 03ff 06       		.uleb128 0x6
 1268 0400 62010000 		.4byte	.LASF57
 1269 0404 09       		.byte	0x9
 1270 0405 48       		.byte	0x48
 1271 0406 69040000 		.4byte	0x469
 1272 040a 02       		.byte	0x2
 1273 040b 23       		.byte	0x23
 1274 040c 0C       		.uleb128 0xc
 1275 040d 06       		.uleb128 0x6
 1276 040e B9040000 		.4byte	.LASF58
 1277 0412 09       		.byte	0x9
 1278 0413 49       		.byte	0x49
 1279 0414 69040000 		.4byte	0x469
 1280 0418 02       		.byte	0x2
 1281 0419 23       		.byte	0x23
 1282 041a 10       		.uleb128 0x10
 1283 041b 06       		.uleb128 0x6
 1284 041c 6B010000 		.4byte	.LASF59
 1285 0420 09       		.byte	0x9
 1286 0421 4B       		.byte	0x4b
 1287 0422 69040000 		.4byte	0x469
 1288 0426 02       		.byte	0x2
 1289 0427 23       		.byte	0x23
 1290 0428 14       		.uleb128 0x14
 1291 0429 06       		.uleb128 0x6
 1292 042a 34030000 		.4byte	.LASF60
 1293 042e 09       		.byte	0x9
 1294 042f 4C       		.byte	0x4c
 1295 0430 69040000 		.4byte	0x469
ARM GAS  C:\Users\z80\AppData\Local\Temp\cct4UN1K.s 			page 24


 1296 0434 02       		.byte	0x2
 1297 0435 23       		.byte	0x23
 1298 0436 18       		.uleb128 0x18
 1299 0437 06       		.uleb128 0x6
 1300 0438 DC040000 		.4byte	.LASF61
 1301 043c 09       		.byte	0x9
 1302 043d 4D       		.byte	0x4d
 1303 043e 46040000 		.4byte	0x446
 1304 0442 02       		.byte	0x2
 1305 0443 23       		.byte	0x23
 1306 0444 1C       		.uleb128 0x1c
 1307 0445 00       		.byte	0
 1308 0446 03       		.uleb128 0x3
 1309 0447 4A020000 		.4byte	.LASF62
 1310 044b 09       		.byte	0x9
 1311 044c 3A       		.byte	0x3a
 1312 044d 51040000 		.4byte	0x451
 1313 0451 09       		.uleb128 0x9
 1314 0452 04       		.byte	0x4
 1315 0453 57040000 		.4byte	0x457
 1316 0457 11       		.uleb128 0x11
 1317 0458 01       		.byte	0x1
 1318 0459 63040000 		.4byte	0x463
 1319 045d 12       		.uleb128 0x12
 1320 045e 63040000 		.4byte	0x463
 1321 0462 00       		.byte	0
 1322 0463 09       		.uleb128 0x9
 1323 0464 04       		.byte	0x4
 1324 0465 CC030000 		.4byte	0x3cc
 1325 0469 09       		.uleb128 0x9
 1326 046a 04       		.byte	0x4
 1327 046b 49000000 		.4byte	0x49
 1328 046f 03       		.uleb128 0x3
 1329 0470 38000000 		.4byte	.LASF63
 1330 0474 09       		.byte	0x9
 1331 0475 E6       		.byte	0xe6
 1332 0476 CC030000 		.4byte	0x3cc
 1333 047a 0D       		.uleb128 0xd
 1334 047b 62000000 		.4byte	0x62
 1335 047f 0D       		.uleb128 0xd
 1336 0480 74000000 		.4byte	0x74
 1337 0484 13       		.uleb128 0x13
 1338 0485 10       		.byte	0x10
 1339 0486 0A       		.byte	0xa
 1340 0487 2D03     		.2byte	0x32d
 1341 0489 CA040000 		.4byte	0x4ca
 1342 048d 0B       		.uleb128 0xb
 1343 048e 43435200 		.ascii	"CCR\000"
 1344 0492 0A       		.byte	0xa
 1345 0493 2F03     		.2byte	0x32f
 1346 0495 27030000 		.4byte	0x327
 1347 0499 02       		.byte	0x2
 1348 049a 23       		.byte	0x23
 1349 049b 00       		.uleb128 0
 1350 049c 14       		.uleb128 0x14
 1351 049d D1040000 		.4byte	.LASF64
 1352 04a1 0A       		.byte	0xa
ARM GAS  C:\Users\z80\AppData\Local\Temp\cct4UN1K.s 			page 25


 1353 04a2 3003     		.2byte	0x330
 1354 04a4 27030000 		.4byte	0x327
 1355 04a8 02       		.byte	0x2
 1356 04a9 23       		.byte	0x23
 1357 04aa 04       		.uleb128 0x4
 1358 04ab 14       		.uleb128 0x14
 1359 04ac E1010000 		.4byte	.LASF65
 1360 04b0 0A       		.byte	0xa
 1361 04b1 3103     		.2byte	0x331
 1362 04b3 27030000 		.4byte	0x327
 1363 04b7 02       		.byte	0x2
 1364 04b8 23       		.byte	0x23
 1365 04b9 08       		.uleb128 0x8
 1366 04ba 14       		.uleb128 0x14
 1367 04bb D7040000 		.4byte	.LASF66
 1368 04bf 0A       		.byte	0xa
 1369 04c0 3203     		.2byte	0x332
 1370 04c2 27030000 		.4byte	0x327
 1371 04c6 02       		.byte	0x2
 1372 04c7 23       		.byte	0x23
 1373 04c8 0C       		.uleb128 0xc
 1374 04c9 00       		.byte	0
 1375 04ca 15       		.uleb128 0x15
 1376 04cb BA020000 		.4byte	.LASF67
 1377 04cf 0A       		.byte	0xa
 1378 04d0 3303     		.2byte	0x333
 1379 04d2 84040000 		.4byte	0x484
 1380 04d6 13       		.uleb128 0x13
 1381 04d7 1C       		.byte	0x1c
 1382 04d8 0A       		.byte	0xa
 1383 04d9 F803     		.2byte	0x3f8
 1384 04db 49050000 		.4byte	0x549
 1385 04df 0B       		.uleb128 0xb
 1386 04e0 43524C00 		.ascii	"CRL\000"
 1387 04e4 0A       		.byte	0xa
 1388 04e5 FA03     		.2byte	0x3fa
 1389 04e7 27030000 		.4byte	0x327
 1390 04eb 02       		.byte	0x2
 1391 04ec 23       		.byte	0x23
 1392 04ed 00       		.uleb128 0
 1393 04ee 0B       		.uleb128 0xb
 1394 04ef 43524800 		.ascii	"CRH\000"
 1395 04f3 0A       		.byte	0xa
 1396 04f4 FB03     		.2byte	0x3fb
 1397 04f6 27030000 		.4byte	0x327
 1398 04fa 02       		.byte	0x2
 1399 04fb 23       		.byte	0x23
 1400 04fc 04       		.uleb128 0x4
 1401 04fd 0B       		.uleb128 0xb
 1402 04fe 49445200 		.ascii	"IDR\000"
 1403 0502 0A       		.byte	0xa
 1404 0503 FC03     		.2byte	0x3fc
 1405 0505 27030000 		.4byte	0x327
 1406 0509 02       		.byte	0x2
 1407 050a 23       		.byte	0x23
 1408 050b 08       		.uleb128 0x8
 1409 050c 0B       		.uleb128 0xb
ARM GAS  C:\Users\z80\AppData\Local\Temp\cct4UN1K.s 			page 26


 1410 050d 4F445200 		.ascii	"ODR\000"
 1411 0511 0A       		.byte	0xa
 1412 0512 FD03     		.2byte	0x3fd
 1413 0514 27030000 		.4byte	0x327
 1414 0518 02       		.byte	0x2
 1415 0519 23       		.byte	0x23
 1416 051a 0C       		.uleb128 0xc
 1417 051b 14       		.uleb128 0x14
 1418 051c BF040000 		.4byte	.LASF68
 1419 0520 0A       		.byte	0xa
 1420 0521 FE03     		.2byte	0x3fe
 1421 0523 27030000 		.4byte	0x327
 1422 0527 02       		.byte	0x2
 1423 0528 23       		.byte	0x23
 1424 0529 10       		.uleb128 0x10
 1425 052a 0B       		.uleb128 0xb
 1426 052b 42525200 		.ascii	"BRR\000"
 1427 052f 0A       		.byte	0xa
 1428 0530 FF03     		.2byte	0x3ff
 1429 0532 27030000 		.4byte	0x327
 1430 0536 02       		.byte	0x2
 1431 0537 23       		.byte	0x23
 1432 0538 14       		.uleb128 0x14
 1433 0539 14       		.uleb128 0x14
 1434 053a FE010000 		.4byte	.LASF69
 1435 053e 0A       		.byte	0xa
 1436 053f 0004     		.2byte	0x400
 1437 0541 27030000 		.4byte	0x327
 1438 0545 02       		.byte	0x2
 1439 0546 23       		.byte	0x23
 1440 0547 18       		.uleb128 0x18
 1441 0548 00       		.byte	0
 1442 0549 15       		.uleb128 0x15
 1443 054a F1010000 		.4byte	.LASF70
 1444 054e 0A       		.byte	0xa
 1445 054f 0104     		.2byte	0x401
 1446 0551 D6040000 		.4byte	0x4d6
 1447 0555 13       		.uleb128 0x13
 1448 0556 24       		.byte	0x24
 1449 0557 0A       		.byte	0xa
 1450 0558 9704     		.2byte	0x497
 1451 055a 6B060000 		.4byte	0x66b
 1452 055e 0B       		.uleb128 0xb
 1453 055f 43523100 		.ascii	"CR1\000"
 1454 0563 0A       		.byte	0xa
 1455 0564 9904     		.2byte	0x499
 1456 0566 7A040000 		.4byte	0x47a
 1457 056a 02       		.byte	0x2
 1458 056b 23       		.byte	0x23
 1459 056c 00       		.uleb128 0
 1460 056d 14       		.uleb128 0x14
 1461 056e D5020000 		.4byte	.LASF71
 1462 0572 0A       		.byte	0xa
 1463 0573 9A04     		.2byte	0x49a
 1464 0575 62000000 		.4byte	0x62
 1465 0579 02       		.byte	0x2
 1466 057a 23       		.byte	0x23
ARM GAS  C:\Users\z80\AppData\Local\Temp\cct4UN1K.s 			page 27


 1467 057b 02       		.uleb128 0x2
 1468 057c 0B       		.uleb128 0xb
 1469 057d 43523200 		.ascii	"CR2\000"
 1470 0581 0A       		.byte	0xa
 1471 0582 9B04     		.2byte	0x49b
 1472 0584 7A040000 		.4byte	0x47a
 1473 0588 02       		.byte	0x2
 1474 0589 23       		.byte	0x23
 1475 058a 04       		.uleb128 0x4
 1476 058b 14       		.uleb128 0x14
 1477 058c DF020000 		.4byte	.LASF72
 1478 0590 0A       		.byte	0xa
 1479 0591 9C04     		.2byte	0x49c
 1480 0593 62000000 		.4byte	0x62
 1481 0597 02       		.byte	0x2
 1482 0598 23       		.byte	0x23
 1483 0599 06       		.uleb128 0x6
 1484 059a 0B       		.uleb128 0xb
 1485 059b 535200   		.ascii	"SR\000"
 1486 059e 0A       		.byte	0xa
 1487 059f 9D04     		.2byte	0x49d
 1488 05a1 7A040000 		.4byte	0x47a
 1489 05a5 02       		.byte	0x2
 1490 05a6 23       		.byte	0x23
 1491 05a7 08       		.uleb128 0x8
 1492 05a8 14       		.uleb128 0x14
 1493 05a9 E9020000 		.4byte	.LASF73
 1494 05ad 0A       		.byte	0xa
 1495 05ae 9E04     		.2byte	0x49e
 1496 05b0 62000000 		.4byte	0x62
 1497 05b4 02       		.byte	0x2
 1498 05b5 23       		.byte	0x23
 1499 05b6 0A       		.uleb128 0xa
 1500 05b7 0B       		.uleb128 0xb
 1501 05b8 445200   		.ascii	"DR\000"
 1502 05bb 0A       		.byte	0xa
 1503 05bc 9F04     		.2byte	0x49f
 1504 05be 7A040000 		.4byte	0x47a
 1505 05c2 02       		.byte	0x2
 1506 05c3 23       		.byte	0x23
 1507 05c4 0C       		.uleb128 0xc
 1508 05c5 14       		.uleb128 0x14
 1509 05c6 F3020000 		.4byte	.LASF74
 1510 05ca 0A       		.byte	0xa
 1511 05cb A004     		.2byte	0x4a0
 1512 05cd 62000000 		.4byte	0x62
 1513 05d1 02       		.byte	0x2
 1514 05d2 23       		.byte	0x23
 1515 05d3 0E       		.uleb128 0xe
 1516 05d4 14       		.uleb128 0x14
 1517 05d5 79000000 		.4byte	.LASF75
 1518 05d9 0A       		.byte	0xa
 1519 05da A104     		.2byte	0x4a1
 1520 05dc 7A040000 		.4byte	0x47a
 1521 05e0 02       		.byte	0x2
 1522 05e1 23       		.byte	0x23
 1523 05e2 10       		.uleb128 0x10
ARM GAS  C:\Users\z80\AppData\Local\Temp\cct4UN1K.s 			page 28


 1524 05e3 14       		.uleb128 0x14
 1525 05e4 FD020000 		.4byte	.LASF76
 1526 05e8 0A       		.byte	0xa
 1527 05e9 A204     		.2byte	0x4a2
 1528 05eb 62000000 		.4byte	0x62
 1529 05ef 02       		.byte	0x2
 1530 05f0 23       		.byte	0x23
 1531 05f1 12       		.uleb128 0x12
 1532 05f2 14       		.uleb128 0x14
 1533 05f3 EA030000 		.4byte	.LASF77
 1534 05f7 0A       		.byte	0xa
 1535 05f8 A304     		.2byte	0x4a3
 1536 05fa 7A040000 		.4byte	0x47a
 1537 05fe 02       		.byte	0x2
 1538 05ff 23       		.byte	0x23
 1539 0600 14       		.uleb128 0x14
 1540 0601 14       		.uleb128 0x14
 1541 0602 C6030000 		.4byte	.LASF78
 1542 0606 0A       		.byte	0xa
 1543 0607 A404     		.2byte	0x4a4
 1544 0609 62000000 		.4byte	0x62
 1545 060d 02       		.byte	0x2
 1546 060e 23       		.byte	0x23
 1547 060f 16       		.uleb128 0x16
 1548 0610 14       		.uleb128 0x14
 1549 0611 CE020000 		.4byte	.LASF79
 1550 0615 0A       		.byte	0xa
 1551 0616 A504     		.2byte	0x4a5
 1552 0618 7A040000 		.4byte	0x47a
 1553 061c 02       		.byte	0x2
 1554 061d 23       		.byte	0x23
 1555 061e 18       		.uleb128 0x18
 1556 061f 14       		.uleb128 0x14
 1557 0620 0E030000 		.4byte	.LASF80
 1558 0624 0A       		.byte	0xa
 1559 0625 A604     		.2byte	0x4a6
 1560 0627 62000000 		.4byte	0x62
 1561 062b 02       		.byte	0x2
 1562 062c 23       		.byte	0x23
 1563 062d 1A       		.uleb128 0x1a
 1564 062e 14       		.uleb128 0x14
 1565 062f 08010000 		.4byte	.LASF81
 1566 0633 0A       		.byte	0xa
 1567 0634 A704     		.2byte	0x4a7
 1568 0636 7A040000 		.4byte	0x47a
 1569 063a 02       		.byte	0x2
 1570 063b 23       		.byte	0x23
 1571 063c 1C       		.uleb128 0x1c
 1572 063d 14       		.uleb128 0x14
 1573 063e 18030000 		.4byte	.LASF82
 1574 0642 0A       		.byte	0xa
 1575 0643 A804     		.2byte	0x4a8
 1576 0645 62000000 		.4byte	0x62
 1577 0649 02       		.byte	0x2
 1578 064a 23       		.byte	0x23
 1579 064b 1E       		.uleb128 0x1e
 1580 064c 14       		.uleb128 0x14
ARM GAS  C:\Users\z80\AppData\Local\Temp\cct4UN1K.s 			page 29


 1581 064d 8A020000 		.4byte	.LASF83
 1582 0651 0A       		.byte	0xa
 1583 0652 A904     		.2byte	0x4a9
 1584 0654 7A040000 		.4byte	0x47a
 1585 0658 02       		.byte	0x2
 1586 0659 23       		.byte	0x23
 1587 065a 20       		.uleb128 0x20
 1588 065b 14       		.uleb128 0x14
 1589 065c 22030000 		.4byte	.LASF84
 1590 0660 0A       		.byte	0xa
 1591 0661 AA04     		.2byte	0x4aa
 1592 0663 62000000 		.4byte	0x62
 1593 0667 02       		.byte	0x2
 1594 0668 23       		.byte	0x23
 1595 0669 22       		.uleb128 0x22
 1596 066a 00       		.byte	0
 1597 066b 15       		.uleb128 0x15
 1598 066c 20040000 		.4byte	.LASF85
 1599 0670 0A       		.byte	0xa
 1600 0671 AB04     		.2byte	0x4ab
 1601 0673 55050000 		.4byte	0x555
 1602 0677 08       		.uleb128 0x8
 1603 0678 0C       		.byte	0xc
 1604 0679 0B       		.byte	0xb
 1605 067a C2       		.byte	0xc2
 1606 067b C6060000 		.4byte	0x6c6
 1607 067f 06       		.uleb128 0x6
 1608 0680 9D030000 		.4byte	.LASF86
 1609 0684 0B       		.byte	0xb
 1610 0685 C3       		.byte	0xc3
 1611 0686 C6060000 		.4byte	0x6c6
 1612 068a 02       		.byte	0x2
 1613 068b 23       		.byte	0x23
 1614 068c 00       		.uleb128 0
 1615 068d 06       		.uleb128 0x6
 1616 068e C1030000 		.4byte	.LASF87
 1617 0692 0B       		.byte	0xb
 1618 0693 C4       		.byte	0xc4
 1619 0694 CC060000 		.4byte	0x6cc
 1620 0698 02       		.byte	0x2
 1621 0699 23       		.byte	0x23
 1622 069a 04       		.uleb128 0x4
 1623 069b 06       		.uleb128 0x6
 1624 069c 03020000 		.4byte	.LASF88
 1625 06a0 0B       		.byte	0xb
 1626 06a1 C5       		.byte	0xc5
 1627 06a2 49000000 		.4byte	0x49
 1628 06a6 02       		.byte	0x2
 1629 06a7 23       		.byte	0x23
 1630 06a8 08       		.uleb128 0x8
 1631 06a9 06       		.uleb128 0x6
 1632 06aa A2010000 		.4byte	.LASF89
 1633 06ae 0B       		.byte	0xb
 1634 06af C7       		.byte	0xc7
 1635 06b0 49000000 		.4byte	0x49
 1636 06b4 02       		.byte	0x2
 1637 06b5 23       		.byte	0x23
ARM GAS  C:\Users\z80\AppData\Local\Temp\cct4UN1K.s 			page 30


 1638 06b6 09       		.uleb128 0x9
 1639 06b7 06       		.uleb128 0x6
 1640 06b8 88000000 		.4byte	.LASF90
 1641 06bc 0B       		.byte	0xb
 1642 06bd C8       		.byte	0xc8
 1643 06be 49000000 		.4byte	0x49
 1644 06c2 02       		.byte	0x2
 1645 06c3 23       		.byte	0x23
 1646 06c4 0A       		.uleb128 0xa
 1647 06c5 00       		.byte	0
 1648 06c6 09       		.uleb128 0x9
 1649 06c7 04       		.byte	0x4
 1650 06c8 CA040000 		.4byte	0x4ca
 1651 06cc 09       		.uleb128 0x9
 1652 06cd 04       		.byte	0x4
 1653 06ce 27030000 		.4byte	0x327
 1654 06d2 03       		.uleb128 0x3
 1655 06d3 52030000 		.4byte	.LASF91
 1656 06d7 0B       		.byte	0xb
 1657 06d8 C9       		.byte	0xc9
 1658 06d9 77060000 		.4byte	0x677
 1659 06dd 03       		.uleb128 0x3
 1660 06de 4F000000 		.4byte	.LASF92
 1661 06e2 0C       		.byte	0xc
 1662 06e3 78       		.byte	0x78
 1663 06e4 86000000 		.4byte	0x86
 1664 06e8 03       		.uleb128 0x3
 1665 06e9 72040000 		.4byte	.LASF93
 1666 06ed 0C       		.byte	0xc
 1667 06ee 85       		.byte	0x85
 1668 06ef F3060000 		.4byte	0x6f3
 1669 06f3 09       		.uleb128 0x9
 1670 06f4 04       		.byte	0x4
 1671 06f5 49050000 		.4byte	0x549
 1672 06f9 09       		.uleb128 0x9
 1673 06fa 04       		.byte	0x4
 1674 06fb FF060000 		.4byte	0x6ff
 1675 06ff 10       		.uleb128 0x10
 1676 0700 D2060000 		.4byte	0x6d2
 1677 0704 16       		.uleb128 0x16
 1678 0705 01       		.byte	0x1
 1679 0706 0D       		.byte	0xd
 1680 0707 55       		.byte	0x55
 1681 0708 2B070000 		.4byte	0x72b
 1682 070c 17       		.uleb128 0x17
 1683 070d AE040000 		.4byte	.LASF94
 1684 0711 00       		.sleb128 0
 1685 0712 17       		.uleb128 0x17
 1686 0713 FF000000 		.4byte	.LASF95
 1687 0717 01       		.sleb128 1
 1688 0718 17       		.uleb128 0x17
 1689 0719 A4040000 		.4byte	.LASF96
 1690 071d 02       		.sleb128 2
 1691 071e 17       		.uleb128 0x17
 1692 071f 44000000 		.4byte	.LASF97
 1693 0723 03       		.sleb128 3
 1694 0724 17       		.uleb128 0x17
ARM GAS  C:\Users\z80\AppData\Local\Temp\cct4UN1K.s 			page 31


 1695 0725 31040000 		.4byte	.LASF98
 1696 0729 04       		.sleb128 4
 1697 072a 00       		.byte	0
 1698 072b 03       		.uleb128 0x3
 1699 072c 4B040000 		.4byte	.LASF99
 1700 0730 0D       		.byte	0xd
 1701 0731 5B       		.byte	0x5b
 1702 0732 04070000 		.4byte	0x704
 1703 0736 15       		.uleb128 0x15
 1704 0737 8F000000 		.4byte	.LASF100
 1705 073b 0E       		.byte	0xe
 1706 073c 0701     		.2byte	0x107
 1707 073e 42070000 		.4byte	0x742
 1708 0742 0C       		.uleb128 0xc
 1709 0743 8F000000 		.4byte	.LASF100
 1710 0747 1C       		.byte	0x1c
 1711 0748 0E       		.byte	0xe
 1712 0749 2B01     		.2byte	0x12b
 1713 074b B9070000 		.4byte	0x7b9
 1714 074f 14       		.uleb128 0x14
 1715 0750 4A010000 		.4byte	.LASF101
 1716 0754 0E       		.byte	0xe
 1717 0755 2F01     		.2byte	0x12f
 1718 0757 2B070000 		.4byte	0x72b
 1719 075b 02       		.byte	0x2
 1720 075c 23       		.byte	0x23
 1721 075d 00       		.uleb128 0
 1722 075e 14       		.uleb128 0x14
 1723 075f 3E040000 		.4byte	.LASF102
 1724 0763 0E       		.byte	0xe
 1725 0764 3301     		.2byte	0x133
 1726 0766 2F080000 		.4byte	0x82f
 1727 076a 02       		.byte	0x2
 1728 076b 23       		.byte	0x23
 1729 076c 04       		.uleb128 0x4
 1730 076d 0B       		.uleb128 0xb
 1731 076e 73706900 		.ascii	"spi\000"
 1732 0772 0E       		.byte	0xe
 1733 0773 4B01     		.2byte	0x14b
 1734 0775 3A080000 		.4byte	0x83a
 1735 0779 02       		.byte	0x2
 1736 077a 23       		.byte	0x23
 1737 077b 08       		.uleb128 0x8
 1738 077c 14       		.uleb128 0x14
 1739 077d 00000000 		.4byte	.LASF103
 1740 0781 0E       		.byte	0xe
 1741 0782 4F01     		.2byte	0x14f
 1742 0784 F9060000 		.4byte	0x6f9
 1743 0788 02       		.byte	0x2
 1744 0789 23       		.byte	0x23
 1745 078a 0C       		.uleb128 0xc
 1746 078b 14       		.uleb128 0x14
 1747 078c 93010000 		.4byte	.LASF104
 1748 0790 0E       		.byte	0xe
 1749 0791 5301     		.2byte	0x153
 1750 0793 F9060000 		.4byte	0x6f9
 1751 0797 02       		.byte	0x2
ARM GAS  C:\Users\z80\AppData\Local\Temp\cct4UN1K.s 			page 32


 1752 0798 23       		.byte	0x23
 1753 0799 10       		.uleb128 0x10
 1754 079a 14       		.uleb128 0x14
 1755 079b 89010000 		.4byte	.LASF105
 1756 079f 0E       		.byte	0xe
 1757 07a0 5701     		.2byte	0x157
 1758 07a2 86000000 		.4byte	0x86
 1759 07a6 02       		.byte	0x2
 1760 07a7 23       		.byte	0x23
 1761 07a8 14       		.uleb128 0x14
 1762 07a9 14       		.uleb128 0x14
 1763 07aa B0020000 		.4byte	.LASF106
 1764 07ae 0E       		.byte	0xe
 1765 07af 5B01     		.2byte	0x15b
 1766 07b1 86000000 		.4byte	0x86
 1767 07b5 02       		.byte	0x2
 1768 07b6 23       		.byte	0x23
 1769 07b7 18       		.uleb128 0x18
 1770 07b8 00       		.byte	0
 1771 07b9 15       		.uleb128 0x15
 1772 07ba AC010000 		.4byte	.LASF107
 1773 07be 0E       		.byte	0xe
 1774 07bf 0F01     		.2byte	0x10f
 1775 07c1 C5070000 		.4byte	0x7c5
 1776 07c5 09       		.uleb128 0x9
 1777 07c6 04       		.byte	0x4
 1778 07c7 CB070000 		.4byte	0x7cb
 1779 07cb 11       		.uleb128 0x11
 1780 07cc 01       		.byte	0x1
 1781 07cd D7070000 		.4byte	0x7d7
 1782 07d1 12       		.uleb128 0x12
 1783 07d2 D7070000 		.4byte	0x7d7
 1784 07d6 00       		.byte	0
 1785 07d7 09       		.uleb128 0x9
 1786 07d8 04       		.byte	0x4
 1787 07d9 36070000 		.4byte	0x736
 1788 07dd 13       		.uleb128 0x13
 1789 07de 0C       		.byte	0xc
 1790 07df 0E       		.byte	0xe
 1791 07e0 1401     		.2byte	0x114
 1792 07e2 23080000 		.4byte	0x823
 1793 07e6 14       		.uleb128 0x14
 1794 07e7 82010000 		.4byte	.LASF108
 1795 07eb 0E       		.byte	0xe
 1796 07ec 1801     		.2byte	0x118
 1797 07ee B9070000 		.4byte	0x7b9
 1798 07f2 02       		.byte	0x2
 1799 07f3 23       		.byte	0x23
 1800 07f4 00       		.uleb128 0
 1801 07f5 14       		.uleb128 0x14
 1802 07f6 99000000 		.4byte	.LASF109
 1803 07fa 0E       		.byte	0xe
 1804 07fb 1D01     		.2byte	0x11d
 1805 07fd E8060000 		.4byte	0x6e8
 1806 0801 02       		.byte	0x2
 1807 0802 23       		.byte	0x23
 1808 0803 04       		.uleb128 0x4
ARM GAS  C:\Users\z80\AppData\Local\Temp\cct4UN1K.s 			page 33


 1809 0804 14       		.uleb128 0x14
 1810 0805 5C000000 		.4byte	.LASF110
 1811 0809 0E       		.byte	0xe
 1812 080a 2101     		.2byte	0x121
 1813 080c 62000000 		.4byte	0x62
 1814 0810 02       		.byte	0x2
 1815 0811 23       		.byte	0x23
 1816 0812 08       		.uleb128 0x8
 1817 0813 0B       		.uleb128 0xb
 1818 0814 63723100 		.ascii	"cr1\000"
 1819 0818 0E       		.byte	0xe
 1820 0819 2501     		.2byte	0x125
 1821 081b 62000000 		.4byte	0x62
 1822 081f 02       		.byte	0x2
 1823 0820 23       		.byte	0x23
 1824 0821 0A       		.uleb128 0xa
 1825 0822 00       		.byte	0
 1826 0823 15       		.uleb128 0x15
 1827 0824 09050000 		.4byte	.LASF111
 1828 0828 0E       		.byte	0xe
 1829 0829 2601     		.2byte	0x126
 1830 082b DD070000 		.4byte	0x7dd
 1831 082f 09       		.uleb128 0x9
 1832 0830 04       		.byte	0x4
 1833 0831 35080000 		.4byte	0x835
 1834 0835 10       		.uleb128 0x10
 1835 0836 23080000 		.4byte	0x823
 1836 083a 09       		.uleb128 0x9
 1837 083b 04       		.byte	0x4
 1838 083c 6B060000 		.4byte	0x66b
 1839 0840 18       		.uleb128 0x18
 1840 0841 01       		.byte	0x1
 1841 0842 F8000000 		.4byte	.LASF136
 1842 0846 01       		.byte	0x1
 1843 0847 5A       		.byte	0x5a
 1844 0848 01       		.byte	0x1
 1845 0849 29000000 		.4byte	0x29
 1846 084d 01       		.byte	0x1
 1847 084e 9D080000 		.4byte	0x89d
 1848 0852 19       		.uleb128 0x19
 1849 0853 45040000 		.4byte	.LASF112
 1850 0857 01       		.byte	0x1
 1851 0858 5A       		.byte	0x5a
 1852 0859 29000000 		.4byte	0x29
 1853 085d 19       		.uleb128 0x19
 1854 085e BA010000 		.4byte	.LASF113
 1855 0862 01       		.byte	0x1
 1856 0863 5A       		.byte	0x5a
 1857 0864 29000000 		.4byte	0x29
 1858 0868 1A       		.uleb128 0x1a
 1859 0869 72657300 		.ascii	"res\000"
 1860 086d 01       		.byte	0x1
 1861 086e 5C       		.byte	0x5c
 1862 086f 29000000 		.4byte	0x29
 1863 0873 1B       		.uleb128 0x1b
 1864 0874 C4000000 		.4byte	.LASF114
 1865 0878 01       		.byte	0x1
ARM GAS  C:\Users\z80\AppData\Local\Temp\cct4UN1K.s 			page 34


 1866 0879 5E       		.byte	0x5e
 1867 087a 29000000 		.4byte	0x29
 1868 087e 1C       		.uleb128 0x1c
 1869 087f 8F080000 		.4byte	0x88f
 1870 0883 1A       		.uleb128 0x1a
 1871 0884 746D7000 		.ascii	"tmp\000"
 1872 0888 01       		.byte	0x1
 1873 0889 5D       		.byte	0x5d
 1874 088a 86000000 		.4byte	0x86
 1875 088e 00       		.byte	0
 1876 088f 1D       		.uleb128 0x1d
 1877 0890 1A       		.uleb128 0x1a
 1878 0891 746D7000 		.ascii	"tmp\000"
 1879 0895 01       		.byte	0x1
 1880 0896 5F       		.byte	0x5f
 1881 0897 86000000 		.4byte	0x86
 1882 089b 00       		.byte	0
 1883 089c 00       		.byte	0
 1884 089d 1E       		.uleb128 0x1e
 1885 089e D9030000 		.4byte	.LASF137
 1886 08a2 01       		.byte	0x1
 1887 08a3 BA       		.byte	0xba
 1888 08a4 01       		.byte	0x1
 1889 08a5 00000000 		.4byte	.LFB68
 1890 08a9 32000000 		.4byte	.LFE68
 1891 08ad 00000000 		.4byte	.LLST0
 1892 08b1 FB080000 		.4byte	0x8fb
 1893 08b5 1F       		.uleb128 0x1f
 1894 08b6 CC040000 		.4byte	.LASF115
 1895 08ba 01       		.byte	0x1
 1896 08bb BA       		.byte	0xba
 1897 08bc D7070000 		.4byte	0x7d7
 1898 08c0 20000000 		.4byte	.LLST1
 1899 08c4 20       		.uleb128 0x20
 1900 08c5 0E000000 		.4byte	.LBB4
 1901 08c9 14000000 		.4byte	.LBE4
 1902 08cd E1080000 		.4byte	0x8e1
 1903 08d1 21       		.uleb128 0x21
 1904 08d2 746D7000 		.ascii	"tmp\000"
 1905 08d6 01       		.byte	0x1
 1906 08d7 BE       		.byte	0xbe
 1907 08d8 86000000 		.4byte	0x86
 1908 08dc 33000000 		.4byte	.LLST2
 1909 08e0 00       		.byte	0
 1910 08e1 22       		.uleb128 0x22
 1911 08e2 28000000 		.4byte	.LBB5
 1912 08e6 2E000000 		.4byte	.LBE5
 1913 08ea 21       		.uleb128 0x21
 1914 08eb 746D7000 		.ascii	"tmp\000"
 1915 08ef 01       		.byte	0x1
 1916 08f0 C4       		.byte	0xc4
 1917 08f1 86000000 		.4byte	0x86
 1918 08f5 46000000 		.4byte	.LLST3
 1919 08f9 00       		.byte	0
 1920 08fa 00       		.byte	0
 1921 08fb 23       		.uleb128 0x23
 1922 08fc 01       		.byte	0x1
ARM GAS  C:\Users\z80\AppData\Local\Temp\cct4UN1K.s 			page 35


 1923 08fd C4040000 		.4byte	.LASF120
 1924 0901 01       		.byte	0x1
 1925 0902 55       		.byte	0x55
 1926 0903 01       		.byte	0x1
 1927 0904 00000000 		.4byte	.LFB63
 1928 0908 1C000000 		.4byte	.LFE63
 1929 090c 02       		.byte	0x2
 1930 090d 7D       		.byte	0x7d
 1931 090e 00       		.sleb128 0
 1932 090f 30090000 		.4byte	0x930
 1933 0913 1F       		.uleb128 0x1f
 1934 0914 45040000 		.4byte	.LASF112
 1935 0918 01       		.byte	0x1
 1936 0919 55       		.byte	0x55
 1937 091a 29000000 		.4byte	0x29
 1938 091e 59000000 		.4byte	.LLST4
 1939 0922 24       		.uleb128 0x24
 1940 0923 BA010000 		.4byte	.LASF113
 1941 0927 01       		.byte	0x1
 1942 0928 55       		.byte	0x55
 1943 0929 29000000 		.4byte	0x29
 1944 092d 01       		.byte	0x1
 1945 092e 51       		.byte	0x51
 1946 092f 00       		.byte	0
 1947 0930 25       		.uleb128 0x25
 1948 0931 40080000 		.4byte	0x840
 1949 0935 00000000 		.4byte	.LFB64
 1950 0939 56000000 		.4byte	.LFE64
 1951 093d 6C000000 		.4byte	.LLST5
 1952 0941 CB090000 		.4byte	0x9cb
 1953 0945 26       		.uleb128 0x26
 1954 0946 52080000 		.4byte	0x852
 1955 094a 8C000000 		.4byte	.LLST6
 1956 094e 26       		.uleb128 0x26
 1957 094f 5D080000 		.4byte	0x85d
 1958 0953 AA000000 		.4byte	.LLST7
 1959 0957 27       		.uleb128 0x27
 1960 0958 68080000 		.4byte	0x868
 1961 095c C8000000 		.4byte	.LLST8
 1962 0960 27       		.uleb128 0x27
 1963 0961 73080000 		.4byte	0x873
 1964 0965 DB000000 		.4byte	.LLST9
 1965 0969 20       		.uleb128 0x20
 1966 096a 06000000 		.4byte	.LBB12
 1967 096e 0C000000 		.4byte	.LBE12
 1968 0972 80090000 		.4byte	0x980
 1969 0976 27       		.uleb128 0x27
 1970 0977 83080000 		.4byte	0x883
 1971 097b FD000000 		.4byte	.LLST10
 1972 097f 00       		.byte	0
 1973 0980 20       		.uleb128 0x20
 1974 0981 1E000000 		.4byte	.LBB13
 1975 0985 24000000 		.4byte	.LBE13
 1976 0989 97090000 		.4byte	0x997
 1977 098d 27       		.uleb128 0x27
 1978 098e 90080000 		.4byte	0x890
 1979 0992 10010000 		.4byte	.LLST11
ARM GAS  C:\Users\z80\AppData\Local\Temp\cct4UN1K.s 			page 36


 1980 0996 00       		.byte	0
 1981 0997 28       		.uleb128 0x28
 1982 0998 40080000 		.4byte	0x840
 1983 099c 2C000000 		.4byte	.LBB14
 1984 09a0 56000000 		.4byte	.LBE14
 1985 09a4 01       		.byte	0x1
 1986 09a5 5A       		.byte	0x5a
 1987 09a6 29       		.uleb128 0x29
 1988 09a7 5D080000 		.4byte	0x85d
 1989 09ab 01       		.byte	0x1
 1990 09ac 55       		.byte	0x55
 1991 09ad 29       		.uleb128 0x29
 1992 09ae 52080000 		.4byte	0x852
 1993 09b2 01       		.byte	0x1
 1994 09b3 56       		.byte	0x56
 1995 09b4 22       		.uleb128 0x22
 1996 09b5 2C000000 		.4byte	.LBB15
 1997 09b9 56000000 		.4byte	.LBE15
 1998 09bd 2A       		.uleb128 0x2a
 1999 09be 68080000 		.4byte	0x868
 2000 09c2 00       		.byte	0
 2001 09c3 2B       		.uleb128 0x2b
 2002 09c4 73080000 		.4byte	0x873
 2003 09c8 00       		.byte	0
 2004 09c9 00       		.byte	0
 2005 09ca 00       		.byte	0
 2006 09cb 2C       		.uleb128 0x2c
 2007 09cc 01       		.byte	0x1
 2008 09cd A8020000 		.4byte	.LASF138
 2009 09d1 01       		.byte	0x1
 2010 09d2 3A       		.byte	0x3a
 2011 09d3 01       		.byte	0x1
 2012 09d4 00000000 		.4byte	.LFB62
 2013 09d8 C2000000 		.4byte	.LFE62
 2014 09dc 23010000 		.4byte	.LLST12
 2015 09e0 2D       		.uleb128 0x2d
 2016 09e1 01       		.byte	0x1
 2017 09e2 AD000000 		.4byte	.LASF118
 2018 09e6 01       		.byte	0x1
 2019 09e7 6C       		.byte	0x6c
 2020 09e8 01       		.byte	0x1
 2021 09e9 29000000 		.4byte	0x29
 2022 09ed 00000000 		.4byte	.LFB65
 2023 09f1 1C000000 		.4byte	.LFE65
 2024 09f5 43010000 		.4byte	.LLST13
 2025 09f9 2B0A0000 		.4byte	0xa2b
 2026 09fd 1F       		.uleb128 0x1f
 2027 09fe 10000000 		.4byte	.LASF116
 2028 0a02 01       		.byte	0x1
 2029 0a03 6C       		.byte	0x6c
 2030 0a04 29000000 		.4byte	0x29
 2031 0a08 63010000 		.4byte	.LLST14
 2032 0a0c 1F       		.uleb128 0x1f
 2033 0a0d 2B020000 		.4byte	.LASF117
 2034 0a11 01       		.byte	0x1
 2035 0a12 6C       		.byte	0x6c
 2036 0a13 29000000 		.4byte	0x29
ARM GAS  C:\Users\z80\AppData\Local\Temp\cct4UN1K.s 			page 37


 2037 0a17 81010000 		.4byte	.LLST15
 2038 0a1b 21       		.uleb128 0x21
 2039 0a1c 72657300 		.ascii	"res\000"
 2040 0a20 01       		.byte	0x1
 2041 0a21 6E       		.byte	0x6e
 2042 0a22 29000000 		.4byte	0x29
 2043 0a26 9F010000 		.4byte	.LLST16
 2044 0a2a 00       		.byte	0
 2045 0a2b 2D       		.uleb128 0x2d
 2046 0a2c 01       		.byte	0x1
 2047 0a2d B5000000 		.4byte	.LASF119
 2048 0a31 01       		.byte	0x1
 2049 0a32 74       		.byte	0x74
 2050 0a33 01       		.byte	0x1
 2051 0a34 29000000 		.4byte	0x29
 2052 0a38 00000000 		.4byte	.LFB66
 2053 0a3c 1C000000 		.4byte	.LFE66
 2054 0a40 D8010000 		.4byte	.LLST17
 2055 0a44 760A0000 		.4byte	0xa76
 2056 0a48 1F       		.uleb128 0x1f
 2057 0a49 10000000 		.4byte	.LASF116
 2058 0a4d 01       		.byte	0x1
 2059 0a4e 74       		.byte	0x74
 2060 0a4f 29000000 		.4byte	0x29
 2061 0a53 F8010000 		.4byte	.LLST18
 2062 0a57 1F       		.uleb128 0x1f
 2063 0a58 2B020000 		.4byte	.LASF117
 2064 0a5c 01       		.byte	0x1
 2065 0a5d 74       		.byte	0x74
 2066 0a5e 29000000 		.4byte	0x29
 2067 0a62 16020000 		.4byte	.LLST19
 2068 0a66 21       		.uleb128 0x21
 2069 0a67 72657300 		.ascii	"res\000"
 2070 0a6b 01       		.byte	0x1
 2071 0a6c 76       		.byte	0x76
 2072 0a6d 29000000 		.4byte	0x29
 2073 0a71 34020000 		.4byte	.LLST20
 2074 0a75 00       		.byte	0
 2075 0a76 2E       		.uleb128 0x2e
 2076 0a77 01       		.byte	0x1
 2077 0a78 91040000 		.4byte	.LASF121
 2078 0a7c 01       		.byte	0x1
 2079 0a7d 7C       		.byte	0x7c
 2080 0a7e 01       		.byte	0x1
 2081 0a7f 00000000 		.4byte	.LFB67
 2082 0a83 FE000000 		.4byte	.LFE67
 2083 0a87 6D020000 		.4byte	.LLST21
 2084 0a8b D60A0000 		.4byte	0xad6
 2085 0a8f 2F       		.uleb128 0x2f
 2086 0a90 6900     		.ascii	"i\000"
 2087 0a92 01       		.byte	0x1
 2088 0a93 7E       		.byte	0x7e
 2089 0a94 49000000 		.4byte	0x49
 2090 0a98 05       		.byte	0x5
 2091 0a99 03       		.byte	0x3
 2092 0a9a 00000000 		.4byte	i.6123
 2093 0a9e 30       		.uleb128 0x30
ARM GAS  C:\Users\z80\AppData\Local\Temp\cct4UN1K.s 			page 38


 2094 0a9f 61020000 		.4byte	.LASF122
 2095 0aa3 01       		.byte	0x1
 2096 0aa4 81       		.byte	0x81
 2097 0aa5 29000000 		.4byte	0x29
 2098 0aa9 8D020000 		.4byte	.LLST22
 2099 0aad 22       		.uleb128 0x22
 2100 0aae 9A000000 		.4byte	.LBB16
 2101 0ab2 D2000000 		.4byte	.LBE16
 2102 0ab6 21       		.uleb128 0x21
 2103 0ab7 72657300 		.ascii	"res\000"
 2104 0abb 01       		.byte	0x1
 2105 0abc 84       		.byte	0x84
 2106 0abd D2000000 		.4byte	0xd2
 2107 0ac1 BF020000 		.4byte	.LLST23
 2108 0ac5 21       		.uleb128 0x21
 2109 0ac6 76616C00 		.ascii	"val\000"
 2110 0aca 01       		.byte	0x1
 2111 0acb 88       		.byte	0x88
 2112 0acc 29000000 		.4byte	0x29
 2113 0ad0 F3020000 		.4byte	.LLST24
 2114 0ad4 00       		.byte	0
 2115 0ad5 00       		.byte	0
 2116 0ad6 2E       		.uleb128 0x2e
 2117 0ad7 01       		.byte	0x1
 2118 0ad8 7D040000 		.4byte	.LASF123
 2119 0adc 01       		.byte	0x1
 2120 0add C8       		.byte	0xc8
 2121 0ade 01       		.byte	0x1
 2122 0adf 00000000 		.4byte	.LFB69
 2123 0ae3 32000000 		.4byte	.LFE69
 2124 0ae7 1C030000 		.4byte	.LLST25
 2125 0aeb 310B0000 		.4byte	0xb31
 2126 0aef 1F       		.uleb128 0x1f
 2127 0af0 18010000 		.4byte	.LASF124
 2128 0af4 01       		.byte	0x1
 2129 0af5 C8       		.byte	0xc8
 2130 0af6 310B0000 		.4byte	0xb31
 2131 0afa 3C030000 		.4byte	.LLST26
 2132 0afe 31       		.uleb128 0x31
 2133 0aff 00000000 		.4byte	.Ldebug_ranges0+0
 2134 0b03 170B0000 		.4byte	0xb17
 2135 0b07 21       		.uleb128 0x21
 2136 0b08 746D7000 		.ascii	"tmp\000"
 2137 0b0c 01       		.byte	0x1
 2138 0b0d CA       		.byte	0xca
 2139 0b0e 86000000 		.4byte	0x86
 2140 0b12 5A030000 		.4byte	.LLST27
 2141 0b16 00       		.byte	0
 2142 0b17 22       		.uleb128 0x22
 2143 0b18 2A000000 		.4byte	.LBB19
 2144 0b1c 30000000 		.4byte	.LBE19
 2145 0b20 21       		.uleb128 0x21
 2146 0b21 746D7000 		.ascii	"tmp\000"
 2147 0b25 01       		.byte	0x1
 2148 0b26 CF       		.byte	0xcf
 2149 0b27 86000000 		.4byte	0x86
 2150 0b2b 6D030000 		.4byte	.LLST28
ARM GAS  C:\Users\z80\AppData\Local\Temp\cct4UN1K.s 			page 39


 2151 0b2f 00       		.byte	0
 2152 0b30 00       		.byte	0
 2153 0b31 09       		.uleb128 0x9
 2154 0b32 04       		.byte	0x4
 2155 0b33 29000000 		.4byte	0x29
 2156 0b37 32       		.uleb128 0x32
 2157 0b38 25000000 		.4byte	.LASF125
 2158 0b3c 01       		.byte	0x1
 2159 0b3d 1F       		.byte	0x1f
 2160 0b3e 23080000 		.4byte	0x823
 2161 0b42 05       		.byte	0x5
 2162 0b43 03       		.byte	0x3
 2163 0b44 00000000 		.4byte	hs_spicfg
 2164 0b48 33       		.uleb128 0x33
 2165 0b49 A0000000 		.4byte	.LASF126
 2166 0b4d 0F       		.byte	0xf
 2167 0b4e 9404     		.2byte	0x494
 2168 0b50 7F040000 		.4byte	0x47f
 2169 0b54 01       		.byte	0x1
 2170 0b55 01       		.byte	0x1
 2171 0b56 33       		.uleb128 0x33
 2172 0b57 65030000 		.4byte	.LASF127
 2173 0b5b 0E       		.byte	0xe
 2174 0b5c 6B01     		.2byte	0x16b
 2175 0b5e 36070000 		.4byte	0x736
 2176 0b62 01       		.byte	0x1
 2177 0b63 01       		.byte	0x1
 2178 0b64 34       		.uleb128 0x34
 2179 0b65 06000000 		.4byte	.LASF128
 2180 0b69 01       		.byte	0x1
 2181 0b6a 0D       		.byte	0xd
 2182 0b6b 6F040000 		.4byte	0x46f
 2183 0b6f 01       		.byte	0x1
 2184 0b70 05       		.byte	0x5
 2185 0b71 03       		.byte	0x3
 2186 0b72 00000000 		.4byte	dac_queue
 2187 0b76 35       		.uleb128 0x35
 2188 0b77 49000000 		.4byte	0x49
 2189 0b7b 860B0000 		.4byte	0xb86
 2190 0b7f 36       		.uleb128 0x36
 2191 0b80 3B000000 		.4byte	0x3b
 2192 0b84 17       		.byte	0x17
 2193 0b85 00       		.byte	0
 2194 0b86 34       		.uleb128 0x34
 2195 0b87 FD030000 		.4byte	.LASF129
 2196 0b8b 01       		.byte	0x1
 2197 0b8c 0E       		.byte	0xe
 2198 0b8d 760B0000 		.4byte	0xb76
 2199 0b91 01       		.byte	0x1
 2200 0b92 05       		.byte	0x5
 2201 0b93 03       		.byte	0x3
 2202 0b94 00000000 		.4byte	dac_queue_buffer
 2203 0b98 35       		.uleb128 0x35
 2204 0b99 49000000 		.4byte	0x49
 2205 0b9d A80B0000 		.4byte	0xba8
 2206 0ba1 36       		.uleb128 0x36
 2207 0ba2 3B000000 		.4byte	0x3b
ARM GAS  C:\Users\z80\AppData\Local\Temp\cct4UN1K.s 			page 40


 2208 0ba6 01       		.byte	0x1
 2209 0ba7 00       		.byte	0
 2210 0ba8 34       		.uleb128 0x34
 2211 0ba9 FB040000 		.4byte	.LASF130
 2212 0bad 01       		.byte	0x1
 2213 0bae 15       		.byte	0x15
 2214 0baf 980B0000 		.4byte	0xb98
 2215 0bb3 01       		.byte	0x1
 2216 0bb4 05       		.byte	0x5
 2217 0bb5 03       		.byte	0x3
 2218 0bb6 00000000 		.4byte	dac_tx_buffer
 2219 0bba 35       		.uleb128 0x35
 2220 0bbb 29000000 		.4byte	0x29
 2221 0bbf CA0B0000 		.4byte	0xbca
 2222 0bc3 36       		.uleb128 0x36
 2223 0bc4 3B000000 		.4byte	0x3b
 2224 0bc8 03       		.byte	0x3
 2225 0bc9 00       		.byte	0
 2226 0bca 34       		.uleb128 0x34
 2227 0bcb EE000000 		.4byte	.LASF131
 2228 0bcf 01       		.byte	0x1
 2229 0bd0 17       		.byte	0x17
 2230 0bd1 BA0B0000 		.4byte	0xbba
 2231 0bd5 01       		.byte	0x1
 2232 0bd6 05       		.byte	0x5
 2233 0bd7 03       		.byte	0x3
 2234 0bd8 00000000 		.4byte	newValues
 2235 0bdc 34       		.uleb128 0x34
 2236 0bdd 19050000 		.4byte	.LASF132
 2237 0be1 01       		.byte	0x1
 2238 0be2 18       		.byte	0x18
 2239 0be3 BA0B0000 		.4byte	0xbba
 2240 0be7 01       		.byte	0x1
 2241 0be8 05       		.byte	0x5
 2242 0be9 03       		.byte	0x3
 2243 0bea 00000000 		.4byte	dacValues
 2244 0bee 00       		.byte	0
 2245              		.section	.debug_abbrev,"",%progbits
 2246              	.Ldebug_abbrev0:
 2247 0000 01       		.uleb128 0x1
 2248 0001 11       		.uleb128 0x11
 2249 0002 01       		.byte	0x1
 2250 0003 25       		.uleb128 0x25
 2251 0004 0E       		.uleb128 0xe
 2252 0005 13       		.uleb128 0x13
 2253 0006 0B       		.uleb128 0xb
 2254 0007 03       		.uleb128 0x3
 2255 0008 0E       		.uleb128 0xe
 2256 0009 1B       		.uleb128 0x1b
 2257 000a 0E       		.uleb128 0xe
 2258 000b 11       		.uleb128 0x11
 2259 000c 01       		.uleb128 0x1
 2260 000d 52       		.uleb128 0x52
 2261 000e 01       		.uleb128 0x1
 2262 000f 55       		.uleb128 0x55
 2263 0010 06       		.uleb128 0x6
 2264 0011 10       		.uleb128 0x10
ARM GAS  C:\Users\z80\AppData\Local\Temp\cct4UN1K.s 			page 41


 2265 0012 06       		.uleb128 0x6
 2266 0013 00       		.byte	0
 2267 0014 00       		.byte	0
 2268 0015 02       		.uleb128 0x2
 2269 0016 24       		.uleb128 0x24
 2270 0017 00       		.byte	0
 2271 0018 0B       		.uleb128 0xb
 2272 0019 0B       		.uleb128 0xb
 2273 001a 3E       		.uleb128 0x3e
 2274 001b 0B       		.uleb128 0xb
 2275 001c 03       		.uleb128 0x3
 2276 001d 08       		.uleb128 0x8
 2277 001e 00       		.byte	0
 2278 001f 00       		.byte	0
 2279 0020 03       		.uleb128 0x3
 2280 0021 16       		.uleb128 0x16
 2281 0022 00       		.byte	0
 2282 0023 03       		.uleb128 0x3
 2283 0024 0E       		.uleb128 0xe
 2284 0025 3A       		.uleb128 0x3a
 2285 0026 0B       		.uleb128 0xb
 2286 0027 3B       		.uleb128 0x3b
 2287 0028 0B       		.uleb128 0xb
 2288 0029 49       		.uleb128 0x49
 2289 002a 13       		.uleb128 0x13
 2290 002b 00       		.byte	0
 2291 002c 00       		.byte	0
 2292 002d 04       		.uleb128 0x4
 2293 002e 24       		.uleb128 0x24
 2294 002f 00       		.byte	0
 2295 0030 0B       		.uleb128 0xb
 2296 0031 0B       		.uleb128 0xb
 2297 0032 3E       		.uleb128 0x3e
 2298 0033 0B       		.uleb128 0xb
 2299 0034 03       		.uleb128 0x3
 2300 0035 0E       		.uleb128 0xe
 2301 0036 00       		.byte	0
 2302 0037 00       		.byte	0
 2303 0038 05       		.uleb128 0x5
 2304 0039 13       		.uleb128 0x13
 2305 003a 01       		.byte	0x1
 2306 003b 03       		.uleb128 0x3
 2307 003c 0E       		.uleb128 0xe
 2308 003d 0B       		.uleb128 0xb
 2309 003e 0B       		.uleb128 0xb
 2310 003f 3A       		.uleb128 0x3a
 2311 0040 0B       		.uleb128 0xb
 2312 0041 3B       		.uleb128 0x3b
 2313 0042 0B       		.uleb128 0xb
 2314 0043 01       		.uleb128 0x1
 2315 0044 13       		.uleb128 0x13
 2316 0045 00       		.byte	0
 2317 0046 00       		.byte	0
 2318 0047 06       		.uleb128 0x6
 2319 0048 0D       		.uleb128 0xd
 2320 0049 00       		.byte	0
 2321 004a 03       		.uleb128 0x3
ARM GAS  C:\Users\z80\AppData\Local\Temp\cct4UN1K.s 			page 42


 2322 004b 0E       		.uleb128 0xe
 2323 004c 3A       		.uleb128 0x3a
 2324 004d 0B       		.uleb128 0xb
 2325 004e 3B       		.uleb128 0x3b
 2326 004f 0B       		.uleb128 0xb
 2327 0050 49       		.uleb128 0x49
 2328 0051 13       		.uleb128 0x13
 2329 0052 38       		.uleb128 0x38
 2330 0053 0A       		.uleb128 0xa
 2331 0054 00       		.byte	0
 2332 0055 00       		.byte	0
 2333 0056 07       		.uleb128 0x7
 2334 0057 0D       		.uleb128 0xd
 2335 0058 00       		.byte	0
 2336 0059 03       		.uleb128 0x3
 2337 005a 08       		.uleb128 0x8
 2338 005b 3A       		.uleb128 0x3a
 2339 005c 0B       		.uleb128 0xb
 2340 005d 3B       		.uleb128 0x3b
 2341 005e 0B       		.uleb128 0xb
 2342 005f 49       		.uleb128 0x49
 2343 0060 13       		.uleb128 0x13
 2344 0061 38       		.uleb128 0x38
 2345 0062 0A       		.uleb128 0xa
 2346 0063 00       		.byte	0
 2347 0064 00       		.byte	0
 2348 0065 08       		.uleb128 0x8
 2349 0066 13       		.uleb128 0x13
 2350 0067 01       		.byte	0x1
 2351 0068 0B       		.uleb128 0xb
 2352 0069 0B       		.uleb128 0xb
 2353 006a 3A       		.uleb128 0x3a
 2354 006b 0B       		.uleb128 0xb
 2355 006c 3B       		.uleb128 0x3b
 2356 006d 0B       		.uleb128 0xb
 2357 006e 01       		.uleb128 0x1
 2358 006f 13       		.uleb128 0x13
 2359 0070 00       		.byte	0
 2360 0071 00       		.byte	0
 2361 0072 09       		.uleb128 0x9
 2362 0073 0F       		.uleb128 0xf
 2363 0074 00       		.byte	0
 2364 0075 0B       		.uleb128 0xb
 2365 0076 0B       		.uleb128 0xb
 2366 0077 49       		.uleb128 0x49
 2367 0078 13       		.uleb128 0x13
 2368 0079 00       		.byte	0
 2369 007a 00       		.byte	0
 2370 007b 0A       		.uleb128 0xa
 2371 007c 0F       		.uleb128 0xf
 2372 007d 00       		.byte	0
 2373 007e 0B       		.uleb128 0xb
 2374 007f 0B       		.uleb128 0xb
 2375 0080 00       		.byte	0
 2376 0081 00       		.byte	0
 2377 0082 0B       		.uleb128 0xb
 2378 0083 0D       		.uleb128 0xd
ARM GAS  C:\Users\z80\AppData\Local\Temp\cct4UN1K.s 			page 43


 2379 0084 00       		.byte	0
 2380 0085 03       		.uleb128 0x3
 2381 0086 08       		.uleb128 0x8
 2382 0087 3A       		.uleb128 0x3a
 2383 0088 0B       		.uleb128 0xb
 2384 0089 3B       		.uleb128 0x3b
 2385 008a 05       		.uleb128 0x5
 2386 008b 49       		.uleb128 0x49
 2387 008c 13       		.uleb128 0x13
 2388 008d 38       		.uleb128 0x38
 2389 008e 0A       		.uleb128 0xa
 2390 008f 00       		.byte	0
 2391 0090 00       		.byte	0
 2392 0091 0C       		.uleb128 0xc
 2393 0092 13       		.uleb128 0x13
 2394 0093 01       		.byte	0x1
 2395 0094 03       		.uleb128 0x3
 2396 0095 0E       		.uleb128 0xe
 2397 0096 0B       		.uleb128 0xb
 2398 0097 0B       		.uleb128 0xb
 2399 0098 3A       		.uleb128 0x3a
 2400 0099 0B       		.uleb128 0xb
 2401 009a 3B       		.uleb128 0x3b
 2402 009b 05       		.uleb128 0x5
 2403 009c 01       		.uleb128 0x1
 2404 009d 13       		.uleb128 0x13
 2405 009e 00       		.byte	0
 2406 009f 00       		.byte	0
 2407 00a0 0D       		.uleb128 0xd
 2408 00a1 35       		.uleb128 0x35
 2409 00a2 00       		.byte	0
 2410 00a3 49       		.uleb128 0x49
 2411 00a4 13       		.uleb128 0x13
 2412 00a5 00       		.byte	0
 2413 00a6 00       		.byte	0
 2414 00a7 0E       		.uleb128 0xe
 2415 00a8 17       		.uleb128 0x17
 2416 00a9 01       		.byte	0x1
 2417 00aa 0B       		.uleb128 0xb
 2418 00ab 0B       		.uleb128 0xb
 2419 00ac 3A       		.uleb128 0x3a
 2420 00ad 0B       		.uleb128 0xb
 2421 00ae 3B       		.uleb128 0x3b
 2422 00af 0B       		.uleb128 0xb
 2423 00b0 01       		.uleb128 0x1
 2424 00b1 13       		.uleb128 0x13
 2425 00b2 00       		.byte	0
 2426 00b3 00       		.byte	0
 2427 00b4 0F       		.uleb128 0xf
 2428 00b5 0D       		.uleb128 0xd
 2429 00b6 00       		.byte	0
 2430 00b7 03       		.uleb128 0x3
 2431 00b8 0E       		.uleb128 0xe
 2432 00b9 3A       		.uleb128 0x3a
 2433 00ba 0B       		.uleb128 0xb
 2434 00bb 3B       		.uleb128 0x3b
 2435 00bc 0B       		.uleb128 0xb
ARM GAS  C:\Users\z80\AppData\Local\Temp\cct4UN1K.s 			page 44


 2436 00bd 49       		.uleb128 0x49
 2437 00be 13       		.uleb128 0x13
 2438 00bf 00       		.byte	0
 2439 00c0 00       		.byte	0
 2440 00c1 10       		.uleb128 0x10
 2441 00c2 26       		.uleb128 0x26
 2442 00c3 00       		.byte	0
 2443 00c4 49       		.uleb128 0x49
 2444 00c5 13       		.uleb128 0x13
 2445 00c6 00       		.byte	0
 2446 00c7 00       		.byte	0
 2447 00c8 11       		.uleb128 0x11
 2448 00c9 15       		.uleb128 0x15
 2449 00ca 01       		.byte	0x1
 2450 00cb 27       		.uleb128 0x27
 2451 00cc 0C       		.uleb128 0xc
 2452 00cd 01       		.uleb128 0x1
 2453 00ce 13       		.uleb128 0x13
 2454 00cf 00       		.byte	0
 2455 00d0 00       		.byte	0
 2456 00d1 12       		.uleb128 0x12
 2457 00d2 05       		.uleb128 0x5
 2458 00d3 00       		.byte	0
 2459 00d4 49       		.uleb128 0x49
 2460 00d5 13       		.uleb128 0x13
 2461 00d6 00       		.byte	0
 2462 00d7 00       		.byte	0
 2463 00d8 13       		.uleb128 0x13
 2464 00d9 13       		.uleb128 0x13
 2465 00da 01       		.byte	0x1
 2466 00db 0B       		.uleb128 0xb
 2467 00dc 0B       		.uleb128 0xb
 2468 00dd 3A       		.uleb128 0x3a
 2469 00de 0B       		.uleb128 0xb
 2470 00df 3B       		.uleb128 0x3b
 2471 00e0 05       		.uleb128 0x5
 2472 00e1 01       		.uleb128 0x1
 2473 00e2 13       		.uleb128 0x13
 2474 00e3 00       		.byte	0
 2475 00e4 00       		.byte	0
 2476 00e5 14       		.uleb128 0x14
 2477 00e6 0D       		.uleb128 0xd
 2478 00e7 00       		.byte	0
 2479 00e8 03       		.uleb128 0x3
 2480 00e9 0E       		.uleb128 0xe
 2481 00ea 3A       		.uleb128 0x3a
 2482 00eb 0B       		.uleb128 0xb
 2483 00ec 3B       		.uleb128 0x3b
 2484 00ed 05       		.uleb128 0x5
 2485 00ee 49       		.uleb128 0x49
 2486 00ef 13       		.uleb128 0x13
 2487 00f0 38       		.uleb128 0x38
 2488 00f1 0A       		.uleb128 0xa
 2489 00f2 00       		.byte	0
 2490 00f3 00       		.byte	0
 2491 00f4 15       		.uleb128 0x15
 2492 00f5 16       		.uleb128 0x16
ARM GAS  C:\Users\z80\AppData\Local\Temp\cct4UN1K.s 			page 45


 2493 00f6 00       		.byte	0
 2494 00f7 03       		.uleb128 0x3
 2495 00f8 0E       		.uleb128 0xe
 2496 00f9 3A       		.uleb128 0x3a
 2497 00fa 0B       		.uleb128 0xb
 2498 00fb 3B       		.uleb128 0x3b
 2499 00fc 05       		.uleb128 0x5
 2500 00fd 49       		.uleb128 0x49
 2501 00fe 13       		.uleb128 0x13
 2502 00ff 00       		.byte	0
 2503 0100 00       		.byte	0
 2504 0101 16       		.uleb128 0x16
 2505 0102 04       		.uleb128 0x4
 2506 0103 01       		.byte	0x1
 2507 0104 0B       		.uleb128 0xb
 2508 0105 0B       		.uleb128 0xb
 2509 0106 3A       		.uleb128 0x3a
 2510 0107 0B       		.uleb128 0xb
 2511 0108 3B       		.uleb128 0x3b
 2512 0109 0B       		.uleb128 0xb
 2513 010a 01       		.uleb128 0x1
 2514 010b 13       		.uleb128 0x13
 2515 010c 00       		.byte	0
 2516 010d 00       		.byte	0
 2517 010e 17       		.uleb128 0x17
 2518 010f 28       		.uleb128 0x28
 2519 0110 00       		.byte	0
 2520 0111 03       		.uleb128 0x3
 2521 0112 0E       		.uleb128 0xe
 2522 0113 1C       		.uleb128 0x1c
 2523 0114 0D       		.uleb128 0xd
 2524 0115 00       		.byte	0
 2525 0116 00       		.byte	0
 2526 0117 18       		.uleb128 0x18
 2527 0118 2E       		.uleb128 0x2e
 2528 0119 01       		.byte	0x1
 2529 011a 3F       		.uleb128 0x3f
 2530 011b 0C       		.uleb128 0xc
 2531 011c 03       		.uleb128 0x3
 2532 011d 0E       		.uleb128 0xe
 2533 011e 3A       		.uleb128 0x3a
 2534 011f 0B       		.uleb128 0xb
 2535 0120 3B       		.uleb128 0x3b
 2536 0121 0B       		.uleb128 0xb
 2537 0122 27       		.uleb128 0x27
 2538 0123 0C       		.uleb128 0xc
 2539 0124 49       		.uleb128 0x49
 2540 0125 13       		.uleb128 0x13
 2541 0126 20       		.uleb128 0x20
 2542 0127 0B       		.uleb128 0xb
 2543 0128 01       		.uleb128 0x1
 2544 0129 13       		.uleb128 0x13
 2545 012a 00       		.byte	0
 2546 012b 00       		.byte	0
 2547 012c 19       		.uleb128 0x19
 2548 012d 05       		.uleb128 0x5
 2549 012e 00       		.byte	0
ARM GAS  C:\Users\z80\AppData\Local\Temp\cct4UN1K.s 			page 46


 2550 012f 03       		.uleb128 0x3
 2551 0130 0E       		.uleb128 0xe
 2552 0131 3A       		.uleb128 0x3a
 2553 0132 0B       		.uleb128 0xb
 2554 0133 3B       		.uleb128 0x3b
 2555 0134 0B       		.uleb128 0xb
 2556 0135 49       		.uleb128 0x49
 2557 0136 13       		.uleb128 0x13
 2558 0137 00       		.byte	0
 2559 0138 00       		.byte	0
 2560 0139 1A       		.uleb128 0x1a
 2561 013a 34       		.uleb128 0x34
 2562 013b 00       		.byte	0
 2563 013c 03       		.uleb128 0x3
 2564 013d 08       		.uleb128 0x8
 2565 013e 3A       		.uleb128 0x3a
 2566 013f 0B       		.uleb128 0xb
 2567 0140 3B       		.uleb128 0x3b
 2568 0141 0B       		.uleb128 0xb
 2569 0142 49       		.uleb128 0x49
 2570 0143 13       		.uleb128 0x13
 2571 0144 00       		.byte	0
 2572 0145 00       		.byte	0
 2573 0146 1B       		.uleb128 0x1b
 2574 0147 34       		.uleb128 0x34
 2575 0148 00       		.byte	0
 2576 0149 03       		.uleb128 0x3
 2577 014a 0E       		.uleb128 0xe
 2578 014b 3A       		.uleb128 0x3a
 2579 014c 0B       		.uleb128 0xb
 2580 014d 3B       		.uleb128 0x3b
 2581 014e 0B       		.uleb128 0xb
 2582 014f 49       		.uleb128 0x49
 2583 0150 13       		.uleb128 0x13
 2584 0151 00       		.byte	0
 2585 0152 00       		.byte	0
 2586 0153 1C       		.uleb128 0x1c
 2587 0154 0B       		.uleb128 0xb
 2588 0155 01       		.byte	0x1
 2589 0156 01       		.uleb128 0x1
 2590 0157 13       		.uleb128 0x13
 2591 0158 00       		.byte	0
 2592 0159 00       		.byte	0
 2593 015a 1D       		.uleb128 0x1d
 2594 015b 0B       		.uleb128 0xb
 2595 015c 01       		.byte	0x1
 2596 015d 00       		.byte	0
 2597 015e 00       		.byte	0
 2598 015f 1E       		.uleb128 0x1e
 2599 0160 2E       		.uleb128 0x2e
 2600 0161 01       		.byte	0x1
 2601 0162 03       		.uleb128 0x3
 2602 0163 0E       		.uleb128 0xe
 2603 0164 3A       		.uleb128 0x3a
 2604 0165 0B       		.uleb128 0xb
 2605 0166 3B       		.uleb128 0x3b
 2606 0167 0B       		.uleb128 0xb
ARM GAS  C:\Users\z80\AppData\Local\Temp\cct4UN1K.s 			page 47


 2607 0168 27       		.uleb128 0x27
 2608 0169 0C       		.uleb128 0xc
 2609 016a 11       		.uleb128 0x11
 2610 016b 01       		.uleb128 0x1
 2611 016c 12       		.uleb128 0x12
 2612 016d 01       		.uleb128 0x1
 2613 016e 40       		.uleb128 0x40
 2614 016f 06       		.uleb128 0x6
 2615 0170 01       		.uleb128 0x1
 2616 0171 13       		.uleb128 0x13
 2617 0172 00       		.byte	0
 2618 0173 00       		.byte	0
 2619 0174 1F       		.uleb128 0x1f
 2620 0175 05       		.uleb128 0x5
 2621 0176 00       		.byte	0
 2622 0177 03       		.uleb128 0x3
 2623 0178 0E       		.uleb128 0xe
 2624 0179 3A       		.uleb128 0x3a
 2625 017a 0B       		.uleb128 0xb
 2626 017b 3B       		.uleb128 0x3b
 2627 017c 0B       		.uleb128 0xb
 2628 017d 49       		.uleb128 0x49
 2629 017e 13       		.uleb128 0x13
 2630 017f 02       		.uleb128 0x2
 2631 0180 06       		.uleb128 0x6
 2632 0181 00       		.byte	0
 2633 0182 00       		.byte	0
 2634 0183 20       		.uleb128 0x20
 2635 0184 0B       		.uleb128 0xb
 2636 0185 01       		.byte	0x1
 2637 0186 11       		.uleb128 0x11
 2638 0187 01       		.uleb128 0x1
 2639 0188 12       		.uleb128 0x12
 2640 0189 01       		.uleb128 0x1
 2641 018a 01       		.uleb128 0x1
 2642 018b 13       		.uleb128 0x13
 2643 018c 00       		.byte	0
 2644 018d 00       		.byte	0
 2645 018e 21       		.uleb128 0x21
 2646 018f 34       		.uleb128 0x34
 2647 0190 00       		.byte	0
 2648 0191 03       		.uleb128 0x3
 2649 0192 08       		.uleb128 0x8
 2650 0193 3A       		.uleb128 0x3a
 2651 0194 0B       		.uleb128 0xb
 2652 0195 3B       		.uleb128 0x3b
 2653 0196 0B       		.uleb128 0xb
 2654 0197 49       		.uleb128 0x49
 2655 0198 13       		.uleb128 0x13
 2656 0199 02       		.uleb128 0x2
 2657 019a 06       		.uleb128 0x6
 2658 019b 00       		.byte	0
 2659 019c 00       		.byte	0
 2660 019d 22       		.uleb128 0x22
 2661 019e 0B       		.uleb128 0xb
 2662 019f 01       		.byte	0x1
 2663 01a0 11       		.uleb128 0x11
ARM GAS  C:\Users\z80\AppData\Local\Temp\cct4UN1K.s 			page 48


 2664 01a1 01       		.uleb128 0x1
 2665 01a2 12       		.uleb128 0x12
 2666 01a3 01       		.uleb128 0x1
 2667 01a4 00       		.byte	0
 2668 01a5 00       		.byte	0
 2669 01a6 23       		.uleb128 0x23
 2670 01a7 2E       		.uleb128 0x2e
 2671 01a8 01       		.byte	0x1
 2672 01a9 3F       		.uleb128 0x3f
 2673 01aa 0C       		.uleb128 0xc
 2674 01ab 03       		.uleb128 0x3
 2675 01ac 0E       		.uleb128 0xe
 2676 01ad 3A       		.uleb128 0x3a
 2677 01ae 0B       		.uleb128 0xb
 2678 01af 3B       		.uleb128 0x3b
 2679 01b0 0B       		.uleb128 0xb
 2680 01b1 27       		.uleb128 0x27
 2681 01b2 0C       		.uleb128 0xc
 2682 01b3 11       		.uleb128 0x11
 2683 01b4 01       		.uleb128 0x1
 2684 01b5 12       		.uleb128 0x12
 2685 01b6 01       		.uleb128 0x1
 2686 01b7 40       		.uleb128 0x40
 2687 01b8 0A       		.uleb128 0xa
 2688 01b9 01       		.uleb128 0x1
 2689 01ba 13       		.uleb128 0x13
 2690 01bb 00       		.byte	0
 2691 01bc 00       		.byte	0
 2692 01bd 24       		.uleb128 0x24
 2693 01be 05       		.uleb128 0x5
 2694 01bf 00       		.byte	0
 2695 01c0 03       		.uleb128 0x3
 2696 01c1 0E       		.uleb128 0xe
 2697 01c2 3A       		.uleb128 0x3a
 2698 01c3 0B       		.uleb128 0xb
 2699 01c4 3B       		.uleb128 0x3b
 2700 01c5 0B       		.uleb128 0xb
 2701 01c6 49       		.uleb128 0x49
 2702 01c7 13       		.uleb128 0x13
 2703 01c8 02       		.uleb128 0x2
 2704 01c9 0A       		.uleb128 0xa
 2705 01ca 00       		.byte	0
 2706 01cb 00       		.byte	0
 2707 01cc 25       		.uleb128 0x25
 2708 01cd 2E       		.uleb128 0x2e
 2709 01ce 01       		.byte	0x1
 2710 01cf 31       		.uleb128 0x31
 2711 01d0 13       		.uleb128 0x13
 2712 01d1 11       		.uleb128 0x11
 2713 01d2 01       		.uleb128 0x1
 2714 01d3 12       		.uleb128 0x12
 2715 01d4 01       		.uleb128 0x1
 2716 01d5 40       		.uleb128 0x40
 2717 01d6 06       		.uleb128 0x6
 2718 01d7 01       		.uleb128 0x1
 2719 01d8 13       		.uleb128 0x13
 2720 01d9 00       		.byte	0
ARM GAS  C:\Users\z80\AppData\Local\Temp\cct4UN1K.s 			page 49


 2721 01da 00       		.byte	0
 2722 01db 26       		.uleb128 0x26
 2723 01dc 05       		.uleb128 0x5
 2724 01dd 00       		.byte	0
 2725 01de 31       		.uleb128 0x31
 2726 01df 13       		.uleb128 0x13
 2727 01e0 02       		.uleb128 0x2
 2728 01e1 06       		.uleb128 0x6
 2729 01e2 00       		.byte	0
 2730 01e3 00       		.byte	0
 2731 01e4 27       		.uleb128 0x27
 2732 01e5 34       		.uleb128 0x34
 2733 01e6 00       		.byte	0
 2734 01e7 31       		.uleb128 0x31
 2735 01e8 13       		.uleb128 0x13
 2736 01e9 02       		.uleb128 0x2
 2737 01ea 06       		.uleb128 0x6
 2738 01eb 00       		.byte	0
 2739 01ec 00       		.byte	0
 2740 01ed 28       		.uleb128 0x28
 2741 01ee 1D       		.uleb128 0x1d
 2742 01ef 01       		.byte	0x1
 2743 01f0 31       		.uleb128 0x31
 2744 01f1 13       		.uleb128 0x13
 2745 01f2 11       		.uleb128 0x11
 2746 01f3 01       		.uleb128 0x1
 2747 01f4 12       		.uleb128 0x12
 2748 01f5 01       		.uleb128 0x1
 2749 01f6 58       		.uleb128 0x58
 2750 01f7 0B       		.uleb128 0xb
 2751 01f8 59       		.uleb128 0x59
 2752 01f9 0B       		.uleb128 0xb
 2753 01fa 00       		.byte	0
 2754 01fb 00       		.byte	0
 2755 01fc 29       		.uleb128 0x29
 2756 01fd 05       		.uleb128 0x5
 2757 01fe 00       		.byte	0
 2758 01ff 31       		.uleb128 0x31
 2759 0200 13       		.uleb128 0x13
 2760 0201 02       		.uleb128 0x2
 2761 0202 0A       		.uleb128 0xa
 2762 0203 00       		.byte	0
 2763 0204 00       		.byte	0
 2764 0205 2A       		.uleb128 0x2a
 2765 0206 34       		.uleb128 0x34
 2766 0207 00       		.byte	0
 2767 0208 31       		.uleb128 0x31
 2768 0209 13       		.uleb128 0x13
 2769 020a 1C       		.uleb128 0x1c
 2770 020b 0B       		.uleb128 0xb
 2771 020c 00       		.byte	0
 2772 020d 00       		.byte	0
 2773 020e 2B       		.uleb128 0x2b
 2774 020f 34       		.uleb128 0x34
 2775 0210 00       		.byte	0
 2776 0211 31       		.uleb128 0x31
 2777 0212 13       		.uleb128 0x13
ARM GAS  C:\Users\z80\AppData\Local\Temp\cct4UN1K.s 			page 50


 2778 0213 00       		.byte	0
 2779 0214 00       		.byte	0
 2780 0215 2C       		.uleb128 0x2c
 2781 0216 2E       		.uleb128 0x2e
 2782 0217 00       		.byte	0
 2783 0218 3F       		.uleb128 0x3f
 2784 0219 0C       		.uleb128 0xc
 2785 021a 03       		.uleb128 0x3
 2786 021b 0E       		.uleb128 0xe
 2787 021c 3A       		.uleb128 0x3a
 2788 021d 0B       		.uleb128 0xb
 2789 021e 3B       		.uleb128 0x3b
 2790 021f 0B       		.uleb128 0xb
 2791 0220 27       		.uleb128 0x27
 2792 0221 0C       		.uleb128 0xc
 2793 0222 11       		.uleb128 0x11
 2794 0223 01       		.uleb128 0x1
 2795 0224 12       		.uleb128 0x12
 2796 0225 01       		.uleb128 0x1
 2797 0226 40       		.uleb128 0x40
 2798 0227 06       		.uleb128 0x6
 2799 0228 00       		.byte	0
 2800 0229 00       		.byte	0
 2801 022a 2D       		.uleb128 0x2d
 2802 022b 2E       		.uleb128 0x2e
 2803 022c 01       		.byte	0x1
 2804 022d 3F       		.uleb128 0x3f
 2805 022e 0C       		.uleb128 0xc
 2806 022f 03       		.uleb128 0x3
 2807 0230 0E       		.uleb128 0xe
 2808 0231 3A       		.uleb128 0x3a
 2809 0232 0B       		.uleb128 0xb
 2810 0233 3B       		.uleb128 0x3b
 2811 0234 0B       		.uleb128 0xb
 2812 0235 27       		.uleb128 0x27
 2813 0236 0C       		.uleb128 0xc
 2814 0237 49       		.uleb128 0x49
 2815 0238 13       		.uleb128 0x13
 2816 0239 11       		.uleb128 0x11
 2817 023a 01       		.uleb128 0x1
 2818 023b 12       		.uleb128 0x12
 2819 023c 01       		.uleb128 0x1
 2820 023d 40       		.uleb128 0x40
 2821 023e 06       		.uleb128 0x6
 2822 023f 01       		.uleb128 0x1
 2823 0240 13       		.uleb128 0x13
 2824 0241 00       		.byte	0
 2825 0242 00       		.byte	0
 2826 0243 2E       		.uleb128 0x2e
 2827 0244 2E       		.uleb128 0x2e
 2828 0245 01       		.byte	0x1
 2829 0246 3F       		.uleb128 0x3f
 2830 0247 0C       		.uleb128 0xc
 2831 0248 03       		.uleb128 0x3
 2832 0249 0E       		.uleb128 0xe
 2833 024a 3A       		.uleb128 0x3a
 2834 024b 0B       		.uleb128 0xb
ARM GAS  C:\Users\z80\AppData\Local\Temp\cct4UN1K.s 			page 51


 2835 024c 3B       		.uleb128 0x3b
 2836 024d 0B       		.uleb128 0xb
 2837 024e 27       		.uleb128 0x27
 2838 024f 0C       		.uleb128 0xc
 2839 0250 11       		.uleb128 0x11
 2840 0251 01       		.uleb128 0x1
 2841 0252 12       		.uleb128 0x12
 2842 0253 01       		.uleb128 0x1
 2843 0254 40       		.uleb128 0x40
 2844 0255 06       		.uleb128 0x6
 2845 0256 01       		.uleb128 0x1
 2846 0257 13       		.uleb128 0x13
 2847 0258 00       		.byte	0
 2848 0259 00       		.byte	0
 2849 025a 2F       		.uleb128 0x2f
 2850 025b 34       		.uleb128 0x34
 2851 025c 00       		.byte	0
 2852 025d 03       		.uleb128 0x3
 2853 025e 08       		.uleb128 0x8
 2854 025f 3A       		.uleb128 0x3a
 2855 0260 0B       		.uleb128 0xb
 2856 0261 3B       		.uleb128 0x3b
 2857 0262 0B       		.uleb128 0xb
 2858 0263 49       		.uleb128 0x49
 2859 0264 13       		.uleb128 0x13
 2860 0265 02       		.uleb128 0x2
 2861 0266 0A       		.uleb128 0xa
 2862 0267 00       		.byte	0
 2863 0268 00       		.byte	0
 2864 0269 30       		.uleb128 0x30
 2865 026a 34       		.uleb128 0x34
 2866 026b 00       		.byte	0
 2867 026c 03       		.uleb128 0x3
 2868 026d 0E       		.uleb128 0xe
 2869 026e 3A       		.uleb128 0x3a
 2870 026f 0B       		.uleb128 0xb
 2871 0270 3B       		.uleb128 0x3b
 2872 0271 0B       		.uleb128 0xb
 2873 0272 49       		.uleb128 0x49
 2874 0273 13       		.uleb128 0x13
 2875 0274 02       		.uleb128 0x2
 2876 0275 06       		.uleb128 0x6
 2877 0276 00       		.byte	0
 2878 0277 00       		.byte	0
 2879 0278 31       		.uleb128 0x31
 2880 0279 0B       		.uleb128 0xb
 2881 027a 01       		.byte	0x1
 2882 027b 55       		.uleb128 0x55
 2883 027c 06       		.uleb128 0x6
 2884 027d 01       		.uleb128 0x1
 2885 027e 13       		.uleb128 0x13
 2886 027f 00       		.byte	0
 2887 0280 00       		.byte	0
 2888 0281 32       		.uleb128 0x32
 2889 0282 34       		.uleb128 0x34
 2890 0283 00       		.byte	0
 2891 0284 03       		.uleb128 0x3
ARM GAS  C:\Users\z80\AppData\Local\Temp\cct4UN1K.s 			page 52


 2892 0285 0E       		.uleb128 0xe
 2893 0286 3A       		.uleb128 0x3a
 2894 0287 0B       		.uleb128 0xb
 2895 0288 3B       		.uleb128 0x3b
 2896 0289 0B       		.uleb128 0xb
 2897 028a 49       		.uleb128 0x49
 2898 028b 13       		.uleb128 0x13
 2899 028c 02       		.uleb128 0x2
 2900 028d 0A       		.uleb128 0xa
 2901 028e 00       		.byte	0
 2902 028f 00       		.byte	0
 2903 0290 33       		.uleb128 0x33
 2904 0291 34       		.uleb128 0x34
 2905 0292 00       		.byte	0
 2906 0293 03       		.uleb128 0x3
 2907 0294 0E       		.uleb128 0xe
 2908 0295 3A       		.uleb128 0x3a
 2909 0296 0B       		.uleb128 0xb
 2910 0297 3B       		.uleb128 0x3b
 2911 0298 05       		.uleb128 0x5
 2912 0299 49       		.uleb128 0x49
 2913 029a 13       		.uleb128 0x13
 2914 029b 3F       		.uleb128 0x3f
 2915 029c 0C       		.uleb128 0xc
 2916 029d 3C       		.uleb128 0x3c
 2917 029e 0C       		.uleb128 0xc
 2918 029f 00       		.byte	0
 2919 02a0 00       		.byte	0
 2920 02a1 34       		.uleb128 0x34
 2921 02a2 34       		.uleb128 0x34
 2922 02a3 00       		.byte	0
 2923 02a4 03       		.uleb128 0x3
 2924 02a5 0E       		.uleb128 0xe
 2925 02a6 3A       		.uleb128 0x3a
 2926 02a7 0B       		.uleb128 0xb
 2927 02a8 3B       		.uleb128 0x3b
 2928 02a9 0B       		.uleb128 0xb
 2929 02aa 49       		.uleb128 0x49
 2930 02ab 13       		.uleb128 0x13
 2931 02ac 3F       		.uleb128 0x3f
 2932 02ad 0C       		.uleb128 0xc
 2933 02ae 02       		.uleb128 0x2
 2934 02af 0A       		.uleb128 0xa
 2935 02b0 00       		.byte	0
 2936 02b1 00       		.byte	0
 2937 02b2 35       		.uleb128 0x35
 2938 02b3 01       		.uleb128 0x1
 2939 02b4 01       		.byte	0x1
 2940 02b5 49       		.uleb128 0x49
 2941 02b6 13       		.uleb128 0x13
 2942 02b7 01       		.uleb128 0x1
 2943 02b8 13       		.uleb128 0x13
 2944 02b9 00       		.byte	0
 2945 02ba 00       		.byte	0
 2946 02bb 36       		.uleb128 0x36
 2947 02bc 21       		.uleb128 0x21
 2948 02bd 00       		.byte	0
ARM GAS  C:\Users\z80\AppData\Local\Temp\cct4UN1K.s 			page 53


 2949 02be 49       		.uleb128 0x49
 2950 02bf 13       		.uleb128 0x13
 2951 02c0 2F       		.uleb128 0x2f
 2952 02c1 0B       		.uleb128 0xb
 2953 02c2 00       		.byte	0
 2954 02c3 00       		.byte	0
 2955 02c4 00       		.byte	0
 2956              		.section	.debug_loc,"",%progbits
 2957              	.Ldebug_loc0:
 2958              	.LLST0:
 2959 0000 00000000 		.4byte	.LFB68
 2960 0004 02000000 		.4byte	.LCFI0
 2961 0008 0200     		.2byte	0x2
 2962 000a 7D       		.byte	0x7d
 2963 000b 00       		.sleb128 0
 2964 000c 02000000 		.4byte	.LCFI0
 2965 0010 32000000 		.4byte	.LFE68
 2966 0014 0200     		.2byte	0x2
 2967 0016 7D       		.byte	0x7d
 2968 0017 10       		.sleb128 16
 2969 0018 00000000 		.4byte	0
 2970 001c 00000000 		.4byte	0
 2971              	.LLST1:
 2972 0020 00000000 		.4byte	.LVL0
 2973 0024 17000000 		.4byte	.LVL3-1
 2974 0028 0100     		.2byte	0x1
 2975 002a 50       		.byte	0x50
 2976 002b 00000000 		.4byte	0
 2977 002f 00000000 		.4byte	0
 2978              	.LLST2:
 2979 0033 14000000 		.4byte	.LVL2
 2980 0037 17000000 		.4byte	.LVL3-1
 2981 003b 0100     		.2byte	0x1
 2982 003d 53       		.byte	0x53
 2983 003e 00000000 		.4byte	0
 2984 0042 00000000 		.4byte	0
 2985              	.LLST3:
 2986 0046 2E000000 		.4byte	.LVL5
 2987 004a 32000000 		.4byte	.LFE68
 2988 004e 0100     		.2byte	0x1
 2989 0050 53       		.byte	0x53
 2990 0051 00000000 		.4byte	0
 2991 0055 00000000 		.4byte	0
 2992              	.LLST4:
 2993 0059 00000000 		.4byte	.LVL6
 2994 005d 10000000 		.4byte	.LVL7
 2995 0061 0100     		.2byte	0x1
 2996 0063 50       		.byte	0x50
 2997 0064 00000000 		.4byte	0
 2998 0068 00000000 		.4byte	0
 2999              	.LLST5:
 3000 006c 00000000 		.4byte	.LFB64
 3001 0070 02000000 		.4byte	.LCFI1
 3002 0074 0200     		.2byte	0x2
 3003 0076 7D       		.byte	0x7d
 3004 0077 00       		.sleb128 0
 3005 0078 02000000 		.4byte	.LCFI1
ARM GAS  C:\Users\z80\AppData\Local\Temp\cct4UN1K.s 			page 54


 3006 007c 56000000 		.4byte	.LFE64
 3007 0080 0200     		.2byte	0x2
 3008 0082 7D       		.byte	0x7d
 3009 0083 18       		.sleb128 24
 3010 0084 00000000 		.4byte	0
 3011 0088 00000000 		.4byte	0
 3012              	.LLST6:
 3013 008c 00000000 		.4byte	.LVL8
 3014 0090 17000000 		.4byte	.LVL11-1
 3015 0094 0100     		.2byte	0x1
 3016 0096 50       		.byte	0x50
 3017 0097 17000000 		.4byte	.LVL11-1
 3018 009b 56000000 		.4byte	.LFE64
 3019 009f 0100     		.2byte	0x1
 3020 00a1 56       		.byte	0x56
 3021 00a2 00000000 		.4byte	0
 3022 00a6 00000000 		.4byte	0
 3023              	.LLST7:
 3024 00aa 00000000 		.4byte	.LVL8
 3025 00ae 17000000 		.4byte	.LVL11-1
 3026 00b2 0100     		.2byte	0x1
 3027 00b4 51       		.byte	0x51
 3028 00b5 17000000 		.4byte	.LVL11-1
 3029 00b9 56000000 		.4byte	.LFE64
 3030 00bd 0100     		.2byte	0x1
 3031 00bf 55       		.byte	0x55
 3032 00c0 00000000 		.4byte	0
 3033 00c4 00000000 		.4byte	0
 3034              	.LLST8:
 3035 00c8 2A000000 		.4byte	.LVL16
 3036 00cc 2C000000 		.4byte	.LVL17
 3037 00d0 0100     		.2byte	0x1
 3038 00d2 50       		.byte	0x50
 3039 00d3 00000000 		.4byte	0
 3040 00d7 00000000 		.4byte	0
 3041              	.LLST9:
 3042 00db 1A000000 		.4byte	.LVL12
 3043 00df 1D000000 		.4byte	.LVL13-1
 3044 00e3 0500     		.2byte	0x5
 3045 00e5 03       		.byte	0x3
 3046 00e6 08000000 		.4byte	dac_queue+8
 3047 00ea 1D000000 		.4byte	.LVL13-1
 3048 00ee 56000000 		.4byte	.LFE64
 3049 00f2 0100     		.2byte	0x1
 3050 00f4 57       		.byte	0x57
 3051 00f5 00000000 		.4byte	0
 3052 00f9 00000000 		.4byte	0
 3053              	.LLST10:
 3054 00fd 0C000000 		.4byte	.LVL10
 3055 0101 17000000 		.4byte	.LVL11-1
 3056 0105 0100     		.2byte	0x1
 3057 0107 53       		.byte	0x53
 3058 0108 00000000 		.4byte	0
 3059 010c 00000000 		.4byte	0
 3060              	.LLST11:
 3061 0110 24000000 		.4byte	.LVL15
 3062 0114 37000000 		.4byte	.LVL18-1
ARM GAS  C:\Users\z80\AppData\Local\Temp\cct4UN1K.s 			page 55


 3063 0118 0100     		.2byte	0x1
 3064 011a 53       		.byte	0x53
 3065 011b 00000000 		.4byte	0
 3066 011f 00000000 		.4byte	0
 3067              	.LLST12:
 3068 0123 00000000 		.4byte	.LFB62
 3069 0127 02000000 		.4byte	.LCFI2
 3070 012b 0200     		.2byte	0x2
 3071 012d 7D       		.byte	0x7d
 3072 012e 00       		.sleb128 0
 3073 012f 02000000 		.4byte	.LCFI2
 3074 0133 C2000000 		.4byte	.LFE62
 3075 0137 0200     		.2byte	0x2
 3076 0139 7D       		.byte	0x7d
 3077 013a 18       		.sleb128 24
 3078 013b 00000000 		.4byte	0
 3079 013f 00000000 		.4byte	0
 3080              	.LLST13:
 3081 0143 00000000 		.4byte	.LFB65
 3082 0147 02000000 		.4byte	.LCFI3
 3083 014b 0200     		.2byte	0x2
 3084 014d 7D       		.byte	0x7d
 3085 014e 00       		.sleb128 0
 3086 014f 02000000 		.4byte	.LCFI3
 3087 0153 1C000000 		.4byte	.LFE65
 3088 0157 0200     		.2byte	0x2
 3089 0159 7D       		.byte	0x7d
 3090 015a 10       		.sleb128 16
 3091 015b 00000000 		.4byte	0
 3092 015f 00000000 		.4byte	0
 3093              	.LLST14:
 3094 0163 00000000 		.4byte	.LVL20
 3095 0167 08000000 		.4byte	.LVL21
 3096 016b 0100     		.2byte	0x1
 3097 016d 50       		.byte	0x50
 3098 016e 08000000 		.4byte	.LVL21
 3099 0172 0D000000 		.4byte	.LVL23-1
 3100 0176 0100     		.2byte	0x1
 3101 0178 53       		.byte	0x53
 3102 0179 00000000 		.4byte	0
 3103 017d 00000000 		.4byte	0
 3104              	.LLST15:
 3105 0181 00000000 		.4byte	.LVL20
 3106 0185 0A000000 		.4byte	.LVL22
 3107 0189 0100     		.2byte	0x1
 3108 018b 51       		.byte	0x51
 3109 018c 0A000000 		.4byte	.LVL22
 3110 0190 1C000000 		.4byte	.LFE65
 3111 0194 0100     		.2byte	0x1
 3112 0196 55       		.byte	0x55
 3113 0197 00000000 		.4byte	0
 3114 019b 00000000 		.4byte	0
 3115              	.LLST16:
 3116 019f 12000000 		.4byte	.LVL24
 3117 01a3 14000000 		.4byte	.LVL25
 3118 01a7 0100     		.2byte	0x1
 3119 01a9 50       		.byte	0x50
ARM GAS  C:\Users\z80\AppData\Local\Temp\cct4UN1K.s 			page 56


 3120 01aa 14000000 		.4byte	.LVL25
 3121 01ae 18000000 		.4byte	.LVL26
 3122 01b2 0100     		.2byte	0x1
 3123 01b4 54       		.byte	0x54
 3124 01b5 18000000 		.4byte	.LVL26
 3125 01b9 1A000000 		.4byte	.LVL27
 3126 01bd 0600     		.2byte	0x6
 3127 01bf 70       		.byte	0x70
 3128 01c0 00       		.sleb128 0
 3129 01c1 74       		.byte	0x74
 3130 01c2 00       		.sleb128 0
 3131 01c3 22       		.byte	0x22
 3132 01c4 9F       		.byte	0x9f
 3133 01c5 1A000000 		.4byte	.LVL27
 3134 01c9 1C000000 		.4byte	.LFE65
 3135 01cd 0100     		.2byte	0x1
 3136 01cf 50       		.byte	0x50
 3137 01d0 00000000 		.4byte	0
 3138 01d4 00000000 		.4byte	0
 3139              	.LLST17:
 3140 01d8 00000000 		.4byte	.LFB66
 3141 01dc 02000000 		.4byte	.LCFI4
 3142 01e0 0200     		.2byte	0x2
 3143 01e2 7D       		.byte	0x7d
 3144 01e3 00       		.sleb128 0
 3145 01e4 02000000 		.4byte	.LCFI4
 3146 01e8 1C000000 		.4byte	.LFE66
 3147 01ec 0200     		.2byte	0x2
 3148 01ee 7D       		.byte	0x7d
 3149 01ef 10       		.sleb128 16
 3150 01f0 00000000 		.4byte	0
 3151 01f4 00000000 		.4byte	0
 3152              	.LLST18:
 3153 01f8 00000000 		.4byte	.LVL28
 3154 01fc 08000000 		.4byte	.LVL29
 3155 0200 0100     		.2byte	0x1
 3156 0202 50       		.byte	0x50
 3157 0203 08000000 		.4byte	.LVL29
 3158 0207 0D000000 		.4byte	.LVL31-1
 3159 020b 0100     		.2byte	0x1
 3160 020d 53       		.byte	0x53
 3161 020e 00000000 		.4byte	0
 3162 0212 00000000 		.4byte	0
 3163              	.LLST19:
 3164 0216 00000000 		.4byte	.LVL28
 3165 021a 0A000000 		.4byte	.LVL30
 3166 021e 0100     		.2byte	0x1
 3167 0220 51       		.byte	0x51
 3168 0221 0A000000 		.4byte	.LVL30
 3169 0225 1C000000 		.4byte	.LFE66
 3170 0229 0100     		.2byte	0x1
 3171 022b 55       		.byte	0x55
 3172 022c 00000000 		.4byte	0
 3173 0230 00000000 		.4byte	0
 3174              	.LLST20:
 3175 0234 12000000 		.4byte	.LVL32
 3176 0238 14000000 		.4byte	.LVL33
ARM GAS  C:\Users\z80\AppData\Local\Temp\cct4UN1K.s 			page 57


 3177 023c 0100     		.2byte	0x1
 3178 023e 50       		.byte	0x50
 3179 023f 14000000 		.4byte	.LVL33
 3180 0243 18000000 		.4byte	.LVL34
 3181 0247 0100     		.2byte	0x1
 3182 0249 54       		.byte	0x54
 3183 024a 18000000 		.4byte	.LVL34
 3184 024e 1A000000 		.4byte	.LVL35
 3185 0252 0600     		.2byte	0x6
 3186 0254 70       		.byte	0x70
 3187 0255 00       		.sleb128 0
 3188 0256 74       		.byte	0x74
 3189 0257 00       		.sleb128 0
 3190 0258 22       		.byte	0x22
 3191 0259 9F       		.byte	0x9f
 3192 025a 1A000000 		.4byte	.LVL35
 3193 025e 1C000000 		.4byte	.LFE66
 3194 0262 0100     		.2byte	0x1
 3195 0264 50       		.byte	0x50
 3196 0265 00000000 		.4byte	0
 3197 0269 00000000 		.4byte	0
 3198              	.LLST21:
 3199 026d 00000000 		.4byte	.LFB67
 3200 0271 02000000 		.4byte	.LCFI5
 3201 0275 0200     		.2byte	0x2
 3202 0277 7D       		.byte	0x7d
 3203 0278 00       		.sleb128 0
 3204 0279 02000000 		.4byte	.LCFI5
 3205 027d FE000000 		.4byte	.LFE67
 3206 0281 0200     		.2byte	0x2
 3207 0283 7D       		.byte	0x7d
 3208 0284 18       		.sleb128 24
 3209 0285 00000000 		.4byte	0
 3210 0289 00000000 		.4byte	0
 3211              	.LLST22:
 3212 028d 00000000 		.4byte	.LVL36
 3213 0291 2E000000 		.4byte	.LVL37
 3214 0295 1500     		.2byte	0x15
 3215 0297 03       		.byte	0x3
 3216 0298 10000000 		.4byte	dac_queue+16
 3217 029c 06       		.byte	0x6
 3218 029d 03       		.byte	0x3
 3219 029e 0C000000 		.4byte	dac_queue+12
 3220 02a2 06       		.byte	0x6
 3221 02a3 1C       		.byte	0x1c
 3222 02a4 03       		.byte	0x3
 3223 02a5 08000000 		.4byte	dac_queue+8
 3224 02a9 06       		.byte	0x6
 3225 02aa 1C       		.byte	0x1c
 3226 02ab 9F       		.byte	0x9f
 3227 02ac 9A000000 		.4byte	.LVL38
 3228 02b0 9F000000 		.4byte	.LVL39-1
 3229 02b4 0100     		.2byte	0x1
 3230 02b6 53       		.byte	0x53
 3231 02b7 00000000 		.4byte	0
 3232 02bb 00000000 		.4byte	0
 3233              	.LLST23:
ARM GAS  C:\Users\z80\AppData\Local\Temp\cct4UN1K.s 			page 58


 3234 02bf A0000000 		.4byte	.LVL39
 3235 02c3 AC000000 		.4byte	.LVL40
 3236 02c7 0100     		.2byte	0x1
 3237 02c9 50       		.byte	0x50
 3238 02ca B2000000 		.4byte	.LVL41
 3239 02ce B4000000 		.4byte	.LVL42
 3240 02d2 0100     		.2byte	0x1
 3241 02d4 50       		.byte	0x50
 3242 02d5 B4000000 		.4byte	.LVL42
 3243 02d9 B8000000 		.4byte	.LVL43
 3244 02dd 0100     		.2byte	0x1
 3245 02df 56       		.byte	0x56
 3246 02e0 B8000000 		.4byte	.LVL43
 3247 02e4 C0000000 		.4byte	.LVL44
 3248 02e8 0100     		.2byte	0x1
 3249 02ea 50       		.byte	0x50
 3250 02eb 00000000 		.4byte	0
 3251 02ef 00000000 		.4byte	0
 3252              	.LLST24:
 3253 02f3 B2000000 		.4byte	.LVL41
 3254 02f7 B4000000 		.4byte	.LVL42
 3255 02fb 0100     		.2byte	0x1
 3256 02fd 50       		.byte	0x50
 3257 02fe B4000000 		.4byte	.LVL42
 3258 0302 C6000000 		.4byte	.LVL45
 3259 0306 0100     		.2byte	0x1
 3260 0308 56       		.byte	0x56
 3261 0309 C6000000 		.4byte	.LVL45
 3262 030d D2000000 		.4byte	.LVL46
 3263 0311 0100     		.2byte	0x1
 3264 0313 51       		.byte	0x51
 3265 0314 00000000 		.4byte	0
 3266 0318 00000000 		.4byte	0
 3267              	.LLST25:
 3268 031c 00000000 		.4byte	.LFB69
 3269 0320 02000000 		.4byte	.LCFI6
 3270 0324 0200     		.2byte	0x2
 3271 0326 7D       		.byte	0x7d
 3272 0327 00       		.sleb128 0
 3273 0328 02000000 		.4byte	.LCFI6
 3274 032c 32000000 		.4byte	.LFE69
 3275 0330 0200     		.2byte	0x2
 3276 0332 7D       		.byte	0x7d
 3277 0333 08       		.sleb128 8
 3278 0334 00000000 		.4byte	0
 3279 0338 00000000 		.4byte	0
 3280              	.LLST26:
 3281 033c 00000000 		.4byte	.LVL47
 3282 0340 0D000000 		.4byte	.LVL50-1
 3283 0344 0100     		.2byte	0x1
 3284 0346 50       		.byte	0x50
 3285 0347 0D000000 		.4byte	.LVL50-1
 3286 034b 32000000 		.4byte	.LFE69
 3287 034f 0100     		.2byte	0x1
 3288 0351 54       		.byte	0x54
 3289 0352 00000000 		.4byte	0
 3290 0356 00000000 		.4byte	0
ARM GAS  C:\Users\z80\AppData\Local\Temp\cct4UN1K.s 			page 59


 3291              	.LLST27:
 3292 035a 0A000000 		.4byte	.LVL49
 3293 035e 0D000000 		.4byte	.LVL50-1
 3294 0362 0100     		.2byte	0x1
 3295 0364 53       		.byte	0x53
 3296 0365 00000000 		.4byte	0
 3297 0369 00000000 		.4byte	0
 3298              	.LLST28:
 3299 036d 30000000 		.4byte	.LVL52
 3300 0371 32000000 		.4byte	.LFE69
 3301 0375 0100     		.2byte	0x1
 3302 0377 53       		.byte	0x53
 3303 0378 00000000 		.4byte	0
 3304 037c 00000000 		.4byte	0
 3305              		.section	.debug_aranges,"",%progbits
 3306 0000 54000000 		.4byte	0x54
 3307 0004 0200     		.2byte	0x2
 3308 0006 00000000 		.4byte	.Ldebug_info0
 3309 000a 04       		.byte	0x4
 3310 000b 00       		.byte	0
 3311 000c 0000     		.2byte	0
 3312 000e 0000     		.2byte	0
 3313 0010 00000000 		.4byte	.LFB68
 3314 0014 32000000 		.4byte	.LFE68-.LFB68
 3315 0018 00000000 		.4byte	.LFB63
 3316 001c 1C000000 		.4byte	.LFE63-.LFB63
 3317 0020 00000000 		.4byte	.LFB64
 3318 0024 56000000 		.4byte	.LFE64-.LFB64
 3319 0028 00000000 		.4byte	.LFB62
 3320 002c C2000000 		.4byte	.LFE62-.LFB62
 3321 0030 00000000 		.4byte	.LFB65
 3322 0034 1C000000 		.4byte	.LFE65-.LFB65
 3323 0038 00000000 		.4byte	.LFB66
 3324 003c 1C000000 		.4byte	.LFE66-.LFB66
 3325 0040 00000000 		.4byte	.LFB67
 3326 0044 FE000000 		.4byte	.LFE67-.LFB67
 3327 0048 00000000 		.4byte	.LFB69
 3328 004c 32000000 		.4byte	.LFE69-.LFB69
 3329 0050 00000000 		.4byte	0
 3330 0054 00000000 		.4byte	0
 3331              		.section	.debug_ranges,"",%progbits
 3332              	.Ldebug_ranges0:
 3333 0000 02000000 		.4byte	.LBB17
 3334 0004 04000000 		.4byte	.LBE17
 3335 0008 06000000 		.4byte	.LBB18
 3336 000c 0A000000 		.4byte	.LBE18
 3337 0010 00000000 		.4byte	0
 3338 0014 00000000 		.4byte	0
 3339 0018 00000000 		.4byte	.LFB68
 3340 001c 32000000 		.4byte	.LFE68
 3341 0020 00000000 		.4byte	.LFB63
 3342 0024 1C000000 		.4byte	.LFE63
 3343 0028 00000000 		.4byte	.LFB64
 3344 002c 56000000 		.4byte	.LFE64
 3345 0030 00000000 		.4byte	.LFB62
 3346 0034 C2000000 		.4byte	.LFE62
 3347 0038 00000000 		.4byte	.LFB65
ARM GAS  C:\Users\z80\AppData\Local\Temp\cct4UN1K.s 			page 60


 3348 003c 1C000000 		.4byte	.LFE65
 3349 0040 00000000 		.4byte	.LFB66
 3350 0044 1C000000 		.4byte	.LFE66
 3351 0048 00000000 		.4byte	.LFB67
 3352 004c FE000000 		.4byte	.LFE67
 3353 0050 00000000 		.4byte	.LFB69
 3354 0054 32000000 		.4byte	.LFE69
 3355 0058 00000000 		.4byte	0
 3356 005c 00000000 		.4byte	0
 3357              		.section	.debug_line,"",%progbits
 3358              	.Ldebug_line0:
 3359 0000 AF030000 		.section	.debug_str,"MS",%progbits,1
 3359      0200B902 
 3359      00000201 
 3359      FB0E0D00 
 3359      01010101 
 3360              	.LASF103:
 3361 0000 646D6172 		.ascii	"dmarx\000"
 3361      7800
 3362              	.LASF128:
 3363 0006 6461635F 		.ascii	"dac_queue\000"
 3363      71756575 
 3363      6500
 3364              	.LASF116:
 3365 0010 76616C75 		.ascii	"valueL\000"
 3365      654C00
 3366              	.LASF2:
 3367 0017 73697A65 		.ascii	"size_t\000"
 3367      5F7400
 3368              	.LASF49:
 3369 001e 7264796D 		.ascii	"rdymsg\000"
 3369      736700
 3370              	.LASF125:
 3371 0025 68735F73 		.ascii	"hs_spicfg\000"
 3371      70696366 
 3371      6700
 3372              	.LASF13:
 3373 002f 75696E74 		.ascii	"uint64_t\000"
 3373      36345F74 
 3373      00
 3374              	.LASF63:
 3375 0038 4F757470 		.ascii	"OutputQueue\000"
 3375      75745175 
 3375      65756500 
 3376              	.LASF97:
 3377 0044 5350495F 		.ascii	"SPI_ACTIVE\000"
 3377      41435449 
 3377      564500
 3378              	.LASF92:
 3379 004f 696F706F 		.ascii	"ioportmask_t\000"
 3379      72746D61 
 3379      736B5F74 
 3379      00
 3380              	.LASF110:
 3381 005c 73737061 		.ascii	"sspad\000"
 3381      6400
 3382              	.LASF14:
ARM GAS  C:\Users\z80\AppData\Local\Temp\cct4UN1K.s 			page 61


 3383 0062 6C6F6E67 		.ascii	"long long unsigned int\000"
 3383      206C6F6E 
 3383      6720756E 
 3383      7369676E 
 3383      65642069 
 3384              	.LASF75:
 3385 0079 43524350 		.ascii	"CRCPR\000"
 3385      5200
 3386              	.LASF50:
 3387 007f 65786974 		.ascii	"exitcode\000"
 3387      636F6465 
 3387      00
 3388              	.LASF90:
 3389 0088 76656374 		.ascii	"vector\000"
 3389      6F7200
 3390              	.LASF100:
 3391 008f 53504944 		.ascii	"SPIDriver\000"
 3391      72697665 
 3391      7200
 3392              	.LASF109:
 3393 0099 7373706F 		.ascii	"ssport\000"
 3393      727400
 3394              	.LASF126:
 3395 00a0 49544D5F 		.ascii	"ITM_RxBuffer\000"
 3395      52784275 
 3395      66666572 
 3395      00
 3396              	.LASF118:
 3397 00ad 73657444 		.ascii	"setDac1\000"
 3397      61633100 
 3398              	.LASF119:
 3399 00b5 73657444 		.ascii	"setDac2\000"
 3399      61633200 
 3400              	.LASF24:
 3401 00bd 705F7072 		.ascii	"p_prio\000"
 3401      696F00
 3402              	.LASF114:
 3403 00c4 656D7074 		.ascii	"empty\000"
 3403      7900
 3404              	.LASF55:
 3405 00ca 715F7761 		.ascii	"q_waiting\000"
 3405      6974696E 
 3405      6700
 3406              	.LASF12:
 3407 00d4 6C6F6E67 		.ascii	"long long int\000"
 3407      206C6F6E 
 3407      6720696E 
 3407      7400
 3408              	.LASF1:
 3409 00e2 7369676E 		.ascii	"signed char\000"
 3409      65642063 
 3409      68617200 
 3410              	.LASF131:
 3411 00ee 6E657756 		.ascii	"newValues\000"
 3411      616C7565 
 3411      7300
 3412              	.LASF136:
ARM GAS  C:\Users\z80\AppData\Local\Temp\cct4UN1K.s 			page 62


 3413 00f8 73657444 		.ascii	"setDac\000"
 3413      616300
 3414              	.LASF95:
 3415 00ff 5350495F 		.ascii	"SPI_STOP\000"
 3415      53544F50 
 3415      00
 3416              	.LASF81:
 3417 0108 49325343 		.ascii	"I2SCFGR\000"
 3417      46475200 
 3418              	.LASF46:
 3419 0110 6D5F7175 		.ascii	"m_queue\000"
 3419      65756500 
 3420              	.LASF124:
 3421 0118 64616373 		.ascii	"dacs\000"
 3421      00
 3422              	.LASF135:
 3423 011d 433A5C70 		.ascii	"C:\\projects\\digitizer.git\\firmware\\digitizer\000"
 3423      726F6A65 
 3423      6374735C 
 3423      64696769 
 3423      74697A65 
 3424              	.LASF101:
 3425 014a 73746174 		.ascii	"state\000"
 3425      6500
 3426              	.LASF9:
 3427 0150 6C6F6E67 		.ascii	"long int\000"
 3427      20696E74 
 3427      00
 3428              	.LASF16:
 3429 0159 74737461 		.ascii	"tstate_t\000"
 3429      74655F74 
 3429      00
 3430              	.LASF57:
 3431 0162 715F6275 		.ascii	"q_buffer\000"
 3431      66666572 
 3431      00
 3432              	.LASF59:
 3433 016b 715F7772 		.ascii	"q_wrptr\000"
 3433      70747200 
 3434              	.LASF32:
 3435 0173 705F7469 		.ascii	"p_time\000"
 3435      6D6500
 3436              	.LASF26:
 3437 017a 705F6E65 		.ascii	"p_newer\000"
 3437      77657200 
 3438              	.LASF108:
 3439 0182 656E645F 		.ascii	"end_cb\000"
 3439      636200
 3440              	.LASF105:
 3441 0189 7278646D 		.ascii	"rxdmamode\000"
 3441      616D6F64 
 3441      6500
 3442              	.LASF104:
 3443 0193 646D6174 		.ascii	"dmatx\000"
 3443      7800
 3444              	.LASF41:
 3445 0199 72656761 		.ascii	"regarm_t\000"
ARM GAS  C:\Users\z80\AppData\Local\Temp\cct4UN1K.s 			page 63


 3445      726D5F74 
 3445      00
 3446              	.LASF89:
 3447 01a2 73656C66 		.ascii	"selfindex\000"
 3447      696E6465 
 3447      7800
 3448              	.LASF107:
 3449 01ac 73706963 		.ascii	"spicallback_t\000"
 3449      616C6C62 
 3449      61636B5F 
 3449      7400
 3450              	.LASF113:
 3451 01ba 76616C75 		.ascii	"value\000"
 3451      6500
 3452              	.LASF29:
 3453 01c0 705F7374 		.ascii	"p_stklimit\000"
 3453      6B6C696D 
 3453      697400
 3454              	.LASF0:
 3455 01cb 756E7369 		.ascii	"unsigned int\000"
 3455      676E6564 
 3455      20696E74 
 3455      00
 3456              	.LASF6:
 3457 01d8 75696E74 		.ascii	"uint16_t\000"
 3457      31365F74 
 3457      00
 3458              	.LASF65:
 3459 01e1 43504152 		.ascii	"CPAR\000"
 3459      00
 3460              	.LASF34:
 3461 01e6 705F6D73 		.ascii	"p_msgqueue\000"
 3461      67717565 
 3461      756500
 3462              	.LASF70:
 3463 01f1 4750494F 		.ascii	"GPIO_TypeDef\000"
 3463      5F547970 
 3463      65446566 
 3463      00
 3464              	.LASF69:
 3465 01fe 4C434B52 		.ascii	"LCKR\000"
 3465      00
 3466              	.LASF88:
 3467 0203 69736869 		.ascii	"ishift\000"
 3467      667400
 3468              	.LASF7:
 3469 020a 73686F72 		.ascii	"short unsigned int\000"
 3469      7420756E 
 3469      7369676E 
 3469      65642069 
 3469      6E7400
 3470              	.LASF18:
 3471 021d 6D73675F 		.ascii	"msg_t\000"
 3471      7400
 3472              	.LASF15:
 3473 0223 746D6F64 		.ascii	"tmode_t\000"
 3473      655F7400 
ARM GAS  C:\Users\z80\AppData\Local\Temp\cct4UN1K.s 			page 64


 3474              	.LASF117:
 3475 022b 76616C75 		.ascii	"valueH\000"
 3475      654800
 3476              	.LASF40:
 3477 0232 54687265 		.ascii	"ThreadsList\000"
 3477      6164734C 
 3477      69737400 
 3478              	.LASF19:
 3479 023e 6576656E 		.ascii	"eventmask_t\000"
 3479      746D6173 
 3479      6B5F7400 
 3480              	.LASF62:
 3481 024a 716E6F74 		.ascii	"qnotify_t\000"
 3481      6966795F 
 3481      7400
 3482              	.LASF54:
 3483 0254 47656E65 		.ascii	"GenericQueue\000"
 3483      72696351 
 3483      75657565 
 3483      00
 3484              	.LASF122:
 3485 0261 71756575 		.ascii	"queueSize\000"
 3485      6553697A 
 3485      6500
 3486              	.LASF42:
 3487 026b 73746B61 		.ascii	"stkalign_t\000"
 3487      6C69676E 
 3487      5F7400
 3488              	.LASF21:
 3489 0276 54687265 		.ascii	"Thread\000"
 3489      616400
 3490              	.LASF39:
 3491 027d 54687265 		.ascii	"ThreadsQueue\000"
 3491      61647351 
 3491      75657565 
 3491      00
 3492              	.LASF83:
 3493 028a 49325350 		.ascii	"I2SPR\000"
 3493      5200
 3494              	.LASF56:
 3495 0290 715F636F 		.ascii	"q_counter\000"
 3495      756E7465 
 3495      7200
 3496              	.LASF45:
 3497 029a 4D757465 		.ascii	"Mutex\000"
 3497      7800
 3498              	.LASF27:
 3499 02a0 705F6F6C 		.ascii	"p_older\000"
 3499      64657200 
 3500              	.LASF138:
 3501 02a8 696E6974 		.ascii	"initDac\000"
 3501      44616300 
 3502              	.LASF106:
 3503 02b0 7478646D 		.ascii	"txdmamode\000"
 3503      616D6F64 
 3503      6500
 3504              	.LASF67:
ARM GAS  C:\Users\z80\AppData\Local\Temp\cct4UN1K.s 			page 65


 3505 02ba 444D415F 		.ascii	"DMA_Channel_TypeDef\000"
 3505      4368616E 
 3505      6E656C5F 
 3505      54797065 
 3505      44656600 
 3506              	.LASF79:
 3507 02ce 54584352 		.ascii	"TXCRCR\000"
 3507      435200
 3508              	.LASF71:
 3509 02d5 52455345 		.ascii	"RESERVED0\000"
 3509      52564544 
 3509      3000
 3510              	.LASF72:
 3511 02df 52455345 		.ascii	"RESERVED1\000"
 3511      52564544 
 3511      3100
 3512              	.LASF73:
 3513 02e9 52455345 		.ascii	"RESERVED2\000"
 3513      52564544 
 3513      3200
 3514              	.LASF74:
 3515 02f3 52455345 		.ascii	"RESERVED3\000"
 3515      52564544 
 3515      3300
 3516              	.LASF76:
 3517 02fd 52455345 		.ascii	"RESERVED4\000"
 3517      52564544 
 3517      3400
 3518              	.LASF23:
 3519 0307 705F7072 		.ascii	"p_prev\000"
 3519      657600
 3520              	.LASF80:
 3521 030e 52455345 		.ascii	"RESERVED6\000"
 3521      52564544 
 3521      3600
 3522              	.LASF82:
 3523 0318 52455345 		.ascii	"RESERVED7\000"
 3523      52564544 
 3523      3700
 3524              	.LASF84:
 3525 0322 52455345 		.ascii	"RESERVED8\000"
 3525      52564544 
 3525      3800
 3526              	.LASF17:
 3527 032c 74707269 		.ascii	"tprio_t\000"
 3527      6F5F7400 
 3528              	.LASF60:
 3529 0334 715F7264 		.ascii	"q_rdptr\000"
 3529      70747200 
 3530              	.LASF8:
 3531 033c 696E7433 		.ascii	"int32_t\000"
 3531      325F7400 
 3532              	.LASF4:
 3533 0344 756E7369 		.ascii	"unsigned char\000"
 3533      676E6564 
 3533      20636861 
 3533      7200
ARM GAS  C:\Users\z80\AppData\Local\Temp\cct4UN1K.s 			page 66


 3534              	.LASF91:
 3535 0352 73746D33 		.ascii	"stm32_dma_stream_t\000"
 3535      325F646D 
 3535      615F7374 
 3535      7265616D 
 3535      5F7400
 3536              	.LASF127:
 3537 0365 53504944 		.ascii	"SPID2\000"
 3537      3200
 3538              	.LASF37:
 3539 036b 705F6D74 		.ascii	"p_mtxlist\000"
 3539      786C6973 
 3539      7400
 3540              	.LASF5:
 3541 0375 73686F72 		.ascii	"short int\000"
 3541      7420696E 
 3541      7400
 3542              	.LASF30:
 3543 037f 705F7374 		.ascii	"p_state\000"
 3543      61746500 
 3544              	.LASF52:
 3545 0387 65776D61 		.ascii	"ewmask\000"
 3545      736B00
 3546              	.LASF22:
 3547 038e 705F6E65 		.ascii	"p_next\000"
 3547      787400
 3548              	.LASF31:
 3549 0395 705F666C 		.ascii	"p_flags\000"
 3549      61677300 
 3550              	.LASF86:
 3551 039d 6368616E 		.ascii	"channel\000"
 3551      6E656C00 
 3552              	.LASF134:
 3553 03a5 2E2F7372 		.ascii	"./src/dac_ctrl.c\000"
 3553      632F6461 
 3553      635F6374 
 3553      726C2E63 
 3553      00
 3554              	.LASF36:
 3555 03b6 705F6570 		.ascii	"p_epending\000"
 3555      656E6469 
 3555      6E6700
 3556              	.LASF87:
 3557 03c1 69666372 		.ascii	"ifcr\000"
 3557      00
 3558              	.LASF78:
 3559 03c6 52455345 		.ascii	"RESERVED5\000"
 3559      52564544 
 3559      3500
 3560              	.LASF10:
 3561 03d0 75696E74 		.ascii	"uint32_t\000"
 3561      33325F74 
 3561      00
 3562              	.LASF137:
 3563 03d9 6F6E4461 		.ascii	"onDacSpiComplete\000"
 3563      63537069 
 3563      436F6D70 
ARM GAS  C:\Users\z80\AppData\Local\Temp\cct4UN1K.s 			page 67


 3563      6C657465 
 3563      00
 3564              	.LASF77:
 3565 03ea 52584352 		.ascii	"RXCRCR\000"
 3565      435200
 3566              	.LASF133:
 3567 03f1 474E5520 		.ascii	"GNU C 4.6.3\000"
 3567      4320342E 
 3567      362E3300 
 3568              	.LASF129:
 3569 03fd 6461635F 		.ascii	"dac_queue_buffer\000"
 3569      71756575 
 3569      655F6275 
 3569      66666572 
 3569      00
 3570              	.LASF11:
 3571 040e 6C6F6E67 		.ascii	"long unsigned int\000"
 3571      20756E73 
 3571      69676E65 
 3571      6420696E 
 3571      7400
 3572              	.LASF85:
 3573 0420 5350495F 		.ascii	"SPI_TypeDef\000"
 3573      54797065 
 3573      44656600 
 3574              	.LASF53:
 3575 042c 63686172 		.ascii	"char\000"
 3575      00
 3576              	.LASF98:
 3577 0431 5350495F 		.ascii	"SPI_COMPLETE\000"
 3577      434F4D50 
 3577      4C455445 
 3577      00
 3578              	.LASF102:
 3579 043e 636F6E66 		.ascii	"config\000"
 3579      696700
 3580              	.LASF112:
 3581 0445 696E6465 		.ascii	"index\000"
 3581      7800
 3582              	.LASF99:
 3583 044b 73706973 		.ascii	"spistate_t\000"
 3583      74617465 
 3583      5F7400
 3584              	.LASF48:
 3585 0456 6D5F6E65 		.ascii	"m_next\000"
 3585      787400
 3586              	.LASF20:
 3587 045d 73797374 		.ascii	"systime_t\000"
 3587      696D655F 
 3587      7400
 3588              	.LASF38:
 3589 0467 705F7265 		.ascii	"p_realprio\000"
 3589      616C7072 
 3589      696F00
 3590              	.LASF93:
 3591 0472 696F706F 		.ascii	"ioportid_t\000"
 3591      72746964 
ARM GAS  C:\Users\z80\AppData\Local\Temp\cct4UN1K.s 			page 68


 3591      5F7400
 3592              	.LASF123:
 3593 047d 63757272 		.ascii	"currentDacs\000"
 3593      656E7444 
 3593      61637300 
 3594              	.LASF44:
 3595 0489 636F6E74 		.ascii	"context\000"
 3595      65787400 
 3596              	.LASF121:
 3597 0491 70726F63 		.ascii	"processDacI\000"
 3597      65737344 
 3597      61634900 
 3598              	.LASF43:
 3599 049d 696E7463 		.ascii	"intctx\000"
 3599      747800
 3600              	.LASF96:
 3601 04a4 5350495F 		.ascii	"SPI_READY\000"
 3601      52454144 
 3601      5900
 3602              	.LASF94:
 3603 04ae 5350495F 		.ascii	"SPI_UNINIT\000"
 3603      554E494E 
 3603      495400
 3604              	.LASF58:
 3605 04b9 715F746F 		.ascii	"q_top\000"
 3605      7000
 3606              	.LASF68:
 3607 04bf 42535252 		.ascii	"BSRR\000"
 3607      00
 3608              	.LASF120:
 3609 04c4 73657444 		.ascii	"setDacI\000"
 3609      61634900 
 3610              	.LASF115:
 3611 04cc 73706964 		.ascii	"spid\000"
 3611      00
 3612              	.LASF64:
 3613 04d1 434E4454 		.ascii	"CNDTR\000"
 3613      5200
 3614              	.LASF66:
 3615 04d7 434D4152 		.ascii	"CMAR\000"
 3615      00
 3616              	.LASF61:
 3617 04dc 715F6E6F 		.ascii	"q_notify\000"
 3617      74696679 
 3617      00
 3618              	.LASF3:
 3619 04e5 75696E74 		.ascii	"uint8_t\000"
 3619      385F7400 
 3620              	.LASF51:
 3621 04ed 77746F62 		.ascii	"wtobjp\000"
 3621      6A7000
 3622              	.LASF28:
 3623 04f4 705F6E61 		.ascii	"p_name\000"
 3623      6D6500
 3624              	.LASF130:
 3625 04fb 6461635F 		.ascii	"dac_tx_buffer\000"
 3625      74785F62 
ARM GAS  C:\Users\z80\AppData\Local\Temp\cct4UN1K.s 			page 69


 3625      75666665 
 3625      7200
 3626              	.LASF111:
 3627 0509 53504943 		.ascii	"SPIConfig\000"
 3627      6F6E6669 
 3627      6700
 3628              	.LASF35:
 3629 0513 705F6D73 		.ascii	"p_msg\000"
 3629      6700
 3630              	.LASF132:
 3631 0519 64616356 		.ascii	"dacValues\000"
 3631      616C7565 
 3631      7300
 3632              	.LASF47:
 3633 0523 6D5F6F77 		.ascii	"m_owner\000"
 3633      6E657200 
 3634              	.LASF25:
 3635 052b 705F6374 		.ascii	"p_ctx\000"
 3635      7800
 3636              	.LASF33:
 3637 0531 705F7761 		.ascii	"p_waiting\000"
 3637      6974696E 
 3637      6700
 3638              		.ident	"GCC: (Sourcery CodeBench Lite 2012.03-56) 4.6.3"
ARM GAS  C:\Users\z80\AppData\Local\Temp\cct4UN1K.s 			page 70


DEFINED SYMBOLS
                            *ABS*:00000000 dac_ctrl.c
C:\Users\z80\AppData\Local\Temp\cct4UN1K.s:19     .text.onDacSpiComplete:00000000 $t
C:\Users\z80\AppData\Local\Temp\cct4UN1K.s:24     .text.onDacSpiComplete:00000000 onDacSpiComplete
C:\Users\z80\AppData\Local\Temp\cct4UN1K.s:79     .text.setDacI:00000000 $t
C:\Users\z80\AppData\Local\Temp\cct4UN1K.s:85     .text.setDacI:00000000 setDacI
C:\Users\z80\AppData\Local\Temp\cct4UN1K.s:673    .data.newValues:00000000 .LANCHOR0
C:\Users\z80\AppData\Local\Temp\cct4UN1K.s:109    .text.setDac:00000000 $t
C:\Users\z80\AppData\Local\Temp\cct4UN1K.s:115    .text.setDac:00000000 setDac
C:\Users\z80\AppData\Local\Temp\cct4UN1K.s:683    .bss.dac_queue:00000000 .LANCHOR1
C:\Users\z80\AppData\Local\Temp\cct4UN1K.s:202    .text.initDac:00000000 $t
C:\Users\z80\AppData\Local\Temp\cct4UN1K.s:208    .text.initDac:00000000 initDac
C:\Users\z80\AppData\Local\Temp\cct4UN1K.s:690    .bss.dac_queue_buffer:00000000 .LANCHOR2
C:\Users\z80\AppData\Local\Temp\cct4UN1K.s:703    .data.hs_spicfg:00000000 .LANCHOR3
C:\Users\z80\AppData\Local\Temp\cct4UN1K.s:314    .text.setDac1:00000000 $t
C:\Users\z80\AppData\Local\Temp\cct4UN1K.s:320    .text.setDac1:00000000 setDac1
C:\Users\z80\AppData\Local\Temp\cct4UN1K.s:362    .text.setDac2:00000000 $t
C:\Users\z80\AppData\Local\Temp\cct4UN1K.s:368    .text.setDac2:00000000 setDac2
C:\Users\z80\AppData\Local\Temp\cct4UN1K.s:410    .text.processDacI:00000000 $t
C:\Users\z80\AppData\Local\Temp\cct4UN1K.s:416    .text.processDacI:00000000 processDacI
C:\Users\z80\AppData\Local\Temp\cct4UN1K.s:696    .bss.i.6123:00000000 .LANCHOR4
C:\Users\z80\AppData\Local\Temp\cct4UN1K.s:656    .data.dacValues:00000000 .LANCHOR5
C:\Users\z80\AppData\Local\Temp\cct4UN1K.s:462    .text.processDacI:00000046 $d
C:\Users\z80\AppData\Local\Temp\cct4UN1K.s:466    .text.processDacI:0000004a $t
C:\Users\z80\AppData\Local\Temp\cct4UN1K.s:666    .bss.dac_tx_buffer:00000000 .LANCHOR6
C:\Users\z80\AppData\Local\Temp\cct4UN1K.s:584    .text.currentDacs:00000000 $t
C:\Users\z80\AppData\Local\Temp\cct4UN1K.s:590    .text.currentDacs:00000000 currentDacs
C:\Users\z80\AppData\Local\Temp\cct4UN1K.s:659    .data.dacValues:00000000 dacValues
C:\Users\z80\AppData\Local\Temp\cct4UN1K.s:676    .data.newValues:00000000 newValues
C:\Users\z80\AppData\Local\Temp\cct4UN1K.s:669    .bss.dac_tx_buffer:00000000 dac_tx_buffer
C:\Users\z80\AppData\Local\Temp\cct4UN1K.s:693    .bss.dac_queue_buffer:00000000 dac_queue_buffer
C:\Users\z80\AppData\Local\Temp\cct4UN1K.s:686    .bss.dac_queue:00000000 dac_queue
C:\Users\z80\AppData\Local\Temp\cct4UN1K.s:655    .data.dacValues:00000000 $d
C:\Users\z80\AppData\Local\Temp\cct4UN1K.s:665    .bss.dac_tx_buffer:00000000 $d
C:\Users\z80\AppData\Local\Temp\cct4UN1K.s:672    .data.newValues:00000000 $d
C:\Users\z80\AppData\Local\Temp\cct4UN1K.s:682    .bss.dac_queue:00000000 $d
C:\Users\z80\AppData\Local\Temp\cct4UN1K.s:689    .bss.dac_queue_buffer:00000000 $d
C:\Users\z80\AppData\Local\Temp\cct4UN1K.s:699    .bss.i.6123:00000000 i.6123
C:\Users\z80\AppData\Local\Temp\cct4UN1K.s:700    .bss.i.6123:00000000 $d
C:\Users\z80\AppData\Local\Temp\cct4UN1K.s:702    .data.hs_spicfg:00000000 $d
C:\Users\z80\AppData\Local\Temp\cct4UN1K.s:706    .data.hs_spicfg:00000000 hs_spicfg
                     .debug_frame:00000010 $d

UNDEFINED SYMBOLS
dbg_check_lock_from_isr
SPID2
spi_lld_unselect
dbg_check_unlock_from_isr
dbg_check_lock
dbg_check_unlock
chOQPutTimeout
_pal_lld_setgroupmode
chOQInit
spiStart
spi_lld_select
spi_lld_send
processSweepI
ARM GAS  C:\Users\z80\AppData\Local\Temp\cct4UN1K.s 			page 71


chOQGetI
