ARM GAS  C:\Users\z80\AppData\Local\Temp\ccWQmZPB.s 			page 1


   1              		.syntax unified
   2              		.cpu cortex-m3
   3              		.fpu softvfp
   4              		.eabi_attribute 20, 1
   5              		.eabi_attribute 21, 1
   6              		.eabi_attribute 23, 3
   7              		.eabi_attribute 24, 1
   8              		.eabi_attribute 25, 1
   9              		.eabi_attribute 26, 1
  10              		.eabi_attribute 30, 2
  11              		.eabi_attribute 34, 1
  12              		.eabi_attribute 18, 4
  13              		.thumb
  14              		.file	"evtimer.c"
  15              		.text
  16              	.Ltext0:
  17              		.cfi_sections	.debug_frame
  18              		.section	.text.tmrcb,"ax",%progbits
  19              		.align	2
  20              		.p2align 4,,15
  21              		.thumb
  22              		.thumb_func
  23              		.type	tmrcb, %function
  24              	tmrcb:
  25              	.LFB7:
  26              		.file 1 "../chibios_2.4.x/os/various/evtimer.c"
  27              		.loc 1 39 0
  28              		.cfi_startproc
  29              		@ args = 0, pretend = 0, frame = 0
  30              		@ frame_needed = 0, uses_anonymous_args = 0
  31              	.LVL0:
  32 0000 10B5     		push	{r4, lr}
  33              	.LCFI0:
  34              		.cfi_def_cfa_offset 8
  35              		.cfi_offset 14, -4
  36              		.cfi_offset 4, -8
  37              		.loc 1 42 0
  38 0002 0021     		movs	r1, #0
  39              		.loc 1 39 0
  40 0004 0446     		mov	r4, r0
  41              	.LVL1:
  42              		.loc 1 42 0
  43 0006 1430     		adds	r0, r0, #20
  44              	.LVL2:
  45 0008 FFF7FEFF 		bl	chEvtBroadcastFlagsI
  46              	.LVL3:
  47              		.loc 1 43 0
  48 000c 40F20002 		movw	r2, #:lower16:tmrcb
  49 0010 A169     		ldr	r1, [r4, #24]
  50 0012 2046     		mov	r0, r4
  51 0014 C0F20002 		movt	r2, #:upper16:tmrcb
  52 0018 2346     		mov	r3, r4
  53              		.loc 1 44 0
  54 001a BDE81040 		pop	{r4, lr}
  55              		.loc 1 43 0
  56 001e FFF7FEBF 		b	chVTSetI
  57              		.cfi_endproc
ARM GAS  C:\Users\z80\AppData\Local\Temp\ccWQmZPB.s 			page 2


  58              	.LFE7:
  59              		.size	tmrcb, .-tmrcb
  60 0022 00BFAFF3 		.section	.text.evtStart,"ax",%progbits
  60      0080AFF3 
  60      0080AFF3 
  60      0080
  61              		.align	2
  62              		.p2align 4,,15
  63              		.global	evtStart
  64              		.thumb
  65              		.thumb_func
  66              		.type	evtStart, %function
  67              	evtStart:
  68              	.LFB8:
  69              		.loc 1 52 0
  70              		.cfi_startproc
  71              		@ args = 0, pretend = 0, frame = 0
  72              		@ frame_needed = 0, uses_anonymous_args = 0
  73              	.LVL4:
  74 0000 10B5     		push	{r4, lr}
  75              	.LCFI1:
  76              		.cfi_def_cfa_offset 8
  77              		.cfi_offset 14, -4
  78              		.cfi_offset 4, -8
  79              	.LBB2:
  80              		.loc 1 54 0
  81 0002 2023     		movs	r3, #32
  82              	.LVL5:
  83              	.LBE2:
  84              		.loc 1 52 0
  85 0004 0446     		mov	r4, r0
  86              	.LBB3:
  87              		.loc 1 54 0
  88              	@ 54 "../chibios_2.4.x/os/various/evtimer.c" 1
  89 0006 83F31188 		msr     BASEPRI, r3
  90              	@ 0 "" 2
  91              	.LVL6:
  92              		.thumb
  93              	.LBE3:
  94 000a FFF7FEFF 		bl	dbg_check_lock
  95              	.LVL7:
  96              		.loc 1 56 0
  97 000e E368     		ldr	r3, [r4, #12]
  98 0010 2BB1     		cbz	r3, .L5
  99              		.loc 1 59 0
 100 0012 FFF7FEFF 		bl	dbg_check_unlock
 101              	.LBB4:
 102 0016 0023     		movs	r3, #0
 103              	.LVL8:
 104              	@ 59 "../chibios_2.4.x/os/various/evtimer.c" 1
 105 0018 83F31188 		msr     BASEPRI, r3
 106              	@ 0 "" 2
 107              	.LVL9:
 108              		.thumb
 109              	.LBE4:
 110              		.loc 1 60 0
 111 001c 10BD     		pop	{r4, pc}
ARM GAS  C:\Users\z80\AppData\Local\Temp\ccWQmZPB.s 			page 3


 112              	.LVL10:
 113              	.L5:
 114              		.loc 1 57 0
 115 001e 40F20002 		movw	r2, #:lower16:tmrcb
 116 0022 2346     		mov	r3, r4
 117 0024 2046     		mov	r0, r4
 118 0026 A169     		ldr	r1, [r4, #24]
 119 0028 C0F20002 		movt	r2, #:upper16:tmrcb
 120 002c FFF7FEFF 		bl	chVTSetI
 121              		.loc 1 59 0
 122 0030 FFF7FEFF 		bl	dbg_check_unlock
 123              	.LBB5:
 124 0034 0023     		movs	r3, #0
 125              	@ 59 "../chibios_2.4.x/os/various/evtimer.c" 1
 126 0036 83F31188 		msr     BASEPRI, r3
 127              	@ 0 "" 2
 128              	.LVL11:
 129              		.thumb
 130              	.LBE5:
 131              		.loc 1 60 0
 132 003a 10BD     		pop	{r4, pc}
 133              		.cfi_endproc
 134              	.LFE8:
 135              		.size	evtStart, .-evtStart
 136 003c AFF30080 		.section	.text.evtStop,"ax",%progbits
 137              		.align	2
 138              		.p2align 4,,15
 139              		.global	evtStop
 140              		.thumb
 141              		.thumb_func
 142              		.type	evtStop, %function
 143              	evtStop:
 144              	.LFB9:
 145              		.loc 1 68 0
 146              		.cfi_startproc
 147              		@ args = 0, pretend = 0, frame = 0
 148              		@ frame_needed = 0, uses_anonymous_args = 0
 149              	.LVL12:
 150 0000 10B5     		push	{r4, lr}
 151              	.LCFI2:
 152              		.cfi_def_cfa_offset 8
 153              		.cfi_offset 14, -4
 154              		.cfi_offset 4, -8
 155              	.LBB6:
 156              		.loc 1 70 0
 157 0002 2023     		movs	r3, #32
 158              	.LVL13:
 159              	.LBE6:
 160              		.loc 1 68 0
 161 0004 0446     		mov	r4, r0
 162              	.LBB7:
 163              		.loc 1 70 0
 164              	@ 70 "../chibios_2.4.x/os/various/evtimer.c" 1
 165 0006 83F31188 		msr     BASEPRI, r3
 166              	@ 0 "" 2
 167              	.LVL14:
 168              		.thumb
ARM GAS  C:\Users\z80\AppData\Local\Temp\ccWQmZPB.s 			page 4


 169              	.LBE7:
 170 000a FFF7FEFF 		bl	dbg_check_lock
 171              	.LVL15:
 172              		.loc 1 72 0
 173 000e E368     		ldr	r3, [r4, #12]
 174 0010 13B1     		cbz	r3, .L7
 175              		.loc 1 73 0
 176 0012 2046     		mov	r0, r4
 177 0014 FFF7FEFF 		bl	chVTResetI
 178              	.L7:
 179              		.loc 1 75 0
 180 0018 FFF7FEFF 		bl	dbg_check_unlock
 181              	.LBB8:
 182 001c 0023     		movs	r3, #0
 183              	.LVL16:
 184              	@ 75 "../chibios_2.4.x/os/various/evtimer.c" 1
 185 001e 83F31188 		msr     BASEPRI, r3
 186              	@ 0 "" 2
 187              	.LVL17:
 188              		.thumb
 189              	.LBE8:
 190              		.loc 1 76 0
 191 0022 10BD     		pop	{r4, pc}
 192              		.cfi_endproc
 193              	.LFE9:
 194              		.size	evtStop, .-evtStop
 195 0024 AFF30080 		.text
 195      AFF30080 
 195      AFF30080 
 196              	.Letext0:
 197              		.file 2 "c:\\programs\\codesourcery\\2011.03-56\\bin\\../lib/gcc/arm-none-eabi/4.6.3/../../../../a
 198              		.file 3 "../chibios_2.4.x/os/ports/GCC/ARMCMx/chtypes.h"
 199              		.file 4 "../chibios_2.4.x/os/kernel/include/chlists.h"
 200              		.file 5 "../chibios_2.4.x/os/kernel/include/chthreads.h"
 201              		.file 6 "../chibios_2.4.x/os/ports/GCC/ARMCMx/chcore_v7m.h"
 202              		.file 7 "../chibios_2.4.x/os/kernel/include/chvt.h"
 203              		.file 8 "../chibios_2.4.x/os/kernel/include/chmtx.h"
 204              		.file 9 "../chibios_2.4.x/os/kernel/include/chevents.h"
 205              		.file 10 "../chibios_2.4.x/os/various/evtimer.h"