ARM GAS  C:\Users\z80\AppData\Local\Temp\ccWQmZPB.s 			page 1


   1              		.syntax unified
   2              		.cpu cortex-m3
   3              		.fpu softvfp
   4              		.eabi_attribute 20, 1
   5              		.eabi_attribute 21, 1
   6              		.eabi_attribute 23, 3
   7              		.eabi_attribute 24, 1
   8              		.eabi_attribute 25, 1
   9              		.eabi_attribute 26, 1
  10              		.eabi_attribute 30, 2
  11              		.eabi_attribute 34, 1
  12              		.eabi_attribute 18, 4
  13              		.thumb
  14              		.file	"evtimer.c"
  15              		.text
  16              	.Ltext0:
  17              		.cfi_sections	.debug_frame
  18              		.section	.text.tmrcb,"ax",%progbits
  19              		.align	2
  20              		.p2align 4,,15
  21              		.thumb
  22              		.thumb_func
  23              		.type	tmrcb, %function
  24              	tmrcb:
  25              	.LFB7:
  26              		.file 1 "../chibios_2.4.x/os/various/evtimer.c"
  27              		.loc 1 39 0
  28              		.cfi_startproc
  29              		@ args = 0, pretend = 0, frame = 0
  30              		@ frame_needed = 0, uses_anonymous_args = 0
  31              	.LVL0:
  32 0000 10B5     		push	{r4, lr}
  33              	.LCFI0:
  34              		.cfi_def_cfa_offset 8
  35              		.cfi_offset 14, -4
  36              		.cfi_offset 4, -8
  37              		.loc 1 42 0
  38 0002 0021     		movs	r1, #0
  39              		.loc 1 39 0
  40 0004 0446     		mov	r4, r0
  41              	.LVL1:
  42              		.loc 1 42 0
  43 0006 1430     		adds	r0, r0, #20
  44              	.LVL2:
  45 0008 FFF7FEFF 		bl	chEvtBroadcastFlagsI
  46              	.LVL3:
  47              		.loc 1 43 0
  48 000c 40F20002 		movw	r2, #:lower16:tmrcb
  49 0010 A169     		ldr	r1, [r4, #24]
  50 0012 2046     		mov	r0, r4
  51 0014 C0F20002 		movt	r2, #:upper16:tmrcb
  52 0018 2346     		mov	r3, r4
  53              		.loc 1 44 0
  54 001a BDE81040 		pop	{r4, lr}
  55              		.loc 1 43 0
  56 001e FFF7FEBF 		b	chVTSetI
  57              		.cfi_endproc
ARM GAS  C:\Users\z80\AppData\Local\Temp\ccWQmZPB.s 			page 2


  58              	.LFE7:
  59              		.size	tmrcb, .-tmrcb
  60 0022 00BFAFF3 		.section	.text.evtStart,"ax",%progbits
  60      0080AFF3 
  60      0080AFF3 
  60      0080
  61              		.align	2
  62              		.p2align 4,,15
  63              		.global	evtStart
  64              		.thumb
  65              		.thumb_func
  66              		.type	evtStart, %function
  67              	evtStart:
  68              	.LFB8:
  69              		.loc 1 52 0
  70              		.cfi_startproc
  71              		@ args = 0, pretend = 0, frame = 0
  72              		@ frame_needed = 0, uses_anonymous_args = 0
  73              	.LVL4:
  74 0000 10B5     		push	{r4, lr}
  75              	.LCFI1:
  76              		.cfi_def_cfa_offset 8
  77              		.cfi_offset 14, -4
  78              		.cfi_offset 4, -8
  79              	.LBB2:
  80              		.loc 1 54 0
  81 0002 2023     		movs	r3, #32
  82              	.LVL5:
  83              	.LBE2:
  84              		.loc 1 52 0
  85 0004 0446     		mov	r4, r0
  86              	.LBB3:
  87              		.loc 1 54 0
  88              	@ 54 "../chibios_2.4.x/os/various/evtimer.c" 1
  89 0006 83F31188 		msr     BASEPRI, r3
  90              	@ 0 "" 2
  91              	.LVL6:
  92              		.thumb
  93              	.LBE3:
  94 000a FFF7FEFF 		bl	dbg_check_lock
  95              	.LVL7:
  96              		.loc 1 56 0
  97 000e E368     		ldr	r3, [r4, #12]
  98 0010 2BB1     		cbz	r3, .L5
  99              		.loc 1 59 0
 100 0012 FFF7FEFF 		bl	dbg_check_unlock
 101              	.LBB4:
 102 0016 0023     		movs	r3, #0
 103              	.LVL8:
 104              	@ 59 "../chibios_2.4.x/os/various/evtimer.c" 1
 105 0018 83F31188 		msr     BASEPRI, r3
 106              	@ 0 "" 2
 107              	.LVL9:
 108              		.thumb
 109              	.LBE4:
 110              		.loc 1 60 0
 111 001c 10BD     		pop	{r4, pc}
ARM GAS  C:\Users\z80\AppData\Local\Temp\ccWQmZPB.s 			page 3


 112              	.LVL10:
 113              	.L5:
 114              		.loc 1 57 0
 115 001e 40F20002 		movw	r2, #:lower16:tmrcb
 116 0022 2346     		mov	r3, r4
 117 0024 2046     		mov	r0, r4
 118 0026 A169     		ldr	r1, [r4, #24]
 119 0028 C0F20002 		movt	r2, #:upper16:tmrcb
 120 002c FFF7FEFF 		bl	chVTSetI
 121              		.loc 1 59 0
 122 0030 FFF7FEFF 		bl	dbg_check_unlock
 123              	.LBB5:
 124 0034 0023     		movs	r3, #0
 125              	@ 59 "../chibios_2.4.x/os/various/evtimer.c" 1
 126 0036 83F31188 		msr     BASEPRI, r3
 127              	@ 0 "" 2
 128              	.LVL11:
 129              		.thumb
 130              	.LBE5:
 131              		.loc 1 60 0
 132 003a 10BD     		pop	{r4, pc}
 133              		.cfi_endproc
 134              	.LFE8:
 135              		.size	evtStart, .-evtStart
 136 003c AFF30080 		.section	.text.evtStop,"ax",%progbits
 137              		.align	2
 138              		.p2align 4,,15
 139              		.global	evtStop
 140              		.thumb
 141              		.thumb_func
 142              		.type	evtStop, %function
 143              	evtStop:
 144              	.LFB9:
 145              		.loc 1 68 0
 146              		.cfi_startproc
 147              		@ args = 0, pretend = 0, frame = 0
 148              		@ frame_needed = 0, uses_anonymous_args = 0
 149              	.LVL12:
 150 0000 10B5     		push	{r4, lr}
 151              	.LCFI2:
 152              		.cfi_def_cfa_offset 8
 153              		.cfi_offset 14, -4
 154              		.cfi_offset 4, -8
 155              	.LBB6:
 156              		.loc 1 70 0
 157 0002 2023     		movs	r3, #32
 158              	.LVL13:
 159              	.LBE6:
 160              		.loc 1 68 0
 161 0004 0446     		mov	r4, r0
 162              	.LBB7:
 163              		.loc 1 70 0
 164              	@ 70 "../chibios_2.4.x/os/various/evtimer.c" 1
 165 0006 83F31188 		msr     BASEPRI, r3
 166              	@ 0 "" 2
 167              	.LVL14:
 168              		.thumb
ARM GAS  C:\Users\z80\AppData\Local\Temp\ccWQmZPB.s 			page 4


 169              	.LBE7:
 170 000a FFF7FEFF 		bl	dbg_check_lock
 171              	.LVL15:
 172              		.loc 1 72 0
 173 000e E368     		ldr	r3, [r4, #12]
 174 0010 13B1     		cbz	r3, .L7
 175              		.loc 1 73 0
 176 0012 2046     		mov	r0, r4
 177 0014 FFF7FEFF 		bl	chVTResetI
 178              	.L7:
 179              		.loc 1 75 0
 180 0018 FFF7FEFF 		bl	dbg_check_unlock
 181              	.LBB8:
 182 001c 0023     		movs	r3, #0
 183              	.LVL16:
 184              	@ 75 "../chibios_2.4.x/os/various/evtimer.c" 1
 185 001e 83F31188 		msr     BASEPRI, r3
 186              	@ 0 "" 2
 187              	.LVL17:
 188              		.thumb
 189              	.LBE8:
 190              		.loc 1 76 0
 191 0022 10BD     		pop	{r4, pc}
 192              		.cfi_endproc
 193              	.LFE9:
 194              		.size	evtStop, .-evtStop
 195 0024 AFF30080 		.text
 195      AFF30080 
 195      AFF30080 
 196              	.Letext0:
 197              		.file 2 "c:\\programs\\codesourcery\\2011.03-56\\bin\\../lib/gcc/arm-none-eabi/4.6.3/../../../../a
 198              		.file 3 "../chibios_2.4.x/os/ports/GCC/ARMCMx/chtypes.h"
 199              		.file 4 "../chibios_2.4.x/os/kernel/include/chlists.h"
 200              		.file 5 "../chibios_2.4.x/os/kernel/include/chthreads.h"
 201              		.file 6 "../chibios_2.4.x/os/ports/GCC/ARMCMx/chcore_v7m.h"
 202              		.file 7 "../chibios_2.4.x/os/kernel/include/chvt.h"
 203              		.file 8 "../chibios_2.4.x/os/kernel/include/chmtx.h"
 204              		.file 9 "../chibios_2.4.x/os/kernel/include/chevents.h"
 205              		.file 10 "../chibios_2.4.x/os/various/evtimer.h"
 206              		.section	.debug_info,"",%progbits
 207              	.Ldebug_info0:
 208 0000 C4050000 		.4byte	0x5c4
 209 0004 0200     		.2byte	0x2
 210 0006 00000000 		.4byte	.Ldebug_abbrev0
 211 000a 04       		.byte	0x4
 212 000b 01       		.uleb128 0x1
 213 000c 50020000 		.4byte	.LASF69
 214 0010 01       		.byte	0x1
 215 0011 9F010000 		.4byte	.LASF70
 216 0015 7C000000 		.4byte	.LASF71
 217 0019 00000000 		.4byte	0
 218 001d 00000000 		.4byte	0
 219 0021 48000000 		.4byte	.Ldebug_ranges0+0x48
 220 0025 00000000 		.4byte	.Ldebug_line0
 221 0029 02       		.uleb128 0x2
 222 002a 04       		.byte	0x4
 223 002b 05       		.byte	0x5
ARM GAS  C:\Users\z80\AppData\Local\Temp\ccWQmZPB.s 			page 5


 224 002c 696E7400 		.ascii	"int\000"
 225 0030 03       		.uleb128 0x3
 226 0031 04       		.byte	0x4
 227 0032 07       		.byte	0x7
 228 0033 EB000000 		.4byte	.LASF0
 229 0037 03       		.uleb128 0x3
 230 0038 01       		.byte	0x1
 231 0039 06       		.byte	0x6
 232 003a 60000000 		.4byte	.LASF1
 233 003e 04       		.uleb128 0x4
 234 003f BC020000 		.4byte	.LASF5
 235 0043 02       		.byte	0x2
 236 0044 2A       		.byte	0x2a
 237 0045 49000000 		.4byte	0x49
 238 0049 03       		.uleb128 0x3
 239 004a 01       		.byte	0x1
 240 004b 08       		.byte	0x8
 241 004c DC010000 		.4byte	.LASF2
 242 0050 03       		.uleb128 0x3
 243 0051 02       		.byte	0x2
 244 0052 05       		.byte	0x5
 245 0053 00020000 		.4byte	.LASF3
 246 0057 03       		.uleb128 0x3
 247 0058 02       		.byte	0x2
 248 0059 07       		.byte	0x7
 249 005a 1A010000 		.4byte	.LASF4
 250 005e 04       		.uleb128 0x4
 251 005f D4010000 		.4byte	.LASF6
 252 0063 02       		.byte	0x2
 253 0064 4F       		.byte	0x4f
 254 0065 69000000 		.4byte	0x69
 255 0069 03       		.uleb128 0x3
 256 006a 04       		.byte	0x4
 257 006b 05       		.byte	0x5
 258 006c A9000000 		.4byte	.LASF7
 259 0070 04       		.uleb128 0x4
 260 0071 3A020000 		.4byte	.LASF8
 261 0075 02       		.byte	0x2
 262 0076 50       		.byte	0x50
 263 0077 7B000000 		.4byte	0x7b
 264 007b 03       		.uleb128 0x3
 265 007c 04       		.byte	0x4
 266 007d 07       		.byte	0x7
 267 007e 00010000 		.4byte	.LASF9
 268 0082 03       		.uleb128 0x3
 269 0083 08       		.byte	0x8
 270 0084 05       		.byte	0x5
 271 0085 52000000 		.4byte	.LASF10
 272 0089 04       		.uleb128 0x4
 273 008a 19000000 		.4byte	.LASF11
 274 008e 02       		.byte	0x2
 275 008f 78       		.byte	0x78
 276 0090 94000000 		.4byte	0x94
 277 0094 03       		.uleb128 0x3
 278 0095 08       		.byte	0x8
 279 0096 07       		.byte	0x7
 280 0097 22000000 		.4byte	.LASF12
ARM GAS  C:\Users\z80\AppData\Local\Temp\ccWQmZPB.s 			page 6


 281 009b 04       		.uleb128 0x4
 282 009c 3B010000 		.4byte	.LASF13
 283 00a0 03       		.byte	0x3
 284 00a1 2F       		.byte	0x2f
 285 00a2 3E000000 		.4byte	0x3e
 286 00a6 04       		.uleb128 0x4
 287 00a7 B2000000 		.4byte	.LASF14
 288 00ab 03       		.byte	0x3
 289 00ac 30       		.byte	0x30
 290 00ad 3E000000 		.4byte	0x3e
 291 00b1 04       		.uleb128 0x4
 292 00b2 CC010000 		.4byte	.LASF15
 293 00b6 03       		.byte	0x3
 294 00b7 32       		.byte	0x32
 295 00b8 70000000 		.4byte	0x70
 296 00bc 04       		.uleb128 0x4
 297 00bd 2D010000 		.4byte	.LASF16
 298 00c1 03       		.byte	0x3
 299 00c2 33       		.byte	0x33
 300 00c3 5E000000 		.4byte	0x5e
 301 00c7 04       		.uleb128 0x4
 302 00c8 4F010000 		.4byte	.LASF17
 303 00cc 03       		.byte	0x3
 304 00cd 35       		.byte	0x35
 305 00ce 70000000 		.4byte	0x70
 306 00d2 04       		.uleb128 0x4
 307 00d3 6E020000 		.4byte	.LASF18
 308 00d7 03       		.byte	0x3
 309 00d8 36       		.byte	0x36
 310 00d9 70000000 		.4byte	0x70
 311 00dd 04       		.uleb128 0x4
 312 00de 28020000 		.4byte	.LASF19
 313 00e2 04       		.byte	0x4
 314 00e3 2A       		.byte	0x2a
 315 00e4 E8000000 		.4byte	0xe8
 316 00e8 05       		.uleb128 0x5
 317 00e9 28020000 		.4byte	.LASF19
 318 00ed 48       		.byte	0x48
 319 00ee 05       		.byte	0x5
 320 00ef 5E       		.byte	0x5e
 321 00f0 F1010000 		.4byte	0x1f1
 322 00f4 06       		.uleb128 0x6
 323 00f5 19020000 		.4byte	.LASF20
 324 00f9 05       		.byte	0x5
 325 00fa 5F       		.byte	0x5f
 326 00fb 16020000 		.4byte	0x216
 327 00ff 02       		.byte	0x2
 328 0100 23       		.byte	0x23
 329 0101 00       		.uleb128 0
 330 0102 06       		.uleb128 0x6
 331 0103 C5010000 		.4byte	.LASF21
 332 0107 05       		.byte	0x5
 333 0108 61       		.byte	0x61
 334 0109 16020000 		.4byte	0x216
 335 010d 02       		.byte	0x2
 336 010e 23       		.byte	0x23
 337 010f 04       		.uleb128 0x4
ARM GAS  C:\Users\z80\AppData\Local\Temp\ccWQmZPB.s 			page 7


 338 0110 06       		.uleb128 0x6
 339 0111 4B000000 		.4byte	.LASF22
 340 0115 05       		.byte	0x5
 341 0116 63       		.byte	0x63
 342 0117 B1000000 		.4byte	0xb1
 343 011b 02       		.byte	0x2
 344 011c 23       		.byte	0x23
 345 011d 08       		.uleb128 0x8
 346 011e 06       		.uleb128 0x6
 347 011f EE020000 		.4byte	.LASF23
 348 0123 05       		.byte	0x5
 349 0124 64       		.byte	0x64
 350 0125 EE020000 		.4byte	0x2ee
 351 0129 02       		.byte	0x2
 352 012a 23       		.byte	0x23
 353 012b 0C       		.uleb128 0xc
 354 012c 06       		.uleb128 0x6
 355 012d BB000000 		.4byte	.LASF24
 356 0131 05       		.byte	0x5
 357 0132 66       		.byte	0x66
 358 0133 16020000 		.4byte	0x216
 359 0137 02       		.byte	0x2
 360 0138 23       		.byte	0x23
 361 0139 10       		.uleb128 0x10
 362 013a 06       		.uleb128 0x6
 363 013b 8A010000 		.4byte	.LASF25
 364 013f 05       		.byte	0x5
 365 0140 67       		.byte	0x67
 366 0141 16020000 		.4byte	0x216
 367 0145 02       		.byte	0x2
 368 0146 23       		.byte	0x23
 369 0147 14       		.uleb128 0x14
 370 0148 06       		.uleb128 0x6
 371 0149 D9020000 		.4byte	.LASF26
 372 014d 05       		.byte	0x5
 373 014e 6E       		.byte	0x6e
 374 014f 82040000 		.4byte	0x482
 375 0153 02       		.byte	0x2
 376 0154 23       		.byte	0x23
 377 0155 18       		.uleb128 0x18
 378 0156 06       		.uleb128 0x6
 379 0157 E0000000 		.4byte	.LASF27
 380 015b 05       		.byte	0x5
 381 015c 74       		.byte	0x74
 382 015d 94040000 		.4byte	0x494
 383 0161 02       		.byte	0x2
 384 0162 23       		.byte	0x23
 385 0163 1C       		.uleb128 0x1c
 386 0164 06       		.uleb128 0x6
 387 0165 0A020000 		.4byte	.LASF28
 388 0169 05       		.byte	0x5
 389 016a 79       		.byte	0x79
 390 016b A6000000 		.4byte	0xa6
 391 016f 02       		.byte	0x2
 392 0170 23       		.byte	0x23
 393 0171 20       		.uleb128 0x20
 394 0172 06       		.uleb128 0x6
ARM GAS  C:\Users\z80\AppData\Local\Temp\ccWQmZPB.s 			page 8


 395 0173 20020000 		.4byte	.LASF29
 396 0177 05       		.byte	0x5
 397 0178 7D       		.byte	0x7d
 398 0179 9B000000 		.4byte	0x9b
 399 017d 02       		.byte	0x2
 400 017e 23       		.byte	0x23
 401 017f 21       		.uleb128 0x21
 402 0180 06       		.uleb128 0x6
 403 0181 94020000 		.4byte	.LASF30
 404 0185 05       		.byte	0x5
 405 0186 89       		.byte	0x89
 406 0187 92030000 		.4byte	0x392
 407 018b 02       		.byte	0x2
 408 018c 23       		.byte	0x23
 409 018d 24       		.uleb128 0x24
 410 018e 07       		.uleb128 0x7
 411 018f 705F7500 		.ascii	"p_u\000"
 412 0193 05       		.byte	0x5
 413 0194 AE       		.byte	0xae
 414 0195 4D040000 		.4byte	0x44d
 415 0199 02       		.byte	0x2
 416 019a 23       		.byte	0x23
 417 019b 28       		.uleb128 0x28
 418 019c 06       		.uleb128 0x6
 419 019d F4020000 		.4byte	.LASF31
 420 01a1 05       		.byte	0x5
 421 01a2 B3       		.byte	0xb3
 422 01a3 3E020000 		.4byte	0x23e
 423 01a7 02       		.byte	0x2
 424 01a8 23       		.byte	0x23
 425 01a9 2C       		.uleb128 0x2c
 426 01aa 06       		.uleb128 0x6
 427 01ab A2020000 		.4byte	.LASF32
 428 01af 05       		.byte	0x5
 429 01b0 B9       		.byte	0xb9
 430 01b1 1C020000 		.4byte	0x21c
 431 01b5 02       		.byte	0x2
 432 01b6 23       		.byte	0x23
 433 01b7 30       		.uleb128 0x30
 434 01b8 06       		.uleb128 0x6
 435 01b9 0C000000 		.4byte	.LASF33
 436 01bd 05       		.byte	0x5
 437 01be BD       		.byte	0xbd
 438 01bf BC000000 		.4byte	0xbc
 439 01c3 02       		.byte	0x2
 440 01c4 23       		.byte	0x23
 441 01c5 38       		.uleb128 0x38
 442 01c6 06       		.uleb128 0x6
 443 01c7 2F020000 		.4byte	.LASF34
 444 01cb 05       		.byte	0x5
 445 01cc C3       		.byte	0xc3
 446 01cd C7000000 		.4byte	0xc7
 447 01d1 02       		.byte	0x2
 448 01d2 23       		.byte	0x23
 449 01d3 3C       		.uleb128 0x3c
 450 01d4 06       		.uleb128 0x6
 451 01d5 F6010000 		.4byte	.LASF35
ARM GAS  C:\Users\z80\AppData\Local\Temp\ccWQmZPB.s 			page 9


 452 01d9 05       		.byte	0x5
 453 01da CA       		.byte	0xca
 454 01db 9A040000 		.4byte	0x49a
 455 01df 02       		.byte	0x2
 456 01e0 23       		.byte	0x23
 457 01e1 40       		.uleb128 0x40
 458 01e2 06       		.uleb128 0x6
 459 01e3 78020000 		.4byte	.LASF36
 460 01e7 05       		.byte	0x5
 461 01e8 CE       		.byte	0xce
 462 01e9 B1000000 		.4byte	0xb1
 463 01ed 02       		.byte	0x2
 464 01ee 23       		.byte	0x23
 465 01ef 44       		.uleb128 0x44
 466 01f0 00       		.byte	0
 467 01f1 08       		.uleb128 0x8
 468 01f2 08       		.byte	0x8
 469 01f3 04       		.byte	0x4
 470 01f4 61       		.byte	0x61
 471 01f5 16020000 		.4byte	0x216
 472 01f9 06       		.uleb128 0x6
 473 01fa 19020000 		.4byte	.LASF20
 474 01fe 04       		.byte	0x4
 475 01ff 62       		.byte	0x62
 476 0200 16020000 		.4byte	0x216
 477 0204 02       		.byte	0x2
 478 0205 23       		.byte	0x23
 479 0206 00       		.uleb128 0
 480 0207 06       		.uleb128 0x6
 481 0208 C5010000 		.4byte	.LASF21
 482 020c 04       		.byte	0x4
 483 020d 64       		.byte	0x64
 484 020e 16020000 		.4byte	0x216
 485 0212 02       		.byte	0x2
 486 0213 23       		.byte	0x23
 487 0214 04       		.uleb128 0x4
 488 0215 00       		.byte	0
 489 0216 09       		.uleb128 0x9
 490 0217 04       		.byte	0x4
 491 0218 DD000000 		.4byte	0xdd
 492 021c 04       		.uleb128 0x4
 493 021d 92010000 		.4byte	.LASF37
 494 0221 04       		.byte	0x4
 495 0222 66       		.byte	0x66
 496 0223 F1010000 		.4byte	0x1f1
 497 0227 08       		.uleb128 0x8
 498 0228 04       		.byte	0x4
 499 0229 04       		.byte	0x4
 500 022a 6B       		.byte	0x6b
 501 022b 3E020000 		.4byte	0x23e
 502 022f 06       		.uleb128 0x6
 503 0230 19020000 		.4byte	.LASF20
 504 0234 04       		.byte	0x4
 505 0235 6D       		.byte	0x6d
 506 0236 16020000 		.4byte	0x216
 507 023a 02       		.byte	0x2
 508 023b 23       		.byte	0x23
ARM GAS  C:\Users\z80\AppData\Local\Temp\ccWQmZPB.s 			page 10


 509 023c 00       		.uleb128 0
 510 023d 00       		.byte	0
 511 023e 04       		.uleb128 0x4
 512 023f 43010000 		.4byte	.LASF38
 513 0243 04       		.byte	0x4
 514 0244 70       		.byte	0x70
 515 0245 27020000 		.4byte	0x227
 516 0249 04       		.uleb128 0x4
 517 024a C3000000 		.4byte	.LASF39
 518 024e 06       		.byte	0x6
 519 024f D7       		.byte	0xd7
 520 0250 54020000 		.4byte	0x254
 521 0254 0A       		.uleb128 0xa
 522 0255 04       		.byte	0x4
 523 0256 04       		.uleb128 0x4
 524 0257 61010000 		.4byte	.LASF40
 525 025b 06       		.byte	0x6
 526 025c DD       		.byte	0xdd
 527 025d 89000000 		.4byte	0x89
 528 0261 05       		.uleb128 0x5
 529 0262 9B020000 		.4byte	.LASF41
 530 0266 24       		.byte	0x24
 531 0267 06       		.byte	0x6
 532 0268 FE       		.byte	0xfe
 533 0269 EE020000 		.4byte	0x2ee
 534 026d 0B       		.uleb128 0xb
 535 026e 723400   		.ascii	"r4\000"
 536 0271 06       		.byte	0x6
 537 0272 1101     		.2byte	0x111
 538 0274 49020000 		.4byte	0x249
 539 0278 02       		.byte	0x2
 540 0279 23       		.byte	0x23
 541 027a 00       		.uleb128 0
 542 027b 0B       		.uleb128 0xb
 543 027c 723500   		.ascii	"r5\000"
 544 027f 06       		.byte	0x6
 545 0280 1201     		.2byte	0x112
 546 0282 49020000 		.4byte	0x249
 547 0286 02       		.byte	0x2
 548 0287 23       		.byte	0x23
 549 0288 04       		.uleb128 0x4
 550 0289 0B       		.uleb128 0xb
 551 028a 723600   		.ascii	"r6\000"
 552 028d 06       		.byte	0x6
 553 028e 1301     		.2byte	0x113
 554 0290 49020000 		.4byte	0x249
 555 0294 02       		.byte	0x2
 556 0295 23       		.byte	0x23
 557 0296 08       		.uleb128 0x8
 558 0297 0B       		.uleb128 0xb
 559 0298 723700   		.ascii	"r7\000"
 560 029b 06       		.byte	0x6
 561 029c 1401     		.2byte	0x114
 562 029e 49020000 		.4byte	0x249
 563 02a2 02       		.byte	0x2
 564 02a3 23       		.byte	0x23
 565 02a4 0C       		.uleb128 0xc
ARM GAS  C:\Users\z80\AppData\Local\Temp\ccWQmZPB.s 			page 11


 566 02a5 0B       		.uleb128 0xb
 567 02a6 723800   		.ascii	"r8\000"
 568 02a9 06       		.byte	0x6
 569 02aa 1501     		.2byte	0x115
 570 02ac 49020000 		.4byte	0x249
 571 02b0 02       		.byte	0x2
 572 02b1 23       		.byte	0x23
 573 02b2 10       		.uleb128 0x10
 574 02b3 0B       		.uleb128 0xb
 575 02b4 723900   		.ascii	"r9\000"
 576 02b7 06       		.byte	0x6
 577 02b8 1601     		.2byte	0x116
 578 02ba 49020000 		.4byte	0x249
 579 02be 02       		.byte	0x2
 580 02bf 23       		.byte	0x23
 581 02c0 14       		.uleb128 0x14
 582 02c1 0B       		.uleb128 0xb
 583 02c2 72313000 		.ascii	"r10\000"
 584 02c6 06       		.byte	0x6
 585 02c7 1701     		.2byte	0x117
 586 02c9 49020000 		.4byte	0x249
 587 02cd 02       		.byte	0x2
 588 02ce 23       		.byte	0x23
 589 02cf 18       		.uleb128 0x18
 590 02d0 0B       		.uleb128 0xb
 591 02d1 72313100 		.ascii	"r11\000"
 592 02d5 06       		.byte	0x6
 593 02d6 1801     		.2byte	0x118
 594 02d8 49020000 		.4byte	0x249
 595 02dc 02       		.byte	0x2
 596 02dd 23       		.byte	0x23
 597 02de 1C       		.uleb128 0x1c
 598 02df 0B       		.uleb128 0xb
 599 02e0 6C7200   		.ascii	"lr\000"
 600 02e3 06       		.byte	0x6
 601 02e4 1901     		.2byte	0x119
 602 02e6 49020000 		.4byte	0x249
 603 02ea 02       		.byte	0x2
 604 02eb 23       		.byte	0x23
 605 02ec 20       		.uleb128 0x20
 606 02ed 00       		.byte	0
 607 02ee 0C       		.uleb128 0xc
 608 02ef 12010000 		.4byte	.LASF42
 609 02f3 04       		.byte	0x4
 610 02f4 06       		.byte	0x6
 611 02f5 2301     		.2byte	0x123
 612 02f7 0B030000 		.4byte	0x30b
 613 02fb 0B       		.uleb128 0xb
 614 02fc 72313300 		.ascii	"r13\000"
 615 0300 06       		.byte	0x6
 616 0301 2401     		.2byte	0x124
 617 0303 0B030000 		.4byte	0x30b
 618 0307 02       		.byte	0x2
 619 0308 23       		.byte	0x23
 620 0309 00       		.uleb128 0
 621 030a 00       		.byte	0
 622 030b 09       		.uleb128 0x9
ARM GAS  C:\Users\z80\AppData\Local\Temp\ccWQmZPB.s 			page 12


 623 030c 04       		.byte	0x4
 624 030d 61020000 		.4byte	0x261
 625 0311 04       		.uleb128 0x4
 626 0312 83020000 		.4byte	.LASF43
 627 0316 07       		.byte	0x7
 628 0317 53       		.byte	0x53
 629 0318 1C030000 		.4byte	0x31c
 630 031c 09       		.uleb128 0x9
 631 031d 04       		.byte	0x4
 632 031e 22030000 		.4byte	0x322
 633 0322 0D       		.uleb128 0xd
 634 0323 01       		.byte	0x1
 635 0324 2E030000 		.4byte	0x32e
 636 0328 0E       		.uleb128 0xe
 637 0329 54020000 		.4byte	0x254
 638 032d 00       		.byte	0
 639 032e 04       		.uleb128 0x4
 640 032f 43020000 		.4byte	.LASF44
 641 0333 07       		.byte	0x7
 642 0334 58       		.byte	0x58
 643 0335 39030000 		.4byte	0x339
 644 0339 05       		.uleb128 0x5
 645 033a 43020000 		.4byte	.LASF44
 646 033e 14       		.byte	0x14
 647 033f 07       		.byte	0x7
 648 0340 5F       		.byte	0x5f
 649 0341 8C030000 		.4byte	0x38c
 650 0345 06       		.uleb128 0x6
 651 0346 F8000000 		.4byte	.LASF45
 652 034a 07       		.byte	0x7
 653 034b 60       		.byte	0x60
 654 034c 8C030000 		.4byte	0x38c
 655 0350 02       		.byte	0x2
 656 0351 23       		.byte	0x23
 657 0352 00       		.uleb128 0
 658 0353 06       		.uleb128 0x6
 659 0354 CC000000 		.4byte	.LASF46
 660 0358 07       		.byte	0x7
 661 0359 62       		.byte	0x62
 662 035a 8C030000 		.4byte	0x38c
 663 035e 02       		.byte	0x2
 664 035f 23       		.byte	0x23
 665 0360 04       		.uleb128 0x4
 666 0361 06       		.uleb128 0x6
 667 0362 6C010000 		.4byte	.LASF47
 668 0366 07       		.byte	0x7
 669 0367 64       		.byte	0x64
 670 0368 D2000000 		.4byte	0xd2
 671 036c 02       		.byte	0x2
 672 036d 23       		.byte	0x23
 673 036e 08       		.uleb128 0x8
 674 036f 06       		.uleb128 0x6
 675 0370 7A010000 		.4byte	.LASF48
 676 0374 07       		.byte	0x7
 677 0375 65       		.byte	0x65
 678 0376 11030000 		.4byte	0x311
 679 037a 02       		.byte	0x2
ARM GAS  C:\Users\z80\AppData\Local\Temp\ccWQmZPB.s 			page 13


 680 037b 23       		.byte	0x23
 681 037c 0C       		.uleb128 0xc
 682 037d 06       		.uleb128 0x6
 683 037e AD020000 		.4byte	.LASF49
 684 0382 07       		.byte	0x7
 685 0383 67       		.byte	0x67
 686 0384 54020000 		.4byte	0x254
 687 0388 02       		.byte	0x2
 688 0389 23       		.byte	0x23
 689 038a 10       		.uleb128 0x10
 690 038b 00       		.byte	0
 691 038c 09       		.uleb128 0x9
 692 038d 04       		.byte	0x4
 693 038e 2E030000 		.4byte	0x32e
 694 0392 0F       		.uleb128 0xf
 695 0393 D2000000 		.4byte	0xd2
 696 0397 05       		.uleb128 0x5
 697 0398 5B010000 		.4byte	.LASF50
 698 039c 10       		.byte	0x10
 699 039d 08       		.byte	0x8
 700 039e 2C       		.byte	0x2c
 701 039f CE030000 		.4byte	0x3ce
 702 03a3 06       		.uleb128 0x6
 703 03a4 74000000 		.4byte	.LASF51
 704 03a8 08       		.byte	0x8
 705 03a9 2D       		.byte	0x2d
 706 03aa 1C020000 		.4byte	0x21c
 707 03ae 02       		.byte	0x2
 708 03af 23       		.byte	0x23
 709 03b0 00       		.uleb128 0
 710 03b1 06       		.uleb128 0x6
 711 03b2 E6020000 		.4byte	.LASF52
 712 03b6 08       		.byte	0x8
 713 03b7 2F       		.byte	0x2f
 714 03b8 16020000 		.4byte	0x216
 715 03bc 02       		.byte	0x2
 716 03bd 23       		.byte	0x23
 717 03be 08       		.uleb128 0x8
 718 03bf 06       		.uleb128 0x6
 719 03c0 67020000 		.4byte	.LASF53
 720 03c4 08       		.byte	0x8
 721 03c5 31       		.byte	0x31
 722 03c6 CE030000 		.4byte	0x3ce
 723 03ca 02       		.byte	0x2
 724 03cb 23       		.byte	0x23
 725 03cc 0C       		.uleb128 0xc
 726 03cd 00       		.byte	0
 727 03ce 09       		.uleb128 0x9
 728 03cf 04       		.byte	0x4
 729 03d0 97030000 		.4byte	0x397
 730 03d4 04       		.uleb128 0x4
 731 03d5 5B010000 		.4byte	.LASF50
 732 03d9 08       		.byte	0x8
 733 03da 33       		.byte	0x33
 734 03db 97030000 		.4byte	0x397
 735 03df 04       		.uleb128 0x4
 736 03e0 C4020000 		.4byte	.LASF54
ARM GAS  C:\Users\z80\AppData\Local\Temp\ccWQmZPB.s 			page 14


 737 03e4 09       		.byte	0x9
 738 03e5 29       		.byte	0x29
 739 03e6 EA030000 		.4byte	0x3ea
 740 03ea 05       		.uleb128 0x5
 741 03eb C4020000 		.4byte	.LASF54
 742 03ef 0C       		.byte	0xc
 743 03f0 09       		.byte	0x9
 744 03f1 2E       		.byte	0x2e
 745 03f2 21040000 		.4byte	0x421
 746 03f6 06       		.uleb128 0x6
 747 03f7 33010000 		.4byte	.LASF55
 748 03fb 09       		.byte	0x9
 749 03fc 2F       		.byte	0x2f
 750 03fd 21040000 		.4byte	0x421
 751 0401 02       		.byte	0x2
 752 0402 23       		.byte	0x23
 753 0403 00       		.uleb128 0
 754 0404 06       		.uleb128 0x6
 755 0405 EA010000 		.4byte	.LASF56
 756 0409 09       		.byte	0x9
 757 040a 32       		.byte	0x32
 758 040b 16020000 		.4byte	0x216
 759 040f 02       		.byte	0x2
 760 0410 23       		.byte	0x23
 761 0411 04       		.uleb128 0x4
 762 0412 06       		.uleb128 0x6
 763 0413 82010000 		.4byte	.LASF57
 764 0417 09       		.byte	0x9
 765 0418 34       		.byte	0x34
 766 0419 C7000000 		.4byte	0xc7
 767 041d 02       		.byte	0x2
 768 041e 23       		.byte	0x23
 769 041f 08       		.uleb128 0x8
 770 0420 00       		.byte	0
 771 0421 09       		.uleb128 0x9
 772 0422 04       		.byte	0x4
 773 0423 DF030000 		.4byte	0x3df
 774 0427 05       		.uleb128 0x5
 775 0428 D4000000 		.4byte	.LASF58
 776 042c 04       		.byte	0x4
 777 042d 09       		.byte	0x9
 778 042e 3C       		.byte	0x3c
 779 042f 42040000 		.4byte	0x442
 780 0433 06       		.uleb128 0x6
 781 0434 B4020000 		.4byte	.LASF59
 782 0438 09       		.byte	0x9
 783 0439 3D       		.byte	0x3d
 784 043a 21040000 		.4byte	0x421
 785 043e 02       		.byte	0x2
 786 043f 23       		.byte	0x23
 787 0440 00       		.uleb128 0
 788 0441 00       		.byte	0
 789 0442 04       		.uleb128 0x4
 790 0443 D4000000 		.4byte	.LASF58
 791 0447 09       		.byte	0x9
 792 0448 40       		.byte	0x40
 793 0449 27040000 		.4byte	0x427
ARM GAS  C:\Users\z80\AppData\Local\Temp\ccWQmZPB.s 			page 15


 794 044d 10       		.uleb128 0x10
 795 044e 04       		.byte	0x4
 796 044f 05       		.byte	0x5
 797 0450 90       		.byte	0x90
 798 0451 82040000 		.4byte	0x482
 799 0455 11       		.uleb128 0x11
 800 0456 12000000 		.4byte	.LASF60
 801 045a 05       		.byte	0x5
 802 045b 97       		.byte	0x97
 803 045c BC000000 		.4byte	0xbc
 804 0460 11       		.uleb128 0x11
 805 0461 39000000 		.4byte	.LASF61
 806 0465 05       		.byte	0x5
 807 0466 9E       		.byte	0x9e
 808 0467 BC000000 		.4byte	0xbc
 809 046b 11       		.uleb128 0x11
 810 046c D2020000 		.4byte	.LASF62
 811 0470 05       		.byte	0x5
 812 0471 A5       		.byte	0xa5
 813 0472 54020000 		.4byte	0x254
 814 0476 11       		.uleb128 0x11
 815 0477 12020000 		.4byte	.LASF63
 816 047b 05       		.byte	0x5
 817 047c AC       		.byte	0xac
 818 047d C7000000 		.4byte	0xc7
 819 0481 00       		.byte	0
 820 0482 09       		.uleb128 0x9
 821 0483 04       		.byte	0x4
 822 0484 88040000 		.4byte	0x488
 823 0488 12       		.uleb128 0x12
 824 0489 8D040000 		.4byte	0x48d
 825 048d 03       		.uleb128 0x3
 826 048e 01       		.byte	0x1
 827 048f 08       		.byte	0x8
 828 0490 5C020000 		.4byte	.LASF64
 829 0494 09       		.uleb128 0x9
 830 0495 04       		.byte	0x4
 831 0496 56020000 		.4byte	0x256
 832 049a 09       		.uleb128 0x9
 833 049b 04       		.byte	0x4
 834 049c D4030000 		.4byte	0x3d4
 835 04a0 08       		.uleb128 0x8
 836 04a1 1C       		.byte	0x1c
 837 04a2 0A       		.byte	0xa
 838 04a3 2A       		.byte	0x2a
 839 04a4 D3040000 		.4byte	0x4d3
 840 04a8 06       		.uleb128 0x6
 841 04a9 E0020000 		.4byte	.LASF65
 842 04ad 0A       		.byte	0xa
 843 04ae 2B       		.byte	0x2b
 844 04af 2E030000 		.4byte	0x32e
 845 04b3 02       		.byte	0x2
 846 04b4 23       		.byte	0x23
 847 04b5 00       		.uleb128 0
 848 04b6 06       		.uleb128 0x6
 849 04b7 74010000 		.4byte	.LASF66
 850 04bb 0A       		.byte	0xa
ARM GAS  C:\Users\z80\AppData\Local\Temp\ccWQmZPB.s 			page 16


 851 04bc 2C       		.byte	0x2c
 852 04bd 42040000 		.4byte	0x442
 853 04c1 02       		.byte	0x2
 854 04c2 23       		.byte	0x23
 855 04c3 14       		.uleb128 0x14
 856 04c4 06       		.uleb128 0x6
 857 04c5 00000000 		.4byte	.LASF67
 858 04c9 0A       		.byte	0xa
 859 04ca 2D       		.byte	0x2d
 860 04cb D2000000 		.4byte	0xd2
 861 04cf 02       		.byte	0x2
 862 04d0 23       		.byte	0x23
 863 04d1 18       		.uleb128 0x18
 864 04d2 00       		.byte	0
 865 04d3 04       		.uleb128 0x4
 866 04d4 6C000000 		.4byte	.LASF68
 867 04d8 0A       		.byte	0xa
 868 04d9 2E       		.byte	0x2e
 869 04da A0040000 		.4byte	0x4a0
 870 04de 13       		.uleb128 0x13
 871 04df 61020000 		.4byte	.LASF72
 872 04e3 01       		.byte	0x1
 873 04e4 27       		.byte	0x27
 874 04e5 01       		.byte	0x1
 875 04e6 00000000 		.4byte	.LFB7
 876 04ea 22000000 		.4byte	.LFE7
 877 04ee 00000000 		.4byte	.LLST0
 878 04f2 13050000 		.4byte	0x513
 879 04f6 14       		.uleb128 0x14
 880 04f7 7000     		.ascii	"p\000"
 881 04f9 01       		.byte	0x1
 882 04fa 27       		.byte	0x27
 883 04fb 54020000 		.4byte	0x254
 884 04ff 20000000 		.4byte	.LLST1
 885 0503 15       		.uleb128 0x15
 886 0504 65747000 		.ascii	"etp\000"
 887 0508 01       		.byte	0x1
 888 0509 28       		.byte	0x28
 889 050a 13050000 		.4byte	0x513
 890 050e 3E000000 		.4byte	.LLST2
 891 0512 00       		.byte	0
 892 0513 09       		.uleb128 0x9
 893 0514 04       		.byte	0x4
 894 0515 D3040000 		.4byte	0x4d3
 895 0519 16       		.uleb128 0x16
 896 051a 01       		.byte	0x1
 897 051b 42000000 		.4byte	.LASF73
 898 051f 01       		.byte	0x1
 899 0520 34       		.byte	0x34
 900 0521 01       		.byte	0x1
 901 0522 00000000 		.4byte	.LFB8
 902 0526 3C000000 		.4byte	.LFE8
 903 052a 5C000000 		.4byte	.LLST3
 904 052e 70050000 		.4byte	0x570
 905 0532 14       		.uleb128 0x14
 906 0533 65747000 		.ascii	"etp\000"
 907 0537 01       		.byte	0x1
ARM GAS  C:\Users\z80\AppData\Local\Temp\ccWQmZPB.s 			page 17


 908 0538 34       		.byte	0x34
 909 0539 13050000 		.4byte	0x513
 910 053d 7C000000 		.4byte	.LLST4
 911 0541 17       		.uleb128 0x17
 912 0542 00000000 		.4byte	.Ldebug_ranges0+0
 913 0546 5A050000 		.4byte	0x55a
 914 054a 15       		.uleb128 0x15
 915 054b 746D7000 		.ascii	"tmp\000"
 916 054f 01       		.byte	0x1
 917 0550 36       		.byte	0x36
 918 0551 70000000 		.4byte	0x70
 919 0555 9A000000 		.4byte	.LLST5
 920 0559 00       		.byte	0
 921 055a 18       		.uleb128 0x18
 922 055b 18000000 		.4byte	.Ldebug_ranges0+0x18
 923 055f 15       		.uleb128 0x15
 924 0560 746D7000 		.ascii	"tmp\000"
 925 0564 01       		.byte	0x1
 926 0565 3B       		.byte	0x3b
 927 0566 70000000 		.4byte	0x70
 928 056a AD000000 		.4byte	.LLST6
 929 056e 00       		.byte	0
 930 056f 00       		.byte	0
 931 0570 19       		.uleb128 0x19
 932 0571 01       		.byte	0x1
 933 0572 8C020000 		.4byte	.LASF74
 934 0576 01       		.byte	0x1
 935 0577 44       		.byte	0x44
 936 0578 01       		.byte	0x1
 937 0579 00000000 		.4byte	.LFB9
 938 057d 24000000 		.4byte	.LFE9
 939 0581 CB000000 		.4byte	.LLST7
 940 0585 14       		.uleb128 0x14
 941 0586 65747000 		.ascii	"etp\000"
 942 058a 01       		.byte	0x1
 943 058b 44       		.byte	0x44
 944 058c 13050000 		.4byte	0x513
 945 0590 EB000000 		.4byte	.LLST8
 946 0594 17       		.uleb128 0x17
 947 0595 30000000 		.4byte	.Ldebug_ranges0+0x30
 948 0599 AD050000 		.4byte	0x5ad
 949 059d 15       		.uleb128 0x15
 950 059e 746D7000 		.ascii	"tmp\000"
 951 05a2 01       		.byte	0x1
 952 05a3 46       		.byte	0x46
 953 05a4 70000000 		.4byte	0x70
 954 05a8 09010000 		.4byte	.LLST9
 955 05ac 00       		.byte	0
 956 05ad 1A       		.uleb128 0x1a
 957 05ae 1C000000 		.4byte	.LBB8
 958 05b2 22000000 		.4byte	.LBE8
 959 05b6 15       		.uleb128 0x15
 960 05b7 746D7000 		.ascii	"tmp\000"
 961 05bb 01       		.byte	0x1
 962 05bc 4B       		.byte	0x4b
 963 05bd 70000000 		.4byte	0x70
 964 05c1 1C010000 		.4byte	.LLST10
ARM GAS  C:\Users\z80\AppData\Local\Temp\ccWQmZPB.s 			page 18


 965 05c5 00       		.byte	0
 966 05c6 00       		.byte	0
 967 05c7 00       		.byte	0
 968              		.section	.debug_abbrev,"",%progbits
 969              	.Ldebug_abbrev0:
 970 0000 01       		.uleb128 0x1
 971 0001 11       		.uleb128 0x11
 972 0002 01       		.byte	0x1
 973 0003 25       		.uleb128 0x25
 974 0004 0E       		.uleb128 0xe
 975 0005 13       		.uleb128 0x13
 976 0006 0B       		.uleb128 0xb
 977 0007 03       		.uleb128 0x3
 978 0008 0E       		.uleb128 0xe
 979 0009 1B       		.uleb128 0x1b
 980 000a 0E       		.uleb128 0xe
 981 000b 11       		.uleb128 0x11
 982 000c 01       		.uleb128 0x1
 983 000d 52       		.uleb128 0x52
 984 000e 01       		.uleb128 0x1
 985 000f 55       		.uleb128 0x55
 986 0010 06       		.uleb128 0x6
 987 0011 10       		.uleb128 0x10
 988 0012 06       		.uleb128 0x6
 989 0013 00       		.byte	0
 990 0014 00       		.byte	0
 991 0015 02       		.uleb128 0x2
 992 0016 24       		.uleb128 0x24
 993 0017 00       		.byte	0
 994 0018 0B       		.uleb128 0xb
 995 0019 0B       		.uleb128 0xb
 996 001a 3E       		.uleb128 0x3e
 997 001b 0B       		.uleb128 0xb
 998 001c 03       		.uleb128 0x3
 999 001d 08       		.uleb128 0x8
 1000 001e 00       		.byte	0
 1001 001f 00       		.byte	0
 1002 0020 03       		.uleb128 0x3
 1003 0021 24       		.uleb128 0x24
 1004 0022 00       		.byte	0
 1005 0023 0B       		.uleb128 0xb
 1006 0024 0B       		.uleb128 0xb
 1007 0025 3E       		.uleb128 0x3e
 1008 0026 0B       		.uleb128 0xb
 1009 0027 03       		.uleb128 0x3
 1010 0028 0E       		.uleb128 0xe
 1011 0029 00       		.byte	0
 1012 002a 00       		.byte	0
 1013 002b 04       		.uleb128 0x4
 1014 002c 16       		.uleb128 0x16
 1015 002d 00       		.byte	0
 1016 002e 03       		.uleb128 0x3
 1017 002f 0E       		.uleb128 0xe
 1018 0030 3A       		.uleb128 0x3a
 1019 0031 0B       		.uleb128 0xb
 1020 0032 3B       		.uleb128 0x3b
 1021 0033 0B       		.uleb128 0xb
ARM GAS  C:\Users\z80\AppData\Local\Temp\ccWQmZPB.s 			page 19


 1022 0034 49       		.uleb128 0x49
 1023 0035 13       		.uleb128 0x13
 1024 0036 00       		.byte	0
 1025 0037 00       		.byte	0
 1026 0038 05       		.uleb128 0x5
 1027 0039 13       		.uleb128 0x13
 1028 003a 01       		.byte	0x1
 1029 003b 03       		.uleb128 0x3
 1030 003c 0E       		.uleb128 0xe
 1031 003d 0B       		.uleb128 0xb
 1032 003e 0B       		.uleb128 0xb
 1033 003f 3A       		.uleb128 0x3a
 1034 0040 0B       		.uleb128 0xb
 1035 0041 3B       		.uleb128 0x3b
 1036 0042 0B       		.uleb128 0xb
 1037 0043 01       		.uleb128 0x1
 1038 0044 13       		.uleb128 0x13
 1039 0045 00       		.byte	0
 1040 0046 00       		.byte	0
 1041 0047 06       		.uleb128 0x6
 1042 0048 0D       		.uleb128 0xd
 1043 0049 00       		.byte	0
 1044 004a 03       		.uleb128 0x3
 1045 004b 0E       		.uleb128 0xe
 1046 004c 3A       		.uleb128 0x3a
 1047 004d 0B       		.uleb128 0xb
 1048 004e 3B       		.uleb128 0x3b
 1049 004f 0B       		.uleb128 0xb
 1050 0050 49       		.uleb128 0x49
 1051 0051 13       		.uleb128 0x13
 1052 0052 38       		.uleb128 0x38
 1053 0053 0A       		.uleb128 0xa
 1054 0054 00       		.byte	0
 1055 0055 00       		.byte	0
 1056 0056 07       		.uleb128 0x7
 1057 0057 0D       		.uleb128 0xd
 1058 0058 00       		.byte	0
 1059 0059 03       		.uleb128 0x3
 1060 005a 08       		.uleb128 0x8
 1061 005b 3A       		.uleb128 0x3a
 1062 005c 0B       		.uleb128 0xb
 1063 005d 3B       		.uleb128 0x3b
 1064 005e 0B       		.uleb128 0xb
 1065 005f 49       		.uleb128 0x49
 1066 0060 13       		.uleb128 0x13
 1067 0061 38       		.uleb128 0x38
 1068 0062 0A       		.uleb128 0xa
 1069 0063 00       		.byte	0
 1070 0064 00       		.byte	0
 1071 0065 08       		.uleb128 0x8
 1072 0066 13       		.uleb128 0x13
 1073 0067 01       		.byte	0x1
 1074 0068 0B       		.uleb128 0xb
 1075 0069 0B       		.uleb128 0xb
 1076 006a 3A       		.uleb128 0x3a
 1077 006b 0B       		.uleb128 0xb
 1078 006c 3B       		.uleb128 0x3b
ARM GAS  C:\Users\z80\AppData\Local\Temp\ccWQmZPB.s 			page 20


 1079 006d 0B       		.uleb128 0xb
 1080 006e 01       		.uleb128 0x1
 1081 006f 13       		.uleb128 0x13
 1082 0070 00       		.byte	0
 1083 0071 00       		.byte	0
 1084 0072 09       		.uleb128 0x9
 1085 0073 0F       		.uleb128 0xf
 1086 0074 00       		.byte	0
 1087 0075 0B       		.uleb128 0xb
 1088 0076 0B       		.uleb128 0xb
 1089 0077 49       		.uleb128 0x49
 1090 0078 13       		.uleb128 0x13
 1091 0079 00       		.byte	0
 1092 007a 00       		.byte	0
 1093 007b 0A       		.uleb128 0xa
 1094 007c 0F       		.uleb128 0xf
 1095 007d 00       		.byte	0
 1096 007e 0B       		.uleb128 0xb
 1097 007f 0B       		.uleb128 0xb
 1098 0080 00       		.byte	0
 1099 0081 00       		.byte	0
 1100 0082 0B       		.uleb128 0xb
 1101 0083 0D       		.uleb128 0xd
 1102 0084 00       		.byte	0
 1103 0085 03       		.uleb128 0x3
 1104 0086 08       		.uleb128 0x8
 1105 0087 3A       		.uleb128 0x3a
 1106 0088 0B       		.uleb128 0xb
 1107 0089 3B       		.uleb128 0x3b
 1108 008a 05       		.uleb128 0x5
 1109 008b 49       		.uleb128 0x49
 1110 008c 13       		.uleb128 0x13
 1111 008d 38       		.uleb128 0x38
 1112 008e 0A       		.uleb128 0xa
 1113 008f 00       		.byte	0
 1114 0090 00       		.byte	0
 1115 0091 0C       		.uleb128 0xc
 1116 0092 13       		.uleb128 0x13
 1117 0093 01       		.byte	0x1
 1118 0094 03       		.uleb128 0x3
 1119 0095 0E       		.uleb128 0xe
 1120 0096 0B       		.uleb128 0xb
 1121 0097 0B       		.uleb128 0xb
 1122 0098 3A       		.uleb128 0x3a
 1123 0099 0B       		.uleb128 0xb
 1124 009a 3B       		.uleb128 0x3b
 1125 009b 05       		.uleb128 0x5
 1126 009c 01       		.uleb128 0x1
 1127 009d 13       		.uleb128 0x13
 1128 009e 00       		.byte	0
 1129 009f 00       		.byte	0
 1130 00a0 0D       		.uleb128 0xd
 1131 00a1 15       		.uleb128 0x15
 1132 00a2 01       		.byte	0x1
 1133 00a3 27       		.uleb128 0x27
 1134 00a4 0C       		.uleb128 0xc
 1135 00a5 01       		.uleb128 0x1
ARM GAS  C:\Users\z80\AppData\Local\Temp\ccWQmZPB.s 			page 21


 1136 00a6 13       		.uleb128 0x13
 1137 00a7 00       		.byte	0
 1138 00a8 00       		.byte	0
 1139 00a9 0E       		.uleb128 0xe
 1140 00aa 05       		.uleb128 0x5
 1141 00ab 00       		.byte	0
 1142 00ac 49       		.uleb128 0x49
 1143 00ad 13       		.uleb128 0x13
 1144 00ae 00       		.byte	0
 1145 00af 00       		.byte	0
 1146 00b0 0F       		.uleb128 0xf
 1147 00b1 35       		.uleb128 0x35
 1148 00b2 00       		.byte	0
 1149 00b3 49       		.uleb128 0x49
 1150 00b4 13       		.uleb128 0x13
 1151 00b5 00       		.byte	0
 1152 00b6 00       		.byte	0
 1153 00b7 10       		.uleb128 0x10
 1154 00b8 17       		.uleb128 0x17
 1155 00b9 01       		.byte	0x1
 1156 00ba 0B       		.uleb128 0xb
 1157 00bb 0B       		.uleb128 0xb
 1158 00bc 3A       		.uleb128 0x3a
 1159 00bd 0B       		.uleb128 0xb
 1160 00be 3B       		.uleb128 0x3b
 1161 00bf 0B       		.uleb128 0xb
 1162 00c0 01       		.uleb128 0x1
 1163 00c1 13       		.uleb128 0x13
 1164 00c2 00       		.byte	0
 1165 00c3 00       		.byte	0
 1166 00c4 11       		.uleb128 0x11
 1167 00c5 0D       		.uleb128 0xd
 1168 00c6 00       		.byte	0
 1169 00c7 03       		.uleb128 0x3
 1170 00c8 0E       		.uleb128 0xe
 1171 00c9 3A       		.uleb128 0x3a
 1172 00ca 0B       		.uleb128 0xb
 1173 00cb 3B       		.uleb128 0x3b
 1174 00cc 0B       		.uleb128 0xb
 1175 00cd 49       		.uleb128 0x49
 1176 00ce 13       		.uleb128 0x13
 1177 00cf 00       		.byte	0
 1178 00d0 00       		.byte	0
 1179 00d1 12       		.uleb128 0x12
 1180 00d2 26       		.uleb128 0x26
 1181 00d3 00       		.byte	0
 1182 00d4 49       		.uleb128 0x49
 1183 00d5 13       		.uleb128 0x13
 1184 00d6 00       		.byte	0
 1185 00d7 00       		.byte	0
 1186 00d8 13       		.uleb128 0x13
 1187 00d9 2E       		.uleb128 0x2e
 1188 00da 01       		.byte	0x1
 1189 00db 03       		.uleb128 0x3
 1190 00dc 0E       		.uleb128 0xe
 1191 00dd 3A       		.uleb128 0x3a
 1192 00de 0B       		.uleb128 0xb
ARM GAS  C:\Users\z80\AppData\Local\Temp\ccWQmZPB.s 			page 22


 1193 00df 3B       		.uleb128 0x3b
 1194 00e0 0B       		.uleb128 0xb
 1195 00e1 27       		.uleb128 0x27
 1196 00e2 0C       		.uleb128 0xc
 1197 00e3 11       		.uleb128 0x11
 1198 00e4 01       		.uleb128 0x1
 1199 00e5 12       		.uleb128 0x12
 1200 00e6 01       		.uleb128 0x1
 1201 00e7 40       		.uleb128 0x40
 1202 00e8 06       		.uleb128 0x6
 1203 00e9 01       		.uleb128 0x1
 1204 00ea 13       		.uleb128 0x13
 1205 00eb 00       		.byte	0
 1206 00ec 00       		.byte	0
 1207 00ed 14       		.uleb128 0x14
 1208 00ee 05       		.uleb128 0x5
 1209 00ef 00       		.byte	0
 1210 00f0 03       		.uleb128 0x3
 1211 00f1 08       		.uleb128 0x8
 1212 00f2 3A       		.uleb128 0x3a
 1213 00f3 0B       		.uleb128 0xb
 1214 00f4 3B       		.uleb128 0x3b
 1215 00f5 0B       		.uleb128 0xb
 1216 00f6 49       		.uleb128 0x49
 1217 00f7 13       		.uleb128 0x13
 1218 00f8 02       		.uleb128 0x2
 1219 00f9 06       		.uleb128 0x6
 1220 00fa 00       		.byte	0
 1221 00fb 00       		.byte	0
 1222 00fc 15       		.uleb128 0x15
 1223 00fd 34       		.uleb128 0x34
 1224 00fe 00       		.byte	0
 1225 00ff 03       		.uleb128 0x3
 1226 0100 08       		.uleb128 0x8
 1227 0101 3A       		.uleb128 0x3a
 1228 0102 0B       		.uleb128 0xb
 1229 0103 3B       		.uleb128 0x3b
 1230 0104 0B       		.uleb128 0xb
 1231 0105 49       		.uleb128 0x49
 1232 0106 13       		.uleb128 0x13
 1233 0107 02       		.uleb128 0x2
 1234 0108 06       		.uleb128 0x6
 1235 0109 00       		.byte	0
 1236 010a 00       		.byte	0
 1237 010b 16       		.uleb128 0x16
 1238 010c 2E       		.uleb128 0x2e
 1239 010d 01       		.byte	0x1
 1240 010e 3F       		.uleb128 0x3f
 1241 010f 0C       		.uleb128 0xc
 1242 0110 03       		.uleb128 0x3
 1243 0111 0E       		.uleb128 0xe
 1244 0112 3A       		.uleb128 0x3a
 1245 0113 0B       		.uleb128 0xb
 1246 0114 3B       		.uleb128 0x3b
 1247 0115 0B       		.uleb128 0xb
 1248 0116 27       		.uleb128 0x27
 1249 0117 0C       		.uleb128 0xc
ARM GAS  C:\Users\z80\AppData\Local\Temp\ccWQmZPB.s 			page 23


 1250 0118 11       		.uleb128 0x11
 1251 0119 01       		.uleb128 0x1
 1252 011a 12       		.uleb128 0x12
 1253 011b 01       		.uleb128 0x1
 1254 011c 40       		.uleb128 0x40
 1255 011d 06       		.uleb128 0x6
 1256 011e 01       		.uleb128 0x1
 1257 011f 13       		.uleb128 0x13
 1258 0120 00       		.byte	0
 1259 0121 00       		.byte	0
 1260 0122 17       		.uleb128 0x17
 1261 0123 0B       		.uleb128 0xb
 1262 0124 01       		.byte	0x1
 1263 0125 55       		.uleb128 0x55
 1264 0126 06       		.uleb128 0x6
 1265 0127 01       		.uleb128 0x1
 1266 0128 13       		.uleb128 0x13
 1267 0129 00       		.byte	0
 1268 012a 00       		.byte	0
 1269 012b 18       		.uleb128 0x18
 1270 012c 0B       		.uleb128 0xb
 1271 012d 01       		.byte	0x1
 1272 012e 55       		.uleb128 0x55
 1273 012f 06       		.uleb128 0x6
 1274 0130 00       		.byte	0
 1275 0131 00       		.byte	0
 1276 0132 19       		.uleb128 0x19
 1277 0133 2E       		.uleb128 0x2e
 1278 0134 01       		.byte	0x1
 1279 0135 3F       		.uleb128 0x3f
 1280 0136 0C       		.uleb128 0xc
 1281 0137 03       		.uleb128 0x3
 1282 0138 0E       		.uleb128 0xe
 1283 0139 3A       		.uleb128 0x3a
 1284 013a 0B       		.uleb128 0xb
 1285 013b 3B       		.uleb128 0x3b
 1286 013c 0B       		.uleb128 0xb
 1287 013d 27       		.uleb128 0x27
 1288 013e 0C       		.uleb128 0xc
 1289 013f 11       		.uleb128 0x11
 1290 0140 01       		.uleb128 0x1
 1291 0141 12       		.uleb128 0x12
 1292 0142 01       		.uleb128 0x1
 1293 0143 40       		.uleb128 0x40
 1294 0144 06       		.uleb128 0x6
 1295 0145 00       		.byte	0
 1296 0146 00       		.byte	0
 1297 0147 1A       		.uleb128 0x1a
 1298 0148 0B       		.uleb128 0xb
 1299 0149 01       		.byte	0x1
 1300 014a 11       		.uleb128 0x11
 1301 014b 01       		.uleb128 0x1
 1302 014c 12       		.uleb128 0x12
 1303 014d 01       		.uleb128 0x1
 1304 014e 00       		.byte	0
 1305 014f 00       		.byte	0
 1306 0150 00       		.byte	0
ARM GAS  C:\Users\z80\AppData\Local\Temp\ccWQmZPB.s 			page 24


 1307              		.section	.debug_loc,"",%progbits
 1308              	.Ldebug_loc0:
 1309              	.LLST0:
 1310 0000 00000000 		.4byte	.LFB7
 1311 0004 02000000 		.4byte	.LCFI0
 1312 0008 0200     		.2byte	0x2
 1313 000a 7D       		.byte	0x7d
 1314 000b 00       		.sleb128 0
 1315 000c 02000000 		.4byte	.LCFI0
 1316 0010 22000000 		.4byte	.LFE7
 1317 0014 0200     		.2byte	0x2
 1318 0016 7D       		.byte	0x7d
 1319 0017 08       		.sleb128 8
 1320 0018 00000000 		.4byte	0
 1321 001c 00000000 		.4byte	0
 1322              	.LLST1:
 1323 0020 00000000 		.4byte	.LVL0
 1324 0024 08000000 		.4byte	.LVL2
 1325 0028 0100     		.2byte	0x1
 1326 002a 50       		.byte	0x50
 1327 002b 0B000000 		.4byte	.LVL3-1
 1328 002f 22000000 		.4byte	.LFE7
 1329 0033 0100     		.2byte	0x1
 1330 0035 54       		.byte	0x54
 1331 0036 00000000 		.4byte	0
 1332 003a 00000000 		.4byte	0
 1333              	.LLST2:
 1334 003e 06000000 		.4byte	.LVL1
 1335 0042 08000000 		.4byte	.LVL2
 1336 0046 0100     		.2byte	0x1
 1337 0048 50       		.byte	0x50
 1338 0049 08000000 		.4byte	.LVL2
 1339 004d 22000000 		.4byte	.LFE7
 1340 0051 0100     		.2byte	0x1
 1341 0053 54       		.byte	0x54
 1342 0054 00000000 		.4byte	0
 1343 0058 00000000 		.4byte	0
 1344              	.LLST3:
 1345 005c 00000000 		.4byte	.LFB8
 1346 0060 02000000 		.4byte	.LCFI1
 1347 0064 0200     		.2byte	0x2
 1348 0066 7D       		.byte	0x7d
 1349 0067 00       		.sleb128 0
 1350 0068 02000000 		.4byte	.LCFI1
 1351 006c 3C000000 		.4byte	.LFE8
 1352 0070 0200     		.2byte	0x2
 1353 0072 7D       		.byte	0x7d
 1354 0073 08       		.sleb128 8
 1355 0074 00000000 		.4byte	0
 1356 0078 00000000 		.4byte	0
 1357              	.LLST4:
 1358 007c 00000000 		.4byte	.LVL4
 1359 0080 0D000000 		.4byte	.LVL7-1
 1360 0084 0100     		.2byte	0x1
 1361 0086 50       		.byte	0x50
 1362 0087 0D000000 		.4byte	.LVL7-1
 1363 008b 3C000000 		.4byte	.LFE8
ARM GAS  C:\Users\z80\AppData\Local\Temp\ccWQmZPB.s 			page 25


 1364 008f 0100     		.2byte	0x1
 1365 0091 54       		.byte	0x54
 1366 0092 00000000 		.4byte	0
 1367 0096 00000000 		.4byte	0
 1368              	.LLST5:
 1369 009a 0A000000 		.4byte	.LVL6
 1370 009e 0D000000 		.4byte	.LVL7-1
 1371 00a2 0100     		.2byte	0x1
 1372 00a4 53       		.byte	0x53
 1373 00a5 00000000 		.4byte	0
 1374 00a9 00000000 		.4byte	0
 1375              	.LLST6:
 1376 00ad 1C000000 		.4byte	.LVL9
 1377 00b1 1E000000 		.4byte	.LVL10
 1378 00b5 0100     		.2byte	0x1
 1379 00b7 53       		.byte	0x53
 1380 00b8 3A000000 		.4byte	.LVL11
 1381 00bc 3C000000 		.4byte	.LFE8
 1382 00c0 0100     		.2byte	0x1
 1383 00c2 53       		.byte	0x53
 1384 00c3 00000000 		.4byte	0
 1385 00c7 00000000 		.4byte	0
 1386              	.LLST7:
 1387 00cb 00000000 		.4byte	.LFB9
 1388 00cf 02000000 		.4byte	.LCFI2
 1389 00d3 0200     		.2byte	0x2
 1390 00d5 7D       		.byte	0x7d
 1391 00d6 00       		.sleb128 0
 1392 00d7 02000000 		.4byte	.LCFI2
 1393 00db 24000000 		.4byte	.LFE9
 1394 00df 0200     		.2byte	0x2
 1395 00e1 7D       		.byte	0x7d
 1396 00e2 08       		.sleb128 8
 1397 00e3 00000000 		.4byte	0
 1398 00e7 00000000 		.4byte	0
 1399              	.LLST8:
 1400 00eb 00000000 		.4byte	.LVL12
 1401 00ef 0D000000 		.4byte	.LVL15-1
 1402 00f3 0100     		.2byte	0x1
 1403 00f5 50       		.byte	0x50
 1404 00f6 0D000000 		.4byte	.LVL15-1
 1405 00fa 24000000 		.4byte	.LFE9
 1406 00fe 0100     		.2byte	0x1
 1407 0100 54       		.byte	0x54
 1408 0101 00000000 		.4byte	0
 1409 0105 00000000 		.4byte	0
 1410              	.LLST9:
 1411 0109 0A000000 		.4byte	.LVL14
 1412 010d 0D000000 		.4byte	.LVL15-1
 1413 0111 0100     		.2byte	0x1
 1414 0113 53       		.byte	0x53
 1415 0114 00000000 		.4byte	0
 1416 0118 00000000 		.4byte	0
 1417              	.LLST10:
 1418 011c 22000000 		.4byte	.LVL17
 1419 0120 24000000 		.4byte	.LFE9
 1420 0124 0100     		.2byte	0x1
ARM GAS  C:\Users\z80\AppData\Local\Temp\ccWQmZPB.s 			page 26


 1421 0126 53       		.byte	0x53
 1422 0127 00000000 		.4byte	0
 1423 012b 00000000 		.4byte	0
 1424              		.section	.debug_aranges,"",%progbits
 1425 0000 2C000000 		.4byte	0x2c
 1426 0004 0200     		.2byte	0x2
 1427 0006 00000000 		.4byte	.Ldebug_info0
 1428 000a 04       		.byte	0x4
 1429 000b 00       		.byte	0
 1430 000c 0000     		.2byte	0
 1431 000e 0000     		.2byte	0
 1432 0010 00000000 		.4byte	.LFB7
 1433 0014 22000000 		.4byte	.LFE7-.LFB7
 1434 0018 00000000 		.4byte	.LFB8
 1435 001c 3C000000 		.4byte	.LFE8-.LFB8
 1436 0020 00000000 		.4byte	.LFB9
 1437 0024 24000000 		.4byte	.LFE9-.LFB9
 1438 0028 00000000 		.4byte	0
 1439 002c 00000000 		.4byte	0
 1440              		.section	.debug_ranges,"",%progbits
 1441              	.Ldebug_ranges0:
 1442 0000 02000000 		.4byte	.LBB2
 1443 0004 04000000 		.4byte	.LBE2
 1444 0008 06000000 		.4byte	.LBB3
 1445 000c 0A000000 		.4byte	.LBE3
 1446 0010 00000000 		.4byte	0
 1447 0014 00000000 		.4byte	0
 1448 0018 16000000 		.4byte	.LBB4
 1449 001c 1C000000 		.4byte	.LBE4
 1450 0020 34000000 		.4byte	.LBB5
 1451 0024 3A000000 		.4byte	.LBE5
 1452 0028 00000000 		.4byte	0
 1453 002c 00000000 		.4byte	0
 1454 0030 02000000 		.4byte	.LBB6
 1455 0034 04000000 		.4byte	.LBE6
 1456 0038 06000000 		.4byte	.LBB7
 1457 003c 0A000000 		.4byte	.LBE7
 1458 0040 00000000 		.4byte	0
 1459 0044 00000000 		.4byte	0
 1460 0048 00000000 		.4byte	.LFB7
 1461 004c 22000000 		.4byte	.LFE7
 1462 0050 00000000 		.4byte	.LFB8
 1463 0054 3C000000 		.4byte	.LFE8
 1464 0058 00000000 		.4byte	.LFB9
 1465 005c 24000000 		.4byte	.LFE9
 1466 0060 00000000 		.4byte	0
 1467 0064 00000000 		.4byte	0
 1468              		.section	.debug_line,"",%progbits
 1469              	.Ldebug_line0:
 1470 0000 AC010000 		.section	.debug_str,"MS",%progbits,1
 1470      02006201 
 1470      00000201 
 1470      FB0E0D00 
 1470      01010101 
 1471              	.LASF67:
 1472 0000 65745F69 		.ascii	"et_interval\000"
 1472      6E746572 
ARM GAS  C:\Users\z80\AppData\Local\Temp\ccWQmZPB.s 			page 27


 1472      76616C00 
 1473              	.LASF33:
 1474 000c 705F6D73 		.ascii	"p_msg\000"
 1474      6700
 1475              	.LASF60:
 1476 0012 7264796D 		.ascii	"rdymsg\000"
 1476      736700
 1477              	.LASF11:
 1478 0019 75696E74 		.ascii	"uint64_t\000"
 1478      36345F74 
 1478      00
 1479              	.LASF12:
 1480 0022 6C6F6E67 		.ascii	"long long unsigned int\000"
 1480      206C6F6E 
 1480      6720756E 
 1480      7369676E 
 1480      65642069 
 1481              	.LASF61:
 1482 0039 65786974 		.ascii	"exitcode\000"
 1482      636F6465 
 1482      00
 1483              	.LASF73:
 1484 0042 65767453 		.ascii	"evtStart\000"
 1484      74617274 
 1484      00
 1485              	.LASF22:
 1486 004b 705F7072 		.ascii	"p_prio\000"
 1486      696F00
 1487              	.LASF10:
 1488 0052 6C6F6E67 		.ascii	"long long int\000"
 1488      206C6F6E 
 1488      6720696E 
 1488      7400
 1489              	.LASF1:
 1490 0060 7369676E 		.ascii	"signed char\000"
 1490      65642063 
 1490      68617200 
 1491              	.LASF68:
 1492 006c 45765469 		.ascii	"EvTimer\000"
 1492      6D657200 
 1493              	.LASF51:
 1494 0074 6D5F7175 		.ascii	"m_queue\000"
 1494      65756500 
 1495              	.LASF71:
 1496 007c 433A5C70 		.ascii	"C:\\projects\\digitizer.git\\firmware\\digitizer\000"
 1496      726F6A65 
 1496      6374735C 
 1496      64696769 
 1496      74697A65 
 1497              	.LASF7:
 1498 00a9 6C6F6E67 		.ascii	"long int\000"
 1498      20696E74 
 1498      00
 1499              	.LASF14:
 1500 00b2 74737461 		.ascii	"tstate_t\000"
 1500      74655F74 
 1500      00
ARM GAS  C:\Users\z80\AppData\Local\Temp\ccWQmZPB.s 			page 28


 1501              	.LASF24:
 1502 00bb 705F6E65 		.ascii	"p_newer\000"
 1502      77657200 
 1503              	.LASF39:
 1504 00c3 72656761 		.ascii	"regarm_t\000"
 1504      726D5F74 
 1504      00
 1505              	.LASF46:
 1506 00cc 76745F70 		.ascii	"vt_prev\000"
 1506      72657600 
 1507              	.LASF58:
 1508 00d4 4576656E 		.ascii	"EventSource\000"
 1508      74536F75 
 1508      72636500 
 1509              	.LASF27:
 1510 00e0 705F7374 		.ascii	"p_stklimit\000"
 1510      6B6C696D 
 1510      697400
 1511              	.LASF0:
 1512 00eb 756E7369 		.ascii	"unsigned int\000"
 1512      676E6564 
 1512      20696E74 
 1512      00
 1513              	.LASF45:
 1514 00f8 76745F6E 		.ascii	"vt_next\000"
 1514      65787400 
 1515              	.LASF9:
 1516 0100 6C6F6E67 		.ascii	"long unsigned int\000"
 1516      20756E73 
 1516      69676E65 
 1516      6420696E 
 1516      7400
 1517              	.LASF42:
 1518 0112 636F6E74 		.ascii	"context\000"
 1518      65787400 
 1519              	.LASF4:
 1520 011a 73686F72 		.ascii	"short unsigned int\000"
 1520      7420756E 
 1520      7369676E 
 1520      65642069 
 1520      6E7400
 1521              	.LASF16:
 1522 012d 6D73675F 		.ascii	"msg_t\000"
 1522      7400
 1523              	.LASF55:
 1524 0133 656C5F6E 		.ascii	"el_next\000"
 1524      65787400 
 1525              	.LASF13:
 1526 013b 746D6F64 		.ascii	"tmode_t\000"
 1526      655F7400 
 1527              	.LASF38:
 1528 0143 54687265 		.ascii	"ThreadsList\000"
 1528      6164734C 
 1528      69737400 
 1529              	.LASF17:
 1530 014f 6576656E 		.ascii	"eventmask_t\000"
 1530      746D6173 
ARM GAS  C:\Users\z80\AppData\Local\Temp\ccWQmZPB.s 			page 29


 1530      6B5F7400 
 1531              	.LASF50:
 1532 015b 4D757465 		.ascii	"Mutex\000"
 1532      7800
 1533              	.LASF40:
 1534 0161 73746B61 		.ascii	"stkalign_t\000"
 1534      6C69676E 
 1534      5F7400
 1535              	.LASF47:
 1536 016c 76745F74 		.ascii	"vt_time\000"
 1536      696D6500 
 1537              	.LASF66:
 1538 0174 65745F65 		.ascii	"et_es\000"
 1538      7300
 1539              	.LASF48:
 1540 017a 76745F66 		.ascii	"vt_func\000"
 1540      756E6300 
 1541              	.LASF57:
 1542 0182 656C5F6D 		.ascii	"el_mask\000"
 1542      61736B00 
 1543              	.LASF25:
 1544 018a 705F6F6C 		.ascii	"p_older\000"
 1544      64657200 
 1545              	.LASF37:
 1546 0192 54687265 		.ascii	"ThreadsQueue\000"
 1546      61647351 
 1546      75657565 
 1546      00
 1547              	.LASF70:
 1548 019f 2E2E2F63 		.ascii	"../chibios_2.4.x/os/various/evtimer.c\000"
 1548      68696269 
 1548      6F735F32 
 1548      2E342E78 
 1548      2F6F732F 
 1549              	.LASF21:
 1550 01c5 705F7072 		.ascii	"p_prev\000"
 1550      657600
 1551              	.LASF15:
 1552 01cc 74707269 		.ascii	"tprio_t\000"
 1552      6F5F7400 
 1553              	.LASF6:
 1554 01d4 696E7433 		.ascii	"int32_t\000"
 1554      325F7400 
 1555              	.LASF2:
 1556 01dc 756E7369 		.ascii	"unsigned char\000"
 1556      676E6564 
 1556      20636861 
 1556      7200
 1557              	.LASF56:
 1558 01ea 656C5F6C 		.ascii	"el_listener\000"
 1558      69737465 
 1558      6E657200 
 1559              	.LASF35:
 1560 01f6 705F6D74 		.ascii	"p_mtxlist\000"
 1560      786C6973 
 1560      7400
 1561              	.LASF3:
ARM GAS  C:\Users\z80\AppData\Local\Temp\ccWQmZPB.s 			page 30


 1562 0200 73686F72 		.ascii	"short int\000"
 1562      7420696E 
 1562      7400
 1563              	.LASF28:
 1564 020a 705F7374 		.ascii	"p_state\000"
 1564      61746500 
 1565              	.LASF63:
 1566 0212 65776D61 		.ascii	"ewmask\000"
 1566      736B00
 1567              	.LASF20:
 1568 0219 705F6E65 		.ascii	"p_next\000"
 1568      787400
 1569              	.LASF29:
 1570 0220 705F666C 		.ascii	"p_flags\000"
 1570      61677300 
 1571              	.LASF19:
 1572 0228 54687265 		.ascii	"Thread\000"
 1572      616400
 1573              	.LASF34:
 1574 022f 705F6570 		.ascii	"p_epending\000"
 1574      656E6469 
 1574      6E6700
 1575              	.LASF8:
 1576 023a 75696E74 		.ascii	"uint32_t\000"
 1576      33325F74 
 1576      00
 1577              	.LASF44:
 1578 0243 56697274 		.ascii	"VirtualTimer\000"
 1578      75616C54 
 1578      696D6572 
 1578      00
 1579              	.LASF69:
 1580 0250 474E5520 		.ascii	"GNU C 4.6.3\000"
 1580      4320342E 
 1580      362E3300 
 1581              	.LASF64:
 1582 025c 63686172 		.ascii	"char\000"
 1582      00
 1583              	.LASF72:
 1584 0261 746D7263 		.ascii	"tmrcb\000"
 1584      6200
 1585              	.LASF53:
 1586 0267 6D5F6E65 		.ascii	"m_next\000"
 1586      787400
 1587              	.LASF18:
 1588 026e 73797374 		.ascii	"systime_t\000"
 1588      696D655F 
 1588      7400
 1589              	.LASF36:
 1590 0278 705F7265 		.ascii	"p_realprio\000"
 1590      616C7072 
 1590      696F00
 1591              	.LASF43:
 1592 0283 76746675 		.ascii	"vtfunc_t\000"
 1592      6E635F74 
 1592      00
 1593              	.LASF74:
ARM GAS  C:\Users\z80\AppData\Local\Temp\ccWQmZPB.s 			page 31


 1594 028c 65767453 		.ascii	"evtStop\000"
 1594      746F7000 
 1595              	.LASF30:
 1596 0294 705F7469 		.ascii	"p_time\000"
 1596      6D6500
 1597              	.LASF41:
 1598 029b 696E7463 		.ascii	"intctx\000"
 1598      747800
 1599              	.LASF32:
 1600 02a2 705F6D73 		.ascii	"p_msgqueue\000"
 1600      67717565 
 1600      756500
 1601              	.LASF49:
 1602 02ad 76745F70 		.ascii	"vt_par\000"
 1602      617200
 1603              	.LASF59:
 1604 02b4 65735F6E 		.ascii	"es_next\000"
 1604      65787400 
 1605              	.LASF5:
 1606 02bc 75696E74 		.ascii	"uint8_t\000"
 1606      385F7400 
 1607              	.LASF54:
 1608 02c4 4576656E 		.ascii	"EventListener\000"
 1608      744C6973 
 1608      74656E65 
 1608      7200
 1609              	.LASF62:
 1610 02d2 77746F62 		.ascii	"wtobjp\000"
 1610      6A7000
 1611              	.LASF26:
 1612 02d9 705F6E61 		.ascii	"p_name\000"
 1612      6D6500
 1613              	.LASF65:
 1614 02e0 65745F76 		.ascii	"et_vt\000"
 1614      7400
 1615              	.LASF52:
 1616 02e6 6D5F6F77 		.ascii	"m_owner\000"
 1616      6E657200 
 1617              	.LASF23:
 1618 02ee 705F6374 		.ascii	"p_ctx\000"
 1618      7800
 1619              	.LASF31:
 1620 02f4 705F7761 		.ascii	"p_waiting\000"
 1620      6974696E 
 1620      6700
 1621              		.ident	"GCC: (Sourcery CodeBench Lite 2012.03-56) 4.6.3"
ARM GAS  C:\Users\z80\AppData\Local\Temp\ccWQmZPB.s 			page 32


DEFINED SYMBOLS
                            *ABS*:00000000 evtimer.c
C:\Users\z80\AppData\Local\Temp\ccWQmZPB.s:19     .text.tmrcb:00000000 $t
C:\Users\z80\AppData\Local\Temp\ccWQmZPB.s:24     .text.tmrcb:00000000 tmrcb
C:\Users\z80\AppData\Local\Temp\ccWQmZPB.s:61     .text.evtStart:00000000 $t
C:\Users\z80\AppData\Local\Temp\ccWQmZPB.s:67     .text.evtStart:00000000 evtStart
C:\Users\z80\AppData\Local\Temp\ccWQmZPB.s:137    .text.evtStop:00000000 $t
C:\Users\z80\AppData\Local\Temp\ccWQmZPB.s:143    .text.evtStop:00000000 evtStop
                     .debug_frame:00000010 $d

UNDEFINED SYMBOLS
chEvtBroadcastFlagsI
chVTSetI
dbg_check_lock
dbg_check_unlock
chVTResetI
