ARM GAS  /tmp/ccplB429.s 			page 1


   1              		.syntax unified
   2              		.cpu cortex-m3
   3              		.fpu softvfp
   4              		.eabi_attribute 20, 1
   5              		.eabi_attribute 21, 1
   6              		.eabi_attribute 23, 3
   7              		.eabi_attribute 24, 1
   8              		.eabi_attribute 25, 1
   9              		.eabi_attribute 26, 1
  10              		.eabi_attribute 30, 6
  11              		.eabi_attribute 18, 4
  12              		.thumb
  13              		.file	"ext.c"
  20 0000 38020000 		.text
  20      02005701 
  20      00000201 
  20      FB0E0D00 
  20      01010101 
  21              	.Ltext0:
  22              		.cfi_sections	.debug_frame
  23              		.section	.text.extInit,"ax",%progbits
  24              		.align	2
  25              		.p2align 4,,15
  26              		.global	extInit
  27              		.thumb
  28              		.thumb_func
  29              		.type	extInit, %function
  30              	extInit:
  31              	.LFB62:
  32              		.file 1 "../chibios_2.4.x/os/hal/src/ext.c"
  33              		.loc 1 68 0
  34              		.cfi_startproc
  35              		@ args = 0, pretend = 0, frame = 0
  36              		@ frame_needed = 0, uses_anonymous_args = 0
  37 0000 08B5     		push	{r3, lr}
  38              	.LCFI0:
  39              		.cfi_def_cfa_offset 8
  40              		.loc 1 70 0
  41              		.cfi_offset 14, -4
  42              		.cfi_offset 3, -8
  43 0002 FFF7FEFF 		bl	ext_lld_init
  44              		.loc 1 71 0
  45 0006 08BD     		pop	{r3, pc}
  46              		.cfi_endproc
  47              	.LFE62:
  48              		.size	extInit, .-extInit
  49 0008 AFF30080 		.section	.text.extObjectInit,"ax",%progbits
  49      AFF30080 
  50              		.align	2
  51              		.p2align 4,,15
  52              		.global	extObjectInit
ARM GAS  /tmp/ccplB429.s 			page 2


  53              		.thumb
  54              		.thumb_func
  55              		.type	extObjectInit, %function
  56              	extObjectInit:
  57              	.LFB63:
  58              		.loc 1 80 0
  59              		.cfi_startproc
  60              		@ args = 0, pretend = 0, frame = 8
  61              		@ frame_needed = 0, uses_anonymous_args = 0
  62              		@ link register save eliminated.
  63 0000 82B0     		sub	sp, sp, #8
  64              	.LCFI1:
  65              		.cfi_def_cfa_offset 8
  66 0002 0190     		str	r0, [sp, #4]
  67              		.loc 1 82 0
  68 0004 019B     		ldr	r3, [sp, #4]
  69 0006 4FF00102 		mov	r2, #1
  70 000a 1A70     		strb	r2, [r3, #0]
  71              		.loc 1 83 0
  72 000c 019B     		ldr	r3, [sp, #4]
  73 000e 4FF00002 		mov	r2, #0
  74 0012 5A60     		str	r2, [r3, #4]
  75              		.loc 1 84 0
  76 0014 02B0     		add	sp, sp, #8
  77 0016 7047     		bx	lr
  78              		.cfi_endproc
  79              	.LFE63:
  80              		.size	extObjectInit, .-extObjectInit
  81 0018 AFF30080 		.section	.rodata
  81      AFF30080 
  82              		.align	2
  83              	.LC0:
  84 0000 22657874 		.ascii	"\"extStart\"()\000"
  84      53746172 
  84      74222829 
  84      00
  85 000d 000000   		.align	2
  86              	.LC1:
  87 0010 65787453 		.ascii	"extStart(), #1\000"
  87      74617274 
  87      28292C20 
  87      233100
  88              		.section	.text.extStart,"ax",%progbits
  89              		.align	2
  90              		.p2align 4,,15
  91              		.global	extStart
  92              		.thumb
  93              		.thumb_func
  94              		.type	extStart, %function
  95              	extStart:
  96              	.LFB64:
  97              		.loc 1 96 0
  98              		.cfi_startproc
  99              		@ args = 0, pretend = 0, frame = 8
 100              		@ frame_needed = 0, uses_anonymous_args = 0
 101 0000 00B5     		push	{lr}
 102              	.LCFI2:
ARM GAS  /tmp/ccplB429.s 			page 3


 103              		.cfi_def_cfa_offset 4
 104 0002 83B0     		sub	sp, sp, #12
 105              	.LCFI3:
 106              		.cfi_def_cfa_offset 16
 107 0004 0190     		str	r0, [sp, #4]
 108 0006 0091     		str	r1, [sp, #0]
 109              		.loc 1 98 0
 110 0008 019B     		ldr	r3, [sp, #4]
 111 000a 002B     		cmp	r3, #0
 112 000c 02D0     		beq	.L4
 113              		.cfi_offset 14, -4
 114              		.loc 1 98 0 is_stmt 0 discriminator 2
 115 000e 009B     		ldr	r3, [sp, #0]
 116 0010 002B     		cmp	r3, #0
 117 0012 02D1     		bne	.L5
 118              	.L4:
 119              		.loc 1 98 0 discriminator 1
 120 0014 1248     		ldr	r0, .L7
 121 0016 FFF7FEFF 		bl	chDbgPanic
 122              	.L5:
 123              	.LBB2:
 124              		.loc 1 100 0 is_stmt 1
 125 001a 4FF02003 		mov	r3, #32
 126              	@ 100 "../chibios_2.4.x/os/hal/src/ext.c" 1
 127 001e 83F31188 		msr     BASEPRI, r3
 128              	@ 0 "" 2
 129              		.thumb
 130              	.LBE2:
 131 0022 FFF7FEFF 		bl	dbg_check_lock
 132              		.loc 1 101 0
 133 0026 019B     		ldr	r3, [sp, #4]
 134 0028 1B78     		ldrb	r3, [r3, #0]	@ zero_extendqisi2
 135 002a 012B     		cmp	r3, #1
 136 002c 06D0     		beq	.L6
 137              		.loc 1 101 0 is_stmt 0 discriminator 1
 138 002e 019B     		ldr	r3, [sp, #4]
 139 0030 1B78     		ldrb	r3, [r3, #0]	@ zero_extendqisi2
 140 0032 022B     		cmp	r3, #2
 141 0034 02D0     		beq	.L6
 142              		.loc 1 101 0 discriminator 2
 143 0036 0B48     		ldr	r0, .L7+4
 144 0038 FFF7FEFF 		bl	chDbgPanic
 145              	.L6:
 146              		.loc 1 103 0 is_stmt 1
 147 003c 019B     		ldr	r3, [sp, #4]
 148 003e 009A     		ldr	r2, [sp, #0]
 149 0040 5A60     		str	r2, [r3, #4]
 150              		.loc 1 104 0
 151 0042 0198     		ldr	r0, [sp, #4]
 152 0044 FFF7FEFF 		bl	ext_lld_start
 153              		.loc 1 105 0
 154 0048 019B     		ldr	r3, [sp, #4]
 155 004a 4FF00202 		mov	r2, #2
 156 004e 1A70     		strb	r2, [r3, #0]
 157              		.loc 1 106 0
 158 0050 FFF7FEFF 		bl	dbg_check_unlock
 159              	.LBB3:
ARM GAS  /tmp/ccplB429.s 			page 4


 160 0054 4FF00003 		mov	r3, #0
 161              	@ 106 "../chibios_2.4.x/os/hal/src/ext.c" 1
 162 0058 83F31188 		msr     BASEPRI, r3
 163              	@ 0 "" 2
 164              		.thumb
 165              	.LBE3:
 166              		.loc 1 107 0
 167 005c 03B0     		add	sp, sp, #12
 168 005e 00BD     		pop	{pc}
 169              	.L8:
 170              		.align	2
 171              	.L7:
 172 0060 00000000 		.word	.LC0
 173 0064 10000000 		.word	.LC1
 174              		.cfi_endproc
 175              	.LFE64:
 176              		.size	extStart, .-extStart
 177 0068 AFF30080 		.section	.rodata
 177      AFF30080 
 178 001f 00       		.align	2
 179              	.LC2:
 180 0020 22657874 		.ascii	"\"extStop\"()\000"
 180      53746F70 
 180      22282900 
 181              		.align	2
 182              	.LC3:
 183 002c 65787453 		.ascii	"extStop(), #1\000"
 183      746F7028 
 183      292C2023 
 183      3100
 184              		.section	.text.extStop,"ax",%progbits
 185              		.align	2
 186              		.p2align 4,,15
 187              		.global	extStop
 188              		.thumb
 189              		.thumb_func
 190              		.type	extStop, %function
 191              	extStop:
 192              	.LFB65:
 193              		.loc 1 116 0
 194              		.cfi_startproc
 195              		@ args = 0, pretend = 0, frame = 8
 196              		@ frame_needed = 0, uses_anonymous_args = 0
 197 0000 00B5     		push	{lr}
 198              	.LCFI4:
 199              		.cfi_def_cfa_offset 4
 200 0002 83B0     		sub	sp, sp, #12
 201              	.LCFI5:
 202              		.cfi_def_cfa_offset 16
 203 0004 0190     		str	r0, [sp, #4]
 204              		.loc 1 118 0
 205 0006 019B     		ldr	r3, [sp, #4]
 206 0008 002B     		cmp	r3, #0
 207 000a 02D1     		bne	.L10
 208              		.cfi_offset 14, -4
 209              		.loc 1 118 0 is_stmt 0 discriminator 1
 210 000c 1148     		ldr	r0, .L12
ARM GAS  /tmp/ccplB429.s 			page 5


 211 000e FFF7FEFF 		bl	chDbgPanic
 212              	.L10:
 213              	.LBB4:
 214              		.loc 1 120 0 is_stmt 1
 215 0012 4FF02003 		mov	r3, #32
 216              	@ 120 "../chibios_2.4.x/os/hal/src/ext.c" 1
 217 0016 83F31188 		msr     BASEPRI, r3
 218              	@ 0 "" 2
 219              		.thumb
 220              	.LBE4:
 221 001a FFF7FEFF 		bl	dbg_check_lock
 222              		.loc 1 121 0
 223 001e 019B     		ldr	r3, [sp, #4]
 224 0020 1B78     		ldrb	r3, [r3, #0]	@ zero_extendqisi2
 225 0022 012B     		cmp	r3, #1
 226 0024 06D0     		beq	.L11
 227              		.loc 1 121 0 is_stmt 0 discriminator 1
 228 0026 019B     		ldr	r3, [sp, #4]
 229 0028 1B78     		ldrb	r3, [r3, #0]	@ zero_extendqisi2
 230 002a 022B     		cmp	r3, #2
 231 002c 02D0     		beq	.L11
 232              		.loc 1 121 0 discriminator 2
 233 002e 0A48     		ldr	r0, .L12+4
 234 0030 FFF7FEFF 		bl	chDbgPanic
 235              	.L11:
 236              		.loc 1 123 0 is_stmt 1
 237 0034 0198     		ldr	r0, [sp, #4]
 238 0036 FFF7FEFF 		bl	ext_lld_stop
 239              		.loc 1 124 0
 240 003a 019B     		ldr	r3, [sp, #4]
 241 003c 4FF00102 		mov	r2, #1
 242 0040 1A70     		strb	r2, [r3, #0]
 243              		.loc 1 125 0
 244 0042 FFF7FEFF 		bl	dbg_check_unlock
 245              	.LBB5:
 246 0046 4FF00003 		mov	r3, #0
 247              	@ 125 "../chibios_2.4.x/os/hal/src/ext.c" 1
 248 004a 83F31188 		msr     BASEPRI, r3
 249              	@ 0 "" 2
 250              		.thumb
 251              	.LBE5:
 252              		.loc 1 126 0
 253 004e 03B0     		add	sp, sp, #12
 254 0050 00BD     		pop	{pc}
 255              	.L13:
 256 0052 00BF     		.align	2
 257              	.L12:
 258 0054 20000000 		.word	.LC2
 259 0058 2C000000 		.word	.LC3
 260              		.cfi_endproc
 261              	.LFE65:
 262              		.size	extStop, .-extStop
 263 005c AFF30080 		.section	.rodata
 264 003a 0000     		.align	2
 265              	.LC4:
 266 003c 22657874 		.ascii	"\"extChannelEnable\"()\000"
 266      4368616E 
ARM GAS  /tmp/ccplB429.s 			page 6


 266      6E656C45 
 266      6E61626C 
 266      65222829 
 267 0051 000000   		.align	2
 268              	.LC5:
 269 0054 65787443 		.ascii	"extChannelEnable(), #1\000"
 269      68616E6E 
 269      656C456E 
 269      61626C65 
 269      28292C20 
 270              		.section	.text.extChannelEnable,"ax",%progbits
 271              		.align	2
 272              		.p2align 4,,15
 273              		.global	extChannelEnable
 274              		.thumb
 275              		.thumb_func
 276              		.type	extChannelEnable, %function
 277              	extChannelEnable:
 278              	.LFB66:
 279              		.loc 1 136 0
 280              		.cfi_startproc
 281              		@ args = 0, pretend = 0, frame = 8
 282              		@ frame_needed = 0, uses_anonymous_args = 0
 283 0000 00B5     		push	{lr}
 284              	.LCFI6:
 285              		.cfi_def_cfa_offset 4
 286 0002 83B0     		sub	sp, sp, #12
 287              	.LCFI7:
 288              		.cfi_def_cfa_offset 16
 289 0004 0190     		str	r0, [sp, #4]
 290 0006 0091     		str	r1, [sp, #0]
 291              		.loc 1 138 0
 292 0008 019B     		ldr	r3, [sp, #4]
 293 000a 002B     		cmp	r3, #0
 294 000c 09D0     		beq	.L15
 295              		.cfi_offset 14, -4
 296              		.loc 1 138 0 is_stmt 0 discriminator 2
 297 000e 009B     		ldr	r3, [sp, #0]
 298 0010 122B     		cmp	r3, #18
 299 0012 06D8     		bhi	.L15
 300              		.loc 1 138 0 discriminator 3
 301 0014 019B     		ldr	r3, [sp, #4]
 302 0016 5B68     		ldr	r3, [r3, #4]
 303 0018 009A     		ldr	r2, [sp, #0]
 304 001a 53F83230 		ldr	r3, [r3, r2, lsl #3]
 305 001e 002B     		cmp	r3, #0
 306 0020 02D1     		bne	.L16
 307              	.L15:
 308              		.loc 1 138 0 discriminator 1
 309 0022 0E48     		ldr	r0, .L18
 310 0024 FFF7FEFF 		bl	chDbgPanic
 311              	.L16:
 312              	.LBB6:
 313              		.loc 1 143 0 is_stmt 1
 314 0028 4FF02003 		mov	r3, #32
 315              	@ 143 "../chibios_2.4.x/os/hal/src/ext.c" 1
 316 002c 83F31188 		msr     BASEPRI, r3
ARM GAS  /tmp/ccplB429.s 			page 7


 317              	@ 0 "" 2
 318              		.thumb
 319              	.LBE6:
 320 0030 FFF7FEFF 		bl	dbg_check_lock
 321              		.loc 1 144 0
 322 0034 019B     		ldr	r3, [sp, #4]
 323 0036 1B78     		ldrb	r3, [r3, #0]	@ zero_extendqisi2
 324 0038 022B     		cmp	r3, #2
 325 003a 02D0     		beq	.L17
 326              		.loc 1 144 0 is_stmt 0 discriminator 1
 327 003c 0848     		ldr	r0, .L18+4
 328 003e FFF7FEFF 		bl	chDbgPanic
 329              	.L17:
 330              		.loc 1 146 0 is_stmt 1
 331 0042 0198     		ldr	r0, [sp, #4]
 332 0044 0099     		ldr	r1, [sp, #0]
 333 0046 FFF7FEFF 		bl	ext_lld_channel_enable
 334              		.loc 1 147 0
 335 004a FFF7FEFF 		bl	dbg_check_unlock
 336              	.LBB7:
 337 004e 4FF00003 		mov	r3, #0
 338              	@ 147 "../chibios_2.4.x/os/hal/src/ext.c" 1
 339 0052 83F31188 		msr     BASEPRI, r3
 340              	@ 0 "" 2
 341              		.thumb
 342              	.LBE7:
 343              		.loc 1 148 0
 344 0056 03B0     		add	sp, sp, #12
 345 0058 00BD     		pop	{pc}
 346              	.L19:
 347 005a 00BF     		.align	2
 348              	.L18:
 349 005c 3C000000 		.word	.LC4
 350 0060 54000000 		.word	.LC5
 351              		.cfi_endproc
 352              	.LFE66:
 353              		.size	extChannelEnable, .-extChannelEnable
 354 0064 AFF30080 		.section	.rodata
 354      AFF30080 
 354      AFF30080 
 355 006b 00       		.align	2
 356              	.LC6:
 357 006c 22657874 		.ascii	"\"extChannelDisable\"()\000"
 357      4368616E 
 357      6E656C44 
 357      69736162 
 357      6C652228 
 358 0082 0000     		.align	2
 359              	.LC7:
 360 0084 65787443 		.ascii	"extChannelDisable(), #1\000"
 360      68616E6E 
 360      656C4469 
 360      7361626C 
 360      6528292C 
 361              		.section	.text.extChannelDisable,"ax",%progbits
 362              		.align	2
 363              		.p2align 4,,15
ARM GAS  /tmp/ccplB429.s 			page 8


 364              		.global	extChannelDisable
 365              		.thumb
 366              		.thumb_func
 367              		.type	extChannelDisable, %function
 368              	extChannelDisable:
 369              	.LFB67:
 370              		.loc 1 158 0
 371              		.cfi_startproc
 372              		@ args = 0, pretend = 0, frame = 8
 373              		@ frame_needed = 0, uses_anonymous_args = 0
 374 0000 00B5     		push	{lr}
 375              	.LCFI8:
 376              		.cfi_def_cfa_offset 4
 377 0002 83B0     		sub	sp, sp, #12
 378              	.LCFI9:
 379              		.cfi_def_cfa_offset 16
 380 0004 0190     		str	r0, [sp, #4]
 381 0006 0091     		str	r1, [sp, #0]
 382              		.loc 1 160 0
 383 0008 019B     		ldr	r3, [sp, #4]
 384 000a 002B     		cmp	r3, #0
 385 000c 09D0     		beq	.L21
 386              		.cfi_offset 14, -4
 387              		.loc 1 160 0 is_stmt 0 discriminator 2
 388 000e 009B     		ldr	r3, [sp, #0]
 389 0010 122B     		cmp	r3, #18
 390 0012 06D8     		bhi	.L21
 391              		.loc 1 160 0 discriminator 3
 392 0014 019B     		ldr	r3, [sp, #4]
 393 0016 5B68     		ldr	r3, [r3, #4]
 394 0018 009A     		ldr	r2, [sp, #0]
 395 001a 53F83230 		ldr	r3, [r3, r2, lsl #3]
 396 001e 002B     		cmp	r3, #0
 397 0020 02D1     		bne	.L22
 398              	.L21:
 399              		.loc 1 160 0 discriminator 1
 400 0022 0E48     		ldr	r0, .L24
 401 0024 FFF7FEFF 		bl	chDbgPanic
 402              	.L22:
 403              	.LBB8:
 404              		.loc 1 165 0 is_stmt 1
 405 0028 4FF02003 		mov	r3, #32
 406              	@ 165 "../chibios_2.4.x/os/hal/src/ext.c" 1
 407 002c 83F31188 		msr     BASEPRI, r3
 408              	@ 0 "" 2
 409              		.thumb
 410              	.LBE8:
 411 0030 FFF7FEFF 		bl	dbg_check_lock
 412              		.loc 1 166 0
 413 0034 019B     		ldr	r3, [sp, #4]
 414 0036 1B78     		ldrb	r3, [r3, #0]	@ zero_extendqisi2
 415 0038 022B     		cmp	r3, #2
 416 003a 02D0     		beq	.L23
 417              		.loc 1 166 0 is_stmt 0 discriminator 1
 418 003c 0848     		ldr	r0, .L24+4
 419 003e FFF7FEFF 		bl	chDbgPanic
 420              	.L23:
ARM GAS  /tmp/ccplB429.s 			page 9


 421              		.loc 1 168 0 is_stmt 1
 422 0042 0198     		ldr	r0, [sp, #4]
 423 0044 0099     		ldr	r1, [sp, #0]
 424 0046 FFF7FEFF 		bl	ext_lld_channel_disable
 425              		.loc 1 169 0
 426 004a FFF7FEFF 		bl	dbg_check_unlock
 427              	.LBB9:
 428 004e 4FF00003 		mov	r3, #0
 429              	@ 169 "../chibios_2.4.x/os/hal/src/ext.c" 1
 430 0052 83F31188 		msr     BASEPRI, r3
 431              	@ 0 "" 2
 432              		.thumb
 433              	.LBE9:
 434              		.loc 1 170 0
 435 0056 03B0     		add	sp, sp, #12
 436 0058 00BD     		pop	{pc}
 437              	.L25:
 438 005a 00BF     		.align	2
 439              	.L24:
 440 005c 6C000000 		.word	.LC6
 441 0060 84000000 		.word	.LC7
 442              		.cfi_endproc
 443              	.LFE67:
 444              		.size	extChannelDisable, .-extChannelDisable
 445 0064 AFF30080 		.text
 445      AFF30080 
 445      AFF30080 
 446              	.Letext0: