ARM GAS  C:\Users\z80\AppData\Local\Temp\ccFKGgwN.s 			page 1


   1              		.syntax unified
   2              		.cpu cortex-m3
   3              		.fpu softvfp
   4              		.eabi_attribute 20, 1
   5              		.eabi_attribute 21, 1
   6              		.eabi_attribute 23, 3
   7              		.eabi_attribute 24, 1
   8              		.eabi_attribute 25, 1
   9              		.eabi_attribute 26, 1
  10              		.eabi_attribute 30, 2
  11              		.eabi_attribute 34, 1
  12              		.eabi_attribute 18, 4
  13              		.thumb
  14              		.file	"ext_lld.c"
  15              		.text
  16              	.Ltext0:
  17              		.cfi_sections	.debug_frame
  18              		.section	.text.Vector58,"ax",%progbits
  19              		.align	2
  20              		.p2align 4,,15
  21              		.global	Vector58
  22              		.thumb
  23              		.thumb_func
  24              		.type	Vector58, %function
  25              	Vector58:
  26              	.LFB62:
  27              		.file 1 "../chibios_2.4.x/os/hal/platforms/STM32/ext_lld.c"
  28              		.loc 1 71 0
  29              		.cfi_startproc
  30              		@ args = 0, pretend = 0, frame = 0
  31              		@ frame_needed = 0, uses_anonymous_args = 0
  32 0000 10B5     		push	{r4, lr}
  33              	.LCFI0:
  34              		.cfi_def_cfa_offset 8
  35              		.cfi_offset 14, -4
  36              		.cfi_offset 4, -8
  37              		.loc 1 73 0
  38 0002 FFF7FEFF 		bl	dbg_check_enter_isr
  39              		.loc 1 76 0
  40 0006 40F20000 		movw	r0, #:lower16:.LANCHOR0
  41 000a C0F20000 		movt	r0, #:upper16:.LANCHOR0
  42 000e 4268     		ldr	r2, [r0, #4]
  43              		.loc 1 75 0
  44 0010 4FF4806C 		mov	ip, #1024
  45 0014 C4F2010C 		movt	ip, 16385
  46 0018 0124     		movs	r4, #1
  47              		.loc 1 76 0
  48 001a 0021     		movs	r1, #0
  49              		.loc 1 75 0
  50 001c CCF81440 		str	r4, [ip, #20]
  51              		.loc 1 76 0
  52 0020 5368     		ldr	r3, [r2, #4]
  53 0022 9847     		blx	r3
  54              		.loc 1 78 0
  55 0024 FFF7FEFF 		bl	dbg_check_leave_isr
  56              		.loc 1 79 0
  57 0028 BDE81040 		pop	{r4, lr}
ARM GAS  C:\Users\z80\AppData\Local\Temp\ccFKGgwN.s 			page 2


  58              		.loc 1 78 0
  59 002c FFF7FEBF 		b	_port_irq_epilogue
  60              		.cfi_endproc
  61              	.LFE62:
  62              		.size	Vector58, .-Vector58
  63              		.section	.text.Vector5C,"ax",%progbits
  64              		.align	2
  65              		.p2align 4,,15
  66              		.global	Vector5C
  67              		.thumb
  68              		.thumb_func
  69              		.type	Vector5C, %function
  70              	Vector5C:
  71              	.LFB63:
  72              		.loc 1 86 0
  73              		.cfi_startproc
  74              		@ args = 0, pretend = 0, frame = 0
  75              		@ frame_needed = 0, uses_anonymous_args = 0
  76 0000 10B5     		push	{r4, lr}
  77              	.LCFI1:
  78              		.cfi_def_cfa_offset 8
  79              		.cfi_offset 14, -4
  80              		.cfi_offset 4, -8
  81              		.loc 1 88 0
  82 0002 FFF7FEFF 		bl	dbg_check_enter_isr
  83              		.loc 1 91 0
  84 0006 40F20000 		movw	r0, #:lower16:.LANCHOR0
  85 000a C0F20000 		movt	r0, #:upper16:.LANCHOR0
  86 000e 4268     		ldr	r2, [r0, #4]
  87              		.loc 1 90 0
  88 0010 4FF4806C 		mov	ip, #1024
  89 0014 C4F2010C 		movt	ip, 16385
  90 0018 0224     		movs	r4, #2
  91              		.loc 1 91 0
  92 001a 0121     		movs	r1, #1
  93              		.loc 1 90 0
  94 001c CCF81440 		str	r4, [ip, #20]
  95              		.loc 1 91 0
  96 0020 D368     		ldr	r3, [r2, #12]
  97 0022 9847     		blx	r3
  98              		.loc 1 93 0
  99 0024 FFF7FEFF 		bl	dbg_check_leave_isr
 100              		.loc 1 94 0
 101 0028 BDE81040 		pop	{r4, lr}
 102              		.loc 1 93 0
 103 002c FFF7FEBF 		b	_port_irq_epilogue
 104              		.cfi_endproc
 105              	.LFE63:
 106              		.size	Vector5C, .-Vector5C
 107              		.section	.text.Vector60,"ax",%progbits
 108              		.align	2
 109              		.p2align 4,,15
 110              		.global	Vector60
 111              		.thumb
 112              		.thumb_func
 113              		.type	Vector60, %function
 114              	Vector60:
ARM GAS  C:\Users\z80\AppData\Local\Temp\ccFKGgwN.s 			page 3


 115              	.LFB64:
 116              		.loc 1 101 0
 117              		.cfi_startproc
 118              		@ args = 0, pretend = 0, frame = 0
 119              		@ frame_needed = 0, uses_anonymous_args = 0
 120 0000 10B5     		push	{r4, lr}
 121              	.LCFI2:
 122              		.cfi_def_cfa_offset 8
 123              		.cfi_offset 14, -4
 124              		.cfi_offset 4, -8
 125              		.loc 1 103 0
 126 0002 FFF7FEFF 		bl	dbg_check_enter_isr
 127              		.loc 1 106 0
 128 0006 40F20000 		movw	r0, #:lower16:.LANCHOR0
 129 000a C0F20000 		movt	r0, #:upper16:.LANCHOR0
 130 000e 4268     		ldr	r2, [r0, #4]
 131              		.loc 1 105 0
 132 0010 4FF4806C 		mov	ip, #1024
 133 0014 C4F2010C 		movt	ip, 16385
 134 0018 0424     		movs	r4, #4
 135              		.loc 1 106 0
 136 001a 0221     		movs	r1, #2
 137              		.loc 1 105 0
 138 001c CCF81440 		str	r4, [ip, #20]
 139              		.loc 1 106 0
 140 0020 5369     		ldr	r3, [r2, #20]
 141 0022 9847     		blx	r3
 142              		.loc 1 108 0
 143 0024 FFF7FEFF 		bl	dbg_check_leave_isr
 144              		.loc 1 109 0
 145 0028 BDE81040 		pop	{r4, lr}
 146              		.loc 1 108 0
 147 002c FFF7FEBF 		b	_port_irq_epilogue
 148              		.cfi_endproc
 149              	.LFE64:
 150              		.size	Vector60, .-Vector60
 151              		.section	.text.Vector64,"ax",%progbits
 152              		.align	2
 153              		.p2align 4,,15
 154              		.global	Vector64
 155              		.thumb
 156              		.thumb_func
 157              		.type	Vector64, %function
 158              	Vector64:
 159              	.LFB65:
 160              		.loc 1 116 0
 161              		.cfi_startproc
 162              		@ args = 0, pretend = 0, frame = 0
 163              		@ frame_needed = 0, uses_anonymous_args = 0
 164 0000 10B5     		push	{r4, lr}
 165              	.LCFI3:
 166              		.cfi_def_cfa_offset 8
 167              		.cfi_offset 14, -4
 168              		.cfi_offset 4, -8
 169              		.loc 1 118 0
 170 0002 FFF7FEFF 		bl	dbg_check_enter_isr
 171              		.loc 1 121 0
ARM GAS  C:\Users\z80\AppData\Local\Temp\ccFKGgwN.s 			page 4


 172 0006 40F20000 		movw	r0, #:lower16:.LANCHOR0
 173 000a C0F20000 		movt	r0, #:upper16:.LANCHOR0
 174 000e 4268     		ldr	r2, [r0, #4]
 175              		.loc 1 120 0
 176 0010 4FF4806C 		mov	ip, #1024
 177 0014 C4F2010C 		movt	ip, 16385
 178 0018 0824     		movs	r4, #8
 179              		.loc 1 121 0
 180 001a 0321     		movs	r1, #3
 181              		.loc 1 120 0
 182 001c CCF81440 		str	r4, [ip, #20]
 183              		.loc 1 121 0
 184 0020 D369     		ldr	r3, [r2, #28]
 185 0022 9847     		blx	r3
 186              		.loc 1 123 0
 187 0024 FFF7FEFF 		bl	dbg_check_leave_isr
 188              		.loc 1 124 0
 189 0028 BDE81040 		pop	{r4, lr}
 190              		.loc 1 123 0
 191 002c FFF7FEBF 		b	_port_irq_epilogue
 192              		.cfi_endproc
 193              	.LFE65:
 194              		.size	Vector64, .-Vector64
 195              		.section	.text.Vector68,"ax",%progbits
 196              		.align	2
 197              		.p2align 4,,15
 198              		.global	Vector68
 199              		.thumb
 200              		.thumb_func
 201              		.type	Vector68, %function
 202              	Vector68:
 203              	.LFB66:
 204              		.loc 1 131 0
 205              		.cfi_startproc
 206              		@ args = 0, pretend = 0, frame = 0
 207              		@ frame_needed = 0, uses_anonymous_args = 0
 208 0000 10B5     		push	{r4, lr}
 209              	.LCFI4:
 210              		.cfi_def_cfa_offset 8
 211              		.cfi_offset 14, -4
 212              		.cfi_offset 4, -8
 213              		.loc 1 133 0
 214 0002 FFF7FEFF 		bl	dbg_check_enter_isr
 215              		.loc 1 136 0
 216 0006 40F20000 		movw	r0, #:lower16:.LANCHOR0
 217 000a C0F20000 		movt	r0, #:upper16:.LANCHOR0
 218 000e 4268     		ldr	r2, [r0, #4]
 219              		.loc 1 135 0
 220 0010 4FF4806C 		mov	ip, #1024
 221 0014 C4F2010C 		movt	ip, 16385
 222 0018 1024     		movs	r4, #16
 223              		.loc 1 136 0
 224 001a 0421     		movs	r1, #4
 225              		.loc 1 135 0
 226 001c CCF81440 		str	r4, [ip, #20]
 227              		.loc 1 136 0
 228 0020 536A     		ldr	r3, [r2, #36]
ARM GAS  C:\Users\z80\AppData\Local\Temp\ccFKGgwN.s 			page 5


 229 0022 9847     		blx	r3
 230              		.loc 1 138 0
 231 0024 FFF7FEFF 		bl	dbg_check_leave_isr
 232              		.loc 1 139 0
 233 0028 BDE81040 		pop	{r4, lr}
 234              		.loc 1 138 0
 235 002c FFF7FEBF 		b	_port_irq_epilogue
 236              		.cfi_endproc
 237              	.LFE66:
 238              		.size	Vector68, .-Vector68
 239              		.section	.text.Vector9C,"ax",%progbits
 240              		.align	2
 241              		.p2align 4,,15
 242              		.global	Vector9C
 243              		.thumb
 244              		.thumb_func
 245              		.type	Vector9C, %function
 246              	Vector9C:
 247              	.LFB67:
 248              		.loc 1 146 0
 249              		.cfi_startproc
 250              		@ args = 0, pretend = 0, frame = 0
 251              		@ frame_needed = 0, uses_anonymous_args = 0
 252 0000 10B5     		push	{r4, lr}
 253              	.LCFI5:
 254              		.cfi_def_cfa_offset 8
 255              		.cfi_offset 14, -4
 256              		.cfi_offset 4, -8
 257              		.loc 1 149 0
 258 0002 FFF7FEFF 		bl	dbg_check_enter_isr
 259              		.loc 1 151 0
 260 0006 4FF48063 		mov	r3, #1024
 261 000a C4F20103 		movt	r3, 16385
 262 000e 5A69     		ldr	r2, [r3, #20]
 263 0010 02F47874 		and	r4, r2, #992
 264              	.LVL0:
 265              		.loc 1 152 0
 266 0014 5C61     		str	r4, [r3, #20]
 267              		.loc 1 153 0
 268 0016 9306     		lsls	r3, r2, #26
 269 0018 30D4     		bmi	.L13
 270              	.L7:
 271              		.loc 1 155 0
 272 001a 6006     		lsls	r0, r4, #25
 273 001c 25D4     		bmi	.L14
 274              	.L8:
 275              		.loc 1 157 0
 276 001e 2106     		lsls	r1, r4, #24
 277 0020 1AD4     		bmi	.L15
 278              	.L9:
 279              		.loc 1 159 0
 280 0022 E205     		lsls	r2, r4, #23
 281 0024 0FD4     		bmi	.L16
 282              	.L10:
 283              		.loc 1 161 0
 284 0026 A305     		lsls	r3, r4, #22
 285 0028 07D5     		bpl	.L11
ARM GAS  C:\Users\z80\AppData\Local\Temp\ccFKGgwN.s 			page 6


 286              		.loc 1 162 0
 287 002a 40F20000 		movw	r0, #:lower16:.LANCHOR0
 288 002e C0F20000 		movt	r0, #:upper16:.LANCHOR0
 289 0032 4168     		ldr	r1, [r0, #4]
 290 0034 CA6C     		ldr	r2, [r1, #76]
 291 0036 0921     		movs	r1, #9
 292 0038 9047     		blx	r2
 293              	.L11:
 294              		.loc 1 164 0
 295 003a FFF7FEFF 		bl	dbg_check_leave_isr
 296              		.loc 1 165 0
 297 003e BDE81040 		pop	{r4, lr}
 298              		.loc 1 164 0
 299 0042 FFF7FEBF 		b	_port_irq_epilogue
 300              	.L16:
 301              		.loc 1 160 0
 302 0046 40F20000 		movw	r0, #:lower16:.LANCHOR0
 303 004a C0F20000 		movt	r0, #:upper16:.LANCHOR0
 304 004e 4368     		ldr	r3, [r0, #4]
 305 0050 0821     		movs	r1, #8
 306 0052 5A6C     		ldr	r2, [r3, #68]
 307 0054 9047     		blx	r2
 308 0056 E6E7     		b	.L10
 309              	.L15:
 310              		.loc 1 158 0
 311 0058 40F20000 		movw	r0, #:lower16:.LANCHOR0
 312 005c C0F20000 		movt	r0, #:upper16:.LANCHOR0
 313 0060 4168     		ldr	r1, [r0, #4]
 314 0062 CB6B     		ldr	r3, [r1, #60]
 315 0064 0721     		movs	r1, #7
 316 0066 9847     		blx	r3
 317 0068 DBE7     		b	.L9
 318              	.L14:
 319              		.loc 1 156 0
 320 006a 40F20000 		movw	r0, #:lower16:.LANCHOR0
 321 006e C0F20000 		movt	r0, #:upper16:.LANCHOR0
 322 0072 4268     		ldr	r2, [r0, #4]
 323 0074 0621     		movs	r1, #6
 324 0076 536B     		ldr	r3, [r2, #52]
 325 0078 9847     		blx	r3
 326 007a D0E7     		b	.L8
 327              	.L13:
 328              		.loc 1 154 0
 329 007c 40F20000 		movw	r0, #:lower16:.LANCHOR0
 330 0080 C0F20000 		movt	r0, #:upper16:.LANCHOR0
 331 0084 4168     		ldr	r1, [r0, #4]
 332 0086 CA6A     		ldr	r2, [r1, #44]
 333 0088 0521     		movs	r1, #5
 334 008a 9047     		blx	r2
 335 008c C5E7     		b	.L7
 336              		.cfi_endproc
 337              	.LFE67:
 338              		.size	Vector9C, .-Vector9C
 339 008e 00BF     		.section	.text.VectorE0,"ax",%progbits
 340              		.align	2
 341              		.p2align 4,,15
 342              		.global	VectorE0
ARM GAS  C:\Users\z80\AppData\Local\Temp\ccFKGgwN.s 			page 7


 343              		.thumb
 344              		.thumb_func
 345              		.type	VectorE0, %function
 346              	VectorE0:
 347              	.LFB68:
 348              		.loc 1 172 0
 349              		.cfi_startproc
 350              		@ args = 0, pretend = 0, frame = 0
 351              		@ frame_needed = 0, uses_anonymous_args = 0
 352 0000 10B5     		push	{r4, lr}
 353              	.LCFI6:
 354              		.cfi_def_cfa_offset 8
 355              		.cfi_offset 14, -4
 356              		.cfi_offset 4, -8
 357              		.loc 1 175 0
 358 0002 FFF7FEFF 		bl	dbg_check_enter_isr
 359              		.loc 1 177 0
 360 0006 4FF48063 		mov	r3, #1024
 361 000a C4F20103 		movt	r3, 16385
 362 000e 5A69     		ldr	r2, [r3, #20]
 363 0010 02F47C44 		and	r4, r2, #64512
 364              	.LVL1:
 365              		.loc 1 180 0
 366 0014 5105     		lsls	r1, r2, #21
 367              		.loc 1 179 0
 368 0016 5C61     		str	r4, [r3, #20]
 369              		.loc 1 180 0
 370 0018 3BD4     		bmi	.L24
 371              	.L18:
 372              		.loc 1 182 0
 373 001a 2205     		lsls	r2, r4, #20
 374 001c 30D4     		bmi	.L25
 375              	.L19:
 376              		.loc 1 184 0
 377 001e E304     		lsls	r3, r4, #19
 378 0020 25D4     		bmi	.L26
 379              	.L20:
 380              		.loc 1 186 0
 381 0022 A004     		lsls	r0, r4, #18
 382 0024 1AD4     		bmi	.L27
 383              	.L21:
 384              		.loc 1 188 0
 385 0026 6104     		lsls	r1, r4, #17
 386 0028 0FD4     		bmi	.L28
 387              	.L22:
 388              		.loc 1 190 0
 389 002a 2204     		lsls	r2, r4, #16
 390 002c 07D5     		bpl	.L23
 391              		.loc 1 191 0
 392 002e 40F20000 		movw	r0, #:lower16:.LANCHOR0
 393 0032 C0F20000 		movt	r0, #:upper16:.LANCHOR0
 394 0036 4268     		ldr	r2, [r0, #4]
 395 0038 0F21     		movs	r1, #15
 396 003a D36F     		ldr	r3, [r2, #124]
 397 003c 9847     		blx	r3
 398              	.L23:
 399              		.loc 1 193 0
ARM GAS  C:\Users\z80\AppData\Local\Temp\ccFKGgwN.s 			page 8


 400 003e FFF7FEFF 		bl	dbg_check_leave_isr
 401              		.loc 1 194 0
 402 0042 BDE81040 		pop	{r4, lr}
 403              		.loc 1 193 0
 404 0046 FFF7FEBF 		b	_port_irq_epilogue
 405              	.L28:
 406              		.loc 1 189 0
 407 004a 40F20000 		movw	r0, #:lower16:.LANCHOR0
 408 004e C0F20000 		movt	r0, #:upper16:.LANCHOR0
 409 0052 4168     		ldr	r1, [r0, #4]
 410 0054 4A6F     		ldr	r2, [r1, #116]
 411 0056 0E21     		movs	r1, #14
 412 0058 9047     		blx	r2
 413 005a E6E7     		b	.L22
 414              	.L27:
 415              		.loc 1 187 0
 416 005c 40F20000 		movw	r0, #:lower16:.LANCHOR0
 417 0060 C0F20000 		movt	r0, #:upper16:.LANCHOR0
 418 0064 4368     		ldr	r3, [r0, #4]
 419 0066 0D21     		movs	r1, #13
 420 0068 DA6E     		ldr	r2, [r3, #108]
 421 006a 9047     		blx	r2
 422 006c DBE7     		b	.L21
 423              	.L26:
 424              		.loc 1 185 0
 425 006e 40F20000 		movw	r0, #:lower16:.LANCHOR0
 426 0072 C0F20000 		movt	r0, #:upper16:.LANCHOR0
 427 0076 4168     		ldr	r1, [r0, #4]
 428 0078 4B6E     		ldr	r3, [r1, #100]
 429 007a 0C21     		movs	r1, #12
 430 007c 9847     		blx	r3
 431 007e D0E7     		b	.L20
 432              	.L25:
 433              		.loc 1 183 0
 434 0080 40F20000 		movw	r0, #:lower16:.LANCHOR0
 435 0084 C0F20000 		movt	r0, #:upper16:.LANCHOR0
 436 0088 4268     		ldr	r2, [r0, #4]
 437 008a 0B21     		movs	r1, #11
 438 008c D36D     		ldr	r3, [r2, #92]
 439 008e 9847     		blx	r3
 440 0090 C5E7     		b	.L19
 441              	.L24:
 442              		.loc 1 181 0
 443 0092 40F20000 		movw	r0, #:lower16:.LANCHOR0
 444 0096 C0F20000 		movt	r0, #:upper16:.LANCHOR0
 445 009a 4168     		ldr	r1, [r0, #4]
 446 009c 4A6D     		ldr	r2, [r1, #84]
 447 009e 0A21     		movs	r1, #10
 448 00a0 9047     		blx	r2
 449 00a2 BAE7     		b	.L18
 450              		.cfi_endproc
 451              	.LFE68:
 452              		.size	VectorE0, .-VectorE0
 453 00a4 AFF30080 		.section	.text.Vector44,"ax",%progbits
 453      AFF30080 
 453      AFF30080 
 454              		.align	2
ARM GAS  C:\Users\z80\AppData\Local\Temp\ccFKGgwN.s 			page 9


 455              		.p2align 4,,15
 456              		.global	Vector44
 457              		.thumb
 458              		.thumb_func
 459              		.type	Vector44, %function
 460              	Vector44:
 461              	.LFB69:
 462              		.loc 1 201 0
 463              		.cfi_startproc
 464              		@ args = 0, pretend = 0, frame = 0
 465              		@ frame_needed = 0, uses_anonymous_args = 0
 466 0000 10B5     		push	{r4, lr}
 467              	.LCFI7:
 468              		.cfi_def_cfa_offset 8
 469              		.cfi_offset 14, -4
 470              		.cfi_offset 4, -8
 471              		.loc 1 203 0
 472 0002 FFF7FEFF 		bl	dbg_check_enter_isr
 473              		.loc 1 206 0
 474 0006 40F20000 		movw	r0, #:lower16:.LANCHOR0
 475 000a C0F20000 		movt	r0, #:upper16:.LANCHOR0
 476 000e 4268     		ldr	r2, [r0, #4]
 477              		.loc 1 205 0
 478 0010 4FF4806C 		mov	ip, #1024
 479 0014 C4F2010C 		movt	ip, 16385
 480 0018 4FF48034 		mov	r4, #65536
 481              		.loc 1 206 0
 482 001c 1021     		movs	r1, #16
 483              		.loc 1 205 0
 484 001e CCF81440 		str	r4, [ip, #20]
 485              		.loc 1 206 0
 486 0022 D2F88430 		ldr	r3, [r2, #132]
 487 0026 9847     		blx	r3
 488              		.loc 1 208 0
 489 0028 FFF7FEFF 		bl	dbg_check_leave_isr
 490              		.loc 1 209 0
 491 002c BDE81040 		pop	{r4, lr}
 492              		.loc 1 208 0
 493 0030 FFF7FEBF 		b	_port_irq_epilogue
 494              		.cfi_endproc
 495              	.LFE69:
 496              		.size	Vector44, .-Vector44
 497 0034 AFF30080 		.section	.text.RTCAlarm_IRQHandler,"ax",%progbits
 497      AFF30080 
 497      AFF30080 
 498              		.align	2
 499              		.p2align 4,,15
 500              		.global	RTCAlarm_IRQHandler
 501              		.thumb
 502              		.thumb_func
 503              		.type	RTCAlarm_IRQHandler, %function
 504              	RTCAlarm_IRQHandler:
 505              	.LFB70:
 506              		.loc 1 216 0
 507              		.cfi_startproc
 508              		@ args = 0, pretend = 0, frame = 0
 509              		@ frame_needed = 0, uses_anonymous_args = 0
ARM GAS  C:\Users\z80\AppData\Local\Temp\ccFKGgwN.s 			page 10


 510 0000 10B5     		push	{r4, lr}
 511              	.LCFI8:
 512              		.cfi_def_cfa_offset 8
 513              		.cfi_offset 14, -4
 514              		.cfi_offset 4, -8
 515              		.loc 1 218 0
 516 0002 FFF7FEFF 		bl	dbg_check_enter_isr
 517              		.loc 1 221 0
 518 0006 40F20000 		movw	r0, #:lower16:.LANCHOR0
 519 000a C0F20000 		movt	r0, #:upper16:.LANCHOR0
 520 000e 4268     		ldr	r2, [r0, #4]
 521              		.loc 1 220 0
 522 0010 4FF4806C 		mov	ip, #1024
 523 0014 C4F2010C 		movt	ip, 16385
 524 0018 4FF40034 		mov	r4, #131072
 525              		.loc 1 221 0
 526 001c 1121     		movs	r1, #17
 527              		.loc 1 220 0
 528 001e CCF81440 		str	r4, [ip, #20]
 529              		.loc 1 221 0
 530 0022 D2F88C30 		ldr	r3, [r2, #140]
 531 0026 9847     		blx	r3
 532              		.loc 1 223 0
 533 0028 FFF7FEFF 		bl	dbg_check_leave_isr
 534              		.loc 1 224 0
 535 002c BDE81040 		pop	{r4, lr}
 536              		.loc 1 223 0
 537 0030 FFF7FEBF 		b	_port_irq_epilogue
 538              		.cfi_endproc
 539              	.LFE70:
 540              		.size	RTCAlarm_IRQHandler, .-RTCAlarm_IRQHandler
 541 0034 AFF30080 		.section	.text.VectorE8,"ax",%progbits
 541      AFF30080 
 541      AFF30080 
 542              		.align	2
 543              		.p2align 4,,15
 544              		.global	VectorE8
 545              		.thumb
 546              		.thumb_func
 547              		.type	VectorE8, %function
 548              	VectorE8:
 549              	.LFB71:
 550              		.loc 1 405 0
 551              		.cfi_startproc
 552              		@ args = 0, pretend = 0, frame = 0
 553              		@ frame_needed = 0, uses_anonymous_args = 0
 554 0000 10B5     		push	{r4, lr}
 555              	.LCFI9:
 556              		.cfi_def_cfa_offset 8
 557              		.cfi_offset 14, -4
 558              		.cfi_offset 4, -8
 559              		.loc 1 407 0
 560 0002 FFF7FEFF 		bl	dbg_check_enter_isr
 561              		.loc 1 410 0
 562 0006 40F20000 		movw	r0, #:lower16:.LANCHOR0
 563 000a C0F20000 		movt	r0, #:upper16:.LANCHOR0
 564 000e 4268     		ldr	r2, [r0, #4]
ARM GAS  C:\Users\z80\AppData\Local\Temp\ccFKGgwN.s 			page 11


 565              		.loc 1 409 0
 566 0010 4FF4806C 		mov	ip, #1024
 567 0014 C4F2010C 		movt	ip, 16385
 568 0018 4FF48024 		mov	r4, #262144
 569              		.loc 1 410 0
 570 001c 1221     		movs	r1, #18
 571              		.loc 1 409 0
 572 001e CCF81440 		str	r4, [ip, #20]
 573              		.loc 1 410 0
 574 0022 D2F89430 		ldr	r3, [r2, #148]
 575 0026 9847     		blx	r3
 576              		.loc 1 412 0
 577 0028 FFF7FEFF 		bl	dbg_check_leave_isr
 578              		.loc 1 413 0
 579 002c BDE81040 		pop	{r4, lr}
 580              		.loc 1 412 0
 581 0030 FFF7FEBF 		b	_port_irq_epilogue
 582              		.cfi_endproc
 583              	.LFE71:
 584              		.size	VectorE8, .-VectorE8
 585 0034 AFF30080 		.section	.text.ext_lld_init,"ax",%progbits
 585      AFF30080 
 585      AFF30080 
 586              		.align	2
 587              		.p2align 4,,15
 588              		.global	ext_lld_init
 589              		.thumb
 590              		.thumb_func
 591              		.type	ext_lld_init, %function
 592              	ext_lld_init:
 593              	.LFB72:
 594              		.loc 1 425 0
 595              		.cfi_startproc
 596              		@ args = 0, pretend = 0, frame = 0
 597              		@ frame_needed = 0, uses_anonymous_args = 0
 598              		@ link register save eliminated.
 599              		.loc 1 428 0
 600 0000 40F20000 		movw	r0, #:lower16:.LANCHOR0
 601 0004 C0F20000 		movt	r0, #:upper16:.LANCHOR0
 602              		.loc 1 429 0
 603              		.loc 1 428 0
 604 0008 FFF7FEBF 		b	extObjectInit
 605              		.cfi_endproc
 606              	.LFE72:
 607              		.size	ext_lld_init, .-ext_lld_init
 608 000c AFF30080 		.section	.text.ext_lld_start,"ax",%progbits
 609              		.align	2
 610              		.p2align 4,,15
 611              		.global	ext_lld_start
 612              		.thumb
 613              		.thumb_func
 614              		.type	ext_lld_start, %function
 615              	ext_lld_start:
 616              	.LFB73:
 617              		.loc 1 438 0
 618              		.cfi_startproc
 619              		@ args = 0, pretend = 0, frame = 0
ARM GAS  C:\Users\z80\AppData\Local\Temp\ccFKGgwN.s 			page 12


 620              		@ frame_needed = 0, uses_anonymous_args = 0
 621              	.LVL2:
 622 0000 2DE9F843 		push	{r3, r4, r5, r6, r7, r8, r9, lr}
 623              	.LCFI10:
 624              		.cfi_def_cfa_offset 32
 625              		.cfi_offset 14, -4
 626              		.cfi_offset 9, -8
 627              		.cfi_offset 8, -12
 628              		.cfi_offset 7, -16
 629              		.cfi_offset 6, -20
 630              		.cfi_offset 5, -24
 631              		.cfi_offset 4, -28
 632              		.cfi_offset 3, -32
 633              		.loc 1 442 0
 634 0004 0578     		ldrb	r5, [r0, #0]	@ zero_extendqisi2
 635              		.loc 1 438 0
 636 0006 0446     		mov	r4, r0
 637              		.loc 1 442 0
 638 0008 012D     		cmp	r5, #1
 639 000a 00F08280 		beq	.L56
 640              	.LVL3:
 641              	.L34:
 642              		.loc 1 495 0
 643 000e 6268     		ldr	r2, [r4, #4]
 644              		.loc 1 500 0
 645 0010 0026     		movs	r6, #0
 646              		.loc 1 502 0
 647 0012 1368     		ldr	r3, [r2, #0]
 648              		.loc 1 510 0
 649 0014 0124     		movs	r4, #1
 650              	.LVL4:
 651              		.loc 1 502 0
 652 0016 5907     		lsls	r1, r3, #29
 653              		.loc 1 500 0
 654 0018 3746     		mov	r7, r6
 655 001a B446     		mov	ip, r6
 656 001c 3546     		mov	r5, r6
 657              		.loc 1 502 0
 658 001e 0AD5     		bpl	.L41
 659              		.loc 1 503 0
 660 0020 5168     		ldr	r1, [r2, #4]
 661              		.loc 1 504 0
 662 0022 0029     		cmp	r1, #0
 663 0024 18BF     		it	ne
 664 0026 2546     		movne	r5, r4
 665 0028 08BF     		it	eq
 666 002a A446     		moveq	ip, r4
 667              	.LVL5:
 668              		.loc 1 507 0
 669 002c D907     		lsls	r1, r3, #31
 670 002e 00D5     		bpl	.L43
 671              		.loc 1 508 0
 672 0030 0127     		movs	r7, #1
 673              	.LVL6:
 674              	.L43:
 675              		.loc 1 509 0
 676 0032 9B07     		lsls	r3, r3, #30
ARM GAS  C:\Users\z80\AppData\Local\Temp\ccFKGgwN.s 			page 13


 677 0034 6BD4     		bmi	.L57
 678              	.LVL7:
 679              	.L41:
 680              		.loc 1 501 0
 681 0036 0123     		movs	r3, #1
 682              	.LVL8:
 683 0038 0821     		movs	r1, #8
 684 003a 30E0     		b	.L39
 685              	.L60:
 686              		.loc 1 504 0
 687 003c 04FA03F8 		lsl	r8, r4, r3
 688 0040 45EA0805 		orr	r5, r5, r8
 689              	.LVL9:
 690              	.L37:
 691              		.loc 1 507 0
 692 0044 10F0010F 		tst	r0, #1
 693              		.loc 1 508 0
 694 0048 1CBF     		itt	ne
 695 004a 04FA03F8 		lslne	r8, r4, r3
 696 004e 47EA0807 		orrne	r7, r7, r8
 697              	.LVL10:
 698              		.loc 1 509 0
 699 0052 8007     		lsls	r0, r0, #30
 700              		.loc 1 510 0
 701 0054 44BF     		itt	mi
 702 0056 04FA03F0 		lslmi	r0, r4, r3
 703 005a 0643     		orrmi	r6, r6, r0
 704              	.LVL11:
 705              	.L35:
 706              		.loc 1 501 0
 707 005c 0831     		adds	r1, r1, #8
 708              		.loc 1 502 0
 709 005e 5058     		ldr	r0, [r2, r1]
 710              		.loc 1 501 0
 711 0060 0133     		adds	r3, r3, #1
 712              		.loc 1 502 0
 713 0062 10F0040F 		tst	r0, #4
 714 0066 16D0     		beq	.L45
 715              		.loc 1 438 0
 716 0068 02EB0109 		add	r9, r2, r1
 717              		.loc 1 503 0
 718 006c D9F80480 		ldr	r8, [r9, #4]
 719 0070 B8F1000F 		cmp	r8, #0
 720 0074 46D0     		beq	.L58
 721              		.loc 1 504 0
 722 0076 04FA03F8 		lsl	r8, r4, r3
 723 007a 45EA0805 		orr	r5, r5, r8
 724              	.LVL12:
 725              	.L54:
 726              		.loc 1 507 0
 727 007e 10F0010F 		tst	r0, #1
 728              		.loc 1 508 0
 729 0082 1CBF     		itt	ne
 730 0084 04FA03F8 		lslne	r8, r4, r3
 731 0088 47EA0807 		orrne	r7, r7, r8
 732              	.LVL13:
 733              		.loc 1 509 0
ARM GAS  C:\Users\z80\AppData\Local\Temp\ccFKGgwN.s 			page 14


 734 008c 8007     		lsls	r0, r0, #30
 735              		.loc 1 510 0
 736 008e 44BF     		itt	mi
 737 0090 04FA03F0 		lslmi	r0, r4, r3
 738 0094 0643     		orrmi	r6, r6, r0
 739              	.LVL14:
 740              	.L45:
 741              		.loc 1 501 0
 742 0096 0133     		adds	r3, r3, #1
 743 0098 0831     		adds	r1, r1, #8
 744 009a 132B     		cmp	r3, #19
 745 009c 0FD0     		beq	.L59
 746              	.L39:
 747              		.loc 1 502 0
 748 009e 5058     		ldr	r0, [r2, r1]
 749 00a0 10F0040F 		tst	r0, #4
 750 00a4 DAD0     		beq	.L35
 751              		.loc 1 438 0
 752 00a6 02EB0109 		add	r9, r2, r1
 753              		.loc 1 503 0
 754 00aa D9F80480 		ldr	r8, [r9, #4]
 755 00ae B8F1000F 		cmp	r8, #0
 756 00b2 C3D1     		bne	.L60
 757              		.loc 1 506 0
 758 00b4 04FA03F8 		lsl	r8, r4, r3
 759 00b8 4CEA080C 		orr	ip, ip, r8
 760              	.LVL15:
 761 00bc C2E7     		b	.L37
 762              	.L59:
 763              		.loc 1 519 0
 764 00be B2F89890 		ldrh	r9, [r2, #152]
 765              		.loc 1 520 0
 766 00c2 B2F89A80 		ldrh	r8, [r2, #154]
 767              		.loc 1 521 0
 768 00c6 B2F89C40 		ldrh	r4, [r2, #156]
 769              		.loc 1 522 0
 770 00ca B2F89E00 		ldrh	r0, [r2, #158]
 771              		.loc 1 519 0
 772 00ce 0022     		movs	r2, #0
 773 00d0 C4F20102 		movt	r2, 16385
 774              		.loc 1 524 0
 775 00d4 4FF48063 		mov	r3, #1024
 776              		.loc 1 527 0
 777 00d8 4FF6FF71 		movw	r1, #65535
 778              		.loc 1 519 0
 779 00dc C2F80890 		str	r9, [r2, #8]
 780              		.loc 1 524 0
 781 00e0 C4F20103 		movt	r3, 16385
 782              		.loc 1 520 0
 783 00e4 C2F80C80 		str	r8, [r2, #12]
 784              		.loc 1 527 0
 785 00e8 C0F20701 		movt	r1, 7
 786              		.loc 1 521 0
 787 00ec 1461     		str	r4, [r2, #16]
 788              		.loc 1 522 0
 789 00ee 5061     		str	r0, [r2, #20]
 790              		.loc 1 524 0
ARM GAS  C:\Users\z80\AppData\Local\Temp\ccFKGgwN.s 			page 15


 791 00f0 0022     		movs	r2, #0
 792 00f2 1A61     		str	r2, [r3, #16]
 793              		.loc 1 525 0
 794 00f4 9F60     		str	r7, [r3, #8]
 795              		.loc 1 526 0
 796 00f6 DE60     		str	r6, [r3, #12]
 797              		.loc 1 527 0
 798 00f8 5961     		str	r1, [r3, #20]
 799              		.loc 1 528 0
 800 00fa C3F804C0 		str	ip, [r3, #4]
 801              		.loc 1 529 0
 802 00fe 1D60     		str	r5, [r3, #0]
 803              		.loc 1 530 0
 804 0100 BDE8F883 		pop	{r3, r4, r5, r6, r7, r8, r9, pc}
 805              	.L58:
 806              		.loc 1 506 0
 807 0104 04FA03F8 		lsl	r8, r4, r3
 808 0108 4CEA080C 		orr	ip, ip, r8
 809              	.LVL16:
 810 010c B7E7     		b	.L54
 811              	.LVL17:
 812              	.L57:
 813              		.loc 1 510 0
 814 010e 0126     		movs	r6, #1
 815              	.LVL18:
 816 0110 91E7     		b	.L41
 817              	.LVL19:
 818              	.L56:
 819              		.loc 1 444 0
 820 0112 0620     		movs	r0, #6
 821              	.LVL20:
 822 0114 6021     		movs	r1, #96
 823 0116 FFF7FEFF 		bl	nvicEnableVector
 824              		.loc 1 446 0
 825 011a 0720     		movs	r0, #7
 826 011c 6021     		movs	r1, #96
 827 011e FFF7FEFF 		bl	nvicEnableVector
 828              		.loc 1 448 0
 829 0122 0820     		movs	r0, #8
 830 0124 6021     		movs	r1, #96
 831 0126 FFF7FEFF 		bl	nvicEnableVector
 832              		.loc 1 450 0
 833 012a 0920     		movs	r0, #9
 834 012c 6021     		movs	r1, #96
 835 012e FFF7FEFF 		bl	nvicEnableVector
 836              		.loc 1 452 0
 837 0132 0A20     		movs	r0, #10
 838 0134 6021     		movs	r1, #96
 839 0136 FFF7FEFF 		bl	nvicEnableVector
 840              		.loc 1 454 0
 841 013a 1720     		movs	r0, #23
 842 013c 6021     		movs	r1, #96
 843 013e FFF7FEFF 		bl	nvicEnableVector
 844              		.loc 1 456 0
 845 0142 6021     		movs	r1, #96
 846 0144 2820     		movs	r0, #40
 847 0146 FFF7FEFF 		bl	nvicEnableVector
ARM GAS  C:\Users\z80\AppData\Local\Temp\ccFKGgwN.s 			page 16


 848              		.loc 1 458 0
 849 014a 2846     		mov	r0, r5
 850 014c 6021     		movs	r1, #96
 851 014e FFF7FEFF 		bl	nvicEnableVector
 852              		.loc 1 460 0
 853 0152 2920     		movs	r0, #41
 854 0154 6021     		movs	r1, #96
 855 0156 FFF7FEFF 		bl	nvicEnableVector
 856              		.loc 1 495 0
 857 015a 2A20     		movs	r0, #42
 858 015c 6021     		movs	r1, #96
 859 015e FFF7FEFF 		bl	nvicEnableVector
 860 0162 54E7     		b	.L34
 861              		.cfi_endproc
 862              	.LFE73:
 863              		.size	ext_lld_start, .-ext_lld_start
 864 0164 AFF30080 		.section	.text.ext_lld_stop,"ax",%progbits
 864      AFF30080 
 864      AFF30080 
 865              		.align	2
 866              		.p2align 4,,15
 867              		.global	ext_lld_stop
 868              		.thumb
 869              		.thumb_func
 870              		.type	ext_lld_stop, %function
 871              	ext_lld_stop:
 872              	.LFB74:
 873              		.loc 1 539 0
 874              		.cfi_startproc
 875              		@ args = 0, pretend = 0, frame = 0
 876              		@ frame_needed = 0, uses_anonymous_args = 0
 877              	.LVL21:
 878 0000 08B5     		push	{r3, lr}
 879              	.LCFI11:
 880              		.cfi_def_cfa_offset 8
 881              		.cfi_offset 14, -4
 882              		.cfi_offset 3, -8
 883              		.loc 1 541 0
 884 0002 0378     		ldrb	r3, [r0, #0]	@ zero_extendqisi2
 885 0004 022B     		cmp	r3, #2
 886 0006 0CD0     		beq	.L63
 887              	.LVL22:
 888              	.L62:
 889              		.loc 1 576 0
 890 0008 4FF48060 		mov	r0, #1024
 891              		.loc 1 578 0
 892 000c 4FF6FF72 		movw	r2, #65535
 893              		.loc 1 576 0
 894 0010 C4F20100 		movt	r0, 16385
 895 0014 0021     		movs	r1, #0
 896              		.loc 1 578 0
 897 0016 C0F20702 		movt	r2, 7
 898              		.loc 1 576 0
 899 001a 4160     		str	r1, [r0, #4]
 900              		.loc 1 577 0
 901 001c 0160     		str	r1, [r0, #0]
 902              		.loc 1 578 0
ARM GAS  C:\Users\z80\AppData\Local\Temp\ccFKGgwN.s 			page 17


 903 001e 4261     		str	r2, [r0, #20]
 904              		.loc 1 579 0
 905 0020 08BD     		pop	{r3, pc}
 906              	.LVL23:
 907              	.L63:
 908              		.loc 1 542 0
 909 0022 0620     		movs	r0, #6
 910              	.LVL24:
 911 0024 FFF7FEFF 		bl	nvicDisableVector
 912              		.loc 1 543 0
 913 0028 0720     		movs	r0, #7
 914 002a FFF7FEFF 		bl	nvicDisableVector
 915              		.loc 1 544 0
 916 002e 0820     		movs	r0, #8
 917 0030 FFF7FEFF 		bl	nvicDisableVector
 918              		.loc 1 545 0
 919 0034 0920     		movs	r0, #9
 920 0036 FFF7FEFF 		bl	nvicDisableVector
 921              		.loc 1 546 0
 922 003a 0A20     		movs	r0, #10
 923 003c FFF7FEFF 		bl	nvicDisableVector
 924              		.loc 1 547 0
 925 0040 1720     		movs	r0, #23
 926 0042 FFF7FEFF 		bl	nvicDisableVector
 927              		.loc 1 548 0
 928 0046 2820     		movs	r0, #40
 929 0048 FFF7FEFF 		bl	nvicDisableVector
 930              		.loc 1 549 0
 931 004c 0120     		movs	r0, #1
 932 004e FFF7FEFF 		bl	nvicDisableVector
 933              		.loc 1 550 0
 934 0052 2920     		movs	r0, #41
 935 0054 FFF7FEFF 		bl	nvicDisableVector
 936              		.loc 1 573 0
 937 0058 2A20     		movs	r0, #42
 938 005a FFF7FEFF 		bl	nvicDisableVector
 939 005e D3E7     		b	.L62
 940              		.cfi_endproc
 941              	.LFE74:
 942              		.size	ext_lld_stop, .-ext_lld_stop
 943              		.section	.text.ext_lld_channel_enable,"ax",%progbits
 944              		.align	2
 945              		.p2align 4,,15
 946              		.global	ext_lld_channel_enable
 947              		.thumb
 948              		.thumb_func
 949              		.type	ext_lld_channel_enable, %function
 950              	ext_lld_channel_enable:
 951              	.LFB75:
 952              		.loc 1 589 0
 953              		.cfi_startproc
 954              		@ args = 0, pretend = 0, frame = 0
 955              		@ frame_needed = 0, uses_anonymous_args = 0
 956              		@ link register save eliminated.
 957              	.LVL25:
 958              		.loc 1 591 0
 959 0000 4368     		ldr	r3, [r0, #4]
ARM GAS  C:\Users\z80\AppData\Local\Temp\ccFKGgwN.s 			page 18


 960              		.loc 1 589 0
 961 0002 10B4     		push	{r4}
 962              	.LCFI12:
 963              		.cfi_def_cfa_offset 4
 964              		.cfi_offset 4, -4
 965              		.loc 1 591 0
 966 0004 03EBC104 		add	r4, r3, r1, lsl #3
 967 0008 6268     		ldr	r2, [r4, #4]
 968              		.loc 1 592 0
 969 000a 0120     		movs	r0, #1
 970              	.LVL26:
 971 000c 00FA01F0 		lsl	r0, r0, r1
 972              		.loc 1 591 0
 973 0010 002A     		cmp	r2, #0
 974 0012 28D0     		beq	.L65
 975              		.loc 1 592 0
 976 0014 4FF4806C 		mov	ip, #1024
 977 0018 C4F2010C 		movt	ip, 16385
 978 001c DCF80040 		ldr	r4, [ip, #0]
 979 0020 2043     		orrs	r0, r0, r4
 980 0022 CCF80000 		str	r0, [ip, #0]
 981              	.L66:
 982              		.loc 1 595 0
 983 0026 53F83130 		ldr	r3, [r3, r1, lsl #3]
 984 002a DA07     		lsls	r2, r3, #31
 985 002c 0CD5     		bpl	.L67
 986              		.loc 1 596 0
 987 002e 0124     		movs	r4, #1
 988 0030 04FA01F2 		lsl	r2, r4, r1
 989 0034 4FF4806C 		mov	ip, #1024
 990 0038 C4F2010C 		movt	ip, 16385
 991 003c DCF80840 		ldr	r4, [ip, #8]
 992 0040 42EA0400 		orr	r0, r2, r4
 993 0044 CCF80800 		str	r0, [ip, #8]
 994              	.L67:
 995              		.loc 1 597 0
 996 0048 9B07     		lsls	r3, r3, #30
 997 004a 0AD5     		bpl	.L64
 998              		.loc 1 598 0
 999 004c 0123     		movs	r3, #1
 1000 004e 03FA01F0 		lsl	r0, r3, r1
 1001 0052 4FF48063 		mov	r3, #1024
 1002 0056 C4F20103 		movt	r3, 16385
 1003 005a DA68     		ldr	r2, [r3, #12]
 1004 005c 40EA0201 		orr	r1, r0, r2
 1005              	.LVL27:
 1006 0060 D960     		str	r1, [r3, #12]
 1007              	.L64:
 1008              		.loc 1 599 0
 1009 0062 10BC     		pop	{r4}
 1010 0064 7047     		bx	lr
 1011              	.LVL28:
 1012              	.L65:
 1013              		.loc 1 594 0
 1014 0066 4FF48062 		mov	r2, #1024
 1015 006a C4F20102 		movt	r2, 16385
 1016 006e 5468     		ldr	r4, [r2, #4]
ARM GAS  C:\Users\z80\AppData\Local\Temp\ccFKGgwN.s 			page 19


 1017 0070 2043     		orrs	r0, r0, r4
 1018 0072 5060     		str	r0, [r2, #4]
 1019 0074 D7E7     		b	.L66
 1020              		.cfi_endproc
 1021              	.LFE75:
 1022              		.size	ext_lld_channel_enable, .-ext_lld_channel_enable
 1023 0076 00BFAFF3 		.section	.text.ext_lld_channel_disable,"ax",%progbits
 1023      0080AFF3 
 1023      0080
 1024              		.align	2
 1025              		.p2align 4,,15
 1026              		.global	ext_lld_channel_disable
 1027              		.thumb
 1028              		.thumb_func
 1029              		.type	ext_lld_channel_disable, %function
 1030              	ext_lld_channel_disable:
 1031              	.LFB76:
 1032              		.loc 1 609 0
 1033              		.cfi_startproc
 1034              		@ args = 0, pretend = 0, frame = 0
 1035              		@ frame_needed = 0, uses_anonymous_args = 0
 1036              		@ link register save eliminated.
 1037              	.LVL29:
 1038              		.loc 1 613 0
 1039 0000 0122     		movs	r2, #1
 1040 0002 02FA01F3 		lsl	r3, r2, r1
 1041 0006 4FF48062 		mov	r2, #1024
 1042 000a C4F20102 		movt	r2, 16385
 1043 000e 1168     		ldr	r1, [r2, #0]
 1044              	.LVL30:
 1045 0010 D843     		mvns	r0, r3
 1046              	.LVL31:
 1047 0012 0140     		ands	r1, r1, r0
 1048 0014 1160     		str	r1, [r2, #0]
 1049              		.loc 1 614 0
 1050 0016 5168     		ldr	r1, [r2, #4]
 1051 0018 0140     		ands	r1, r1, r0
 1052 001a 5160     		str	r1, [r2, #4]
 1053              		.loc 1 615 0
 1054 001c 9168     		ldr	r1, [r2, #8]
 1055 001e 0140     		ands	r1, r1, r0
 1056 0020 9160     		str	r1, [r2, #8]
 1057              		.loc 1 616 0
 1058 0022 D168     		ldr	r1, [r2, #12]
 1059 0024 0840     		ands	r0, r0, r1
 1060 0026 D060     		str	r0, [r2, #12]
 1061              		.loc 1 617 0
 1062 0028 5361     		str	r3, [r2, #20]
 1063              		.loc 1 618 0
 1064 002a 7047     		bx	lr
 1065              		.cfi_endproc
 1066              	.LFE76:
 1067              		.size	ext_lld_channel_disable, .-ext_lld_channel_disable
 1068              		.global	EXTD1
 1069 002c AFF30080 		.section	.bss.EXTD1,"aw",%nobits
 1070              		.align	2
 1071              		.set	.LANCHOR0,. + 0
ARM GAS  C:\Users\z80\AppData\Local\Temp\ccFKGgwN.s 			page 20


 1072              		.type	EXTD1, %object
 1073              		.size	EXTD1, 8
 1074              	EXTD1:
 1075 0000 00000000 		.space	8
 1075      00000000 
 1076              		.text
 1077              	.Letext0:
 1078              		.file 2 "c:\\programs\\codesourcery\\2011.03-56\\bin\\../lib/gcc/arm-none-eabi/4.6.3/../../../../a
 1079              		.file 3 "../chibios_2.4.x/os/hal/platforms/STM32F1xx/stm32f10x.h"
 1080              		.file 4 "../chibios_2.4.x/os/hal/include/ext.h"
 1081              		.file 5 "../chibios_2.4.x/os/hal/platforms/STM32/ext_lld.h"
 1082              		.file 6 "../chibios_2.4.x/os/ports/common/ARMCMx/CMSIS/include/core_cm3.h"