ARM GAS  C:\Users\z80\AppData\Local\Temp\ccFNaHbp.s 			page 1


   1              		.syntax unified
   2              		.cpu cortex-m3
   3              		.fpu softvfp
   4              		.eabi_attribute 20, 1
   5              		.eabi_attribute 21, 1
   6              		.eabi_attribute 23, 3
   7              		.eabi_attribute 24, 1
   8              		.eabi_attribute 25, 1
   9              		.eabi_attribute 26, 1
  10              		.eabi_attribute 30, 6
  11              		.eabi_attribute 18, 4
  12              		.thumb
  13              		.file	"gpt.c"
  14              		.section	.debug_abbrev,"",%progbits
  15              	.Ldebug_abbrev0:
  16              		.section	.debug_info,"",%progbits
  17              	.Ldebug_info0:
  18              		.section	.debug_line,"",%progbits
  19              	.Ldebug_line0:
  20 0000 80020000 		.text
  20      02002D01 
  20      00000201 
  20      FB0E0D00 
  20      01010101 
  21              	.Ltext0:
  22              		.cfi_sections	.debug_frame
  23              		.section	.text.gptInit,"ax",%progbits
  24              		.align	2
  25              		.p2align 4,,15
  26              		.global	gptInit
  27              		.thumb
  28              		.thumb_func
  29              		.type	gptInit, %function
  30              	gptInit:
  31              	.LFB62:
  32              		.file 1 "../chibios_2.4.x/os/hal/src/gpt.c"
  33              		.loc 1 68 0
  34              		.cfi_startproc
  35              		@ args = 0, pretend = 0, frame = 0
  36              		@ frame_needed = 0, uses_anonymous_args = 0
  37 0000 08B5     		push	{r3, lr}
  38              	.LCFI0:
  39              		.cfi_def_cfa_offset 8
  40              		.loc 1 70 0
  41              		.cfi_offset 14, -4
  42              		.cfi_offset 3, -8
  43 0002 FFF7FEFF 		bl	gpt_lld_init
  44              		.loc 1 71 0
  45 0006 08BD     		pop	{r3, pc}
  46              		.cfi_endproc
  47              	.LFE62:
  48              		.size	gptInit, .-gptInit
  49 0008 AFF30080 		.section	.text.gptObjectInit,"ax",%progbits
  49      AFF30080 
  50              		.align	2
  51              		.p2align 4,,15
  52              		.global	gptObjectInit
ARM GAS  C:\Users\z80\AppData\Local\Temp\ccFNaHbp.s 			page 2


  53              		.thumb
  54              		.thumb_func
  55              		.type	gptObjectInit, %function
  56              	gptObjectInit:
  57              	.LFB63:
  58              		.loc 1 80 0
  59              		.cfi_startproc
  60              		@ args = 0, pretend = 0, frame = 8
  61              		@ frame_needed = 0, uses_anonymous_args = 0
  62              		@ link register save eliminated.
  63 0000 82B0     		sub	sp, sp, #8
  64              	.LCFI1:
  65              		.cfi_def_cfa_offset 8
  66 0002 0190     		str	r0, [sp, #4]
  67              		.loc 1 82 0
  68 0004 019B     		ldr	r3, [sp, #4]
  69 0006 4FF00102 		mov	r2, #1
  70 000a 1A70     		strb	r2, [r3, #0]
  71              		.loc 1 83 0
  72 000c 019B     		ldr	r3, [sp, #4]
  73 000e 4FF00002 		mov	r2, #0
  74 0012 5A60     		str	r2, [r3, #4]
  75              		.loc 1 84 0
  76 0014 02B0     		add	sp, sp, #8
  77 0016 7047     		bx	lr
  78              		.cfi_endproc
  79              	.LFE63:
  80              		.size	gptObjectInit, .-gptObjectInit
  81 0018 AFF30080 		.section	.rodata
  81      AFF30080 
  82              		.align	2
  83              	.LC0:
  84 0000 22707453 		.ascii	"\"ptStart\"()\000"
  84      74617274 
  84      22282900 
  85              		.align	2
  86              	.LC1:
  87 000c 67707453 		.ascii	"gptStart(), #1\000"
  87      74617274 
  87      28292C20 
  87      233100
  88              		.section	.text.gptStart,"ax",%progbits
  89              		.align	2
  90              		.p2align 4,,15
  91              		.global	gptStart
  92              		.thumb
  93              		.thumb_func
  94              		.type	gptStart, %function
  95              	gptStart:
  96              	.LFB64:
  97              		.loc 1 94 0
  98              		.cfi_startproc
  99              		@ args = 0, pretend = 0, frame = 8
 100              		@ frame_needed = 0, uses_anonymous_args = 0
 101 0000 00B5     		push	{lr}
 102              	.LCFI2:
 103              		.cfi_def_cfa_offset 4
ARM GAS  C:\Users\z80\AppData\Local\Temp\ccFNaHbp.s 			page 3


 104 0002 83B0     		sub	sp, sp, #12
 105              	.LCFI3:
 106              		.cfi_def_cfa_offset 16
 107 0004 0190     		str	r0, [sp, #4]
 108 0006 0091     		str	r1, [sp, #0]
 109              		.loc 1 96 0
 110 0008 019B     		ldr	r3, [sp, #4]
 111 000a 002B     		cmp	r3, #0
 112 000c 02D0     		beq	.L4
 113              		.cfi_offset 14, -4
 114              		.loc 1 96 0 is_stmt 0 discriminator 2
 115 000e 009B     		ldr	r3, [sp, #0]
 116 0010 002B     		cmp	r3, #0
 117 0012 05D1     		bne	.L5
 118              	.L4:
 119              		.loc 1 96 0 discriminator 1
 120 0014 40F20000 		movw	r0, #:lower16:.LC0
 121 0018 C0F20000 		movt	r0, #:upper16:.LC0
 122 001c FFF7FEFF 		bl	chDbgPanic
 123              	.L5:
 124              	.LBB2:
 125              		.loc 1 98 0 is_stmt 1
 126 0020 4FF02003 		mov	r3, #32
 127              	@ 98 "../chibios_2.4.x/os/hal/src/gpt.c" 1
 128 0024 83F31188 		msr     BASEPRI, r3
 129              	@ 0 "" 2
 130              		.thumb
 131              	.LBE2:
 132 0028 FFF7FEFF 		bl	dbg_check_lock
 133              		.loc 1 99 0
 134 002c 019B     		ldr	r3, [sp, #4]
 135 002e 1B78     		ldrb	r3, [r3, #0]	@ zero_extendqisi2
 136 0030 012B     		cmp	r3, #1
 137 0032 09D0     		beq	.L6
 138              		.loc 1 99 0 is_stmt 0 discriminator 1
 139 0034 019B     		ldr	r3, [sp, #4]
 140 0036 1B78     		ldrb	r3, [r3, #0]	@ zero_extendqisi2
 141 0038 022B     		cmp	r3, #2
 142 003a 05D0     		beq	.L6
 143              		.loc 1 99 0 discriminator 2
 144 003c 40F20000 		movw	r0, #:lower16:.LC1
 145 0040 C0F20000 		movt	r0, #:upper16:.LC1
 146 0044 FFF7FEFF 		bl	chDbgPanic
 147              	.L6:
 148              		.loc 1 101 0 is_stmt 1
 149 0048 019B     		ldr	r3, [sp, #4]
 150 004a 009A     		ldr	r2, [sp, #0]
 151 004c 5A60     		str	r2, [r3, #4]
 152              		.loc 1 102 0
 153 004e 0198     		ldr	r0, [sp, #4]
 154 0050 FFF7FEFF 		bl	gpt_lld_start
 155              		.loc 1 103 0
 156 0054 019B     		ldr	r3, [sp, #4]
 157 0056 4FF00202 		mov	r2, #2
 158 005a 1A70     		strb	r2, [r3, #0]
 159              		.loc 1 104 0
 160 005c FFF7FEFF 		bl	dbg_check_unlock
ARM GAS  C:\Users\z80\AppData\Local\Temp\ccFNaHbp.s 			page 4


 161              	.LBB3:
 162 0060 4FF00003 		mov	r3, #0
 163              	@ 104 "../chibios_2.4.x/os/hal/src/gpt.c" 1
 164 0064 83F31188 		msr     BASEPRI, r3
 165              	@ 0 "" 2
 166              		.thumb
 167              	.LBE3:
 168              		.loc 1 105 0
 169 0068 03B0     		add	sp, sp, #12
 170 006a 00BD     		pop	{pc}
 171              		.cfi_endproc
 172              	.LFE64:
 173              		.size	gptStart, .-gptStart
 174 006c AFF30080 		.section	.rodata
 175 001b 00       		.align	2
 176              	.LC2:
 177 001c 22677074 		.ascii	"\"gptStop\"()\000"
 177      53746F70 
 177      22282900 
 178              		.align	2
 179              	.LC3:
 180 0028 67707453 		.ascii	"gptStop(), #1\000"
 180      746F7028 
 180      292C2023 
 180      3100
 181              		.section	.text.gptStop,"ax",%progbits
 182              		.align	2
 183              		.p2align 4,,15
 184              		.global	gptStop
 185              		.thumb
 186              		.thumb_func
 187              		.type	gptStop, %function
 188              	gptStop:
 189              	.LFB65:
 190              		.loc 1 114 0
 191              		.cfi_startproc
 192              		@ args = 0, pretend = 0, frame = 8
 193              		@ frame_needed = 0, uses_anonymous_args = 0
 194 0000 00B5     		push	{lr}
 195              	.LCFI4:
 196              		.cfi_def_cfa_offset 4
 197 0002 83B0     		sub	sp, sp, #12
 198              	.LCFI5:
 199              		.cfi_def_cfa_offset 16
 200 0004 0190     		str	r0, [sp, #4]
 201              		.loc 1 116 0
 202 0006 019B     		ldr	r3, [sp, #4]
 203 0008 002B     		cmp	r3, #0
 204 000a 05D1     		bne	.L8
 205              		.cfi_offset 14, -4
 206              		.loc 1 116 0 is_stmt 0 discriminator 1
 207 000c 40F20000 		movw	r0, #:lower16:.LC2
 208 0010 C0F20000 		movt	r0, #:upper16:.LC2
 209 0014 FFF7FEFF 		bl	chDbgPanic
 210              	.L8:
 211              	.LBB4:
 212              		.loc 1 118 0 is_stmt 1
ARM GAS  C:\Users\z80\AppData\Local\Temp\ccFNaHbp.s 			page 5


 213 0018 4FF02003 		mov	r3, #32
 214              	@ 118 "../chibios_2.4.x/os/hal/src/gpt.c" 1
 215 001c 83F31188 		msr     BASEPRI, r3
 216              	@ 0 "" 2
 217              		.thumb
 218              	.LBE4:
 219 0020 FFF7FEFF 		bl	dbg_check_lock
 220              		.loc 1 119 0
 221 0024 019B     		ldr	r3, [sp, #4]
 222 0026 1B78     		ldrb	r3, [r3, #0]	@ zero_extendqisi2
 223 0028 012B     		cmp	r3, #1
 224 002a 09D0     		beq	.L9
 225              		.loc 1 119 0 is_stmt 0 discriminator 1
 226 002c 019B     		ldr	r3, [sp, #4]
 227 002e 1B78     		ldrb	r3, [r3, #0]	@ zero_extendqisi2
 228 0030 022B     		cmp	r3, #2
 229 0032 05D0     		beq	.L9
 230              		.loc 1 119 0 discriminator 2
 231 0034 40F20000 		movw	r0, #:lower16:.LC3
 232 0038 C0F20000 		movt	r0, #:upper16:.LC3
 233 003c FFF7FEFF 		bl	chDbgPanic
 234              	.L9:
 235              		.loc 1 121 0 is_stmt 1
 236 0040 0198     		ldr	r0, [sp, #4]
 237 0042 FFF7FEFF 		bl	gpt_lld_stop
 238              		.loc 1 122 0
 239 0046 019B     		ldr	r3, [sp, #4]
 240 0048 4FF00102 		mov	r2, #1
 241 004c 1A70     		strb	r2, [r3, #0]
 242              		.loc 1 123 0
 243 004e FFF7FEFF 		bl	dbg_check_unlock
 244              	.LBB5:
 245 0052 4FF00003 		mov	r3, #0
 246              	@ 123 "../chibios_2.4.x/os/hal/src/gpt.c" 1
 247 0056 83F31188 		msr     BASEPRI, r3
 248              	@ 0 "" 2
 249              		.thumb
 250              	.LBE5:
 251              		.loc 1 124 0
 252 005a 03B0     		add	sp, sp, #12
 253 005c 00BD     		pop	{pc}
 254              		.cfi_endproc
 255              	.LFE65:
 256              		.size	gptStop, .-gptStop
 257 005e 00BF     		.section	.text.gptStartContinuous,"ax",%progbits
 258              		.align	2
 259              		.p2align 4,,15
 260              		.global	gptStartContinuous
 261              		.thumb
 262              		.thumb_func
 263              		.type	gptStartContinuous, %function
 264              	gptStartContinuous:
 265              	.LFB66:
 266              		.loc 1 134 0
 267              		.cfi_startproc
 268              		@ args = 0, pretend = 0, frame = 8
 269              		@ frame_needed = 0, uses_anonymous_args = 0
ARM GAS  C:\Users\z80\AppData\Local\Temp\ccFNaHbp.s 			page 6


 270 0000 00B5     		push	{lr}
 271              	.LCFI6:
 272              		.cfi_def_cfa_offset 4
 273 0002 83B0     		sub	sp, sp, #12
 274              	.LCFI7:
 275              		.cfi_def_cfa_offset 16
 276 0004 0190     		str	r0, [sp, #4]
 277 0006 0B46     		mov	r3, r1
 278 0008 ADF80230 		strh	r3, [sp, #2]	@ movhi
 279              	.LBB6:
 280              		.loc 1 136 0
 281 000c 4FF02003 		mov	r3, #32
 282              	@ 136 "../chibios_2.4.x/os/hal/src/gpt.c" 1
 283 0010 83F31188 		msr     BASEPRI, r3
 284              	@ 0 "" 2
 285              		.thumb
 286              	.LBE6:
 287              		.cfi_offset 14, -4
 288 0014 FFF7FEFF 		bl	dbg_check_lock
 289              		.loc 1 137 0
 290 0018 BDF80230 		ldrh	r3, [sp, #2]
 291 001c 0198     		ldr	r0, [sp, #4]
 292 001e 1946     		mov	r1, r3
 293 0020 FFF7FEFF 		bl	gptStartContinuousI
 294              		.loc 1 138 0
 295 0024 FFF7FEFF 		bl	dbg_check_unlock
 296              	.LBB7:
 297 0028 4FF00003 		mov	r3, #0
 298              	@ 138 "../chibios_2.4.x/os/hal/src/gpt.c" 1
 299 002c 83F31188 		msr     BASEPRI, r3
 300              	@ 0 "" 2
 301              		.thumb
 302              	.LBE7:
 303              		.loc 1 139 0
 304 0030 03B0     		add	sp, sp, #12
 305 0032 00BD     		pop	{pc}
 306              		.cfi_endproc
 307              	.LFE66:
 308              		.size	gptStartContinuous, .-gptStartContinuous
 309 0034 AFF30080 		.section	.rodata
 309      AFF30080 
 309      AFF30080 
 310 0036 0000     		.align	2
 311              	.LC4:
 312 0038 22677074 		.ascii	"\"gptStartContinuousI\"()\000"
 312      53746172 
 312      74436F6E 
 312      74696E75 
 312      6F757349 
 313              		.align	2
 314              	.LC5:
 315 0050 67707453 		.ascii	"gptStartContinuousI(), #1\000"
 315      74617274 
 315      436F6E74 
 315      696E756F 
 315      75734928 
 316              		.section	.text.gptStartContinuousI,"ax",%progbits
ARM GAS  C:\Users\z80\AppData\Local\Temp\ccFNaHbp.s 			page 7


 317              		.align	2
 318              		.p2align 4,,15
 319              		.global	gptStartContinuousI
 320              		.thumb
 321              		.thumb_func
 322              		.type	gptStartContinuousI, %function
 323              	gptStartContinuousI:
 324              	.LFB67:
 325              		.loc 1 149 0
 326              		.cfi_startproc
 327              		@ args = 0, pretend = 0, frame = 8
 328              		@ frame_needed = 0, uses_anonymous_args = 0
 329 0000 00B5     		push	{lr}
 330              	.LCFI8:
 331              		.cfi_def_cfa_offset 4
 332 0002 83B0     		sub	sp, sp, #12
 333              	.LCFI9:
 334              		.cfi_def_cfa_offset 16
 335 0004 0190     		str	r0, [sp, #4]
 336 0006 0B46     		mov	r3, r1
 337 0008 ADF80230 		strh	r3, [sp, #2]	@ movhi
 338              		.loc 1 151 0
 339              		.cfi_offset 14, -4
 340 000c FFF7FEFF 		bl	chDbgCheckClassI
 341              		.loc 1 152 0
 342 0010 019B     		ldr	r3, [sp, #4]
 343 0012 002B     		cmp	r3, #0
 344 0014 05D1     		bne	.L12
 345              		.loc 1 152 0 is_stmt 0 discriminator 1
 346 0016 40F20000 		movw	r0, #:lower16:.LC4
 347 001a C0F20000 		movt	r0, #:upper16:.LC4
 348 001e FFF7FEFF 		bl	chDbgPanic
 349              	.L12:
 350              		.loc 1 153 0 is_stmt 1
 351 0022 019B     		ldr	r3, [sp, #4]
 352 0024 1B78     		ldrb	r3, [r3, #0]	@ zero_extendqisi2
 353 0026 022B     		cmp	r3, #2
 354 0028 05D0     		beq	.L13
 355              		.loc 1 153 0 is_stmt 0 discriminator 1
 356 002a 40F20000 		movw	r0, #:lower16:.LC5
 357 002e C0F20000 		movt	r0, #:upper16:.LC5
 358 0032 FFF7FEFF 		bl	chDbgPanic
 359              	.L13:
 360              		.loc 1 156 0 is_stmt 1
 361 0036 019B     		ldr	r3, [sp, #4]
 362 0038 4FF00302 		mov	r2, #3
 363 003c 1A70     		strb	r2, [r3, #0]
 364              		.loc 1 157 0
 365 003e BDF80230 		ldrh	r3, [sp, #2]
 366 0042 0198     		ldr	r0, [sp, #4]
 367 0044 1946     		mov	r1, r3
 368 0046 FFF7FEFF 		bl	gpt_lld_start_timer
 369              		.loc 1 158 0
 370 004a 03B0     		add	sp, sp, #12
 371 004c 00BD     		pop	{pc}
 372              		.cfi_endproc
 373              	.LFE67:
ARM GAS  C:\Users\z80\AppData\Local\Temp\ccFNaHbp.s 			page 8


 374              		.size	gptStartContinuousI, .-gptStartContinuousI
 375 004e 00BF     		.section	.text.gptStartOneShot,"ax",%progbits
 376              		.align	2
 377              		.p2align 4,,15
 378              		.global	gptStartOneShot
 379              		.thumb
 380              		.thumb_func
 381              		.type	gptStartOneShot, %function
 382              	gptStartOneShot:
 383              	.LFB68:
 384              		.loc 1 168 0
 385              		.cfi_startproc
 386              		@ args = 0, pretend = 0, frame = 8
 387              		@ frame_needed = 0, uses_anonymous_args = 0
 388 0000 00B5     		push	{lr}
 389              	.LCFI10:
 390              		.cfi_def_cfa_offset 4
 391 0002 83B0     		sub	sp, sp, #12
 392              	.LCFI11:
 393              		.cfi_def_cfa_offset 16
 394 0004 0190     		str	r0, [sp, #4]
 395 0006 0B46     		mov	r3, r1
 396 0008 ADF80230 		strh	r3, [sp, #2]	@ movhi
 397              	.LBB8:
 398              		.loc 1 170 0
 399 000c 4FF02003 		mov	r3, #32
 400              	@ 170 "../chibios_2.4.x/os/hal/src/gpt.c" 1
 401 0010 83F31188 		msr     BASEPRI, r3
 402              	@ 0 "" 2
 403              		.thumb
 404              	.LBE8:
 405              		.cfi_offset 14, -4
 406 0014 FFF7FEFF 		bl	dbg_check_lock
 407              		.loc 1 171 0
 408 0018 BDF80230 		ldrh	r3, [sp, #2]
 409 001c 0198     		ldr	r0, [sp, #4]
 410 001e 1946     		mov	r1, r3
 411 0020 FFF7FEFF 		bl	gptStartOneShotI
 412              		.loc 1 172 0
 413 0024 FFF7FEFF 		bl	dbg_check_unlock
 414              	.LBB9:
 415 0028 4FF00003 		mov	r3, #0
 416              	@ 172 "../chibios_2.4.x/os/hal/src/gpt.c" 1
 417 002c 83F31188 		msr     BASEPRI, r3
 418              	@ 0 "" 2
 419              		.thumb
 420              	.LBE9:
 421              		.loc 1 173 0
 422 0030 03B0     		add	sp, sp, #12
 423 0032 00BD     		pop	{pc}
 424              		.cfi_endproc
 425              	.LFE68:
 426              		.size	gptStartOneShot, .-gptStartOneShot
 427 0034 AFF30080 		.section	.rodata
 427      AFF30080 
 427      AFF30080 
 428 006a 0000     		.align	2
ARM GAS  C:\Users\z80\AppData\Local\Temp\ccFNaHbp.s 			page 9


 429              	.LC6:
 430 006c 22677074 		.ascii	"\"gptStartOneShotI\"()\000"
 430      53746172 
 430      744F6E65 
 430      53686F74 
 430      49222829 
 431 0081 000000   		.align	2
 432              	.LC7:
 433 0084 67707453 		.ascii	"gptStartOneShotI(), #1\000"
 433      74617274 
 433      4F6E6553 
 433      686F7449 
 433      28292C20 
 434              		.section	.text.gptStartOneShotI,"ax",%progbits
 435              		.align	2
 436              		.p2align 4,,15
 437              		.global	gptStartOneShotI
 438              		.thumb
 439              		.thumb_func
 440              		.type	gptStartOneShotI, %function
 441              	gptStartOneShotI:
 442              	.LFB69:
 443              		.loc 1 183 0
 444              		.cfi_startproc
 445              		@ args = 0, pretend = 0, frame = 8
 446              		@ frame_needed = 0, uses_anonymous_args = 0
 447 0000 00B5     		push	{lr}
 448              	.LCFI12:
 449              		.cfi_def_cfa_offset 4
 450 0002 83B0     		sub	sp, sp, #12
 451              	.LCFI13:
 452              		.cfi_def_cfa_offset 16
 453 0004 0190     		str	r0, [sp, #4]
 454 0006 0B46     		mov	r3, r1
 455 0008 ADF80230 		strh	r3, [sp, #2]	@ movhi
 456              		.loc 1 185 0
 457              		.cfi_offset 14, -4
 458 000c FFF7FEFF 		bl	chDbgCheckClassI
 459              		.loc 1 186 0
 460 0010 019B     		ldr	r3, [sp, #4]
 461 0012 002B     		cmp	r3, #0
 462 0014 05D1     		bne	.L16
 463              		.loc 1 186 0 is_stmt 0 discriminator 1
 464 0016 40F20000 		movw	r0, #:lower16:.LC6
 465 001a C0F20000 		movt	r0, #:upper16:.LC6
 466 001e FFF7FEFF 		bl	chDbgPanic
 467              	.L16:
 468              		.loc 1 187 0 is_stmt 1
 469 0022 019B     		ldr	r3, [sp, #4]
 470 0024 1B78     		ldrb	r3, [r3, #0]	@ zero_extendqisi2
 471 0026 022B     		cmp	r3, #2
 472 0028 05D0     		beq	.L17
 473              		.loc 1 187 0 is_stmt 0 discriminator 1
 474 002a 40F20000 		movw	r0, #:lower16:.LC7
 475 002e C0F20000 		movt	r0, #:upper16:.LC7
 476 0032 FFF7FEFF 		bl	chDbgPanic
 477              	.L17:
ARM GAS  C:\Users\z80\AppData\Local\Temp\ccFNaHbp.s 			page 10


 478              		.loc 1 190 0 is_stmt 1
 479 0036 019B     		ldr	r3, [sp, #4]
 480 0038 4FF00402 		mov	r2, #4
 481 003c 1A70     		strb	r2, [r3, #0]
 482              		.loc 1 191 0
 483 003e BDF80230 		ldrh	r3, [sp, #2]
 484 0042 0198     		ldr	r0, [sp, #4]
 485 0044 1946     		mov	r1, r3
 486 0046 FFF7FEFF 		bl	gpt_lld_start_timer
 487              		.loc 1 192 0
 488 004a 03B0     		add	sp, sp, #12
 489 004c 00BD     		pop	{pc}
 490              		.cfi_endproc
 491              	.LFE69:
 492              		.size	gptStartOneShotI, .-gptStartOneShotI
 493 004e 00BF     		.section	.text.gptStopTimer,"ax",%progbits
 494              		.align	2
 495              		.p2align 4,,15
 496              		.global	gptStopTimer
 497              		.thumb
 498              		.thumb_func
 499              		.type	gptStopTimer, %function
 500              	gptStopTimer:
 501              	.LFB70:
 502              		.loc 1 201 0
 503              		.cfi_startproc
 504              		@ args = 0, pretend = 0, frame = 8
 505              		@ frame_needed = 0, uses_anonymous_args = 0
 506 0000 00B5     		push	{lr}
 507              	.LCFI14:
 508              		.cfi_def_cfa_offset 4
 509 0002 83B0     		sub	sp, sp, #12
 510              	.LCFI15:
 511              		.cfi_def_cfa_offset 16
 512 0004 0190     		str	r0, [sp, #4]
 513              	.LBB10:
 514              		.loc 1 203 0
 515 0006 4FF02003 		mov	r3, #32
 516              	@ 203 "../chibios_2.4.x/os/hal/src/gpt.c" 1
 517 000a 83F31188 		msr     BASEPRI, r3
 518              	@ 0 "" 2
 519              		.thumb
 520              	.LBE10:
 521              		.cfi_offset 14, -4
 522 000e FFF7FEFF 		bl	dbg_check_lock
 523              		.loc 1 204 0
 524 0012 0198     		ldr	r0, [sp, #4]
 525 0014 FFF7FEFF 		bl	gptStopTimerI
 526              		.loc 1 205 0
 527 0018 FFF7FEFF 		bl	dbg_check_unlock
 528              	.LBB11:
 529 001c 4FF00003 		mov	r3, #0
 530              	@ 205 "../chibios_2.4.x/os/hal/src/gpt.c" 1
 531 0020 83F31188 		msr     BASEPRI, r3
 532              	@ 0 "" 2
 533              		.thumb
 534              	.LBE11:
ARM GAS  C:\Users\z80\AppData\Local\Temp\ccFNaHbp.s 			page 11


 535              		.loc 1 206 0
 536 0024 03B0     		add	sp, sp, #12
 537 0026 00BD     		pop	{pc}
 538              		.cfi_endproc
 539              	.LFE70:
 540              		.size	gptStopTimer, .-gptStopTimer
 541 0028 AFF30080 		.section	.rodata
 541      AFF30080 
 542 009b 00       		.align	2
 543              	.LC8:
 544 009c 22677074 		.ascii	"\"gptStopTimerI\"()\000"
 544      53746F70 
 544      54696D65 
 544      72492228 
 544      2900
 545 00ae 0000     		.align	2
 546              	.LC9:
 547 00b0 67707453 		.ascii	"gptStopTimerI(), #1\000"
 547      746F7054 
 547      696D6572 
 547      4928292C 
 547      20233100 
 548              		.section	.text.gptStopTimerI,"ax",%progbits
 549              		.align	2
 550              		.p2align 4,,15
 551              		.global	gptStopTimerI
 552              		.thumb
 553              		.thumb_func
 554              		.type	gptStopTimerI, %function
 555              	gptStopTimerI:
 556              	.LFB71:
 557              		.loc 1 215 0
 558              		.cfi_startproc
 559              		@ args = 0, pretend = 0, frame = 8
 560              		@ frame_needed = 0, uses_anonymous_args = 0
 561 0000 00B5     		push	{lr}
 562              	.LCFI16:
 563              		.cfi_def_cfa_offset 4
 564 0002 83B0     		sub	sp, sp, #12
 565              	.LCFI17:
 566              		.cfi_def_cfa_offset 16
 567 0004 0190     		str	r0, [sp, #4]
 568              		.loc 1 217 0
 569              		.cfi_offset 14, -4
 570 0006 FFF7FEFF 		bl	chDbgCheckClassI
 571              		.loc 1 218 0
 572 000a 019B     		ldr	r3, [sp, #4]
 573 000c 002B     		cmp	r3, #0
 574 000e 05D1     		bne	.L20
 575              		.loc 1 218 0 is_stmt 0 discriminator 1
 576 0010 40F20000 		movw	r0, #:lower16:.LC8
 577 0014 C0F20000 		movt	r0, #:upper16:.LC8
 578 0018 FFF7FEFF 		bl	chDbgPanic
 579              	.L20:
 580              		.loc 1 219 0 is_stmt 1
 581 001c 019B     		ldr	r3, [sp, #4]
 582 001e 1B78     		ldrb	r3, [r3, #0]	@ zero_extendqisi2
ARM GAS  C:\Users\z80\AppData\Local\Temp\ccFNaHbp.s 			page 12


 583 0020 022B     		cmp	r3, #2
 584 0022 0DD0     		beq	.L21
 585              		.loc 1 219 0 is_stmt 0 discriminator 1
 586 0024 019B     		ldr	r3, [sp, #4]
 587 0026 1B78     		ldrb	r3, [r3, #0]	@ zero_extendqisi2
 588 0028 032B     		cmp	r3, #3
 589 002a 09D0     		beq	.L21
 590              		.loc 1 219 0 discriminator 2
 591 002c 019B     		ldr	r3, [sp, #4]
 592 002e 1B78     		ldrb	r3, [r3, #0]	@ zero_extendqisi2
 593 0030 042B     		cmp	r3, #4
 594 0032 05D0     		beq	.L21
 595              		.loc 1 219 0 discriminator 3
 596 0034 40F20000 		movw	r0, #:lower16:.LC9
 597 0038 C0F20000 		movt	r0, #:upper16:.LC9
 598 003c FFF7FEFF 		bl	chDbgPanic
 599              	.L21:
 600              		.loc 1 223 0 is_stmt 1
 601 0040 019B     		ldr	r3, [sp, #4]
 602 0042 4FF00202 		mov	r2, #2
 603 0046 1A70     		strb	r2, [r3, #0]
 604              		.loc 1 224 0
 605 0048 0198     		ldr	r0, [sp, #4]
 606 004a FFF7FEFF 		bl	gpt_lld_stop_timer
 607              		.loc 1 225 0
 608 004e 03B0     		add	sp, sp, #12
 609 0050 00BD     		pop	{pc}
 610              		.cfi_endproc
 611              	.LFE71:
 612              		.size	gptStopTimerI, .-gptStopTimerI
 613 0052 00BFAFF3 		.section	.rodata
 613      0080AFF3 
 613      0080AFF3 
 613      0080
 614              		.align	2
 615              	.LC10:
 616 00c4 67707450 		.ascii	"gptPolledDelay(), #1\000"
 616      6F6C6C65 
 616      6444656C 
 616      61792829 
 616      2C202331 
 617 00d9 000000   		.section	.text.gptPolledDelay,"ax",%progbits
 618              		.align	2
 619              		.p2align 4,,15
 620              		.global	gptPolledDelay
 621              		.thumb
 622              		.thumb_func
 623              		.type	gptPolledDelay, %function
 624              	gptPolledDelay:
 625              	.LFB72:
 626              		.loc 1 239 0
 627              		.cfi_startproc
 628              		@ args = 0, pretend = 0, frame = 8
 629              		@ frame_needed = 0, uses_anonymous_args = 0
 630 0000 00B5     		push	{lr}
 631              	.LCFI18:
 632              		.cfi_def_cfa_offset 4
ARM GAS  C:\Users\z80\AppData\Local\Temp\ccFNaHbp.s 			page 13


 633 0002 83B0     		sub	sp, sp, #12
 634              	.LCFI19:
 635              		.cfi_def_cfa_offset 16
 636 0004 0190     		str	r0, [sp, #4]
 637 0006 0B46     		mov	r3, r1
 638 0008 ADF80230 		strh	r3, [sp, #2]	@ movhi
 639              		.loc 1 241 0
 640 000c 019B     		ldr	r3, [sp, #4]
 641 000e 1B78     		ldrb	r3, [r3, #0]	@ zero_extendqisi2
 642 0010 022B     		cmp	r3, #2
 643 0012 05D0     		beq	.L23
 644              		.cfi_offset 14, -4
 645              		.loc 1 241 0 is_stmt 0 discriminator 1
 646 0014 40F20000 		movw	r0, #:lower16:.LC10
 647 0018 C0F20000 		movt	r0, #:upper16:.LC10
 648 001c FFF7FEFF 		bl	chDbgPanic
 649              	.L23:
 650              		.loc 1 244 0 is_stmt 1
 651 0020 019B     		ldr	r3, [sp, #4]
 652 0022 4FF00402 		mov	r2, #4
 653 0026 1A70     		strb	r2, [r3, #0]
 654              		.loc 1 245 0
 655 0028 BDF80230 		ldrh	r3, [sp, #2]
 656 002c 0198     		ldr	r0, [sp, #4]
 657 002e 1946     		mov	r1, r3
 658 0030 FFF7FEFF 		bl	gpt_lld_polled_delay
 659              		.loc 1 246 0
 660 0034 019B     		ldr	r3, [sp, #4]
 661 0036 4FF00202 		mov	r2, #2
 662 003a 1A70     		strb	r2, [r3, #0]
 663              		.loc 1 247 0
 664 003c 03B0     		add	sp, sp, #12
 665 003e 00BD     		pop	{pc}
 666              		.cfi_endproc
 667              	.LFE72:
 668              		.size	gptPolledDelay, .-gptPolledDelay
 669              		.text
 670              	.Letext0:
 671              		.section	.debug_loc,"",%progbits
 672              	.Ldebug_loc0:
 673              	.LLST0:
 674 0000 00000000 		.4byte	.LFB62
 675 0004 02000000 		.4byte	.LCFI0
 676 0008 0200     		.2byte	0x2
 677 000a 7D       		.byte	0x7d
 678 000b 00       		.sleb128 0
 679 000c 02000000 		.4byte	.LCFI0
 680 0010 08000000 		.4byte	.LFE62
 681 0014 0200     		.2byte	0x2
 682 0016 7D       		.byte	0x7d
 683 0017 08       		.sleb128 8
 684 0018 00000000 		.4byte	0x0
 685 001c 00000000 		.4byte	0x0
 686              	.LLST1:
 687 0020 00000000 		.4byte	.LFB63
 688 0024 02000000 		.4byte	.LCFI1
 689 0028 0200     		.2byte	0x2
ARM GAS  C:\Users\z80\AppData\Local\Temp\ccFNaHbp.s 			page 14


 690 002a 7D       		.byte	0x7d
 691 002b 00       		.sleb128 0
 692 002c 02000000 		.4byte	.LCFI1
 693 0030 18000000 		.4byte	.LFE63
 694 0034 0200     		.2byte	0x2
 695 0036 7D       		.byte	0x7d
 696 0037 08       		.sleb128 8
 697 0038 00000000 		.4byte	0x0
 698 003c 00000000 		.4byte	0x0
 699              	.LLST2:
 700 0040 00000000 		.4byte	.LFB64
 701 0044 02000000 		.4byte	.LCFI2
 702 0048 0200     		.2byte	0x2
 703 004a 7D       		.byte	0x7d
 704 004b 00       		.sleb128 0
 705 004c 02000000 		.4byte	.LCFI2
 706 0050 04000000 		.4byte	.LCFI3
 707 0054 0200     		.2byte	0x2
 708 0056 7D       		.byte	0x7d
 709 0057 04       		.sleb128 4
 710 0058 04000000 		.4byte	.LCFI3
 711 005c 6C000000 		.4byte	.LFE64
 712 0060 0200     		.2byte	0x2
 713 0062 7D       		.byte	0x7d
 714 0063 10       		.sleb128 16
 715 0064 00000000 		.4byte	0x0
 716 0068 00000000 		.4byte	0x0
 717              	.LLST3:
 718 006c 00000000 		.4byte	.LFB65
 719 0070 02000000 		.4byte	.LCFI4
 720 0074 0200     		.2byte	0x2
 721 0076 7D       		.byte	0x7d
 722 0077 00       		.sleb128 0
 723 0078 02000000 		.4byte	.LCFI4
 724 007c 04000000 		.4byte	.LCFI5
 725 0080 0200     		.2byte	0x2
 726 0082 7D       		.byte	0x7d
 727 0083 04       		.sleb128 4
 728 0084 04000000 		.4byte	.LCFI5
 729 0088 5E000000 		.4byte	.LFE65
 730 008c 0200     		.2byte	0x2
 731 008e 7D       		.byte	0x7d
 732 008f 10       		.sleb128 16
 733 0090 00000000 		.4byte	0x0
 734 0094 00000000 		.4byte	0x0
 735              	.LLST4:
 736 0098 00000000 		.4byte	.LFB66
 737 009c 02000000 		.4byte	.LCFI6
 738 00a0 0200     		.2byte	0x2
 739 00a2 7D       		.byte	0x7d
 740 00a3 00       		.sleb128 0
 741 00a4 02000000 		.4byte	.LCFI6
 742 00a8 04000000 		.4byte	.LCFI7
 743 00ac 0200     		.2byte	0x2
 744 00ae 7D       		.byte	0x7d
 745 00af 04       		.sleb128 4
 746 00b0 04000000 		.4byte	.LCFI7
ARM GAS  C:\Users\z80\AppData\Local\Temp\ccFNaHbp.s 			page 15


 747 00b4 34000000 		.4byte	.LFE66
 748 00b8 0200     		.2byte	0x2
 749 00ba 7D       		.byte	0x7d
 750 00bb 10       		.sleb128 16
 751 00bc 00000000 		.4byte	0x0
 752 00c0 00000000 		.4byte	0x0
 753              	.LLST5:
 754 00c4 00000000 		.4byte	.LFB67
 755 00c8 02000000 		.4byte	.LCFI8
 756 00cc 0200     		.2byte	0x2
 757 00ce 7D       		.byte	0x7d
 758 00cf 00       		.sleb128 0
 759 00d0 02000000 		.4byte	.LCFI8
 760 00d4 04000000 		.4byte	.LCFI9
 761 00d8 0200     		.2byte	0x2
 762 00da 7D       		.byte	0x7d
 763 00db 04       		.sleb128 4
 764 00dc 04000000 		.4byte	.LCFI9
 765 00e0 4E000000 		.4byte	.LFE67
 766 00e4 0200     		.2byte	0x2
 767 00e6 7D       		.byte	0x7d
 768 00e7 10       		.sleb128 16
 769 00e8 00000000 		.4byte	0x0
 770 00ec 00000000 		.4byte	0x0
 771              	.LLST6:
 772 00f0 00000000 		.4byte	.LFB68
 773 00f4 02000000 		.4byte	.LCFI10
 774 00f8 0200     		.2byte	0x2
 775 00fa 7D       		.byte	0x7d
 776 00fb 00       		.sleb128 0
 777 00fc 02000000 		.4byte	.LCFI10
 778 0100 04000000 		.4byte	.LCFI11
 779 0104 0200     		.2byte	0x2
 780 0106 7D       		.byte	0x7d
 781 0107 04       		.sleb128 4
 782 0108 04000000 		.4byte	.LCFI11
 783 010c 34000000 		.4byte	.LFE68
 784 0110 0200     		.2byte	0x2
 785 0112 7D       		.byte	0x7d
 786 0113 10       		.sleb128 16
 787 0114 00000000 		.4byte	0x0
 788 0118 00000000 		.4byte	0x0
 789              	.LLST7:
 790 011c 00000000 		.4byte	.LFB69
 791 0120 02000000 		.4byte	.LCFI12
 792 0124 0200     		.2byte	0x2
 793 0126 7D       		.byte	0x7d
 794 0127 00       		.sleb128 0
 795 0128 02000000 		.4byte	.LCFI12
 796 012c 04000000 		.4byte	.LCFI13
 797 0130 0200     		.2byte	0x2
 798 0132 7D       		.byte	0x7d
 799 0133 04       		.sleb128 4
 800 0134 04000000 		.4byte	.LCFI13
 801 0138 4E000000 		.4byte	.LFE69
 802 013c 0200     		.2byte	0x2
 803 013e 7D       		.byte	0x7d
ARM GAS  C:\Users\z80\AppData\Local\Temp\ccFNaHbp.s 			page 16


 804 013f 10       		.sleb128 16
 805 0140 00000000 		.4byte	0x0
 806 0144 00000000 		.4byte	0x0
 807              	.LLST8:
 808 0148 00000000 		.4byte	.LFB70
 809 014c 02000000 		.4byte	.LCFI14
 810 0150 0200     		.2byte	0x2
 811 0152 7D       		.byte	0x7d
 812 0153 00       		.sleb128 0
 813 0154 02000000 		.4byte	.LCFI14
 814 0158 04000000 		.4byte	.LCFI15
 815 015c 0200     		.2byte	0x2
 816 015e 7D       		.byte	0x7d
 817 015f 04       		.sleb128 4
 818 0160 04000000 		.4byte	.LCFI15
 819 0164 28000000 		.4byte	.LFE70
 820 0168 0200     		.2byte	0x2
 821 016a 7D       		.byte	0x7d
 822 016b 10       		.sleb128 16
 823 016c 00000000 		.4byte	0x0
 824 0170 00000000 		.4byte	0x0
 825              	.LLST9:
 826 0174 00000000 		.4byte	.LFB71
 827 0178 02000000 		.4byte	.LCFI16
 828 017c 0200     		.2byte	0x2
 829 017e 7D       		.byte	0x7d
 830 017f 00       		.sleb128 0
 831 0180 02000000 		.4byte	.LCFI16
 832 0184 04000000 		.4byte	.LCFI17
 833 0188 0200     		.2byte	0x2
 834 018a 7D       		.byte	0x7d
 835 018b 04       		.sleb128 4
 836 018c 04000000 		.4byte	.LCFI17
 837 0190 52000000 		.4byte	.LFE71
 838 0194 0200     		.2byte	0x2
 839 0196 7D       		.byte	0x7d
 840 0197 10       		.sleb128 16
 841 0198 00000000 		.4byte	0x0
 842 019c 00000000 		.4byte	0x0
 843              	.LLST10:
 844 01a0 00000000 		.4byte	.LFB72
 845 01a4 02000000 		.4byte	.LCFI18
 846 01a8 0200     		.2byte	0x2
 847 01aa 7D       		.byte	0x7d
 848 01ab 00       		.sleb128 0
 849 01ac 02000000 		.4byte	.LCFI18
 850 01b0 04000000 		.4byte	.LCFI19
 851 01b4 0200     		.2byte	0x2
 852 01b6 7D       		.byte	0x7d
 853 01b7 04       		.sleb128 4
 854 01b8 04000000 		.4byte	.LCFI19
 855 01bc 40000000 		.4byte	.LFE72
 856 01c0 0200     		.2byte	0x2
 857 01c2 7D       		.byte	0x7d
 858 01c3 10       		.sleb128 16
 859 01c4 00000000 		.4byte	0x0
 860 01c8 00000000 		.4byte	0x0
ARM GAS  C:\Users\z80\AppData\Local\Temp\ccFNaHbp.s 			page 17


 861              		.file 2 "c:/programs/yagarto/lib/gcc/../../arm-none-eabi/sys-include/stdint.h"
 862              		.file 3 "../chibios_2.4.x/os/hal/platforms/STM32/stm32.h"
 863              		.file 4 "../chibios_2.4.x/os/hal/include/gpt.h"
 864              		.file 5 "../chibios_2.4.x/os/hal/platforms/STM32/gpt_lld.h"
 865              		.file 6 "../chibios_2.4.x/os/ports/common/ARMCMx/CMSIS/include/core_cm3.h"
 866              		.section	.debug_info
 867 0000 A6060000 		.4byte	0x6a6
 868 0004 0200     		.2byte	0x2
 869 0006 00000000 		.4byte	.Ldebug_abbrev0
 870 000a 04       		.byte	0x4
 871 000b 01       		.uleb128 0x1
 872 000c 52020000 		.4byte	.LASF65
 873 0010 01       		.byte	0x1
 874 0011 A7020000 		.4byte	.LASF66
 875 0015 1C020000 		.4byte	.LASF67
 876 0019 00000000 		.4byte	0x0
 877 001d 00000000 		.4byte	0x0
 878 0021 00000000 		.4byte	.Ldebug_ranges0+0x0
 879 0025 00000000 		.4byte	.Ldebug_line0
 880 0029 02       		.uleb128 0x2
 881 002a 04       		.byte	0x4
 882 002b 05       		.byte	0x5
 883 002c 696E7400 		.ascii	"int\000"
 884 0030 03       		.uleb128 0x3
 885 0031 04       		.byte	0x4
 886 0032 07       		.byte	0x7
 887 0033 71010000 		.4byte	.LASF0
 888 0037 03       		.uleb128 0x3
 889 0038 01       		.byte	0x1
 890 0039 06       		.byte	0x6
 891 003a 45010000 		.4byte	.LASF1
 892 003e 03       		.uleb128 0x3
 893 003f 01       		.byte	0x1
 894 0040 08       		.byte	0x8
 895 0041 1C010000 		.4byte	.LASF2
 896 0045 03       		.uleb128 0x3
 897 0046 02       		.byte	0x2
 898 0047 05       		.byte	0x5
 899 0048 21000000 		.4byte	.LASF3
 900 004c 04       		.uleb128 0x4
 901 004d 7E010000 		.4byte	.LASF5
 902 0051 02       		.byte	0x2
 903 0052 36       		.byte	0x36
 904 0053 57000000 		.4byte	0x57
 905 0057 03       		.uleb128 0x3
 906 0058 02       		.byte	0x2
 907 0059 07       		.byte	0x7
 908 005a B0010000 		.4byte	.LASF4
 909 005e 04       		.uleb128 0x4
 910 005f D9010000 		.4byte	.LASF6
 911 0063 02       		.byte	0x2
 912 0064 4F       		.byte	0x4f
 913 0065 69000000 		.4byte	0x69
 914 0069 03       		.uleb128 0x3
 915 006a 04       		.byte	0x4
 916 006b 05       		.byte	0x5
 917 006c F0000000 		.4byte	.LASF7
ARM GAS  C:\Users\z80\AppData\Local\Temp\ccFNaHbp.s 			page 18


 918 0070 04       		.uleb128 0x4
 919 0071 68010000 		.4byte	.LASF8
 920 0075 02       		.byte	0x2
 921 0076 50       		.byte	0x50
 922 0077 7B000000 		.4byte	0x7b
 923 007b 03       		.uleb128 0x3
 924 007c 04       		.byte	0x4
 925 007d 07       		.byte	0x7
 926 007e 04020000 		.4byte	.LASF9
 927 0082 03       		.uleb128 0x3
 928 0083 08       		.byte	0x8
 929 0084 05       		.byte	0x5
 930 0085 BE000000 		.4byte	.LASF10
 931 0089 03       		.uleb128 0x3
 932 008a 08       		.byte	0x8
 933 008b 07       		.byte	0x7
 934 008c 51010000 		.4byte	.LASF11
 935 0090 05       		.uleb128 0x5
 936 0091 70000000 		.4byte	0x70
 937 0095 06       		.uleb128 0x6
 938 0096 04       		.byte	0x4
 939 0097 07       		.byte	0x7
 940 0098 03       		.uleb128 0x3
 941 0099 01       		.byte	0x1
 942 009a 08       		.byte	0x8
 943 009b C3010000 		.4byte	.LASF12
 944 009f 07       		.uleb128 0x7
 945 00a0 70000000 		.4byte	0x70
 946 00a4 AF000000 		.4byte	0xaf
 947 00a8 08       		.uleb128 0x8
 948 00a9 95000000 		.4byte	0x95
 949 00ad 03       		.byte	0x3
 950 00ae 00       		.byte	0x0
 951 00af 05       		.uleb128 0x5
 952 00b0 4C000000 		.4byte	0x4c
 953 00b4 05       		.uleb128 0x5
 954 00b5 5E000000 		.4byte	0x5e
 955 00b9 09       		.uleb128 0x9
 956 00ba 54       		.byte	0x54
 957 00bb 03       		.byte	0x3
 958 00bc 72       		.byte	0x72
 959 00bd 8E020000 		.4byte	0x28e
 960 00c1 0A       		.uleb128 0xa
 961 00c2 43523100 		.ascii	"CR1\000"
 962 00c6 03       		.byte	0x3
 963 00c7 73       		.byte	0x73
 964 00c8 AF000000 		.4byte	0xaf
 965 00cc 02       		.byte	0x2
 966 00cd 23       		.byte	0x23
 967 00ce 00       		.uleb128 0x0
 968 00cf 0B       		.uleb128 0xb
 969 00d0 63000000 		.4byte	.LASF13
 970 00d4 03       		.byte	0x3
 971 00d5 74       		.byte	0x74
 972 00d6 4C000000 		.4byte	0x4c
 973 00da 02       		.byte	0x2
 974 00db 23       		.byte	0x23
ARM GAS  C:\Users\z80\AppData\Local\Temp\ccFNaHbp.s 			page 19


 975 00dc 02       		.uleb128 0x2
 976 00dd 0A       		.uleb128 0xa
 977 00de 43523200 		.ascii	"CR2\000"
 978 00e2 03       		.byte	0x3
 979 00e3 75       		.byte	0x75
 980 00e4 AF000000 		.4byte	0xaf
 981 00e8 02       		.byte	0x2
 982 00e9 23       		.byte	0x23
 983 00ea 04       		.uleb128 0x4
 984 00eb 0B       		.uleb128 0xb
 985 00ec 6B000000 		.4byte	.LASF14
 986 00f0 03       		.byte	0x3
 987 00f1 76       		.byte	0x76
 988 00f2 4C000000 		.4byte	0x4c
 989 00f6 02       		.byte	0x2
 990 00f7 23       		.byte	0x23
 991 00f8 06       		.uleb128 0x6
 992 00f9 0B       		.uleb128 0xb
 993 00fa 17010000 		.4byte	.LASF15
 994 00fe 03       		.byte	0x3
 995 00ff 77       		.byte	0x77
 996 0100 AF000000 		.4byte	0xaf
 997 0104 02       		.byte	0x2
 998 0105 23       		.byte	0x23
 999 0106 08       		.uleb128 0x8
 1000 0107 0B       		.uleb128 0xb
 1001 0108 73000000 		.4byte	.LASF16
 1002 010c 03       		.byte	0x3
 1003 010d 78       		.byte	0x78
 1004 010e 4C000000 		.4byte	0x4c
 1005 0112 02       		.byte	0x2
 1006 0113 23       		.byte	0x23
 1007 0114 0A       		.uleb128 0xa
 1008 0115 0B       		.uleb128 0xb
 1009 0116 87010000 		.4byte	.LASF17
 1010 011a 03       		.byte	0x3
 1011 011b 79       		.byte	0x79
 1012 011c AF000000 		.4byte	0xaf
 1013 0120 02       		.byte	0x2
 1014 0121 23       		.byte	0x23
 1015 0122 0C       		.uleb128 0xc
 1016 0123 0B       		.uleb128 0xb
 1017 0124 7B000000 		.4byte	.LASF18
 1018 0128 03       		.byte	0x3
 1019 0129 7A       		.byte	0x7a
 1020 012a 4C000000 		.4byte	0x4c
 1021 012e 02       		.byte	0x2
 1022 012f 23       		.byte	0x23
 1023 0130 0E       		.uleb128 0xe
 1024 0131 0A       		.uleb128 0xa
 1025 0132 535200   		.ascii	"SR\000"
 1026 0135 03       		.byte	0x3
 1027 0136 7B       		.byte	0x7b
 1028 0137 AF000000 		.4byte	0xaf
 1029 013b 02       		.byte	0x2
 1030 013c 23       		.byte	0x23
 1031 013d 10       		.uleb128 0x10
ARM GAS  C:\Users\z80\AppData\Local\Temp\ccFNaHbp.s 			page 20


 1032 013e 0B       		.uleb128 0xb
 1033 013f 83000000 		.4byte	.LASF19
 1034 0143 03       		.byte	0x3
 1035 0144 7C       		.byte	0x7c
 1036 0145 4C000000 		.4byte	0x4c
 1037 0149 02       		.byte	0x2
 1038 014a 23       		.byte	0x23
 1039 014b 12       		.uleb128 0x12
 1040 014c 0A       		.uleb128 0xa
 1041 014d 45475200 		.ascii	"EGR\000"
 1042 0151 03       		.byte	0x3
 1043 0152 7D       		.byte	0x7d
 1044 0153 AF000000 		.4byte	0xaf
 1045 0157 02       		.byte	0x2
 1046 0158 23       		.byte	0x23
 1047 0159 14       		.uleb128 0x14
 1048 015a 0B       		.uleb128 0xb
 1049 015b 8B000000 		.4byte	.LASF20
 1050 015f 03       		.byte	0x3
 1051 0160 7E       		.byte	0x7e
 1052 0161 4C000000 		.4byte	0x4c
 1053 0165 02       		.byte	0x2
 1054 0166 23       		.byte	0x23
 1055 0167 16       		.uleb128 0x16
 1056 0168 0B       		.uleb128 0xb
 1057 0169 11010000 		.4byte	.LASF21
 1058 016d 03       		.byte	0x3
 1059 016e 7F       		.byte	0x7f
 1060 016f AF000000 		.4byte	0xaf
 1061 0173 02       		.byte	0x2
 1062 0174 23       		.byte	0x23
 1063 0175 18       		.uleb128 0x18
 1064 0176 0B       		.uleb128 0xb
 1065 0177 93000000 		.4byte	.LASF22
 1066 017b 03       		.byte	0x3
 1067 017c 80       		.byte	0x80
 1068 017d 4C000000 		.4byte	0x4c
 1069 0181 02       		.byte	0x2
 1070 0182 23       		.byte	0x23
 1071 0183 1A       		.uleb128 0x1a
 1072 0184 0B       		.uleb128 0xb
 1073 0185 1B000000 		.4byte	.LASF23
 1074 0189 03       		.byte	0x3
 1075 018a 81       		.byte	0x81
 1076 018b AF000000 		.4byte	0xaf
 1077 018f 02       		.byte	0x2
 1078 0190 23       		.byte	0x23
 1079 0191 1C       		.uleb128 0x1c
 1080 0192 0B       		.uleb128 0xb
 1081 0193 9B000000 		.4byte	.LASF24
 1082 0197 03       		.byte	0x3
 1083 0198 82       		.byte	0x82
 1084 0199 4C000000 		.4byte	0x4c
 1085 019d 02       		.byte	0x2
 1086 019e 23       		.byte	0x23
 1087 019f 1E       		.uleb128 0x1e
 1088 01a0 0B       		.uleb128 0xb
ARM GAS  C:\Users\z80\AppData\Local\Temp\ccFNaHbp.s 			page 21


 1089 01a1 00000000 		.4byte	.LASF25
 1090 01a5 03       		.byte	0x3
 1091 01a6 83       		.byte	0x83
 1092 01a7 AF000000 		.4byte	0xaf
 1093 01ab 02       		.byte	0x2
 1094 01ac 23       		.byte	0x23
 1095 01ad 20       		.uleb128 0x20
 1096 01ae 0B       		.uleb128 0xb
 1097 01af A3000000 		.4byte	.LASF26
 1098 01b3 03       		.byte	0x3
 1099 01b4 84       		.byte	0x84
 1100 01b5 4C000000 		.4byte	0x4c
 1101 01b9 02       		.byte	0x2
 1102 01ba 23       		.byte	0x23
 1103 01bb 22       		.uleb128 0x22
 1104 01bc 0A       		.uleb128 0xa
 1105 01bd 434E5400 		.ascii	"CNT\000"
 1106 01c1 03       		.byte	0x3
 1107 01c2 85       		.byte	0x85
 1108 01c3 90000000 		.4byte	0x90
 1109 01c7 02       		.byte	0x2
 1110 01c8 23       		.byte	0x23
 1111 01c9 24       		.uleb128 0x24
 1112 01ca 0A       		.uleb128 0xa
 1113 01cb 50534300 		.ascii	"PSC\000"
 1114 01cf 03       		.byte	0x3
 1115 01d0 86       		.byte	0x86
 1116 01d1 AF000000 		.4byte	0xaf
 1117 01d5 02       		.byte	0x2
 1118 01d6 23       		.byte	0x23
 1119 01d7 28       		.uleb128 0x28
 1120 01d8 0B       		.uleb128 0xb
 1121 01d9 AB000000 		.4byte	.LASF27
 1122 01dd 03       		.byte	0x3
 1123 01de 87       		.byte	0x87
 1124 01df 4C000000 		.4byte	0x4c
 1125 01e3 02       		.byte	0x2
 1126 01e4 23       		.byte	0x23
 1127 01e5 2A       		.uleb128 0x2a
 1128 01e6 0A       		.uleb128 0xa
 1129 01e7 41525200 		.ascii	"ARR\000"
 1130 01eb 03       		.byte	0x3
 1131 01ec 88       		.byte	0x88
 1132 01ed 90000000 		.4byte	0x90
 1133 01f1 02       		.byte	0x2
 1134 01f2 23       		.byte	0x23
 1135 01f3 2C       		.uleb128 0x2c
 1136 01f4 0A       		.uleb128 0xa
 1137 01f5 52435200 		.ascii	"RCR\000"
 1138 01f9 03       		.byte	0x3
 1139 01fa 89       		.byte	0x89
 1140 01fb AF000000 		.4byte	0xaf
 1141 01ff 02       		.byte	0x2
 1142 0200 23       		.byte	0x23
 1143 0201 30       		.uleb128 0x30
 1144 0202 0B       		.uleb128 0xb
 1145 0203 5E020000 		.4byte	.LASF28
ARM GAS  C:\Users\z80\AppData\Local\Temp\ccFNaHbp.s 			page 22


 1146 0207 03       		.byte	0x3
 1147 0208 8A       		.byte	0x8a
 1148 0209 4C000000 		.4byte	0x4c
 1149 020d 02       		.byte	0x2
 1150 020e 23       		.byte	0x23
 1151 020f 32       		.uleb128 0x32
 1152 0210 0A       		.uleb128 0xa
 1153 0211 43435200 		.ascii	"CCR\000"
 1154 0215 03       		.byte	0x3
 1155 0216 8B       		.byte	0x8b
 1156 0217 8E020000 		.4byte	0x28e
 1157 021b 02       		.byte	0x2
 1158 021c 23       		.byte	0x23
 1159 021d 34       		.uleb128 0x34
 1160 021e 0B       		.uleb128 0xb
 1161 021f D4010000 		.4byte	.LASF29
 1162 0223 03       		.byte	0x3
 1163 0224 8C       		.byte	0x8c
 1164 0225 AF000000 		.4byte	0xaf
 1165 0229 02       		.byte	0x2
 1166 022a 23       		.byte	0x23
 1167 022b 44       		.uleb128 0x44
 1168 022c 0B       		.uleb128 0xb
 1169 022d 8C010000 		.4byte	.LASF30
 1170 0231 03       		.byte	0x3
 1171 0232 8D       		.byte	0x8d
 1172 0233 4C000000 		.4byte	0x4c
 1173 0237 02       		.byte	0x2
 1174 0238 23       		.byte	0x23
 1175 0239 46       		.uleb128 0x46
 1176 023a 0A       		.uleb128 0xa
 1177 023b 44435200 		.ascii	"DCR\000"
 1178 023f 03       		.byte	0x3
 1179 0240 8E       		.byte	0x8e
 1180 0241 AF000000 		.4byte	0xaf
 1181 0245 02       		.byte	0x2
 1182 0246 23       		.byte	0x23
 1183 0247 48       		.uleb128 0x48
 1184 0248 0B       		.uleb128 0xb
 1185 0249 95010000 		.4byte	.LASF31
 1186 024d 03       		.byte	0x3
 1187 024e 8F       		.byte	0x8f
 1188 024f 4C000000 		.4byte	0x4c
 1189 0253 02       		.byte	0x2
 1190 0254 23       		.byte	0x23
 1191 0255 4A       		.uleb128 0x4a
 1192 0256 0B       		.uleb128 0xb
 1193 0257 10000000 		.4byte	.LASF32
 1194 025b 03       		.byte	0x3
 1195 025c 90       		.byte	0x90
 1196 025d AF000000 		.4byte	0xaf
 1197 0261 02       		.byte	0x2
 1198 0262 23       		.byte	0x23
 1199 0263 4C       		.uleb128 0x4c
 1200 0264 0B       		.uleb128 0xb
 1201 0265 9E010000 		.4byte	.LASF33
 1202 0269 03       		.byte	0x3
ARM GAS  C:\Users\z80\AppData\Local\Temp\ccFNaHbp.s 			page 23


 1203 026a 91       		.byte	0x91
 1204 026b 4C000000 		.4byte	0x4c
 1205 026f 02       		.byte	0x2
 1206 0270 23       		.byte	0x23
 1207 0271 4E       		.uleb128 0x4e
 1208 0272 0A       		.uleb128 0xa
 1209 0273 4F5200   		.ascii	"OR\000"
 1210 0276 03       		.byte	0x3
 1211 0277 92       		.byte	0x92
 1212 0278 AF000000 		.4byte	0xaf
 1213 027c 02       		.byte	0x2
 1214 027d 23       		.byte	0x23
 1215 027e 50       		.uleb128 0x50
 1216 027f 0B       		.uleb128 0xb
 1217 0280 A7010000 		.4byte	.LASF34
 1218 0284 03       		.byte	0x3
 1219 0285 93       		.byte	0x93
 1220 0286 4C000000 		.4byte	0x4c
 1221 028a 02       		.byte	0x2
 1222 028b 23       		.byte	0x23
 1223 028c 52       		.uleb128 0x52
 1224 028d 00       		.byte	0x0
 1225 028e 05       		.uleb128 0x5
 1226 028f 9F000000 		.4byte	0x9f
 1227 0293 04       		.uleb128 0x4
 1228 0294 C8010000 		.4byte	.LASF35
 1229 0298 03       		.byte	0x3
 1230 0299 94       		.byte	0x94
 1231 029a B9000000 		.4byte	0xb9
 1232 029e 0C       		.uleb128 0xc
 1233 029f 01       		.byte	0x1
 1234 02a0 04       		.byte	0x4
 1235 02a1 3C       		.byte	0x3c
 1236 02a2 C5020000 		.4byte	0x2c5
 1237 02a6 0D       		.uleb128 0xd
 1238 02a7 05000000 		.4byte	.LASF36
 1239 02ab 00       		.sleb128 0
 1240 02ac 0D       		.uleb128 0xd
 1241 02ad 67020000 		.4byte	.LASF37
 1242 02b1 01       		.sleb128 1
 1243 02b2 0D       		.uleb128 0xd
 1244 02b3 F0010000 		.4byte	.LASF38
 1245 02b7 02       		.sleb128 2
 1246 02b8 0D       		.uleb128 0xd
 1247 02b9 E1010000 		.4byte	.LASF39
 1248 02bd 03       		.sleb128 3
 1249 02be 0D       		.uleb128 0xd
 1250 02bf 57000000 		.4byte	.LASF40
 1251 02c3 04       		.sleb128 4
 1252 02c4 00       		.byte	0x0
 1253 02c5 04       		.uleb128 0x4
 1254 02c6 B3000000 		.4byte	.LASF41
 1255 02ca 04       		.byte	0x4
 1256 02cb 42       		.byte	0x42
 1257 02cc 9E020000 		.4byte	0x29e
 1258 02d0 04       		.uleb128 0x4
 1259 02d1 FA010000 		.4byte	.LASF42
ARM GAS  C:\Users\z80\AppData\Local\Temp\ccFNaHbp.s 			page 24


 1260 02d5 04       		.byte	0x4
 1261 02d6 47       		.byte	0x47
 1262 02d7 DB020000 		.4byte	0x2db
 1263 02db 0E       		.uleb128 0xe
 1264 02dc FA010000 		.4byte	.LASF42
 1265 02e0 10       		.byte	0x10
 1266 02e1 05       		.byte	0x5
 1267 02e2 DC       		.byte	0xdc
 1268 02e3 20030000 		.4byte	0x320
 1269 02e7 0B       		.uleb128 0xb
 1270 02e8 15000000 		.4byte	.LASF43
 1271 02ec 05       		.byte	0x5
 1272 02ed E0       		.byte	0xe0
 1273 02ee C5020000 		.4byte	0x2c5
 1274 02f2 02       		.byte	0x2
 1275 02f3 23       		.byte	0x23
 1276 02f4 00       		.uleb128 0x0
 1277 02f5 0B       		.uleb128 0xb
 1278 02f6 50000000 		.4byte	.LASF44
 1279 02fa 05       		.byte	0x5
 1280 02fb E4       		.byte	0xe4
 1281 02fc 89030000 		.4byte	0x389
 1282 0300 02       		.byte	0x2
 1283 0301 23       		.byte	0x23
 1284 0302 04       		.uleb128 0x4
 1285 0303 0B       		.uleb128 0xb
 1286 0304 16020000 		.4byte	.LASF45
 1287 0308 05       		.byte	0x5
 1288 0309 EC       		.byte	0xec
 1289 030a 70000000 		.4byte	0x70
 1290 030e 02       		.byte	0x2
 1291 030f 23       		.byte	0x23
 1292 0310 08       		.uleb128 0x8
 1293 0311 0A       		.uleb128 0xa
 1294 0312 74696D00 		.ascii	"tim\000"
 1295 0316 05       		.byte	0x5
 1296 0317 F0       		.byte	0xf0
 1297 0318 94030000 		.4byte	0x394
 1298 031c 02       		.byte	0x2
 1299 031d 23       		.byte	0x23
 1300 031e 0C       		.uleb128 0xc
 1301 031f 00       		.byte	0x0
 1302 0320 04       		.uleb128 0x4
 1303 0321 2B000000 		.4byte	.LASF46
 1304 0325 04       		.byte	0x4
 1305 0326 4E       		.byte	0x4e
 1306 0327 2B030000 		.4byte	0x32b
 1307 032b 0F       		.uleb128 0xf
 1308 032c 04       		.byte	0x4
 1309 032d 31030000 		.4byte	0x331
 1310 0331 10       		.uleb128 0x10
 1311 0332 01       		.byte	0x1
 1312 0333 3D030000 		.4byte	0x33d
 1313 0337 11       		.uleb128 0x11
 1314 0338 3D030000 		.4byte	0x33d
 1315 033c 00       		.byte	0x0
 1316 033d 0F       		.uleb128 0xf
ARM GAS  C:\Users\z80\AppData\Local\Temp\ccFNaHbp.s 			page 25


 1317 033e 04       		.byte	0x4
 1318 033f D0020000 		.4byte	0x2d0
 1319 0343 04       		.uleb128 0x4
 1320 0344 E4020000 		.4byte	.LASF47
 1321 0348 05       		.byte	0x5
 1322 0349 BF       		.byte	0xbf
 1323 034a 70000000 		.4byte	0x70
 1324 034e 04       		.uleb128 0x4
 1325 034f 39000000 		.4byte	.LASF48
 1326 0353 05       		.byte	0x5
 1327 0354 C4       		.byte	0xc4
 1328 0355 4C000000 		.4byte	0x4c
 1329 0359 09       		.uleb128 0x9
 1330 035a 08       		.byte	0x8
 1331 035b 05       		.byte	0x5
 1332 035c CA       		.byte	0xca
 1333 035d 7E030000 		.4byte	0x37e
 1334 0361 0B       		.uleb128 0xb
 1335 0362 9D020000 		.4byte	.LASF49
 1336 0366 05       		.byte	0x5
 1337 0367 D0       		.byte	0xd0
 1338 0368 43030000 		.4byte	0x343
 1339 036c 02       		.byte	0x2
 1340 036d 23       		.byte	0x23
 1341 036e 00       		.uleb128 0x0
 1342 036f 0B       		.uleb128 0xb
 1343 0370 F6020000 		.4byte	.LASF50
 1344 0374 05       		.byte	0x5
 1345 0375 D5       		.byte	0xd5
 1346 0376 20030000 		.4byte	0x320
 1347 037a 02       		.byte	0x2
 1348 037b 23       		.byte	0x23
 1349 037c 04       		.uleb128 0x4
 1350 037d 00       		.byte	0x0
 1351 037e 04       		.uleb128 0x4
 1352 037f 75020000 		.4byte	.LASF51
 1353 0383 05       		.byte	0x5
 1354 0384 D7       		.byte	0xd7
 1355 0385 59030000 		.4byte	0x359
 1356 0389 0F       		.uleb128 0xf
 1357 038a 04       		.byte	0x4
 1358 038b 8F030000 		.4byte	0x38f
 1359 038f 12       		.uleb128 0x12
 1360 0390 7E030000 		.4byte	0x37e
 1361 0394 0F       		.uleb128 0xf
 1362 0395 04       		.byte	0x4
 1363 0396 93020000 		.4byte	0x293
 1364 039a 13       		.uleb128 0x13
 1365 039b 01       		.byte	0x1
 1366 039c 2A010000 		.4byte	.LASF68
 1367 03a0 01       		.byte	0x1
 1368 03a1 44       		.byte	0x44
 1369 03a2 01       		.byte	0x1
 1370 03a3 00000000 		.4byte	.LFB62
 1371 03a7 08000000 		.4byte	.LFE62
 1372 03ab 00000000 		.4byte	.LLST0
 1373 03af 14       		.uleb128 0x14
ARM GAS  C:\Users\z80\AppData\Local\Temp\ccFNaHbp.s 			page 26


 1374 03b0 01       		.byte	0x1
 1375 03b1 C9020000 		.4byte	.LASF52
 1376 03b5 01       		.byte	0x1
 1377 03b6 50       		.byte	0x50
 1378 03b7 01       		.byte	0x1
 1379 03b8 00000000 		.4byte	.LFB63
 1380 03bc 18000000 		.4byte	.LFE63
 1381 03c0 20000000 		.4byte	.LLST1
 1382 03c4 D7030000 		.4byte	0x3d7
 1383 03c8 15       		.uleb128 0x15
 1384 03c9 70020000 		.4byte	.LASF54
 1385 03cd 01       		.byte	0x1
 1386 03ce 50       		.byte	0x50
 1387 03cf 3D030000 		.4byte	0x33d
 1388 03d3 02       		.byte	0x2
 1389 03d4 91       		.byte	0x91
 1390 03d5 7C       		.sleb128 -4
 1391 03d6 00       		.byte	0x0
 1392 03d7 14       		.uleb128 0x14
 1393 03d8 01       		.byte	0x1
 1394 03d9 F9000000 		.4byte	.LASF53
 1395 03dd 01       		.byte	0x1
 1396 03de 5E       		.byte	0x5e
 1397 03df 01       		.byte	0x1
 1398 03e0 00000000 		.4byte	.LFB64
 1399 03e4 6C000000 		.4byte	.LFE64
 1400 03e8 40000000 		.4byte	.LLST2
 1401 03ec 3F040000 		.4byte	0x43f
 1402 03f0 15       		.uleb128 0x15
 1403 03f1 70020000 		.4byte	.LASF54
 1404 03f5 01       		.byte	0x1
 1405 03f6 5E       		.byte	0x5e
 1406 03f7 3D030000 		.4byte	0x33d
 1407 03fb 02       		.byte	0x2
 1408 03fc 91       		.byte	0x91
 1409 03fd 74       		.sleb128 -12
 1410 03fe 15       		.uleb128 0x15
 1411 03ff 50000000 		.4byte	.LASF44
 1412 0403 01       		.byte	0x1
 1413 0404 5E       		.byte	0x5e
 1414 0405 89030000 		.4byte	0x389
 1415 0409 02       		.byte	0x2
 1416 040a 91       		.byte	0x91
 1417 040b 70       		.sleb128 -16
 1418 040c 16       		.uleb128 0x16
 1419 040d 20000000 		.4byte	.LBB2
 1420 0411 28000000 		.4byte	.LBE2
 1421 0415 27040000 		.4byte	0x427
 1422 0419 17       		.uleb128 0x17
 1423 041a 746D7000 		.ascii	"tmp\000"
 1424 041e 01       		.byte	0x1
 1425 041f 62       		.byte	0x62
 1426 0420 70000000 		.4byte	0x70
 1427 0424 01       		.byte	0x1
 1428 0425 53       		.byte	0x53
 1429 0426 00       		.byte	0x0
 1430 0427 18       		.uleb128 0x18
ARM GAS  C:\Users\z80\AppData\Local\Temp\ccFNaHbp.s 			page 27


 1431 0428 60000000 		.4byte	.LBB3
 1432 042c 68000000 		.4byte	.LBE3
 1433 0430 17       		.uleb128 0x17
 1434 0431 746D7000 		.ascii	"tmp\000"
 1435 0435 01       		.byte	0x1
 1436 0436 68       		.byte	0x68
 1437 0437 70000000 		.4byte	0x70
 1438 043b 01       		.byte	0x1
 1439 043c 53       		.byte	0x53
 1440 043d 00       		.byte	0x0
 1441 043e 00       		.byte	0x0
 1442 043f 14       		.uleb128 0x14
 1443 0440 01       		.byte	0x1
 1444 0441 EE020000 		.4byte	.LASF55
 1445 0445 01       		.byte	0x1
 1446 0446 72       		.byte	0x72
 1447 0447 01       		.byte	0x1
 1448 0448 00000000 		.4byte	.LFB65
 1449 044c 5E000000 		.4byte	.LFE65
 1450 0450 6C000000 		.4byte	.LLST3
 1451 0454 99040000 		.4byte	0x499
 1452 0458 15       		.uleb128 0x15
 1453 0459 70020000 		.4byte	.LASF54
 1454 045d 01       		.byte	0x1
 1455 045e 72       		.byte	0x72
 1456 045f 3D030000 		.4byte	0x33d
 1457 0463 02       		.byte	0x2
 1458 0464 91       		.byte	0x91
 1459 0465 74       		.sleb128 -12
 1460 0466 16       		.uleb128 0x16
 1461 0467 18000000 		.4byte	.LBB4
 1462 046b 20000000 		.4byte	.LBE4
 1463 046f 81040000 		.4byte	0x481
 1464 0473 17       		.uleb128 0x17
 1465 0474 746D7000 		.ascii	"tmp\000"
 1466 0478 01       		.byte	0x1
 1467 0479 76       		.byte	0x76
 1468 047a 70000000 		.4byte	0x70
 1469 047e 01       		.byte	0x1
 1470 047f 53       		.byte	0x53
 1471 0480 00       		.byte	0x0
 1472 0481 18       		.uleb128 0x18
 1473 0482 52000000 		.4byte	.LBB5
 1474 0486 5A000000 		.4byte	.LBE5
 1475 048a 17       		.uleb128 0x17
 1476 048b 746D7000 		.ascii	"tmp\000"
 1477 048f 01       		.byte	0x1
 1478 0490 7B       		.byte	0x7b
 1479 0491 70000000 		.4byte	0x70
 1480 0495 01       		.byte	0x1
 1481 0496 53       		.byte	0x53
 1482 0497 00       		.byte	0x0
 1483 0498 00       		.byte	0x0
 1484 0499 14       		.uleb128 0x14
 1485 049a 01       		.byte	0x1
 1486 049b 32010000 		.4byte	.LASF56
 1487 049f 01       		.byte	0x1
ARM GAS  C:\Users\z80\AppData\Local\Temp\ccFNaHbp.s 			page 28


 1488 04a0 86       		.byte	0x86
 1489 04a1 01       		.byte	0x1
 1490 04a2 00000000 		.4byte	.LFB66
 1491 04a6 34000000 		.4byte	.LFE66
 1492 04aa 98000000 		.4byte	.LLST4
 1493 04ae 01050000 		.4byte	0x501
 1494 04b2 15       		.uleb128 0x15
 1495 04b3 70020000 		.4byte	.LASF54
 1496 04b7 01       		.byte	0x1
 1497 04b8 86       		.byte	0x86
 1498 04b9 3D030000 		.4byte	0x33d
 1499 04bd 02       		.byte	0x2
 1500 04be 91       		.byte	0x91
 1501 04bf 74       		.sleb128 -12
 1502 04c0 15       		.uleb128 0x15
 1503 04c1 49020000 		.4byte	.LASF57
 1504 04c5 01       		.byte	0x1
 1505 04c6 86       		.byte	0x86
 1506 04c7 4E030000 		.4byte	0x34e
 1507 04cb 02       		.byte	0x2
 1508 04cc 91       		.byte	0x91
 1509 04cd 72       		.sleb128 -14
 1510 04ce 16       		.uleb128 0x16
 1511 04cf 0C000000 		.4byte	.LBB6
 1512 04d3 14000000 		.4byte	.LBE6
 1513 04d7 E9040000 		.4byte	0x4e9
 1514 04db 17       		.uleb128 0x17
 1515 04dc 746D7000 		.ascii	"tmp\000"
 1516 04e0 01       		.byte	0x1
 1517 04e1 88       		.byte	0x88
 1518 04e2 70000000 		.4byte	0x70
 1519 04e6 01       		.byte	0x1
 1520 04e7 53       		.byte	0x53
 1521 04e8 00       		.byte	0x0
 1522 04e9 18       		.uleb128 0x18
 1523 04ea 28000000 		.4byte	.LBB7
 1524 04ee 30000000 		.4byte	.LBE7
 1525 04f2 17       		.uleb128 0x17
 1526 04f3 746D7000 		.ascii	"tmp\000"
 1527 04f7 01       		.byte	0x1
 1528 04f8 8A       		.byte	0x8a
 1529 04f9 70000000 		.4byte	0x70
 1530 04fd 01       		.byte	0x1
 1531 04fe 53       		.byte	0x53
 1532 04ff 00       		.byte	0x0
 1533 0500 00       		.byte	0x0
 1534 0501 14       		.uleb128 0x14
 1535 0502 01       		.byte	0x1
 1536 0503 DC000000 		.4byte	.LASF58
 1537 0507 01       		.byte	0x1
 1538 0508 95       		.byte	0x95
 1539 0509 01       		.byte	0x1
 1540 050a 00000000 		.4byte	.LFB67
 1541 050e 4E000000 		.4byte	.LFE67
 1542 0512 C4000000 		.4byte	.LLST5
 1543 0516 37050000 		.4byte	0x537
 1544 051a 15       		.uleb128 0x15
ARM GAS  C:\Users\z80\AppData\Local\Temp\ccFNaHbp.s 			page 29


 1545 051b 70020000 		.4byte	.LASF54
 1546 051f 01       		.byte	0x1
 1547 0520 95       		.byte	0x95
 1548 0521 3D030000 		.4byte	0x33d
 1549 0525 02       		.byte	0x2
 1550 0526 91       		.byte	0x91
 1551 0527 74       		.sleb128 -12
 1552 0528 15       		.uleb128 0x15
 1553 0529 49020000 		.4byte	.LASF57
 1554 052d 01       		.byte	0x1
 1555 052e 95       		.byte	0x95
 1556 052f 4E030000 		.4byte	0x34e
 1557 0533 02       		.byte	0x2
 1558 0534 91       		.byte	0x91
 1559 0535 72       		.sleb128 -14
 1560 0536 00       		.byte	0x0
 1561 0537 14       		.uleb128 0x14
 1562 0538 01       		.byte	0x1
 1563 0539 CC000000 		.4byte	.LASF59
 1564 053d 01       		.byte	0x1
 1565 053e A8       		.byte	0xa8
 1566 053f 01       		.byte	0x1
 1567 0540 00000000 		.4byte	.LFB68
 1568 0544 34000000 		.4byte	.LFE68
 1569 0548 F0000000 		.4byte	.LLST6
 1570 054c 9F050000 		.4byte	0x59f
 1571 0550 15       		.uleb128 0x15
 1572 0551 70020000 		.4byte	.LASF54
 1573 0555 01       		.byte	0x1
 1574 0556 A8       		.byte	0xa8
 1575 0557 3D030000 		.4byte	0x33d
 1576 055b 02       		.byte	0x2
 1577 055c 91       		.byte	0x91
 1578 055d 74       		.sleb128 -12
 1579 055e 15       		.uleb128 0x15
 1580 055f 49020000 		.4byte	.LASF57
 1581 0563 01       		.byte	0x1
 1582 0564 A8       		.byte	0xa8
 1583 0565 4E030000 		.4byte	0x34e
 1584 0569 02       		.byte	0x2
 1585 056a 91       		.byte	0x91
 1586 056b 72       		.sleb128 -14
 1587 056c 16       		.uleb128 0x16
 1588 056d 0C000000 		.4byte	.LBB8
 1589 0571 14000000 		.4byte	.LBE8
 1590 0575 87050000 		.4byte	0x587
 1591 0579 17       		.uleb128 0x17
 1592 057a 746D7000 		.ascii	"tmp\000"
 1593 057e 01       		.byte	0x1
 1594 057f AA       		.byte	0xaa
 1595 0580 70000000 		.4byte	0x70
 1596 0584 01       		.byte	0x1
 1597 0585 53       		.byte	0x53
 1598 0586 00       		.byte	0x0
 1599 0587 18       		.uleb128 0x18
 1600 0588 28000000 		.4byte	.LBB9
 1601 058c 30000000 		.4byte	.LBE9
ARM GAS  C:\Users\z80\AppData\Local\Temp\ccFNaHbp.s 			page 30


 1602 0590 17       		.uleb128 0x17
 1603 0591 746D7000 		.ascii	"tmp\000"
 1604 0595 01       		.byte	0x1
 1605 0596 AC       		.byte	0xac
 1606 0597 70000000 		.4byte	0x70
 1607 059b 01       		.byte	0x1
 1608 059c 53       		.byte	0x53
 1609 059d 00       		.byte	0x0
 1610 059e 00       		.byte	0x0
 1611 059f 14       		.uleb128 0x14
 1612 05a0 01       		.byte	0x1
 1613 05a1 7F020000 		.4byte	.LASF60
 1614 05a5 01       		.byte	0x1
 1615 05a6 B7       		.byte	0xb7
 1616 05a7 01       		.byte	0x1
 1617 05a8 00000000 		.4byte	.LFB69
 1618 05ac 4E000000 		.4byte	.LFE69
 1619 05b0 1C010000 		.4byte	.LLST7
 1620 05b4 D5050000 		.4byte	0x5d5
 1621 05b8 15       		.uleb128 0x15
 1622 05b9 70020000 		.4byte	.LASF54
 1623 05bd 01       		.byte	0x1
 1624 05be B7       		.byte	0xb7
 1625 05bf 3D030000 		.4byte	0x33d
 1626 05c3 02       		.byte	0x2
 1627 05c4 91       		.byte	0x91
 1628 05c5 74       		.sleb128 -12
 1629 05c6 15       		.uleb128 0x15
 1630 05c7 49020000 		.4byte	.LASF57
 1631 05cb 01       		.byte	0x1
 1632 05cc B7       		.byte	0xb7
 1633 05cd 4E030000 		.4byte	0x34e
 1634 05d1 02       		.byte	0x2
 1635 05d2 91       		.byte	0x91
 1636 05d3 72       		.sleb128 -14
 1637 05d4 00       		.byte	0x0
 1638 05d5 14       		.uleb128 0x14
 1639 05d6 01       		.byte	0x1
 1640 05d7 90020000 		.4byte	.LASF61
 1641 05db 01       		.byte	0x1
 1642 05dc C9       		.byte	0xc9
 1643 05dd 01       		.byte	0x1
 1644 05de 00000000 		.4byte	.LFB70
 1645 05e2 28000000 		.4byte	.LFE70
 1646 05e6 48010000 		.4byte	.LLST8
 1647 05ea 2F060000 		.4byte	0x62f
 1648 05ee 15       		.uleb128 0x15
 1649 05ef 70020000 		.4byte	.LASF54
 1650 05f3 01       		.byte	0x1
 1651 05f4 C9       		.byte	0xc9
 1652 05f5 3D030000 		.4byte	0x33d
 1653 05f9 02       		.byte	0x2
 1654 05fa 91       		.byte	0x91
 1655 05fb 74       		.sleb128 -12
 1656 05fc 16       		.uleb128 0x16
 1657 05fd 06000000 		.4byte	.LBB10
 1658 0601 0E000000 		.4byte	.LBE10
ARM GAS  C:\Users\z80\AppData\Local\Temp\ccFNaHbp.s 			page 31


 1659 0605 17060000 		.4byte	0x617
 1660 0609 17       		.uleb128 0x17
 1661 060a 746D7000 		.ascii	"tmp\000"
 1662 060e 01       		.byte	0x1
 1663 060f CB       		.byte	0xcb
 1664 0610 70000000 		.4byte	0x70
 1665 0614 01       		.byte	0x1
 1666 0615 53       		.byte	0x53
 1667 0616 00       		.byte	0x0
 1668 0617 18       		.uleb128 0x18
 1669 0618 1C000000 		.4byte	.LBB11
 1670 061c 24000000 		.4byte	.LBE11
 1671 0620 17       		.uleb128 0x17
 1672 0621 746D7000 		.ascii	"tmp\000"
 1673 0625 01       		.byte	0x1
 1674 0626 CD       		.byte	0xcd
 1675 0627 70000000 		.4byte	0x70
 1676 062b 01       		.byte	0x1
 1677 062c 53       		.byte	0x53
 1678 062d 00       		.byte	0x0
 1679 062e 00       		.byte	0x0
 1680 062f 14       		.uleb128 0x14
 1681 0630 01       		.byte	0x1
 1682 0631 42000000 		.4byte	.LASF62
 1683 0635 01       		.byte	0x1
 1684 0636 D7       		.byte	0xd7
 1685 0637 01       		.byte	0x1
 1686 0638 00000000 		.4byte	.LFB71
 1687 063c 52000000 		.4byte	.LFE71
 1688 0640 74010000 		.4byte	.LLST9
 1689 0644 57060000 		.4byte	0x657
 1690 0648 15       		.uleb128 0x15
 1691 0649 70020000 		.4byte	.LASF54
 1692 064d 01       		.byte	0x1
 1693 064e D7       		.byte	0xd7
 1694 064f 3D030000 		.4byte	0x33d
 1695 0653 02       		.byte	0x2
 1696 0654 91       		.byte	0x91
 1697 0655 74       		.sleb128 -12
 1698 0656 00       		.byte	0x0
 1699 0657 14       		.uleb128 0x14
 1700 0658 01       		.byte	0x1
 1701 0659 02010000 		.4byte	.LASF63
 1702 065d 01       		.byte	0x1
 1703 065e EF       		.byte	0xef
 1704 065f 01       		.byte	0x1
 1705 0660 00000000 		.4byte	.LFB72
 1706 0664 40000000 		.4byte	.LFE72
 1707 0668 A0010000 		.4byte	.LLST10
 1708 066c 8D060000 		.4byte	0x68d
 1709 0670 15       		.uleb128 0x15
 1710 0671 70020000 		.4byte	.LASF54
 1711 0675 01       		.byte	0x1
 1712 0676 EF       		.byte	0xef
 1713 0677 3D030000 		.4byte	0x33d
 1714 067b 02       		.byte	0x2
 1715 067c 91       		.byte	0x91
ARM GAS  C:\Users\z80\AppData\Local\Temp\ccFNaHbp.s 			page 32


 1716 067d 74       		.sleb128 -12
 1717 067e 15       		.uleb128 0x15
 1718 067f 49020000 		.4byte	.LASF57
 1719 0683 01       		.byte	0x1
 1720 0684 EF       		.byte	0xef
 1721 0685 4E030000 		.4byte	0x34e
 1722 0689 02       		.byte	0x2
 1723 068a 91       		.byte	0x91
 1724 068b 72       		.sleb128 -14
 1725 068c 00       		.byte	0x0
 1726 068d 19       		.uleb128 0x19
 1727 068e D7020000 		.4byte	.LASF64
 1728 0692 06       		.byte	0x6
 1729 0693 9404     		.2byte	0x494
 1730 0695 B4000000 		.4byte	0xb4
 1731 0699 01       		.byte	0x1
 1732 069a 01       		.byte	0x1
 1733 069b 19       		.uleb128 0x19
 1734 069c D7020000 		.4byte	.LASF64
 1735 06a0 06       		.byte	0x6
 1736 06a1 9404     		.2byte	0x494
 1737 06a3 B4000000 		.4byte	0xb4
 1738 06a7 01       		.byte	0x1
 1739 06a8 01       		.byte	0x1
 1740 06a9 00       		.byte	0x0
 1741              		.section	.debug_abbrev
 1742 0000 01       		.uleb128 0x1
 1743 0001 11       		.uleb128 0x11
 1744 0002 01       		.byte	0x1
 1745 0003 25       		.uleb128 0x25
 1746 0004 0E       		.uleb128 0xe
 1747 0005 13       		.uleb128 0x13
 1748 0006 0B       		.uleb128 0xb
 1749 0007 03       		.uleb128 0x3
 1750 0008 0E       		.uleb128 0xe
 1751 0009 1B       		.uleb128 0x1b
 1752 000a 0E       		.uleb128 0xe
 1753 000b 11       		.uleb128 0x11
 1754 000c 01       		.uleb128 0x1
 1755 000d 52       		.uleb128 0x52
 1756 000e 01       		.uleb128 0x1
 1757 000f 55       		.uleb128 0x55
 1758 0010 06       		.uleb128 0x6
 1759 0011 10       		.uleb128 0x10
 1760 0012 06       		.uleb128 0x6
 1761 0013 00       		.byte	0x0
 1762 0014 00       		.byte	0x0
 1763 0015 02       		.uleb128 0x2
 1764 0016 24       		.uleb128 0x24
 1765 0017 00       		.byte	0x0
 1766 0018 0B       		.uleb128 0xb
 1767 0019 0B       		.uleb128 0xb
 1768 001a 3E       		.uleb128 0x3e
 1769 001b 0B       		.uleb128 0xb
 1770 001c 03       		.uleb128 0x3
 1771 001d 08       		.uleb128 0x8
 1772 001e 00       		.byte	0x0
ARM GAS  C:\Users\z80\AppData\Local\Temp\ccFNaHbp.s 			page 33


 1773 001f 00       		.byte	0x0
 1774 0020 03       		.uleb128 0x3
 1775 0021 24       		.uleb128 0x24
 1776 0022 00       		.byte	0x0
 1777 0023 0B       		.uleb128 0xb
 1778 0024 0B       		.uleb128 0xb
 1779 0025 3E       		.uleb128 0x3e
 1780 0026 0B       		.uleb128 0xb
 1781 0027 03       		.uleb128 0x3
 1782 0028 0E       		.uleb128 0xe
 1783 0029 00       		.byte	0x0
 1784 002a 00       		.byte	0x0
 1785 002b 04       		.uleb128 0x4
 1786 002c 16       		.uleb128 0x16
 1787 002d 00       		.byte	0x0
 1788 002e 03       		.uleb128 0x3
 1789 002f 0E       		.uleb128 0xe
 1790 0030 3A       		.uleb128 0x3a
 1791 0031 0B       		.uleb128 0xb
 1792 0032 3B       		.uleb128 0x3b
 1793 0033 0B       		.uleb128 0xb
 1794 0034 49       		.uleb128 0x49
 1795 0035 13       		.uleb128 0x13
 1796 0036 00       		.byte	0x0
 1797 0037 00       		.byte	0x0
 1798 0038 05       		.uleb128 0x5
 1799 0039 35       		.uleb128 0x35
 1800 003a 00       		.byte	0x0
 1801 003b 49       		.uleb128 0x49
 1802 003c 13       		.uleb128 0x13
 1803 003d 00       		.byte	0x0
 1804 003e 00       		.byte	0x0
 1805 003f 06       		.uleb128 0x6
 1806 0040 24       		.uleb128 0x24
 1807 0041 00       		.byte	0x0
 1808 0042 0B       		.uleb128 0xb
 1809 0043 0B       		.uleb128 0xb
 1810 0044 3E       		.uleb128 0x3e
 1811 0045 0B       		.uleb128 0xb
 1812 0046 00       		.byte	0x0
 1813 0047 00       		.byte	0x0
 1814 0048 07       		.uleb128 0x7
 1815 0049 01       		.uleb128 0x1
 1816 004a 01       		.byte	0x1
 1817 004b 49       		.uleb128 0x49
 1818 004c 13       		.uleb128 0x13
 1819 004d 01       		.uleb128 0x1
 1820 004e 13       		.uleb128 0x13
 1821 004f 00       		.byte	0x0
 1822 0050 00       		.byte	0x0
 1823 0051 08       		.uleb128 0x8
 1824 0052 21       		.uleb128 0x21
 1825 0053 00       		.byte	0x0
 1826 0054 49       		.uleb128 0x49
 1827 0055 13       		.uleb128 0x13
 1828 0056 2F       		.uleb128 0x2f
 1829 0057 0B       		.uleb128 0xb
ARM GAS  C:\Users\z80\AppData\Local\Temp\ccFNaHbp.s 			page 34


 1830 0058 00       		.byte	0x0
 1831 0059 00       		.byte	0x0
 1832 005a 09       		.uleb128 0x9
 1833 005b 13       		.uleb128 0x13
 1834 005c 01       		.byte	0x1
 1835 005d 0B       		.uleb128 0xb
 1836 005e 0B       		.uleb128 0xb
 1837 005f 3A       		.uleb128 0x3a
 1838 0060 0B       		.uleb128 0xb
 1839 0061 3B       		.uleb128 0x3b
 1840 0062 0B       		.uleb128 0xb
 1841 0063 01       		.uleb128 0x1
 1842 0064 13       		.uleb128 0x13
 1843 0065 00       		.byte	0x0
 1844 0066 00       		.byte	0x0
 1845 0067 0A       		.uleb128 0xa
 1846 0068 0D       		.uleb128 0xd
 1847 0069 00       		.byte	0x0
 1848 006a 03       		.uleb128 0x3
 1849 006b 08       		.uleb128 0x8
 1850 006c 3A       		.uleb128 0x3a
 1851 006d 0B       		.uleb128 0xb
 1852 006e 3B       		.uleb128 0x3b
 1853 006f 0B       		.uleb128 0xb
 1854 0070 49       		.uleb128 0x49
 1855 0071 13       		.uleb128 0x13
 1856 0072 38       		.uleb128 0x38
 1857 0073 0A       		.uleb128 0xa
 1858 0074 00       		.byte	0x0
 1859 0075 00       		.byte	0x0
 1860 0076 0B       		.uleb128 0xb
 1861 0077 0D       		.uleb128 0xd
 1862 0078 00       		.byte	0x0
 1863 0079 03       		.uleb128 0x3
 1864 007a 0E       		.uleb128 0xe
 1865 007b 3A       		.uleb128 0x3a
 1866 007c 0B       		.uleb128 0xb
 1867 007d 3B       		.uleb128 0x3b
 1868 007e 0B       		.uleb128 0xb
 1869 007f 49       		.uleb128 0x49
 1870 0080 13       		.uleb128 0x13
 1871 0081 38       		.uleb128 0x38
 1872 0082 0A       		.uleb128 0xa
 1873 0083 00       		.byte	0x0
 1874 0084 00       		.byte	0x0
 1875 0085 0C       		.uleb128 0xc
 1876 0086 04       		.uleb128 0x4
 1877 0087 01       		.byte	0x1
 1878 0088 0B       		.uleb128 0xb
 1879 0089 0B       		.uleb128 0xb
 1880 008a 3A       		.uleb128 0x3a
 1881 008b 0B       		.uleb128 0xb
 1882 008c 3B       		.uleb128 0x3b
 1883 008d 0B       		.uleb128 0xb
 1884 008e 01       		.uleb128 0x1
 1885 008f 13       		.uleb128 0x13
 1886 0090 00       		.byte	0x0
ARM GAS  C:\Users\z80\AppData\Local\Temp\ccFNaHbp.s 			page 35


 1887 0091 00       		.byte	0x0
 1888 0092 0D       		.uleb128 0xd
 1889 0093 28       		.uleb128 0x28
 1890 0094 00       		.byte	0x0
 1891 0095 03       		.uleb128 0x3
 1892 0096 0E       		.uleb128 0xe
 1893 0097 1C       		.uleb128 0x1c
 1894 0098 0D       		.uleb128 0xd
 1895 0099 00       		.byte	0x0
 1896 009a 00       		.byte	0x0
 1897 009b 0E       		.uleb128 0xe
 1898 009c 13       		.uleb128 0x13
 1899 009d 01       		.byte	0x1
 1900 009e 03       		.uleb128 0x3
 1901 009f 0E       		.uleb128 0xe
 1902 00a0 0B       		.uleb128 0xb
 1903 00a1 0B       		.uleb128 0xb
 1904 00a2 3A       		.uleb128 0x3a
 1905 00a3 0B       		.uleb128 0xb
 1906 00a4 3B       		.uleb128 0x3b
 1907 00a5 0B       		.uleb128 0xb
 1908 00a6 01       		.uleb128 0x1
 1909 00a7 13       		.uleb128 0x13
 1910 00a8 00       		.byte	0x0
 1911 00a9 00       		.byte	0x0
 1912 00aa 0F       		.uleb128 0xf
 1913 00ab 0F       		.uleb128 0xf
 1914 00ac 00       		.byte	0x0
 1915 00ad 0B       		.uleb128 0xb
 1916 00ae 0B       		.uleb128 0xb
 1917 00af 49       		.uleb128 0x49
 1918 00b0 13       		.uleb128 0x13
 1919 00b1 00       		.byte	0x0
 1920 00b2 00       		.byte	0x0
 1921 00b3 10       		.uleb128 0x10
 1922 00b4 15       		.uleb128 0x15
 1923 00b5 01       		.byte	0x1
 1924 00b6 27       		.uleb128 0x27
 1925 00b7 0C       		.uleb128 0xc
 1926 00b8 01       		.uleb128 0x1
 1927 00b9 13       		.uleb128 0x13
 1928 00ba 00       		.byte	0x0
 1929 00bb 00       		.byte	0x0
 1930 00bc 11       		.uleb128 0x11
 1931 00bd 05       		.uleb128 0x5
 1932 00be 00       		.byte	0x0
 1933 00bf 49       		.uleb128 0x49
 1934 00c0 13       		.uleb128 0x13
 1935 00c1 00       		.byte	0x0
 1936 00c2 00       		.byte	0x0
 1937 00c3 12       		.uleb128 0x12
 1938 00c4 26       		.uleb128 0x26
 1939 00c5 00       		.byte	0x0
 1940 00c6 49       		.uleb128 0x49
 1941 00c7 13       		.uleb128 0x13
 1942 00c8 00       		.byte	0x0
 1943 00c9 00       		.byte	0x0
ARM GAS  C:\Users\z80\AppData\Local\Temp\ccFNaHbp.s 			page 36


 1944 00ca 13       		.uleb128 0x13
 1945 00cb 2E       		.uleb128 0x2e
 1946 00cc 00       		.byte	0x0
 1947 00cd 3F       		.uleb128 0x3f
 1948 00ce 0C       		.uleb128 0xc
 1949 00cf 03       		.uleb128 0x3
 1950 00d0 0E       		.uleb128 0xe
 1951 00d1 3A       		.uleb128 0x3a
 1952 00d2 0B       		.uleb128 0xb
 1953 00d3 3B       		.uleb128 0x3b
 1954 00d4 0B       		.uleb128 0xb
 1955 00d5 27       		.uleb128 0x27
 1956 00d6 0C       		.uleb128 0xc
 1957 00d7 11       		.uleb128 0x11
 1958 00d8 01       		.uleb128 0x1
 1959 00d9 12       		.uleb128 0x12
 1960 00da 01       		.uleb128 0x1
 1961 00db 40       		.uleb128 0x40
 1962 00dc 06       		.uleb128 0x6
 1963 00dd 00       		.byte	0x0
 1964 00de 00       		.byte	0x0
 1965 00df 14       		.uleb128 0x14
 1966 00e0 2E       		.uleb128 0x2e
 1967 00e1 01       		.byte	0x1
 1968 00e2 3F       		.uleb128 0x3f
 1969 00e3 0C       		.uleb128 0xc
 1970 00e4 03       		.uleb128 0x3
 1971 00e5 0E       		.uleb128 0xe
 1972 00e6 3A       		.uleb128 0x3a
 1973 00e7 0B       		.uleb128 0xb
 1974 00e8 3B       		.uleb128 0x3b
 1975 00e9 0B       		.uleb128 0xb
 1976 00ea 27       		.uleb128 0x27
 1977 00eb 0C       		.uleb128 0xc
 1978 00ec 11       		.uleb128 0x11
 1979 00ed 01       		.uleb128 0x1
 1980 00ee 12       		.uleb128 0x12
 1981 00ef 01       		.uleb128 0x1
 1982 00f0 40       		.uleb128 0x40
 1983 00f1 06       		.uleb128 0x6
 1984 00f2 01       		.uleb128 0x1
 1985 00f3 13       		.uleb128 0x13
 1986 00f4 00       		.byte	0x0
 1987 00f5 00       		.byte	0x0
 1988 00f6 15       		.uleb128 0x15
 1989 00f7 05       		.uleb128 0x5
 1990 00f8 00       		.byte	0x0
 1991 00f9 03       		.uleb128 0x3
 1992 00fa 0E       		.uleb128 0xe
 1993 00fb 3A       		.uleb128 0x3a
 1994 00fc 0B       		.uleb128 0xb
 1995 00fd 3B       		.uleb128 0x3b
 1996 00fe 0B       		.uleb128 0xb
 1997 00ff 49       		.uleb128 0x49
 1998 0100 13       		.uleb128 0x13
 1999 0101 02       		.uleb128 0x2
 2000 0102 0A       		.uleb128 0xa
ARM GAS  C:\Users\z80\AppData\Local\Temp\ccFNaHbp.s 			page 37


 2001 0103 00       		.byte	0x0
 2002 0104 00       		.byte	0x0
 2003 0105 16       		.uleb128 0x16
 2004 0106 0B       		.uleb128 0xb
 2005 0107 01       		.byte	0x1
 2006 0108 11       		.uleb128 0x11
 2007 0109 01       		.uleb128 0x1
 2008 010a 12       		.uleb128 0x12
 2009 010b 01       		.uleb128 0x1
 2010 010c 01       		.uleb128 0x1
 2011 010d 13       		.uleb128 0x13
 2012 010e 00       		.byte	0x0
 2013 010f 00       		.byte	0x0
 2014 0110 17       		.uleb128 0x17
 2015 0111 34       		.uleb128 0x34
 2016 0112 00       		.byte	0x0
 2017 0113 03       		.uleb128 0x3
 2018 0114 08       		.uleb128 0x8
 2019 0115 3A       		.uleb128 0x3a
 2020 0116 0B       		.uleb128 0xb
 2021 0117 3B       		.uleb128 0x3b
 2022 0118 0B       		.uleb128 0xb
 2023 0119 49       		.uleb128 0x49
 2024 011a 13       		.uleb128 0x13
 2025 011b 02       		.uleb128 0x2
 2026 011c 0A       		.uleb128 0xa
 2027 011d 00       		.byte	0x0
 2028 011e 00       		.byte	0x0
 2029 011f 18       		.uleb128 0x18
 2030 0120 0B       		.uleb128 0xb
 2031 0121 01       		.byte	0x1
 2032 0122 11       		.uleb128 0x11
 2033 0123 01       		.uleb128 0x1
 2034 0124 12       		.uleb128 0x12
 2035 0125 01       		.uleb128 0x1
 2036 0126 00       		.byte	0x0
 2037 0127 00       		.byte	0x0
 2038 0128 19       		.uleb128 0x19
 2039 0129 34       		.uleb128 0x34
 2040 012a 00       		.byte	0x0
 2041 012b 03       		.uleb128 0x3
 2042 012c 0E       		.uleb128 0xe
 2043 012d 3A       		.uleb128 0x3a
 2044 012e 0B       		.uleb128 0xb
 2045 012f 3B       		.uleb128 0x3b
 2046 0130 05       		.uleb128 0x5
 2047 0131 49       		.uleb128 0x49
 2048 0132 13       		.uleb128 0x13
 2049 0133 3F       		.uleb128 0x3f
 2050 0134 0C       		.uleb128 0xc
 2051 0135 3C       		.uleb128 0x3c
 2052 0136 0C       		.uleb128 0xc
 2053 0137 00       		.byte	0x0
 2054 0138 00       		.byte	0x0
 2055 0139 00       		.byte	0x0
 2056              		.section	.debug_pubnames,"",%progbits
 2057 0000 D3000000 		.4byte	0xd3
ARM GAS  C:\Users\z80\AppData\Local\Temp\ccFNaHbp.s 			page 38


 2058 0004 0200     		.2byte	0x2
 2059 0006 00000000 		.4byte	.Ldebug_info0
 2060 000a AA060000 		.4byte	0x6aa
 2061 000e 9A030000 		.4byte	0x39a
 2062 0012 67707449 		.ascii	"gptInit\000"
 2062      6E697400 
 2063 001a AF030000 		.4byte	0x3af
 2064 001e 6770744F 		.ascii	"gptObjectInit\000"
 2064      626A6563 
 2064      74496E69 
 2064      7400
 2065 002c D7030000 		.4byte	0x3d7
 2066 0030 67707453 		.ascii	"gptStart\000"
 2066      74617274 
 2066      00
 2067 0039 3F040000 		.4byte	0x43f
 2068 003d 67707453 		.ascii	"gptStop\000"
 2068      746F7000 
 2069 0045 99040000 		.4byte	0x499
 2070 0049 67707453 		.ascii	"gptStartContinuous\000"
 2070      74617274 
 2070      436F6E74 
 2070      696E756F 
 2070      757300
 2071 005c 01050000 		.4byte	0x501
 2072 0060 67707453 		.ascii	"gptStartContinuousI\000"
 2072      74617274 
 2072      436F6E74 
 2072      696E756F 
 2072      75734900 
 2073 0074 37050000 		.4byte	0x537
 2074 0078 67707453 		.ascii	"gptStartOneShot\000"
 2074      74617274 
 2074      4F6E6553 
 2074      686F7400 
 2075 0088 9F050000 		.4byte	0x59f
 2076 008c 67707453 		.ascii	"gptStartOneShotI\000"
 2076      74617274 
 2076      4F6E6553 
 2076      686F7449 
 2076      00
 2077 009d D5050000 		.4byte	0x5d5
 2078 00a1 67707453 		.ascii	"gptStopTimer\000"
 2078      746F7054 
 2078      696D6572 
 2078      00
 2079 00ae 2F060000 		.4byte	0x62f
 2080 00b2 67707453 		.ascii	"gptStopTimerI\000"
 2080      746F7054 
 2080      696D6572 
 2080      4900
 2081 00c0 57060000 		.4byte	0x657
 2082 00c4 67707450 		.ascii	"gptPolledDelay\000"
 2082      6F6C6C65 
 2082      6444656C 
 2082      617900
 2083 00d3 00000000 		.4byte	0x0
ARM GAS  C:\Users\z80\AppData\Local\Temp\ccFNaHbp.s 			page 39


 2084              		.section	.debug_pubtypes,"",%progbits
 2085 0000 AA000000 		.4byte	0xaa
 2086 0004 0200     		.2byte	0x2
 2087 0006 00000000 		.4byte	.Ldebug_info0
 2088 000a AA060000 		.4byte	0x6aa
 2089 000e 4C000000 		.4byte	0x4c
 2090 0012 75696E74 		.ascii	"uint16_t\000"
 2090      31365F74 
 2090      00
 2091 001b 5E000000 		.4byte	0x5e
 2092 001f 696E7433 		.ascii	"int32_t\000"
 2092      325F7400 
 2093 0027 70000000 		.4byte	0x70
 2094 002b 75696E74 		.ascii	"uint32_t\000"
 2094      33325F74 
 2094      00
 2095 0034 93020000 		.4byte	0x293
 2096 0038 73746D33 		.ascii	"stm32_tim_t\000"
 2096      325F7469 
 2096      6D5F7400 
 2097 0044 C5020000 		.4byte	0x2c5
 2098 0048 67707473 		.ascii	"gptstate_t\000"
 2098      74617465 
 2098      5F7400
 2099 0053 D0020000 		.4byte	0x2d0
 2100 0057 47505444 		.ascii	"GPTDriver\000"
 2100      72697665 
 2100      7200
 2101 0061 20030000 		.4byte	0x320
 2102 0065 67707463 		.ascii	"gptcallback_t\000"
 2102      616C6C62 
 2102      61636B5F 
 2102      7400
 2103 0073 43030000 		.4byte	0x343
 2104 0077 67707466 		.ascii	"gptfreq_t\000"
 2104      7265715F 
 2104      7400
 2105 0081 4E030000 		.4byte	0x34e
 2106 0085 67707463 		.ascii	"gptcnt_t\000"
 2106      6E745F74 
 2106      00
 2107 008e 7E030000 		.4byte	0x37e
 2108 0092 47505443 		.ascii	"GPTConfig\000"
 2108      6F6E6669 
 2108      6700
 2109 009c DB020000 		.4byte	0x2db
 2110 00a0 47505444 		.ascii	"GPTDriver\000"
 2110      72697665 
 2110      7200
 2111 00aa 00000000 		.4byte	0x0
 2112              		.section	.debug_aranges,"",%progbits
 2113 0000 6C000000 		.4byte	0x6c
 2114 0004 0200     		.2byte	0x2
 2115 0006 00000000 		.4byte	.Ldebug_info0
 2116 000a 04       		.byte	0x4
 2117 000b 00       		.byte	0x0
 2118 000c 0000     		.2byte	0x0
ARM GAS  C:\Users\z80\AppData\Local\Temp\ccFNaHbp.s 			page 40


 2119 000e 0000     		.2byte	0x0
 2120 0010 00000000 		.4byte	.LFB62
 2121 0014 08000000 		.4byte	.LFE62-.LFB62
 2122 0018 00000000 		.4byte	.LFB63
 2123 001c 18000000 		.4byte	.LFE63-.LFB63
 2124 0020 00000000 		.4byte	.LFB64
 2125 0024 6C000000 		.4byte	.LFE64-.LFB64
 2126 0028 00000000 		.4byte	.LFB65
 2127 002c 5E000000 		.4byte	.LFE65-.LFB65
 2128 0030 00000000 		.4byte	.LFB66
 2129 0034 34000000 		.4byte	.LFE66-.LFB66
 2130 0038 00000000 		.4byte	.LFB67
 2131 003c 4E000000 		.4byte	.LFE67-.LFB67
 2132 0040 00000000 		.4byte	.LFB68
 2133 0044 34000000 		.4byte	.LFE68-.LFB68
 2134 0048 00000000 		.4byte	.LFB69
 2135 004c 4E000000 		.4byte	.LFE69-.LFB69
 2136 0050 00000000 		.4byte	.LFB70
 2137 0054 28000000 		.4byte	.LFE70-.LFB70
 2138 0058 00000000 		.4byte	.LFB71
 2139 005c 52000000 		.4byte	.LFE71-.LFB71
 2140 0060 00000000 		.4byte	.LFB72
 2141 0064 40000000 		.4byte	.LFE72-.LFB72
 2142 0068 00000000 		.4byte	0x0
 2143 006c 00000000 		.4byte	0x0
 2144              		.section	.debug_ranges,"",%progbits
 2145              	.Ldebug_ranges0:
 2146 0000 00000000 		.4byte	.LFB62
 2147 0004 08000000 		.4byte	.LFE62
 2148 0008 00000000 		.4byte	.LFB63
 2149 000c 18000000 		.4byte	.LFE63
 2150 0010 00000000 		.4byte	.LFB64
 2151 0014 6C000000 		.4byte	.LFE64
 2152 0018 00000000 		.4byte	.LFB65
 2153 001c 5E000000 		.4byte	.LFE65
 2154 0020 00000000 		.4byte	.LFB66
 2155 0024 34000000 		.4byte	.LFE66
 2156 0028 00000000 		.4byte	.LFB67
 2157 002c 4E000000 		.4byte	.LFE67
 2158 0030 00000000 		.4byte	.LFB68
 2159 0034 34000000 		.4byte	.LFE68
 2160 0038 00000000 		.4byte	.LFB69
 2161 003c 4E000000 		.4byte	.LFE69
 2162 0040 00000000 		.4byte	.LFB70
 2163 0044 28000000 		.4byte	.LFE70
 2164 0048 00000000 		.4byte	.LFB71
 2165 004c 52000000 		.4byte	.LFE71
 2166 0050 00000000 		.4byte	.LFB72
 2167 0054 40000000 		.4byte	.LFE72
 2168 0058 00000000 		.4byte	0x0
 2169 005c 00000000 		.4byte	0x0
 2170              		.section	.debug_str,"MS",%progbits,1
 2171              	.LASF25:
 2172 0000 43434552 		.ascii	"CCER\000"
 2172      00
 2173              	.LASF36:
 2174 0005 4750545F 		.ascii	"GPT_UNINIT\000"
ARM GAS  C:\Users\z80\AppData\Local\Temp\ccFNaHbp.s 			page 41


 2174      554E494E 
 2174      495400
 2175              	.LASF32:
 2176 0010 444D4152 		.ascii	"DMAR\000"
 2176      00
 2177              	.LASF43:
 2178 0015 73746174 		.ascii	"state\000"
 2178      6500
 2179              	.LASF23:
 2180 001b 43434D52 		.ascii	"CCMR2\000"
 2180      3200
 2181              	.LASF3:
 2182 0021 73686F72 		.ascii	"short int\000"
 2182      7420696E 
 2182      7400
 2183              	.LASF46:
 2184 002b 67707463 		.ascii	"gptcallback_t\000"
 2184      616C6C62 
 2184      61636B5F 
 2184      7400
 2185              	.LASF48:
 2186 0039 67707463 		.ascii	"gptcnt_t\000"
 2186      6E745F74 
 2186      00
 2187              	.LASF62:
 2188 0042 67707453 		.ascii	"gptStopTimerI\000"
 2188      746F7054 
 2188      696D6572 
 2188      4900
 2189              	.LASF44:
 2190 0050 636F6E66 		.ascii	"config\000"
 2190      696700
 2191              	.LASF40:
 2192 0057 4750545F 		.ascii	"GPT_ONESHOT\000"
 2192      4F4E4553 
 2192      484F5400 
 2193              	.LASF13:
 2194 0063 5F726573 		.ascii	"_resvd0\000"
 2194      76643000 
 2195              	.LASF14:
 2196 006b 5F726573 		.ascii	"_resvd1\000"
 2196      76643100 
 2197              	.LASF16:
 2198 0073 5F726573 		.ascii	"_resvd2\000"
 2198      76643200 
 2199              	.LASF18:
 2200 007b 5F726573 		.ascii	"_resvd3\000"
 2200      76643300 
 2201              	.LASF19:
 2202 0083 5F726573 		.ascii	"_resvd4\000"
 2202      76643400 
 2203              	.LASF20:
 2204 008b 5F726573 		.ascii	"_resvd5\000"
 2204      76643500 
 2205              	.LASF22:
 2206 0093 5F726573 		.ascii	"_resvd6\000"
 2206      76643600 
ARM GAS  C:\Users\z80\AppData\Local\Temp\ccFNaHbp.s 			page 42


 2207              	.LASF24:
 2208 009b 5F726573 		.ascii	"_resvd7\000"
 2208      76643700 
 2209              	.LASF26:
 2210 00a3 5F726573 		.ascii	"_resvd8\000"
 2210      76643800 
 2211              	.LASF27:
 2212 00ab 5F726573 		.ascii	"_resvd9\000"
 2212      76643900 
 2213              	.LASF41:
 2214 00b3 67707473 		.ascii	"gptstate_t\000"
 2214      74617465 
 2214      5F7400
 2215              	.LASF10:
 2216 00be 6C6F6E67 		.ascii	"long long int\000"
 2216      206C6F6E 
 2216      6720696E 
 2216      7400
 2217              	.LASF59:
 2218 00cc 67707453 		.ascii	"gptStartOneShot\000"
 2218      74617274 
 2218      4F6E6553 
 2218      686F7400 
 2219              	.LASF58:
 2220 00dc 67707453 		.ascii	"gptStartContinuousI\000"
 2220      74617274 
 2220      436F6E74 
 2220      696E756F 
 2220      75734900 
 2221              	.LASF7:
 2222 00f0 6C6F6E67 		.ascii	"long int\000"
 2222      20696E74 
 2222      00
 2223              	.LASF53:
 2224 00f9 67707453 		.ascii	"gptStart\000"
 2224      74617274 
 2224      00
 2225              	.LASF63:
 2226 0102 67707450 		.ascii	"gptPolledDelay\000"
 2226      6F6C6C65 
 2226      6444656C 
 2226      617900
 2227              	.LASF21:
 2228 0111 43434D52 		.ascii	"CCMR1\000"
 2228      3100
 2229              	.LASF15:
 2230 0117 534D4352 		.ascii	"SMCR\000"
 2230      00
 2231              	.LASF2:
 2232 011c 756E7369 		.ascii	"unsigned char\000"
 2232      676E6564 
 2232      20636861 
 2232      7200
 2233              	.LASF68:
 2234 012a 67707449 		.ascii	"gptInit\000"
 2234      6E697400 
 2235              	.LASF56:
ARM GAS  C:\Users\z80\AppData\Local\Temp\ccFNaHbp.s 			page 43


 2236 0132 67707453 		.ascii	"gptStartContinuous\000"
 2236      74617274 
 2236      436F6E74 
 2236      696E756F 
 2236      757300
 2237              	.LASF1:
 2238 0145 7369676E 		.ascii	"signed char\000"
 2238      65642063 
 2238      68617200 
 2239              	.LASF11:
 2240 0151 6C6F6E67 		.ascii	"long long unsigned int\000"
 2240      206C6F6E 
 2240      6720756E 
 2240      7369676E 
 2240      65642069 
 2241              	.LASF8:
 2242 0168 75696E74 		.ascii	"uint32_t\000"
 2242      33325F74 
 2242      00
 2243              	.LASF0:
 2244 0171 756E7369 		.ascii	"unsigned int\000"
 2244      676E6564 
 2244      20696E74 
 2244      00
 2245              	.LASF5:
 2246 017e 75696E74 		.ascii	"uint16_t\000"
 2246      31365F74 
 2246      00
 2247              	.LASF17:
 2248 0187 44494552 		.ascii	"DIER\000"
 2248      00
 2249              	.LASF30:
 2250 018c 5F726573 		.ascii	"_resvd11\000"
 2250      76643131 
 2250      00
 2251              	.LASF31:
 2252 0195 5F726573 		.ascii	"_resvd12\000"
 2252      76643132 
 2252      00
 2253              	.LASF33:
 2254 019e 5F726573 		.ascii	"_resvd13\000"
 2254      76643133 
 2254      00
 2255              	.LASF34:
 2256 01a7 5F726573 		.ascii	"_resvd14\000"
 2256      76643134 
 2256      00
 2257              	.LASF4:
 2258 01b0 73686F72 		.ascii	"short unsigned int\000"
 2258      7420756E 
 2258      7369676E 
 2258      65642069 
 2258      6E7400
 2259              	.LASF12:
 2260 01c3 63686172 		.ascii	"char\000"
 2260      00
 2261              	.LASF35:
ARM GAS  C:\Users\z80\AppData\Local\Temp\ccFNaHbp.s 			page 44


 2262 01c8 73746D33 		.ascii	"stm32_tim_t\000"
 2262      325F7469 
 2262      6D5F7400 
 2263              	.LASF29:
 2264 01d4 42445452 		.ascii	"BDTR\000"
 2264      00
 2265              	.LASF6:
 2266 01d9 696E7433 		.ascii	"int32_t\000"
 2266      325F7400 
 2267              	.LASF39:
 2268 01e1 4750545F 		.ascii	"GPT_CONTINUOUS\000"
 2268      434F4E54 
 2268      494E554F 
 2268      555300
 2269              	.LASF38:
 2270 01f0 4750545F 		.ascii	"GPT_READY\000"
 2270      52454144 
 2270      5900
 2271              	.LASF42:
 2272 01fa 47505444 		.ascii	"GPTDriver\000"
 2272      72697665 
 2272      7200
 2273              	.LASF9:
 2274 0204 6C6F6E67 		.ascii	"long unsigned int\000"
 2274      20756E73 
 2274      69676E65 
 2274      6420696E 
 2274      7400
 2275              	.LASF45:
 2276 0216 636C6F63 		.ascii	"clock\000"
 2276      6B00
 2277              	.LASF67:
 2278 021c 433A5C70 		.ascii	"C:\\projects\\digitizer.git\\firmware\\digitizer\000"
 2278      726F6A65 
 2278      6374735C 
 2278      64696769 
 2278      74697A65 
 2279              	.LASF57:
 2280 0249 696E7465 		.ascii	"interval\000"
 2280      7276616C 
 2280      00
 2281              	.LASF65:
 2282 0252 474E5520 		.ascii	"GNU C 4.5.0\000"
 2282      4320342E 
 2282      352E3000 
 2283              	.LASF28:
 2284 025e 5F726573 		.ascii	"_resvd10\000"
 2284      76643130 
 2284      00
 2285              	.LASF37:
 2286 0267 4750545F 		.ascii	"GPT_STOP\000"
 2286      53544F50 
 2286      00
 2287              	.LASF54:
 2288 0270 67707470 		.ascii	"gptp\000"
 2288      00
 2289              	.LASF51:
ARM GAS  C:\Users\z80\AppData\Local\Temp\ccFNaHbp.s 			page 45


 2290 0275 47505443 		.ascii	"GPTConfig\000"
 2290      6F6E6669 
 2290      6700
 2291              	.LASF60:
 2292 027f 67707453 		.ascii	"gptStartOneShotI\000"
 2292      74617274 
 2292      4F6E6553 
 2292      686F7449 
 2292      00
 2293              	.LASF61:
 2294 0290 67707453 		.ascii	"gptStopTimer\000"
 2294      746F7054 
 2294      696D6572 
 2294      00
 2295              	.LASF49:
 2296 029d 66726571 		.ascii	"frequency\000"
 2296      75656E63 
 2296      7900
 2297              	.LASF66:
 2298 02a7 2E2E2F63 		.ascii	"../chibios_2.4.x/os/hal/src/gpt.c\000"
 2298      68696269 
 2298      6F735F32 
 2298      2E342E78 
 2298      2F6F732F 
 2299              	.LASF52:
 2300 02c9 6770744F 		.ascii	"gptObjectInit\000"
 2300      626A6563 
 2300      74496E69 
 2300      7400
 2301              	.LASF64:
 2302 02d7 49544D5F 		.ascii	"ITM_RxBuffer\000"
 2302      52784275 
 2302      66666572 
 2302      00
 2303              	.LASF47:
 2304 02e4 67707466 		.ascii	"gptfreq_t\000"
 2304      7265715F 
 2304      7400
 2305              	.LASF55:
 2306 02ee 67707453 		.ascii	"gptStop\000"
 2306      746F7000 
 2307              	.LASF50:
 2308 02f6 63616C6C 		.ascii	"callback\000"
 2308      6261636B 
 2308      00
 2309              		.ident	"GCC: (GNU) 4.5.0"
ARM GAS  C:\Users\z80\AppData\Local\Temp\ccFNaHbp.s 			page 46


DEFINED SYMBOLS
                            *ABS*:00000000 gpt.c
C:\Users\z80\AppData\Local\Temp\ccFNaHbp.s:24     .text.gptInit:00000000 $t
C:\Users\z80\AppData\Local\Temp\ccFNaHbp.s:30     .text.gptInit:00000000 gptInit
C:\Users\z80\AppData\Local\Temp\ccFNaHbp.s:50     .text.gptObjectInit:00000000 $t
C:\Users\z80\AppData\Local\Temp\ccFNaHbp.s:56     .text.gptObjectInit:00000000 gptObjectInit
C:\Users\z80\AppData\Local\Temp\ccFNaHbp.s:82     .rodata:00000000 $d
C:\Users\z80\AppData\Local\Temp\ccFNaHbp.s:83     .rodata:00000000 .LC0
C:\Users\z80\AppData\Local\Temp\ccFNaHbp.s:86     .rodata:0000000c .LC1
C:\Users\z80\AppData\Local\Temp\ccFNaHbp.s:89     .text.gptStart:00000000 $t
C:\Users\z80\AppData\Local\Temp\ccFNaHbp.s:95     .text.gptStart:00000000 gptStart
C:\Users\z80\AppData\Local\Temp\ccFNaHbp.s:176    .rodata:0000001c .LC2
C:\Users\z80\AppData\Local\Temp\ccFNaHbp.s:179    .rodata:00000028 .LC3
C:\Users\z80\AppData\Local\Temp\ccFNaHbp.s:182    .text.gptStop:00000000 $t
C:\Users\z80\AppData\Local\Temp\ccFNaHbp.s:188    .text.gptStop:00000000 gptStop
C:\Users\z80\AppData\Local\Temp\ccFNaHbp.s:258    .text.gptStartContinuous:00000000 $t
C:\Users\z80\AppData\Local\Temp\ccFNaHbp.s:264    .text.gptStartContinuous:00000000 gptStartContinuous
C:\Users\z80\AppData\Local\Temp\ccFNaHbp.s:323    .text.gptStartContinuousI:00000000 gptStartContinuousI
C:\Users\z80\AppData\Local\Temp\ccFNaHbp.s:311    .rodata:00000038 .LC4
C:\Users\z80\AppData\Local\Temp\ccFNaHbp.s:314    .rodata:00000050 .LC5
C:\Users\z80\AppData\Local\Temp\ccFNaHbp.s:317    .text.gptStartContinuousI:00000000 $t
C:\Users\z80\AppData\Local\Temp\ccFNaHbp.s:376    .text.gptStartOneShot:00000000 $t
C:\Users\z80\AppData\Local\Temp\ccFNaHbp.s:382    .text.gptStartOneShot:00000000 gptStartOneShot
C:\Users\z80\AppData\Local\Temp\ccFNaHbp.s:441    .text.gptStartOneShotI:00000000 gptStartOneShotI
C:\Users\z80\AppData\Local\Temp\ccFNaHbp.s:429    .rodata:0000006c .LC6
C:\Users\z80\AppData\Local\Temp\ccFNaHbp.s:432    .rodata:00000084 .LC7
C:\Users\z80\AppData\Local\Temp\ccFNaHbp.s:435    .text.gptStartOneShotI:00000000 $t
C:\Users\z80\AppData\Local\Temp\ccFNaHbp.s:494    .text.gptStopTimer:00000000 $t
C:\Users\z80\AppData\Local\Temp\ccFNaHbp.s:500    .text.gptStopTimer:00000000 gptStopTimer
C:\Users\z80\AppData\Local\Temp\ccFNaHbp.s:555    .text.gptStopTimerI:00000000 gptStopTimerI
C:\Users\z80\AppData\Local\Temp\ccFNaHbp.s:543    .rodata:0000009c .LC8
C:\Users\z80\AppData\Local\Temp\ccFNaHbp.s:546    .rodata:000000b0 .LC9
C:\Users\z80\AppData\Local\Temp\ccFNaHbp.s:549    .text.gptStopTimerI:00000000 $t
C:\Users\z80\AppData\Local\Temp\ccFNaHbp.s:615    .rodata:000000c4 .LC10
C:\Users\z80\AppData\Local\Temp\ccFNaHbp.s:618    .text.gptPolledDelay:00000000 $t
C:\Users\z80\AppData\Local\Temp\ccFNaHbp.s:624    .text.gptPolledDelay:00000000 gptPolledDelay
                     .debug_frame:00000010 $d

UNDEFINED SYMBOLS
gpt_lld_init
chDbgPanic
dbg_check_lock
gpt_lld_start
dbg_check_unlock
gpt_lld_stop
chDbgCheckClassI
gpt_lld_start_timer
gpt_lld_stop_timer
gpt_lld_polled_delay
