ARM GAS  C:\Users\z80\AppData\Local\Temp\ccgwS4gh.s 			page 1


   1              		.syntax unified
   2              		.cpu cortex-m3
   3              		.fpu softvfp
   4              		.eabi_attribute 20, 1
   5              		.eabi_attribute 21, 1
   6              		.eabi_attribute 23, 3
   7              		.eabi_attribute 24, 1
   8              		.eabi_attribute 25, 1
   9              		.eabi_attribute 26, 1
  10              		.eabi_attribute 30, 2
  11              		.eabi_attribute 18, 4
  12              		.thumb
  13              		.file	"gpt.c"
  14              		.section	.debug_abbrev,"",%progbits
  15              	.Ldebug_abbrev0:
  16              		.section	.debug_info,"",%progbits
  17              	.Ldebug_info0:
  18              		.section	.debug_line,"",%progbits
  19              	.Ldebug_line0:
  20 0000 76020000 		.text
  20      02002D01 
  20      00000201 
  20      FB0E0D00 
  20      01010101 
  21              	.Ltext0:
  22              		.cfi_sections	.debug_frame
  23              		.section	.text.gptInit,"ax",%progbits
  24              		.align	2
  25              		.p2align 4,,15
  26              		.global	gptInit
  27              		.thumb
  28              		.thumb_func
  29              		.type	gptInit, %function
  30              	gptInit:
  31              	.LFB62:
  32              		.file 1 "../chibios_2.4.x/os/hal/src/gpt.c"
  33              		.loc 1 68 0
  34              		.cfi_startproc
  35              		@ args = 0, pretend = 0, frame = 0
  36              		@ frame_needed = 0, uses_anonymous_args = 0
  37 0000 08B5     		push	{r3, lr}
  38              	.LCFI0:
  39              		.cfi_def_cfa_offset 8
  40              		.loc 1 70 0
  41              		.cfi_offset 14, -4
  42              		.cfi_offset 3, -8
  43 0002 FFF7FEFF 		bl	gpt_lld_init
  44              		.loc 1 71 0
  45 0006 08BD     		pop	{r3, pc}
  46              		.cfi_endproc
  47              	.LFE62:
  48              		.size	gptInit, .-gptInit
  49 0008 AFF30080 		.section	.text.gptObjectInit,"ax",%progbits
  49      AFF30080 
  50              		.align	2
  51              		.p2align 4,,15
  52              		.global	gptObjectInit
ARM GAS  C:\Users\z80\AppData\Local\Temp\ccgwS4gh.s 			page 2


  53              		.thumb
  54              		.thumb_func
  55              		.type	gptObjectInit, %function
  56              	gptObjectInit:
  57              	.LFB63:
  58              		.loc 1 80 0
  59              		.cfi_startproc
  60              		@ args = 0, pretend = 0, frame = 0
  61              		@ frame_needed = 0, uses_anonymous_args = 0
  62              		@ link register save eliminated.
  63              	.LVL0:
  64              		.loc 1 82 0
  65 0000 0123     		movs	r3, #1
  66 0002 0370     		strb	r3, [r0, #0]
  67              		.loc 1 83 0
  68 0004 0023     		movs	r3, #0
  69 0006 4360     		str	r3, [r0, #4]
  70              		.loc 1 84 0
  71 0008 7047     		bx	lr
  72              		.cfi_endproc
  73              	.LFE63:
  74              		.size	gptObjectInit, .-gptObjectInit
  75 000a 00BFAFF3 		.section	.text.gptStart,"ax",%progbits
  75      0080
  76              		.align	2
  77              		.p2align 4,,15
  78              		.global	gptStart
  79              		.thumb
  80              		.thumb_func
  81              		.type	gptStart, %function
  82              	gptStart:
  83              	.LFB64:
  84              		.loc 1 94 0
  85              		.cfi_startproc
  86              		@ args = 0, pretend = 0, frame = 0
  87              		@ frame_needed = 0, uses_anonymous_args = 0
  88              	.LVL1:
  89 0000 38B5     		push	{r3, r4, r5, lr}
  90              	.LCFI1:
  91              		.cfi_def_cfa_offset 16
  92              		.loc 1 96 0
  93 0002 D0F10103 		rsbs	r3, r0, #1
  94 0006 38BF     		it	cc
  95 0008 0023     		movcc	r3, #0
  96              		.cfi_offset 14, -4
  97              		.cfi_offset 5, -8
  98              		.cfi_offset 4, -12
  99              		.cfi_offset 3, -16
 100 000a 0029     		cmp	r1, #0
 101 000c 08BF     		it	eq
 102 000e 43F00103 		orreq	r3, r3, #1
 103              		.loc 1 94 0
 104 0012 0446     		mov	r4, r0
 105 0014 0D46     		mov	r5, r1
 106              		.loc 1 96 0
 107 0016 C3B9     		cbnz	r3, .L7
 108              	.LVL2:
ARM GAS  C:\Users\z80\AppData\Local\Temp\ccgwS4gh.s 			page 3


 109              	.L4:
 110              	.LBB2:
 111              		.loc 1 98 0
 112 0018 2023     		movs	r3, #32
 113              	.LVL3:
 114              	@ 98 "../chibios_2.4.x/os/hal/src/gpt.c" 1
 115 001a 83F31188 		msr     BASEPRI, r3
 116              	@ 0 "" 2
 117              	.LVL4:
 118              		.thumb
 119              	.LBE2:
 120 001e FFF7FEFF 		bl	dbg_check_lock
 121              	.LVL5:
 122              		.loc 1 99 0
 123 0022 2378     		ldrb	r3, [r4, #0]	@ zero_extendqisi2
 124 0024 013B     		subs	r3, r3, #1
 125 0026 DBB2     		uxtb	r3, r3
 126 0028 012B     		cmp	r3, #1
 127 002a 02D9     		bls	.L5
 128              		.loc 1 99 0 is_stmt 0 discriminator 1
 129 002c 0948     		ldr	r0, .L8
 130 002e FFF7FEFF 		bl	chDbgPanic
 131              	.L5:
 132              		.loc 1 102 0 is_stmt 1
 133 0032 2046     		mov	r0, r4
 134              		.loc 1 101 0
 135 0034 6560     		str	r5, [r4, #4]
 136              		.loc 1 102 0
 137 0036 FFF7FEFF 		bl	gpt_lld_start
 138              		.loc 1 103 0
 139 003a 0223     		movs	r3, #2
 140 003c 2370     		strb	r3, [r4, #0]
 141              		.loc 1 104 0
 142 003e FFF7FEFF 		bl	dbg_check_unlock
 143              	.LBB3:
 144 0042 0023     		movs	r3, #0
 145              	.LVL6:
 146              	@ 104 "../chibios_2.4.x/os/hal/src/gpt.c" 1
 147 0044 83F31188 		msr     BASEPRI, r3
 148              	@ 0 "" 2
 149              	.LVL7:
 150              		.thumb
 151              	.LBE3:
 152              		.loc 1 105 0
 153 0048 38BD     		pop	{r3, r4, r5, pc}
 154              	.LVL8:
 155              	.L7:
 156              		.loc 1 96 0 discriminator 1
 157 004a 0348     		ldr	r0, .L8+4
 158 004c FFF7FEFF 		bl	chDbgPanic
 159 0050 E2E7     		b	.L4
 160              	.L9:
 161 0052 00BF     		.align	2
 162              	.L8:
 163 0054 0C000000 		.word	.LC1
 164 0058 00000000 		.word	.LC0
 165              		.cfi_endproc
ARM GAS  C:\Users\z80\AppData\Local\Temp\ccgwS4gh.s 			page 4


 166              	.LFE64:
 167              		.size	gptStart, .-gptStart
 168 005c AFF30080 		.section	.text.gptStop,"ax",%progbits
 169              		.align	2
 170              		.p2align 4,,15
 171              		.global	gptStop
 172              		.thumb
 173              		.thumb_func
 174              		.type	gptStop, %function
 175              	gptStop:
 176              	.LFB65:
 177              		.loc 1 114 0
 178              		.cfi_startproc
 179              		@ args = 0, pretend = 0, frame = 0
 180              		@ frame_needed = 0, uses_anonymous_args = 0
 181              	.LVL9:
 182 0000 10B5     		push	{r4, lr}
 183              	.LCFI2:
 184              		.cfi_def_cfa_offset 8
 185              		.loc 1 114 0
 186 0002 0446     		mov	r4, r0
 187              		.cfi_offset 14, -4
 188              		.cfi_offset 4, -8
 189              		.loc 1 116 0
 190 0004 B8B1     		cbz	r0, .L13
 191              	.LVL10:
 192              	.L11:
 193              	.LBB4:
 194              		.loc 1 118 0
 195 0006 2023     		movs	r3, #32
 196              	.LVL11:
 197              	@ 118 "../chibios_2.4.x/os/hal/src/gpt.c" 1
 198 0008 83F31188 		msr     BASEPRI, r3
 199              	@ 0 "" 2
 200              	.LVL12:
 201              		.thumb
 202              	.LBE4:
 203 000c FFF7FEFF 		bl	dbg_check_lock
 204              	.LVL13:
 205              		.loc 1 119 0
 206 0010 2378     		ldrb	r3, [r4, #0]	@ zero_extendqisi2
 207 0012 013B     		subs	r3, r3, #1
 208 0014 DBB2     		uxtb	r3, r3
 209 0016 012B     		cmp	r3, #1
 210 0018 02D9     		bls	.L12
 211              		.loc 1 119 0 is_stmt 0 discriminator 1
 212 001a 0948     		ldr	r0, .L14
 213 001c FFF7FEFF 		bl	chDbgPanic
 214              	.L12:
 215              		.loc 1 121 0 is_stmt 1
 216 0020 2046     		mov	r0, r4
 217 0022 FFF7FEFF 		bl	gpt_lld_stop
 218              		.loc 1 122 0
 219 0026 0123     		movs	r3, #1
 220 0028 2370     		strb	r3, [r4, #0]
 221              		.loc 1 123 0
 222 002a FFF7FEFF 		bl	dbg_check_unlock
ARM GAS  C:\Users\z80\AppData\Local\Temp\ccgwS4gh.s 			page 5


 223              	.LBB5:
 224 002e 0023     		movs	r3, #0
 225              	.LVL14:
 226              	@ 123 "../chibios_2.4.x/os/hal/src/gpt.c" 1
 227 0030 83F31188 		msr     BASEPRI, r3
 228              	@ 0 "" 2
 229              	.LVL15:
 230              		.thumb
 231              	.LBE5:
 232              		.loc 1 124 0
 233 0034 10BD     		pop	{r4, pc}
 234              	.LVL16:
 235              	.L13:
 236              		.loc 1 116 0 discriminator 1
 237 0036 0348     		ldr	r0, .L14+4
 238 0038 FFF7FEFF 		bl	chDbgPanic
 239 003c E3E7     		b	.L11
 240              	.L15:
 241 003e 00BF     		.align	2
 242              	.L14:
 243 0040 28000000 		.word	.LC3
 244 0044 1C000000 		.word	.LC2
 245              		.cfi_endproc
 246              	.LFE65:
 247              		.size	gptStop, .-gptStop
 248 0048 AFF30080 		.section	.text.gptStartContinuousI,"ax",%progbits
 248      AFF30080 
 249              		.align	2
 250              		.p2align 4,,15
 251              		.global	gptStartContinuousI
 252              		.thumb
 253              		.thumb_func
 254              		.type	gptStartContinuousI, %function
 255              	gptStartContinuousI:
 256              	.LFB67:
 257              		.loc 1 149 0
 258              		.cfi_startproc
 259              		@ args = 0, pretend = 0, frame = 0
 260              		@ frame_needed = 0, uses_anonymous_args = 0
 261              	.LVL17:
 262 0000 38B5     		push	{r3, r4, r5, lr}
 263              	.LCFI3:
 264              		.cfi_def_cfa_offset 16
 265              		.loc 1 149 0
 266 0002 0446     		mov	r4, r0
 267              		.cfi_offset 14, -4
 268              		.cfi_offset 5, -8
 269              		.cfi_offset 4, -12
 270              		.cfi_offset 3, -16
 271 0004 0D46     		mov	r5, r1
 272              		.loc 1 151 0
 273 0006 FFF7FEFF 		bl	chDbgCheckClassI
 274              	.LVL18:
 275              		.loc 1 152 0
 276 000a 64B1     		cbz	r4, .L19
 277              	.L17:
 278              		.loc 1 153 0
ARM GAS  C:\Users\z80\AppData\Local\Temp\ccgwS4gh.s 			page 6


 279 000c 2378     		ldrb	r3, [r4, #0]	@ zero_extendqisi2
 280 000e 022B     		cmp	r3, #2
 281 0010 02D0     		beq	.L18
 282              		.loc 1 153 0 is_stmt 0 discriminator 1
 283 0012 0748     		ldr	r0, .L20
 284 0014 FFF7FEFF 		bl	chDbgPanic
 285              	.L18:
 286              		.loc 1 156 0 is_stmt 1
 287 0018 0323     		movs	r3, #3
 288 001a 2370     		strb	r3, [r4, #0]
 289              		.loc 1 157 0
 290 001c 2046     		mov	r0, r4
 291 001e 2946     		mov	r1, r5
 292 0020 FFF7FEFF 		bl	gpt_lld_start_timer
 293              		.loc 1 158 0
 294 0024 38BD     		pop	{r3, r4, r5, pc}
 295              	.L19:
 296              		.loc 1 152 0 discriminator 1
 297 0026 0348     		ldr	r0, .L20+4
 298 0028 FFF7FEFF 		bl	chDbgPanic
 299 002c EEE7     		b	.L17
 300              	.L21:
 301 002e 00BF     		.align	2
 302              	.L20:
 303 0030 50000000 		.word	.LC5
 304 0034 38000000 		.word	.LC4
 305              		.cfi_endproc
 306              	.LFE67:
 307              		.size	gptStartContinuousI, .-gptStartContinuousI
 308 0038 AFF30080 		.section	.text.gptStartContinuous,"ax",%progbits
 308      AFF30080 
 309              		.align	2
 310              		.p2align 4,,15
 311              		.global	gptStartContinuous
 312              		.thumb
 313              		.thumb_func
 314              		.type	gptStartContinuous, %function
 315              	gptStartContinuous:
 316              	.LFB66:
 317              		.loc 1 134 0
 318              		.cfi_startproc
 319              		@ args = 0, pretend = 0, frame = 0
 320              		@ frame_needed = 0, uses_anonymous_args = 0
 321              	.LVL19:
 322 0000 38B5     		push	{r3, r4, r5, lr}
 323              	.LCFI4:
 324              		.cfi_def_cfa_offset 16
 325              		.loc 1 134 0
 326 0002 0546     		mov	r5, r0
 327              		.cfi_offset 14, -4
 328              		.cfi_offset 5, -8
 329              		.cfi_offset 4, -12
 330              		.cfi_offset 3, -16
 331 0004 0C46     		mov	r4, r1
 332              	.LBB6:
 333              		.loc 1 136 0
 334 0006 2023     		movs	r3, #32
ARM GAS  C:\Users\z80\AppData\Local\Temp\ccgwS4gh.s 			page 7


 335              	.LVL20:
 336              	@ 136 "../chibios_2.4.x/os/hal/src/gpt.c" 1
 337 0008 83F31188 		msr     BASEPRI, r3
 338              	@ 0 "" 2
 339              	.LVL21:
 340              		.thumb
 341              	.LBE6:
 342 000c FFF7FEFF 		bl	dbg_check_lock
 343              	.LVL22:
 344              		.loc 1 137 0
 345 0010 2846     		mov	r0, r5
 346 0012 2146     		mov	r1, r4
 347 0014 FFF7FEFF 		bl	gptStartContinuousI
 348              		.loc 1 138 0
 349 0018 FFF7FEFF 		bl	dbg_check_unlock
 350              	.LBB7:
 351 001c 0023     		movs	r3, #0
 352              	.LVL23:
 353              	@ 138 "../chibios_2.4.x/os/hal/src/gpt.c" 1
 354 001e 83F31188 		msr     BASEPRI, r3
 355              	@ 0 "" 2
 356              	.LVL24:
 357              		.thumb
 358              	.LBE7:
 359              		.loc 1 139 0
 360 0022 38BD     		pop	{r3, r4, r5, pc}
 361              		.cfi_endproc
 362              	.LFE66:
 363              		.size	gptStartContinuous, .-gptStartContinuous
 364 0024 AFF30080 		.section	.text.gptStartOneShotI,"ax",%progbits
 364      AFF30080 
 364      AFF30080 
 365              		.align	2
 366              		.p2align 4,,15
 367              		.global	gptStartOneShotI
 368              		.thumb
 369              		.thumb_func
 370              		.type	gptStartOneShotI, %function
 371              	gptStartOneShotI:
 372              	.LFB69:
 373              		.loc 1 183 0
 374              		.cfi_startproc
 375              		@ args = 0, pretend = 0, frame = 0
 376              		@ frame_needed = 0, uses_anonymous_args = 0
 377              	.LVL25:
 378 0000 38B5     		push	{r3, r4, r5, lr}
 379              	.LCFI5:
 380              		.cfi_def_cfa_offset 16
 381              		.loc 1 183 0
 382 0002 0446     		mov	r4, r0
 383              		.cfi_offset 14, -4
 384              		.cfi_offset 5, -8
 385              		.cfi_offset 4, -12
 386              		.cfi_offset 3, -16
 387 0004 0D46     		mov	r5, r1
 388              		.loc 1 185 0
 389 0006 FFF7FEFF 		bl	chDbgCheckClassI
ARM GAS  C:\Users\z80\AppData\Local\Temp\ccgwS4gh.s 			page 8


 390              	.LVL26:
 391              		.loc 1 186 0
 392 000a 64B1     		cbz	r4, .L26
 393              	.L24:
 394              		.loc 1 187 0
 395 000c 2378     		ldrb	r3, [r4, #0]	@ zero_extendqisi2
 396 000e 022B     		cmp	r3, #2
 397 0010 02D0     		beq	.L25
 398              		.loc 1 187 0 is_stmt 0 discriminator 1
 399 0012 0748     		ldr	r0, .L27
 400 0014 FFF7FEFF 		bl	chDbgPanic
 401              	.L25:
 402              		.loc 1 190 0 is_stmt 1
 403 0018 0423     		movs	r3, #4
 404 001a 2370     		strb	r3, [r4, #0]
 405              		.loc 1 191 0
 406 001c 2046     		mov	r0, r4
 407 001e 2946     		mov	r1, r5
 408 0020 FFF7FEFF 		bl	gpt_lld_start_timer
 409              		.loc 1 192 0
 410 0024 38BD     		pop	{r3, r4, r5, pc}
 411              	.L26:
 412              		.loc 1 186 0 discriminator 1
 413 0026 0348     		ldr	r0, .L27+4
 414 0028 FFF7FEFF 		bl	chDbgPanic
 415 002c EEE7     		b	.L24
 416              	.L28:
 417 002e 00BF     		.align	2
 418              	.L27:
 419 0030 84000000 		.word	.LC7
 420 0034 6C000000 		.word	.LC6
 421              		.cfi_endproc
 422              	.LFE69:
 423              		.size	gptStartOneShotI, .-gptStartOneShotI
 424 0038 AFF30080 		.section	.text.gptStartOneShot,"ax",%progbits
 424      AFF30080 
 425              		.align	2
 426              		.p2align 4,,15
 427              		.global	gptStartOneShot
 428              		.thumb
 429              		.thumb_func
 430              		.type	gptStartOneShot, %function
 431              	gptStartOneShot:
 432              	.LFB68:
 433              		.loc 1 168 0
 434              		.cfi_startproc
 435              		@ args = 0, pretend = 0, frame = 0
 436              		@ frame_needed = 0, uses_anonymous_args = 0
 437              	.LVL27:
 438 0000 38B5     		push	{r3, r4, r5, lr}
 439              	.LCFI6:
 440              		.cfi_def_cfa_offset 16
 441              		.loc 1 168 0
 442 0002 0546     		mov	r5, r0
 443              		.cfi_offset 14, -4
 444              		.cfi_offset 5, -8
 445              		.cfi_offset 4, -12
ARM GAS  C:\Users\z80\AppData\Local\Temp\ccgwS4gh.s 			page 9


 446              		.cfi_offset 3, -16
 447 0004 0C46     		mov	r4, r1
 448              	.LBB8:
 449              		.loc 1 170 0
 450 0006 2023     		movs	r3, #32
 451              	.LVL28:
 452              	@ 170 "../chibios_2.4.x/os/hal/src/gpt.c" 1
 453 0008 83F31188 		msr     BASEPRI, r3
 454              	@ 0 "" 2
 455              	.LVL29:
 456              		.thumb
 457              	.LBE8:
 458 000c FFF7FEFF 		bl	dbg_check_lock
 459              	.LVL30:
 460              		.loc 1 171 0
 461 0010 2846     		mov	r0, r5
 462 0012 2146     		mov	r1, r4
 463 0014 FFF7FEFF 		bl	gptStartOneShotI
 464              		.loc 1 172 0
 465 0018 FFF7FEFF 		bl	dbg_check_unlock
 466              	.LBB9:
 467 001c 0023     		movs	r3, #0
 468              	.LVL31:
 469              	@ 172 "../chibios_2.4.x/os/hal/src/gpt.c" 1
 470 001e 83F31188 		msr     BASEPRI, r3
 471              	@ 0 "" 2
 472              	.LVL32:
 473              		.thumb
 474              	.LBE9:
 475              		.loc 1 173 0
 476 0022 38BD     		pop	{r3, r4, r5, pc}
 477              		.cfi_endproc
 478              	.LFE68:
 479              		.size	gptStartOneShot, .-gptStartOneShot
 480 0024 AFF30080 		.section	.text.gptStopTimerI,"ax",%progbits
 480      AFF30080 
 480      AFF30080 
 481              		.align	2
 482              		.p2align 4,,15
 483              		.global	gptStopTimerI
 484              		.thumb
 485              		.thumb_func
 486              		.type	gptStopTimerI, %function
 487              	gptStopTimerI:
 488              	.LFB71:
 489              		.loc 1 215 0
 490              		.cfi_startproc
 491              		@ args = 0, pretend = 0, frame = 0
 492              		@ frame_needed = 0, uses_anonymous_args = 0
 493              	.LVL33:
 494 0000 10B5     		push	{r4, lr}
 495              	.LCFI7:
 496              		.cfi_def_cfa_offset 8
 497              		.loc 1 215 0
 498 0002 0446     		mov	r4, r0
 499              		.cfi_offset 14, -4
 500              		.cfi_offset 4, -8
ARM GAS  C:\Users\z80\AppData\Local\Temp\ccgwS4gh.s 			page 10


 501              		.loc 1 217 0
 502 0004 FFF7FEFF 		bl	chDbgCheckClassI
 503              	.LVL34:
 504              		.loc 1 218 0
 505 0008 6CB1     		cbz	r4, .L33
 506              	.L31:
 507              		.loc 1 219 0
 508 000a 2378     		ldrb	r3, [r4, #0]	@ zero_extendqisi2
 509 000c 023B     		subs	r3, r3, #2
 510 000e DBB2     		uxtb	r3, r3
 511 0010 022B     		cmp	r3, #2
 512 0012 02D9     		bls	.L32
 513              		.loc 1 219 0 is_stmt 0 discriminator 1
 514 0014 0648     		ldr	r0, .L34
 515 0016 FFF7FEFF 		bl	chDbgPanic
 516              	.L32:
 517              		.loc 1 223 0 is_stmt 1
 518 001a 0223     		movs	r3, #2
 519 001c 2370     		strb	r3, [r4, #0]
 520              		.loc 1 224 0
 521 001e 2046     		mov	r0, r4
 522 0020 FFF7FEFF 		bl	gpt_lld_stop_timer
 523              		.loc 1 225 0
 524 0024 10BD     		pop	{r4, pc}
 525              	.L33:
 526              		.loc 1 218 0 discriminator 1
 527 0026 0348     		ldr	r0, .L34+4
 528 0028 FFF7FEFF 		bl	chDbgPanic
 529 002c EDE7     		b	.L31
 530              	.L35:
 531 002e 00BF     		.align	2
 532              	.L34:
 533 0030 B0000000 		.word	.LC9
 534 0034 9C000000 		.word	.LC8
 535              		.cfi_endproc
 536              	.LFE71:
 537              		.size	gptStopTimerI, .-gptStopTimerI
 538 0038 AFF30080 		.section	.text.gptStopTimer,"ax",%progbits
 538      AFF30080 
 539              		.align	2
 540              		.p2align 4,,15
 541              		.global	gptStopTimer
 542              		.thumb
 543              		.thumb_func
 544              		.type	gptStopTimer, %function
 545              	gptStopTimer:
 546              	.LFB70:
 547              		.loc 1 201 0
 548              		.cfi_startproc
 549              		@ args = 0, pretend = 0, frame = 0
 550              		@ frame_needed = 0, uses_anonymous_args = 0
 551              	.LVL35:
 552 0000 10B5     		push	{r4, lr}
 553              	.LCFI8:
 554              		.cfi_def_cfa_offset 8
 555              	.LBB10:
 556              		.loc 1 203 0
ARM GAS  C:\Users\z80\AppData\Local\Temp\ccgwS4gh.s 			page 11


 557 0002 2023     		movs	r3, #32
 558              	.LVL36:
 559              	.LBE10:
 560              		.loc 1 201 0
 561 0004 0446     		mov	r4, r0
 562              		.cfi_offset 14, -4
 563              		.cfi_offset 4, -8
 564              	.LBB11:
 565              		.loc 1 203 0
 566              	@ 203 "../chibios_2.4.x/os/hal/src/gpt.c" 1
 567 0006 83F31188 		msr     BASEPRI, r3
 568              	@ 0 "" 2
 569              	.LVL37:
 570              		.thumb
 571              	.LBE11:
 572 000a FFF7FEFF 		bl	dbg_check_lock
 573              	.LVL38:
 574              		.loc 1 204 0
 575 000e 2046     		mov	r0, r4
 576 0010 FFF7FEFF 		bl	gptStopTimerI
 577              		.loc 1 205 0
 578 0014 FFF7FEFF 		bl	dbg_check_unlock
 579              	.LBB12:
 580 0018 0023     		movs	r3, #0
 581              	.LVL39:
 582              	@ 205 "../chibios_2.4.x/os/hal/src/gpt.c" 1
 583 001a 83F31188 		msr     BASEPRI, r3
 584              	@ 0 "" 2
 585              	.LVL40:
 586              		.thumb
 587              	.LBE12:
 588              		.loc 1 206 0
 589 001e 10BD     		pop	{r4, pc}
 590              		.cfi_endproc
 591              	.LFE70:
 592              		.size	gptStopTimer, .-gptStopTimer
 593              		.section	.text.gptPolledDelay,"ax",%progbits
 594              		.align	2
 595              		.p2align 4,,15
 596              		.global	gptPolledDelay
 597              		.thumb
 598              		.thumb_func
 599              		.type	gptPolledDelay, %function
 600              	gptPolledDelay:
 601              	.LFB72:
 602              		.loc 1 239 0
 603              		.cfi_startproc
 604              		@ args = 0, pretend = 0, frame = 0
 605              		@ frame_needed = 0, uses_anonymous_args = 0
 606              	.LVL41:
 607 0000 38B5     		push	{r3, r4, r5, lr}
 608              	.LCFI9:
 609              		.cfi_def_cfa_offset 16
 610              		.loc 1 241 0
 611 0002 0378     		ldrb	r3, [r0, #0]	@ zero_extendqisi2
 612              		.cfi_offset 14, -4
 613              		.cfi_offset 5, -8
ARM GAS  C:\Users\z80\AppData\Local\Temp\ccgwS4gh.s 			page 12


 614              		.cfi_offset 4, -12
 615              		.cfi_offset 3, -16
 616              		.loc 1 239 0
 617 0004 0446     		mov	r4, r0
 618              		.loc 1 241 0
 619 0006 022B     		cmp	r3, #2
 620              		.loc 1 239 0
 621 0008 0D46     		mov	r5, r1
 622              		.loc 1 241 0
 623 000a 02D0     		beq	.L38
 624              		.loc 1 241 0 is_stmt 0 discriminator 1
 625 000c 0548     		ldr	r0, .L39
 626              	.LVL42:
 627 000e FFF7FEFF 		bl	chDbgPanic
 628              	.LVL43:
 629              	.L38:
 630              		.loc 1 244 0 is_stmt 1
 631 0012 0423     		movs	r3, #4
 632 0014 2370     		strb	r3, [r4, #0]
 633              		.loc 1 245 0
 634 0016 2046     		mov	r0, r4
 635 0018 2946     		mov	r1, r5
 636 001a FFF7FEFF 		bl	gpt_lld_polled_delay
 637              		.loc 1 246 0
 638 001e 0223     		movs	r3, #2
 639 0020 2370     		strb	r3, [r4, #0]
 640              		.loc 1 247 0
 641 0022 38BD     		pop	{r3, r4, r5, pc}
 642              	.L40:
 643              		.align	2
 644              	.L39:
 645 0024 C4000000 		.word	.LC10
 646              		.cfi_endproc
 647              	.LFE72:
 648              		.size	gptPolledDelay, .-gptPolledDelay
 649 0028 AFF30080 		.section	.rodata.str1.4,"aMS",%progbits,1
 649      AFF30080 
 650              		.align	2
 651              	.LC0:
 652 0000 22707453 		.ascii	"\"ptStart\"()\000"
 652      74617274 
 652      22282900 
 653              	.LC1:
 654 000c 67707453 		.ascii	"gptStart(), #1\000"
 654      74617274 
 654      28292C20 
 654      233100
 655 001b 00       		.space	1
 656              	.LC2:
 657 001c 22677074 		.ascii	"\"gptStop\"()\000"
 657      53746F70 
 657      22282900 
 658              	.LC3:
 659 0028 67707453 		.ascii	"gptStop(), #1\000"
 659      746F7028 
 659      292C2023 
 659      3100
ARM GAS  C:\Users\z80\AppData\Local\Temp\ccgwS4gh.s 			page 13


 660 0036 0000     		.space	2
 661              	.LC4:
 662 0038 22677074 		.ascii	"\"gptStartContinuousI\"()\000"
 662      53746172 
 662      74436F6E 
 662      74696E75 
 662      6F757349 
 663              	.LC5:
 664 0050 67707453 		.ascii	"gptStartContinuousI(), #1\000"
 664      74617274 
 664      436F6E74 
 664      696E756F 
 664      75734928 
 665 006a 0000     		.space	2
 666              	.LC6:
 667 006c 22677074 		.ascii	"\"gptStartOneShotI\"()\000"
 667      53746172 
 667      744F6E65 
 667      53686F74 
 667      49222829 
 668 0081 000000   		.space	3
 669              	.LC7:
 670 0084 67707453 		.ascii	"gptStartOneShotI(), #1\000"
 670      74617274 
 670      4F6E6553 
 670      686F7449 
 670      28292C20 
 671 009b 00       		.space	1
 672              	.LC8:
 673 009c 22677074 		.ascii	"\"gptStopTimerI\"()\000"
 673      53746F70 
 673      54696D65 
 673      72492228 
 673      2900
 674 00ae 0000     		.space	2
 675              	.LC9:
 676 00b0 67707453 		.ascii	"gptStopTimerI(), #1\000"
 676      746F7054 
 676      696D6572 
 676      4928292C 
 676      20233100 
 677              	.LC10:
 678 00c4 67707450 		.ascii	"gptPolledDelay(), #1\000"
 678      6F6C6C65 
 678      6444656C 
 678      61792829 
 678      2C202331 
 679 00d9 000000   		.text
 680              	.Letext0:
 681              		.section	.debug_loc,"",%progbits
 682              	.Ldebug_loc0:
 683              	.LLST0:
 684 0000 00000000 		.4byte	.LFB62
 685 0004 02000000 		.4byte	.LCFI0
 686 0008 0200     		.2byte	0x2
 687 000a 7D       		.byte	0x7d
 688 000b 00       		.sleb128 0
ARM GAS  C:\Users\z80\AppData\Local\Temp\ccgwS4gh.s 			page 14


 689 000c 02000000 		.4byte	.LCFI0
 690 0010 08000000 		.4byte	.LFE62
 691 0014 0200     		.2byte	0x2
 692 0016 7D       		.byte	0x7d
 693 0017 08       		.sleb128 8
 694 0018 00000000 		.4byte	0x0
 695 001c 00000000 		.4byte	0x0
 696              	.LLST1:
 697 0020 00000000 		.4byte	.LFB64
 698 0024 02000000 		.4byte	.LCFI1
 699 0028 0200     		.2byte	0x2
 700 002a 7D       		.byte	0x7d
 701 002b 00       		.sleb128 0
 702 002c 02000000 		.4byte	.LCFI1
 703 0030 5C000000 		.4byte	.LFE64
 704 0034 0200     		.2byte	0x2
 705 0036 7D       		.byte	0x7d
 706 0037 10       		.sleb128 16
 707 0038 00000000 		.4byte	0x0
 708 003c 00000000 		.4byte	0x0
 709              	.LLST2:
 710 0040 00000000 		.4byte	.LVL1
 711 0044 18000000 		.4byte	.LVL2
 712 0048 0100     		.2byte	0x1
 713 004a 50       		.byte	0x50
 714 004b 18000000 		.4byte	.LVL2
 715 004f 5C000000 		.4byte	.LFE64
 716 0053 0100     		.2byte	0x1
 717 0055 54       		.byte	0x54
 718 0056 00000000 		.4byte	0x0
 719 005a 00000000 		.4byte	0x0
 720              	.LLST3:
 721 005e 00000000 		.4byte	.LVL1
 722 0062 18000000 		.4byte	.LVL2
 723 0066 0100     		.2byte	0x1
 724 0068 51       		.byte	0x51
 725 0069 18000000 		.4byte	.LVL2
 726 006d 5C000000 		.4byte	.LFE64
 727 0071 0100     		.2byte	0x1
 728 0073 55       		.byte	0x55
 729 0074 00000000 		.4byte	0x0
 730 0078 00000000 		.4byte	0x0
 731              	.LLST4:
 732 007c 1E000000 		.4byte	.LVL4
 733 0080 21000000 		.4byte	.LVL5-1
 734 0084 0100     		.2byte	0x1
 735 0086 53       		.byte	0x53
 736 0087 00000000 		.4byte	0x0
 737 008b 00000000 		.4byte	0x0
 738              	.LLST5:
 739 008f 48000000 		.4byte	.LVL7
 740 0093 4A000000 		.4byte	.LVL8
 741 0097 0100     		.2byte	0x1
 742 0099 53       		.byte	0x53
 743 009a 00000000 		.4byte	0x0
 744 009e 00000000 		.4byte	0x0
 745              	.LLST6:
ARM GAS  C:\Users\z80\AppData\Local\Temp\ccgwS4gh.s 			page 15


 746 00a2 00000000 		.4byte	.LFB65
 747 00a6 02000000 		.4byte	.LCFI2
 748 00aa 0200     		.2byte	0x2
 749 00ac 7D       		.byte	0x7d
 750 00ad 00       		.sleb128 0
 751 00ae 02000000 		.4byte	.LCFI2
 752 00b2 48000000 		.4byte	.LFE65
 753 00b6 0200     		.2byte	0x2
 754 00b8 7D       		.byte	0x7d
 755 00b9 08       		.sleb128 8
 756 00ba 00000000 		.4byte	0x0
 757 00be 00000000 		.4byte	0x0
 758              	.LLST7:
 759 00c2 00000000 		.4byte	.LVL9
 760 00c6 06000000 		.4byte	.LVL10
 761 00ca 0100     		.2byte	0x1
 762 00cc 50       		.byte	0x50
 763 00cd 06000000 		.4byte	.LVL10
 764 00d1 48000000 		.4byte	.LFE65
 765 00d5 0100     		.2byte	0x1
 766 00d7 54       		.byte	0x54
 767 00d8 00000000 		.4byte	0x0
 768 00dc 00000000 		.4byte	0x0
 769              	.LLST8:
 770 00e0 0C000000 		.4byte	.LVL12
 771 00e4 0F000000 		.4byte	.LVL13-1
 772 00e8 0100     		.2byte	0x1
 773 00ea 53       		.byte	0x53
 774 00eb 00000000 		.4byte	0x0
 775 00ef 00000000 		.4byte	0x0
 776              	.LLST9:
 777 00f3 34000000 		.4byte	.LVL15
 778 00f7 36000000 		.4byte	.LVL16
 779 00fb 0100     		.2byte	0x1
 780 00fd 53       		.byte	0x53
 781 00fe 00000000 		.4byte	0x0
 782 0102 00000000 		.4byte	0x0
 783              	.LLST10:
 784 0106 00000000 		.4byte	.LFB67
 785 010a 02000000 		.4byte	.LCFI3
 786 010e 0200     		.2byte	0x2
 787 0110 7D       		.byte	0x7d
 788 0111 00       		.sleb128 0
 789 0112 02000000 		.4byte	.LCFI3
 790 0116 38000000 		.4byte	.LFE67
 791 011a 0200     		.2byte	0x2
 792 011c 7D       		.byte	0x7d
 793 011d 10       		.sleb128 16
 794 011e 00000000 		.4byte	0x0
 795 0122 00000000 		.4byte	0x0
 796              	.LLST11:
 797 0126 00000000 		.4byte	.LVL17
 798 012a 09000000 		.4byte	.LVL18-1
 799 012e 0100     		.2byte	0x1
 800 0130 50       		.byte	0x50
 801 0131 09000000 		.4byte	.LVL18-1
 802 0135 38000000 		.4byte	.LFE67
ARM GAS  C:\Users\z80\AppData\Local\Temp\ccgwS4gh.s 			page 16


 803 0139 0100     		.2byte	0x1
 804 013b 54       		.byte	0x54
 805 013c 00000000 		.4byte	0x0
 806 0140 00000000 		.4byte	0x0
 807              	.LLST12:
 808 0144 00000000 		.4byte	.LVL17
 809 0148 09000000 		.4byte	.LVL18-1
 810 014c 0100     		.2byte	0x1
 811 014e 51       		.byte	0x51
 812 014f 00000000 		.4byte	0x0
 813 0153 00000000 		.4byte	0x0
 814              	.LLST13:
 815 0157 00000000 		.4byte	.LFB66
 816 015b 02000000 		.4byte	.LCFI4
 817 015f 0200     		.2byte	0x2
 818 0161 7D       		.byte	0x7d
 819 0162 00       		.sleb128 0
 820 0163 02000000 		.4byte	.LCFI4
 821 0167 24000000 		.4byte	.LFE66
 822 016b 0200     		.2byte	0x2
 823 016d 7D       		.byte	0x7d
 824 016e 10       		.sleb128 16
 825 016f 00000000 		.4byte	0x0
 826 0173 00000000 		.4byte	0x0
 827              	.LLST14:
 828 0177 00000000 		.4byte	.LVL19
 829 017b 0F000000 		.4byte	.LVL22-1
 830 017f 0100     		.2byte	0x1
 831 0181 50       		.byte	0x50
 832 0182 0F000000 		.4byte	.LVL22-1
 833 0186 24000000 		.4byte	.LFE66
 834 018a 0100     		.2byte	0x1
 835 018c 55       		.byte	0x55
 836 018d 00000000 		.4byte	0x0
 837 0191 00000000 		.4byte	0x0
 838              	.LLST15:
 839 0195 00000000 		.4byte	.LVL19
 840 0199 0F000000 		.4byte	.LVL22-1
 841 019d 0100     		.2byte	0x1
 842 019f 51       		.byte	0x51
 843 01a0 00000000 		.4byte	0x0
 844 01a4 00000000 		.4byte	0x0
 845              	.LLST16:
 846 01a8 0C000000 		.4byte	.LVL21
 847 01ac 0F000000 		.4byte	.LVL22-1
 848 01b0 0100     		.2byte	0x1
 849 01b2 53       		.byte	0x53
 850 01b3 00000000 		.4byte	0x0
 851 01b7 00000000 		.4byte	0x0
 852              	.LLST17:
 853 01bb 22000000 		.4byte	.LVL24
 854 01bf 24000000 		.4byte	.LFE66
 855 01c3 0100     		.2byte	0x1
 856 01c5 53       		.byte	0x53
 857 01c6 00000000 		.4byte	0x0
 858 01ca 00000000 		.4byte	0x0
 859              	.LLST18:
ARM GAS  C:\Users\z80\AppData\Local\Temp\ccgwS4gh.s 			page 17


 860 01ce 00000000 		.4byte	.LFB69
 861 01d2 02000000 		.4byte	.LCFI5
 862 01d6 0200     		.2byte	0x2
 863 01d8 7D       		.byte	0x7d
 864 01d9 00       		.sleb128 0
 865 01da 02000000 		.4byte	.LCFI5
 866 01de 38000000 		.4byte	.LFE69
 867 01e2 0200     		.2byte	0x2
 868 01e4 7D       		.byte	0x7d
 869 01e5 10       		.sleb128 16
 870 01e6 00000000 		.4byte	0x0
 871 01ea 00000000 		.4byte	0x0
 872              	.LLST19:
 873 01ee 00000000 		.4byte	.LVL25
 874 01f2 09000000 		.4byte	.LVL26-1
 875 01f6 0100     		.2byte	0x1
 876 01f8 50       		.byte	0x50
 877 01f9 09000000 		.4byte	.LVL26-1
 878 01fd 38000000 		.4byte	.LFE69
 879 0201 0100     		.2byte	0x1
 880 0203 54       		.byte	0x54
 881 0204 00000000 		.4byte	0x0
 882 0208 00000000 		.4byte	0x0
 883              	.LLST20:
 884 020c 00000000 		.4byte	.LVL25
 885 0210 09000000 		.4byte	.LVL26-1
 886 0214 0100     		.2byte	0x1
 887 0216 51       		.byte	0x51
 888 0217 00000000 		.4byte	0x0
 889 021b 00000000 		.4byte	0x0
 890              	.LLST21:
 891 021f 00000000 		.4byte	.LFB68
 892 0223 02000000 		.4byte	.LCFI6
 893 0227 0200     		.2byte	0x2
 894 0229 7D       		.byte	0x7d
 895 022a 00       		.sleb128 0
 896 022b 02000000 		.4byte	.LCFI6
 897 022f 24000000 		.4byte	.LFE68
 898 0233 0200     		.2byte	0x2
 899 0235 7D       		.byte	0x7d
 900 0236 10       		.sleb128 16
 901 0237 00000000 		.4byte	0x0
 902 023b 00000000 		.4byte	0x0
 903              	.LLST22:
 904 023f 00000000 		.4byte	.LVL27
 905 0243 0F000000 		.4byte	.LVL30-1
 906 0247 0100     		.2byte	0x1
 907 0249 50       		.byte	0x50
 908 024a 0F000000 		.4byte	.LVL30-1
 909 024e 24000000 		.4byte	.LFE68
 910 0252 0100     		.2byte	0x1
 911 0254 55       		.byte	0x55
 912 0255 00000000 		.4byte	0x0
 913 0259 00000000 		.4byte	0x0
 914              	.LLST23:
 915 025d 00000000 		.4byte	.LVL27
 916 0261 0F000000 		.4byte	.LVL30-1
ARM GAS  C:\Users\z80\AppData\Local\Temp\ccgwS4gh.s 			page 18


 917 0265 0100     		.2byte	0x1
 918 0267 51       		.byte	0x51
 919 0268 00000000 		.4byte	0x0
 920 026c 00000000 		.4byte	0x0
 921              	.LLST24:
 922 0270 0C000000 		.4byte	.LVL29
 923 0274 0F000000 		.4byte	.LVL30-1
 924 0278 0100     		.2byte	0x1
 925 027a 53       		.byte	0x53
 926 027b 00000000 		.4byte	0x0
 927 027f 00000000 		.4byte	0x0
 928              	.LLST25:
 929 0283 22000000 		.4byte	.LVL32
 930 0287 24000000 		.4byte	.LFE68
 931 028b 0100     		.2byte	0x1
 932 028d 53       		.byte	0x53
 933 028e 00000000 		.4byte	0x0
 934 0292 00000000 		.4byte	0x0
 935              	.LLST26:
 936 0296 00000000 		.4byte	.LFB71
 937 029a 02000000 		.4byte	.LCFI7
 938 029e 0200     		.2byte	0x2
 939 02a0 7D       		.byte	0x7d
 940 02a1 00       		.sleb128 0
 941 02a2 02000000 		.4byte	.LCFI7
 942 02a6 38000000 		.4byte	.LFE71
 943 02aa 0200     		.2byte	0x2
 944 02ac 7D       		.byte	0x7d
 945 02ad 08       		.sleb128 8
 946 02ae 00000000 		.4byte	0x0
 947 02b2 00000000 		.4byte	0x0
 948              	.LLST27:
 949 02b6 00000000 		.4byte	.LVL33
 950 02ba 07000000 		.4byte	.LVL34-1
 951 02be 0100     		.2byte	0x1
 952 02c0 50       		.byte	0x50
 953 02c1 07000000 		.4byte	.LVL34-1
 954 02c5 38000000 		.4byte	.LFE71
 955 02c9 0100     		.2byte	0x1
 956 02cb 54       		.byte	0x54
 957 02cc 00000000 		.4byte	0x0
 958 02d0 00000000 		.4byte	0x0
 959              	.LLST28:
 960 02d4 00000000 		.4byte	.LFB70
 961 02d8 02000000 		.4byte	.LCFI8
 962 02dc 0200     		.2byte	0x2
 963 02de 7D       		.byte	0x7d
 964 02df 00       		.sleb128 0
 965 02e0 02000000 		.4byte	.LCFI8
 966 02e4 20000000 		.4byte	.LFE70
 967 02e8 0200     		.2byte	0x2
 968 02ea 7D       		.byte	0x7d
 969 02eb 08       		.sleb128 8
 970 02ec 00000000 		.4byte	0x0
 971 02f0 00000000 		.4byte	0x0
 972              	.LLST29:
 973 02f4 00000000 		.4byte	.LVL35
ARM GAS  C:\Users\z80\AppData\Local\Temp\ccgwS4gh.s 			page 19


 974 02f8 0D000000 		.4byte	.LVL38-1
 975 02fc 0100     		.2byte	0x1
 976 02fe 50       		.byte	0x50
 977 02ff 0D000000 		.4byte	.LVL38-1
 978 0303 20000000 		.4byte	.LFE70
 979 0307 0100     		.2byte	0x1
 980 0309 54       		.byte	0x54
 981 030a 00000000 		.4byte	0x0
 982 030e 00000000 		.4byte	0x0
 983              	.LLST30:
 984 0312 0A000000 		.4byte	.LVL37
 985 0316 0D000000 		.4byte	.LVL38-1
 986 031a 0100     		.2byte	0x1
 987 031c 53       		.byte	0x53
 988 031d 00000000 		.4byte	0x0
 989 0321 00000000 		.4byte	0x0
 990              	.LLST31:
 991 0325 1E000000 		.4byte	.LVL40
 992 0329 20000000 		.4byte	.LFE70
 993 032d 0100     		.2byte	0x1
 994 032f 53       		.byte	0x53
 995 0330 00000000 		.4byte	0x0
 996 0334 00000000 		.4byte	0x0
 997              	.LLST32:
 998 0338 00000000 		.4byte	.LFB72
 999 033c 02000000 		.4byte	.LCFI9
 1000 0340 0200     		.2byte	0x2
 1001 0342 7D       		.byte	0x7d
 1002 0343 00       		.sleb128 0
 1003 0344 02000000 		.4byte	.LCFI9
 1004 0348 28000000 		.4byte	.LFE72
 1005 034c 0200     		.2byte	0x2
 1006 034e 7D       		.byte	0x7d
 1007 034f 10       		.sleb128 16
 1008 0350 00000000 		.4byte	0x0
 1009 0354 00000000 		.4byte	0x0
 1010              	.LLST33:
 1011 0358 00000000 		.4byte	.LVL41
 1012 035c 0E000000 		.4byte	.LVL42
 1013 0360 0100     		.2byte	0x1
 1014 0362 50       		.byte	0x50
 1015 0363 0E000000 		.4byte	.LVL42
 1016 0367 28000000 		.4byte	.LFE72
 1017 036b 0100     		.2byte	0x1
 1018 036d 54       		.byte	0x54
 1019 036e 00000000 		.4byte	0x0
 1020 0372 00000000 		.4byte	0x0
 1021              	.LLST34:
 1022 0376 00000000 		.4byte	.LVL41
 1023 037a 11000000 		.4byte	.LVL43-1
 1024 037e 0100     		.2byte	0x1
 1025 0380 51       		.byte	0x51
 1026 0381 00000000 		.4byte	0x0
 1027 0385 00000000 		.4byte	0x0
 1028              		.file 2 "c:/programs/yagarto/lib/gcc/../../arm-none-eabi/sys-include/stdint.h"
 1029              		.file 3 "../chibios_2.4.x/os/hal/platforms/STM32/stm32.h"
 1030              		.file 4 "../chibios_2.4.x/os/hal/include/gpt.h"
ARM GAS  C:\Users\z80\AppData\Local\Temp\ccgwS4gh.s 			page 20


 1031              		.file 5 "../chibios_2.4.x/os/hal/platforms/STM32/gpt_lld.h"
 1032              		.file 6 "../chibios_2.4.x/os/ports/common/ARMCMx/CMSIS/include/core_cm3.h"
 1033              		.section	.debug_info
 1034 0000 C3060000 		.4byte	0x6c3
 1035 0004 0200     		.2byte	0x2
 1036 0006 00000000 		.4byte	.Ldebug_abbrev0
 1037 000a 04       		.byte	0x4
 1038 000b 01       		.uleb128 0x1
 1039 000c 52020000 		.4byte	.LASF65
 1040 0010 01       		.byte	0x1
 1041 0011 A7020000 		.4byte	.LASF66
 1042 0015 1C020000 		.4byte	.LASF67
 1043 0019 00000000 		.4byte	0x0
 1044 001d 00000000 		.4byte	0x0
 1045 0021 18000000 		.4byte	.Ldebug_ranges0+0x18
 1046 0025 00000000 		.4byte	.Ldebug_line0
 1047 0029 02       		.uleb128 0x2
 1048 002a 04       		.byte	0x4
 1049 002b 05       		.byte	0x5
 1050 002c 696E7400 		.ascii	"int\000"
 1051 0030 03       		.uleb128 0x3
 1052 0031 04       		.byte	0x4
 1053 0032 07       		.byte	0x7
 1054 0033 71010000 		.4byte	.LASF0
 1055 0037 03       		.uleb128 0x3
 1056 0038 01       		.byte	0x1
 1057 0039 06       		.byte	0x6
 1058 003a 45010000 		.4byte	.LASF1
 1059 003e 03       		.uleb128 0x3
 1060 003f 01       		.byte	0x1
 1061 0040 08       		.byte	0x8
 1062 0041 1C010000 		.4byte	.LASF2
 1063 0045 03       		.uleb128 0x3
 1064 0046 02       		.byte	0x2
 1065 0047 05       		.byte	0x5
 1066 0048 21000000 		.4byte	.LASF3
 1067 004c 04       		.uleb128 0x4
 1068 004d 7E010000 		.4byte	.LASF5
 1069 0051 02       		.byte	0x2
 1070 0052 36       		.byte	0x36
 1071 0053 57000000 		.4byte	0x57
 1072 0057 03       		.uleb128 0x3
 1073 0058 02       		.byte	0x2
 1074 0059 07       		.byte	0x7
 1075 005a B0010000 		.4byte	.LASF4
 1076 005e 04       		.uleb128 0x4
 1077 005f D9010000 		.4byte	.LASF6
 1078 0063 02       		.byte	0x2
 1079 0064 4F       		.byte	0x4f
 1080 0065 69000000 		.4byte	0x69
 1081 0069 03       		.uleb128 0x3
 1082 006a 04       		.byte	0x4
 1083 006b 05       		.byte	0x5
 1084 006c F0000000 		.4byte	.LASF7
 1085 0070 04       		.uleb128 0x4
 1086 0071 68010000 		.4byte	.LASF8
 1087 0075 02       		.byte	0x2
ARM GAS  C:\Users\z80\AppData\Local\Temp\ccgwS4gh.s 			page 21


 1088 0076 50       		.byte	0x50
 1089 0077 7B000000 		.4byte	0x7b
 1090 007b 03       		.uleb128 0x3
 1091 007c 04       		.byte	0x4
 1092 007d 07       		.byte	0x7
 1093 007e 04020000 		.4byte	.LASF9
 1094 0082 03       		.uleb128 0x3
 1095 0083 08       		.byte	0x8
 1096 0084 05       		.byte	0x5
 1097 0085 BE000000 		.4byte	.LASF10
 1098 0089 03       		.uleb128 0x3
 1099 008a 08       		.byte	0x8
 1100 008b 07       		.byte	0x7
 1101 008c 51010000 		.4byte	.LASF11
 1102 0090 05       		.uleb128 0x5
 1103 0091 70000000 		.4byte	0x70
 1104 0095 06       		.uleb128 0x6
 1105 0096 04       		.byte	0x4
 1106 0097 07       		.byte	0x7
 1107 0098 03       		.uleb128 0x3
 1108 0099 01       		.byte	0x1
 1109 009a 08       		.byte	0x8
 1110 009b C3010000 		.4byte	.LASF12
 1111 009f 07       		.uleb128 0x7
 1112 00a0 70000000 		.4byte	0x70
 1113 00a4 AF000000 		.4byte	0xaf
 1114 00a8 08       		.uleb128 0x8
 1115 00a9 95000000 		.4byte	0x95
 1116 00ad 03       		.byte	0x3
 1117 00ae 00       		.byte	0x0
 1118 00af 05       		.uleb128 0x5
 1119 00b0 4C000000 		.4byte	0x4c
 1120 00b4 05       		.uleb128 0x5
 1121 00b5 5E000000 		.4byte	0x5e
 1122 00b9 09       		.uleb128 0x9
 1123 00ba 54       		.byte	0x54
 1124 00bb 03       		.byte	0x3
 1125 00bc 72       		.byte	0x72
 1126 00bd 8E020000 		.4byte	0x28e
 1127 00c1 0A       		.uleb128 0xa
 1128 00c2 43523100 		.ascii	"CR1\000"
 1129 00c6 03       		.byte	0x3
 1130 00c7 73       		.byte	0x73
 1131 00c8 AF000000 		.4byte	0xaf
 1132 00cc 02       		.byte	0x2
 1133 00cd 23       		.byte	0x23
 1134 00ce 00       		.uleb128 0x0
 1135 00cf 0B       		.uleb128 0xb
 1136 00d0 63000000 		.4byte	.LASF13
 1137 00d4 03       		.byte	0x3
 1138 00d5 74       		.byte	0x74
 1139 00d6 4C000000 		.4byte	0x4c
 1140 00da 02       		.byte	0x2
 1141 00db 23       		.byte	0x23
 1142 00dc 02       		.uleb128 0x2
 1143 00dd 0A       		.uleb128 0xa
 1144 00de 43523200 		.ascii	"CR2\000"
ARM GAS  C:\Users\z80\AppData\Local\Temp\ccgwS4gh.s 			page 22


 1145 00e2 03       		.byte	0x3
 1146 00e3 75       		.byte	0x75
 1147 00e4 AF000000 		.4byte	0xaf
 1148 00e8 02       		.byte	0x2
 1149 00e9 23       		.byte	0x23
 1150 00ea 04       		.uleb128 0x4
 1151 00eb 0B       		.uleb128 0xb
 1152 00ec 6B000000 		.4byte	.LASF14
 1153 00f0 03       		.byte	0x3
 1154 00f1 76       		.byte	0x76
 1155 00f2 4C000000 		.4byte	0x4c
 1156 00f6 02       		.byte	0x2
 1157 00f7 23       		.byte	0x23
 1158 00f8 06       		.uleb128 0x6
 1159 00f9 0B       		.uleb128 0xb
 1160 00fa 17010000 		.4byte	.LASF15
 1161 00fe 03       		.byte	0x3
 1162 00ff 77       		.byte	0x77
 1163 0100 AF000000 		.4byte	0xaf
 1164 0104 02       		.byte	0x2
 1165 0105 23       		.byte	0x23
 1166 0106 08       		.uleb128 0x8
 1167 0107 0B       		.uleb128 0xb
 1168 0108 73000000 		.4byte	.LASF16
 1169 010c 03       		.byte	0x3
 1170 010d 78       		.byte	0x78
 1171 010e 4C000000 		.4byte	0x4c
 1172 0112 02       		.byte	0x2
 1173 0113 23       		.byte	0x23
 1174 0114 0A       		.uleb128 0xa
 1175 0115 0B       		.uleb128 0xb
 1176 0116 87010000 		.4byte	.LASF17
 1177 011a 03       		.byte	0x3
 1178 011b 79       		.byte	0x79
 1179 011c AF000000 		.4byte	0xaf
 1180 0120 02       		.byte	0x2
 1181 0121 23       		.byte	0x23
 1182 0122 0C       		.uleb128 0xc
 1183 0123 0B       		.uleb128 0xb
 1184 0124 7B000000 		.4byte	.LASF18
 1185 0128 03       		.byte	0x3
 1186 0129 7A       		.byte	0x7a
 1187 012a 4C000000 		.4byte	0x4c
 1188 012e 02       		.byte	0x2
 1189 012f 23       		.byte	0x23
 1190 0130 0E       		.uleb128 0xe
 1191 0131 0A       		.uleb128 0xa
 1192 0132 535200   		.ascii	"SR\000"
 1193 0135 03       		.byte	0x3
 1194 0136 7B       		.byte	0x7b
 1195 0137 AF000000 		.4byte	0xaf
 1196 013b 02       		.byte	0x2
 1197 013c 23       		.byte	0x23
 1198 013d 10       		.uleb128 0x10
 1199 013e 0B       		.uleb128 0xb
 1200 013f 83000000 		.4byte	.LASF19
 1201 0143 03       		.byte	0x3
ARM GAS  C:\Users\z80\AppData\Local\Temp\ccgwS4gh.s 			page 23


 1202 0144 7C       		.byte	0x7c
 1203 0145 4C000000 		.4byte	0x4c
 1204 0149 02       		.byte	0x2
 1205 014a 23       		.byte	0x23
 1206 014b 12       		.uleb128 0x12
 1207 014c 0A       		.uleb128 0xa
 1208 014d 45475200 		.ascii	"EGR\000"
 1209 0151 03       		.byte	0x3
 1210 0152 7D       		.byte	0x7d
 1211 0153 AF000000 		.4byte	0xaf
 1212 0157 02       		.byte	0x2
 1213 0158 23       		.byte	0x23
 1214 0159 14       		.uleb128 0x14
 1215 015a 0B       		.uleb128 0xb
 1216 015b 8B000000 		.4byte	.LASF20
 1217 015f 03       		.byte	0x3
 1218 0160 7E       		.byte	0x7e
 1219 0161 4C000000 		.4byte	0x4c
 1220 0165 02       		.byte	0x2
 1221 0166 23       		.byte	0x23
 1222 0167 16       		.uleb128 0x16
 1223 0168 0B       		.uleb128 0xb
 1224 0169 11010000 		.4byte	.LASF21
 1225 016d 03       		.byte	0x3
 1226 016e 7F       		.byte	0x7f
 1227 016f AF000000 		.4byte	0xaf
 1228 0173 02       		.byte	0x2
 1229 0174 23       		.byte	0x23
 1230 0175 18       		.uleb128 0x18
 1231 0176 0B       		.uleb128 0xb
 1232 0177 93000000 		.4byte	.LASF22
 1233 017b 03       		.byte	0x3
 1234 017c 80       		.byte	0x80
 1235 017d 4C000000 		.4byte	0x4c
 1236 0181 02       		.byte	0x2
 1237 0182 23       		.byte	0x23
 1238 0183 1A       		.uleb128 0x1a
 1239 0184 0B       		.uleb128 0xb
 1240 0185 1B000000 		.4byte	.LASF23
 1241 0189 03       		.byte	0x3
 1242 018a 81       		.byte	0x81
 1243 018b AF000000 		.4byte	0xaf
 1244 018f 02       		.byte	0x2
 1245 0190 23       		.byte	0x23
 1246 0191 1C       		.uleb128 0x1c
 1247 0192 0B       		.uleb128 0xb
 1248 0193 9B000000 		.4byte	.LASF24
 1249 0197 03       		.byte	0x3
 1250 0198 82       		.byte	0x82
 1251 0199 4C000000 		.4byte	0x4c
 1252 019d 02       		.byte	0x2
 1253 019e 23       		.byte	0x23
 1254 019f 1E       		.uleb128 0x1e
 1255 01a0 0B       		.uleb128 0xb
 1256 01a1 00000000 		.4byte	.LASF25
 1257 01a5 03       		.byte	0x3
 1258 01a6 83       		.byte	0x83
ARM GAS  C:\Users\z80\AppData\Local\Temp\ccgwS4gh.s 			page 24


 1259 01a7 AF000000 		.4byte	0xaf
 1260 01ab 02       		.byte	0x2
 1261 01ac 23       		.byte	0x23
 1262 01ad 20       		.uleb128 0x20
 1263 01ae 0B       		.uleb128 0xb
 1264 01af A3000000 		.4byte	.LASF26
 1265 01b3 03       		.byte	0x3
 1266 01b4 84       		.byte	0x84
 1267 01b5 4C000000 		.4byte	0x4c
 1268 01b9 02       		.byte	0x2
 1269 01ba 23       		.byte	0x23
 1270 01bb 22       		.uleb128 0x22
 1271 01bc 0A       		.uleb128 0xa
 1272 01bd 434E5400 		.ascii	"CNT\000"
 1273 01c1 03       		.byte	0x3
 1274 01c2 85       		.byte	0x85
 1275 01c3 90000000 		.4byte	0x90
 1276 01c7 02       		.byte	0x2
 1277 01c8 23       		.byte	0x23
 1278 01c9 24       		.uleb128 0x24
 1279 01ca 0A       		.uleb128 0xa
 1280 01cb 50534300 		.ascii	"PSC\000"
 1281 01cf 03       		.byte	0x3
 1282 01d0 86       		.byte	0x86
 1283 01d1 AF000000 		.4byte	0xaf
 1284 01d5 02       		.byte	0x2
 1285 01d6 23       		.byte	0x23
 1286 01d7 28       		.uleb128 0x28
 1287 01d8 0B       		.uleb128 0xb
 1288 01d9 AB000000 		.4byte	.LASF27
 1289 01dd 03       		.byte	0x3
 1290 01de 87       		.byte	0x87
 1291 01df 4C000000 		.4byte	0x4c
 1292 01e3 02       		.byte	0x2
 1293 01e4 23       		.byte	0x23
 1294 01e5 2A       		.uleb128 0x2a
 1295 01e6 0A       		.uleb128 0xa
 1296 01e7 41525200 		.ascii	"ARR\000"
 1297 01eb 03       		.byte	0x3
 1298 01ec 88       		.byte	0x88
 1299 01ed 90000000 		.4byte	0x90
 1300 01f1 02       		.byte	0x2
 1301 01f2 23       		.byte	0x23
 1302 01f3 2C       		.uleb128 0x2c
 1303 01f4 0A       		.uleb128 0xa
 1304 01f5 52435200 		.ascii	"RCR\000"
 1305 01f9 03       		.byte	0x3
 1306 01fa 89       		.byte	0x89
 1307 01fb AF000000 		.4byte	0xaf
 1308 01ff 02       		.byte	0x2
 1309 0200 23       		.byte	0x23
 1310 0201 30       		.uleb128 0x30
 1311 0202 0B       		.uleb128 0xb
 1312 0203 5E020000 		.4byte	.LASF28
 1313 0207 03       		.byte	0x3
 1314 0208 8A       		.byte	0x8a
 1315 0209 4C000000 		.4byte	0x4c
ARM GAS  C:\Users\z80\AppData\Local\Temp\ccgwS4gh.s 			page 25


 1316 020d 02       		.byte	0x2
 1317 020e 23       		.byte	0x23
 1318 020f 32       		.uleb128 0x32
 1319 0210 0A       		.uleb128 0xa
 1320 0211 43435200 		.ascii	"CCR\000"
 1321 0215 03       		.byte	0x3
 1322 0216 8B       		.byte	0x8b
 1323 0217 8E020000 		.4byte	0x28e
 1324 021b 02       		.byte	0x2
 1325 021c 23       		.byte	0x23
 1326 021d 34       		.uleb128 0x34
 1327 021e 0B       		.uleb128 0xb
 1328 021f D4010000 		.4byte	.LASF29
 1329 0223 03       		.byte	0x3
 1330 0224 8C       		.byte	0x8c
 1331 0225 AF000000 		.4byte	0xaf
 1332 0229 02       		.byte	0x2
 1333 022a 23       		.byte	0x23
 1334 022b 44       		.uleb128 0x44
 1335 022c 0B       		.uleb128 0xb
 1336 022d 8C010000 		.4byte	.LASF30
 1337 0231 03       		.byte	0x3
 1338 0232 8D       		.byte	0x8d
 1339 0233 4C000000 		.4byte	0x4c
 1340 0237 02       		.byte	0x2
 1341 0238 23       		.byte	0x23
 1342 0239 46       		.uleb128 0x46
 1343 023a 0A       		.uleb128 0xa
 1344 023b 44435200 		.ascii	"DCR\000"
 1345 023f 03       		.byte	0x3
 1346 0240 8E       		.byte	0x8e
 1347 0241 AF000000 		.4byte	0xaf
 1348 0245 02       		.byte	0x2
 1349 0246 23       		.byte	0x23
 1350 0247 48       		.uleb128 0x48
 1351 0248 0B       		.uleb128 0xb
 1352 0249 95010000 		.4byte	.LASF31
 1353 024d 03       		.byte	0x3
 1354 024e 8F       		.byte	0x8f
 1355 024f 4C000000 		.4byte	0x4c
 1356 0253 02       		.byte	0x2
 1357 0254 23       		.byte	0x23
 1358 0255 4A       		.uleb128 0x4a
 1359 0256 0B       		.uleb128 0xb
 1360 0257 10000000 		.4byte	.LASF32
 1361 025b 03       		.byte	0x3
 1362 025c 90       		.byte	0x90
 1363 025d AF000000 		.4byte	0xaf
 1364 0261 02       		.byte	0x2
 1365 0262 23       		.byte	0x23
 1366 0263 4C       		.uleb128 0x4c
 1367 0264 0B       		.uleb128 0xb
 1368 0265 9E010000 		.4byte	.LASF33
 1369 0269 03       		.byte	0x3
 1370 026a 91       		.byte	0x91
 1371 026b 4C000000 		.4byte	0x4c
 1372 026f 02       		.byte	0x2
ARM GAS  C:\Users\z80\AppData\Local\Temp\ccgwS4gh.s 			page 26


 1373 0270 23       		.byte	0x23
 1374 0271 4E       		.uleb128 0x4e
 1375 0272 0A       		.uleb128 0xa
 1376 0273 4F5200   		.ascii	"OR\000"
 1377 0276 03       		.byte	0x3
 1378 0277 92       		.byte	0x92
 1379 0278 AF000000 		.4byte	0xaf
 1380 027c 02       		.byte	0x2
 1381 027d 23       		.byte	0x23
 1382 027e 50       		.uleb128 0x50
 1383 027f 0B       		.uleb128 0xb
 1384 0280 A7010000 		.4byte	.LASF34
 1385 0284 03       		.byte	0x3
 1386 0285 93       		.byte	0x93
 1387 0286 4C000000 		.4byte	0x4c
 1388 028a 02       		.byte	0x2
 1389 028b 23       		.byte	0x23
 1390 028c 52       		.uleb128 0x52
 1391 028d 00       		.byte	0x0
 1392 028e 05       		.uleb128 0x5
 1393 028f 9F000000 		.4byte	0x9f
 1394 0293 04       		.uleb128 0x4
 1395 0294 C8010000 		.4byte	.LASF35
 1396 0298 03       		.byte	0x3
 1397 0299 94       		.byte	0x94
 1398 029a B9000000 		.4byte	0xb9
 1399 029e 0C       		.uleb128 0xc
 1400 029f 01       		.byte	0x1
 1401 02a0 04       		.byte	0x4
 1402 02a1 3C       		.byte	0x3c
 1403 02a2 C5020000 		.4byte	0x2c5
 1404 02a6 0D       		.uleb128 0xd
 1405 02a7 05000000 		.4byte	.LASF36
 1406 02ab 00       		.sleb128 0
 1407 02ac 0D       		.uleb128 0xd
 1408 02ad 67020000 		.4byte	.LASF37
 1409 02b1 01       		.sleb128 1
 1410 02b2 0D       		.uleb128 0xd
 1411 02b3 F0010000 		.4byte	.LASF38
 1412 02b7 02       		.sleb128 2
 1413 02b8 0D       		.uleb128 0xd
 1414 02b9 E1010000 		.4byte	.LASF39
 1415 02bd 03       		.sleb128 3
 1416 02be 0D       		.uleb128 0xd
 1417 02bf 57000000 		.4byte	.LASF40
 1418 02c3 04       		.sleb128 4
 1419 02c4 00       		.byte	0x0
 1420 02c5 04       		.uleb128 0x4
 1421 02c6 B3000000 		.4byte	.LASF41
 1422 02ca 04       		.byte	0x4
 1423 02cb 42       		.byte	0x42
 1424 02cc 9E020000 		.4byte	0x29e
 1425 02d0 04       		.uleb128 0x4
 1426 02d1 FA010000 		.4byte	.LASF42
 1427 02d5 04       		.byte	0x4
 1428 02d6 47       		.byte	0x47
 1429 02d7 DB020000 		.4byte	0x2db
ARM GAS  C:\Users\z80\AppData\Local\Temp\ccgwS4gh.s 			page 27


 1430 02db 0E       		.uleb128 0xe
 1431 02dc FA010000 		.4byte	.LASF42
 1432 02e0 10       		.byte	0x10
 1433 02e1 05       		.byte	0x5
 1434 02e2 DC       		.byte	0xdc
 1435 02e3 20030000 		.4byte	0x320
 1436 02e7 0B       		.uleb128 0xb
 1437 02e8 15000000 		.4byte	.LASF43
 1438 02ec 05       		.byte	0x5
 1439 02ed E0       		.byte	0xe0
 1440 02ee C5020000 		.4byte	0x2c5
 1441 02f2 02       		.byte	0x2
 1442 02f3 23       		.byte	0x23
 1443 02f4 00       		.uleb128 0x0
 1444 02f5 0B       		.uleb128 0xb
 1445 02f6 50000000 		.4byte	.LASF44
 1446 02fa 05       		.byte	0x5
 1447 02fb E4       		.byte	0xe4
 1448 02fc 89030000 		.4byte	0x389
 1449 0300 02       		.byte	0x2
 1450 0301 23       		.byte	0x23
 1451 0302 04       		.uleb128 0x4
 1452 0303 0B       		.uleb128 0xb
 1453 0304 16020000 		.4byte	.LASF45
 1454 0308 05       		.byte	0x5
 1455 0309 EC       		.byte	0xec
 1456 030a 70000000 		.4byte	0x70
 1457 030e 02       		.byte	0x2
 1458 030f 23       		.byte	0x23
 1459 0310 08       		.uleb128 0x8
 1460 0311 0A       		.uleb128 0xa
 1461 0312 74696D00 		.ascii	"tim\000"
 1462 0316 05       		.byte	0x5
 1463 0317 F0       		.byte	0xf0
 1464 0318 94030000 		.4byte	0x394
 1465 031c 02       		.byte	0x2
 1466 031d 23       		.byte	0x23
 1467 031e 0C       		.uleb128 0xc
 1468 031f 00       		.byte	0x0
 1469 0320 04       		.uleb128 0x4
 1470 0321 2B000000 		.4byte	.LASF46
 1471 0325 04       		.byte	0x4
 1472 0326 4E       		.byte	0x4e
 1473 0327 2B030000 		.4byte	0x32b
 1474 032b 0F       		.uleb128 0xf
 1475 032c 04       		.byte	0x4
 1476 032d 31030000 		.4byte	0x331
 1477 0331 10       		.uleb128 0x10
 1478 0332 01       		.byte	0x1
 1479 0333 3D030000 		.4byte	0x33d
 1480 0337 11       		.uleb128 0x11
 1481 0338 3D030000 		.4byte	0x33d
 1482 033c 00       		.byte	0x0
 1483 033d 0F       		.uleb128 0xf
 1484 033e 04       		.byte	0x4
 1485 033f D0020000 		.4byte	0x2d0
 1486 0343 04       		.uleb128 0x4
ARM GAS  C:\Users\z80\AppData\Local\Temp\ccgwS4gh.s 			page 28


 1487 0344 E4020000 		.4byte	.LASF47
 1488 0348 05       		.byte	0x5
 1489 0349 BF       		.byte	0xbf
 1490 034a 70000000 		.4byte	0x70
 1491 034e 04       		.uleb128 0x4
 1492 034f 39000000 		.4byte	.LASF48
 1493 0353 05       		.byte	0x5
 1494 0354 C4       		.byte	0xc4
 1495 0355 4C000000 		.4byte	0x4c
 1496 0359 09       		.uleb128 0x9
 1497 035a 08       		.byte	0x8
 1498 035b 05       		.byte	0x5
 1499 035c CA       		.byte	0xca
 1500 035d 7E030000 		.4byte	0x37e
 1501 0361 0B       		.uleb128 0xb
 1502 0362 9D020000 		.4byte	.LASF49
 1503 0366 05       		.byte	0x5
 1504 0367 D0       		.byte	0xd0
 1505 0368 43030000 		.4byte	0x343
 1506 036c 02       		.byte	0x2
 1507 036d 23       		.byte	0x23
 1508 036e 00       		.uleb128 0x0
 1509 036f 0B       		.uleb128 0xb
 1510 0370 F6020000 		.4byte	.LASF50
 1511 0374 05       		.byte	0x5
 1512 0375 D5       		.byte	0xd5
 1513 0376 20030000 		.4byte	0x320
 1514 037a 02       		.byte	0x2
 1515 037b 23       		.byte	0x23
 1516 037c 04       		.uleb128 0x4
 1517 037d 00       		.byte	0x0
 1518 037e 04       		.uleb128 0x4
 1519 037f 75020000 		.4byte	.LASF51
 1520 0383 05       		.byte	0x5
 1521 0384 D7       		.byte	0xd7
 1522 0385 59030000 		.4byte	0x359
 1523 0389 0F       		.uleb128 0xf
 1524 038a 04       		.byte	0x4
 1525 038b 8F030000 		.4byte	0x38f
 1526 038f 12       		.uleb128 0x12
 1527 0390 7E030000 		.4byte	0x37e
 1528 0394 0F       		.uleb128 0xf
 1529 0395 04       		.byte	0x4
 1530 0396 93020000 		.4byte	0x293
 1531 039a 13       		.uleb128 0x13
 1532 039b 01       		.byte	0x1
 1533 039c 2A010000 		.4byte	.LASF68
 1534 03a0 01       		.byte	0x1
 1535 03a1 44       		.byte	0x44
 1536 03a2 01       		.byte	0x1
 1537 03a3 00000000 		.4byte	.LFB62
 1538 03a7 08000000 		.4byte	.LFE62
 1539 03ab 00000000 		.4byte	.LLST0
 1540 03af 14       		.uleb128 0x14
 1541 03b0 01       		.byte	0x1
 1542 03b1 C9020000 		.4byte	.LASF52
 1543 03b5 01       		.byte	0x1
ARM GAS  C:\Users\z80\AppData\Local\Temp\ccgwS4gh.s 			page 29


 1544 03b6 50       		.byte	0x50
 1545 03b7 01       		.byte	0x1
 1546 03b8 00000000 		.4byte	.LFB63
 1547 03bc 0A000000 		.4byte	.LFE63
 1548 03c0 02       		.byte	0x2
 1549 03c1 7D       		.byte	0x7d
 1550 03c2 00       		.sleb128 0
 1551 03c3 D5030000 		.4byte	0x3d5
 1552 03c7 15       		.uleb128 0x15
 1553 03c8 70020000 		.4byte	.LASF54
 1554 03cc 01       		.byte	0x1
 1555 03cd 50       		.byte	0x50
 1556 03ce 3D030000 		.4byte	0x33d
 1557 03d2 01       		.byte	0x1
 1558 03d3 50       		.byte	0x50
 1559 03d4 00       		.byte	0x0
 1560 03d5 16       		.uleb128 0x16
 1561 03d6 01       		.byte	0x1
 1562 03d7 F9000000 		.4byte	.LASF53
 1563 03db 01       		.byte	0x1
 1564 03dc 5E       		.byte	0x5e
 1565 03dd 01       		.byte	0x1
 1566 03de 00000000 		.4byte	.LFB64
 1567 03e2 5C000000 		.4byte	.LFE64
 1568 03e6 20000000 		.4byte	.LLST1
 1569 03ea 43040000 		.4byte	0x443
 1570 03ee 17       		.uleb128 0x17
 1571 03ef 70020000 		.4byte	.LASF54
 1572 03f3 01       		.byte	0x1
 1573 03f4 5E       		.byte	0x5e
 1574 03f5 3D030000 		.4byte	0x33d
 1575 03f9 40000000 		.4byte	.LLST2
 1576 03fd 17       		.uleb128 0x17
 1577 03fe 50000000 		.4byte	.LASF44
 1578 0402 01       		.byte	0x1
 1579 0403 5E       		.byte	0x5e
 1580 0404 89030000 		.4byte	0x389
 1581 0408 5E000000 		.4byte	.LLST3
 1582 040c 18       		.uleb128 0x18
 1583 040d 18000000 		.4byte	.LBB2
 1584 0411 1E000000 		.4byte	.LBE2
 1585 0415 29040000 		.4byte	0x429
 1586 0419 19       		.uleb128 0x19
 1587 041a 746D7000 		.ascii	"tmp\000"
 1588 041e 01       		.byte	0x1
 1589 041f 62       		.byte	0x62
 1590 0420 70000000 		.4byte	0x70
 1591 0424 7C000000 		.4byte	.LLST4
 1592 0428 00       		.byte	0x0
 1593 0429 1A       		.uleb128 0x1a
 1594 042a 42000000 		.4byte	.LBB3
 1595 042e 48000000 		.4byte	.LBE3
 1596 0432 19       		.uleb128 0x19
 1597 0433 746D7000 		.ascii	"tmp\000"
 1598 0437 01       		.byte	0x1
 1599 0438 68       		.byte	0x68
 1600 0439 70000000 		.4byte	0x70
ARM GAS  C:\Users\z80\AppData\Local\Temp\ccgwS4gh.s 			page 30


 1601 043d 8F000000 		.4byte	.LLST5
 1602 0441 00       		.byte	0x0
 1603 0442 00       		.byte	0x0
 1604 0443 16       		.uleb128 0x16
 1605 0444 01       		.byte	0x1
 1606 0445 EE020000 		.4byte	.LASF55
 1607 0449 01       		.byte	0x1
 1608 044a 72       		.byte	0x72
 1609 044b 01       		.byte	0x1
 1610 044c 00000000 		.4byte	.LFB65
 1611 0450 48000000 		.4byte	.LFE65
 1612 0454 A2000000 		.4byte	.LLST6
 1613 0458 A2040000 		.4byte	0x4a2
 1614 045c 17       		.uleb128 0x17
 1615 045d 70020000 		.4byte	.LASF54
 1616 0461 01       		.byte	0x1
 1617 0462 72       		.byte	0x72
 1618 0463 3D030000 		.4byte	0x33d
 1619 0467 C2000000 		.4byte	.LLST7
 1620 046b 18       		.uleb128 0x18
 1621 046c 06000000 		.4byte	.LBB4
 1622 0470 0C000000 		.4byte	.LBE4
 1623 0474 88040000 		.4byte	0x488
 1624 0478 19       		.uleb128 0x19
 1625 0479 746D7000 		.ascii	"tmp\000"
 1626 047d 01       		.byte	0x1
 1627 047e 76       		.byte	0x76
 1628 047f 70000000 		.4byte	0x70
 1629 0483 E0000000 		.4byte	.LLST8
 1630 0487 00       		.byte	0x0
 1631 0488 1A       		.uleb128 0x1a
 1632 0489 2E000000 		.4byte	.LBB5
 1633 048d 34000000 		.4byte	.LBE5
 1634 0491 19       		.uleb128 0x19
 1635 0492 746D7000 		.ascii	"tmp\000"
 1636 0496 01       		.byte	0x1
 1637 0497 7B       		.byte	0x7b
 1638 0498 70000000 		.4byte	0x70
 1639 049c F3000000 		.4byte	.LLST9
 1640 04a0 00       		.byte	0x0
 1641 04a1 00       		.byte	0x0
 1642 04a2 16       		.uleb128 0x16
 1643 04a3 01       		.byte	0x1
 1644 04a4 DC000000 		.4byte	.LASF56
 1645 04a8 01       		.byte	0x1
 1646 04a9 95       		.byte	0x95
 1647 04aa 01       		.byte	0x1
 1648 04ab 00000000 		.4byte	.LFB67
 1649 04af 38000000 		.4byte	.LFE67
 1650 04b3 06010000 		.4byte	.LLST10
 1651 04b7 DA040000 		.4byte	0x4da
 1652 04bb 17       		.uleb128 0x17
 1653 04bc 70020000 		.4byte	.LASF54
 1654 04c0 01       		.byte	0x1
 1655 04c1 95       		.byte	0x95
 1656 04c2 3D030000 		.4byte	0x33d
 1657 04c6 26010000 		.4byte	.LLST11
ARM GAS  C:\Users\z80\AppData\Local\Temp\ccgwS4gh.s 			page 31


 1658 04ca 17       		.uleb128 0x17
 1659 04cb 49020000 		.4byte	.LASF57
 1660 04cf 01       		.byte	0x1
 1661 04d0 95       		.byte	0x95
 1662 04d1 4E030000 		.4byte	0x34e
 1663 04d5 44010000 		.4byte	.LLST12
 1664 04d9 00       		.byte	0x0
 1665 04da 16       		.uleb128 0x16
 1666 04db 01       		.byte	0x1
 1667 04dc 32010000 		.4byte	.LASF58
 1668 04e0 01       		.byte	0x1
 1669 04e1 86       		.byte	0x86
 1670 04e2 01       		.byte	0x1
 1671 04e3 00000000 		.4byte	.LFB66
 1672 04e7 24000000 		.4byte	.LFE66
 1673 04eb 57010000 		.4byte	.LLST13
 1674 04ef 48050000 		.4byte	0x548
 1675 04f3 17       		.uleb128 0x17
 1676 04f4 70020000 		.4byte	.LASF54
 1677 04f8 01       		.byte	0x1
 1678 04f9 86       		.byte	0x86
 1679 04fa 3D030000 		.4byte	0x33d
 1680 04fe 77010000 		.4byte	.LLST14
 1681 0502 17       		.uleb128 0x17
 1682 0503 49020000 		.4byte	.LASF57
 1683 0507 01       		.byte	0x1
 1684 0508 86       		.byte	0x86
 1685 0509 4E030000 		.4byte	0x34e
 1686 050d 95010000 		.4byte	.LLST15
 1687 0511 18       		.uleb128 0x18
 1688 0512 06000000 		.4byte	.LBB6
 1689 0516 0C000000 		.4byte	.LBE6
 1690 051a 2E050000 		.4byte	0x52e
 1691 051e 19       		.uleb128 0x19
 1692 051f 746D7000 		.ascii	"tmp\000"
 1693 0523 01       		.byte	0x1
 1694 0524 88       		.byte	0x88
 1695 0525 70000000 		.4byte	0x70
 1696 0529 A8010000 		.4byte	.LLST16
 1697 052d 00       		.byte	0x0
 1698 052e 1A       		.uleb128 0x1a
 1699 052f 1C000000 		.4byte	.LBB7
 1700 0533 22000000 		.4byte	.LBE7
 1701 0537 19       		.uleb128 0x19
 1702 0538 746D7000 		.ascii	"tmp\000"
 1703 053c 01       		.byte	0x1
 1704 053d 8A       		.byte	0x8a
 1705 053e 70000000 		.4byte	0x70
 1706 0542 BB010000 		.4byte	.LLST17
 1707 0546 00       		.byte	0x0
 1708 0547 00       		.byte	0x0
 1709 0548 16       		.uleb128 0x16
 1710 0549 01       		.byte	0x1
 1711 054a 7F020000 		.4byte	.LASF59
 1712 054e 01       		.byte	0x1
 1713 054f B7       		.byte	0xb7
 1714 0550 01       		.byte	0x1
ARM GAS  C:\Users\z80\AppData\Local\Temp\ccgwS4gh.s 			page 32


 1715 0551 00000000 		.4byte	.LFB69
 1716 0555 38000000 		.4byte	.LFE69
 1717 0559 CE010000 		.4byte	.LLST18
 1718 055d 80050000 		.4byte	0x580
 1719 0561 17       		.uleb128 0x17
 1720 0562 70020000 		.4byte	.LASF54
 1721 0566 01       		.byte	0x1
 1722 0567 B7       		.byte	0xb7
 1723 0568 3D030000 		.4byte	0x33d
 1724 056c EE010000 		.4byte	.LLST19
 1725 0570 17       		.uleb128 0x17
 1726 0571 49020000 		.4byte	.LASF57
 1727 0575 01       		.byte	0x1
 1728 0576 B7       		.byte	0xb7
 1729 0577 4E030000 		.4byte	0x34e
 1730 057b 0C020000 		.4byte	.LLST20
 1731 057f 00       		.byte	0x0
 1732 0580 16       		.uleb128 0x16
 1733 0581 01       		.byte	0x1
 1734 0582 CC000000 		.4byte	.LASF60
 1735 0586 01       		.byte	0x1
 1736 0587 A8       		.byte	0xa8
 1737 0588 01       		.byte	0x1
 1738 0589 00000000 		.4byte	.LFB68
 1739 058d 24000000 		.4byte	.LFE68
 1740 0591 1F020000 		.4byte	.LLST21
 1741 0595 EE050000 		.4byte	0x5ee
 1742 0599 17       		.uleb128 0x17
 1743 059a 70020000 		.4byte	.LASF54
 1744 059e 01       		.byte	0x1
 1745 059f A8       		.byte	0xa8
 1746 05a0 3D030000 		.4byte	0x33d
 1747 05a4 3F020000 		.4byte	.LLST22
 1748 05a8 17       		.uleb128 0x17
 1749 05a9 49020000 		.4byte	.LASF57
 1750 05ad 01       		.byte	0x1
 1751 05ae A8       		.byte	0xa8
 1752 05af 4E030000 		.4byte	0x34e
 1753 05b3 5D020000 		.4byte	.LLST23
 1754 05b7 18       		.uleb128 0x18
 1755 05b8 06000000 		.4byte	.LBB8
 1756 05bc 0C000000 		.4byte	.LBE8
 1757 05c0 D4050000 		.4byte	0x5d4
 1758 05c4 19       		.uleb128 0x19
 1759 05c5 746D7000 		.ascii	"tmp\000"
 1760 05c9 01       		.byte	0x1
 1761 05ca AA       		.byte	0xaa
 1762 05cb 70000000 		.4byte	0x70
 1763 05cf 70020000 		.4byte	.LLST24
 1764 05d3 00       		.byte	0x0
 1765 05d4 1A       		.uleb128 0x1a
 1766 05d5 1C000000 		.4byte	.LBB9
 1767 05d9 22000000 		.4byte	.LBE9
 1768 05dd 19       		.uleb128 0x19
 1769 05de 746D7000 		.ascii	"tmp\000"
 1770 05e2 01       		.byte	0x1
 1771 05e3 AC       		.byte	0xac
ARM GAS  C:\Users\z80\AppData\Local\Temp\ccgwS4gh.s 			page 33


 1772 05e4 70000000 		.4byte	0x70
 1773 05e8 83020000 		.4byte	.LLST25
 1774 05ec 00       		.byte	0x0
 1775 05ed 00       		.byte	0x0
 1776 05ee 16       		.uleb128 0x16
 1777 05ef 01       		.byte	0x1
 1778 05f0 42000000 		.4byte	.LASF61
 1779 05f4 01       		.byte	0x1
 1780 05f5 D7       		.byte	0xd7
 1781 05f6 01       		.byte	0x1
 1782 05f7 00000000 		.4byte	.LFB71
 1783 05fb 38000000 		.4byte	.LFE71
 1784 05ff 96020000 		.4byte	.LLST26
 1785 0603 17060000 		.4byte	0x617
 1786 0607 17       		.uleb128 0x17
 1787 0608 70020000 		.4byte	.LASF54
 1788 060c 01       		.byte	0x1
 1789 060d D7       		.byte	0xd7
 1790 060e 3D030000 		.4byte	0x33d
 1791 0612 B6020000 		.4byte	.LLST27
 1792 0616 00       		.byte	0x0
 1793 0617 16       		.uleb128 0x16
 1794 0618 01       		.byte	0x1
 1795 0619 90020000 		.4byte	.LASF62
 1796 061d 01       		.byte	0x1
 1797 061e C9       		.byte	0xc9
 1798 061f 01       		.byte	0x1
 1799 0620 00000000 		.4byte	.LFB70
 1800 0624 20000000 		.4byte	.LFE70
 1801 0628 D4020000 		.4byte	.LLST28
 1802 062c 72060000 		.4byte	0x672
 1803 0630 17       		.uleb128 0x17
 1804 0631 70020000 		.4byte	.LASF54
 1805 0635 01       		.byte	0x1
 1806 0636 C9       		.byte	0xc9
 1807 0637 3D030000 		.4byte	0x33d
 1808 063b F4020000 		.4byte	.LLST29
 1809 063f 1B       		.uleb128 0x1b
 1810 0640 00000000 		.4byte	.Ldebug_ranges0+0x0
 1811 0644 58060000 		.4byte	0x658
 1812 0648 19       		.uleb128 0x19
 1813 0649 746D7000 		.ascii	"tmp\000"
 1814 064d 01       		.byte	0x1
 1815 064e CB       		.byte	0xcb
 1816 064f 70000000 		.4byte	0x70
 1817 0653 12030000 		.4byte	.LLST30
 1818 0657 00       		.byte	0x0
 1819 0658 1A       		.uleb128 0x1a
 1820 0659 18000000 		.4byte	.LBB12
 1821 065d 1E000000 		.4byte	.LBE12
 1822 0661 19       		.uleb128 0x19
 1823 0662 746D7000 		.ascii	"tmp\000"
 1824 0666 01       		.byte	0x1
 1825 0667 CD       		.byte	0xcd
 1826 0668 70000000 		.4byte	0x70
 1827 066c 25030000 		.4byte	.LLST31
 1828 0670 00       		.byte	0x0
ARM GAS  C:\Users\z80\AppData\Local\Temp\ccgwS4gh.s 			page 34


 1829 0671 00       		.byte	0x0
 1830 0672 16       		.uleb128 0x16
 1831 0673 01       		.byte	0x1
 1832 0674 02010000 		.4byte	.LASF63
 1833 0678 01       		.byte	0x1
 1834 0679 EF       		.byte	0xef
 1835 067a 01       		.byte	0x1
 1836 067b 00000000 		.4byte	.LFB72
 1837 067f 28000000 		.4byte	.LFE72
 1838 0683 38030000 		.4byte	.LLST32
 1839 0687 AA060000 		.4byte	0x6aa
 1840 068b 17       		.uleb128 0x17
 1841 068c 70020000 		.4byte	.LASF54
 1842 0690 01       		.byte	0x1
 1843 0691 EF       		.byte	0xef
 1844 0692 3D030000 		.4byte	0x33d
 1845 0696 58030000 		.4byte	.LLST33
 1846 069a 17       		.uleb128 0x17
 1847 069b 49020000 		.4byte	.LASF57
 1848 069f 01       		.byte	0x1
 1849 06a0 EF       		.byte	0xef
 1850 06a1 4E030000 		.4byte	0x34e
 1851 06a5 76030000 		.4byte	.LLST34
 1852 06a9 00       		.byte	0x0
 1853 06aa 1C       		.uleb128 0x1c
 1854 06ab D7020000 		.4byte	.LASF64
 1855 06af 06       		.byte	0x6
 1856 06b0 9404     		.2byte	0x494
 1857 06b2 B4000000 		.4byte	0xb4
 1858 06b6 01       		.byte	0x1
 1859 06b7 01       		.byte	0x1
 1860 06b8 1C       		.uleb128 0x1c
 1861 06b9 D7020000 		.4byte	.LASF64
 1862 06bd 06       		.byte	0x6
 1863 06be 9404     		.2byte	0x494
 1864 06c0 B4000000 		.4byte	0xb4
 1865 06c4 01       		.byte	0x1
 1866 06c5 01       		.byte	0x1
 1867 06c6 00       		.byte	0x0
 1868              		.section	.debug_abbrev
 1869 0000 01       		.uleb128 0x1
 1870 0001 11       		.uleb128 0x11
 1871 0002 01       		.byte	0x1
 1872 0003 25       		.uleb128 0x25
 1873 0004 0E       		.uleb128 0xe
 1874 0005 13       		.uleb128 0x13
 1875 0006 0B       		.uleb128 0xb
 1876 0007 03       		.uleb128 0x3
 1877 0008 0E       		.uleb128 0xe
 1878 0009 1B       		.uleb128 0x1b
 1879 000a 0E       		.uleb128 0xe
 1880 000b 11       		.uleb128 0x11
 1881 000c 01       		.uleb128 0x1
 1882 000d 52       		.uleb128 0x52
 1883 000e 01       		.uleb128 0x1
 1884 000f 55       		.uleb128 0x55
 1885 0010 06       		.uleb128 0x6
ARM GAS  C:\Users\z80\AppData\Local\Temp\ccgwS4gh.s 			page 35


 1886 0011 10       		.uleb128 0x10
 1887 0012 06       		.uleb128 0x6
 1888 0013 00       		.byte	0x0
 1889 0014 00       		.byte	0x0
 1890 0015 02       		.uleb128 0x2
 1891 0016 24       		.uleb128 0x24
 1892 0017 00       		.byte	0x0
 1893 0018 0B       		.uleb128 0xb
 1894 0019 0B       		.uleb128 0xb
 1895 001a 3E       		.uleb128 0x3e
 1896 001b 0B       		.uleb128 0xb
 1897 001c 03       		.uleb128 0x3
 1898 001d 08       		.uleb128 0x8
 1899 001e 00       		.byte	0x0
 1900 001f 00       		.byte	0x0
 1901 0020 03       		.uleb128 0x3
 1902 0021 24       		.uleb128 0x24
 1903 0022 00       		.byte	0x0
 1904 0023 0B       		.uleb128 0xb
 1905 0024 0B       		.uleb128 0xb
 1906 0025 3E       		.uleb128 0x3e
 1907 0026 0B       		.uleb128 0xb
 1908 0027 03       		.uleb128 0x3
 1909 0028 0E       		.uleb128 0xe
 1910 0029 00       		.byte	0x0
 1911 002a 00       		.byte	0x0
 1912 002b 04       		.uleb128 0x4
 1913 002c 16       		.uleb128 0x16
 1914 002d 00       		.byte	0x0
 1915 002e 03       		.uleb128 0x3
 1916 002f 0E       		.uleb128 0xe
 1917 0030 3A       		.uleb128 0x3a
 1918 0031 0B       		.uleb128 0xb
 1919 0032 3B       		.uleb128 0x3b
 1920 0033 0B       		.uleb128 0xb
 1921 0034 49       		.uleb128 0x49
 1922 0035 13       		.uleb128 0x13
 1923 0036 00       		.byte	0x0
 1924 0037 00       		.byte	0x0
 1925 0038 05       		.uleb128 0x5
 1926 0039 35       		.uleb128 0x35
 1927 003a 00       		.byte	0x0
 1928 003b 49       		.uleb128 0x49
 1929 003c 13       		.uleb128 0x13
 1930 003d 00       		.byte	0x0
 1931 003e 00       		.byte	0x0
 1932 003f 06       		.uleb128 0x6
 1933 0040 24       		.uleb128 0x24
 1934 0041 00       		.byte	0x0
 1935 0042 0B       		.uleb128 0xb
 1936 0043 0B       		.uleb128 0xb
 1937 0044 3E       		.uleb128 0x3e
 1938 0045 0B       		.uleb128 0xb
 1939 0046 00       		.byte	0x0
 1940 0047 00       		.byte	0x0
 1941 0048 07       		.uleb128 0x7
 1942 0049 01       		.uleb128 0x1
ARM GAS  C:\Users\z80\AppData\Local\Temp\ccgwS4gh.s 			page 36


 1943 004a 01       		.byte	0x1
 1944 004b 49       		.uleb128 0x49
 1945 004c 13       		.uleb128 0x13
 1946 004d 01       		.uleb128 0x1
 1947 004e 13       		.uleb128 0x13
 1948 004f 00       		.byte	0x0
 1949 0050 00       		.byte	0x0
 1950 0051 08       		.uleb128 0x8
 1951 0052 21       		.uleb128 0x21
 1952 0053 00       		.byte	0x0
 1953 0054 49       		.uleb128 0x49
 1954 0055 13       		.uleb128 0x13
 1955 0056 2F       		.uleb128 0x2f
 1956 0057 0B       		.uleb128 0xb
 1957 0058 00       		.byte	0x0
 1958 0059 00       		.byte	0x0
 1959 005a 09       		.uleb128 0x9
 1960 005b 13       		.uleb128 0x13
 1961 005c 01       		.byte	0x1
 1962 005d 0B       		.uleb128 0xb
 1963 005e 0B       		.uleb128 0xb
 1964 005f 3A       		.uleb128 0x3a
 1965 0060 0B       		.uleb128 0xb
 1966 0061 3B       		.uleb128 0x3b
 1967 0062 0B       		.uleb128 0xb
 1968 0063 01       		.uleb128 0x1
 1969 0064 13       		.uleb128 0x13
 1970 0065 00       		.byte	0x0
 1971 0066 00       		.byte	0x0
 1972 0067 0A       		.uleb128 0xa
 1973 0068 0D       		.uleb128 0xd
 1974 0069 00       		.byte	0x0
 1975 006a 03       		.uleb128 0x3
 1976 006b 08       		.uleb128 0x8
 1977 006c 3A       		.uleb128 0x3a
 1978 006d 0B       		.uleb128 0xb
 1979 006e 3B       		.uleb128 0x3b
 1980 006f 0B       		.uleb128 0xb
 1981 0070 49       		.uleb128 0x49
 1982 0071 13       		.uleb128 0x13
 1983 0072 38       		.uleb128 0x38
 1984 0073 0A       		.uleb128 0xa
 1985 0074 00       		.byte	0x0
 1986 0075 00       		.byte	0x0
 1987 0076 0B       		.uleb128 0xb
 1988 0077 0D       		.uleb128 0xd
 1989 0078 00       		.byte	0x0
 1990 0079 03       		.uleb128 0x3
 1991 007a 0E       		.uleb128 0xe
 1992 007b 3A       		.uleb128 0x3a
 1993 007c 0B       		.uleb128 0xb
 1994 007d 3B       		.uleb128 0x3b
 1995 007e 0B       		.uleb128 0xb
 1996 007f 49       		.uleb128 0x49
 1997 0080 13       		.uleb128 0x13
 1998 0081 38       		.uleb128 0x38
 1999 0082 0A       		.uleb128 0xa
ARM GAS  C:\Users\z80\AppData\Local\Temp\ccgwS4gh.s 			page 37


 2000 0083 00       		.byte	0x0
 2001 0084 00       		.byte	0x0
 2002 0085 0C       		.uleb128 0xc
 2003 0086 04       		.uleb128 0x4
 2004 0087 01       		.byte	0x1
 2005 0088 0B       		.uleb128 0xb
 2006 0089 0B       		.uleb128 0xb
 2007 008a 3A       		.uleb128 0x3a
 2008 008b 0B       		.uleb128 0xb
 2009 008c 3B       		.uleb128 0x3b
 2010 008d 0B       		.uleb128 0xb
 2011 008e 01       		.uleb128 0x1
 2012 008f 13       		.uleb128 0x13
 2013 0090 00       		.byte	0x0
 2014 0091 00       		.byte	0x0
 2015 0092 0D       		.uleb128 0xd
 2016 0093 28       		.uleb128 0x28
 2017 0094 00       		.byte	0x0
 2018 0095 03       		.uleb128 0x3
 2019 0096 0E       		.uleb128 0xe
 2020 0097 1C       		.uleb128 0x1c
 2021 0098 0D       		.uleb128 0xd
 2022 0099 00       		.byte	0x0
 2023 009a 00       		.byte	0x0
 2024 009b 0E       		.uleb128 0xe
 2025 009c 13       		.uleb128 0x13
 2026 009d 01       		.byte	0x1
 2027 009e 03       		.uleb128 0x3
 2028 009f 0E       		.uleb128 0xe
 2029 00a0 0B       		.uleb128 0xb
 2030 00a1 0B       		.uleb128 0xb
 2031 00a2 3A       		.uleb128 0x3a
 2032 00a3 0B       		.uleb128 0xb
 2033 00a4 3B       		.uleb128 0x3b
 2034 00a5 0B       		.uleb128 0xb
 2035 00a6 01       		.uleb128 0x1
 2036 00a7 13       		.uleb128 0x13
 2037 00a8 00       		.byte	0x0
 2038 00a9 00       		.byte	0x0
 2039 00aa 0F       		.uleb128 0xf
 2040 00ab 0F       		.uleb128 0xf
 2041 00ac 00       		.byte	0x0
 2042 00ad 0B       		.uleb128 0xb
 2043 00ae 0B       		.uleb128 0xb
 2044 00af 49       		.uleb128 0x49
 2045 00b0 13       		.uleb128 0x13
 2046 00b1 00       		.byte	0x0
 2047 00b2 00       		.byte	0x0
 2048 00b3 10       		.uleb128 0x10
 2049 00b4 15       		.uleb128 0x15
 2050 00b5 01       		.byte	0x1
 2051 00b6 27       		.uleb128 0x27
 2052 00b7 0C       		.uleb128 0xc
 2053 00b8 01       		.uleb128 0x1
 2054 00b9 13       		.uleb128 0x13
 2055 00ba 00       		.byte	0x0
 2056 00bb 00       		.byte	0x0
ARM GAS  C:\Users\z80\AppData\Local\Temp\ccgwS4gh.s 			page 38


 2057 00bc 11       		.uleb128 0x11
 2058 00bd 05       		.uleb128 0x5
 2059 00be 00       		.byte	0x0
 2060 00bf 49       		.uleb128 0x49
 2061 00c0 13       		.uleb128 0x13
 2062 00c1 00       		.byte	0x0
 2063 00c2 00       		.byte	0x0
 2064 00c3 12       		.uleb128 0x12
 2065 00c4 26       		.uleb128 0x26
 2066 00c5 00       		.byte	0x0
 2067 00c6 49       		.uleb128 0x49
 2068 00c7 13       		.uleb128 0x13
 2069 00c8 00       		.byte	0x0
 2070 00c9 00       		.byte	0x0
 2071 00ca 13       		.uleb128 0x13
 2072 00cb 2E       		.uleb128 0x2e
 2073 00cc 00       		.byte	0x0
 2074 00cd 3F       		.uleb128 0x3f
 2075 00ce 0C       		.uleb128 0xc
 2076 00cf 03       		.uleb128 0x3
 2077 00d0 0E       		.uleb128 0xe
 2078 00d1 3A       		.uleb128 0x3a
 2079 00d2 0B       		.uleb128 0xb
 2080 00d3 3B       		.uleb128 0x3b
 2081 00d4 0B       		.uleb128 0xb
 2082 00d5 27       		.uleb128 0x27
 2083 00d6 0C       		.uleb128 0xc
 2084 00d7 11       		.uleb128 0x11
 2085 00d8 01       		.uleb128 0x1
 2086 00d9 12       		.uleb128 0x12
 2087 00da 01       		.uleb128 0x1
 2088 00db 40       		.uleb128 0x40
 2089 00dc 06       		.uleb128 0x6
 2090 00dd 00       		.byte	0x0
 2091 00de 00       		.byte	0x0
 2092 00df 14       		.uleb128 0x14
 2093 00e0 2E       		.uleb128 0x2e
 2094 00e1 01       		.byte	0x1
 2095 00e2 3F       		.uleb128 0x3f
 2096 00e3 0C       		.uleb128 0xc
 2097 00e4 03       		.uleb128 0x3
 2098 00e5 0E       		.uleb128 0xe
 2099 00e6 3A       		.uleb128 0x3a
 2100 00e7 0B       		.uleb128 0xb
 2101 00e8 3B       		.uleb128 0x3b
 2102 00e9 0B       		.uleb128 0xb
 2103 00ea 27       		.uleb128 0x27
 2104 00eb 0C       		.uleb128 0xc
 2105 00ec 11       		.uleb128 0x11
 2106 00ed 01       		.uleb128 0x1
 2107 00ee 12       		.uleb128 0x12
 2108 00ef 01       		.uleb128 0x1
 2109 00f0 40       		.uleb128 0x40
 2110 00f1 0A       		.uleb128 0xa
 2111 00f2 01       		.uleb128 0x1
 2112 00f3 13       		.uleb128 0x13
 2113 00f4 00       		.byte	0x0
ARM GAS  C:\Users\z80\AppData\Local\Temp\ccgwS4gh.s 			page 39


 2114 00f5 00       		.byte	0x0
 2115 00f6 15       		.uleb128 0x15
 2116 00f7 05       		.uleb128 0x5
 2117 00f8 00       		.byte	0x0
 2118 00f9 03       		.uleb128 0x3
 2119 00fa 0E       		.uleb128 0xe
 2120 00fb 3A       		.uleb128 0x3a
 2121 00fc 0B       		.uleb128 0xb
 2122 00fd 3B       		.uleb128 0x3b
 2123 00fe 0B       		.uleb128 0xb
 2124 00ff 49       		.uleb128 0x49
 2125 0100 13       		.uleb128 0x13
 2126 0101 02       		.uleb128 0x2
 2127 0102 0A       		.uleb128 0xa
 2128 0103 00       		.byte	0x0
 2129 0104 00       		.byte	0x0
 2130 0105 16       		.uleb128 0x16
 2131 0106 2E       		.uleb128 0x2e
 2132 0107 01       		.byte	0x1
 2133 0108 3F       		.uleb128 0x3f
 2134 0109 0C       		.uleb128 0xc
 2135 010a 03       		.uleb128 0x3
 2136 010b 0E       		.uleb128 0xe
 2137 010c 3A       		.uleb128 0x3a
 2138 010d 0B       		.uleb128 0xb
 2139 010e 3B       		.uleb128 0x3b
 2140 010f 0B       		.uleb128 0xb
 2141 0110 27       		.uleb128 0x27
 2142 0111 0C       		.uleb128 0xc
 2143 0112 11       		.uleb128 0x11
 2144 0113 01       		.uleb128 0x1
 2145 0114 12       		.uleb128 0x12
 2146 0115 01       		.uleb128 0x1
 2147 0116 40       		.uleb128 0x40
 2148 0117 06       		.uleb128 0x6
 2149 0118 01       		.uleb128 0x1
 2150 0119 13       		.uleb128 0x13
 2151 011a 00       		.byte	0x0
 2152 011b 00       		.byte	0x0
 2153 011c 17       		.uleb128 0x17
 2154 011d 05       		.uleb128 0x5
 2155 011e 00       		.byte	0x0
 2156 011f 03       		.uleb128 0x3
 2157 0120 0E       		.uleb128 0xe
 2158 0121 3A       		.uleb128 0x3a
 2159 0122 0B       		.uleb128 0xb
 2160 0123 3B       		.uleb128 0x3b
 2161 0124 0B       		.uleb128 0xb
 2162 0125 49       		.uleb128 0x49
 2163 0126 13       		.uleb128 0x13
 2164 0127 02       		.uleb128 0x2
 2165 0128 06       		.uleb128 0x6
 2166 0129 00       		.byte	0x0
 2167 012a 00       		.byte	0x0
 2168 012b 18       		.uleb128 0x18
 2169 012c 0B       		.uleb128 0xb
 2170 012d 01       		.byte	0x1
ARM GAS  C:\Users\z80\AppData\Local\Temp\ccgwS4gh.s 			page 40


 2171 012e 11       		.uleb128 0x11
 2172 012f 01       		.uleb128 0x1
 2173 0130 12       		.uleb128 0x12
 2174 0131 01       		.uleb128 0x1
 2175 0132 01       		.uleb128 0x1
 2176 0133 13       		.uleb128 0x13
 2177 0134 00       		.byte	0x0
 2178 0135 00       		.byte	0x0
 2179 0136 19       		.uleb128 0x19
 2180 0137 34       		.uleb128 0x34
 2181 0138 00       		.byte	0x0
 2182 0139 03       		.uleb128 0x3
 2183 013a 08       		.uleb128 0x8
 2184 013b 3A       		.uleb128 0x3a
 2185 013c 0B       		.uleb128 0xb
 2186 013d 3B       		.uleb128 0x3b
 2187 013e 0B       		.uleb128 0xb
 2188 013f 49       		.uleb128 0x49
 2189 0140 13       		.uleb128 0x13
 2190 0141 02       		.uleb128 0x2
 2191 0142 06       		.uleb128 0x6
 2192 0143 00       		.byte	0x0
 2193 0144 00       		.byte	0x0
 2194 0145 1A       		.uleb128 0x1a
 2195 0146 0B       		.uleb128 0xb
 2196 0147 01       		.byte	0x1
 2197 0148 11       		.uleb128 0x11
 2198 0149 01       		.uleb128 0x1
 2199 014a 12       		.uleb128 0x12
 2200 014b 01       		.uleb128 0x1
 2201 014c 00       		.byte	0x0
 2202 014d 00       		.byte	0x0
 2203 014e 1B       		.uleb128 0x1b
 2204 014f 0B       		.uleb128 0xb
 2205 0150 01       		.byte	0x1
 2206 0151 55       		.uleb128 0x55
 2207 0152 06       		.uleb128 0x6
 2208 0153 01       		.uleb128 0x1
 2209 0154 13       		.uleb128 0x13
 2210 0155 00       		.byte	0x0
 2211 0156 00       		.byte	0x0
 2212 0157 1C       		.uleb128 0x1c
 2213 0158 34       		.uleb128 0x34
 2214 0159 00       		.byte	0x0
 2215 015a 03       		.uleb128 0x3
 2216 015b 0E       		.uleb128 0xe
 2217 015c 3A       		.uleb128 0x3a
 2218 015d 0B       		.uleb128 0xb
 2219 015e 3B       		.uleb128 0x3b
 2220 015f 05       		.uleb128 0x5
 2221 0160 49       		.uleb128 0x49
 2222 0161 13       		.uleb128 0x13
 2223 0162 3F       		.uleb128 0x3f
 2224 0163 0C       		.uleb128 0xc
 2225 0164 3C       		.uleb128 0x3c
 2226 0165 0C       		.uleb128 0xc
 2227 0166 00       		.byte	0x0
ARM GAS  C:\Users\z80\AppData\Local\Temp\ccgwS4gh.s 			page 41


 2228 0167 00       		.byte	0x0
 2229 0168 00       		.byte	0x0
 2230              		.section	.debug_pubnames,"",%progbits
 2231 0000 D3000000 		.4byte	0xd3
 2232 0004 0200     		.2byte	0x2
 2233 0006 00000000 		.4byte	.Ldebug_info0
 2234 000a C7060000 		.4byte	0x6c7
 2235 000e 9A030000 		.4byte	0x39a
 2236 0012 67707449 		.ascii	"gptInit\000"
 2236      6E697400 
 2237 001a AF030000 		.4byte	0x3af
 2238 001e 6770744F 		.ascii	"gptObjectInit\000"
 2238      626A6563 
 2238      74496E69 
 2238      7400
 2239 002c D5030000 		.4byte	0x3d5
 2240 0030 67707453 		.ascii	"gptStart\000"
 2240      74617274 
 2240      00
 2241 0039 43040000 		.4byte	0x443
 2242 003d 67707453 		.ascii	"gptStop\000"
 2242      746F7000 
 2243 0045 A2040000 		.4byte	0x4a2
 2244 0049 67707453 		.ascii	"gptStartContinuousI\000"
 2244      74617274 
 2244      436F6E74 
 2244      696E756F 
 2244      75734900 
 2245 005d DA040000 		.4byte	0x4da
 2246 0061 67707453 		.ascii	"gptStartContinuous\000"
 2246      74617274 
 2246      436F6E74 
 2246      696E756F 
 2246      757300
 2247 0074 48050000 		.4byte	0x548
 2248 0078 67707453 		.ascii	"gptStartOneShotI\000"
 2248      74617274 
 2248      4F6E6553 
 2248      686F7449 
 2248      00
 2249 0089 80050000 		.4byte	0x580
 2250 008d 67707453 		.ascii	"gptStartOneShot\000"
 2250      74617274 
 2250      4F6E6553 
 2250      686F7400 
 2251 009d EE050000 		.4byte	0x5ee
 2252 00a1 67707453 		.ascii	"gptStopTimerI\000"
 2252      746F7054 
 2252      696D6572 
 2252      4900
 2253 00af 17060000 		.4byte	0x617
 2254 00b3 67707453 		.ascii	"gptStopTimer\000"
 2254      746F7054 
 2254      696D6572 
 2254      00
 2255 00c0 72060000 		.4byte	0x672
 2256 00c4 67707450 		.ascii	"gptPolledDelay\000"
ARM GAS  C:\Users\z80\AppData\Local\Temp\ccgwS4gh.s 			page 42


 2256      6F6C6C65 
 2256      6444656C 
 2256      617900
 2257 00d3 00000000 		.4byte	0x0
 2258              		.section	.debug_pubtypes,"",%progbits
 2259 0000 AA000000 		.4byte	0xaa
 2260 0004 0200     		.2byte	0x2
 2261 0006 00000000 		.4byte	.Ldebug_info0
 2262 000a C7060000 		.4byte	0x6c7
 2263 000e 4C000000 		.4byte	0x4c
 2264 0012 75696E74 		.ascii	"uint16_t\000"
 2264      31365F74 
 2264      00
 2265 001b 5E000000 		.4byte	0x5e
 2266 001f 696E7433 		.ascii	"int32_t\000"
 2266      325F7400 
 2267 0027 70000000 		.4byte	0x70
 2268 002b 75696E74 		.ascii	"uint32_t\000"
 2268      33325F74 
 2268      00
 2269 0034 93020000 		.4byte	0x293
 2270 0038 73746D33 		.ascii	"stm32_tim_t\000"
 2270      325F7469 
 2270      6D5F7400 
 2271 0044 C5020000 		.4byte	0x2c5
 2272 0048 67707473 		.ascii	"gptstate_t\000"
 2272      74617465 
 2272      5F7400
 2273 0053 D0020000 		.4byte	0x2d0
 2274 0057 47505444 		.ascii	"GPTDriver\000"
 2274      72697665 
 2274      7200
 2275 0061 20030000 		.4byte	0x320
 2276 0065 67707463 		.ascii	"gptcallback_t\000"
 2276      616C6C62 
 2276      61636B5F 
 2276      7400
 2277 0073 43030000 		.4byte	0x343
 2278 0077 67707466 		.ascii	"gptfreq_t\000"
 2278      7265715F 
 2278      7400
 2279 0081 4E030000 		.4byte	0x34e
 2280 0085 67707463 		.ascii	"gptcnt_t\000"
 2280      6E745F74 
 2280      00
 2281 008e 7E030000 		.4byte	0x37e
 2282 0092 47505443 		.ascii	"GPTConfig\000"
 2282      6F6E6669 
 2282      6700
 2283 009c DB020000 		.4byte	0x2db
 2284 00a0 47505444 		.ascii	"GPTDriver\000"
 2284      72697665 
 2284      7200
 2285 00aa 00000000 		.4byte	0x0
 2286              		.section	.debug_aranges,"",%progbits
 2287 0000 6C000000 		.4byte	0x6c
 2288 0004 0200     		.2byte	0x2
ARM GAS  C:\Users\z80\AppData\Local\Temp\ccgwS4gh.s 			page 43


 2289 0006 00000000 		.4byte	.Ldebug_info0
 2290 000a 04       		.byte	0x4
 2291 000b 00       		.byte	0x0
 2292 000c 0000     		.2byte	0x0
 2293 000e 0000     		.2byte	0x0
 2294 0010 00000000 		.4byte	.LFB62
 2295 0014 08000000 		.4byte	.LFE62-.LFB62
 2296 0018 00000000 		.4byte	.LFB63
 2297 001c 0A000000 		.4byte	.LFE63-.LFB63
 2298 0020 00000000 		.4byte	.LFB64
 2299 0024 5C000000 		.4byte	.LFE64-.LFB64
 2300 0028 00000000 		.4byte	.LFB65
 2301 002c 48000000 		.4byte	.LFE65-.LFB65
 2302 0030 00000000 		.4byte	.LFB67
 2303 0034 38000000 		.4byte	.LFE67-.LFB67
 2304 0038 00000000 		.4byte	.LFB66
 2305 003c 24000000 		.4byte	.LFE66-.LFB66
 2306 0040 00000000 		.4byte	.LFB69
 2307 0044 38000000 		.4byte	.LFE69-.LFB69
 2308 0048 00000000 		.4byte	.LFB68
 2309 004c 24000000 		.4byte	.LFE68-.LFB68
 2310 0050 00000000 		.4byte	.LFB71
 2311 0054 38000000 		.4byte	.LFE71-.LFB71
 2312 0058 00000000 		.4byte	.LFB70
 2313 005c 20000000 		.4byte	.LFE70-.LFB70
 2314 0060 00000000 		.4byte	.LFB72
 2315 0064 28000000 		.4byte	.LFE72-.LFB72
 2316 0068 00000000 		.4byte	0x0
 2317 006c 00000000 		.4byte	0x0
 2318              		.section	.debug_ranges,"",%progbits
 2319              	.Ldebug_ranges0:
 2320 0000 02000000 		.4byte	.LBB10
 2321 0004 04000000 		.4byte	.LBE10
 2322 0008 06000000 		.4byte	.LBB11
 2323 000c 0A000000 		.4byte	.LBE11
 2324 0010 00000000 		.4byte	0x0
 2325 0014 00000000 		.4byte	0x0
 2326 0018 00000000 		.4byte	.LFB62
 2327 001c 08000000 		.4byte	.LFE62
 2328 0020 00000000 		.4byte	.LFB63
 2329 0024 0A000000 		.4byte	.LFE63
 2330 0028 00000000 		.4byte	.LFB64
 2331 002c 5C000000 		.4byte	.LFE64
 2332 0030 00000000 		.4byte	.LFB65
 2333 0034 48000000 		.4byte	.LFE65
 2334 0038 00000000 		.4byte	.LFB67
 2335 003c 38000000 		.4byte	.LFE67
 2336 0040 00000000 		.4byte	.LFB66
 2337 0044 24000000 		.4byte	.LFE66
 2338 0048 00000000 		.4byte	.LFB69
 2339 004c 38000000 		.4byte	.LFE69
 2340 0050 00000000 		.4byte	.LFB68
 2341 0054 24000000 		.4byte	.LFE68
 2342 0058 00000000 		.4byte	.LFB71
 2343 005c 38000000 		.4byte	.LFE71
 2344 0060 00000000 		.4byte	.LFB70
 2345 0064 20000000 		.4byte	.LFE70
ARM GAS  C:\Users\z80\AppData\Local\Temp\ccgwS4gh.s 			page 44


 2346 0068 00000000 		.4byte	.LFB72
 2347 006c 28000000 		.4byte	.LFE72
 2348 0070 00000000 		.4byte	0x0
 2349 0074 00000000 		.4byte	0x0
 2350              		.section	.debug_str,"MS",%progbits,1
 2351              	.LASF25:
 2352 0000 43434552 		.ascii	"CCER\000"
 2352      00
 2353              	.LASF36:
 2354 0005 4750545F 		.ascii	"GPT_UNINIT\000"
 2354      554E494E 
 2354      495400
 2355              	.LASF32:
 2356 0010 444D4152 		.ascii	"DMAR\000"
 2356      00
 2357              	.LASF43:
 2358 0015 73746174 		.ascii	"state\000"
 2358      6500
 2359              	.LASF23:
 2360 001b 43434D52 		.ascii	"CCMR2\000"
 2360      3200
 2361              	.LASF3:
 2362 0021 73686F72 		.ascii	"short int\000"
 2362      7420696E 
 2362      7400
 2363              	.LASF46:
 2364 002b 67707463 		.ascii	"gptcallback_t\000"
 2364      616C6C62 
 2364      61636B5F 
 2364      7400
 2365              	.LASF48:
 2366 0039 67707463 		.ascii	"gptcnt_t\000"
 2366      6E745F74 
 2366      00
 2367              	.LASF61:
 2368 0042 67707453 		.ascii	"gptStopTimerI\000"
 2368      746F7054 
 2368      696D6572 
 2368      4900
 2369              	.LASF44:
 2370 0050 636F6E66 		.ascii	"config\000"
 2370      696700
 2371              	.LASF40:
 2372 0057 4750545F 		.ascii	"GPT_ONESHOT\000"
 2372      4F4E4553 
 2372      484F5400 
 2373              	.LASF13:
 2374 0063 5F726573 		.ascii	"_resvd0\000"
 2374      76643000 
 2375              	.LASF14:
 2376 006b 5F726573 		.ascii	"_resvd1\000"
 2376      76643100 
 2377              	.LASF16:
 2378 0073 5F726573 		.ascii	"_resvd2\000"
 2378      76643200 
 2379              	.LASF18:
 2380 007b 5F726573 		.ascii	"_resvd3\000"
ARM GAS  C:\Users\z80\AppData\Local\Temp\ccgwS4gh.s 			page 45


 2380      76643300 
 2381              	.LASF19:
 2382 0083 5F726573 		.ascii	"_resvd4\000"
 2382      76643400 
 2383              	.LASF20:
 2384 008b 5F726573 		.ascii	"_resvd5\000"
 2384      76643500 
 2385              	.LASF22:
 2386 0093 5F726573 		.ascii	"_resvd6\000"
 2386      76643600 
 2387              	.LASF24:
 2388 009b 5F726573 		.ascii	"_resvd7\000"
 2388      76643700 
 2389              	.LASF26:
 2390 00a3 5F726573 		.ascii	"_resvd8\000"
 2390      76643800 
 2391              	.LASF27:
 2392 00ab 5F726573 		.ascii	"_resvd9\000"
 2392      76643900 
 2393              	.LASF41:
 2394 00b3 67707473 		.ascii	"gptstate_t\000"
 2394      74617465 
 2394      5F7400
 2395              	.LASF10:
 2396 00be 6C6F6E67 		.ascii	"long long int\000"
 2396      206C6F6E 
 2396      6720696E 
 2396      7400
 2397              	.LASF60:
 2398 00cc 67707453 		.ascii	"gptStartOneShot\000"
 2398      74617274 
 2398      4F6E6553 
 2398      686F7400 
 2399              	.LASF56:
 2400 00dc 67707453 		.ascii	"gptStartContinuousI\000"
 2400      74617274 
 2400      436F6E74 
 2400      696E756F 
 2400      75734900 
 2401              	.LASF7:
 2402 00f0 6C6F6E67 		.ascii	"long int\000"
 2402      20696E74 
 2402      00
 2403              	.LASF53:
 2404 00f9 67707453 		.ascii	"gptStart\000"
 2404      74617274 
 2404      00
 2405              	.LASF63:
 2406 0102 67707450 		.ascii	"gptPolledDelay\000"
 2406      6F6C6C65 
 2406      6444656C 
 2406      617900
 2407              	.LASF21:
 2408 0111 43434D52 		.ascii	"CCMR1\000"
 2408      3100
 2409              	.LASF15:
 2410 0117 534D4352 		.ascii	"SMCR\000"
ARM GAS  C:\Users\z80\AppData\Local\Temp\ccgwS4gh.s 			page 46


 2410      00
 2411              	.LASF2:
 2412 011c 756E7369 		.ascii	"unsigned char\000"
 2412      676E6564 
 2412      20636861 
 2412      7200
 2413              	.LASF68:
 2414 012a 67707449 		.ascii	"gptInit\000"
 2414      6E697400 
 2415              	.LASF58:
 2416 0132 67707453 		.ascii	"gptStartContinuous\000"
 2416      74617274 
 2416      436F6E74 
 2416      696E756F 
 2416      757300
 2417              	.LASF1:
 2418 0145 7369676E 		.ascii	"signed char\000"
 2418      65642063 
 2418      68617200 
 2419              	.LASF11:
 2420 0151 6C6F6E67 		.ascii	"long long unsigned int\000"
 2420      206C6F6E 
 2420      6720756E 
 2420      7369676E 
 2420      65642069 
 2421              	.LASF8:
 2422 0168 75696E74 		.ascii	"uint32_t\000"
 2422      33325F74 
 2422      00
 2423              	.LASF0:
 2424 0171 756E7369 		.ascii	"unsigned int\000"
 2424      676E6564 
 2424      20696E74 
 2424      00
 2425              	.LASF5:
 2426 017e 75696E74 		.ascii	"uint16_t\000"
 2426      31365F74 
 2426      00
 2427              	.LASF17:
 2428 0187 44494552 		.ascii	"DIER\000"
 2428      00
 2429              	.LASF30:
 2430 018c 5F726573 		.ascii	"_resvd11\000"
 2430      76643131 
 2430      00
 2431              	.LASF31:
 2432 0195 5F726573 		.ascii	"_resvd12\000"
 2432      76643132 
 2432      00
 2433              	.LASF33:
 2434 019e 5F726573 		.ascii	"_resvd13\000"
 2434      76643133 
 2434      00
 2435              	.LASF34:
 2436 01a7 5F726573 		.ascii	"_resvd14\000"
 2436      76643134 
 2436      00
ARM GAS  C:\Users\z80\AppData\Local\Temp\ccgwS4gh.s 			page 47


 2437              	.LASF4:
 2438 01b0 73686F72 		.ascii	"short unsigned int\000"
 2438      7420756E 
 2438      7369676E 
 2438      65642069 
 2438      6E7400
 2439              	.LASF12:
 2440 01c3 63686172 		.ascii	"char\000"
 2440      00
 2441              	.LASF35:
 2442 01c8 73746D33 		.ascii	"stm32_tim_t\000"
 2442      325F7469 
 2442      6D5F7400 
 2443              	.LASF29:
 2444 01d4 42445452 		.ascii	"BDTR\000"
 2444      00
 2445              	.LASF6:
 2446 01d9 696E7433 		.ascii	"int32_t\000"
 2446      325F7400 
 2447              	.LASF39:
 2448 01e1 4750545F 		.ascii	"GPT_CONTINUOUS\000"
 2448      434F4E54 
 2448      494E554F 
 2448      555300
 2449              	.LASF38:
 2450 01f0 4750545F 		.ascii	"GPT_READY\000"
 2450      52454144 
 2450      5900
 2451              	.LASF42:
 2452 01fa 47505444 		.ascii	"GPTDriver\000"
 2452      72697665 
 2452      7200
 2453              	.LASF9:
 2454 0204 6C6F6E67 		.ascii	"long unsigned int\000"
 2454      20756E73 
 2454      69676E65 
 2454      6420696E 
 2454      7400
 2455              	.LASF45:
 2456 0216 636C6F63 		.ascii	"clock\000"
 2456      6B00
 2457              	.LASF67:
 2458 021c 433A5C70 		.ascii	"C:\\projects\\digitizer.git\\firmware\\digitizer\000"
 2458      726F6A65 
 2458      6374735C 
 2458      64696769 
 2458      74697A65 
 2459              	.LASF57:
 2460 0249 696E7465 		.ascii	"interval\000"
 2460      7276616C 
 2460      00
 2461              	.LASF65:
 2462 0252 474E5520 		.ascii	"GNU C 4.5.0\000"
 2462      4320342E 
 2462      352E3000 
 2463              	.LASF28:
 2464 025e 5F726573 		.ascii	"_resvd10\000"
ARM GAS  C:\Users\z80\AppData\Local\Temp\ccgwS4gh.s 			page 48


 2464      76643130 
 2464      00
 2465              	.LASF37:
 2466 0267 4750545F 		.ascii	"GPT_STOP\000"
 2466      53544F50 
 2466      00
 2467              	.LASF54:
 2468 0270 67707470 		.ascii	"gptp\000"
 2468      00
 2469              	.LASF51:
 2470 0275 47505443 		.ascii	"GPTConfig\000"
 2470      6F6E6669 
 2470      6700
 2471              	.LASF59:
 2472 027f 67707453 		.ascii	"gptStartOneShotI\000"
 2472      74617274 
 2472      4F6E6553 
 2472      686F7449 
 2472      00
 2473              	.LASF62:
 2474 0290 67707453 		.ascii	"gptStopTimer\000"
 2474      746F7054 
 2474      696D6572 
 2474      00
 2475              	.LASF49:
 2476 029d 66726571 		.ascii	"frequency\000"
 2476      75656E63 
 2476      7900
 2477              	.LASF66:
 2478 02a7 2E2E2F63 		.ascii	"../chibios_2.4.x/os/hal/src/gpt.c\000"
 2478      68696269 
 2478      6F735F32 
 2478      2E342E78 
 2478      2F6F732F 
 2479              	.LASF52:
 2480 02c9 6770744F 		.ascii	"gptObjectInit\000"
 2480      626A6563 
 2480      74496E69 
 2480      7400
 2481              	.LASF64:
 2482 02d7 49544D5F 		.ascii	"ITM_RxBuffer\000"
 2482      52784275 
 2482      66666572 
 2482      00
 2483              	.LASF47:
 2484 02e4 67707466 		.ascii	"gptfreq_t\000"
 2484      7265715F 
 2484      7400
 2485              	.LASF55:
 2486 02ee 67707453 		.ascii	"gptStop\000"
 2486      746F7000 
 2487              	.LASF50:
 2488 02f6 63616C6C 		.ascii	"callback\000"
 2488      6261636B 
 2488      00
 2489              		.ident	"GCC: (GNU) 4.5.0"
ARM GAS  C:\Users\z80\AppData\Local\Temp\ccgwS4gh.s 			page 49


DEFINED SYMBOLS
                            *ABS*:00000000 gpt.c
C:\Users\z80\AppData\Local\Temp\ccgwS4gh.s:24     .text.gptInit:00000000 $t
C:\Users\z80\AppData\Local\Temp\ccgwS4gh.s:30     .text.gptInit:00000000 gptInit
C:\Users\z80\AppData\Local\Temp\ccgwS4gh.s:50     .text.gptObjectInit:00000000 $t
C:\Users\z80\AppData\Local\Temp\ccgwS4gh.s:56     .text.gptObjectInit:00000000 gptObjectInit
C:\Users\z80\AppData\Local\Temp\ccgwS4gh.s:76     .text.gptStart:00000000 $t
C:\Users\z80\AppData\Local\Temp\ccgwS4gh.s:82     .text.gptStart:00000000 gptStart
C:\Users\z80\AppData\Local\Temp\ccgwS4gh.s:163    .text.gptStart:00000054 $d
C:\Users\z80\AppData\Local\Temp\ccgwS4gh.s:169    .text.gptStop:00000000 $t
C:\Users\z80\AppData\Local\Temp\ccgwS4gh.s:175    .text.gptStop:00000000 gptStop
C:\Users\z80\AppData\Local\Temp\ccgwS4gh.s:243    .text.gptStop:00000040 $d
C:\Users\z80\AppData\Local\Temp\ccgwS4gh.s:249    .text.gptStartContinuousI:00000000 $t
C:\Users\z80\AppData\Local\Temp\ccgwS4gh.s:255    .text.gptStartContinuousI:00000000 gptStartContinuousI
C:\Users\z80\AppData\Local\Temp\ccgwS4gh.s:303    .text.gptStartContinuousI:00000030 $d
C:\Users\z80\AppData\Local\Temp\ccgwS4gh.s:309    .text.gptStartContinuous:00000000 $t
C:\Users\z80\AppData\Local\Temp\ccgwS4gh.s:315    .text.gptStartContinuous:00000000 gptStartContinuous
C:\Users\z80\AppData\Local\Temp\ccgwS4gh.s:365    .text.gptStartOneShotI:00000000 $t
C:\Users\z80\AppData\Local\Temp\ccgwS4gh.s:371    .text.gptStartOneShotI:00000000 gptStartOneShotI
C:\Users\z80\AppData\Local\Temp\ccgwS4gh.s:419    .text.gptStartOneShotI:00000030 $d
C:\Users\z80\AppData\Local\Temp\ccgwS4gh.s:425    .text.gptStartOneShot:00000000 $t
C:\Users\z80\AppData\Local\Temp\ccgwS4gh.s:431    .text.gptStartOneShot:00000000 gptStartOneShot
C:\Users\z80\AppData\Local\Temp\ccgwS4gh.s:481    .text.gptStopTimerI:00000000 $t
C:\Users\z80\AppData\Local\Temp\ccgwS4gh.s:487    .text.gptStopTimerI:00000000 gptStopTimerI
C:\Users\z80\AppData\Local\Temp\ccgwS4gh.s:533    .text.gptStopTimerI:00000030 $d
C:\Users\z80\AppData\Local\Temp\ccgwS4gh.s:539    .text.gptStopTimer:00000000 $t
C:\Users\z80\AppData\Local\Temp\ccgwS4gh.s:545    .text.gptStopTimer:00000000 gptStopTimer
C:\Users\z80\AppData\Local\Temp\ccgwS4gh.s:594    .text.gptPolledDelay:00000000 $t
C:\Users\z80\AppData\Local\Temp\ccgwS4gh.s:600    .text.gptPolledDelay:00000000 gptPolledDelay
C:\Users\z80\AppData\Local\Temp\ccgwS4gh.s:645    .text.gptPolledDelay:00000024 $d
C:\Users\z80\AppData\Local\Temp\ccgwS4gh.s:650    .rodata.str1.4:00000000 $d
                     .debug_frame:00000010 $d
C:\Users\z80\AppData\Local\Temp\ccgwS4gh.s:168    .text.gptStart:0000005c $t
C:\Users\z80\AppData\Local\Temp\ccgwS4gh.s:248    .text.gptStop:00000048 $t
C:\Users\z80\AppData\Local\Temp\ccgwS4gh.s:308    .text.gptStartContinuousI:00000038 $t
C:\Users\z80\AppData\Local\Temp\ccgwS4gh.s:424    .text.gptStartOneShotI:00000038 $t
C:\Users\z80\AppData\Local\Temp\ccgwS4gh.s:538    .text.gptStopTimerI:00000038 $t
C:\Users\z80\AppData\Local\Temp\ccgwS4gh.s:649    .text.gptPolledDelay:00000028 $t

UNDEFINED SYMBOLS
gpt_lld_init
dbg_check_lock
chDbgPanic
gpt_lld_start
dbg_check_unlock
gpt_lld_stop
chDbgCheckClassI
gpt_lld_start_timer
gpt_lld_stop_timer
gpt_lld_polled_delay
