ARM GAS  C:\Users\z80\AppData\Local\Temp\ccR63Wvm.s 			page 1


   1              		.syntax unified
   2              		.cpu cortex-m3
   3              		.fpu softvfp
   4              		.eabi_attribute 20, 1
   5              		.eabi_attribute 21, 1
   6              		.eabi_attribute 23, 3
   7              		.eabi_attribute 24, 1
   8              		.eabi_attribute 25, 1
   9              		.eabi_attribute 26, 1
  10              		.eabi_attribute 30, 2
  11              		.eabi_attribute 34, 1
  12              		.eabi_attribute 18, 4
  13              		.thumb
  14              		.file	"gpt.c"
  15              		.text
  16              	.Ltext0:
  17              		.cfi_sections	.debug_frame
  18              		.section	.text.gptInit,"ax",%progbits
  19              		.align	2
  20              		.p2align 4,,15
  21              		.global	gptInit
  22              		.thumb
  23              		.thumb_func
  24              		.type	gptInit, %function
  25              	gptInit:
  26              	.LFB62:
  27              		.file 1 "../chibios_2.4.x/os/hal/src/gpt.c"
  28              		.loc 1 68 0
  29              		.cfi_startproc
  30              		@ args = 0, pretend = 0, frame = 0
  31              		@ frame_needed = 0, uses_anonymous_args = 0
  32              		@ link register save eliminated.
  33              		.loc 1 71 0
  34              		.loc 1 70 0
  35 0000 FFF7FEBF 		b	gpt_lld_init
  36              		.cfi_endproc
  37              	.LFE62:
  38              		.size	gptInit, .-gptInit
  39 0004 AFF30080 		.section	.text.gptObjectInit,"ax",%progbits
  39      AFF30080 
  39      AFF30080 
  40              		.align	2
  41              		.p2align 4,,15
  42              		.global	gptObjectInit
  43              		.thumb
  44              		.thumb_func
  45              		.type	gptObjectInit, %function
  46              	gptObjectInit:
  47              	.LFB63:
  48              		.loc 1 80 0
  49              		.cfi_startproc
  50              		@ args = 0, pretend = 0, frame = 0
  51              		@ frame_needed = 0, uses_anonymous_args = 0
  52              		@ link register save eliminated.
  53              	.LVL0:
  54              		.loc 1 82 0
  55 0000 0121     		movs	r1, #1
ARM GAS  C:\Users\z80\AppData\Local\Temp\ccR63Wvm.s 			page 2


  56              		.loc 1 83 0
  57 0002 0023     		movs	r3, #0
  58              		.loc 1 82 0
  59 0004 0170     		strb	r1, [r0, #0]
  60              		.loc 1 83 0
  61 0006 4360     		str	r3, [r0, #4]
  62              		.loc 1 84 0
  63 0008 7047     		bx	lr
  64              		.cfi_endproc
  65              	.LFE63:
  66              		.size	gptObjectInit, .-gptObjectInit
  67 000a 00BFAFF3 		.section	.text.gptStart,"ax",%progbits
  67      0080
  68              		.align	2
  69              		.p2align 4,,15
  70              		.global	gptStart
  71              		.thumb
  72              		.thumb_func
  73              		.type	gptStart, %function
  74              	gptStart:
  75              	.LFB64:
  76              		.loc 1 94 0
  77              		.cfi_startproc
  78              		@ args = 0, pretend = 0, frame = 0
  79              		@ frame_needed = 0, uses_anonymous_args = 0
  80              	.LVL1:
  81 0000 38B5     		push	{r3, r4, r5, lr}
  82              	.LCFI0:
  83              		.cfi_def_cfa_offset 16
  84              		.cfi_offset 14, -4
  85              		.cfi_offset 5, -8
  86              		.cfi_offset 4, -12
  87              		.cfi_offset 3, -16
  88              		.loc 1 96 0
  89 0002 D0F10103 		rsbs	r3, r0, #1
  90 0006 38BF     		it	cc
  91 0008 0023     		movcc	r3, #0
  92 000a 0029     		cmp	r1, #0
  93 000c 08BF     		it	eq
  94 000e 43F00103 		orreq	r3, r3, #1
  95 0012 0446     		mov	r4, r0
  96 0014 0D46     		mov	r5, r1
  97 0016 DBB9     		cbnz	r3, .L7
  98              	.LVL2:
  99              	.L4:
 100              	.LBB2:
 101              		.loc 1 98 0
 102 0018 2023     		movs	r3, #32
 103              	.LVL3:
 104              	@ 98 "../chibios_2.4.x/os/hal/src/gpt.c" 1
 105 001a 83F31188 		msr     BASEPRI, r3
 106              	@ 0 "" 2
 107              	.LVL4:
 108              		.thumb
 109              	.LBE2:
 110 001e FFF7FEFF 		bl	dbg_check_lock
 111              	.LVL5:
ARM GAS  C:\Users\z80\AppData\Local\Temp\ccR63Wvm.s 			page 3


 112              		.loc 1 99 0
 113 0022 2278     		ldrb	r2, [r4, #0]	@ zero_extendqisi2
 114 0024 511E     		subs	r1, r2, #1
 115 0026 C8B2     		uxtb	r0, r1
 116 0028 0128     		cmp	r0, #1
 117 002a 05D9     		bls	.L5
 118              		.loc 1 99 0 is_stmt 0 discriminator 1
 119 002c 40F20000 		movw	r0, #:lower16:.LC1
 120 0030 C0F20000 		movt	r0, #:upper16:.LC1
 121 0034 FFF7FEFF 		bl	chDbgPanic
 122              	.L5:
 123              		.loc 1 102 0 is_stmt 1
 124 0038 2046     		mov	r0, r4
 125              		.loc 1 101 0
 126 003a 6560     		str	r5, [r4, #4]
 127              		.loc 1 102 0
 128 003c FFF7FEFF 		bl	gpt_lld_start
 129              		.loc 1 103 0
 130 0040 0223     		movs	r3, #2
 131 0042 2370     		strb	r3, [r4, #0]
 132              		.loc 1 104 0
 133 0044 FFF7FEFF 		bl	dbg_check_unlock
 134              	.LBB3:
 135 0048 0023     		movs	r3, #0
 136              	.LVL6:
 137              	@ 104 "../chibios_2.4.x/os/hal/src/gpt.c" 1
 138 004a 83F31188 		msr     BASEPRI, r3
 139              	@ 0 "" 2
 140              	.LVL7:
 141              		.thumb
 142              	.LBE3:
 143              		.loc 1 105 0
 144 004e 38BD     		pop	{r3, r4, r5, pc}
 145              	.LVL8:
 146              	.L7:
 147              		.loc 1 96 0 discriminator 1
 148 0050 40F20000 		movw	r0, #:lower16:.LC0
 149 0054 C0F20000 		movt	r0, #:upper16:.LC0
 150 0058 FFF7FEFF 		bl	chDbgPanic
 151 005c DCE7     		b	.L4
 152              		.cfi_endproc
 153              	.LFE64:
 154              		.size	gptStart, .-gptStart
 155 005e 00BF     		.section	.text.gptStop,"ax",%progbits
 156              		.align	2
 157              		.p2align 4,,15
 158              		.global	gptStop
 159              		.thumb
 160              		.thumb_func
 161              		.type	gptStop, %function
 162              	gptStop:
 163              	.LFB65:
 164              		.loc 1 114 0
 165              		.cfi_startproc
 166              		@ args = 0, pretend = 0, frame = 0
 167              		@ frame_needed = 0, uses_anonymous_args = 0
 168              	.LVL9:
ARM GAS  C:\Users\z80\AppData\Local\Temp\ccR63Wvm.s 			page 4


 169 0000 10B5     		push	{r4, lr}
 170              	.LCFI1:
 171              		.cfi_def_cfa_offset 8
 172              		.cfi_offset 14, -4
 173              		.cfi_offset 4, -8
 174              		.loc 1 116 0
 175 0002 0446     		mov	r4, r0
 176 0004 D0B1     		cbz	r0, .L11
 177              	.LVL10:
 178              	.L9:
 179              	.LBB4:
 180              		.loc 1 118 0
 181 0006 2023     		movs	r3, #32
 182              	.LVL11:
 183              	@ 118 "../chibios_2.4.x/os/hal/src/gpt.c" 1
 184 0008 83F31188 		msr     BASEPRI, r3
 185              	@ 0 "" 2
 186              	.LVL12:
 187              		.thumb
 188              	.LBE4:
 189 000c FFF7FEFF 		bl	dbg_check_lock
 190              	.LVL13:
 191              		.loc 1 119 0
 192 0010 2178     		ldrb	r1, [r4, #0]	@ zero_extendqisi2
 193 0012 481E     		subs	r0, r1, #1
 194 0014 C3B2     		uxtb	r3, r0
 195 0016 012B     		cmp	r3, #1
 196 0018 05D9     		bls	.L10
 197              		.loc 1 119 0 is_stmt 0 discriminator 1
 198 001a 40F20000 		movw	r0, #:lower16:.LC3
 199 001e C0F20000 		movt	r0, #:upper16:.LC3
 200 0022 FFF7FEFF 		bl	chDbgPanic
 201              	.L10:
 202              		.loc 1 121 0 is_stmt 1
 203 0026 2046     		mov	r0, r4
 204 0028 FFF7FEFF 		bl	gpt_lld_stop
 205              		.loc 1 122 0
 206 002c 0122     		movs	r2, #1
 207 002e 2270     		strb	r2, [r4, #0]
 208              		.loc 1 123 0
 209 0030 FFF7FEFF 		bl	dbg_check_unlock
 210              	.LBB5:
 211 0034 0023     		movs	r3, #0
 212              	.LVL14:
 213              	@ 123 "../chibios_2.4.x/os/hal/src/gpt.c" 1
 214 0036 83F31188 		msr     BASEPRI, r3
 215              	@ 0 "" 2
 216              	.LVL15:
 217              		.thumb
 218              	.LBE5:
 219              		.loc 1 124 0
 220 003a 10BD     		pop	{r4, pc}
 221              	.LVL16:
 222              	.L11:
 223              		.loc 1 116 0 discriminator 1
 224 003c 40F20000 		movw	r0, #:lower16:.LC2
 225 0040 C0F20000 		movt	r0, #:upper16:.LC2
ARM GAS  C:\Users\z80\AppData\Local\Temp\ccR63Wvm.s 			page 5


 226 0044 FFF7FEFF 		bl	chDbgPanic
 227 0048 DDE7     		b	.L9
 228              		.cfi_endproc
 229              	.LFE65:
 230              		.size	gptStop, .-gptStop
 231 004a 00BFAFF3 		.section	.text.gptStartContinuousI,"ax",%progbits
 231      0080
 232              		.align	2
 233              		.p2align 4,,15
 234              		.global	gptStartContinuousI
 235              		.thumb
 236              		.thumb_func
 237              		.type	gptStartContinuousI, %function
 238              	gptStartContinuousI:
 239              	.LFB67:
 240              		.loc 1 149 0
 241              		.cfi_startproc
 242              		@ args = 0, pretend = 0, frame = 0
 243              		@ frame_needed = 0, uses_anonymous_args = 0
 244              	.LVL17:
 245 0000 38B5     		push	{r3, r4, r5, lr}
 246              	.LCFI2:
 247              		.cfi_def_cfa_offset 16
 248              		.cfi_offset 14, -4
 249              		.cfi_offset 5, -8
 250              		.cfi_offset 4, -12
 251              		.cfi_offset 3, -16
 252              		.loc 1 149 0
 253 0002 0446     		mov	r4, r0
 254 0004 0D46     		mov	r5, r1
 255              		.loc 1 151 0
 256 0006 FFF7FEFF 		bl	chDbgCheckClassI
 257              	.LVL18:
 258              		.loc 1 152 0
 259 000a 84B1     		cbz	r4, .L15
 260              	.L13:
 261              		.loc 1 153 0
 262 000c 2378     		ldrb	r3, [r4, #0]	@ zero_extendqisi2
 263 000e 022B     		cmp	r3, #2
 264 0010 05D0     		beq	.L14
 265              		.loc 1 153 0 is_stmt 0 discriminator 1
 266 0012 40F20000 		movw	r0, #:lower16:.LC5
 267 0016 C0F20000 		movt	r0, #:upper16:.LC5
 268 001a FFF7FEFF 		bl	chDbgPanic
 269              	.L14:
 270              		.loc 1 156 0 is_stmt 1
 271 001e 0320     		movs	r0, #3
 272 0020 2070     		strb	r0, [r4, #0]
 273              		.loc 1 157 0
 274 0022 2946     		mov	r1, r5
 275 0024 2046     		mov	r0, r4
 276              		.loc 1 158 0
 277 0026 BDE83840 		pop	{r3, r4, r5, lr}
 278              		.loc 1 157 0
 279 002a FFF7FEBF 		b	gpt_lld_start_timer
 280              	.L15:
 281              		.loc 1 152 0 discriminator 1
ARM GAS  C:\Users\z80\AppData\Local\Temp\ccR63Wvm.s 			page 6


 282 002e 40F20000 		movw	r0, #:lower16:.LC4
 283 0032 C0F20000 		movt	r0, #:upper16:.LC4
 284 0036 FFF7FEFF 		bl	chDbgPanic
 285 003a E7E7     		b	.L13
 286              		.cfi_endproc
 287              	.LFE67:
 288              		.size	gptStartContinuousI, .-gptStartContinuousI
 289 003c AFF30080 		.section	.text.gptStartContinuous,"ax",%progbits
 290              		.align	2
 291              		.p2align 4,,15
 292              		.global	gptStartContinuous
 293              		.thumb
 294              		.thumb_func
 295              		.type	gptStartContinuous, %function
 296              	gptStartContinuous:
 297              	.LFB66:
 298              		.loc 1 134 0
 299              		.cfi_startproc
 300              		@ args = 0, pretend = 0, frame = 0
 301              		@ frame_needed = 0, uses_anonymous_args = 0
 302              	.LVL19:
 303 0000 38B5     		push	{r3, r4, r5, lr}
 304              	.LCFI3:
 305              		.cfi_def_cfa_offset 16
 306              		.cfi_offset 14, -4
 307              		.cfi_offset 5, -8
 308              		.cfi_offset 4, -12
 309              		.cfi_offset 3, -16
 310              		.loc 1 134 0
 311 0002 0546     		mov	r5, r0
 312 0004 0C46     		mov	r4, r1
 313              	.LBB6:
 314              		.loc 1 136 0
 315 0006 2023     		movs	r3, #32
 316              	.LVL20:
 317              	@ 136 "../chibios_2.4.x/os/hal/src/gpt.c" 1
 318 0008 83F31188 		msr     BASEPRI, r3
 319              	@ 0 "" 2
 320              	.LVL21:
 321              		.thumb
 322              	.LBE6:
 323 000c FFF7FEFF 		bl	dbg_check_lock
 324              	.LVL22:
 325              		.loc 1 137 0
 326 0010 2846     		mov	r0, r5
 327 0012 2146     		mov	r1, r4
 328 0014 FFF7FEFF 		bl	gptStartContinuousI
 329              		.loc 1 138 0
 330 0018 FFF7FEFF 		bl	dbg_check_unlock
 331              	.LBB7:
 332 001c 0023     		movs	r3, #0
 333              	.LVL23:
 334              	@ 138 "../chibios_2.4.x/os/hal/src/gpt.c" 1
 335 001e 83F31188 		msr     BASEPRI, r3
 336              	@ 0 "" 2
 337              	.LVL24:
 338              		.thumb
ARM GAS  C:\Users\z80\AppData\Local\Temp\ccR63Wvm.s 			page 7


 339              	.LBE7:
 340              		.loc 1 139 0
 341 0022 38BD     		pop	{r3, r4, r5, pc}
 342              		.cfi_endproc
 343              	.LFE66:
 344              		.size	gptStartContinuous, .-gptStartContinuous
 345 0024 AFF30080 		.section	.text.gptStartOneShotI,"ax",%progbits
 345      AFF30080 
 345      AFF30080 
 346              		.align	2
 347              		.p2align 4,,15
 348              		.global	gptStartOneShotI
 349              		.thumb
 350              		.thumb_func
 351              		.type	gptStartOneShotI, %function
 352              	gptStartOneShotI:
 353              	.LFB69:
 354              		.loc 1 183 0
 355              		.cfi_startproc
 356              		@ args = 0, pretend = 0, frame = 0
 357              		@ frame_needed = 0, uses_anonymous_args = 0
 358              	.LVL25:
 359 0000 38B5     		push	{r3, r4, r5, lr}
 360              	.LCFI4:
 361              		.cfi_def_cfa_offset 16
 362              		.cfi_offset 14, -4
 363              		.cfi_offset 5, -8
 364              		.cfi_offset 4, -12
 365              		.cfi_offset 3, -16
 366              		.loc 1 183 0
 367 0002 0446     		mov	r4, r0
 368 0004 0D46     		mov	r5, r1
 369              		.loc 1 185 0
 370 0006 FFF7FEFF 		bl	chDbgCheckClassI
 371              	.LVL26:
 372              		.loc 1 186 0
 373 000a 84B1     		cbz	r4, .L20
 374              	.L18:
 375              		.loc 1 187 0
 376 000c 2378     		ldrb	r3, [r4, #0]	@ zero_extendqisi2
 377 000e 022B     		cmp	r3, #2
 378 0010 05D0     		beq	.L19
 379              		.loc 1 187 0 is_stmt 0 discriminator 1
 380 0012 40F20000 		movw	r0, #:lower16:.LC7
 381 0016 C0F20000 		movt	r0, #:upper16:.LC7
 382 001a FFF7FEFF 		bl	chDbgPanic
 383              	.L19:
 384              		.loc 1 190 0 is_stmt 1
 385 001e 0420     		movs	r0, #4
 386 0020 2070     		strb	r0, [r4, #0]
 387              		.loc 1 191 0
 388 0022 2946     		mov	r1, r5
 389 0024 2046     		mov	r0, r4
 390              		.loc 1 192 0
 391 0026 BDE83840 		pop	{r3, r4, r5, lr}
 392              		.loc 1 191 0
 393 002a FFF7FEBF 		b	gpt_lld_start_timer
ARM GAS  C:\Users\z80\AppData\Local\Temp\ccR63Wvm.s 			page 8


 394              	.L20:
 395              		.loc 1 186 0 discriminator 1
 396 002e 40F20000 		movw	r0, #:lower16:.LC6
 397 0032 C0F20000 		movt	r0, #:upper16:.LC6
 398 0036 FFF7FEFF 		bl	chDbgPanic
 399 003a E7E7     		b	.L18
 400              		.cfi_endproc
 401              	.LFE69:
 402              		.size	gptStartOneShotI, .-gptStartOneShotI
 403 003c AFF30080 		.section	.text.gptStartOneShot,"ax",%progbits
 404              		.align	2
 405              		.p2align 4,,15
 406              		.global	gptStartOneShot
 407              		.thumb
 408              		.thumb_func
 409              		.type	gptStartOneShot, %function
 410              	gptStartOneShot:
 411              	.LFB68:
 412              		.loc 1 168 0
 413              		.cfi_startproc
 414              		@ args = 0, pretend = 0, frame = 0
 415              		@ frame_needed = 0, uses_anonymous_args = 0
 416              	.LVL27:
 417 0000 38B5     		push	{r3, r4, r5, lr}
 418              	.LCFI5:
 419              		.cfi_def_cfa_offset 16
 420              		.cfi_offset 14, -4
 421              		.cfi_offset 5, -8
 422              		.cfi_offset 4, -12
 423              		.cfi_offset 3, -16
 424              		.loc 1 168 0
 425 0002 0546     		mov	r5, r0
 426 0004 0C46     		mov	r4, r1
 427              	.LBB8:
 428              		.loc 1 170 0
 429 0006 2023     		movs	r3, #32
 430              	.LVL28:
 431              	@ 170 "../chibios_2.4.x/os/hal/src/gpt.c" 1
 432 0008 83F31188 		msr     BASEPRI, r3
 433              	@ 0 "" 2
 434              	.LVL29:
 435              		.thumb
 436              	.LBE8:
 437 000c FFF7FEFF 		bl	dbg_check_lock
 438              	.LVL30:
 439              		.loc 1 171 0
 440 0010 2846     		mov	r0, r5
 441 0012 2146     		mov	r1, r4
 442 0014 FFF7FEFF 		bl	gptStartOneShotI
 443              		.loc 1 172 0
 444 0018 FFF7FEFF 		bl	dbg_check_unlock
 445              	.LBB9:
 446 001c 0023     		movs	r3, #0
 447              	.LVL31:
 448              	@ 172 "../chibios_2.4.x/os/hal/src/gpt.c" 1
 449 001e 83F31188 		msr     BASEPRI, r3
 450              	@ 0 "" 2
ARM GAS  C:\Users\z80\AppData\Local\Temp\ccR63Wvm.s 			page 9


 451              	.LVL32:
 452              		.thumb
 453              	.LBE9:
 454              		.loc 1 173 0
 455 0022 38BD     		pop	{r3, r4, r5, pc}
 456              		.cfi_endproc
 457              	.LFE68:
 458              		.size	gptStartOneShot, .-gptStartOneShot
 459 0024 AFF30080 		.section	.text.gptStopTimerI,"ax",%progbits
 459      AFF30080 
 459      AFF30080 
 460              		.align	2
 461              		.p2align 4,,15
 462              		.global	gptStopTimerI
 463              		.thumb
 464              		.thumb_func
 465              		.type	gptStopTimerI, %function
 466              	gptStopTimerI:
 467              	.LFB71:
 468              		.loc 1 215 0
 469              		.cfi_startproc
 470              		@ args = 0, pretend = 0, frame = 0
 471              		@ frame_needed = 0, uses_anonymous_args = 0
 472              	.LVL33:
 473 0000 10B5     		push	{r4, lr}
 474              	.LCFI6:
 475              		.cfi_def_cfa_offset 8
 476              		.cfi_offset 14, -4
 477              		.cfi_offset 4, -8
 478              		.loc 1 215 0
 479 0002 0446     		mov	r4, r0
 480              		.loc 1 217 0
 481 0004 FFF7FEFF 		bl	chDbgCheckClassI
 482              	.LVL34:
 483              		.loc 1 218 0
 484 0008 8CB1     		cbz	r4, .L25
 485              	.L23:
 486              		.loc 1 219 0
 487 000a 2178     		ldrb	r1, [r4, #0]	@ zero_extendqisi2
 488 000c 881E     		subs	r0, r1, #2
 489 000e C3B2     		uxtb	r3, r0
 490 0010 022B     		cmp	r3, #2
 491 0012 05D9     		bls	.L24
 492              		.loc 1 219 0 is_stmt 0 discriminator 1
 493 0014 40F20000 		movw	r0, #:lower16:.LC9
 494 0018 C0F20000 		movt	r0, #:upper16:.LC9
 495 001c FFF7FEFF 		bl	chDbgPanic
 496              	.L24:
 497              		.loc 1 223 0 is_stmt 1
 498 0020 0222     		movs	r2, #2
 499              		.loc 1 224 0
 500 0022 2046     		mov	r0, r4
 501              		.loc 1 223 0
 502 0024 2270     		strb	r2, [r4, #0]
 503              		.loc 1 225 0
 504 0026 BDE81040 		pop	{r4, lr}
 505              		.loc 1 224 0
ARM GAS  C:\Users\z80\AppData\Local\Temp\ccR63Wvm.s 			page 10


 506 002a FFF7FEBF 		b	gpt_lld_stop_timer
 507              	.L25:
 508              		.loc 1 218 0 discriminator 1
 509 002e 40F20000 		movw	r0, #:lower16:.LC8
 510 0032 C0F20000 		movt	r0, #:upper16:.LC8
 511 0036 FFF7FEFF 		bl	chDbgPanic
 512 003a E6E7     		b	.L23
 513              		.cfi_endproc
 514              	.LFE71:
 515              		.size	gptStopTimerI, .-gptStopTimerI
 516 003c AFF30080 		.section	.text.gptStopTimer,"ax",%progbits
 517              		.align	2
 518              		.p2align 4,,15
 519              		.global	gptStopTimer
 520              		.thumb
 521              		.thumb_func
 522              		.type	gptStopTimer, %function
 523              	gptStopTimer:
 524              	.LFB70:
 525              		.loc 1 201 0
 526              		.cfi_startproc
 527              		@ args = 0, pretend = 0, frame = 0
 528              		@ frame_needed = 0, uses_anonymous_args = 0
 529              	.LVL35:
 530 0000 10B5     		push	{r4, lr}
 531              	.LCFI7:
 532              		.cfi_def_cfa_offset 8
 533              		.cfi_offset 14, -4
 534              		.cfi_offset 4, -8
 535              	.LBB10:
 536              		.loc 1 203 0
 537 0002 2023     		movs	r3, #32
 538              	.LVL36:
 539              	.LBE10:
 540              		.loc 1 201 0
 541 0004 0446     		mov	r4, r0
 542              	.LBB11:
 543              		.loc 1 203 0
 544              	@ 203 "../chibios_2.4.x/os/hal/src/gpt.c" 1
 545 0006 83F31188 		msr     BASEPRI, r3
 546              	@ 0 "" 2
 547              	.LVL37:
 548              		.thumb
 549              	.LBE11:
 550 000a FFF7FEFF 		bl	dbg_check_lock
 551              	.LVL38:
 552              		.loc 1 204 0
 553 000e 2046     		mov	r0, r4
 554 0010 FFF7FEFF 		bl	gptStopTimerI
 555              		.loc 1 205 0
 556 0014 FFF7FEFF 		bl	dbg_check_unlock
 557              	.LBB12:
 558 0018 0023     		movs	r3, #0
 559              	.LVL39:
 560              	@ 205 "../chibios_2.4.x/os/hal/src/gpt.c" 1
 561 001a 83F31188 		msr     BASEPRI, r3
 562              	@ 0 "" 2
ARM GAS  C:\Users\z80\AppData\Local\Temp\ccR63Wvm.s 			page 11


 563              	.LVL40:
 564              		.thumb
 565              	.LBE12:
 566              		.loc 1 206 0
 567 001e 10BD     		pop	{r4, pc}
 568              		.cfi_endproc
 569              	.LFE70:
 570              		.size	gptStopTimer, .-gptStopTimer
 571              		.section	.text.gptPolledDelay,"ax",%progbits
 572              		.align	2
 573              		.p2align 4,,15
 574              		.global	gptPolledDelay
 575              		.thumb
 576              		.thumb_func
 577              		.type	gptPolledDelay, %function
 578              	gptPolledDelay:
 579              	.LFB72:
 580              		.loc 1 239 0
 581              		.cfi_startproc
 582              		@ args = 0, pretend = 0, frame = 0
 583              		@ frame_needed = 0, uses_anonymous_args = 0
 584              	.LVL41:
 585 0000 38B5     		push	{r3, r4, r5, lr}
 586              	.LCFI8:
 587              		.cfi_def_cfa_offset 16
 588              		.cfi_offset 14, -4
 589              		.cfi_offset 5, -8
 590              		.cfi_offset 4, -12
 591              		.cfi_offset 3, -16
 592              		.loc 1 241 0
 593 0002 0378     		ldrb	r3, [r0, #0]	@ zero_extendqisi2
 594              		.loc 1 239 0
 595 0004 0446     		mov	r4, r0
 596              		.loc 1 241 0
 597 0006 022B     		cmp	r3, #2
 598              		.loc 1 239 0
 599 0008 0D46     		mov	r5, r1
 600              		.loc 1 241 0
 601 000a 05D0     		beq	.L28
 602              		.loc 1 241 0 is_stmt 0 discriminator 1
 603 000c 40F20000 		movw	r0, #:lower16:.LC10
 604              	.LVL42:
 605 0010 C0F20000 		movt	r0, #:upper16:.LC10
 606 0014 FFF7FEFF 		bl	chDbgPanic
 607              	.LVL43:
 608              	.L28:
 609              		.loc 1 244 0 is_stmt 1
 610 0018 0421     		movs	r1, #4
 611 001a 2170     		strb	r1, [r4, #0]
 612              		.loc 1 245 0
 613 001c 2046     		mov	r0, r4
 614 001e 2946     		mov	r1, r5
 615 0020 FFF7FEFF 		bl	gpt_lld_polled_delay
 616              		.loc 1 246 0
 617 0024 0220     		movs	r0, #2
 618 0026 2070     		strb	r0, [r4, #0]
 619              		.loc 1 247 0
ARM GAS  C:\Users\z80\AppData\Local\Temp\ccR63Wvm.s 			page 12


 620 0028 38BD     		pop	{r3, r4, r5, pc}
 621              		.cfi_endproc
 622              	.LFE72:
 623              		.size	gptPolledDelay, .-gptPolledDelay
 624 002a 00BFAFF3 		.section	.rodata.str1.4,"aMS",%progbits,1
 624      0080
 625              		.align	2
 626              	.LC0:
 627 0000 22707453 		.ascii	"\"ptStart\"()\000"
 627      74617274 
 627      22282900 
 628              	.LC1:
 629 000c 67707453 		.ascii	"gptStart(), #1\000"
 629      74617274 
 629      28292C20 
 629      233100
 630 001b 00       		.space	1
 631              	.LC2:
 632 001c 22677074 		.ascii	"\"gptStop\"()\000"
 632      53746F70 
 632      22282900 
 633              	.LC3:
 634 0028 67707453 		.ascii	"gptStop(), #1\000"
 634      746F7028 
 634      292C2023 
 634      3100
 635 0036 0000     		.space	2
 636              	.LC4:
 637 0038 22677074 		.ascii	"\"gptStartContinuousI\"()\000"
 637      53746172 
 637      74436F6E 
 637      74696E75 
 637      6F757349 
 638              	.LC5:
 639 0050 67707453 		.ascii	"gptStartContinuousI(), #1\000"
 639      74617274 
 639      436F6E74 
 639      696E756F 
 639      75734928 
 640 006a 0000     		.space	2
 641              	.LC6:
 642 006c 22677074 		.ascii	"\"gptStartOneShotI\"()\000"
 642      53746172 
 642      744F6E65 
 642      53686F74 
 642      49222829 
 643 0081 000000   		.space	3
 644              	.LC7:
 645 0084 67707453 		.ascii	"gptStartOneShotI(), #1\000"
 645      74617274 
 645      4F6E6553 
 645      686F7449 
 645      28292C20 
 646 009b 00       		.space	1
 647              	.LC8:
 648 009c 22677074 		.ascii	"\"gptStopTimerI\"()\000"
 648      53746F70 
ARM GAS  C:\Users\z80\AppData\Local\Temp\ccR63Wvm.s 			page 13


 648      54696D65 
 648      72492228 
 648      2900
 649 00ae 0000     		.space	2
 650              	.LC9:
 651 00b0 67707453 		.ascii	"gptStopTimerI(), #1\000"
 651      746F7054 
 651      696D6572 
 651      4928292C 
 651      20233100 
 652              	.LC10:
 653 00c4 67707450 		.ascii	"gptPolledDelay(), #1\000"
 653      6F6C6C65 
 653      6444656C 
 653      61792829 
 653      2C202331 
 654 00d9 000000   		.text
 655              	.Letext0:
 656              		.file 2 "c:\\programs\\codesourcery\\2011.03-56\\bin\\../lib/gcc/arm-none-eabi/4.6.3/../../../../a
 657              		.file 3 "../chibios_2.4.x/os/hal/platforms/STM32/stm32.h"
 658              		.file 4 "../chibios_2.4.x/os/hal/include/gpt.h"
 659              		.file 5 "../chibios_2.4.x/os/hal/platforms/STM32/gpt_lld.h"
 660              		.file 6 "../chibios_2.4.x/os/ports/common/ARMCMx/CMSIS/include/core_cm3.h"
 661              		.section	.debug_info,"",%progbits
 662              	.Ldebug_info0:
 663 0000 B1060000 		.4byte	0x6b1
 664 0004 0200     		.2byte	0x2
 665 0006 00000000 		.4byte	.Ldebug_abbrev0
 666 000a 04       		.byte	0x4
 667 000b 01       		.uleb128 0x1
 668 000c E1010000 		.4byte	.LASF64
 669 0010 01       		.byte	0x1
 670 0011 A7020000 		.4byte	.LASF65
 671 0015 28020000 		.4byte	.LASF66
 672 0019 00000000 		.4byte	0
 673 001d 00000000 		.4byte	0
 674 0021 18000000 		.4byte	.Ldebug_ranges0+0x18
 675 0025 00000000 		.4byte	.Ldebug_line0
 676 0029 02       		.uleb128 0x2
 677 002a 04       		.byte	0x4
 678 002b 05       		.byte	0x5
 679 002c 696E7400 		.ascii	"int\000"
 680 0030 03       		.uleb128 0x3
 681 0031 04       		.byte	0x4
 682 0032 07       		.byte	0x7
 683 0033 71010000 		.4byte	.LASF0
 684 0037 03       		.uleb128 0x3
 685 0038 01       		.byte	0x1
 686 0039 06       		.byte	0x6
 687 003a 45010000 		.4byte	.LASF1
 688 003e 03       		.uleb128 0x3
 689 003f 01       		.byte	0x1
 690 0040 08       		.byte	0x8
 691 0041 1C010000 		.4byte	.LASF2
 692 0045 03       		.uleb128 0x3
 693 0046 02       		.byte	0x2
 694 0047 05       		.byte	0x5
ARM GAS  C:\Users\z80\AppData\Local\Temp\ccR63Wvm.s 			page 14


 695 0048 21000000 		.4byte	.LASF3
 696 004c 04       		.uleb128 0x4
 697 004d 7E010000 		.4byte	.LASF5
 698 0051 02       		.byte	0x2
 699 0052 36       		.byte	0x36
 700 0053 57000000 		.4byte	0x57
 701 0057 03       		.uleb128 0x3
 702 0058 02       		.byte	0x2
 703 0059 07       		.byte	0x7
 704 005a B0010000 		.4byte	.LASF4
 705 005e 04       		.uleb128 0x4
 706 005f D9010000 		.4byte	.LASF6
 707 0063 02       		.byte	0x2
 708 0064 4F       		.byte	0x4f
 709 0065 69000000 		.4byte	0x69
 710 0069 03       		.uleb128 0x3
 711 006a 04       		.byte	0x4
 712 006b 05       		.byte	0x5
 713 006c F0000000 		.4byte	.LASF7
 714 0070 04       		.uleb128 0x4
 715 0071 68010000 		.4byte	.LASF8
 716 0075 02       		.byte	0x2
 717 0076 50       		.byte	0x50
 718 0077 7B000000 		.4byte	0x7b
 719 007b 03       		.uleb128 0x3
 720 007c 04       		.byte	0x4
 721 007d 07       		.byte	0x7
 722 007e 10020000 		.4byte	.LASF9
 723 0082 03       		.uleb128 0x3
 724 0083 08       		.byte	0x8
 725 0084 05       		.byte	0x5
 726 0085 BE000000 		.4byte	.LASF10
 727 0089 03       		.uleb128 0x3
 728 008a 08       		.byte	0x8
 729 008b 07       		.byte	0x7
 730 008c 51010000 		.4byte	.LASF11
 731 0090 05       		.uleb128 0x5
 732 0091 70000000 		.4byte	0x70
 733 0095 03       		.uleb128 0x3
 734 0096 01       		.byte	0x1
 735 0097 08       		.byte	0x8
 736 0098 C3010000 		.4byte	.LASF12
 737 009c 06       		.uleb128 0x6
 738 009d 70000000 		.4byte	0x70
 739 00a1 AC000000 		.4byte	0xac
 740 00a5 07       		.uleb128 0x7
 741 00a6 30000000 		.4byte	0x30
 742 00aa 03       		.byte	0x3
 743 00ab 00       		.byte	0
 744 00ac 05       		.uleb128 0x5
 745 00ad 4C000000 		.4byte	0x4c
 746 00b1 05       		.uleb128 0x5
 747 00b2 5E000000 		.4byte	0x5e
 748 00b6 08       		.uleb128 0x8
 749 00b7 54       		.byte	0x54
 750 00b8 03       		.byte	0x3
 751 00b9 72       		.byte	0x72
ARM GAS  C:\Users\z80\AppData\Local\Temp\ccR63Wvm.s 			page 15


 752 00ba 8B020000 		.4byte	0x28b
 753 00be 09       		.uleb128 0x9
 754 00bf 43523100 		.ascii	"CR1\000"
 755 00c3 03       		.byte	0x3
 756 00c4 73       		.byte	0x73
 757 00c5 AC000000 		.4byte	0xac
 758 00c9 02       		.byte	0x2
 759 00ca 23       		.byte	0x23
 760 00cb 00       		.uleb128 0
 761 00cc 0A       		.uleb128 0xa
 762 00cd 63000000 		.4byte	.LASF13
 763 00d1 03       		.byte	0x3
 764 00d2 74       		.byte	0x74
 765 00d3 4C000000 		.4byte	0x4c
 766 00d7 02       		.byte	0x2
 767 00d8 23       		.byte	0x23
 768 00d9 02       		.uleb128 0x2
 769 00da 09       		.uleb128 0x9
 770 00db 43523200 		.ascii	"CR2\000"
 771 00df 03       		.byte	0x3
 772 00e0 75       		.byte	0x75
 773 00e1 AC000000 		.4byte	0xac
 774 00e5 02       		.byte	0x2
 775 00e6 23       		.byte	0x23
 776 00e7 04       		.uleb128 0x4
 777 00e8 0A       		.uleb128 0xa
 778 00e9 6B000000 		.4byte	.LASF14
 779 00ed 03       		.byte	0x3
 780 00ee 76       		.byte	0x76
 781 00ef 4C000000 		.4byte	0x4c
 782 00f3 02       		.byte	0x2
 783 00f4 23       		.byte	0x23
 784 00f5 06       		.uleb128 0x6
 785 00f6 0A       		.uleb128 0xa
 786 00f7 17010000 		.4byte	.LASF15
 787 00fb 03       		.byte	0x3
 788 00fc 77       		.byte	0x77
 789 00fd AC000000 		.4byte	0xac
 790 0101 02       		.byte	0x2
 791 0102 23       		.byte	0x23
 792 0103 08       		.uleb128 0x8
 793 0104 0A       		.uleb128 0xa
 794 0105 73000000 		.4byte	.LASF16
 795 0109 03       		.byte	0x3
 796 010a 78       		.byte	0x78
 797 010b 4C000000 		.4byte	0x4c
 798 010f 02       		.byte	0x2
 799 0110 23       		.byte	0x23
 800 0111 0A       		.uleb128 0xa
 801 0112 0A       		.uleb128 0xa
 802 0113 87010000 		.4byte	.LASF17
 803 0117 03       		.byte	0x3
 804 0118 79       		.byte	0x79
 805 0119 AC000000 		.4byte	0xac
 806 011d 02       		.byte	0x2
 807 011e 23       		.byte	0x23
 808 011f 0C       		.uleb128 0xc
ARM GAS  C:\Users\z80\AppData\Local\Temp\ccR63Wvm.s 			page 16


 809 0120 0A       		.uleb128 0xa
 810 0121 7B000000 		.4byte	.LASF18
 811 0125 03       		.byte	0x3
 812 0126 7A       		.byte	0x7a
 813 0127 4C000000 		.4byte	0x4c
 814 012b 02       		.byte	0x2
 815 012c 23       		.byte	0x23
 816 012d 0E       		.uleb128 0xe
 817 012e 09       		.uleb128 0x9
 818 012f 535200   		.ascii	"SR\000"
 819 0132 03       		.byte	0x3
 820 0133 7B       		.byte	0x7b
 821 0134 AC000000 		.4byte	0xac
 822 0138 02       		.byte	0x2
 823 0139 23       		.byte	0x23
 824 013a 10       		.uleb128 0x10
 825 013b 0A       		.uleb128 0xa
 826 013c 83000000 		.4byte	.LASF19
 827 0140 03       		.byte	0x3
 828 0141 7C       		.byte	0x7c
 829 0142 4C000000 		.4byte	0x4c
 830 0146 02       		.byte	0x2
 831 0147 23       		.byte	0x23
 832 0148 12       		.uleb128 0x12
 833 0149 09       		.uleb128 0x9
 834 014a 45475200 		.ascii	"EGR\000"
 835 014e 03       		.byte	0x3
 836 014f 7D       		.byte	0x7d
 837 0150 AC000000 		.4byte	0xac
 838 0154 02       		.byte	0x2
 839 0155 23       		.byte	0x23
 840 0156 14       		.uleb128 0x14
 841 0157 0A       		.uleb128 0xa
 842 0158 8B000000 		.4byte	.LASF20
 843 015c 03       		.byte	0x3
 844 015d 7E       		.byte	0x7e
 845 015e 4C000000 		.4byte	0x4c
 846 0162 02       		.byte	0x2
 847 0163 23       		.byte	0x23
 848 0164 16       		.uleb128 0x16
 849 0165 0A       		.uleb128 0xa
 850 0166 11010000 		.4byte	.LASF21
 851 016a 03       		.byte	0x3
 852 016b 7F       		.byte	0x7f
 853 016c AC000000 		.4byte	0xac
 854 0170 02       		.byte	0x2
 855 0171 23       		.byte	0x23
 856 0172 18       		.uleb128 0x18
 857 0173 0A       		.uleb128 0xa
 858 0174 93000000 		.4byte	.LASF22
 859 0178 03       		.byte	0x3
 860 0179 80       		.byte	0x80
 861 017a 4C000000 		.4byte	0x4c
 862 017e 02       		.byte	0x2
 863 017f 23       		.byte	0x23
 864 0180 1A       		.uleb128 0x1a
 865 0181 0A       		.uleb128 0xa
ARM GAS  C:\Users\z80\AppData\Local\Temp\ccR63Wvm.s 			page 17


 866 0182 1B000000 		.4byte	.LASF23
 867 0186 03       		.byte	0x3
 868 0187 81       		.byte	0x81
 869 0188 AC000000 		.4byte	0xac
 870 018c 02       		.byte	0x2
 871 018d 23       		.byte	0x23
 872 018e 1C       		.uleb128 0x1c
 873 018f 0A       		.uleb128 0xa
 874 0190 9B000000 		.4byte	.LASF24
 875 0194 03       		.byte	0x3
 876 0195 82       		.byte	0x82
 877 0196 4C000000 		.4byte	0x4c
 878 019a 02       		.byte	0x2
 879 019b 23       		.byte	0x23
 880 019c 1E       		.uleb128 0x1e
 881 019d 0A       		.uleb128 0xa
 882 019e 00000000 		.4byte	.LASF25
 883 01a2 03       		.byte	0x3
 884 01a3 83       		.byte	0x83
 885 01a4 AC000000 		.4byte	0xac
 886 01a8 02       		.byte	0x2
 887 01a9 23       		.byte	0x23
 888 01aa 20       		.uleb128 0x20
 889 01ab 0A       		.uleb128 0xa
 890 01ac A3000000 		.4byte	.LASF26
 891 01b0 03       		.byte	0x3
 892 01b1 84       		.byte	0x84
 893 01b2 4C000000 		.4byte	0x4c
 894 01b6 02       		.byte	0x2
 895 01b7 23       		.byte	0x23
 896 01b8 22       		.uleb128 0x22
 897 01b9 09       		.uleb128 0x9
 898 01ba 434E5400 		.ascii	"CNT\000"
 899 01be 03       		.byte	0x3
 900 01bf 85       		.byte	0x85
 901 01c0 90000000 		.4byte	0x90
 902 01c4 02       		.byte	0x2
 903 01c5 23       		.byte	0x23
 904 01c6 24       		.uleb128 0x24
 905 01c7 09       		.uleb128 0x9
 906 01c8 50534300 		.ascii	"PSC\000"
 907 01cc 03       		.byte	0x3
 908 01cd 86       		.byte	0x86
 909 01ce AC000000 		.4byte	0xac
 910 01d2 02       		.byte	0x2
 911 01d3 23       		.byte	0x23
 912 01d4 28       		.uleb128 0x28
 913 01d5 0A       		.uleb128 0xa
 914 01d6 AB000000 		.4byte	.LASF27
 915 01da 03       		.byte	0x3
 916 01db 87       		.byte	0x87
 917 01dc 4C000000 		.4byte	0x4c
 918 01e0 02       		.byte	0x2
 919 01e1 23       		.byte	0x23
 920 01e2 2A       		.uleb128 0x2a
 921 01e3 09       		.uleb128 0x9
 922 01e4 41525200 		.ascii	"ARR\000"
ARM GAS  C:\Users\z80\AppData\Local\Temp\ccR63Wvm.s 			page 18


 923 01e8 03       		.byte	0x3
 924 01e9 88       		.byte	0x88
 925 01ea 90000000 		.4byte	0x90
 926 01ee 02       		.byte	0x2
 927 01ef 23       		.byte	0x23
 928 01f0 2C       		.uleb128 0x2c
 929 01f1 09       		.uleb128 0x9
 930 01f2 52435200 		.ascii	"RCR\000"
 931 01f6 03       		.byte	0x3
 932 01f7 89       		.byte	0x89
 933 01f8 AC000000 		.4byte	0xac
 934 01fc 02       		.byte	0x2
 935 01fd 23       		.byte	0x23
 936 01fe 30       		.uleb128 0x30
 937 01ff 0A       		.uleb128 0xa
 938 0200 5E020000 		.4byte	.LASF28
 939 0204 03       		.byte	0x3
 940 0205 8A       		.byte	0x8a
 941 0206 4C000000 		.4byte	0x4c
 942 020a 02       		.byte	0x2
 943 020b 23       		.byte	0x23
 944 020c 32       		.uleb128 0x32
 945 020d 09       		.uleb128 0x9
 946 020e 43435200 		.ascii	"CCR\000"
 947 0212 03       		.byte	0x3
 948 0213 8B       		.byte	0x8b
 949 0214 8B020000 		.4byte	0x28b
 950 0218 02       		.byte	0x2
 951 0219 23       		.byte	0x23
 952 021a 34       		.uleb128 0x34
 953 021b 0A       		.uleb128 0xa
 954 021c D4010000 		.4byte	.LASF29
 955 0220 03       		.byte	0x3
 956 0221 8C       		.byte	0x8c
 957 0222 AC000000 		.4byte	0xac
 958 0226 02       		.byte	0x2
 959 0227 23       		.byte	0x23
 960 0228 44       		.uleb128 0x44
 961 0229 0A       		.uleb128 0xa
 962 022a 8C010000 		.4byte	.LASF30
 963 022e 03       		.byte	0x3
 964 022f 8D       		.byte	0x8d
 965 0230 4C000000 		.4byte	0x4c
 966 0234 02       		.byte	0x2
 967 0235 23       		.byte	0x23
 968 0236 46       		.uleb128 0x46
 969 0237 09       		.uleb128 0x9
 970 0238 44435200 		.ascii	"DCR\000"
 971 023c 03       		.byte	0x3
 972 023d 8E       		.byte	0x8e
 973 023e AC000000 		.4byte	0xac
 974 0242 02       		.byte	0x2
 975 0243 23       		.byte	0x23
 976 0244 48       		.uleb128 0x48
 977 0245 0A       		.uleb128 0xa
 978 0246 95010000 		.4byte	.LASF31
 979 024a 03       		.byte	0x3
ARM GAS  C:\Users\z80\AppData\Local\Temp\ccR63Wvm.s 			page 19


 980 024b 8F       		.byte	0x8f
 981 024c 4C000000 		.4byte	0x4c
 982 0250 02       		.byte	0x2
 983 0251 23       		.byte	0x23
 984 0252 4A       		.uleb128 0x4a
 985 0253 0A       		.uleb128 0xa
 986 0254 10000000 		.4byte	.LASF32
 987 0258 03       		.byte	0x3
 988 0259 90       		.byte	0x90
 989 025a AC000000 		.4byte	0xac
 990 025e 02       		.byte	0x2
 991 025f 23       		.byte	0x23
 992 0260 4C       		.uleb128 0x4c
 993 0261 0A       		.uleb128 0xa
 994 0262 9E010000 		.4byte	.LASF33
 995 0266 03       		.byte	0x3
 996 0267 91       		.byte	0x91
 997 0268 4C000000 		.4byte	0x4c
 998 026c 02       		.byte	0x2
 999 026d 23       		.byte	0x23
 1000 026e 4E       		.uleb128 0x4e
 1001 026f 09       		.uleb128 0x9
 1002 0270 4F5200   		.ascii	"OR\000"
 1003 0273 03       		.byte	0x3
 1004 0274 92       		.byte	0x92
 1005 0275 AC000000 		.4byte	0xac
 1006 0279 02       		.byte	0x2
 1007 027a 23       		.byte	0x23
 1008 027b 50       		.uleb128 0x50
 1009 027c 0A       		.uleb128 0xa
 1010 027d A7010000 		.4byte	.LASF34
 1011 0281 03       		.byte	0x3
 1012 0282 93       		.byte	0x93
 1013 0283 4C000000 		.4byte	0x4c
 1014 0287 02       		.byte	0x2
 1015 0288 23       		.byte	0x23
 1016 0289 52       		.uleb128 0x52
 1017 028a 00       		.byte	0
 1018 028b 05       		.uleb128 0x5
 1019 028c 9C000000 		.4byte	0x9c
 1020 0290 04       		.uleb128 0x4
 1021 0291 C8010000 		.4byte	.LASF35
 1022 0295 03       		.byte	0x3
 1023 0296 94       		.byte	0x94
 1024 0297 B6000000 		.4byte	0xb6
 1025 029b 0B       		.uleb128 0xb
 1026 029c 01       		.byte	0x1
 1027 029d 04       		.byte	0x4
 1028 029e 3C       		.byte	0x3c
 1029 029f C2020000 		.4byte	0x2c2
 1030 02a3 0C       		.uleb128 0xc
 1031 02a4 05000000 		.4byte	.LASF36
 1032 02a8 00       		.sleb128 0
 1033 02a9 0C       		.uleb128 0xc
 1034 02aa 67020000 		.4byte	.LASF37
 1035 02ae 01       		.sleb128 1
 1036 02af 0C       		.uleb128 0xc
ARM GAS  C:\Users\z80\AppData\Local\Temp\ccR63Wvm.s 			page 20


 1037 02b0 FC010000 		.4byte	.LASF38
 1038 02b4 02       		.sleb128 2
 1039 02b5 0C       		.uleb128 0xc
 1040 02b6 ED010000 		.4byte	.LASF39
 1041 02ba 03       		.sleb128 3
 1042 02bb 0C       		.uleb128 0xc
 1043 02bc 57000000 		.4byte	.LASF40
 1044 02c0 04       		.sleb128 4
 1045 02c1 00       		.byte	0
 1046 02c2 04       		.uleb128 0x4
 1047 02c3 B3000000 		.4byte	.LASF41
 1048 02c7 04       		.byte	0x4
 1049 02c8 42       		.byte	0x42
 1050 02c9 9B020000 		.4byte	0x29b
 1051 02cd 04       		.uleb128 0x4
 1052 02ce 06020000 		.4byte	.LASF42
 1053 02d2 04       		.byte	0x4
 1054 02d3 47       		.byte	0x47
 1055 02d4 D8020000 		.4byte	0x2d8
 1056 02d8 0D       		.uleb128 0xd
 1057 02d9 06020000 		.4byte	.LASF42
 1058 02dd 10       		.byte	0x10
 1059 02de 05       		.byte	0x5
 1060 02df DC       		.byte	0xdc
 1061 02e0 1D030000 		.4byte	0x31d
 1062 02e4 0A       		.uleb128 0xa
 1063 02e5 15000000 		.4byte	.LASF43
 1064 02e9 05       		.byte	0x5
 1065 02ea E0       		.byte	0xe0
 1066 02eb C2020000 		.4byte	0x2c2
 1067 02ef 02       		.byte	0x2
 1068 02f0 23       		.byte	0x23
 1069 02f1 00       		.uleb128 0
 1070 02f2 0A       		.uleb128 0xa
 1071 02f3 50000000 		.4byte	.LASF44
 1072 02f7 05       		.byte	0x5
 1073 02f8 E4       		.byte	0xe4
 1074 02f9 86030000 		.4byte	0x386
 1075 02fd 02       		.byte	0x2
 1076 02fe 23       		.byte	0x23
 1077 02ff 04       		.uleb128 0x4
 1078 0300 0A       		.uleb128 0xa
 1079 0301 22020000 		.4byte	.LASF45
 1080 0305 05       		.byte	0x5
 1081 0306 EC       		.byte	0xec
 1082 0307 70000000 		.4byte	0x70
 1083 030b 02       		.byte	0x2
 1084 030c 23       		.byte	0x23
 1085 030d 08       		.uleb128 0x8
 1086 030e 09       		.uleb128 0x9
 1087 030f 74696D00 		.ascii	"tim\000"
 1088 0313 05       		.byte	0x5
 1089 0314 F0       		.byte	0xf0
 1090 0315 91030000 		.4byte	0x391
 1091 0319 02       		.byte	0x2
 1092 031a 23       		.byte	0x23
 1093 031b 0C       		.uleb128 0xc
ARM GAS  C:\Users\z80\AppData\Local\Temp\ccR63Wvm.s 			page 21


 1094 031c 00       		.byte	0
 1095 031d 04       		.uleb128 0x4
 1096 031e 2B000000 		.4byte	.LASF46
 1097 0322 04       		.byte	0x4
 1098 0323 4E       		.byte	0x4e
 1099 0324 28030000 		.4byte	0x328
 1100 0328 0E       		.uleb128 0xe
 1101 0329 04       		.byte	0x4
 1102 032a 2E030000 		.4byte	0x32e
 1103 032e 0F       		.uleb128 0xf
 1104 032f 01       		.byte	0x1
 1105 0330 3A030000 		.4byte	0x33a
 1106 0334 10       		.uleb128 0x10
 1107 0335 3A030000 		.4byte	0x33a
 1108 0339 00       		.byte	0
 1109 033a 0E       		.uleb128 0xe
 1110 033b 04       		.byte	0x4
 1111 033c CD020000 		.4byte	0x2cd
 1112 0340 04       		.uleb128 0x4
 1113 0341 E4020000 		.4byte	.LASF47
 1114 0345 05       		.byte	0x5
 1115 0346 BF       		.byte	0xbf
 1116 0347 70000000 		.4byte	0x70
 1117 034b 04       		.uleb128 0x4
 1118 034c 39000000 		.4byte	.LASF48
 1119 0350 05       		.byte	0x5
 1120 0351 C4       		.byte	0xc4
 1121 0352 4C000000 		.4byte	0x4c
 1122 0356 08       		.uleb128 0x8
 1123 0357 08       		.byte	0x8
 1124 0358 05       		.byte	0x5
 1125 0359 CA       		.byte	0xca
 1126 035a 7B030000 		.4byte	0x37b
 1127 035e 0A       		.uleb128 0xa
 1128 035f 9D020000 		.4byte	.LASF49
 1129 0363 05       		.byte	0x5
 1130 0364 D0       		.byte	0xd0
 1131 0365 40030000 		.4byte	0x340
 1132 0369 02       		.byte	0x2
 1133 036a 23       		.byte	0x23
 1134 036b 00       		.uleb128 0
 1135 036c 0A       		.uleb128 0xa
 1136 036d F6020000 		.4byte	.LASF50
 1137 0371 05       		.byte	0x5
 1138 0372 D5       		.byte	0xd5
 1139 0373 1D030000 		.4byte	0x31d
 1140 0377 02       		.byte	0x2
 1141 0378 23       		.byte	0x23
 1142 0379 04       		.uleb128 0x4
 1143 037a 00       		.byte	0
 1144 037b 04       		.uleb128 0x4
 1145 037c 75020000 		.4byte	.LASF51
 1146 0380 05       		.byte	0x5
 1147 0381 D7       		.byte	0xd7
 1148 0382 56030000 		.4byte	0x356
 1149 0386 0E       		.uleb128 0xe
 1150 0387 04       		.byte	0x4
ARM GAS  C:\Users\z80\AppData\Local\Temp\ccR63Wvm.s 			page 22


 1151 0388 8C030000 		.4byte	0x38c
 1152 038c 11       		.uleb128 0x11
 1153 038d 7B030000 		.4byte	0x37b
 1154 0391 0E       		.uleb128 0xe
 1155 0392 04       		.byte	0x4
 1156 0393 90020000 		.4byte	0x290
 1157 0397 12       		.uleb128 0x12
 1158 0398 01       		.byte	0x1
 1159 0399 2A010000 		.4byte	.LASF67
 1160 039d 01       		.byte	0x1
 1161 039e 44       		.byte	0x44
 1162 039f 01       		.byte	0x1
 1163 03a0 00000000 		.4byte	.LFB62
 1164 03a4 04000000 		.4byte	.LFE62
 1165 03a8 02       		.byte	0x2
 1166 03a9 7D       		.byte	0x7d
 1167 03aa 00       		.sleb128 0
 1168 03ab 13       		.uleb128 0x13
 1169 03ac 01       		.byte	0x1
 1170 03ad C9020000 		.4byte	.LASF52
 1171 03b1 01       		.byte	0x1
 1172 03b2 50       		.byte	0x50
 1173 03b3 01       		.byte	0x1
 1174 03b4 00000000 		.4byte	.LFB63
 1175 03b8 0A000000 		.4byte	.LFE63
 1176 03bc 02       		.byte	0x2
 1177 03bd 7D       		.byte	0x7d
 1178 03be 00       		.sleb128 0
 1179 03bf D1030000 		.4byte	0x3d1
 1180 03c3 14       		.uleb128 0x14
 1181 03c4 70020000 		.4byte	.LASF54
 1182 03c8 01       		.byte	0x1
 1183 03c9 50       		.byte	0x50
 1184 03ca 3A030000 		.4byte	0x33a
 1185 03ce 01       		.byte	0x1
 1186 03cf 50       		.byte	0x50
 1187 03d0 00       		.byte	0
 1188 03d1 15       		.uleb128 0x15
 1189 03d2 01       		.byte	0x1
 1190 03d3 F9000000 		.4byte	.LASF53
 1191 03d7 01       		.byte	0x1
 1192 03d8 5E       		.byte	0x5e
 1193 03d9 01       		.byte	0x1
 1194 03da 00000000 		.4byte	.LFB64
 1195 03de 5E000000 		.4byte	.LFE64
 1196 03e2 00000000 		.4byte	.LLST0
 1197 03e6 3F040000 		.4byte	0x43f
 1198 03ea 16       		.uleb128 0x16
 1199 03eb 70020000 		.4byte	.LASF54
 1200 03ef 01       		.byte	0x1
 1201 03f0 5E       		.byte	0x5e
 1202 03f1 3A030000 		.4byte	0x33a
 1203 03f5 20000000 		.4byte	.LLST1
 1204 03f9 16       		.uleb128 0x16
 1205 03fa 50000000 		.4byte	.LASF44
 1206 03fe 01       		.byte	0x1
 1207 03ff 5E       		.byte	0x5e
ARM GAS  C:\Users\z80\AppData\Local\Temp\ccR63Wvm.s 			page 23


 1208 0400 86030000 		.4byte	0x386
 1209 0404 3E000000 		.4byte	.LLST2
 1210 0408 17       		.uleb128 0x17
 1211 0409 18000000 		.4byte	.LBB2
 1212 040d 1E000000 		.4byte	.LBE2
 1213 0411 25040000 		.4byte	0x425
 1214 0415 18       		.uleb128 0x18
 1215 0416 746D7000 		.ascii	"tmp\000"
 1216 041a 01       		.byte	0x1
 1217 041b 62       		.byte	0x62
 1218 041c 70000000 		.4byte	0x70
 1219 0420 5C000000 		.4byte	.LLST3
 1220 0424 00       		.byte	0
 1221 0425 19       		.uleb128 0x19
 1222 0426 48000000 		.4byte	.LBB3
 1223 042a 4E000000 		.4byte	.LBE3
 1224 042e 18       		.uleb128 0x18
 1225 042f 746D7000 		.ascii	"tmp\000"
 1226 0433 01       		.byte	0x1
 1227 0434 68       		.byte	0x68
 1228 0435 70000000 		.4byte	0x70
 1229 0439 6F000000 		.4byte	.LLST4
 1230 043d 00       		.byte	0
 1231 043e 00       		.byte	0
 1232 043f 15       		.uleb128 0x15
 1233 0440 01       		.byte	0x1
 1234 0441 EE020000 		.4byte	.LASF55
 1235 0445 01       		.byte	0x1
 1236 0446 72       		.byte	0x72
 1237 0447 01       		.byte	0x1
 1238 0448 00000000 		.4byte	.LFB65
 1239 044c 4A000000 		.4byte	.LFE65
 1240 0450 82000000 		.4byte	.LLST5
 1241 0454 9E040000 		.4byte	0x49e
 1242 0458 16       		.uleb128 0x16
 1243 0459 70020000 		.4byte	.LASF54
 1244 045d 01       		.byte	0x1
 1245 045e 72       		.byte	0x72
 1246 045f 3A030000 		.4byte	0x33a
 1247 0463 A2000000 		.4byte	.LLST6
 1248 0467 17       		.uleb128 0x17
 1249 0468 06000000 		.4byte	.LBB4
 1250 046c 0C000000 		.4byte	.LBE4
 1251 0470 84040000 		.4byte	0x484
 1252 0474 18       		.uleb128 0x18
 1253 0475 746D7000 		.ascii	"tmp\000"
 1254 0479 01       		.byte	0x1
 1255 047a 76       		.byte	0x76
 1256 047b 70000000 		.4byte	0x70
 1257 047f C0000000 		.4byte	.LLST7
 1258 0483 00       		.byte	0
 1259 0484 19       		.uleb128 0x19
 1260 0485 34000000 		.4byte	.LBB5
 1261 0489 3A000000 		.4byte	.LBE5
 1262 048d 18       		.uleb128 0x18
 1263 048e 746D7000 		.ascii	"tmp\000"
 1264 0492 01       		.byte	0x1
ARM GAS  C:\Users\z80\AppData\Local\Temp\ccR63Wvm.s 			page 24


 1265 0493 7B       		.byte	0x7b
 1266 0494 70000000 		.4byte	0x70
 1267 0498 D3000000 		.4byte	.LLST8
 1268 049c 00       		.byte	0
 1269 049d 00       		.byte	0
 1270 049e 15       		.uleb128 0x15
 1271 049f 01       		.byte	0x1
 1272 04a0 DC000000 		.4byte	.LASF56
 1273 04a4 01       		.byte	0x1
 1274 04a5 95       		.byte	0x95
 1275 04a6 01       		.byte	0x1
 1276 04a7 00000000 		.4byte	.LFB67
 1277 04ab 3C000000 		.4byte	.LFE67
 1278 04af E6000000 		.4byte	.LLST9
 1279 04b3 D6040000 		.4byte	0x4d6
 1280 04b7 16       		.uleb128 0x16
 1281 04b8 70020000 		.4byte	.LASF54
 1282 04bc 01       		.byte	0x1
 1283 04bd 95       		.byte	0x95
 1284 04be 3A030000 		.4byte	0x33a
 1285 04c2 06010000 		.4byte	.LLST10
 1286 04c6 16       		.uleb128 0x16
 1287 04c7 55020000 		.4byte	.LASF57
 1288 04cb 01       		.byte	0x1
 1289 04cc 95       		.byte	0x95
 1290 04cd 4B030000 		.4byte	0x34b
 1291 04d1 24010000 		.4byte	.LLST11
 1292 04d5 00       		.byte	0
 1293 04d6 15       		.uleb128 0x15
 1294 04d7 01       		.byte	0x1
 1295 04d8 32010000 		.4byte	.LASF58
 1296 04dc 01       		.byte	0x1
 1297 04dd 86       		.byte	0x86
 1298 04de 01       		.byte	0x1
 1299 04df 00000000 		.4byte	.LFB66
 1300 04e3 24000000 		.4byte	.LFE66
 1301 04e7 37010000 		.4byte	.LLST12
 1302 04eb 44050000 		.4byte	0x544
 1303 04ef 16       		.uleb128 0x16
 1304 04f0 70020000 		.4byte	.LASF54
 1305 04f4 01       		.byte	0x1
 1306 04f5 86       		.byte	0x86
 1307 04f6 3A030000 		.4byte	0x33a
 1308 04fa 57010000 		.4byte	.LLST13
 1309 04fe 16       		.uleb128 0x16
 1310 04ff 55020000 		.4byte	.LASF57
 1311 0503 01       		.byte	0x1
 1312 0504 86       		.byte	0x86
 1313 0505 4B030000 		.4byte	0x34b
 1314 0509 75010000 		.4byte	.LLST14
 1315 050d 17       		.uleb128 0x17
 1316 050e 06000000 		.4byte	.LBB6
 1317 0512 0C000000 		.4byte	.LBE6
 1318 0516 2A050000 		.4byte	0x52a
 1319 051a 18       		.uleb128 0x18
 1320 051b 746D7000 		.ascii	"tmp\000"
 1321 051f 01       		.byte	0x1
ARM GAS  C:\Users\z80\AppData\Local\Temp\ccR63Wvm.s 			page 25


 1322 0520 88       		.byte	0x88
 1323 0521 70000000 		.4byte	0x70
 1324 0525 88010000 		.4byte	.LLST15
 1325 0529 00       		.byte	0
 1326 052a 19       		.uleb128 0x19
 1327 052b 1C000000 		.4byte	.LBB7
 1328 052f 22000000 		.4byte	.LBE7
 1329 0533 18       		.uleb128 0x18
 1330 0534 746D7000 		.ascii	"tmp\000"
 1331 0538 01       		.byte	0x1
 1332 0539 8A       		.byte	0x8a
 1333 053a 70000000 		.4byte	0x70
 1334 053e 9B010000 		.4byte	.LLST16
 1335 0542 00       		.byte	0
 1336 0543 00       		.byte	0
 1337 0544 15       		.uleb128 0x15
 1338 0545 01       		.byte	0x1
 1339 0546 7F020000 		.4byte	.LASF59
 1340 054a 01       		.byte	0x1
 1341 054b B7       		.byte	0xb7
 1342 054c 01       		.byte	0x1
 1343 054d 00000000 		.4byte	.LFB69
 1344 0551 3C000000 		.4byte	.LFE69
 1345 0555 AE010000 		.4byte	.LLST17
 1346 0559 7C050000 		.4byte	0x57c
 1347 055d 16       		.uleb128 0x16
 1348 055e 70020000 		.4byte	.LASF54
 1349 0562 01       		.byte	0x1
 1350 0563 B7       		.byte	0xb7
 1351 0564 3A030000 		.4byte	0x33a
 1352 0568 CE010000 		.4byte	.LLST18
 1353 056c 16       		.uleb128 0x16
 1354 056d 55020000 		.4byte	.LASF57
 1355 0571 01       		.byte	0x1
 1356 0572 B7       		.byte	0xb7
 1357 0573 4B030000 		.4byte	0x34b
 1358 0577 EC010000 		.4byte	.LLST19
 1359 057b 00       		.byte	0
 1360 057c 15       		.uleb128 0x15
 1361 057d 01       		.byte	0x1
 1362 057e CC000000 		.4byte	.LASF60
 1363 0582 01       		.byte	0x1
 1364 0583 A8       		.byte	0xa8
 1365 0584 01       		.byte	0x1
 1366 0585 00000000 		.4byte	.LFB68
 1367 0589 24000000 		.4byte	.LFE68
 1368 058d FF010000 		.4byte	.LLST20
 1369 0591 EA050000 		.4byte	0x5ea
 1370 0595 16       		.uleb128 0x16
 1371 0596 70020000 		.4byte	.LASF54
 1372 059a 01       		.byte	0x1
 1373 059b A8       		.byte	0xa8
 1374 059c 3A030000 		.4byte	0x33a
 1375 05a0 1F020000 		.4byte	.LLST21
 1376 05a4 16       		.uleb128 0x16
 1377 05a5 55020000 		.4byte	.LASF57
 1378 05a9 01       		.byte	0x1
ARM GAS  C:\Users\z80\AppData\Local\Temp\ccR63Wvm.s 			page 26


 1379 05aa A8       		.byte	0xa8
 1380 05ab 4B030000 		.4byte	0x34b
 1381 05af 3D020000 		.4byte	.LLST22
 1382 05b3 17       		.uleb128 0x17
 1383 05b4 06000000 		.4byte	.LBB8
 1384 05b8 0C000000 		.4byte	.LBE8
 1385 05bc D0050000 		.4byte	0x5d0
 1386 05c0 18       		.uleb128 0x18
 1387 05c1 746D7000 		.ascii	"tmp\000"
 1388 05c5 01       		.byte	0x1
 1389 05c6 AA       		.byte	0xaa
 1390 05c7 70000000 		.4byte	0x70
 1391 05cb 50020000 		.4byte	.LLST23
 1392 05cf 00       		.byte	0
 1393 05d0 19       		.uleb128 0x19
 1394 05d1 1C000000 		.4byte	.LBB9
 1395 05d5 22000000 		.4byte	.LBE9
 1396 05d9 18       		.uleb128 0x18
 1397 05da 746D7000 		.ascii	"tmp\000"
 1398 05de 01       		.byte	0x1
 1399 05df AC       		.byte	0xac
 1400 05e0 70000000 		.4byte	0x70
 1401 05e4 63020000 		.4byte	.LLST24
 1402 05e8 00       		.byte	0
 1403 05e9 00       		.byte	0
 1404 05ea 15       		.uleb128 0x15
 1405 05eb 01       		.byte	0x1
 1406 05ec 42000000 		.4byte	.LASF61
 1407 05f0 01       		.byte	0x1
 1408 05f1 D7       		.byte	0xd7
 1409 05f2 01       		.byte	0x1
 1410 05f3 00000000 		.4byte	.LFB71
 1411 05f7 3C000000 		.4byte	.LFE71
 1412 05fb 76020000 		.4byte	.LLST25
 1413 05ff 13060000 		.4byte	0x613
 1414 0603 16       		.uleb128 0x16
 1415 0604 70020000 		.4byte	.LASF54
 1416 0608 01       		.byte	0x1
 1417 0609 D7       		.byte	0xd7
 1418 060a 3A030000 		.4byte	0x33a
 1419 060e 96020000 		.4byte	.LLST26
 1420 0612 00       		.byte	0
 1421 0613 15       		.uleb128 0x15
 1422 0614 01       		.byte	0x1
 1423 0615 90020000 		.4byte	.LASF62
 1424 0619 01       		.byte	0x1
 1425 061a C9       		.byte	0xc9
 1426 061b 01       		.byte	0x1
 1427 061c 00000000 		.4byte	.LFB70
 1428 0620 20000000 		.4byte	.LFE70
 1429 0624 B4020000 		.4byte	.LLST27
 1430 0628 6E060000 		.4byte	0x66e
 1431 062c 16       		.uleb128 0x16
 1432 062d 70020000 		.4byte	.LASF54
 1433 0631 01       		.byte	0x1
 1434 0632 C9       		.byte	0xc9
 1435 0633 3A030000 		.4byte	0x33a
ARM GAS  C:\Users\z80\AppData\Local\Temp\ccR63Wvm.s 			page 27


 1436 0637 D4020000 		.4byte	.LLST28
 1437 063b 1A       		.uleb128 0x1a
 1438 063c 00000000 		.4byte	.Ldebug_ranges0+0
 1439 0640 54060000 		.4byte	0x654
 1440 0644 18       		.uleb128 0x18
 1441 0645 746D7000 		.ascii	"tmp\000"
 1442 0649 01       		.byte	0x1
 1443 064a CB       		.byte	0xcb
 1444 064b 70000000 		.4byte	0x70
 1445 064f F2020000 		.4byte	.LLST29
 1446 0653 00       		.byte	0
 1447 0654 19       		.uleb128 0x19
 1448 0655 18000000 		.4byte	.LBB12
 1449 0659 1E000000 		.4byte	.LBE12
 1450 065d 18       		.uleb128 0x18
 1451 065e 746D7000 		.ascii	"tmp\000"
 1452 0662 01       		.byte	0x1
 1453 0663 CD       		.byte	0xcd
 1454 0664 70000000 		.4byte	0x70
 1455 0668 05030000 		.4byte	.LLST30
 1456 066c 00       		.byte	0
 1457 066d 00       		.byte	0
 1458 066e 15       		.uleb128 0x15
 1459 066f 01       		.byte	0x1
 1460 0670 02010000 		.4byte	.LASF63
 1461 0674 01       		.byte	0x1
 1462 0675 EF       		.byte	0xef
 1463 0676 01       		.byte	0x1
 1464 0677 00000000 		.4byte	.LFB72
 1465 067b 2A000000 		.4byte	.LFE72
 1466 067f 18030000 		.4byte	.LLST31
 1467 0683 A6060000 		.4byte	0x6a6
 1468 0687 16       		.uleb128 0x16
 1469 0688 70020000 		.4byte	.LASF54
 1470 068c 01       		.byte	0x1
 1471 068d EF       		.byte	0xef
 1472 068e 3A030000 		.4byte	0x33a
 1473 0692 38030000 		.4byte	.LLST32
 1474 0696 16       		.uleb128 0x16
 1475 0697 55020000 		.4byte	.LASF57
 1476 069b 01       		.byte	0x1
 1477 069c EF       		.byte	0xef
 1478 069d 4B030000 		.4byte	0x34b
 1479 06a1 56030000 		.4byte	.LLST33
 1480 06a5 00       		.byte	0
 1481 06a6 1B       		.uleb128 0x1b
 1482 06a7 D7020000 		.4byte	.LASF68
 1483 06ab 06       		.byte	0x6
 1484 06ac 9404     		.2byte	0x494
 1485 06ae B1000000 		.4byte	0xb1
 1486 06b2 01       		.byte	0x1
 1487 06b3 01       		.byte	0x1
 1488 06b4 00       		.byte	0
 1489              		.section	.debug_abbrev,"",%progbits
 1490              	.Ldebug_abbrev0:
 1491 0000 01       		.uleb128 0x1
 1492 0001 11       		.uleb128 0x11
ARM GAS  C:\Users\z80\AppData\Local\Temp\ccR63Wvm.s 			page 28


 1493 0002 01       		.byte	0x1
 1494 0003 25       		.uleb128 0x25
 1495 0004 0E       		.uleb128 0xe
 1496 0005 13       		.uleb128 0x13
 1497 0006 0B       		.uleb128 0xb
 1498 0007 03       		.uleb128 0x3
 1499 0008 0E       		.uleb128 0xe
 1500 0009 1B       		.uleb128 0x1b
 1501 000a 0E       		.uleb128 0xe
 1502 000b 11       		.uleb128 0x11
 1503 000c 01       		.uleb128 0x1
 1504 000d 52       		.uleb128 0x52
 1505 000e 01       		.uleb128 0x1
 1506 000f 55       		.uleb128 0x55
 1507 0010 06       		.uleb128 0x6
 1508 0011 10       		.uleb128 0x10
 1509 0012 06       		.uleb128 0x6
 1510 0013 00       		.byte	0
 1511 0014 00       		.byte	0
 1512 0015 02       		.uleb128 0x2
 1513 0016 24       		.uleb128 0x24
 1514 0017 00       		.byte	0
 1515 0018 0B       		.uleb128 0xb
 1516 0019 0B       		.uleb128 0xb
 1517 001a 3E       		.uleb128 0x3e
 1518 001b 0B       		.uleb128 0xb
 1519 001c 03       		.uleb128 0x3
 1520 001d 08       		.uleb128 0x8
 1521 001e 00       		.byte	0
 1522 001f 00       		.byte	0
 1523 0020 03       		.uleb128 0x3
 1524 0021 24       		.uleb128 0x24
 1525 0022 00       		.byte	0
 1526 0023 0B       		.uleb128 0xb
 1527 0024 0B       		.uleb128 0xb
 1528 0025 3E       		.uleb128 0x3e
 1529 0026 0B       		.uleb128 0xb
 1530 0027 03       		.uleb128 0x3
 1531 0028 0E       		.uleb128 0xe
 1532 0029 00       		.byte	0
 1533 002a 00       		.byte	0
 1534 002b 04       		.uleb128 0x4
 1535 002c 16       		.uleb128 0x16
 1536 002d 00       		.byte	0
 1537 002e 03       		.uleb128 0x3
 1538 002f 0E       		.uleb128 0xe
 1539 0030 3A       		.uleb128 0x3a
 1540 0031 0B       		.uleb128 0xb
 1541 0032 3B       		.uleb128 0x3b
 1542 0033 0B       		.uleb128 0xb
 1543 0034 49       		.uleb128 0x49
 1544 0035 13       		.uleb128 0x13
 1545 0036 00       		.byte	0
 1546 0037 00       		.byte	0
 1547 0038 05       		.uleb128 0x5
 1548 0039 35       		.uleb128 0x35
 1549 003a 00       		.byte	0
ARM GAS  C:\Users\z80\AppData\Local\Temp\ccR63Wvm.s 			page 29


 1550 003b 49       		.uleb128 0x49
 1551 003c 13       		.uleb128 0x13
 1552 003d 00       		.byte	0
 1553 003e 00       		.byte	0
 1554 003f 06       		.uleb128 0x6
 1555 0040 01       		.uleb128 0x1
 1556 0041 01       		.byte	0x1
 1557 0042 49       		.uleb128 0x49
 1558 0043 13       		.uleb128 0x13
 1559 0044 01       		.uleb128 0x1
 1560 0045 13       		.uleb128 0x13
 1561 0046 00       		.byte	0
 1562 0047 00       		.byte	0
 1563 0048 07       		.uleb128 0x7
 1564 0049 21       		.uleb128 0x21
 1565 004a 00       		.byte	0
 1566 004b 49       		.uleb128 0x49
 1567 004c 13       		.uleb128 0x13
 1568 004d 2F       		.uleb128 0x2f
 1569 004e 0B       		.uleb128 0xb
 1570 004f 00       		.byte	0
 1571 0050 00       		.byte	0
 1572 0051 08       		.uleb128 0x8
 1573 0052 13       		.uleb128 0x13
 1574 0053 01       		.byte	0x1
 1575 0054 0B       		.uleb128 0xb
 1576 0055 0B       		.uleb128 0xb
 1577 0056 3A       		.uleb128 0x3a
 1578 0057 0B       		.uleb128 0xb
 1579 0058 3B       		.uleb128 0x3b
 1580 0059 0B       		.uleb128 0xb
 1581 005a 01       		.uleb128 0x1
 1582 005b 13       		.uleb128 0x13
 1583 005c 00       		.byte	0
 1584 005d 00       		.byte	0
 1585 005e 09       		.uleb128 0x9
 1586 005f 0D       		.uleb128 0xd
 1587 0060 00       		.byte	0
 1588 0061 03       		.uleb128 0x3
 1589 0062 08       		.uleb128 0x8
 1590 0063 3A       		.uleb128 0x3a
 1591 0064 0B       		.uleb128 0xb
 1592 0065 3B       		.uleb128 0x3b
 1593 0066 0B       		.uleb128 0xb
 1594 0067 49       		.uleb128 0x49
 1595 0068 13       		.uleb128 0x13
 1596 0069 38       		.uleb128 0x38
 1597 006a 0A       		.uleb128 0xa
 1598 006b 00       		.byte	0
 1599 006c 00       		.byte	0
 1600 006d 0A       		.uleb128 0xa
 1601 006e 0D       		.uleb128 0xd
 1602 006f 00       		.byte	0
 1603 0070 03       		.uleb128 0x3
 1604 0071 0E       		.uleb128 0xe
 1605 0072 3A       		.uleb128 0x3a
 1606 0073 0B       		.uleb128 0xb
ARM GAS  C:\Users\z80\AppData\Local\Temp\ccR63Wvm.s 			page 30


 1607 0074 3B       		.uleb128 0x3b
 1608 0075 0B       		.uleb128 0xb
 1609 0076 49       		.uleb128 0x49
 1610 0077 13       		.uleb128 0x13
 1611 0078 38       		.uleb128 0x38
 1612 0079 0A       		.uleb128 0xa
 1613 007a 00       		.byte	0
 1614 007b 00       		.byte	0
 1615 007c 0B       		.uleb128 0xb
 1616 007d 04       		.uleb128 0x4
 1617 007e 01       		.byte	0x1
 1618 007f 0B       		.uleb128 0xb
 1619 0080 0B       		.uleb128 0xb
 1620 0081 3A       		.uleb128 0x3a
 1621 0082 0B       		.uleb128 0xb
 1622 0083 3B       		.uleb128 0x3b
 1623 0084 0B       		.uleb128 0xb
 1624 0085 01       		.uleb128 0x1
 1625 0086 13       		.uleb128 0x13
 1626 0087 00       		.byte	0
 1627 0088 00       		.byte	0
 1628 0089 0C       		.uleb128 0xc
 1629 008a 28       		.uleb128 0x28
 1630 008b 00       		.byte	0
 1631 008c 03       		.uleb128 0x3
 1632 008d 0E       		.uleb128 0xe
 1633 008e 1C       		.uleb128 0x1c
 1634 008f 0D       		.uleb128 0xd
 1635 0090 00       		.byte	0
 1636 0091 00       		.byte	0
 1637 0092 0D       		.uleb128 0xd
 1638 0093 13       		.uleb128 0x13
 1639 0094 01       		.byte	0x1
 1640 0095 03       		.uleb128 0x3
 1641 0096 0E       		.uleb128 0xe
 1642 0097 0B       		.uleb128 0xb
 1643 0098 0B       		.uleb128 0xb
 1644 0099 3A       		.uleb128 0x3a
 1645 009a 0B       		.uleb128 0xb
 1646 009b 3B       		.uleb128 0x3b
 1647 009c 0B       		.uleb128 0xb
 1648 009d 01       		.uleb128 0x1
 1649 009e 13       		.uleb128 0x13
 1650 009f 00       		.byte	0
 1651 00a0 00       		.byte	0
 1652 00a1 0E       		.uleb128 0xe
 1653 00a2 0F       		.uleb128 0xf
 1654 00a3 00       		.byte	0
 1655 00a4 0B       		.uleb128 0xb
 1656 00a5 0B       		.uleb128 0xb
 1657 00a6 49       		.uleb128 0x49
 1658 00a7 13       		.uleb128 0x13
 1659 00a8 00       		.byte	0
 1660 00a9 00       		.byte	0
 1661 00aa 0F       		.uleb128 0xf
 1662 00ab 15       		.uleb128 0x15
 1663 00ac 01       		.byte	0x1
ARM GAS  C:\Users\z80\AppData\Local\Temp\ccR63Wvm.s 			page 31


 1664 00ad 27       		.uleb128 0x27
 1665 00ae 0C       		.uleb128 0xc
 1666 00af 01       		.uleb128 0x1
 1667 00b0 13       		.uleb128 0x13
 1668 00b1 00       		.byte	0
 1669 00b2 00       		.byte	0
 1670 00b3 10       		.uleb128 0x10
 1671 00b4 05       		.uleb128 0x5
 1672 00b5 00       		.byte	0
 1673 00b6 49       		.uleb128 0x49
 1674 00b7 13       		.uleb128 0x13
 1675 00b8 00       		.byte	0
 1676 00b9 00       		.byte	0
 1677 00ba 11       		.uleb128 0x11
 1678 00bb 26       		.uleb128 0x26
 1679 00bc 00       		.byte	0
 1680 00bd 49       		.uleb128 0x49
 1681 00be 13       		.uleb128 0x13
 1682 00bf 00       		.byte	0
 1683 00c0 00       		.byte	0
 1684 00c1 12       		.uleb128 0x12
 1685 00c2 2E       		.uleb128 0x2e
 1686 00c3 00       		.byte	0
 1687 00c4 3F       		.uleb128 0x3f
 1688 00c5 0C       		.uleb128 0xc
 1689 00c6 03       		.uleb128 0x3
 1690 00c7 0E       		.uleb128 0xe
 1691 00c8 3A       		.uleb128 0x3a
 1692 00c9 0B       		.uleb128 0xb
 1693 00ca 3B       		.uleb128 0x3b
 1694 00cb 0B       		.uleb128 0xb
 1695 00cc 27       		.uleb128 0x27
 1696 00cd 0C       		.uleb128 0xc
 1697 00ce 11       		.uleb128 0x11
 1698 00cf 01       		.uleb128 0x1
 1699 00d0 12       		.uleb128 0x12
 1700 00d1 01       		.uleb128 0x1
 1701 00d2 40       		.uleb128 0x40
 1702 00d3 0A       		.uleb128 0xa
 1703 00d4 00       		.byte	0
 1704 00d5 00       		.byte	0
 1705 00d6 13       		.uleb128 0x13
 1706 00d7 2E       		.uleb128 0x2e
 1707 00d8 01       		.byte	0x1
 1708 00d9 3F       		.uleb128 0x3f
 1709 00da 0C       		.uleb128 0xc
 1710 00db 03       		.uleb128 0x3
 1711 00dc 0E       		.uleb128 0xe
 1712 00dd 3A       		.uleb128 0x3a
 1713 00de 0B       		.uleb128 0xb
 1714 00df 3B       		.uleb128 0x3b
 1715 00e0 0B       		.uleb128 0xb
 1716 00e1 27       		.uleb128 0x27
 1717 00e2 0C       		.uleb128 0xc
 1718 00e3 11       		.uleb128 0x11
 1719 00e4 01       		.uleb128 0x1
 1720 00e5 12       		.uleb128 0x12
ARM GAS  C:\Users\z80\AppData\Local\Temp\ccR63Wvm.s 			page 32


 1721 00e6 01       		.uleb128 0x1
 1722 00e7 40       		.uleb128 0x40
 1723 00e8 0A       		.uleb128 0xa
 1724 00e9 01       		.uleb128 0x1
 1725 00ea 13       		.uleb128 0x13
 1726 00eb 00       		.byte	0
 1727 00ec 00       		.byte	0
 1728 00ed 14       		.uleb128 0x14
 1729 00ee 05       		.uleb128 0x5
 1730 00ef 00       		.byte	0
 1731 00f0 03       		.uleb128 0x3
 1732 00f1 0E       		.uleb128 0xe
 1733 00f2 3A       		.uleb128 0x3a
 1734 00f3 0B       		.uleb128 0xb
 1735 00f4 3B       		.uleb128 0x3b
 1736 00f5 0B       		.uleb128 0xb
 1737 00f6 49       		.uleb128 0x49
 1738 00f7 13       		.uleb128 0x13
 1739 00f8 02       		.uleb128 0x2
 1740 00f9 0A       		.uleb128 0xa
 1741 00fa 00       		.byte	0
 1742 00fb 00       		.byte	0
 1743 00fc 15       		.uleb128 0x15
 1744 00fd 2E       		.uleb128 0x2e
 1745 00fe 01       		.byte	0x1
 1746 00ff 3F       		.uleb128 0x3f
 1747 0100 0C       		.uleb128 0xc
 1748 0101 03       		.uleb128 0x3
 1749 0102 0E       		.uleb128 0xe
 1750 0103 3A       		.uleb128 0x3a
 1751 0104 0B       		.uleb128 0xb
 1752 0105 3B       		.uleb128 0x3b
 1753 0106 0B       		.uleb128 0xb
 1754 0107 27       		.uleb128 0x27
 1755 0108 0C       		.uleb128 0xc
 1756 0109 11       		.uleb128 0x11
 1757 010a 01       		.uleb128 0x1
 1758 010b 12       		.uleb128 0x12
 1759 010c 01       		.uleb128 0x1
 1760 010d 40       		.uleb128 0x40
 1761 010e 06       		.uleb128 0x6
 1762 010f 01       		.uleb128 0x1
 1763 0110 13       		.uleb128 0x13
 1764 0111 00       		.byte	0
 1765 0112 00       		.byte	0
 1766 0113 16       		.uleb128 0x16
 1767 0114 05       		.uleb128 0x5
 1768 0115 00       		.byte	0
 1769 0116 03       		.uleb128 0x3
 1770 0117 0E       		.uleb128 0xe
 1771 0118 3A       		.uleb128 0x3a
 1772 0119 0B       		.uleb128 0xb
 1773 011a 3B       		.uleb128 0x3b
 1774 011b 0B       		.uleb128 0xb
 1775 011c 49       		.uleb128 0x49
 1776 011d 13       		.uleb128 0x13
 1777 011e 02       		.uleb128 0x2
ARM GAS  C:\Users\z80\AppData\Local\Temp\ccR63Wvm.s 			page 33


 1778 011f 06       		.uleb128 0x6
 1779 0120 00       		.byte	0
 1780 0121 00       		.byte	0
 1781 0122 17       		.uleb128 0x17
 1782 0123 0B       		.uleb128 0xb
 1783 0124 01       		.byte	0x1
 1784 0125 11       		.uleb128 0x11
 1785 0126 01       		.uleb128 0x1
 1786 0127 12       		.uleb128 0x12
 1787 0128 01       		.uleb128 0x1
 1788 0129 01       		.uleb128 0x1
 1789 012a 13       		.uleb128 0x13
 1790 012b 00       		.byte	0
 1791 012c 00       		.byte	0
 1792 012d 18       		.uleb128 0x18
 1793 012e 34       		.uleb128 0x34
 1794 012f 00       		.byte	0
 1795 0130 03       		.uleb128 0x3
 1796 0131 08       		.uleb128 0x8
 1797 0132 3A       		.uleb128 0x3a
 1798 0133 0B       		.uleb128 0xb
 1799 0134 3B       		.uleb128 0x3b
 1800 0135 0B       		.uleb128 0xb
 1801 0136 49       		.uleb128 0x49
 1802 0137 13       		.uleb128 0x13
 1803 0138 02       		.uleb128 0x2
 1804 0139 06       		.uleb128 0x6
 1805 013a 00       		.byte	0
 1806 013b 00       		.byte	0
 1807 013c 19       		.uleb128 0x19
 1808 013d 0B       		.uleb128 0xb
 1809 013e 01       		.byte	0x1
 1810 013f 11       		.uleb128 0x11
 1811 0140 01       		.uleb128 0x1
 1812 0141 12       		.uleb128 0x12
 1813 0142 01       		.uleb128 0x1
 1814 0143 00       		.byte	0
 1815 0144 00       		.byte	0
 1816 0145 1A       		.uleb128 0x1a
 1817 0146 0B       		.uleb128 0xb
 1818 0147 01       		.byte	0x1
 1819 0148 55       		.uleb128 0x55
 1820 0149 06       		.uleb128 0x6
 1821 014a 01       		.uleb128 0x1
 1822 014b 13       		.uleb128 0x13
 1823 014c 00       		.byte	0
 1824 014d 00       		.byte	0
 1825 014e 1B       		.uleb128 0x1b
 1826 014f 34       		.uleb128 0x34
 1827 0150 00       		.byte	0
 1828 0151 03       		.uleb128 0x3
 1829 0152 0E       		.uleb128 0xe
 1830 0153 3A       		.uleb128 0x3a
 1831 0154 0B       		.uleb128 0xb
 1832 0155 3B       		.uleb128 0x3b
 1833 0156 05       		.uleb128 0x5
 1834 0157 49       		.uleb128 0x49
ARM GAS  C:\Users\z80\AppData\Local\Temp\ccR63Wvm.s 			page 34


 1835 0158 13       		.uleb128 0x13
 1836 0159 3F       		.uleb128 0x3f
 1837 015a 0C       		.uleb128 0xc
 1838 015b 3C       		.uleb128 0x3c
 1839 015c 0C       		.uleb128 0xc
 1840 015d 00       		.byte	0
 1841 015e 00       		.byte	0
 1842 015f 00       		.byte	0
 1843              		.section	.debug_loc,"",%progbits
 1844              	.Ldebug_loc0:
 1845              	.LLST0:
 1846 0000 00000000 		.4byte	.LFB64
 1847 0004 02000000 		.4byte	.LCFI0
 1848 0008 0200     		.2byte	0x2
 1849 000a 7D       		.byte	0x7d
 1850 000b 00       		.sleb128 0
 1851 000c 02000000 		.4byte	.LCFI0
 1852 0010 5E000000 		.4byte	.LFE64
 1853 0014 0200     		.2byte	0x2
 1854 0016 7D       		.byte	0x7d
 1855 0017 10       		.sleb128 16
 1856 0018 00000000 		.4byte	0
 1857 001c 00000000 		.4byte	0
 1858              	.LLST1:
 1859 0020 00000000 		.4byte	.LVL1
 1860 0024 18000000 		.4byte	.LVL2
 1861 0028 0100     		.2byte	0x1
 1862 002a 50       		.byte	0x50
 1863 002b 18000000 		.4byte	.LVL2
 1864 002f 5E000000 		.4byte	.LFE64
 1865 0033 0100     		.2byte	0x1
 1866 0035 54       		.byte	0x54
 1867 0036 00000000 		.4byte	0
 1868 003a 00000000 		.4byte	0
 1869              	.LLST2:
 1870 003e 00000000 		.4byte	.LVL1
 1871 0042 18000000 		.4byte	.LVL2
 1872 0046 0100     		.2byte	0x1
 1873 0048 51       		.byte	0x51
 1874 0049 18000000 		.4byte	.LVL2
 1875 004d 5E000000 		.4byte	.LFE64
 1876 0051 0100     		.2byte	0x1
 1877 0053 55       		.byte	0x55
 1878 0054 00000000 		.4byte	0
 1879 0058 00000000 		.4byte	0
 1880              	.LLST3:
 1881 005c 1E000000 		.4byte	.LVL4
 1882 0060 21000000 		.4byte	.LVL5-1
 1883 0064 0100     		.2byte	0x1
 1884 0066 53       		.byte	0x53
 1885 0067 00000000 		.4byte	0
 1886 006b 00000000 		.4byte	0
 1887              	.LLST4:
 1888 006f 4E000000 		.4byte	.LVL7
 1889 0073 50000000 		.4byte	.LVL8
 1890 0077 0100     		.2byte	0x1
 1891 0079 53       		.byte	0x53
ARM GAS  C:\Users\z80\AppData\Local\Temp\ccR63Wvm.s 			page 35


 1892 007a 00000000 		.4byte	0
 1893 007e 00000000 		.4byte	0
 1894              	.LLST5:
 1895 0082 00000000 		.4byte	.LFB65
 1896 0086 02000000 		.4byte	.LCFI1
 1897 008a 0200     		.2byte	0x2
 1898 008c 7D       		.byte	0x7d
 1899 008d 00       		.sleb128 0
 1900 008e 02000000 		.4byte	.LCFI1
 1901 0092 4A000000 		.4byte	.LFE65
 1902 0096 0200     		.2byte	0x2
 1903 0098 7D       		.byte	0x7d
 1904 0099 08       		.sleb128 8
 1905 009a 00000000 		.4byte	0
 1906 009e 00000000 		.4byte	0
 1907              	.LLST6:
 1908 00a2 00000000 		.4byte	.LVL9
 1909 00a6 06000000 		.4byte	.LVL10
 1910 00aa 0100     		.2byte	0x1
 1911 00ac 50       		.byte	0x50
 1912 00ad 06000000 		.4byte	.LVL10
 1913 00b1 4A000000 		.4byte	.LFE65
 1914 00b5 0100     		.2byte	0x1
 1915 00b7 54       		.byte	0x54
 1916 00b8 00000000 		.4byte	0
 1917 00bc 00000000 		.4byte	0
 1918              	.LLST7:
 1919 00c0 0C000000 		.4byte	.LVL12
 1920 00c4 0F000000 		.4byte	.LVL13-1
 1921 00c8 0100     		.2byte	0x1
 1922 00ca 53       		.byte	0x53
 1923 00cb 00000000 		.4byte	0
 1924 00cf 00000000 		.4byte	0
 1925              	.LLST8:
 1926 00d3 3A000000 		.4byte	.LVL15
 1927 00d7 3C000000 		.4byte	.LVL16
 1928 00db 0100     		.2byte	0x1
 1929 00dd 53       		.byte	0x53
 1930 00de 00000000 		.4byte	0
 1931 00e2 00000000 		.4byte	0
 1932              	.LLST9:
 1933 00e6 00000000 		.4byte	.LFB67
 1934 00ea 02000000 		.4byte	.LCFI2
 1935 00ee 0200     		.2byte	0x2
 1936 00f0 7D       		.byte	0x7d
 1937 00f1 00       		.sleb128 0
 1938 00f2 02000000 		.4byte	.LCFI2
 1939 00f6 3C000000 		.4byte	.LFE67
 1940 00fa 0200     		.2byte	0x2
 1941 00fc 7D       		.byte	0x7d
 1942 00fd 10       		.sleb128 16
 1943 00fe 00000000 		.4byte	0
 1944 0102 00000000 		.4byte	0
 1945              	.LLST10:
 1946 0106 00000000 		.4byte	.LVL17
 1947 010a 09000000 		.4byte	.LVL18-1
 1948 010e 0100     		.2byte	0x1
ARM GAS  C:\Users\z80\AppData\Local\Temp\ccR63Wvm.s 			page 36


 1949 0110 50       		.byte	0x50
 1950 0111 09000000 		.4byte	.LVL18-1
 1951 0115 3C000000 		.4byte	.LFE67
 1952 0119 0100     		.2byte	0x1
 1953 011b 54       		.byte	0x54
 1954 011c 00000000 		.4byte	0
 1955 0120 00000000 		.4byte	0
 1956              	.LLST11:
 1957 0124 00000000 		.4byte	.LVL17
 1958 0128 09000000 		.4byte	.LVL18-1
 1959 012c 0100     		.2byte	0x1
 1960 012e 51       		.byte	0x51
 1961 012f 00000000 		.4byte	0
 1962 0133 00000000 		.4byte	0
 1963              	.LLST12:
 1964 0137 00000000 		.4byte	.LFB66
 1965 013b 02000000 		.4byte	.LCFI3
 1966 013f 0200     		.2byte	0x2
 1967 0141 7D       		.byte	0x7d
 1968 0142 00       		.sleb128 0
 1969 0143 02000000 		.4byte	.LCFI3
 1970 0147 24000000 		.4byte	.LFE66
 1971 014b 0200     		.2byte	0x2
 1972 014d 7D       		.byte	0x7d
 1973 014e 10       		.sleb128 16
 1974 014f 00000000 		.4byte	0
 1975 0153 00000000 		.4byte	0
 1976              	.LLST13:
 1977 0157 00000000 		.4byte	.LVL19
 1978 015b 0F000000 		.4byte	.LVL22-1
 1979 015f 0100     		.2byte	0x1
 1980 0161 50       		.byte	0x50
 1981 0162 0F000000 		.4byte	.LVL22-1
 1982 0166 24000000 		.4byte	.LFE66
 1983 016a 0100     		.2byte	0x1
 1984 016c 55       		.byte	0x55
 1985 016d 00000000 		.4byte	0
 1986 0171 00000000 		.4byte	0
 1987              	.LLST14:
 1988 0175 00000000 		.4byte	.LVL19
 1989 0179 0F000000 		.4byte	.LVL22-1
 1990 017d 0100     		.2byte	0x1
 1991 017f 51       		.byte	0x51
 1992 0180 00000000 		.4byte	0
 1993 0184 00000000 		.4byte	0
 1994              	.LLST15:
 1995 0188 0C000000 		.4byte	.LVL21
 1996 018c 0F000000 		.4byte	.LVL22-1
 1997 0190 0100     		.2byte	0x1
 1998 0192 53       		.byte	0x53
 1999 0193 00000000 		.4byte	0
 2000 0197 00000000 		.4byte	0
 2001              	.LLST16:
 2002 019b 22000000 		.4byte	.LVL24
 2003 019f 24000000 		.4byte	.LFE66
 2004 01a3 0100     		.2byte	0x1
 2005 01a5 53       		.byte	0x53
ARM GAS  C:\Users\z80\AppData\Local\Temp\ccR63Wvm.s 			page 37


 2006 01a6 00000000 		.4byte	0
 2007 01aa 00000000 		.4byte	0
 2008              	.LLST17:
 2009 01ae 00000000 		.4byte	.LFB69
 2010 01b2 02000000 		.4byte	.LCFI4
 2011 01b6 0200     		.2byte	0x2
 2012 01b8 7D       		.byte	0x7d
 2013 01b9 00       		.sleb128 0
 2014 01ba 02000000 		.4byte	.LCFI4
 2015 01be 3C000000 		.4byte	.LFE69
 2016 01c2 0200     		.2byte	0x2
 2017 01c4 7D       		.byte	0x7d
 2018 01c5 10       		.sleb128 16
 2019 01c6 00000000 		.4byte	0
 2020 01ca 00000000 		.4byte	0
 2021              	.LLST18:
 2022 01ce 00000000 		.4byte	.LVL25
 2023 01d2 09000000 		.4byte	.LVL26-1
 2024 01d6 0100     		.2byte	0x1
 2025 01d8 50       		.byte	0x50
 2026 01d9 09000000 		.4byte	.LVL26-1
 2027 01dd 3C000000 		.4byte	.LFE69
 2028 01e1 0100     		.2byte	0x1
 2029 01e3 54       		.byte	0x54
 2030 01e4 00000000 		.4byte	0
 2031 01e8 00000000 		.4byte	0
 2032              	.LLST19:
 2033 01ec 00000000 		.4byte	.LVL25
 2034 01f0 09000000 		.4byte	.LVL26-1
 2035 01f4 0100     		.2byte	0x1
 2036 01f6 51       		.byte	0x51
 2037 01f7 00000000 		.4byte	0
 2038 01fb 00000000 		.4byte	0
 2039              	.LLST20:
 2040 01ff 00000000 		.4byte	.LFB68
 2041 0203 02000000 		.4byte	.LCFI5
 2042 0207 0200     		.2byte	0x2
 2043 0209 7D       		.byte	0x7d
 2044 020a 00       		.sleb128 0
 2045 020b 02000000 		.4byte	.LCFI5
 2046 020f 24000000 		.4byte	.LFE68
 2047 0213 0200     		.2byte	0x2
 2048 0215 7D       		.byte	0x7d
 2049 0216 10       		.sleb128 16
 2050 0217 00000000 		.4byte	0
 2051 021b 00000000 		.4byte	0
 2052              	.LLST21:
 2053 021f 00000000 		.4byte	.LVL27
 2054 0223 0F000000 		.4byte	.LVL30-1
 2055 0227 0100     		.2byte	0x1
 2056 0229 50       		.byte	0x50
 2057 022a 0F000000 		.4byte	.LVL30-1
 2058 022e 24000000 		.4byte	.LFE68
 2059 0232 0100     		.2byte	0x1
 2060 0234 55       		.byte	0x55
 2061 0235 00000000 		.4byte	0
 2062 0239 00000000 		.4byte	0
ARM GAS  C:\Users\z80\AppData\Local\Temp\ccR63Wvm.s 			page 38


 2063              	.LLST22:
 2064 023d 00000000 		.4byte	.LVL27
 2065 0241 0F000000 		.4byte	.LVL30-1
 2066 0245 0100     		.2byte	0x1
 2067 0247 51       		.byte	0x51
 2068 0248 00000000 		.4byte	0
 2069 024c 00000000 		.4byte	0
 2070              	.LLST23:
 2071 0250 0C000000 		.4byte	.LVL29
 2072 0254 0F000000 		.4byte	.LVL30-1
 2073 0258 0100     		.2byte	0x1
 2074 025a 53       		.byte	0x53
 2075 025b 00000000 		.4byte	0
 2076 025f 00000000 		.4byte	0
 2077              	.LLST24:
 2078 0263 22000000 		.4byte	.LVL32
 2079 0267 24000000 		.4byte	.LFE68
 2080 026b 0100     		.2byte	0x1
 2081 026d 53       		.byte	0x53
 2082 026e 00000000 		.4byte	0
 2083 0272 00000000 		.4byte	0
 2084              	.LLST25:
 2085 0276 00000000 		.4byte	.LFB71
 2086 027a 02000000 		.4byte	.LCFI6
 2087 027e 0200     		.2byte	0x2
 2088 0280 7D       		.byte	0x7d
 2089 0281 00       		.sleb128 0
 2090 0282 02000000 		.4byte	.LCFI6
 2091 0286 3C000000 		.4byte	.LFE71
 2092 028a 0200     		.2byte	0x2
 2093 028c 7D       		.byte	0x7d
 2094 028d 08       		.sleb128 8
 2095 028e 00000000 		.4byte	0
 2096 0292 00000000 		.4byte	0
 2097              	.LLST26:
 2098 0296 00000000 		.4byte	.LVL33
 2099 029a 07000000 		.4byte	.LVL34-1
 2100 029e 0100     		.2byte	0x1
 2101 02a0 50       		.byte	0x50
 2102 02a1 07000000 		.4byte	.LVL34-1
 2103 02a5 3C000000 		.4byte	.LFE71
 2104 02a9 0100     		.2byte	0x1
 2105 02ab 54       		.byte	0x54
 2106 02ac 00000000 		.4byte	0
 2107 02b0 00000000 		.4byte	0
 2108              	.LLST27:
 2109 02b4 00000000 		.4byte	.LFB70
 2110 02b8 02000000 		.4byte	.LCFI7
 2111 02bc 0200     		.2byte	0x2
 2112 02be 7D       		.byte	0x7d
 2113 02bf 00       		.sleb128 0
 2114 02c0 02000000 		.4byte	.LCFI7
 2115 02c4 20000000 		.4byte	.LFE70
 2116 02c8 0200     		.2byte	0x2
 2117 02ca 7D       		.byte	0x7d
 2118 02cb 08       		.sleb128 8
 2119 02cc 00000000 		.4byte	0
ARM GAS  C:\Users\z80\AppData\Local\Temp\ccR63Wvm.s 			page 39


 2120 02d0 00000000 		.4byte	0
 2121              	.LLST28:
 2122 02d4 00000000 		.4byte	.LVL35
 2123 02d8 0D000000 		.4byte	.LVL38-1
 2124 02dc 0100     		.2byte	0x1
 2125 02de 50       		.byte	0x50
 2126 02df 0D000000 		.4byte	.LVL38-1
 2127 02e3 20000000 		.4byte	.LFE70
 2128 02e7 0100     		.2byte	0x1
 2129 02e9 54       		.byte	0x54
 2130 02ea 00000000 		.4byte	0
 2131 02ee 00000000 		.4byte	0
 2132              	.LLST29:
 2133 02f2 0A000000 		.4byte	.LVL37
 2134 02f6 0D000000 		.4byte	.LVL38-1
 2135 02fa 0100     		.2byte	0x1
 2136 02fc 53       		.byte	0x53
 2137 02fd 00000000 		.4byte	0
 2138 0301 00000000 		.4byte	0
 2139              	.LLST30:
 2140 0305 1E000000 		.4byte	.LVL40
 2141 0309 20000000 		.4byte	.LFE70
 2142 030d 0100     		.2byte	0x1
 2143 030f 53       		.byte	0x53
 2144 0310 00000000 		.4byte	0
 2145 0314 00000000 		.4byte	0
 2146              	.LLST31:
 2147 0318 00000000 		.4byte	.LFB72
 2148 031c 02000000 		.4byte	.LCFI8
 2149 0320 0200     		.2byte	0x2
 2150 0322 7D       		.byte	0x7d
 2151 0323 00       		.sleb128 0
 2152 0324 02000000 		.4byte	.LCFI8
 2153 0328 2A000000 		.4byte	.LFE72
 2154 032c 0200     		.2byte	0x2
 2155 032e 7D       		.byte	0x7d
 2156 032f 10       		.sleb128 16
 2157 0330 00000000 		.4byte	0
 2158 0334 00000000 		.4byte	0
 2159              	.LLST32:
 2160 0338 00000000 		.4byte	.LVL41
 2161 033c 10000000 		.4byte	.LVL42
 2162 0340 0100     		.2byte	0x1
 2163 0342 50       		.byte	0x50
 2164 0343 10000000 		.4byte	.LVL42
 2165 0347 2A000000 		.4byte	.LFE72
 2166 034b 0100     		.2byte	0x1
 2167 034d 54       		.byte	0x54
 2168 034e 00000000 		.4byte	0
 2169 0352 00000000 		.4byte	0
 2170              	.LLST33:
 2171 0356 00000000 		.4byte	.LVL41
 2172 035a 17000000 		.4byte	.LVL43-1
 2173 035e 0100     		.2byte	0x1
 2174 0360 51       		.byte	0x51
 2175 0361 00000000 		.4byte	0
 2176 0365 00000000 		.4byte	0
ARM GAS  C:\Users\z80\AppData\Local\Temp\ccR63Wvm.s 			page 40


 2177              		.section	.debug_aranges,"",%progbits
 2178 0000 6C000000 		.4byte	0x6c
 2179 0004 0200     		.2byte	0x2
 2180 0006 00000000 		.4byte	.Ldebug_info0
 2181 000a 04       		.byte	0x4
 2182 000b 00       		.byte	0
 2183 000c 0000     		.2byte	0
 2184 000e 0000     		.2byte	0
 2185 0010 00000000 		.4byte	.LFB62
 2186 0014 04000000 		.4byte	.LFE62-.LFB62
 2187 0018 00000000 		.4byte	.LFB63
 2188 001c 0A000000 		.4byte	.LFE63-.LFB63
 2189 0020 00000000 		.4byte	.LFB64
 2190 0024 5E000000 		.4byte	.LFE64-.LFB64
 2191 0028 00000000 		.4byte	.LFB65
 2192 002c 4A000000 		.4byte	.LFE65-.LFB65
 2193 0030 00000000 		.4byte	.LFB67
 2194 0034 3C000000 		.4byte	.LFE67-.LFB67
 2195 0038 00000000 		.4byte	.LFB66
 2196 003c 24000000 		.4byte	.LFE66-.LFB66
 2197 0040 00000000 		.4byte	.LFB69
 2198 0044 3C000000 		.4byte	.LFE69-.LFB69
 2199 0048 00000000 		.4byte	.LFB68
 2200 004c 24000000 		.4byte	.LFE68-.LFB68
 2201 0050 00000000 		.4byte	.LFB71
 2202 0054 3C000000 		.4byte	.LFE71-.LFB71
 2203 0058 00000000 		.4byte	.LFB70
 2204 005c 20000000 		.4byte	.LFE70-.LFB70
 2205 0060 00000000 		.4byte	.LFB72
 2206 0064 2A000000 		.4byte	.LFE72-.LFB72
 2207 0068 00000000 		.4byte	0
 2208 006c 00000000 		.4byte	0
 2209              		.section	.debug_ranges,"",%progbits
 2210              	.Ldebug_ranges0:
 2211 0000 02000000 		.4byte	.LBB10
 2212 0004 04000000 		.4byte	.LBE10
 2213 0008 06000000 		.4byte	.LBB11
 2214 000c 0A000000 		.4byte	.LBE11
 2215 0010 00000000 		.4byte	0
 2216 0014 00000000 		.4byte	0
 2217 0018 00000000 		.4byte	.LFB62
 2218 001c 04000000 		.4byte	.LFE62
 2219 0020 00000000 		.4byte	.LFB63
 2220 0024 0A000000 		.4byte	.LFE63
 2221 0028 00000000 		.4byte	.LFB64
 2222 002c 5E000000 		.4byte	.LFE64
 2223 0030 00000000 		.4byte	.LFB65
 2224 0034 4A000000 		.4byte	.LFE65
 2225 0038 00000000 		.4byte	.LFB67
 2226 003c 3C000000 		.4byte	.LFE67
 2227 0040 00000000 		.4byte	.LFB66
 2228 0044 24000000 		.4byte	.LFE66
 2229 0048 00000000 		.4byte	.LFB69
 2230 004c 3C000000 		.4byte	.LFE69
 2231 0050 00000000 		.4byte	.LFB68
 2232 0054 24000000 		.4byte	.LFE68
 2233 0058 00000000 		.4byte	.LFB71
ARM GAS  C:\Users\z80\AppData\Local\Temp\ccR63Wvm.s 			page 41


 2234 005c 3C000000 		.4byte	.LFE71
 2235 0060 00000000 		.4byte	.LFB70
 2236 0064 20000000 		.4byte	.LFE70
 2237 0068 00000000 		.4byte	.LFB72
 2238 006c 2A000000 		.4byte	.LFE72
 2239 0070 00000000 		.4byte	0
 2240 0074 00000000 		.4byte	0
 2241              		.section	.debug_line,"",%progbits
 2242              	.Ldebug_line0:
 2243 0000 A2020000 		.section	.debug_str,"MS",%progbits,1
 2243      02005A01 
 2243      00000201 
 2243      FB0E0D00 
 2243      01010101 
 2244              	.LASF25:
 2245 0000 43434552 		.ascii	"CCER\000"
 2245      00
 2246              	.LASF36:
 2247 0005 4750545F 		.ascii	"GPT_UNINIT\000"
 2247      554E494E 
 2247      495400
 2248              	.LASF32:
 2249 0010 444D4152 		.ascii	"DMAR\000"
 2249      00
 2250              	.LASF43:
 2251 0015 73746174 		.ascii	"state\000"
 2251      6500
 2252              	.LASF23:
 2253 001b 43434D52 		.ascii	"CCMR2\000"
 2253      3200
 2254              	.LASF3:
 2255 0021 73686F72 		.ascii	"short int\000"
 2255      7420696E 
 2255      7400
 2256              	.LASF46:
 2257 002b 67707463 		.ascii	"gptcallback_t\000"
 2257      616C6C62 
 2257      61636B5F 
 2257      7400
 2258              	.LASF48:
 2259 0039 67707463 		.ascii	"gptcnt_t\000"
 2259      6E745F74 
 2259      00
 2260              	.LASF61:
 2261 0042 67707453 		.ascii	"gptStopTimerI\000"
 2261      746F7054 
 2261      696D6572 
 2261      4900
 2262              	.LASF44:
 2263 0050 636F6E66 		.ascii	"config\000"
 2263      696700
 2264              	.LASF40:
 2265 0057 4750545F 		.ascii	"GPT_ONESHOT\000"
 2265      4F4E4553 
 2265      484F5400 
 2266              	.LASF13:
 2267 0063 5F726573 		.ascii	"_resvd0\000"
ARM GAS  C:\Users\z80\AppData\Local\Temp\ccR63Wvm.s 			page 42


 2267      76643000 
 2268              	.LASF14:
 2269 006b 5F726573 		.ascii	"_resvd1\000"
 2269      76643100 
 2270              	.LASF16:
 2271 0073 5F726573 		.ascii	"_resvd2\000"
 2271      76643200 
 2272              	.LASF18:
 2273 007b 5F726573 		.ascii	"_resvd3\000"
 2273      76643300 
 2274              	.LASF19:
 2275 0083 5F726573 		.ascii	"_resvd4\000"
 2275      76643400 
 2276              	.LASF20:
 2277 008b 5F726573 		.ascii	"_resvd5\000"
 2277      76643500 
 2278              	.LASF22:
 2279 0093 5F726573 		.ascii	"_resvd6\000"
 2279      76643600 
 2280              	.LASF24:
 2281 009b 5F726573 		.ascii	"_resvd7\000"
 2281      76643700 
 2282              	.LASF26:
 2283 00a3 5F726573 		.ascii	"_resvd8\000"
 2283      76643800 
 2284              	.LASF27:
 2285 00ab 5F726573 		.ascii	"_resvd9\000"
 2285      76643900 
 2286              	.LASF41:
 2287 00b3 67707473 		.ascii	"gptstate_t\000"
 2287      74617465 
 2287      5F7400
 2288              	.LASF10:
 2289 00be 6C6F6E67 		.ascii	"long long int\000"
 2289      206C6F6E 
 2289      6720696E 
 2289      7400
 2290              	.LASF60:
 2291 00cc 67707453 		.ascii	"gptStartOneShot\000"
 2291      74617274 
 2291      4F6E6553 
 2291      686F7400 
 2292              	.LASF56:
 2293 00dc 67707453 		.ascii	"gptStartContinuousI\000"
 2293      74617274 
 2293      436F6E74 
 2293      696E756F 
 2293      75734900 
 2294              	.LASF7:
 2295 00f0 6C6F6E67 		.ascii	"long int\000"
 2295      20696E74 
 2295      00
 2296              	.LASF53:
 2297 00f9 67707453 		.ascii	"gptStart\000"
 2297      74617274 
 2297      00
 2298              	.LASF63:
ARM GAS  C:\Users\z80\AppData\Local\Temp\ccR63Wvm.s 			page 43


 2299 0102 67707450 		.ascii	"gptPolledDelay\000"
 2299      6F6C6C65 
 2299      6444656C 
 2299      617900
 2300              	.LASF21:
 2301 0111 43434D52 		.ascii	"CCMR1\000"
 2301      3100
 2302              	.LASF15:
 2303 0117 534D4352 		.ascii	"SMCR\000"
 2303      00
 2304              	.LASF2:
 2305 011c 756E7369 		.ascii	"unsigned char\000"
 2305      676E6564 
 2305      20636861 
 2305      7200
 2306              	.LASF67:
 2307 012a 67707449 		.ascii	"gptInit\000"
 2307      6E697400 
 2308              	.LASF58:
 2309 0132 67707453 		.ascii	"gptStartContinuous\000"
 2309      74617274 
 2309      436F6E74 
 2309      696E756F 
 2309      757300
 2310              	.LASF1:
 2311 0145 7369676E 		.ascii	"signed char\000"
 2311      65642063 
 2311      68617200 
 2312              	.LASF11:
 2313 0151 6C6F6E67 		.ascii	"long long unsigned int\000"
 2313      206C6F6E 
 2313      6720756E 
 2313      7369676E 
 2313      65642069 
 2314              	.LASF8:
 2315 0168 75696E74 		.ascii	"uint32_t\000"
 2315      33325F74 
 2315      00
 2316              	.LASF0:
 2317 0171 756E7369 		.ascii	"unsigned int\000"
 2317      676E6564 
 2317      20696E74 
 2317      00
 2318              	.LASF5:
 2319 017e 75696E74 		.ascii	"uint16_t\000"
 2319      31365F74 
 2319      00
 2320              	.LASF17:
 2321 0187 44494552 		.ascii	"DIER\000"
 2321      00
 2322              	.LASF30:
 2323 018c 5F726573 		.ascii	"_resvd11\000"
 2323      76643131 
 2323      00
 2324              	.LASF31:
 2325 0195 5F726573 		.ascii	"_resvd12\000"
 2325      76643132 
ARM GAS  C:\Users\z80\AppData\Local\Temp\ccR63Wvm.s 			page 44


 2325      00
 2326              	.LASF33:
 2327 019e 5F726573 		.ascii	"_resvd13\000"
 2327      76643133 
 2327      00
 2328              	.LASF34:
 2329 01a7 5F726573 		.ascii	"_resvd14\000"
 2329      76643134 
 2329      00
 2330              	.LASF4:
 2331 01b0 73686F72 		.ascii	"short unsigned int\000"
 2331      7420756E 
 2331      7369676E 
 2331      65642069 
 2331      6E7400
 2332              	.LASF12:
 2333 01c3 63686172 		.ascii	"char\000"
 2333      00
 2334              	.LASF35:
 2335 01c8 73746D33 		.ascii	"stm32_tim_t\000"
 2335      325F7469 
 2335      6D5F7400 
 2336              	.LASF29:
 2337 01d4 42445452 		.ascii	"BDTR\000"
 2337      00
 2338              	.LASF6:
 2339 01d9 696E7433 		.ascii	"int32_t\000"
 2339      325F7400 
 2340              	.LASF64:
 2341 01e1 474E5520 		.ascii	"GNU C 4.6.3\000"
 2341      4320342E 
 2341      362E3300 
 2342              	.LASF39:
 2343 01ed 4750545F 		.ascii	"GPT_CONTINUOUS\000"
 2343      434F4E54 
 2343      494E554F 
 2343      555300
 2344              	.LASF38:
 2345 01fc 4750545F 		.ascii	"GPT_READY\000"
 2345      52454144 
 2345      5900
 2346              	.LASF42:
 2347 0206 47505444 		.ascii	"GPTDriver\000"
 2347      72697665 
 2347      7200
 2348              	.LASF9:
 2349 0210 6C6F6E67 		.ascii	"long unsigned int\000"
 2349      20756E73 
 2349      69676E65 
 2349      6420696E 
 2349      7400
 2350              	.LASF45:
 2351 0222 636C6F63 		.ascii	"clock\000"
 2351      6B00
 2352              	.LASF66:
 2353 0228 433A5C70 		.ascii	"C:\\projects\\digitizer.git\\firmware\\digitizer\000"
 2353      726F6A65 
ARM GAS  C:\Users\z80\AppData\Local\Temp\ccR63Wvm.s 			page 45


 2353      6374735C 
 2353      64696769 
 2353      74697A65 
 2354              	.LASF57:
 2355 0255 696E7465 		.ascii	"interval\000"
 2355      7276616C 
 2355      00
 2356              	.LASF28:
 2357 025e 5F726573 		.ascii	"_resvd10\000"
 2357      76643130 
 2357      00
 2358              	.LASF37:
 2359 0267 4750545F 		.ascii	"GPT_STOP\000"
 2359      53544F50 
 2359      00
 2360              	.LASF54:
 2361 0270 67707470 		.ascii	"gptp\000"
 2361      00
 2362              	.LASF51:
 2363 0275 47505443 		.ascii	"GPTConfig\000"
 2363      6F6E6669 
 2363      6700
 2364              	.LASF59:
 2365 027f 67707453 		.ascii	"gptStartOneShotI\000"
 2365      74617274 
 2365      4F6E6553 
 2365      686F7449 
 2365      00
 2366              	.LASF62:
 2367 0290 67707453 		.ascii	"gptStopTimer\000"
 2367      746F7054 
 2367      696D6572 
 2367      00
 2368              	.LASF49:
 2369 029d 66726571 		.ascii	"frequency\000"
 2369      75656E63 
 2369      7900
 2370              	.LASF65:
 2371 02a7 2E2E2F63 		.ascii	"../chibios_2.4.x/os/hal/src/gpt.c\000"
 2371      68696269 
 2371      6F735F32 
 2371      2E342E78 
 2371      2F6F732F 
 2372              	.LASF52:
 2373 02c9 6770744F 		.ascii	"gptObjectInit\000"
 2373      626A6563 
 2373      74496E69 
 2373      7400
 2374              	.LASF68:
 2375 02d7 49544D5F 		.ascii	"ITM_RxBuffer\000"
 2375      52784275 
 2375      66666572 
 2375      00
 2376              	.LASF47:
 2377 02e4 67707466 		.ascii	"gptfreq_t\000"
 2377      7265715F 
 2377      7400
ARM GAS  C:\Users\z80\AppData\Local\Temp\ccR63Wvm.s 			page 46


 2378              	.LASF55:
 2379 02ee 67707453 		.ascii	"gptStop\000"
 2379      746F7000 
 2380              	.LASF50:
 2381 02f6 63616C6C 		.ascii	"callback\000"
 2381      6261636B 
 2381      00
 2382              		.ident	"GCC: (Sourcery CodeBench Lite 2012.03-56) 4.6.3"
ARM GAS  C:\Users\z80\AppData\Local\Temp\ccR63Wvm.s 			page 47


DEFINED SYMBOLS
                            *ABS*:00000000 gpt.c
C:\Users\z80\AppData\Local\Temp\ccR63Wvm.s:19     .text.gptInit:00000000 $t
C:\Users\z80\AppData\Local\Temp\ccR63Wvm.s:25     .text.gptInit:00000000 gptInit
C:\Users\z80\AppData\Local\Temp\ccR63Wvm.s:40     .text.gptObjectInit:00000000 $t
C:\Users\z80\AppData\Local\Temp\ccR63Wvm.s:46     .text.gptObjectInit:00000000 gptObjectInit
C:\Users\z80\AppData\Local\Temp\ccR63Wvm.s:68     .text.gptStart:00000000 $t
C:\Users\z80\AppData\Local\Temp\ccR63Wvm.s:74     .text.gptStart:00000000 gptStart
C:\Users\z80\AppData\Local\Temp\ccR63Wvm.s:628    .rodata.str1.4:0000000c .LC1
C:\Users\z80\AppData\Local\Temp\ccR63Wvm.s:626    .rodata.str1.4:00000000 .LC0
C:\Users\z80\AppData\Local\Temp\ccR63Wvm.s:156    .text.gptStop:00000000 $t
C:\Users\z80\AppData\Local\Temp\ccR63Wvm.s:162    .text.gptStop:00000000 gptStop
C:\Users\z80\AppData\Local\Temp\ccR63Wvm.s:633    .rodata.str1.4:00000028 .LC3
C:\Users\z80\AppData\Local\Temp\ccR63Wvm.s:631    .rodata.str1.4:0000001c .LC2
C:\Users\z80\AppData\Local\Temp\ccR63Wvm.s:232    .text.gptStartContinuousI:00000000 $t
C:\Users\z80\AppData\Local\Temp\ccR63Wvm.s:238    .text.gptStartContinuousI:00000000 gptStartContinuousI
C:\Users\z80\AppData\Local\Temp\ccR63Wvm.s:638    .rodata.str1.4:00000050 .LC5
C:\Users\z80\AppData\Local\Temp\ccR63Wvm.s:636    .rodata.str1.4:00000038 .LC4
C:\Users\z80\AppData\Local\Temp\ccR63Wvm.s:290    .text.gptStartContinuous:00000000 $t
C:\Users\z80\AppData\Local\Temp\ccR63Wvm.s:296    .text.gptStartContinuous:00000000 gptStartContinuous
C:\Users\z80\AppData\Local\Temp\ccR63Wvm.s:346    .text.gptStartOneShotI:00000000 $t
C:\Users\z80\AppData\Local\Temp\ccR63Wvm.s:352    .text.gptStartOneShotI:00000000 gptStartOneShotI
C:\Users\z80\AppData\Local\Temp\ccR63Wvm.s:644    .rodata.str1.4:00000084 .LC7
C:\Users\z80\AppData\Local\Temp\ccR63Wvm.s:641    .rodata.str1.4:0000006c .LC6
C:\Users\z80\AppData\Local\Temp\ccR63Wvm.s:404    .text.gptStartOneShot:00000000 $t
C:\Users\z80\AppData\Local\Temp\ccR63Wvm.s:410    .text.gptStartOneShot:00000000 gptStartOneShot
C:\Users\z80\AppData\Local\Temp\ccR63Wvm.s:460    .text.gptStopTimerI:00000000 $t
C:\Users\z80\AppData\Local\Temp\ccR63Wvm.s:466    .text.gptStopTimerI:00000000 gptStopTimerI
C:\Users\z80\AppData\Local\Temp\ccR63Wvm.s:650    .rodata.str1.4:000000b0 .LC9
C:\Users\z80\AppData\Local\Temp\ccR63Wvm.s:647    .rodata.str1.4:0000009c .LC8
C:\Users\z80\AppData\Local\Temp\ccR63Wvm.s:517    .text.gptStopTimer:00000000 $t
C:\Users\z80\AppData\Local\Temp\ccR63Wvm.s:523    .text.gptStopTimer:00000000 gptStopTimer
C:\Users\z80\AppData\Local\Temp\ccR63Wvm.s:572    .text.gptPolledDelay:00000000 $t
C:\Users\z80\AppData\Local\Temp\ccR63Wvm.s:578    .text.gptPolledDelay:00000000 gptPolledDelay
C:\Users\z80\AppData\Local\Temp\ccR63Wvm.s:652    .rodata.str1.4:000000c4 .LC10
C:\Users\z80\AppData\Local\Temp\ccR63Wvm.s:625    .rodata.str1.4:00000000 $d
                     .debug_frame:00000010 $d

UNDEFINED SYMBOLS
gpt_lld_init
dbg_check_lock
chDbgPanic
gpt_lld_start
dbg_check_unlock
gpt_lld_stop
chDbgCheckClassI
gpt_lld_start_timer
gpt_lld_stop_timer
gpt_lld_polled_delay
