ARM GAS  C:\Users\z80\AppData\Local\Temp\ccaGNFwP.s 			page 1


   1              		.syntax unified
   2              		.cpu cortex-m3
   3              		.fpu softvfp
   4              		.eabi_attribute 20, 1
   5              		.eabi_attribute 21, 1
   6              		.eabi_attribute 23, 3
   7              		.eabi_attribute 24, 1
   8              		.eabi_attribute 25, 1
   9              		.eabi_attribute 26, 1
  10              		.eabi_attribute 30, 6
  11              		.eabi_attribute 34, 1
  12              		.eabi_attribute 18, 4
  13              		.thumb
  14              		.file	"gpt.c"
  15              		.text
  16              	.Ltext0:
  17              		.cfi_sections	.debug_frame
  18              		.section	.text.gptInit,"ax",%progbits
  19              		.align	2
  20              		.p2align 4,,15
  21              		.global	gptInit
  22              		.thumb
  23              		.thumb_func
  24              		.type	gptInit, %function
  25              	gptInit:
  26              	.LFB62:
  27              		.file 1 "../chibios_2.4.x/os/hal/src/gpt.c"
  28              		.loc 1 68 0
  29              		.cfi_startproc
  30              		@ args = 0, pretend = 0, frame = 0
  31              		@ frame_needed = 0, uses_anonymous_args = 0
  32 0000 08B5     		push	{r3, lr}
  33              	.LCFI0:
  34              		.cfi_def_cfa_offset 8
  35              		.cfi_offset 14, -4
  36              		.cfi_offset 3, -8
  37              		.loc 1 70 0
  38 0002 FFF7FEFF 		bl	gpt_lld_init
  39              		.loc 1 71 0
  40 0006 08BD     		pop	{r3, pc}
  41              		.cfi_endproc
  42              	.LFE62:
  43              		.size	gptInit, .-gptInit
  44 0008 AFF30080 		.section	.text.gptObjectInit,"ax",%progbits
  44      AFF30080 
  45              		.align	2
  46              		.p2align 4,,15
  47              		.global	gptObjectInit
  48              		.thumb
  49              		.thumb_func
  50              		.type	gptObjectInit, %function
  51              	gptObjectInit:
  52              	.LFB63:
  53              		.loc 1 80 0
  54              		.cfi_startproc
  55              		@ args = 0, pretend = 0, frame = 8
  56              		@ frame_needed = 0, uses_anonymous_args = 0
ARM GAS  C:\Users\z80\AppData\Local\Temp\ccaGNFwP.s 			page 2


  57              		@ link register save eliminated.
  58 0000 82B0     		sub	sp, sp, #8
  59              	.LCFI1:
  60              		.cfi_def_cfa_offset 8
  61 0002 0190     		str	r0, [sp, #4]
  62              		.loc 1 82 0
  63 0004 019B     		ldr	r3, [sp, #4]
  64 0006 4FF00102 		mov	r2, #1
  65 000a 1A70     		strb	r2, [r3, #0]
  66              		.loc 1 83 0
  67 000c 019B     		ldr	r3, [sp, #4]
  68 000e 4FF00002 		mov	r2, #0
  69 0012 5A60     		str	r2, [r3, #4]
  70              		.loc 1 84 0
  71 0014 02B0     		add	sp, sp, #8
  72 0016 7047     		bx	lr
  73              		.cfi_endproc
  74              	.LFE63:
  75              		.size	gptObjectInit, .-gptObjectInit
  76 0018 AFF30080 		.section	.rodata
  76      AFF30080 
  77              		.align	2
  78              	.LC0:
  79 0000 22707453 		.ascii	"\"ptStart\"()\000"
  79      74617274 
  79      22282900 
  80              		.align	2
  81              	.LC1:
  82 000c 67707453 		.ascii	"gptStart(), #1\000"
  82      74617274 
  82      28292C20 
  82      233100
  83              		.section	.text.gptStart,"ax",%progbits
  84              		.align	2
  85              		.p2align 4,,15
  86              		.global	gptStart
  87              		.thumb
  88              		.thumb_func
  89              		.type	gptStart, %function
  90              	gptStart:
  91              	.LFB64:
  92              		.loc 1 94 0
  93              		.cfi_startproc
  94              		@ args = 0, pretend = 0, frame = 8
  95              		@ frame_needed = 0, uses_anonymous_args = 0
  96 0000 00B5     		push	{lr}
  97              	.LCFI2:
  98              		.cfi_def_cfa_offset 4
  99              		.cfi_offset 14, -4
 100 0002 83B0     		sub	sp, sp, #12
 101              	.LCFI3:
 102              		.cfi_def_cfa_offset 16
 103 0004 0190     		str	r0, [sp, #4]
 104 0006 0091     		str	r1, [sp, #0]
 105              		.loc 1 96 0
 106 0008 019B     		ldr	r3, [sp, #4]
 107 000a 002B     		cmp	r3, #0
ARM GAS  C:\Users\z80\AppData\Local\Temp\ccaGNFwP.s 			page 3


 108 000c 02D0     		beq	.L4
 109              		.loc 1 96 0 is_stmt 0 discriminator 2
 110 000e 009B     		ldr	r3, [sp, #0]
 111 0010 002B     		cmp	r3, #0
 112 0012 05D1     		bne	.L5
 113              	.L4:
 114              		.loc 1 96 0 discriminator 1
 115 0014 40F20000 		movw	r0, #:lower16:.LC0
 116 0018 C0F20000 		movt	r0, #:upper16:.LC0
 117 001c FFF7FEFF 		bl	chDbgPanic
 118              	.L5:
 119              	.LBB2:
 120              		.loc 1 98 0 is_stmt 1
 121 0020 4FF02003 		mov	r3, #32
 122              	@ 98 "../chibios_2.4.x/os/hal/src/gpt.c" 1
 123 0024 83F31188 		msr     BASEPRI, r3
 124              	@ 0 "" 2
 125              		.thumb
 126              	.LBE2:
 127 0028 FFF7FEFF 		bl	dbg_check_lock
 128              		.loc 1 99 0
 129 002c 019B     		ldr	r3, [sp, #4]
 130 002e 1B78     		ldrb	r3, [r3, #0]	@ zero_extendqisi2
 131 0030 012B     		cmp	r3, #1
 132 0032 09D0     		beq	.L6
 133              		.loc 1 99 0 is_stmt 0 discriminator 1
 134 0034 019B     		ldr	r3, [sp, #4]
 135 0036 1B78     		ldrb	r3, [r3, #0]	@ zero_extendqisi2
 136 0038 022B     		cmp	r3, #2
 137 003a 05D0     		beq	.L6
 138              		.loc 1 99 0 discriminator 2
 139 003c 40F20000 		movw	r0, #:lower16:.LC1
 140 0040 C0F20000 		movt	r0, #:upper16:.LC1
 141 0044 FFF7FEFF 		bl	chDbgPanic
 142              	.L6:
 143              		.loc 1 101 0 is_stmt 1
 144 0048 019B     		ldr	r3, [sp, #4]
 145 004a 009A     		ldr	r2, [sp, #0]
 146 004c 5A60     		str	r2, [r3, #4]
 147              		.loc 1 102 0
 148 004e 0198     		ldr	r0, [sp, #4]
 149 0050 FFF7FEFF 		bl	gpt_lld_start
 150              		.loc 1 103 0
 151 0054 019B     		ldr	r3, [sp, #4]
 152 0056 4FF00202 		mov	r2, #2
 153 005a 1A70     		strb	r2, [r3, #0]
 154              		.loc 1 104 0
 155 005c FFF7FEFF 		bl	dbg_check_unlock
 156              	.LBB3:
 157 0060 4FF00003 		mov	r3, #0
 158              	@ 104 "../chibios_2.4.x/os/hal/src/gpt.c" 1
 159 0064 83F31188 		msr     BASEPRI, r3
 160              	@ 0 "" 2
 161              		.thumb
 162              	.LBE3:
 163              		.loc 1 105 0
 164 0068 03B0     		add	sp, sp, #12
ARM GAS  C:\Users\z80\AppData\Local\Temp\ccaGNFwP.s 			page 4


 165 006a 00BD     		pop	{pc}
 166              		.cfi_endproc
 167              	.LFE64:
 168              		.size	gptStart, .-gptStart
 169 006c AFF30080 		.section	.rodata
 170 001b 00       		.align	2
 171              	.LC2:
 172 001c 22677074 		.ascii	"\"gptStop\"()\000"
 172      53746F70 
 172      22282900 
 173              		.align	2
 174              	.LC3:
 175 0028 67707453 		.ascii	"gptStop(), #1\000"
 175      746F7028 
 175      292C2023 
 175      3100
 176              		.section	.text.gptStop,"ax",%progbits
 177              		.align	2
 178              		.p2align 4,,15
 179              		.global	gptStop
 180              		.thumb
 181              		.thumb_func
 182              		.type	gptStop, %function
 183              	gptStop:
 184              	.LFB65:
 185              		.loc 1 114 0
 186              		.cfi_startproc
 187              		@ args = 0, pretend = 0, frame = 8
 188              		@ frame_needed = 0, uses_anonymous_args = 0
 189 0000 00B5     		push	{lr}
 190              	.LCFI4:
 191              		.cfi_def_cfa_offset 4
 192              		.cfi_offset 14, -4
 193 0002 83B0     		sub	sp, sp, #12
 194              	.LCFI5:
 195              		.cfi_def_cfa_offset 16
 196 0004 0190     		str	r0, [sp, #4]
 197              		.loc 1 116 0
 198 0006 019B     		ldr	r3, [sp, #4]
 199 0008 002B     		cmp	r3, #0
 200 000a 05D1     		bne	.L8
 201              		.loc 1 116 0 is_stmt 0 discriminator 1
 202 000c 40F20000 		movw	r0, #:lower16:.LC2
 203 0010 C0F20000 		movt	r0, #:upper16:.LC2
 204 0014 FFF7FEFF 		bl	chDbgPanic
 205              	.L8:
 206              	.LBB4:
 207              		.loc 1 118 0 is_stmt 1
 208 0018 4FF02003 		mov	r3, #32
 209              	@ 118 "../chibios_2.4.x/os/hal/src/gpt.c" 1
 210 001c 83F31188 		msr     BASEPRI, r3
 211              	@ 0 "" 2
 212              		.thumb
 213              	.LBE4:
 214 0020 FFF7FEFF 		bl	dbg_check_lock
 215              		.loc 1 119 0
 216 0024 019B     		ldr	r3, [sp, #4]
ARM GAS  C:\Users\z80\AppData\Local\Temp\ccaGNFwP.s 			page 5


 217 0026 1B78     		ldrb	r3, [r3, #0]	@ zero_extendqisi2
 218 0028 012B     		cmp	r3, #1
 219 002a 09D0     		beq	.L9
 220              		.loc 1 119 0 is_stmt 0 discriminator 1
 221 002c 019B     		ldr	r3, [sp, #4]
 222 002e 1B78     		ldrb	r3, [r3, #0]	@ zero_extendqisi2
 223 0030 022B     		cmp	r3, #2
 224 0032 05D0     		beq	.L9
 225              		.loc 1 119 0 discriminator 2
 226 0034 40F20000 		movw	r0, #:lower16:.LC3
 227 0038 C0F20000 		movt	r0, #:upper16:.LC3
 228 003c FFF7FEFF 		bl	chDbgPanic
 229              	.L9:
 230              		.loc 1 121 0 is_stmt 1
 231 0040 0198     		ldr	r0, [sp, #4]
 232 0042 FFF7FEFF 		bl	gpt_lld_stop
 233              		.loc 1 122 0
 234 0046 019B     		ldr	r3, [sp, #4]
 235 0048 4FF00102 		mov	r2, #1
 236 004c 1A70     		strb	r2, [r3, #0]
 237              		.loc 1 123 0
 238 004e FFF7FEFF 		bl	dbg_check_unlock
 239              	.LBB5:
 240 0052 4FF00003 		mov	r3, #0
 241              	@ 123 "../chibios_2.4.x/os/hal/src/gpt.c" 1
 242 0056 83F31188 		msr     BASEPRI, r3
 243              	@ 0 "" 2
 244              		.thumb
 245              	.LBE5:
 246              		.loc 1 124 0
 247 005a 03B0     		add	sp, sp, #12
 248 005c 00BD     		pop	{pc}
 249              		.cfi_endproc
 250              	.LFE65:
 251              		.size	gptStop, .-gptStop
 252 005e 00BF     		.section	.text.gptStartContinuous,"ax",%progbits
 253              		.align	2
 254              		.p2align 4,,15
 255              		.global	gptStartContinuous
 256              		.thumb
 257              		.thumb_func
 258              		.type	gptStartContinuous, %function
 259              	gptStartContinuous:
 260              	.LFB66:
 261              		.loc 1 134 0
 262              		.cfi_startproc
 263              		@ args = 0, pretend = 0, frame = 8
 264              		@ frame_needed = 0, uses_anonymous_args = 0
 265 0000 00B5     		push	{lr}
 266              	.LCFI6:
 267              		.cfi_def_cfa_offset 4
 268              		.cfi_offset 14, -4
 269 0002 83B0     		sub	sp, sp, #12
 270              	.LCFI7:
 271              		.cfi_def_cfa_offset 16
 272 0004 0190     		str	r0, [sp, #4]
 273 0006 0B46     		mov	r3, r1
ARM GAS  C:\Users\z80\AppData\Local\Temp\ccaGNFwP.s 			page 6


 274 0008 ADF80230 		strh	r3, [sp, #2]	@ movhi
 275              	.LBB6:
 276              		.loc 1 136 0
 277 000c 4FF02003 		mov	r3, #32
 278              	@ 136 "../chibios_2.4.x/os/hal/src/gpt.c" 1
 279 0010 83F31188 		msr     BASEPRI, r3
 280              	@ 0 "" 2
 281              		.thumb
 282              	.LBE6:
 283 0014 FFF7FEFF 		bl	dbg_check_lock
 284              		.loc 1 137 0
 285 0018 BDF80230 		ldrh	r3, [sp, #2]
 286 001c 0198     		ldr	r0, [sp, #4]
 287 001e 1946     		mov	r1, r3
 288 0020 FFF7FEFF 		bl	gptStartContinuousI
 289              		.loc 1 138 0
 290 0024 FFF7FEFF 		bl	dbg_check_unlock
 291              	.LBB7:
 292 0028 4FF00003 		mov	r3, #0
 293              	@ 138 "../chibios_2.4.x/os/hal/src/gpt.c" 1
 294 002c 83F31188 		msr     BASEPRI, r3
 295              	@ 0 "" 2
 296              		.thumb
 297              	.LBE7:
 298              		.loc 1 139 0
 299 0030 03B0     		add	sp, sp, #12
 300 0032 00BD     		pop	{pc}
 301              		.cfi_endproc
 302              	.LFE66:
 303              		.size	gptStartContinuous, .-gptStartContinuous
 304 0034 AFF30080 		.section	.rodata
 304      AFF30080 
 304      AFF30080 
 305 0036 0000     		.align	2
 306              	.LC4:
 307 0038 22677074 		.ascii	"\"gptStartContinuousI\"()\000"
 307      53746172 
 307      74436F6E 
 307      74696E75 
 307      6F757349 
 308              		.align	2
 309              	.LC5:
 310 0050 67707453 		.ascii	"gptStartContinuousI(), #1\000"
 310      74617274 
 310      436F6E74 
 310      696E756F 
 310      75734928 
 311              		.section	.text.gptStartContinuousI,"ax",%progbits
 312              		.align	2
 313              		.p2align 4,,15
 314              		.global	gptStartContinuousI
 315              		.thumb
 316              		.thumb_func
 317              		.type	gptStartContinuousI, %function
 318              	gptStartContinuousI:
 319              	.LFB67:
 320              		.loc 1 149 0
ARM GAS  C:\Users\z80\AppData\Local\Temp\ccaGNFwP.s 			page 7


 321              		.cfi_startproc
 322              		@ args = 0, pretend = 0, frame = 8
 323              		@ frame_needed = 0, uses_anonymous_args = 0
 324 0000 00B5     		push	{lr}
 325              	.LCFI8:
 326              		.cfi_def_cfa_offset 4
 327              		.cfi_offset 14, -4
 328 0002 83B0     		sub	sp, sp, #12
 329              	.LCFI9:
 330              		.cfi_def_cfa_offset 16
 331 0004 0190     		str	r0, [sp, #4]
 332 0006 0B46     		mov	r3, r1
 333 0008 ADF80230 		strh	r3, [sp, #2]	@ movhi
 334              		.loc 1 151 0
 335 000c FFF7FEFF 		bl	chDbgCheckClassI
 336              		.loc 1 152 0
 337 0010 019B     		ldr	r3, [sp, #4]
 338 0012 002B     		cmp	r3, #0
 339 0014 05D1     		bne	.L12
 340              		.loc 1 152 0 is_stmt 0 discriminator 1
 341 0016 40F20000 		movw	r0, #:lower16:.LC4
 342 001a C0F20000 		movt	r0, #:upper16:.LC4
 343 001e FFF7FEFF 		bl	chDbgPanic
 344              	.L12:
 345              		.loc 1 153 0 is_stmt 1
 346 0022 019B     		ldr	r3, [sp, #4]
 347 0024 1B78     		ldrb	r3, [r3, #0]	@ zero_extendqisi2
 348 0026 022B     		cmp	r3, #2
 349 0028 05D0     		beq	.L13
 350              		.loc 1 153 0 is_stmt 0 discriminator 1
 351 002a 40F20000 		movw	r0, #:lower16:.LC5
 352 002e C0F20000 		movt	r0, #:upper16:.LC5
 353 0032 FFF7FEFF 		bl	chDbgPanic
 354              	.L13:
 355              		.loc 1 156 0 is_stmt 1
 356 0036 019B     		ldr	r3, [sp, #4]
 357 0038 4FF00302 		mov	r2, #3
 358 003c 1A70     		strb	r2, [r3, #0]
 359              		.loc 1 157 0
 360 003e BDF80230 		ldrh	r3, [sp, #2]
 361 0042 0198     		ldr	r0, [sp, #4]
 362 0044 1946     		mov	r1, r3
 363 0046 FFF7FEFF 		bl	gpt_lld_start_timer
 364              		.loc 1 158 0
 365 004a 03B0     		add	sp, sp, #12
 366 004c 00BD     		pop	{pc}
 367              		.cfi_endproc
 368              	.LFE67:
 369              		.size	gptStartContinuousI, .-gptStartContinuousI
 370 004e 00BF     		.section	.text.gptStartOneShot,"ax",%progbits
 371              		.align	2
 372              		.p2align 4,,15
 373              		.global	gptStartOneShot
 374              		.thumb
 375              		.thumb_func
 376              		.type	gptStartOneShot, %function
 377              	gptStartOneShot:
ARM GAS  C:\Users\z80\AppData\Local\Temp\ccaGNFwP.s 			page 8


 378              	.LFB68:
 379              		.loc 1 168 0
 380              		.cfi_startproc
 381              		@ args = 0, pretend = 0, frame = 8
 382              		@ frame_needed = 0, uses_anonymous_args = 0
 383 0000 00B5     		push	{lr}
 384              	.LCFI10:
 385              		.cfi_def_cfa_offset 4
 386              		.cfi_offset 14, -4
 387 0002 83B0     		sub	sp, sp, #12
 388              	.LCFI11:
 389              		.cfi_def_cfa_offset 16
 390 0004 0190     		str	r0, [sp, #4]
 391 0006 0B46     		mov	r3, r1
 392 0008 ADF80230 		strh	r3, [sp, #2]	@ movhi
 393              	.LBB8:
 394              		.loc 1 170 0
 395 000c 4FF02003 		mov	r3, #32
 396              	@ 170 "../chibios_2.4.x/os/hal/src/gpt.c" 1
 397 0010 83F31188 		msr     BASEPRI, r3
 398              	@ 0 "" 2
 399              		.thumb
 400              	.LBE8:
 401 0014 FFF7FEFF 		bl	dbg_check_lock
 402              		.loc 1 171 0
 403 0018 BDF80230 		ldrh	r3, [sp, #2]
 404 001c 0198     		ldr	r0, [sp, #4]
 405 001e 1946     		mov	r1, r3
 406 0020 FFF7FEFF 		bl	gptStartOneShotI
 407              		.loc 1 172 0
 408 0024 FFF7FEFF 		bl	dbg_check_unlock
 409              	.LBB9:
 410 0028 4FF00003 		mov	r3, #0
 411              	@ 172 "../chibios_2.4.x/os/hal/src/gpt.c" 1
 412 002c 83F31188 		msr     BASEPRI, r3
 413              	@ 0 "" 2
 414              		.thumb
 415              	.LBE9:
 416              		.loc 1 173 0
 417 0030 03B0     		add	sp, sp, #12
 418 0032 00BD     		pop	{pc}
 419              		.cfi_endproc
 420              	.LFE68:
 421              		.size	gptStartOneShot, .-gptStartOneShot
 422 0034 AFF30080 		.section	.rodata
 422      AFF30080 
 422      AFF30080 
 423 006a 0000     		.align	2
 424              	.LC6:
 425 006c 22677074 		.ascii	"\"gptStartOneShotI\"()\000"
 425      53746172 
 425      744F6E65 
 425      53686F74 
 425      49222829 
 426 0081 000000   		.align	2
 427              	.LC7:
 428 0084 67707453 		.ascii	"gptStartOneShotI(), #1\000"
ARM GAS  C:\Users\z80\AppData\Local\Temp\ccaGNFwP.s 			page 9


 428      74617274 
 428      4F6E6553 
 428      686F7449 
 428      28292C20 
 429              		.section	.text.gptStartOneShotI,"ax",%progbits
 430              		.align	2
 431              		.p2align 4,,15
 432              		.global	gptStartOneShotI
 433              		.thumb
 434              		.thumb_func
 435              		.type	gptStartOneShotI, %function
 436              	gptStartOneShotI:
 437              	.LFB69:
 438              		.loc 1 183 0
 439              		.cfi_startproc
 440              		@ args = 0, pretend = 0, frame = 8
 441              		@ frame_needed = 0, uses_anonymous_args = 0
 442 0000 00B5     		push	{lr}
 443              	.LCFI12:
 444              		.cfi_def_cfa_offset 4
 445              		.cfi_offset 14, -4
 446 0002 83B0     		sub	sp, sp, #12
 447              	.LCFI13:
 448              		.cfi_def_cfa_offset 16
 449 0004 0190     		str	r0, [sp, #4]
 450 0006 0B46     		mov	r3, r1
 451 0008 ADF80230 		strh	r3, [sp, #2]	@ movhi
 452              		.loc 1 185 0
 453 000c FFF7FEFF 		bl	chDbgCheckClassI
 454              		.loc 1 186 0
 455 0010 019B     		ldr	r3, [sp, #4]
 456 0012 002B     		cmp	r3, #0
 457 0014 05D1     		bne	.L16
 458              		.loc 1 186 0 is_stmt 0 discriminator 1
 459 0016 40F20000 		movw	r0, #:lower16:.LC6
 460 001a C0F20000 		movt	r0, #:upper16:.LC6
 461 001e FFF7FEFF 		bl	chDbgPanic
 462              	.L16:
 463              		.loc 1 187 0 is_stmt 1
 464 0022 019B     		ldr	r3, [sp, #4]
 465 0024 1B78     		ldrb	r3, [r3, #0]	@ zero_extendqisi2
 466 0026 022B     		cmp	r3, #2
 467 0028 05D0     		beq	.L17
 468              		.loc 1 187 0 is_stmt 0 discriminator 1
 469 002a 40F20000 		movw	r0, #:lower16:.LC7
 470 002e C0F20000 		movt	r0, #:upper16:.LC7
 471 0032 FFF7FEFF 		bl	chDbgPanic
 472              	.L17:
 473              		.loc 1 190 0 is_stmt 1
 474 0036 019B     		ldr	r3, [sp, #4]
 475 0038 4FF00402 		mov	r2, #4
 476 003c 1A70     		strb	r2, [r3, #0]
 477              		.loc 1 191 0
 478 003e BDF80230 		ldrh	r3, [sp, #2]
 479 0042 0198     		ldr	r0, [sp, #4]
 480 0044 1946     		mov	r1, r3
 481 0046 FFF7FEFF 		bl	gpt_lld_start_timer
ARM GAS  C:\Users\z80\AppData\Local\Temp\ccaGNFwP.s 			page 10


 482              		.loc 1 192 0
 483 004a 03B0     		add	sp, sp, #12
 484 004c 00BD     		pop	{pc}
 485              		.cfi_endproc
 486              	.LFE69:
 487              		.size	gptStartOneShotI, .-gptStartOneShotI
 488 004e 00BF     		.section	.text.gptStopTimer,"ax",%progbits
 489              		.align	2
 490              		.p2align 4,,15
 491              		.global	gptStopTimer
 492              		.thumb
 493              		.thumb_func
 494              		.type	gptStopTimer, %function
 495              	gptStopTimer:
 496              	.LFB70:
 497              		.loc 1 201 0
 498              		.cfi_startproc
 499              		@ args = 0, pretend = 0, frame = 8
 500              		@ frame_needed = 0, uses_anonymous_args = 0
 501 0000 00B5     		push	{lr}
 502              	.LCFI14:
 503              		.cfi_def_cfa_offset 4
 504              		.cfi_offset 14, -4
 505 0002 83B0     		sub	sp, sp, #12
 506              	.LCFI15:
 507              		.cfi_def_cfa_offset 16
 508 0004 0190     		str	r0, [sp, #4]
 509              	.LBB10:
 510              		.loc 1 203 0
 511 0006 4FF02003 		mov	r3, #32
 512              	@ 203 "../chibios_2.4.x/os/hal/src/gpt.c" 1
 513 000a 83F31188 		msr     BASEPRI, r3
 514              	@ 0 "" 2
 515              		.thumb
 516              	.LBE10:
 517 000e FFF7FEFF 		bl	dbg_check_lock
 518              		.loc 1 204 0
 519 0012 0198     		ldr	r0, [sp, #4]
 520 0014 FFF7FEFF 		bl	gptStopTimerI
 521              		.loc 1 205 0
 522 0018 FFF7FEFF 		bl	dbg_check_unlock
 523              	.LBB11:
 524 001c 4FF00003 		mov	r3, #0
 525              	@ 205 "../chibios_2.4.x/os/hal/src/gpt.c" 1
 526 0020 83F31188 		msr     BASEPRI, r3
 527              	@ 0 "" 2
 528              		.thumb
 529              	.LBE11:
 530              		.loc 1 206 0
 531 0024 03B0     		add	sp, sp, #12
 532 0026 00BD     		pop	{pc}
 533              		.cfi_endproc
 534              	.LFE70:
 535              		.size	gptStopTimer, .-gptStopTimer
 536 0028 AFF30080 		.section	.rodata
 536      AFF30080 
 537 009b 00       		.align	2
ARM GAS  C:\Users\z80\AppData\Local\Temp\ccaGNFwP.s 			page 11


 538              	.LC8:
 539 009c 22677074 		.ascii	"\"gptStopTimerI\"()\000"
 539      53746F70 
 539      54696D65 
 539      72492228 
 539      2900
 540 00ae 0000     		.align	2
 541              	.LC9:
 542 00b0 67707453 		.ascii	"gptStopTimerI(), #1\000"
 542      746F7054 
 542      696D6572 
 542      4928292C 
 542      20233100 
 543              		.section	.text.gptStopTimerI,"ax",%progbits
 544              		.align	2
 545              		.p2align 4,,15
 546              		.global	gptStopTimerI
 547              		.thumb
 548              		.thumb_func
 549              		.type	gptStopTimerI, %function
 550              	gptStopTimerI:
 551              	.LFB71:
 552              		.loc 1 215 0
 553              		.cfi_startproc
 554              		@ args = 0, pretend = 0, frame = 8
 555              		@ frame_needed = 0, uses_anonymous_args = 0
 556 0000 00B5     		push	{lr}
 557              	.LCFI16:
 558              		.cfi_def_cfa_offset 4
 559              		.cfi_offset 14, -4
 560 0002 83B0     		sub	sp, sp, #12
 561              	.LCFI17:
 562              		.cfi_def_cfa_offset 16
 563 0004 0190     		str	r0, [sp, #4]
 564              		.loc 1 217 0
 565 0006 FFF7FEFF 		bl	chDbgCheckClassI
 566              		.loc 1 218 0
 567 000a 019B     		ldr	r3, [sp, #4]
 568 000c 002B     		cmp	r3, #0
 569 000e 05D1     		bne	.L20
 570              		.loc 1 218 0 is_stmt 0 discriminator 1
 571 0010 40F20000 		movw	r0, #:lower16:.LC8
 572 0014 C0F20000 		movt	r0, #:upper16:.LC8
 573 0018 FFF7FEFF 		bl	chDbgPanic
 574              	.L20:
 575              		.loc 1 219 0 is_stmt 1
 576 001c 019B     		ldr	r3, [sp, #4]
 577 001e 1B78     		ldrb	r3, [r3, #0]	@ zero_extendqisi2
 578 0020 022B     		cmp	r3, #2
 579 0022 0DD0     		beq	.L21
 580              		.loc 1 219 0 is_stmt 0 discriminator 1
 581 0024 019B     		ldr	r3, [sp, #4]
 582 0026 1B78     		ldrb	r3, [r3, #0]	@ zero_extendqisi2
 583 0028 032B     		cmp	r3, #3
 584 002a 09D0     		beq	.L21
 585              		.loc 1 219 0 discriminator 2
 586 002c 019B     		ldr	r3, [sp, #4]
ARM GAS  C:\Users\z80\AppData\Local\Temp\ccaGNFwP.s 			page 12


 587 002e 1B78     		ldrb	r3, [r3, #0]	@ zero_extendqisi2
 588 0030 042B     		cmp	r3, #4
 589 0032 05D0     		beq	.L21
 590              		.loc 1 219 0 discriminator 3
 591 0034 40F20000 		movw	r0, #:lower16:.LC9
 592 0038 C0F20000 		movt	r0, #:upper16:.LC9
 593 003c FFF7FEFF 		bl	chDbgPanic
 594              	.L21:
 595              		.loc 1 223 0 is_stmt 1
 596 0040 019B     		ldr	r3, [sp, #4]
 597 0042 4FF00202 		mov	r2, #2
 598 0046 1A70     		strb	r2, [r3, #0]
 599              		.loc 1 224 0
 600 0048 0198     		ldr	r0, [sp, #4]
 601 004a FFF7FEFF 		bl	gpt_lld_stop_timer
 602              		.loc 1 225 0
 603 004e 03B0     		add	sp, sp, #12
 604 0050 00BD     		pop	{pc}
 605              		.cfi_endproc
 606              	.LFE71:
 607              		.size	gptStopTimerI, .-gptStopTimerI
 608 0052 00BFAFF3 		.section	.rodata
 608      0080AFF3 
 608      0080AFF3 
 608      0080
 609              		.align	2
 610              	.LC10:
 611 00c4 67707450 		.ascii	"gptPolledDelay(), #1\000"
 611      6F6C6C65 
 611      6444656C 
 611      61792829 
 611      2C202331 
 612 00d9 000000   		.section	.text.gptPolledDelay,"ax",%progbits
 613              		.align	2
 614              		.p2align 4,,15
 615              		.global	gptPolledDelay
 616              		.thumb
 617              		.thumb_func
 618              		.type	gptPolledDelay, %function
 619              	gptPolledDelay:
 620              	.LFB72:
 621              		.loc 1 239 0
 622              		.cfi_startproc
 623              		@ args = 0, pretend = 0, frame = 8
 624              		@ frame_needed = 0, uses_anonymous_args = 0
 625 0000 00B5     		push	{lr}
 626              	.LCFI18:
 627              		.cfi_def_cfa_offset 4
 628              		.cfi_offset 14, -4
 629 0002 83B0     		sub	sp, sp, #12
 630              	.LCFI19:
 631              		.cfi_def_cfa_offset 16
 632 0004 0190     		str	r0, [sp, #4]
 633 0006 0B46     		mov	r3, r1
 634 0008 ADF80230 		strh	r3, [sp, #2]	@ movhi
 635              		.loc 1 241 0
 636 000c 019B     		ldr	r3, [sp, #4]
ARM GAS  C:\Users\z80\AppData\Local\Temp\ccaGNFwP.s 			page 13


 637 000e 1B78     		ldrb	r3, [r3, #0]	@ zero_extendqisi2
 638 0010 022B     		cmp	r3, #2
 639 0012 05D0     		beq	.L23
 640              		.loc 1 241 0 is_stmt 0 discriminator 1
 641 0014 40F20000 		movw	r0, #:lower16:.LC10
 642 0018 C0F20000 		movt	r0, #:upper16:.LC10
 643 001c FFF7FEFF 		bl	chDbgPanic
 644              	.L23:
 645              		.loc 1 244 0 is_stmt 1
 646 0020 019B     		ldr	r3, [sp, #4]
 647 0022 4FF00402 		mov	r2, #4
 648 0026 1A70     		strb	r2, [r3, #0]
 649              		.loc 1 245 0
 650 0028 BDF80230 		ldrh	r3, [sp, #2]
 651 002c 0198     		ldr	r0, [sp, #4]
 652 002e 1946     		mov	r1, r3
 653 0030 FFF7FEFF 		bl	gpt_lld_polled_delay
 654              		.loc 1 246 0
 655 0034 019B     		ldr	r3, [sp, #4]
 656 0036 4FF00202 		mov	r2, #2
 657 003a 1A70     		strb	r2, [r3, #0]
 658              		.loc 1 247 0
 659 003c 03B0     		add	sp, sp, #12
 660 003e 00BD     		pop	{pc}
 661              		.cfi_endproc
 662              	.LFE72:
 663              		.size	gptPolledDelay, .-gptPolledDelay
 664              		.text
 665              	.Letext0:
 666              		.file 2 "c:\\programs\\codesourcery\\2011.03-56\\bin\\../lib/gcc/arm-none-eabi/4.6.3/../../../../a
 667              		.file 3 "../chibios_2.4.x/os/hal/platforms/STM32/stm32.h"
 668              		.file 4 "../chibios_2.4.x/os/hal/include/gpt.h"
 669              		.file 5 "../chibios_2.4.x/os/hal/platforms/STM32/gpt_lld.h"
 670              		.file 6 "../chibios_2.4.x/os/ports/common/ARMCMx/CMSIS/include/core_cm3.h"
 671              		.section	.debug_info,"",%progbits
 672              	.Ldebug_info0:
 673 0000 95060000 		.4byte	0x695
 674 0004 0200     		.2byte	0x2
 675 0006 00000000 		.4byte	.Ldebug_abbrev0
 676 000a 04       		.byte	0x4
 677 000b 01       		.uleb128 0x1
 678 000c E1010000 		.4byte	.LASF64
 679 0010 01       		.byte	0x1
 680 0011 A7020000 		.4byte	.LASF65
 681 0015 28020000 		.4byte	.LASF66
 682 0019 00000000 		.4byte	0
 683 001d 00000000 		.4byte	0
 684 0021 00000000 		.4byte	.Ldebug_ranges0+0
 685 0025 00000000 		.4byte	.Ldebug_line0
 686 0029 02       		.uleb128 0x2
 687 002a 04       		.byte	0x4
 688 002b 05       		.byte	0x5
 689 002c 696E7400 		.ascii	"int\000"
 690 0030 03       		.uleb128 0x3
 691 0031 04       		.byte	0x4
 692 0032 07       		.byte	0x7
 693 0033 71010000 		.4byte	.LASF0
ARM GAS  C:\Users\z80\AppData\Local\Temp\ccaGNFwP.s 			page 14


 694 0037 03       		.uleb128 0x3
 695 0038 01       		.byte	0x1
 696 0039 06       		.byte	0x6
 697 003a 45010000 		.4byte	.LASF1
 698 003e 03       		.uleb128 0x3
 699 003f 01       		.byte	0x1
 700 0040 08       		.byte	0x8
 701 0041 1C010000 		.4byte	.LASF2
 702 0045 03       		.uleb128 0x3
 703 0046 02       		.byte	0x2
 704 0047 05       		.byte	0x5
 705 0048 21000000 		.4byte	.LASF3
 706 004c 04       		.uleb128 0x4
 707 004d 7E010000 		.4byte	.LASF5
 708 0051 02       		.byte	0x2
 709 0052 36       		.byte	0x36
 710 0053 57000000 		.4byte	0x57
 711 0057 03       		.uleb128 0x3
 712 0058 02       		.byte	0x2
 713 0059 07       		.byte	0x7
 714 005a B0010000 		.4byte	.LASF4
 715 005e 04       		.uleb128 0x4
 716 005f D9010000 		.4byte	.LASF6
 717 0063 02       		.byte	0x2
 718 0064 4F       		.byte	0x4f
 719 0065 69000000 		.4byte	0x69
 720 0069 03       		.uleb128 0x3
 721 006a 04       		.byte	0x4
 722 006b 05       		.byte	0x5
 723 006c F0000000 		.4byte	.LASF7
 724 0070 04       		.uleb128 0x4
 725 0071 68010000 		.4byte	.LASF8
 726 0075 02       		.byte	0x2
 727 0076 50       		.byte	0x50
 728 0077 7B000000 		.4byte	0x7b
 729 007b 03       		.uleb128 0x3
 730 007c 04       		.byte	0x4
 731 007d 07       		.byte	0x7
 732 007e 10020000 		.4byte	.LASF9
 733 0082 03       		.uleb128 0x3
 734 0083 08       		.byte	0x8
 735 0084 05       		.byte	0x5
 736 0085 BE000000 		.4byte	.LASF10
 737 0089 03       		.uleb128 0x3
 738 008a 08       		.byte	0x8
 739 008b 07       		.byte	0x7
 740 008c 51010000 		.4byte	.LASF11
 741 0090 05       		.uleb128 0x5
 742 0091 70000000 		.4byte	0x70
 743 0095 03       		.uleb128 0x3
 744 0096 01       		.byte	0x1
 745 0097 08       		.byte	0x8
 746 0098 C3010000 		.4byte	.LASF12
 747 009c 06       		.uleb128 0x6
 748 009d 70000000 		.4byte	0x70
 749 00a1 AC000000 		.4byte	0xac
 750 00a5 07       		.uleb128 0x7
ARM GAS  C:\Users\z80\AppData\Local\Temp\ccaGNFwP.s 			page 15


 751 00a6 30000000 		.4byte	0x30
 752 00aa 03       		.byte	0x3
 753 00ab 00       		.byte	0
 754 00ac 05       		.uleb128 0x5
 755 00ad 4C000000 		.4byte	0x4c
 756 00b1 05       		.uleb128 0x5
 757 00b2 5E000000 		.4byte	0x5e
 758 00b6 08       		.uleb128 0x8
 759 00b7 54       		.byte	0x54
 760 00b8 03       		.byte	0x3
 761 00b9 72       		.byte	0x72
 762 00ba 8B020000 		.4byte	0x28b
 763 00be 09       		.uleb128 0x9
 764 00bf 43523100 		.ascii	"CR1\000"
 765 00c3 03       		.byte	0x3
 766 00c4 73       		.byte	0x73
 767 00c5 AC000000 		.4byte	0xac
 768 00c9 02       		.byte	0x2
 769 00ca 23       		.byte	0x23
 770 00cb 00       		.uleb128 0
 771 00cc 0A       		.uleb128 0xa
 772 00cd 63000000 		.4byte	.LASF13
 773 00d1 03       		.byte	0x3
 774 00d2 74       		.byte	0x74
 775 00d3 4C000000 		.4byte	0x4c
 776 00d7 02       		.byte	0x2
 777 00d8 23       		.byte	0x23
 778 00d9 02       		.uleb128 0x2
 779 00da 09       		.uleb128 0x9
 780 00db 43523200 		.ascii	"CR2\000"
 781 00df 03       		.byte	0x3
 782 00e0 75       		.byte	0x75
 783 00e1 AC000000 		.4byte	0xac
 784 00e5 02       		.byte	0x2
 785 00e6 23       		.byte	0x23
 786 00e7 04       		.uleb128 0x4
 787 00e8 0A       		.uleb128 0xa
 788 00e9 6B000000 		.4byte	.LASF14
 789 00ed 03       		.byte	0x3
 790 00ee 76       		.byte	0x76
 791 00ef 4C000000 		.4byte	0x4c
 792 00f3 02       		.byte	0x2
 793 00f4 23       		.byte	0x23
 794 00f5 06       		.uleb128 0x6
 795 00f6 0A       		.uleb128 0xa
 796 00f7 17010000 		.4byte	.LASF15
 797 00fb 03       		.byte	0x3
 798 00fc 77       		.byte	0x77
 799 00fd AC000000 		.4byte	0xac
 800 0101 02       		.byte	0x2
 801 0102 23       		.byte	0x23
 802 0103 08       		.uleb128 0x8
 803 0104 0A       		.uleb128 0xa
 804 0105 73000000 		.4byte	.LASF16
 805 0109 03       		.byte	0x3
 806 010a 78       		.byte	0x78
 807 010b 4C000000 		.4byte	0x4c
ARM GAS  C:\Users\z80\AppData\Local\Temp\ccaGNFwP.s 			page 16


 808 010f 02       		.byte	0x2
 809 0110 23       		.byte	0x23
 810 0111 0A       		.uleb128 0xa
 811 0112 0A       		.uleb128 0xa
 812 0113 87010000 		.4byte	.LASF17
 813 0117 03       		.byte	0x3
 814 0118 79       		.byte	0x79
 815 0119 AC000000 		.4byte	0xac
 816 011d 02       		.byte	0x2
 817 011e 23       		.byte	0x23
 818 011f 0C       		.uleb128 0xc
 819 0120 0A       		.uleb128 0xa
 820 0121 7B000000 		.4byte	.LASF18
 821 0125 03       		.byte	0x3
 822 0126 7A       		.byte	0x7a
 823 0127 4C000000 		.4byte	0x4c
 824 012b 02       		.byte	0x2
 825 012c 23       		.byte	0x23
 826 012d 0E       		.uleb128 0xe
 827 012e 09       		.uleb128 0x9
 828 012f 535200   		.ascii	"SR\000"
 829 0132 03       		.byte	0x3
 830 0133 7B       		.byte	0x7b
 831 0134 AC000000 		.4byte	0xac
 832 0138 02       		.byte	0x2
 833 0139 23       		.byte	0x23
 834 013a 10       		.uleb128 0x10
 835 013b 0A       		.uleb128 0xa
 836 013c 83000000 		.4byte	.LASF19
 837 0140 03       		.byte	0x3
 838 0141 7C       		.byte	0x7c
 839 0142 4C000000 		.4byte	0x4c
 840 0146 02       		.byte	0x2
 841 0147 23       		.byte	0x23
 842 0148 12       		.uleb128 0x12
 843 0149 09       		.uleb128 0x9
 844 014a 45475200 		.ascii	"EGR\000"
 845 014e 03       		.byte	0x3
 846 014f 7D       		.byte	0x7d
 847 0150 AC000000 		.4byte	0xac
 848 0154 02       		.byte	0x2
 849 0155 23       		.byte	0x23
 850 0156 14       		.uleb128 0x14
 851 0157 0A       		.uleb128 0xa
 852 0158 8B000000 		.4byte	.LASF20
 853 015c 03       		.byte	0x3
 854 015d 7E       		.byte	0x7e
 855 015e 4C000000 		.4byte	0x4c
 856 0162 02       		.byte	0x2
 857 0163 23       		.byte	0x23
 858 0164 16       		.uleb128 0x16
 859 0165 0A       		.uleb128 0xa
 860 0166 11010000 		.4byte	.LASF21
 861 016a 03       		.byte	0x3
 862 016b 7F       		.byte	0x7f
 863 016c AC000000 		.4byte	0xac
 864 0170 02       		.byte	0x2
ARM GAS  C:\Users\z80\AppData\Local\Temp\ccaGNFwP.s 			page 17


 865 0171 23       		.byte	0x23
 866 0172 18       		.uleb128 0x18
 867 0173 0A       		.uleb128 0xa
 868 0174 93000000 		.4byte	.LASF22
 869 0178 03       		.byte	0x3
 870 0179 80       		.byte	0x80
 871 017a 4C000000 		.4byte	0x4c
 872 017e 02       		.byte	0x2
 873 017f 23       		.byte	0x23
 874 0180 1A       		.uleb128 0x1a
 875 0181 0A       		.uleb128 0xa
 876 0182 1B000000 		.4byte	.LASF23
 877 0186 03       		.byte	0x3
 878 0187 81       		.byte	0x81
 879 0188 AC000000 		.4byte	0xac
 880 018c 02       		.byte	0x2
 881 018d 23       		.byte	0x23
 882 018e 1C       		.uleb128 0x1c
 883 018f 0A       		.uleb128 0xa
 884 0190 9B000000 		.4byte	.LASF24
 885 0194 03       		.byte	0x3
 886 0195 82       		.byte	0x82
 887 0196 4C000000 		.4byte	0x4c
 888 019a 02       		.byte	0x2
 889 019b 23       		.byte	0x23
 890 019c 1E       		.uleb128 0x1e
 891 019d 0A       		.uleb128 0xa
 892 019e 00000000 		.4byte	.LASF25
 893 01a2 03       		.byte	0x3
 894 01a3 83       		.byte	0x83
 895 01a4 AC000000 		.4byte	0xac
 896 01a8 02       		.byte	0x2
 897 01a9 23       		.byte	0x23
 898 01aa 20       		.uleb128 0x20
 899 01ab 0A       		.uleb128 0xa
 900 01ac A3000000 		.4byte	.LASF26
 901 01b0 03       		.byte	0x3
 902 01b1 84       		.byte	0x84
 903 01b2 4C000000 		.4byte	0x4c
 904 01b6 02       		.byte	0x2
 905 01b7 23       		.byte	0x23
 906 01b8 22       		.uleb128 0x22
 907 01b9 09       		.uleb128 0x9
 908 01ba 434E5400 		.ascii	"CNT\000"
 909 01be 03       		.byte	0x3
 910 01bf 85       		.byte	0x85
 911 01c0 90000000 		.4byte	0x90
 912 01c4 02       		.byte	0x2
 913 01c5 23       		.byte	0x23
 914 01c6 24       		.uleb128 0x24
 915 01c7 09       		.uleb128 0x9
 916 01c8 50534300 		.ascii	"PSC\000"
 917 01cc 03       		.byte	0x3
 918 01cd 86       		.byte	0x86
 919 01ce AC000000 		.4byte	0xac
 920 01d2 02       		.byte	0x2
 921 01d3 23       		.byte	0x23
ARM GAS  C:\Users\z80\AppData\Local\Temp\ccaGNFwP.s 			page 18


 922 01d4 28       		.uleb128 0x28
 923 01d5 0A       		.uleb128 0xa
 924 01d6 AB000000 		.4byte	.LASF27
 925 01da 03       		.byte	0x3
 926 01db 87       		.byte	0x87
 927 01dc 4C000000 		.4byte	0x4c
 928 01e0 02       		.byte	0x2
 929 01e1 23       		.byte	0x23
 930 01e2 2A       		.uleb128 0x2a
 931 01e3 09       		.uleb128 0x9
 932 01e4 41525200 		.ascii	"ARR\000"
 933 01e8 03       		.byte	0x3
 934 01e9 88       		.byte	0x88
 935 01ea 90000000 		.4byte	0x90
 936 01ee 02       		.byte	0x2
 937 01ef 23       		.byte	0x23
 938 01f0 2C       		.uleb128 0x2c
 939 01f1 09       		.uleb128 0x9
 940 01f2 52435200 		.ascii	"RCR\000"
 941 01f6 03       		.byte	0x3
 942 01f7 89       		.byte	0x89
 943 01f8 AC000000 		.4byte	0xac
 944 01fc 02       		.byte	0x2
 945 01fd 23       		.byte	0x23
 946 01fe 30       		.uleb128 0x30
 947 01ff 0A       		.uleb128 0xa
 948 0200 5E020000 		.4byte	.LASF28
 949 0204 03       		.byte	0x3
 950 0205 8A       		.byte	0x8a
 951 0206 4C000000 		.4byte	0x4c
 952 020a 02       		.byte	0x2
 953 020b 23       		.byte	0x23
 954 020c 32       		.uleb128 0x32
 955 020d 09       		.uleb128 0x9
 956 020e 43435200 		.ascii	"CCR\000"
 957 0212 03       		.byte	0x3
 958 0213 8B       		.byte	0x8b
 959 0214 8B020000 		.4byte	0x28b
 960 0218 02       		.byte	0x2
 961 0219 23       		.byte	0x23
 962 021a 34       		.uleb128 0x34
 963 021b 0A       		.uleb128 0xa
 964 021c D4010000 		.4byte	.LASF29
 965 0220 03       		.byte	0x3
 966 0221 8C       		.byte	0x8c
 967 0222 AC000000 		.4byte	0xac
 968 0226 02       		.byte	0x2
 969 0227 23       		.byte	0x23
 970 0228 44       		.uleb128 0x44
 971 0229 0A       		.uleb128 0xa
 972 022a 8C010000 		.4byte	.LASF30
 973 022e 03       		.byte	0x3
 974 022f 8D       		.byte	0x8d
 975 0230 4C000000 		.4byte	0x4c
 976 0234 02       		.byte	0x2
 977 0235 23       		.byte	0x23
 978 0236 46       		.uleb128 0x46
ARM GAS  C:\Users\z80\AppData\Local\Temp\ccaGNFwP.s 			page 19


 979 0237 09       		.uleb128 0x9
 980 0238 44435200 		.ascii	"DCR\000"
 981 023c 03       		.byte	0x3
 982 023d 8E       		.byte	0x8e
 983 023e AC000000 		.4byte	0xac
 984 0242 02       		.byte	0x2
 985 0243 23       		.byte	0x23
 986 0244 48       		.uleb128 0x48
 987 0245 0A       		.uleb128 0xa
 988 0246 95010000 		.4byte	.LASF31
 989 024a 03       		.byte	0x3
 990 024b 8F       		.byte	0x8f
 991 024c 4C000000 		.4byte	0x4c
 992 0250 02       		.byte	0x2
 993 0251 23       		.byte	0x23
 994 0252 4A       		.uleb128 0x4a
 995 0253 0A       		.uleb128 0xa
 996 0254 10000000 		.4byte	.LASF32
 997 0258 03       		.byte	0x3
 998 0259 90       		.byte	0x90
 999 025a AC000000 		.4byte	0xac
 1000 025e 02       		.byte	0x2
 1001 025f 23       		.byte	0x23
 1002 0260 4C       		.uleb128 0x4c
 1003 0261 0A       		.uleb128 0xa
 1004 0262 9E010000 		.4byte	.LASF33
 1005 0266 03       		.byte	0x3
 1006 0267 91       		.byte	0x91
 1007 0268 4C000000 		.4byte	0x4c
 1008 026c 02       		.byte	0x2
 1009 026d 23       		.byte	0x23
 1010 026e 4E       		.uleb128 0x4e
 1011 026f 09       		.uleb128 0x9
 1012 0270 4F5200   		.ascii	"OR\000"
 1013 0273 03       		.byte	0x3
 1014 0274 92       		.byte	0x92
 1015 0275 AC000000 		.4byte	0xac
 1016 0279 02       		.byte	0x2
 1017 027a 23       		.byte	0x23
 1018 027b 50       		.uleb128 0x50
 1019 027c 0A       		.uleb128 0xa
 1020 027d A7010000 		.4byte	.LASF34
 1021 0281 03       		.byte	0x3
 1022 0282 93       		.byte	0x93
 1023 0283 4C000000 		.4byte	0x4c
 1024 0287 02       		.byte	0x2
 1025 0288 23       		.byte	0x23
 1026 0289 52       		.uleb128 0x52
 1027 028a 00       		.byte	0
 1028 028b 05       		.uleb128 0x5
 1029 028c 9C000000 		.4byte	0x9c
 1030 0290 04       		.uleb128 0x4
 1031 0291 C8010000 		.4byte	.LASF35
 1032 0295 03       		.byte	0x3
 1033 0296 94       		.byte	0x94
 1034 0297 B6000000 		.4byte	0xb6
 1035 029b 0B       		.uleb128 0xb
ARM GAS  C:\Users\z80\AppData\Local\Temp\ccaGNFwP.s 			page 20


 1036 029c 01       		.byte	0x1
 1037 029d 04       		.byte	0x4
 1038 029e 3C       		.byte	0x3c
 1039 029f C2020000 		.4byte	0x2c2
 1040 02a3 0C       		.uleb128 0xc
 1041 02a4 05000000 		.4byte	.LASF36
 1042 02a8 00       		.sleb128 0
 1043 02a9 0C       		.uleb128 0xc
 1044 02aa 67020000 		.4byte	.LASF37
 1045 02ae 01       		.sleb128 1
 1046 02af 0C       		.uleb128 0xc
 1047 02b0 FC010000 		.4byte	.LASF38
 1048 02b4 02       		.sleb128 2
 1049 02b5 0C       		.uleb128 0xc
 1050 02b6 ED010000 		.4byte	.LASF39
 1051 02ba 03       		.sleb128 3
 1052 02bb 0C       		.uleb128 0xc
 1053 02bc 57000000 		.4byte	.LASF40
 1054 02c0 04       		.sleb128 4
 1055 02c1 00       		.byte	0
 1056 02c2 04       		.uleb128 0x4
 1057 02c3 B3000000 		.4byte	.LASF41
 1058 02c7 04       		.byte	0x4
 1059 02c8 42       		.byte	0x42
 1060 02c9 9B020000 		.4byte	0x29b
 1061 02cd 04       		.uleb128 0x4
 1062 02ce 06020000 		.4byte	.LASF42
 1063 02d2 04       		.byte	0x4
 1064 02d3 47       		.byte	0x47
 1065 02d4 D8020000 		.4byte	0x2d8
 1066 02d8 0D       		.uleb128 0xd
 1067 02d9 06020000 		.4byte	.LASF42
 1068 02dd 10       		.byte	0x10
 1069 02de 05       		.byte	0x5
 1070 02df DC       		.byte	0xdc
 1071 02e0 1D030000 		.4byte	0x31d
 1072 02e4 0A       		.uleb128 0xa
 1073 02e5 15000000 		.4byte	.LASF43
 1074 02e9 05       		.byte	0x5
 1075 02ea E0       		.byte	0xe0
 1076 02eb C2020000 		.4byte	0x2c2
 1077 02ef 02       		.byte	0x2
 1078 02f0 23       		.byte	0x23
 1079 02f1 00       		.uleb128 0
 1080 02f2 0A       		.uleb128 0xa
 1081 02f3 50000000 		.4byte	.LASF44
 1082 02f7 05       		.byte	0x5
 1083 02f8 E4       		.byte	0xe4
 1084 02f9 86030000 		.4byte	0x386
 1085 02fd 02       		.byte	0x2
 1086 02fe 23       		.byte	0x23
 1087 02ff 04       		.uleb128 0x4
 1088 0300 0A       		.uleb128 0xa
 1089 0301 22020000 		.4byte	.LASF45
 1090 0305 05       		.byte	0x5
 1091 0306 EC       		.byte	0xec
 1092 0307 70000000 		.4byte	0x70
ARM GAS  C:\Users\z80\AppData\Local\Temp\ccaGNFwP.s 			page 21


 1093 030b 02       		.byte	0x2
 1094 030c 23       		.byte	0x23
 1095 030d 08       		.uleb128 0x8
 1096 030e 09       		.uleb128 0x9
 1097 030f 74696D00 		.ascii	"tim\000"
 1098 0313 05       		.byte	0x5
 1099 0314 F0       		.byte	0xf0
 1100 0315 91030000 		.4byte	0x391
 1101 0319 02       		.byte	0x2
 1102 031a 23       		.byte	0x23
 1103 031b 0C       		.uleb128 0xc
 1104 031c 00       		.byte	0
 1105 031d 04       		.uleb128 0x4
 1106 031e 2B000000 		.4byte	.LASF46
 1107 0322 04       		.byte	0x4
 1108 0323 4E       		.byte	0x4e
 1109 0324 28030000 		.4byte	0x328
 1110 0328 0E       		.uleb128 0xe
 1111 0329 04       		.byte	0x4
 1112 032a 2E030000 		.4byte	0x32e
 1113 032e 0F       		.uleb128 0xf
 1114 032f 01       		.byte	0x1
 1115 0330 3A030000 		.4byte	0x33a
 1116 0334 10       		.uleb128 0x10
 1117 0335 3A030000 		.4byte	0x33a
 1118 0339 00       		.byte	0
 1119 033a 0E       		.uleb128 0xe
 1120 033b 04       		.byte	0x4
 1121 033c CD020000 		.4byte	0x2cd
 1122 0340 04       		.uleb128 0x4
 1123 0341 E4020000 		.4byte	.LASF47
 1124 0345 05       		.byte	0x5
 1125 0346 BF       		.byte	0xbf
 1126 0347 70000000 		.4byte	0x70
 1127 034b 04       		.uleb128 0x4
 1128 034c 39000000 		.4byte	.LASF48
 1129 0350 05       		.byte	0x5
 1130 0351 C4       		.byte	0xc4
 1131 0352 4C000000 		.4byte	0x4c
 1132 0356 08       		.uleb128 0x8
 1133 0357 08       		.byte	0x8
 1134 0358 05       		.byte	0x5
 1135 0359 CA       		.byte	0xca
 1136 035a 7B030000 		.4byte	0x37b
 1137 035e 0A       		.uleb128 0xa
 1138 035f 9D020000 		.4byte	.LASF49
 1139 0363 05       		.byte	0x5
 1140 0364 D0       		.byte	0xd0
 1141 0365 40030000 		.4byte	0x340
 1142 0369 02       		.byte	0x2
 1143 036a 23       		.byte	0x23
 1144 036b 00       		.uleb128 0
 1145 036c 0A       		.uleb128 0xa
 1146 036d F6020000 		.4byte	.LASF50
 1147 0371 05       		.byte	0x5
 1148 0372 D5       		.byte	0xd5
 1149 0373 1D030000 		.4byte	0x31d
ARM GAS  C:\Users\z80\AppData\Local\Temp\ccaGNFwP.s 			page 22


 1150 0377 02       		.byte	0x2
 1151 0378 23       		.byte	0x23
 1152 0379 04       		.uleb128 0x4
 1153 037a 00       		.byte	0
 1154 037b 04       		.uleb128 0x4
 1155 037c 75020000 		.4byte	.LASF51
 1156 0380 05       		.byte	0x5
 1157 0381 D7       		.byte	0xd7
 1158 0382 56030000 		.4byte	0x356
 1159 0386 0E       		.uleb128 0xe
 1160 0387 04       		.byte	0x4
 1161 0388 8C030000 		.4byte	0x38c
 1162 038c 11       		.uleb128 0x11
 1163 038d 7B030000 		.4byte	0x37b
 1164 0391 0E       		.uleb128 0xe
 1165 0392 04       		.byte	0x4
 1166 0393 90020000 		.4byte	0x290
 1167 0397 12       		.uleb128 0x12
 1168 0398 01       		.byte	0x1
 1169 0399 2A010000 		.4byte	.LASF67
 1170 039d 01       		.byte	0x1
 1171 039e 44       		.byte	0x44
 1172 039f 01       		.byte	0x1
 1173 03a0 00000000 		.4byte	.LFB62
 1174 03a4 08000000 		.4byte	.LFE62
 1175 03a8 00000000 		.4byte	.LLST0
 1176 03ac 13       		.uleb128 0x13
 1177 03ad 01       		.byte	0x1
 1178 03ae C9020000 		.4byte	.LASF52
 1179 03b2 01       		.byte	0x1
 1180 03b3 50       		.byte	0x50
 1181 03b4 01       		.byte	0x1
 1182 03b5 00000000 		.4byte	.LFB63
 1183 03b9 18000000 		.4byte	.LFE63
 1184 03bd 20000000 		.4byte	.LLST1
 1185 03c1 D4030000 		.4byte	0x3d4
 1186 03c5 14       		.uleb128 0x14
 1187 03c6 70020000 		.4byte	.LASF54
 1188 03ca 01       		.byte	0x1
 1189 03cb 50       		.byte	0x50
 1190 03cc 3A030000 		.4byte	0x33a
 1191 03d0 02       		.byte	0x2
 1192 03d1 91       		.byte	0x91
 1193 03d2 7C       		.sleb128 -4
 1194 03d3 00       		.byte	0
 1195 03d4 13       		.uleb128 0x13
 1196 03d5 01       		.byte	0x1
 1197 03d6 F9000000 		.4byte	.LASF53
 1198 03da 01       		.byte	0x1
 1199 03db 5E       		.byte	0x5e
 1200 03dc 01       		.byte	0x1
 1201 03dd 00000000 		.4byte	.LFB64
 1202 03e1 6C000000 		.4byte	.LFE64
 1203 03e5 40000000 		.4byte	.LLST2
 1204 03e9 3C040000 		.4byte	0x43c
 1205 03ed 14       		.uleb128 0x14
 1206 03ee 70020000 		.4byte	.LASF54
ARM GAS  C:\Users\z80\AppData\Local\Temp\ccaGNFwP.s 			page 23


 1207 03f2 01       		.byte	0x1
 1208 03f3 5E       		.byte	0x5e
 1209 03f4 3A030000 		.4byte	0x33a
 1210 03f8 02       		.byte	0x2
 1211 03f9 91       		.byte	0x91
 1212 03fa 74       		.sleb128 -12
 1213 03fb 14       		.uleb128 0x14
 1214 03fc 50000000 		.4byte	.LASF44
 1215 0400 01       		.byte	0x1
 1216 0401 5E       		.byte	0x5e
 1217 0402 86030000 		.4byte	0x386
 1218 0406 02       		.byte	0x2
 1219 0407 91       		.byte	0x91
 1220 0408 70       		.sleb128 -16
 1221 0409 15       		.uleb128 0x15
 1222 040a 20000000 		.4byte	.LBB2
 1223 040e 28000000 		.4byte	.LBE2
 1224 0412 24040000 		.4byte	0x424
 1225 0416 16       		.uleb128 0x16
 1226 0417 746D7000 		.ascii	"tmp\000"
 1227 041b 01       		.byte	0x1
 1228 041c 62       		.byte	0x62
 1229 041d 70000000 		.4byte	0x70
 1230 0421 01       		.byte	0x1
 1231 0422 53       		.byte	0x53
 1232 0423 00       		.byte	0
 1233 0424 17       		.uleb128 0x17
 1234 0425 60000000 		.4byte	.LBB3
 1235 0429 68000000 		.4byte	.LBE3
 1236 042d 16       		.uleb128 0x16
 1237 042e 746D7000 		.ascii	"tmp\000"
 1238 0432 01       		.byte	0x1
 1239 0433 68       		.byte	0x68
 1240 0434 70000000 		.4byte	0x70
 1241 0438 01       		.byte	0x1
 1242 0439 53       		.byte	0x53
 1243 043a 00       		.byte	0
 1244 043b 00       		.byte	0
 1245 043c 13       		.uleb128 0x13
 1246 043d 01       		.byte	0x1
 1247 043e EE020000 		.4byte	.LASF55
 1248 0442 01       		.byte	0x1
 1249 0443 72       		.byte	0x72
 1250 0444 01       		.byte	0x1
 1251 0445 00000000 		.4byte	.LFB65
 1252 0449 5E000000 		.4byte	.LFE65
 1253 044d 6C000000 		.4byte	.LLST3
 1254 0451 96040000 		.4byte	0x496
 1255 0455 14       		.uleb128 0x14
 1256 0456 70020000 		.4byte	.LASF54
 1257 045a 01       		.byte	0x1
 1258 045b 72       		.byte	0x72
 1259 045c 3A030000 		.4byte	0x33a
 1260 0460 02       		.byte	0x2
 1261 0461 91       		.byte	0x91
 1262 0462 74       		.sleb128 -12
 1263 0463 15       		.uleb128 0x15
ARM GAS  C:\Users\z80\AppData\Local\Temp\ccaGNFwP.s 			page 24


 1264 0464 18000000 		.4byte	.LBB4
 1265 0468 20000000 		.4byte	.LBE4
 1266 046c 7E040000 		.4byte	0x47e
 1267 0470 16       		.uleb128 0x16
 1268 0471 746D7000 		.ascii	"tmp\000"
 1269 0475 01       		.byte	0x1
 1270 0476 76       		.byte	0x76
 1271 0477 70000000 		.4byte	0x70
 1272 047b 01       		.byte	0x1
 1273 047c 53       		.byte	0x53
 1274 047d 00       		.byte	0
 1275 047e 17       		.uleb128 0x17
 1276 047f 52000000 		.4byte	.LBB5
 1277 0483 5A000000 		.4byte	.LBE5
 1278 0487 16       		.uleb128 0x16
 1279 0488 746D7000 		.ascii	"tmp\000"
 1280 048c 01       		.byte	0x1
 1281 048d 7B       		.byte	0x7b
 1282 048e 70000000 		.4byte	0x70
 1283 0492 01       		.byte	0x1
 1284 0493 53       		.byte	0x53
 1285 0494 00       		.byte	0
 1286 0495 00       		.byte	0
 1287 0496 13       		.uleb128 0x13
 1288 0497 01       		.byte	0x1
 1289 0498 32010000 		.4byte	.LASF56
 1290 049c 01       		.byte	0x1
 1291 049d 86       		.byte	0x86
 1292 049e 01       		.byte	0x1
 1293 049f 00000000 		.4byte	.LFB66
 1294 04a3 34000000 		.4byte	.LFE66
 1295 04a7 98000000 		.4byte	.LLST4
 1296 04ab FE040000 		.4byte	0x4fe
 1297 04af 14       		.uleb128 0x14
 1298 04b0 70020000 		.4byte	.LASF54
 1299 04b4 01       		.byte	0x1
 1300 04b5 86       		.byte	0x86
 1301 04b6 3A030000 		.4byte	0x33a
 1302 04ba 02       		.byte	0x2
 1303 04bb 91       		.byte	0x91
 1304 04bc 74       		.sleb128 -12
 1305 04bd 14       		.uleb128 0x14
 1306 04be 55020000 		.4byte	.LASF57
 1307 04c2 01       		.byte	0x1
 1308 04c3 86       		.byte	0x86
 1309 04c4 4B030000 		.4byte	0x34b
 1310 04c8 02       		.byte	0x2
 1311 04c9 91       		.byte	0x91
 1312 04ca 72       		.sleb128 -14
 1313 04cb 15       		.uleb128 0x15
 1314 04cc 0C000000 		.4byte	.LBB6
 1315 04d0 14000000 		.4byte	.LBE6
 1316 04d4 E6040000 		.4byte	0x4e6
 1317 04d8 16       		.uleb128 0x16
 1318 04d9 746D7000 		.ascii	"tmp\000"
 1319 04dd 01       		.byte	0x1
 1320 04de 88       		.byte	0x88
ARM GAS  C:\Users\z80\AppData\Local\Temp\ccaGNFwP.s 			page 25


 1321 04df 70000000 		.4byte	0x70
 1322 04e3 01       		.byte	0x1
 1323 04e4 53       		.byte	0x53
 1324 04e5 00       		.byte	0
 1325 04e6 17       		.uleb128 0x17
 1326 04e7 28000000 		.4byte	.LBB7
 1327 04eb 30000000 		.4byte	.LBE7
 1328 04ef 16       		.uleb128 0x16
 1329 04f0 746D7000 		.ascii	"tmp\000"
 1330 04f4 01       		.byte	0x1
 1331 04f5 8A       		.byte	0x8a
 1332 04f6 70000000 		.4byte	0x70
 1333 04fa 01       		.byte	0x1
 1334 04fb 53       		.byte	0x53
 1335 04fc 00       		.byte	0
 1336 04fd 00       		.byte	0
 1337 04fe 13       		.uleb128 0x13
 1338 04ff 01       		.byte	0x1
 1339 0500 DC000000 		.4byte	.LASF58
 1340 0504 01       		.byte	0x1
 1341 0505 95       		.byte	0x95
 1342 0506 01       		.byte	0x1
 1343 0507 00000000 		.4byte	.LFB67
 1344 050b 4E000000 		.4byte	.LFE67
 1345 050f C4000000 		.4byte	.LLST5
 1346 0513 34050000 		.4byte	0x534
 1347 0517 14       		.uleb128 0x14
 1348 0518 70020000 		.4byte	.LASF54
 1349 051c 01       		.byte	0x1
 1350 051d 95       		.byte	0x95
 1351 051e 3A030000 		.4byte	0x33a
 1352 0522 02       		.byte	0x2
 1353 0523 91       		.byte	0x91
 1354 0524 74       		.sleb128 -12
 1355 0525 14       		.uleb128 0x14
 1356 0526 55020000 		.4byte	.LASF57
 1357 052a 01       		.byte	0x1
 1358 052b 95       		.byte	0x95
 1359 052c 4B030000 		.4byte	0x34b
 1360 0530 02       		.byte	0x2
 1361 0531 91       		.byte	0x91
 1362 0532 72       		.sleb128 -14
 1363 0533 00       		.byte	0
 1364 0534 13       		.uleb128 0x13
 1365 0535 01       		.byte	0x1
 1366 0536 CC000000 		.4byte	.LASF59
 1367 053a 01       		.byte	0x1
 1368 053b A8       		.byte	0xa8
 1369 053c 01       		.byte	0x1
 1370 053d 00000000 		.4byte	.LFB68
 1371 0541 34000000 		.4byte	.LFE68
 1372 0545 F0000000 		.4byte	.LLST6
 1373 0549 9C050000 		.4byte	0x59c
 1374 054d 14       		.uleb128 0x14
 1375 054e 70020000 		.4byte	.LASF54
 1376 0552 01       		.byte	0x1
 1377 0553 A8       		.byte	0xa8
ARM GAS  C:\Users\z80\AppData\Local\Temp\ccaGNFwP.s 			page 26


 1378 0554 3A030000 		.4byte	0x33a
 1379 0558 02       		.byte	0x2
 1380 0559 91       		.byte	0x91
 1381 055a 74       		.sleb128 -12
 1382 055b 14       		.uleb128 0x14
 1383 055c 55020000 		.4byte	.LASF57
 1384 0560 01       		.byte	0x1
 1385 0561 A8       		.byte	0xa8
 1386 0562 4B030000 		.4byte	0x34b
 1387 0566 02       		.byte	0x2
 1388 0567 91       		.byte	0x91
 1389 0568 72       		.sleb128 -14
 1390 0569 15       		.uleb128 0x15
 1391 056a 0C000000 		.4byte	.LBB8
 1392 056e 14000000 		.4byte	.LBE8
 1393 0572 84050000 		.4byte	0x584
 1394 0576 16       		.uleb128 0x16
 1395 0577 746D7000 		.ascii	"tmp\000"
 1396 057b 01       		.byte	0x1
 1397 057c AA       		.byte	0xaa
 1398 057d 70000000 		.4byte	0x70
 1399 0581 01       		.byte	0x1
 1400 0582 53       		.byte	0x53
 1401 0583 00       		.byte	0
 1402 0584 17       		.uleb128 0x17
 1403 0585 28000000 		.4byte	.LBB9
 1404 0589 30000000 		.4byte	.LBE9
 1405 058d 16       		.uleb128 0x16
 1406 058e 746D7000 		.ascii	"tmp\000"
 1407 0592 01       		.byte	0x1
 1408 0593 AC       		.byte	0xac
 1409 0594 70000000 		.4byte	0x70
 1410 0598 01       		.byte	0x1
 1411 0599 53       		.byte	0x53
 1412 059a 00       		.byte	0
 1413 059b 00       		.byte	0
 1414 059c 13       		.uleb128 0x13
 1415 059d 01       		.byte	0x1
 1416 059e 7F020000 		.4byte	.LASF60
 1417 05a2 01       		.byte	0x1
 1418 05a3 B7       		.byte	0xb7
 1419 05a4 01       		.byte	0x1
 1420 05a5 00000000 		.4byte	.LFB69
 1421 05a9 4E000000 		.4byte	.LFE69
 1422 05ad 1C010000 		.4byte	.LLST7
 1423 05b1 D2050000 		.4byte	0x5d2
 1424 05b5 14       		.uleb128 0x14
 1425 05b6 70020000 		.4byte	.LASF54
 1426 05ba 01       		.byte	0x1
 1427 05bb B7       		.byte	0xb7
 1428 05bc 3A030000 		.4byte	0x33a
 1429 05c0 02       		.byte	0x2
 1430 05c1 91       		.byte	0x91
 1431 05c2 74       		.sleb128 -12
 1432 05c3 14       		.uleb128 0x14
 1433 05c4 55020000 		.4byte	.LASF57
 1434 05c8 01       		.byte	0x1
ARM GAS  C:\Users\z80\AppData\Local\Temp\ccaGNFwP.s 			page 27


 1435 05c9 B7       		.byte	0xb7
 1436 05ca 4B030000 		.4byte	0x34b
 1437 05ce 02       		.byte	0x2
 1438 05cf 91       		.byte	0x91
 1439 05d0 72       		.sleb128 -14
 1440 05d1 00       		.byte	0
 1441 05d2 13       		.uleb128 0x13
 1442 05d3 01       		.byte	0x1
 1443 05d4 90020000 		.4byte	.LASF61
 1444 05d8 01       		.byte	0x1
 1445 05d9 C9       		.byte	0xc9
 1446 05da 01       		.byte	0x1
 1447 05db 00000000 		.4byte	.LFB70
 1448 05df 28000000 		.4byte	.LFE70
 1449 05e3 48010000 		.4byte	.LLST8
 1450 05e7 2C060000 		.4byte	0x62c
 1451 05eb 14       		.uleb128 0x14
 1452 05ec 70020000 		.4byte	.LASF54
 1453 05f0 01       		.byte	0x1
 1454 05f1 C9       		.byte	0xc9
 1455 05f2 3A030000 		.4byte	0x33a
 1456 05f6 02       		.byte	0x2
 1457 05f7 91       		.byte	0x91
 1458 05f8 74       		.sleb128 -12
 1459 05f9 15       		.uleb128 0x15
 1460 05fa 06000000 		.4byte	.LBB10
 1461 05fe 0E000000 		.4byte	.LBE10
 1462 0602 14060000 		.4byte	0x614
 1463 0606 16       		.uleb128 0x16
 1464 0607 746D7000 		.ascii	"tmp\000"
 1465 060b 01       		.byte	0x1
 1466 060c CB       		.byte	0xcb
 1467 060d 70000000 		.4byte	0x70
 1468 0611 01       		.byte	0x1
 1469 0612 53       		.byte	0x53
 1470 0613 00       		.byte	0
 1471 0614 17       		.uleb128 0x17
 1472 0615 1C000000 		.4byte	.LBB11
 1473 0619 24000000 		.4byte	.LBE11
 1474 061d 16       		.uleb128 0x16
 1475 061e 746D7000 		.ascii	"tmp\000"
 1476 0622 01       		.byte	0x1
 1477 0623 CD       		.byte	0xcd
 1478 0624 70000000 		.4byte	0x70
 1479 0628 01       		.byte	0x1
 1480 0629 53       		.byte	0x53
 1481 062a 00       		.byte	0
 1482 062b 00       		.byte	0
 1483 062c 13       		.uleb128 0x13
 1484 062d 01       		.byte	0x1
 1485 062e 42000000 		.4byte	.LASF62
 1486 0632 01       		.byte	0x1
 1487 0633 D7       		.byte	0xd7
 1488 0634 01       		.byte	0x1
 1489 0635 00000000 		.4byte	.LFB71
 1490 0639 52000000 		.4byte	.LFE71
 1491 063d 74010000 		.4byte	.LLST9
ARM GAS  C:\Users\z80\AppData\Local\Temp\ccaGNFwP.s 			page 28


 1492 0641 54060000 		.4byte	0x654
 1493 0645 14       		.uleb128 0x14
 1494 0646 70020000 		.4byte	.LASF54
 1495 064a 01       		.byte	0x1
 1496 064b D7       		.byte	0xd7
 1497 064c 3A030000 		.4byte	0x33a
 1498 0650 02       		.byte	0x2
 1499 0651 91       		.byte	0x91
 1500 0652 74       		.sleb128 -12
 1501 0653 00       		.byte	0
 1502 0654 13       		.uleb128 0x13
 1503 0655 01       		.byte	0x1
 1504 0656 02010000 		.4byte	.LASF63
 1505 065a 01       		.byte	0x1
 1506 065b EF       		.byte	0xef
 1507 065c 01       		.byte	0x1
 1508 065d 00000000 		.4byte	.LFB72
 1509 0661 40000000 		.4byte	.LFE72
 1510 0665 A0010000 		.4byte	.LLST10
 1511 0669 8A060000 		.4byte	0x68a
 1512 066d 14       		.uleb128 0x14
 1513 066e 70020000 		.4byte	.LASF54
 1514 0672 01       		.byte	0x1
 1515 0673 EF       		.byte	0xef
 1516 0674 3A030000 		.4byte	0x33a
 1517 0678 02       		.byte	0x2
 1518 0679 91       		.byte	0x91
 1519 067a 74       		.sleb128 -12
 1520 067b 14       		.uleb128 0x14
 1521 067c 55020000 		.4byte	.LASF57
 1522 0680 01       		.byte	0x1
 1523 0681 EF       		.byte	0xef
 1524 0682 4B030000 		.4byte	0x34b
 1525 0686 02       		.byte	0x2
 1526 0687 91       		.byte	0x91
 1527 0688 72       		.sleb128 -14
 1528 0689 00       		.byte	0
 1529 068a 18       		.uleb128 0x18
 1530 068b D7020000 		.4byte	.LASF68
 1531 068f 06       		.byte	0x6
 1532 0690 9404     		.2byte	0x494
 1533 0692 B1000000 		.4byte	0xb1
 1534 0696 01       		.byte	0x1
 1535 0697 01       		.byte	0x1
 1536 0698 00       		.byte	0
 1537              		.section	.debug_abbrev,"",%progbits
 1538              	.Ldebug_abbrev0:
 1539 0000 01       		.uleb128 0x1
 1540 0001 11       		.uleb128 0x11
 1541 0002 01       		.byte	0x1
 1542 0003 25       		.uleb128 0x25
 1543 0004 0E       		.uleb128 0xe
 1544 0005 13       		.uleb128 0x13
 1545 0006 0B       		.uleb128 0xb
 1546 0007 03       		.uleb128 0x3
 1547 0008 0E       		.uleb128 0xe
 1548 0009 1B       		.uleb128 0x1b
ARM GAS  C:\Users\z80\AppData\Local\Temp\ccaGNFwP.s 			page 29


 1549 000a 0E       		.uleb128 0xe
 1550 000b 11       		.uleb128 0x11
 1551 000c 01       		.uleb128 0x1
 1552 000d 52       		.uleb128 0x52
 1553 000e 01       		.uleb128 0x1
 1554 000f 55       		.uleb128 0x55
 1555 0010 06       		.uleb128 0x6
 1556 0011 10       		.uleb128 0x10
 1557 0012 06       		.uleb128 0x6
 1558 0013 00       		.byte	0
 1559 0014 00       		.byte	0
 1560 0015 02       		.uleb128 0x2
 1561 0016 24       		.uleb128 0x24
 1562 0017 00       		.byte	0
 1563 0018 0B       		.uleb128 0xb
 1564 0019 0B       		.uleb128 0xb
 1565 001a 3E       		.uleb128 0x3e
 1566 001b 0B       		.uleb128 0xb
 1567 001c 03       		.uleb128 0x3
 1568 001d 08       		.uleb128 0x8
 1569 001e 00       		.byte	0
 1570 001f 00       		.byte	0
 1571 0020 03       		.uleb128 0x3
 1572 0021 24       		.uleb128 0x24
 1573 0022 00       		.byte	0
 1574 0023 0B       		.uleb128 0xb
 1575 0024 0B       		.uleb128 0xb
 1576 0025 3E       		.uleb128 0x3e
 1577 0026 0B       		.uleb128 0xb
 1578 0027 03       		.uleb128 0x3
 1579 0028 0E       		.uleb128 0xe
 1580 0029 00       		.byte	0
 1581 002a 00       		.byte	0
 1582 002b 04       		.uleb128 0x4
 1583 002c 16       		.uleb128 0x16
 1584 002d 00       		.byte	0
 1585 002e 03       		.uleb128 0x3
 1586 002f 0E       		.uleb128 0xe
 1587 0030 3A       		.uleb128 0x3a
 1588 0031 0B       		.uleb128 0xb
 1589 0032 3B       		.uleb128 0x3b
 1590 0033 0B       		.uleb128 0xb
 1591 0034 49       		.uleb128 0x49
 1592 0035 13       		.uleb128 0x13
 1593 0036 00       		.byte	0
 1594 0037 00       		.byte	0
 1595 0038 05       		.uleb128 0x5
 1596 0039 35       		.uleb128 0x35
 1597 003a 00       		.byte	0
 1598 003b 49       		.uleb128 0x49
 1599 003c 13       		.uleb128 0x13
 1600 003d 00       		.byte	0
 1601 003e 00       		.byte	0
 1602 003f 06       		.uleb128 0x6
 1603 0040 01       		.uleb128 0x1
 1604 0041 01       		.byte	0x1
 1605 0042 49       		.uleb128 0x49
ARM GAS  C:\Users\z80\AppData\Local\Temp\ccaGNFwP.s 			page 30


 1606 0043 13       		.uleb128 0x13
 1607 0044 01       		.uleb128 0x1
 1608 0045 13       		.uleb128 0x13
 1609 0046 00       		.byte	0
 1610 0047 00       		.byte	0
 1611 0048 07       		.uleb128 0x7
 1612 0049 21       		.uleb128 0x21
 1613 004a 00       		.byte	0
 1614 004b 49       		.uleb128 0x49
 1615 004c 13       		.uleb128 0x13
 1616 004d 2F       		.uleb128 0x2f
 1617 004e 0B       		.uleb128 0xb
 1618 004f 00       		.byte	0
 1619 0050 00       		.byte	0
 1620 0051 08       		.uleb128 0x8
 1621 0052 13       		.uleb128 0x13
 1622 0053 01       		.byte	0x1
 1623 0054 0B       		.uleb128 0xb
 1624 0055 0B       		.uleb128 0xb
 1625 0056 3A       		.uleb128 0x3a
 1626 0057 0B       		.uleb128 0xb
 1627 0058 3B       		.uleb128 0x3b
 1628 0059 0B       		.uleb128 0xb
 1629 005a 01       		.uleb128 0x1
 1630 005b 13       		.uleb128 0x13
 1631 005c 00       		.byte	0
 1632 005d 00       		.byte	0
 1633 005e 09       		.uleb128 0x9
 1634 005f 0D       		.uleb128 0xd
 1635 0060 00       		.byte	0
 1636 0061 03       		.uleb128 0x3
 1637 0062 08       		.uleb128 0x8
 1638 0063 3A       		.uleb128 0x3a
 1639 0064 0B       		.uleb128 0xb
 1640 0065 3B       		.uleb128 0x3b
 1641 0066 0B       		.uleb128 0xb
 1642 0067 49       		.uleb128 0x49
 1643 0068 13       		.uleb128 0x13
 1644 0069 38       		.uleb128 0x38
 1645 006a 0A       		.uleb128 0xa
 1646 006b 00       		.byte	0
 1647 006c 00       		.byte	0
 1648 006d 0A       		.uleb128 0xa
 1649 006e 0D       		.uleb128 0xd
 1650 006f 00       		.byte	0
 1651 0070 03       		.uleb128 0x3
 1652 0071 0E       		.uleb128 0xe
 1653 0072 3A       		.uleb128 0x3a
 1654 0073 0B       		.uleb128 0xb
 1655 0074 3B       		.uleb128 0x3b
 1656 0075 0B       		.uleb128 0xb
 1657 0076 49       		.uleb128 0x49
 1658 0077 13       		.uleb128 0x13
 1659 0078 38       		.uleb128 0x38
 1660 0079 0A       		.uleb128 0xa
 1661 007a 00       		.byte	0
 1662 007b 00       		.byte	0
ARM GAS  C:\Users\z80\AppData\Local\Temp\ccaGNFwP.s 			page 31


 1663 007c 0B       		.uleb128 0xb
 1664 007d 04       		.uleb128 0x4
 1665 007e 01       		.byte	0x1
 1666 007f 0B       		.uleb128 0xb
 1667 0080 0B       		.uleb128 0xb
 1668 0081 3A       		.uleb128 0x3a
 1669 0082 0B       		.uleb128 0xb
 1670 0083 3B       		.uleb128 0x3b
 1671 0084 0B       		.uleb128 0xb
 1672 0085 01       		.uleb128 0x1
 1673 0086 13       		.uleb128 0x13
 1674 0087 00       		.byte	0
 1675 0088 00       		.byte	0
 1676 0089 0C       		.uleb128 0xc
 1677 008a 28       		.uleb128 0x28
 1678 008b 00       		.byte	0
 1679 008c 03       		.uleb128 0x3
 1680 008d 0E       		.uleb128 0xe
 1681 008e 1C       		.uleb128 0x1c
 1682 008f 0D       		.uleb128 0xd
 1683 0090 00       		.byte	0
 1684 0091 00       		.byte	0
 1685 0092 0D       		.uleb128 0xd
 1686 0093 13       		.uleb128 0x13
 1687 0094 01       		.byte	0x1
 1688 0095 03       		.uleb128 0x3
 1689 0096 0E       		.uleb128 0xe
 1690 0097 0B       		.uleb128 0xb
 1691 0098 0B       		.uleb128 0xb
 1692 0099 3A       		.uleb128 0x3a
 1693 009a 0B       		.uleb128 0xb
 1694 009b 3B       		.uleb128 0x3b
 1695 009c 0B       		.uleb128 0xb
 1696 009d 01       		.uleb128 0x1
 1697 009e 13       		.uleb128 0x13
 1698 009f 00       		.byte	0
 1699 00a0 00       		.byte	0
 1700 00a1 0E       		.uleb128 0xe
 1701 00a2 0F       		.uleb128 0xf
 1702 00a3 00       		.byte	0
 1703 00a4 0B       		.uleb128 0xb
 1704 00a5 0B       		.uleb128 0xb
 1705 00a6 49       		.uleb128 0x49
 1706 00a7 13       		.uleb128 0x13
 1707 00a8 00       		.byte	0
 1708 00a9 00       		.byte	0
 1709 00aa 0F       		.uleb128 0xf
 1710 00ab 15       		.uleb128 0x15
 1711 00ac 01       		.byte	0x1
 1712 00ad 27       		.uleb128 0x27
 1713 00ae 0C       		.uleb128 0xc
 1714 00af 01       		.uleb128 0x1
 1715 00b0 13       		.uleb128 0x13
 1716 00b1 00       		.byte	0
 1717 00b2 00       		.byte	0
 1718 00b3 10       		.uleb128 0x10
 1719 00b4 05       		.uleb128 0x5
ARM GAS  C:\Users\z80\AppData\Local\Temp\ccaGNFwP.s 			page 32


 1720 00b5 00       		.byte	0
 1721 00b6 49       		.uleb128 0x49
 1722 00b7 13       		.uleb128 0x13
 1723 00b8 00       		.byte	0
 1724 00b9 00       		.byte	0
 1725 00ba 11       		.uleb128 0x11
 1726 00bb 26       		.uleb128 0x26
 1727 00bc 00       		.byte	0
 1728 00bd 49       		.uleb128 0x49
 1729 00be 13       		.uleb128 0x13
 1730 00bf 00       		.byte	0
 1731 00c0 00       		.byte	0
 1732 00c1 12       		.uleb128 0x12
 1733 00c2 2E       		.uleb128 0x2e
 1734 00c3 00       		.byte	0
 1735 00c4 3F       		.uleb128 0x3f
 1736 00c5 0C       		.uleb128 0xc
 1737 00c6 03       		.uleb128 0x3
 1738 00c7 0E       		.uleb128 0xe
 1739 00c8 3A       		.uleb128 0x3a
 1740 00c9 0B       		.uleb128 0xb
 1741 00ca 3B       		.uleb128 0x3b
 1742 00cb 0B       		.uleb128 0xb
 1743 00cc 27       		.uleb128 0x27
 1744 00cd 0C       		.uleb128 0xc
 1745 00ce 11       		.uleb128 0x11
 1746 00cf 01       		.uleb128 0x1
 1747 00d0 12       		.uleb128 0x12
 1748 00d1 01       		.uleb128 0x1
 1749 00d2 40       		.uleb128 0x40
 1750 00d3 06       		.uleb128 0x6
 1751 00d4 00       		.byte	0
 1752 00d5 00       		.byte	0
 1753 00d6 13       		.uleb128 0x13
 1754 00d7 2E       		.uleb128 0x2e
 1755 00d8 01       		.byte	0x1
 1756 00d9 3F       		.uleb128 0x3f
 1757 00da 0C       		.uleb128 0xc
 1758 00db 03       		.uleb128 0x3
 1759 00dc 0E       		.uleb128 0xe
 1760 00dd 3A       		.uleb128 0x3a
 1761 00de 0B       		.uleb128 0xb
 1762 00df 3B       		.uleb128 0x3b
 1763 00e0 0B       		.uleb128 0xb
 1764 00e1 27       		.uleb128 0x27
 1765 00e2 0C       		.uleb128 0xc
 1766 00e3 11       		.uleb128 0x11
 1767 00e4 01       		.uleb128 0x1
 1768 00e5 12       		.uleb128 0x12
 1769 00e6 01       		.uleb128 0x1
 1770 00e7 40       		.uleb128 0x40
 1771 00e8 06       		.uleb128 0x6
 1772 00e9 01       		.uleb128 0x1
 1773 00ea 13       		.uleb128 0x13
 1774 00eb 00       		.byte	0
 1775 00ec 00       		.byte	0
 1776 00ed 14       		.uleb128 0x14
ARM GAS  C:\Users\z80\AppData\Local\Temp\ccaGNFwP.s 			page 33


 1777 00ee 05       		.uleb128 0x5
 1778 00ef 00       		.byte	0
 1779 00f0 03       		.uleb128 0x3
 1780 00f1 0E       		.uleb128 0xe
 1781 00f2 3A       		.uleb128 0x3a
 1782 00f3 0B       		.uleb128 0xb
 1783 00f4 3B       		.uleb128 0x3b
 1784 00f5 0B       		.uleb128 0xb
 1785 00f6 49       		.uleb128 0x49
 1786 00f7 13       		.uleb128 0x13
 1787 00f8 02       		.uleb128 0x2
 1788 00f9 0A       		.uleb128 0xa
 1789 00fa 00       		.byte	0
 1790 00fb 00       		.byte	0
 1791 00fc 15       		.uleb128 0x15
 1792 00fd 0B       		.uleb128 0xb
 1793 00fe 01       		.byte	0x1
 1794 00ff 11       		.uleb128 0x11
 1795 0100 01       		.uleb128 0x1
 1796 0101 12       		.uleb128 0x12
 1797 0102 01       		.uleb128 0x1
 1798 0103 01       		.uleb128 0x1
 1799 0104 13       		.uleb128 0x13
 1800 0105 00       		.byte	0
 1801 0106 00       		.byte	0
 1802 0107 16       		.uleb128 0x16
 1803 0108 34       		.uleb128 0x34
 1804 0109 00       		.byte	0
 1805 010a 03       		.uleb128 0x3
 1806 010b 08       		.uleb128 0x8
 1807 010c 3A       		.uleb128 0x3a
 1808 010d 0B       		.uleb128 0xb
 1809 010e 3B       		.uleb128 0x3b
 1810 010f 0B       		.uleb128 0xb
 1811 0110 49       		.uleb128 0x49
 1812 0111 13       		.uleb128 0x13
 1813 0112 02       		.uleb128 0x2
 1814 0113 0A       		.uleb128 0xa
 1815 0114 00       		.byte	0
 1816 0115 00       		.byte	0
 1817 0116 17       		.uleb128 0x17
 1818 0117 0B       		.uleb128 0xb
 1819 0118 01       		.byte	0x1
 1820 0119 11       		.uleb128 0x11
 1821 011a 01       		.uleb128 0x1
 1822 011b 12       		.uleb128 0x12
 1823 011c 01       		.uleb128 0x1
 1824 011d 00       		.byte	0
 1825 011e 00       		.byte	0
 1826 011f 18       		.uleb128 0x18
 1827 0120 34       		.uleb128 0x34
 1828 0121 00       		.byte	0
 1829 0122 03       		.uleb128 0x3
 1830 0123 0E       		.uleb128 0xe
 1831 0124 3A       		.uleb128 0x3a
 1832 0125 0B       		.uleb128 0xb
 1833 0126 3B       		.uleb128 0x3b
ARM GAS  C:\Users\z80\AppData\Local\Temp\ccaGNFwP.s 			page 34


 1834 0127 05       		.uleb128 0x5
 1835 0128 49       		.uleb128 0x49
 1836 0129 13       		.uleb128 0x13
 1837 012a 3F       		.uleb128 0x3f
 1838 012b 0C       		.uleb128 0xc
 1839 012c 3C       		.uleb128 0x3c
 1840 012d 0C       		.uleb128 0xc
 1841 012e 00       		.byte	0
 1842 012f 00       		.byte	0
 1843 0130 00       		.byte	0
 1844              		.section	.debug_loc,"",%progbits
 1845              	.Ldebug_loc0:
 1846              	.LLST0:
 1847 0000 00000000 		.4byte	.LFB62
 1848 0004 02000000 		.4byte	.LCFI0
 1849 0008 0200     		.2byte	0x2
 1850 000a 7D       		.byte	0x7d
 1851 000b 00       		.sleb128 0
 1852 000c 02000000 		.4byte	.LCFI0
 1853 0010 08000000 		.4byte	.LFE62
 1854 0014 0200     		.2byte	0x2
 1855 0016 7D       		.byte	0x7d
 1856 0017 08       		.sleb128 8
 1857 0018 00000000 		.4byte	0
 1858 001c 00000000 		.4byte	0
 1859              	.LLST1:
 1860 0020 00000000 		.4byte	.LFB63
 1861 0024 02000000 		.4byte	.LCFI1
 1862 0028 0200     		.2byte	0x2
 1863 002a 7D       		.byte	0x7d
 1864 002b 00       		.sleb128 0
 1865 002c 02000000 		.4byte	.LCFI1
 1866 0030 18000000 		.4byte	.LFE63
 1867 0034 0200     		.2byte	0x2
 1868 0036 7D       		.byte	0x7d
 1869 0037 08       		.sleb128 8
 1870 0038 00000000 		.4byte	0
 1871 003c 00000000 		.4byte	0
 1872              	.LLST2:
 1873 0040 00000000 		.4byte	.LFB64
 1874 0044 02000000 		.4byte	.LCFI2
 1875 0048 0200     		.2byte	0x2
 1876 004a 7D       		.byte	0x7d
 1877 004b 00       		.sleb128 0
 1878 004c 02000000 		.4byte	.LCFI2
 1879 0050 04000000 		.4byte	.LCFI3
 1880 0054 0200     		.2byte	0x2
 1881 0056 7D       		.byte	0x7d
 1882 0057 04       		.sleb128 4
 1883 0058 04000000 		.4byte	.LCFI3
 1884 005c 6C000000 		.4byte	.LFE64
 1885 0060 0200     		.2byte	0x2
 1886 0062 7D       		.byte	0x7d
 1887 0063 10       		.sleb128 16
 1888 0064 00000000 		.4byte	0
 1889 0068 00000000 		.4byte	0
 1890              	.LLST3:
ARM GAS  C:\Users\z80\AppData\Local\Temp\ccaGNFwP.s 			page 35


 1891 006c 00000000 		.4byte	.LFB65
 1892 0070 02000000 		.4byte	.LCFI4
 1893 0074 0200     		.2byte	0x2
 1894 0076 7D       		.byte	0x7d
 1895 0077 00       		.sleb128 0
 1896 0078 02000000 		.4byte	.LCFI4
 1897 007c 04000000 		.4byte	.LCFI5
 1898 0080 0200     		.2byte	0x2
 1899 0082 7D       		.byte	0x7d
 1900 0083 04       		.sleb128 4
 1901 0084 04000000 		.4byte	.LCFI5
 1902 0088 5E000000 		.4byte	.LFE65
 1903 008c 0200     		.2byte	0x2
 1904 008e 7D       		.byte	0x7d
 1905 008f 10       		.sleb128 16
 1906 0090 00000000 		.4byte	0
 1907 0094 00000000 		.4byte	0
 1908              	.LLST4:
 1909 0098 00000000 		.4byte	.LFB66
 1910 009c 02000000 		.4byte	.LCFI6
 1911 00a0 0200     		.2byte	0x2
 1912 00a2 7D       		.byte	0x7d
 1913 00a3 00       		.sleb128 0
 1914 00a4 02000000 		.4byte	.LCFI6
 1915 00a8 04000000 		.4byte	.LCFI7
 1916 00ac 0200     		.2byte	0x2
 1917 00ae 7D       		.byte	0x7d
 1918 00af 04       		.sleb128 4
 1919 00b0 04000000 		.4byte	.LCFI7
 1920 00b4 34000000 		.4byte	.LFE66
 1921 00b8 0200     		.2byte	0x2
 1922 00ba 7D       		.byte	0x7d
 1923 00bb 10       		.sleb128 16
 1924 00bc 00000000 		.4byte	0
 1925 00c0 00000000 		.4byte	0
 1926              	.LLST5:
 1927 00c4 00000000 		.4byte	.LFB67
 1928 00c8 02000000 		.4byte	.LCFI8
 1929 00cc 0200     		.2byte	0x2
 1930 00ce 7D       		.byte	0x7d
 1931 00cf 00       		.sleb128 0
 1932 00d0 02000000 		.4byte	.LCFI8
 1933 00d4 04000000 		.4byte	.LCFI9
 1934 00d8 0200     		.2byte	0x2
 1935 00da 7D       		.byte	0x7d
 1936 00db 04       		.sleb128 4
 1937 00dc 04000000 		.4byte	.LCFI9
 1938 00e0 4E000000 		.4byte	.LFE67
 1939 00e4 0200     		.2byte	0x2
 1940 00e6 7D       		.byte	0x7d
 1941 00e7 10       		.sleb128 16
 1942 00e8 00000000 		.4byte	0
 1943 00ec 00000000 		.4byte	0
 1944              	.LLST6:
 1945 00f0 00000000 		.4byte	.LFB68
 1946 00f4 02000000 		.4byte	.LCFI10
 1947 00f8 0200     		.2byte	0x2
ARM GAS  C:\Users\z80\AppData\Local\Temp\ccaGNFwP.s 			page 36


 1948 00fa 7D       		.byte	0x7d
 1949 00fb 00       		.sleb128 0
 1950 00fc 02000000 		.4byte	.LCFI10
 1951 0100 04000000 		.4byte	.LCFI11
 1952 0104 0200     		.2byte	0x2
 1953 0106 7D       		.byte	0x7d
 1954 0107 04       		.sleb128 4
 1955 0108 04000000 		.4byte	.LCFI11
 1956 010c 34000000 		.4byte	.LFE68
 1957 0110 0200     		.2byte	0x2
 1958 0112 7D       		.byte	0x7d
 1959 0113 10       		.sleb128 16
 1960 0114 00000000 		.4byte	0
 1961 0118 00000000 		.4byte	0
 1962              	.LLST7:
 1963 011c 00000000 		.4byte	.LFB69
 1964 0120 02000000 		.4byte	.LCFI12
 1965 0124 0200     		.2byte	0x2
 1966 0126 7D       		.byte	0x7d
 1967 0127 00       		.sleb128 0
 1968 0128 02000000 		.4byte	.LCFI12
 1969 012c 04000000 		.4byte	.LCFI13
 1970 0130 0200     		.2byte	0x2
 1971 0132 7D       		.byte	0x7d
 1972 0133 04       		.sleb128 4
 1973 0134 04000000 		.4byte	.LCFI13
 1974 0138 4E000000 		.4byte	.LFE69
 1975 013c 0200     		.2byte	0x2
 1976 013e 7D       		.byte	0x7d
 1977 013f 10       		.sleb128 16
 1978 0140 00000000 		.4byte	0
 1979 0144 00000000 		.4byte	0
 1980              	.LLST8:
 1981 0148 00000000 		.4byte	.LFB70
 1982 014c 02000000 		.4byte	.LCFI14
 1983 0150 0200     		.2byte	0x2
 1984 0152 7D       		.byte	0x7d
 1985 0153 00       		.sleb128 0
 1986 0154 02000000 		.4byte	.LCFI14
 1987 0158 04000000 		.4byte	.LCFI15
 1988 015c 0200     		.2byte	0x2
 1989 015e 7D       		.byte	0x7d
 1990 015f 04       		.sleb128 4
 1991 0160 04000000 		.4byte	.LCFI15
 1992 0164 28000000 		.4byte	.LFE70
 1993 0168 0200     		.2byte	0x2
 1994 016a 7D       		.byte	0x7d
 1995 016b 10       		.sleb128 16
 1996 016c 00000000 		.4byte	0
 1997 0170 00000000 		.4byte	0
 1998              	.LLST9:
 1999 0174 00000000 		.4byte	.LFB71
 2000 0178 02000000 		.4byte	.LCFI16
 2001 017c 0200     		.2byte	0x2
 2002 017e 7D       		.byte	0x7d
 2003 017f 00       		.sleb128 0
 2004 0180 02000000 		.4byte	.LCFI16
ARM GAS  C:\Users\z80\AppData\Local\Temp\ccaGNFwP.s 			page 37


 2005 0184 04000000 		.4byte	.LCFI17
 2006 0188 0200     		.2byte	0x2
 2007 018a 7D       		.byte	0x7d
 2008 018b 04       		.sleb128 4
 2009 018c 04000000 		.4byte	.LCFI17
 2010 0190 52000000 		.4byte	.LFE71
 2011 0194 0200     		.2byte	0x2
 2012 0196 7D       		.byte	0x7d
 2013 0197 10       		.sleb128 16
 2014 0198 00000000 		.4byte	0
 2015 019c 00000000 		.4byte	0
 2016              	.LLST10:
 2017 01a0 00000000 		.4byte	.LFB72
 2018 01a4 02000000 		.4byte	.LCFI18
 2019 01a8 0200     		.2byte	0x2
 2020 01aa 7D       		.byte	0x7d
 2021 01ab 00       		.sleb128 0
 2022 01ac 02000000 		.4byte	.LCFI18
 2023 01b0 04000000 		.4byte	.LCFI19
 2024 01b4 0200     		.2byte	0x2
 2025 01b6 7D       		.byte	0x7d
 2026 01b7 04       		.sleb128 4
 2027 01b8 04000000 		.4byte	.LCFI19
 2028 01bc 40000000 		.4byte	.LFE72
 2029 01c0 0200     		.2byte	0x2
 2030 01c2 7D       		.byte	0x7d
 2031 01c3 10       		.sleb128 16
 2032 01c4 00000000 		.4byte	0
 2033 01c8 00000000 		.4byte	0
 2034              		.section	.debug_aranges,"",%progbits
 2035 0000 6C000000 		.4byte	0x6c
 2036 0004 0200     		.2byte	0x2
 2037 0006 00000000 		.4byte	.Ldebug_info0
 2038 000a 04       		.byte	0x4
 2039 000b 00       		.byte	0
 2040 000c 0000     		.2byte	0
 2041 000e 0000     		.2byte	0
 2042 0010 00000000 		.4byte	.LFB62
 2043 0014 08000000 		.4byte	.LFE62-.LFB62
 2044 0018 00000000 		.4byte	.LFB63
 2045 001c 18000000 		.4byte	.LFE63-.LFB63
 2046 0020 00000000 		.4byte	.LFB64
 2047 0024 6C000000 		.4byte	.LFE64-.LFB64
 2048 0028 00000000 		.4byte	.LFB65
 2049 002c 5E000000 		.4byte	.LFE65-.LFB65
 2050 0030 00000000 		.4byte	.LFB66
 2051 0034 34000000 		.4byte	.LFE66-.LFB66
 2052 0038 00000000 		.4byte	.LFB67
 2053 003c 4E000000 		.4byte	.LFE67-.LFB67
 2054 0040 00000000 		.4byte	.LFB68
 2055 0044 34000000 		.4byte	.LFE68-.LFB68
 2056 0048 00000000 		.4byte	.LFB69
 2057 004c 4E000000 		.4byte	.LFE69-.LFB69
 2058 0050 00000000 		.4byte	.LFB70
 2059 0054 28000000 		.4byte	.LFE70-.LFB70
 2060 0058 00000000 		.4byte	.LFB71
 2061 005c 52000000 		.4byte	.LFE71-.LFB71
ARM GAS  C:\Users\z80\AppData\Local\Temp\ccaGNFwP.s 			page 38


 2062 0060 00000000 		.4byte	.LFB72
 2063 0064 40000000 		.4byte	.LFE72-.LFB72
 2064 0068 00000000 		.4byte	0
 2065 006c 00000000 		.4byte	0
 2066              		.section	.debug_ranges,"",%progbits
 2067              	.Ldebug_ranges0:
 2068 0000 00000000 		.4byte	.LFB62
 2069 0004 08000000 		.4byte	.LFE62
 2070 0008 00000000 		.4byte	.LFB63
 2071 000c 18000000 		.4byte	.LFE63
 2072 0010 00000000 		.4byte	.LFB64
 2073 0014 6C000000 		.4byte	.LFE64
 2074 0018 00000000 		.4byte	.LFB65
 2075 001c 5E000000 		.4byte	.LFE65
 2076 0020 00000000 		.4byte	.LFB66
 2077 0024 34000000 		.4byte	.LFE66
 2078 0028 00000000 		.4byte	.LFB67
 2079 002c 4E000000 		.4byte	.LFE67
 2080 0030 00000000 		.4byte	.LFB68
 2081 0034 34000000 		.4byte	.LFE68
 2082 0038 00000000 		.4byte	.LFB69
 2083 003c 4E000000 		.4byte	.LFE69
 2084 0040 00000000 		.4byte	.LFB70
 2085 0044 28000000 		.4byte	.LFE70
 2086 0048 00000000 		.4byte	.LFB71
 2087 004c 52000000 		.4byte	.LFE71
 2088 0050 00000000 		.4byte	.LFB72
 2089 0054 40000000 		.4byte	.LFE72
 2090 0058 00000000 		.4byte	0
 2091 005c 00000000 		.4byte	0
 2092              		.section	.debug_line,"",%progbits
 2093              	.Ldebug_line0:
 2094 0000 AD020000 		.section	.debug_str,"MS",%progbits,1
 2094      02005A01 
 2094      00000201 
 2094      FB0E0D00 
 2094      01010101 
 2095              	.LASF25:
 2096 0000 43434552 		.ascii	"CCER\000"
 2096      00
 2097              	.LASF36:
 2098 0005 4750545F 		.ascii	"GPT_UNINIT\000"
 2098      554E494E 
 2098      495400
 2099              	.LASF32:
 2100 0010 444D4152 		.ascii	"DMAR\000"
 2100      00
 2101              	.LASF43:
 2102 0015 73746174 		.ascii	"state\000"
 2102      6500
 2103              	.LASF23:
 2104 001b 43434D52 		.ascii	"CCMR2\000"
 2104      3200
 2105              	.LASF3:
 2106 0021 73686F72 		.ascii	"short int\000"
 2106      7420696E 
 2106      7400
ARM GAS  C:\Users\z80\AppData\Local\Temp\ccaGNFwP.s 			page 39


 2107              	.LASF46:
 2108 002b 67707463 		.ascii	"gptcallback_t\000"
 2108      616C6C62 
 2108      61636B5F 
 2108      7400
 2109              	.LASF48:
 2110 0039 67707463 		.ascii	"gptcnt_t\000"
 2110      6E745F74 
 2110      00
 2111              	.LASF62:
 2112 0042 67707453 		.ascii	"gptStopTimerI\000"
 2112      746F7054 
 2112      696D6572 
 2112      4900
 2113              	.LASF44:
 2114 0050 636F6E66 		.ascii	"config\000"
 2114      696700
 2115              	.LASF40:
 2116 0057 4750545F 		.ascii	"GPT_ONESHOT\000"
 2116      4F4E4553 
 2116      484F5400 
 2117              	.LASF13:
 2118 0063 5F726573 		.ascii	"_resvd0\000"
 2118      76643000 
 2119              	.LASF14:
 2120 006b 5F726573 		.ascii	"_resvd1\000"
 2120      76643100 
 2121              	.LASF16:
 2122 0073 5F726573 		.ascii	"_resvd2\000"
 2122      76643200 
 2123              	.LASF18:
 2124 007b 5F726573 		.ascii	"_resvd3\000"
 2124      76643300 
 2125              	.LASF19:
 2126 0083 5F726573 		.ascii	"_resvd4\000"
 2126      76643400 
 2127              	.LASF20:
 2128 008b 5F726573 		.ascii	"_resvd5\000"
 2128      76643500 
 2129              	.LASF22:
 2130 0093 5F726573 		.ascii	"_resvd6\000"
 2130      76643600 
 2131              	.LASF24:
 2132 009b 5F726573 		.ascii	"_resvd7\000"
 2132      76643700 
 2133              	.LASF26:
 2134 00a3 5F726573 		.ascii	"_resvd8\000"
 2134      76643800 
 2135              	.LASF27:
 2136 00ab 5F726573 		.ascii	"_resvd9\000"
 2136      76643900 
 2137              	.LASF41:
 2138 00b3 67707473 		.ascii	"gptstate_t\000"
 2138      74617465 
 2138      5F7400
 2139              	.LASF10:
 2140 00be 6C6F6E67 		.ascii	"long long int\000"
ARM GAS  C:\Users\z80\AppData\Local\Temp\ccaGNFwP.s 			page 40


 2140      206C6F6E 
 2140      6720696E 
 2140      7400
 2141              	.LASF59:
 2142 00cc 67707453 		.ascii	"gptStartOneShot\000"
 2142      74617274 
 2142      4F6E6553 
 2142      686F7400 
 2143              	.LASF58:
 2144 00dc 67707453 		.ascii	"gptStartContinuousI\000"
 2144      74617274 
 2144      436F6E74 
 2144      696E756F 
 2144      75734900 
 2145              	.LASF7:
 2146 00f0 6C6F6E67 		.ascii	"long int\000"
 2146      20696E74 
 2146      00
 2147              	.LASF53:
 2148 00f9 67707453 		.ascii	"gptStart\000"
 2148      74617274 
 2148      00
 2149              	.LASF63:
 2150 0102 67707450 		.ascii	"gptPolledDelay\000"
 2150      6F6C6C65 
 2150      6444656C 
 2150      617900
 2151              	.LASF21:
 2152 0111 43434D52 		.ascii	"CCMR1\000"
 2152      3100
 2153              	.LASF15:
 2154 0117 534D4352 		.ascii	"SMCR\000"
 2154      00
 2155              	.LASF2:
 2156 011c 756E7369 		.ascii	"unsigned char\000"
 2156      676E6564 
 2156      20636861 
 2156      7200
 2157              	.LASF67:
 2158 012a 67707449 		.ascii	"gptInit\000"
 2158      6E697400 
 2159              	.LASF56:
 2160 0132 67707453 		.ascii	"gptStartContinuous\000"
 2160      74617274 
 2160      436F6E74 
 2160      696E756F 
 2160      757300
 2161              	.LASF1:
 2162 0145 7369676E 		.ascii	"signed char\000"
 2162      65642063 
 2162      68617200 
 2163              	.LASF11:
 2164 0151 6C6F6E67 		.ascii	"long long unsigned int\000"
 2164      206C6F6E 
 2164      6720756E 
 2164      7369676E 
 2164      65642069 
ARM GAS  C:\Users\z80\AppData\Local\Temp\ccaGNFwP.s 			page 41


 2165              	.LASF8:
 2166 0168 75696E74 		.ascii	"uint32_t\000"
 2166      33325F74 
 2166      00
 2167              	.LASF0:
 2168 0171 756E7369 		.ascii	"unsigned int\000"
 2168      676E6564 
 2168      20696E74 
 2168      00
 2169              	.LASF5:
 2170 017e 75696E74 		.ascii	"uint16_t\000"
 2170      31365F74 
 2170      00
 2171              	.LASF17:
 2172 0187 44494552 		.ascii	"DIER\000"
 2172      00
 2173              	.LASF30:
 2174 018c 5F726573 		.ascii	"_resvd11\000"
 2174      76643131 
 2174      00
 2175              	.LASF31:
 2176 0195 5F726573 		.ascii	"_resvd12\000"
 2176      76643132 
 2176      00
 2177              	.LASF33:
 2178 019e 5F726573 		.ascii	"_resvd13\000"
 2178      76643133 
 2178      00
 2179              	.LASF34:
 2180 01a7 5F726573 		.ascii	"_resvd14\000"
 2180      76643134 
 2180      00
 2181              	.LASF4:
 2182 01b0 73686F72 		.ascii	"short unsigned int\000"
 2182      7420756E 
 2182      7369676E 
 2182      65642069 
 2182      6E7400
 2183              	.LASF12:
 2184 01c3 63686172 		.ascii	"char\000"
 2184      00
 2185              	.LASF35:
 2186 01c8 73746D33 		.ascii	"stm32_tim_t\000"
 2186      325F7469 
 2186      6D5F7400 
 2187              	.LASF29:
 2188 01d4 42445452 		.ascii	"BDTR\000"
 2188      00
 2189              	.LASF6:
 2190 01d9 696E7433 		.ascii	"int32_t\000"
 2190      325F7400 
 2191              	.LASF64:
 2192 01e1 474E5520 		.ascii	"GNU C 4.6.3\000"
 2192      4320342E 
 2192      362E3300 
 2193              	.LASF39:
 2194 01ed 4750545F 		.ascii	"GPT_CONTINUOUS\000"
ARM GAS  C:\Users\z80\AppData\Local\Temp\ccaGNFwP.s 			page 42


 2194      434F4E54 
 2194      494E554F 
 2194      555300
 2195              	.LASF38:
 2196 01fc 4750545F 		.ascii	"GPT_READY\000"
 2196      52454144 
 2196      5900
 2197              	.LASF42:
 2198 0206 47505444 		.ascii	"GPTDriver\000"
 2198      72697665 
 2198      7200
 2199              	.LASF9:
 2200 0210 6C6F6E67 		.ascii	"long unsigned int\000"
 2200      20756E73 
 2200      69676E65 
 2200      6420696E 
 2200      7400
 2201              	.LASF45:
 2202 0222 636C6F63 		.ascii	"clock\000"
 2202      6B00
 2203              	.LASF66:
 2204 0228 433A5C70 		.ascii	"C:\\projects\\digitizer.git\\firmware\\digitizer\000"
 2204      726F6A65 
 2204      6374735C 
 2204      64696769 
 2204      74697A65 
 2205              	.LASF57:
 2206 0255 696E7465 		.ascii	"interval\000"
 2206      7276616C 
 2206      00
 2207              	.LASF28:
 2208 025e 5F726573 		.ascii	"_resvd10\000"
 2208      76643130 
 2208      00
 2209              	.LASF37:
 2210 0267 4750545F 		.ascii	"GPT_STOP\000"
 2210      53544F50 
 2210      00
 2211              	.LASF54:
 2212 0270 67707470 		.ascii	"gptp\000"
 2212      00
 2213              	.LASF51:
 2214 0275 47505443 		.ascii	"GPTConfig\000"
 2214      6F6E6669 
 2214      6700
 2215              	.LASF60:
 2216 027f 67707453 		.ascii	"gptStartOneShotI\000"
 2216      74617274 
 2216      4F6E6553 
 2216      686F7449 
 2216      00
 2217              	.LASF61:
 2218 0290 67707453 		.ascii	"gptStopTimer\000"
 2218      746F7054 
 2218      696D6572 
 2218      00
 2219              	.LASF49:
ARM GAS  C:\Users\z80\AppData\Local\Temp\ccaGNFwP.s 			page 43


 2220 029d 66726571 		.ascii	"frequency\000"
 2220      75656E63 
 2220      7900
 2221              	.LASF65:
 2222 02a7 2E2E2F63 		.ascii	"../chibios_2.4.x/os/hal/src/gpt.c\000"
 2222      68696269 
 2222      6F735F32 
 2222      2E342E78 
 2222      2F6F732F 
 2223              	.LASF52:
 2224 02c9 6770744F 		.ascii	"gptObjectInit\000"
 2224      626A6563 
 2224      74496E69 
 2224      7400
 2225              	.LASF68:
 2226 02d7 49544D5F 		.ascii	"ITM_RxBuffer\000"
 2226      52784275 
 2226      66666572 
 2226      00
 2227              	.LASF47:
 2228 02e4 67707466 		.ascii	"gptfreq_t\000"
 2228      7265715F 
 2228      7400
 2229              	.LASF55:
 2230 02ee 67707453 		.ascii	"gptStop\000"
 2230      746F7000 
 2231              	.LASF50:
 2232 02f6 63616C6C 		.ascii	"callback\000"
 2232      6261636B 
 2232      00
 2233              		.ident	"GCC: (Sourcery CodeBench Lite 2012.03-56) 4.6.3"
ARM GAS  C:\Users\z80\AppData\Local\Temp\ccaGNFwP.s 			page 44


DEFINED SYMBOLS
                            *ABS*:00000000 gpt.c
C:\Users\z80\AppData\Local\Temp\ccaGNFwP.s:19     .text.gptInit:00000000 $t
C:\Users\z80\AppData\Local\Temp\ccaGNFwP.s:25     .text.gptInit:00000000 gptInit
C:\Users\z80\AppData\Local\Temp\ccaGNFwP.s:45     .text.gptObjectInit:00000000 $t
C:\Users\z80\AppData\Local\Temp\ccaGNFwP.s:51     .text.gptObjectInit:00000000 gptObjectInit
C:\Users\z80\AppData\Local\Temp\ccaGNFwP.s:77     .rodata:00000000 $d
C:\Users\z80\AppData\Local\Temp\ccaGNFwP.s:78     .rodata:00000000 .LC0
C:\Users\z80\AppData\Local\Temp\ccaGNFwP.s:81     .rodata:0000000c .LC1
C:\Users\z80\AppData\Local\Temp\ccaGNFwP.s:84     .text.gptStart:00000000 $t
C:\Users\z80\AppData\Local\Temp\ccaGNFwP.s:90     .text.gptStart:00000000 gptStart
C:\Users\z80\AppData\Local\Temp\ccaGNFwP.s:171    .rodata:0000001c .LC2
C:\Users\z80\AppData\Local\Temp\ccaGNFwP.s:174    .rodata:00000028 .LC3
C:\Users\z80\AppData\Local\Temp\ccaGNFwP.s:177    .text.gptStop:00000000 $t
C:\Users\z80\AppData\Local\Temp\ccaGNFwP.s:183    .text.gptStop:00000000 gptStop
C:\Users\z80\AppData\Local\Temp\ccaGNFwP.s:253    .text.gptStartContinuous:00000000 $t
C:\Users\z80\AppData\Local\Temp\ccaGNFwP.s:259    .text.gptStartContinuous:00000000 gptStartContinuous
C:\Users\z80\AppData\Local\Temp\ccaGNFwP.s:318    .text.gptStartContinuousI:00000000 gptStartContinuousI
C:\Users\z80\AppData\Local\Temp\ccaGNFwP.s:306    .rodata:00000038 .LC4
C:\Users\z80\AppData\Local\Temp\ccaGNFwP.s:309    .rodata:00000050 .LC5
C:\Users\z80\AppData\Local\Temp\ccaGNFwP.s:312    .text.gptStartContinuousI:00000000 $t
C:\Users\z80\AppData\Local\Temp\ccaGNFwP.s:371    .text.gptStartOneShot:00000000 $t
C:\Users\z80\AppData\Local\Temp\ccaGNFwP.s:377    .text.gptStartOneShot:00000000 gptStartOneShot
C:\Users\z80\AppData\Local\Temp\ccaGNFwP.s:436    .text.gptStartOneShotI:00000000 gptStartOneShotI
C:\Users\z80\AppData\Local\Temp\ccaGNFwP.s:424    .rodata:0000006c .LC6
C:\Users\z80\AppData\Local\Temp\ccaGNFwP.s:427    .rodata:00000084 .LC7
C:\Users\z80\AppData\Local\Temp\ccaGNFwP.s:430    .text.gptStartOneShotI:00000000 $t
C:\Users\z80\AppData\Local\Temp\ccaGNFwP.s:489    .text.gptStopTimer:00000000 $t
C:\Users\z80\AppData\Local\Temp\ccaGNFwP.s:495    .text.gptStopTimer:00000000 gptStopTimer
C:\Users\z80\AppData\Local\Temp\ccaGNFwP.s:550    .text.gptStopTimerI:00000000 gptStopTimerI
C:\Users\z80\AppData\Local\Temp\ccaGNFwP.s:538    .rodata:0000009c .LC8
C:\Users\z80\AppData\Local\Temp\ccaGNFwP.s:541    .rodata:000000b0 .LC9
C:\Users\z80\AppData\Local\Temp\ccaGNFwP.s:544    .text.gptStopTimerI:00000000 $t
C:\Users\z80\AppData\Local\Temp\ccaGNFwP.s:610    .rodata:000000c4 .LC10
C:\Users\z80\AppData\Local\Temp\ccaGNFwP.s:613    .text.gptPolledDelay:00000000 $t
C:\Users\z80\AppData\Local\Temp\ccaGNFwP.s:619    .text.gptPolledDelay:00000000 gptPolledDelay
                     .debug_frame:00000010 $d

UNDEFINED SYMBOLS
gpt_lld_init
chDbgPanic
dbg_check_lock
gpt_lld_start
dbg_check_unlock
gpt_lld_stop
chDbgCheckClassI
gpt_lld_start_timer
gpt_lld_stop_timer
gpt_lld_polled_delay
