ARM GAS  /tmp/cc9G7dbi.s 			page 1


   1              		.syntax unified
   2              		.cpu cortex-m3
   3              		.fpu softvfp
   4              		.eabi_attribute 20, 1
   5              		.eabi_attribute 21, 1
   6              		.eabi_attribute 23, 3
   7              		.eabi_attribute 24, 1
   8              		.eabi_attribute 25, 1
   9              		.eabi_attribute 26, 1
  10              		.eabi_attribute 30, 6
  11              		.eabi_attribute 18, 4
  12              		.thumb
  13              		.file	"gpt.c"
  20 0000 B5020000 		.text
  20      02006201 
  20      00000201 
  20      FB0E0D00 
  20      01010101 
  21              	.Ltext0:
  22              		.cfi_sections	.debug_frame
  23              		.section	.text.gptInit,"ax",%progbits
  24              		.align	2
  25              		.p2align 4,,15
  26              		.global	gptInit
  27              		.thumb
  28              		.thumb_func
  29              		.type	gptInit, %function
  30              	gptInit:
  31              	.LFB62:
  32              		.file 1 "../chibios_2.4.x/os/hal/src/gpt.c"
  33              		.loc 1 68 0
  34              		.cfi_startproc
  35              		@ args = 0, pretend = 0, frame = 0
  36              		@ frame_needed = 0, uses_anonymous_args = 0
  37 0000 08B5     		push	{r3, lr}
  38              	.LCFI0:
  39              		.cfi_def_cfa_offset 8
  40              		.loc 1 70 0
  41              		.cfi_offset 14, -4
  42              		.cfi_offset 3, -8
  43 0002 FFF7FEFF 		bl	gpt_lld_init
  44              		.loc 1 71 0
  45 0006 08BD     		pop	{r3, pc}
  46              		.cfi_endproc
  47              	.LFE62:
  48              		.size	gptInit, .-gptInit
  49 0008 AFF30080 		.section	.text.gptObjectInit,"ax",%progbits
  49      AFF30080 
  50              		.align	2
  51              		.p2align 4,,15
  52              		.global	gptObjectInit
ARM GAS  /tmp/cc9G7dbi.s 			page 2


  53              		.thumb
  54              		.thumb_func
  55              		.type	gptObjectInit, %function
  56              	gptObjectInit:
  57              	.LFB63:
  58              		.loc 1 80 0
  59              		.cfi_startproc
  60              		@ args = 0, pretend = 0, frame = 8
  61              		@ frame_needed = 0, uses_anonymous_args = 0
  62              		@ link register save eliminated.
  63 0000 82B0     		sub	sp, sp, #8
  64              	.LCFI1:
  65              		.cfi_def_cfa_offset 8
  66 0002 0190     		str	r0, [sp, #4]
  67              		.loc 1 82 0
  68 0004 019B     		ldr	r3, [sp, #4]
  69 0006 4FF00102 		mov	r2, #1
  70 000a 1A70     		strb	r2, [r3, #0]
  71              		.loc 1 83 0
  72 000c 019B     		ldr	r3, [sp, #4]
  73 000e 4FF00002 		mov	r2, #0
  74 0012 5A60     		str	r2, [r3, #4]
  75              		.loc 1 84 0
  76 0014 02B0     		add	sp, sp, #8
  77 0016 7047     		bx	lr
  78              		.cfi_endproc
  79              	.LFE63:
  80              		.size	gptObjectInit, .-gptObjectInit
  81 0018 AFF30080 		.section	.rodata
  81      AFF30080 
  82              		.align	2
  83              	.LC0:
  84 0000 22707453 		.ascii	"\"ptStart\"()\000"
  84      74617274 
  84      22282900 
  85              		.align	2
  86              	.LC1:
  87 000c 67707453 		.ascii	"gptStart(), #1\000"
  87      74617274 
  87      28292C20 
  87      233100
  88              		.section	.text.gptStart,"ax",%progbits
  89              		.align	2
  90              		.p2align 4,,15
  91              		.global	gptStart
  92              		.thumb
  93              		.thumb_func
  94              		.type	gptStart, %function
  95              	gptStart:
  96              	.LFB64:
  97              		.loc 1 94 0
  98              		.cfi_startproc
  99              		@ args = 0, pretend = 0, frame = 8
 100              		@ frame_needed = 0, uses_anonymous_args = 0
 101 0000 00B5     		push	{lr}
 102              	.LCFI2:
 103              		.cfi_def_cfa_offset 4
ARM GAS  /tmp/cc9G7dbi.s 			page 3


 104 0002 83B0     		sub	sp, sp, #12
 105              	.LCFI3:
 106              		.cfi_def_cfa_offset 16
 107 0004 0190     		str	r0, [sp, #4]
 108 0006 0091     		str	r1, [sp, #0]
 109              		.loc 1 96 0
 110 0008 019B     		ldr	r3, [sp, #4]
 111 000a 002B     		cmp	r3, #0
 112 000c 02D0     		beq	.L4
 113              		.cfi_offset 14, -4
 114              		.loc 1 96 0 is_stmt 0 discriminator 2
 115 000e 009B     		ldr	r3, [sp, #0]
 116 0010 002B     		cmp	r3, #0
 117 0012 02D1     		bne	.L5
 118              	.L4:
 119              		.loc 1 96 0 discriminator 1
 120 0014 1248     		ldr	r0, .L7
 121 0016 FFF7FEFF 		bl	chDbgPanic
 122              	.L5:
 123              	.LBB2:
 124              		.loc 1 98 0 is_stmt 1
 125 001a 4FF02003 		mov	r3, #32
 126              	@ 98 "../chibios_2.4.x/os/hal/src/gpt.c" 1
 127 001e 83F31188 		msr     BASEPRI, r3
 128              	@ 0 "" 2
 129              		.thumb
 130              	.LBE2:
 131 0022 FFF7FEFF 		bl	dbg_check_lock
 132              		.loc 1 99 0
 133 0026 019B     		ldr	r3, [sp, #4]
 134 0028 1B78     		ldrb	r3, [r3, #0]	@ zero_extendqisi2
 135 002a 012B     		cmp	r3, #1
 136 002c 06D0     		beq	.L6
 137              		.loc 1 99 0 is_stmt 0 discriminator 1
 138 002e 019B     		ldr	r3, [sp, #4]
 139 0030 1B78     		ldrb	r3, [r3, #0]	@ zero_extendqisi2
 140 0032 022B     		cmp	r3, #2
 141 0034 02D0     		beq	.L6
 142              		.loc 1 99 0 discriminator 2
 143 0036 0B48     		ldr	r0, .L7+4
 144 0038 FFF7FEFF 		bl	chDbgPanic
 145              	.L6:
 146              		.loc 1 101 0 is_stmt 1
 147 003c 019B     		ldr	r3, [sp, #4]
 148 003e 009A     		ldr	r2, [sp, #0]
 149 0040 5A60     		str	r2, [r3, #4]
 150              		.loc 1 102 0
 151 0042 0198     		ldr	r0, [sp, #4]
 152 0044 FFF7FEFF 		bl	gpt_lld_start
 153              		.loc 1 103 0
 154 0048 019B     		ldr	r3, [sp, #4]
 155 004a 4FF00202 		mov	r2, #2
 156 004e 1A70     		strb	r2, [r3, #0]
 157              		.loc 1 104 0
 158 0050 FFF7FEFF 		bl	dbg_check_unlock
 159              	.LBB3:
 160 0054 4FF00003 		mov	r3, #0
ARM GAS  /tmp/cc9G7dbi.s 			page 4


 161              	@ 104 "../chibios_2.4.x/os/hal/src/gpt.c" 1
 162 0058 83F31188 		msr     BASEPRI, r3
 163              	@ 0 "" 2
 164              		.thumb
 165              	.LBE3:
 166              		.loc 1 105 0
 167 005c 03B0     		add	sp, sp, #12
 168 005e 00BD     		pop	{pc}
 169              	.L8:
 170              		.align	2
 171              	.L7:
 172 0060 00000000 		.word	.LC0
 173 0064 0C000000 		.word	.LC1
 174              		.cfi_endproc
 175              	.LFE64:
 176              		.size	gptStart, .-gptStart
 177 0068 AFF30080 		.section	.rodata
 177      AFF30080 
 178 001b 00       		.align	2
 179              	.LC2:
 180 001c 22677074 		.ascii	"\"gptStop\"()\000"
 180      53746F70 
 180      22282900 
 181              		.align	2
 182              	.LC3:
 183 0028 67707453 		.ascii	"gptStop(), #1\000"
 183      746F7028 
 183      292C2023 
 183      3100
 184              		.section	.text.gptStop,"ax",%progbits
 185              		.align	2
 186              		.p2align 4,,15
 187              		.global	gptStop
 188              		.thumb
 189              		.thumb_func
 190              		.type	gptStop, %function
 191              	gptStop:
 192              	.LFB65:
 193              		.loc 1 114 0
 194              		.cfi_startproc
 195              		@ args = 0, pretend = 0, frame = 8
 196              		@ frame_needed = 0, uses_anonymous_args = 0
 197 0000 00B5     		push	{lr}
 198              	.LCFI4:
 199              		.cfi_def_cfa_offset 4
 200 0002 83B0     		sub	sp, sp, #12
 201              	.LCFI5:
 202              		.cfi_def_cfa_offset 16
 203 0004 0190     		str	r0, [sp, #4]
 204              		.loc 1 116 0
 205 0006 019B     		ldr	r3, [sp, #4]
 206 0008 002B     		cmp	r3, #0
 207 000a 02D1     		bne	.L10
 208              		.cfi_offset 14, -4
 209              		.loc 1 116 0 is_stmt 0 discriminator 1
 210 000c 1148     		ldr	r0, .L12
 211 000e FFF7FEFF 		bl	chDbgPanic
ARM GAS  /tmp/cc9G7dbi.s 			page 5


 212              	.L10:
 213              	.LBB4:
 214              		.loc 1 118 0 is_stmt 1
 215 0012 4FF02003 		mov	r3, #32
 216              	@ 118 "../chibios_2.4.x/os/hal/src/gpt.c" 1
 217 0016 83F31188 		msr     BASEPRI, r3
 218              	@ 0 "" 2
 219              		.thumb
 220              	.LBE4:
 221 001a FFF7FEFF 		bl	dbg_check_lock
 222              		.loc 1 119 0
 223 001e 019B     		ldr	r3, [sp, #4]
 224 0020 1B78     		ldrb	r3, [r3, #0]	@ zero_extendqisi2
 225 0022 012B     		cmp	r3, #1
 226 0024 06D0     		beq	.L11
 227              		.loc 1 119 0 is_stmt 0 discriminator 1
 228 0026 019B     		ldr	r3, [sp, #4]
 229 0028 1B78     		ldrb	r3, [r3, #0]	@ zero_extendqisi2
 230 002a 022B     		cmp	r3, #2
 231 002c 02D0     		beq	.L11
 232              		.loc 1 119 0 discriminator 2
 233 002e 0A48     		ldr	r0, .L12+4
 234 0030 FFF7FEFF 		bl	chDbgPanic
 235              	.L11:
 236              		.loc 1 121 0 is_stmt 1
 237 0034 0198     		ldr	r0, [sp, #4]
 238 0036 FFF7FEFF 		bl	gpt_lld_stop
 239              		.loc 1 122 0
 240 003a 019B     		ldr	r3, [sp, #4]
 241 003c 4FF00102 		mov	r2, #1
 242 0040 1A70     		strb	r2, [r3, #0]
 243              		.loc 1 123 0
 244 0042 FFF7FEFF 		bl	dbg_check_unlock
 245              	.LBB5:
 246 0046 4FF00003 		mov	r3, #0
 247              	@ 123 "../chibios_2.4.x/os/hal/src/gpt.c" 1
 248 004a 83F31188 		msr     BASEPRI, r3
 249              	@ 0 "" 2
 250              		.thumb
 251              	.LBE5:
 252              		.loc 1 124 0
 253 004e 03B0     		add	sp, sp, #12
 254 0050 00BD     		pop	{pc}
 255              	.L13:
 256 0052 00BF     		.align	2
 257              	.L12:
 258 0054 1C000000 		.word	.LC2
 259 0058 28000000 		.word	.LC3
 260              		.cfi_endproc
 261              	.LFE65:
 262              		.size	gptStop, .-gptStop
 263 005c AFF30080 		.section	.text.gptStartContinuous,"ax",%progbits
 264              		.align	2
 265              		.p2align 4,,15
 266              		.global	gptStartContinuous
 267              		.thumb
 268              		.thumb_func
ARM GAS  /tmp/cc9G7dbi.s 			page 6


 269              		.type	gptStartContinuous, %function
 270              	gptStartContinuous:
 271              	.LFB66:
 272              		.loc 1 134 0
 273              		.cfi_startproc
 274              		@ args = 0, pretend = 0, frame = 8
 275              		@ frame_needed = 0, uses_anonymous_args = 0
 276 0000 00B5     		push	{lr}
 277              	.LCFI6:
 278              		.cfi_def_cfa_offset 4
 279 0002 83B0     		sub	sp, sp, #12
 280              	.LCFI7:
 281              		.cfi_def_cfa_offset 16
 282 0004 0190     		str	r0, [sp, #4]
 283 0006 0B46     		mov	r3, r1
 284 0008 ADF80230 		strh	r3, [sp, #2]	@ movhi
 285              	.LBB6:
 286              		.loc 1 136 0
 287 000c 4FF02003 		mov	r3, #32
 288              	@ 136 "../chibios_2.4.x/os/hal/src/gpt.c" 1
 289 0010 83F31188 		msr     BASEPRI, r3
 290              	@ 0 "" 2
 291              		.thumb
 292              	.LBE6:
 293              		.cfi_offset 14, -4
 294 0014 FFF7FEFF 		bl	dbg_check_lock
 295              		.loc 1 137 0
 296 0018 BDF80230 		ldrh	r3, [sp, #2]
 297 001c 0198     		ldr	r0, [sp, #4]
 298 001e 1946     		mov	r1, r3
 299 0020 FFF7FEFF 		bl	gptStartContinuousI
 300              		.loc 1 138 0
 301 0024 FFF7FEFF 		bl	dbg_check_unlock
 302              	.LBB7:
 303 0028 4FF00003 		mov	r3, #0
 304              	@ 138 "../chibios_2.4.x/os/hal/src/gpt.c" 1
 305 002c 83F31188 		msr     BASEPRI, r3
 306              	@ 0 "" 2
 307              		.thumb
 308              	.LBE7:
 309              		.loc 1 139 0
 310 0030 03B0     		add	sp, sp, #12
 311 0032 00BD     		pop	{pc}
 312              		.cfi_endproc
 313              	.LFE66:
 314              		.size	gptStartContinuous, .-gptStartContinuous
 315 0034 AFF30080 		.section	.rodata
 315      AFF30080 
 315      AFF30080 
 316 0036 0000     		.align	2
 317              	.LC4:
 318 0038 22677074 		.ascii	"\"gptStartContinuousI\"()\000"
 318      53746172 
 318      74436F6E 
 318      74696E75 
 318      6F757349 
 319              		.align	2
ARM GAS  /tmp/cc9G7dbi.s 			page 7


 320              	.LC5:
 321 0050 67707453 		.ascii	"gptStartContinuousI(), #1\000"
 321      74617274 
 321      436F6E74 
 321      696E756F 
 321      75734928 
 322              		.section	.text.gptStartContinuousI,"ax",%progbits
 323              		.align	2
 324              		.p2align 4,,15
 325              		.global	gptStartContinuousI
 326              		.thumb
 327              		.thumb_func
 328              		.type	gptStartContinuousI, %function
 329              	gptStartContinuousI:
 330              	.LFB67:
 331              		.loc 1 149 0
 332              		.cfi_startproc
 333              		@ args = 0, pretend = 0, frame = 8
 334              		@ frame_needed = 0, uses_anonymous_args = 0
 335 0000 00B5     		push	{lr}
 336              	.LCFI8:
 337              		.cfi_def_cfa_offset 4
 338 0002 83B0     		sub	sp, sp, #12
 339              	.LCFI9:
 340              		.cfi_def_cfa_offset 16
 341 0004 0190     		str	r0, [sp, #4]
 342 0006 0B46     		mov	r3, r1
 343 0008 ADF80230 		strh	r3, [sp, #2]	@ movhi
 344              		.loc 1 151 0
 345              		.cfi_offset 14, -4
 346 000c FFF7FEFF 		bl	chDbgCheckClassI
 347              		.loc 1 152 0
 348 0010 019B     		ldr	r3, [sp, #4]
 349 0012 002B     		cmp	r3, #0
 350 0014 02D1     		bne	.L16
 351              		.loc 1 152 0 is_stmt 0 discriminator 1
 352 0016 0B48     		ldr	r0, .L18
 353 0018 FFF7FEFF 		bl	chDbgPanic
 354              	.L16:
 355              		.loc 1 153 0 is_stmt 1
 356 001c 019B     		ldr	r3, [sp, #4]
 357 001e 1B78     		ldrb	r3, [r3, #0]	@ zero_extendqisi2
 358 0020 022B     		cmp	r3, #2
 359 0022 02D0     		beq	.L17
 360              		.loc 1 153 0 is_stmt 0 discriminator 1
 361 0024 0848     		ldr	r0, .L18+4
 362 0026 FFF7FEFF 		bl	chDbgPanic
 363              	.L17:
 364              		.loc 1 156 0 is_stmt 1
 365 002a 019B     		ldr	r3, [sp, #4]
 366 002c 4FF00302 		mov	r2, #3
 367 0030 1A70     		strb	r2, [r3, #0]
 368              		.loc 1 157 0
 369 0032 BDF80230 		ldrh	r3, [sp, #2]
 370 0036 0198     		ldr	r0, [sp, #4]
 371 0038 1946     		mov	r1, r3
 372 003a FFF7FEFF 		bl	gpt_lld_start_timer
ARM GAS  /tmp/cc9G7dbi.s 			page 8


 373              		.loc 1 158 0
 374 003e 03B0     		add	sp, sp, #12
 375 0040 00BD     		pop	{pc}
 376              	.L19:
 377 0042 00BF     		.align	2
 378              	.L18:
 379 0044 38000000 		.word	.LC4
 380 0048 50000000 		.word	.LC5
 381              		.cfi_endproc
 382              	.LFE67:
 383              		.size	gptStartContinuousI, .-gptStartContinuousI
 384 004c AFF30080 		.section	.text.gptStartOneShot,"ax",%progbits
 385              		.align	2
 386              		.p2align 4,,15
 387              		.global	gptStartOneShot
 388              		.thumb
 389              		.thumb_func
 390              		.type	gptStartOneShot, %function
 391              	gptStartOneShot:
 392              	.LFB68:
 393              		.loc 1 168 0
 394              		.cfi_startproc
 395              		@ args = 0, pretend = 0, frame = 8
 396              		@ frame_needed = 0, uses_anonymous_args = 0
 397 0000 00B5     		push	{lr}
 398              	.LCFI10:
 399              		.cfi_def_cfa_offset 4
 400 0002 83B0     		sub	sp, sp, #12
 401              	.LCFI11:
 402              		.cfi_def_cfa_offset 16
 403 0004 0190     		str	r0, [sp, #4]
 404 0006 0B46     		mov	r3, r1
 405 0008 ADF80230 		strh	r3, [sp, #2]	@ movhi
 406              	.LBB8:
 407              		.loc 1 170 0
 408 000c 4FF02003 		mov	r3, #32
 409              	@ 170 "../chibios_2.4.x/os/hal/src/gpt.c" 1
 410 0010 83F31188 		msr     BASEPRI, r3
 411              	@ 0 "" 2
 412              		.thumb
 413              	.LBE8:
 414              		.cfi_offset 14, -4
 415 0014 FFF7FEFF 		bl	dbg_check_lock
 416              		.loc 1 171 0
 417 0018 BDF80230 		ldrh	r3, [sp, #2]
 418 001c 0198     		ldr	r0, [sp, #4]
 419 001e 1946     		mov	r1, r3
 420 0020 FFF7FEFF 		bl	gptStartOneShotI
 421              		.loc 1 172 0
 422 0024 FFF7FEFF 		bl	dbg_check_unlock
 423              	.LBB9:
 424 0028 4FF00003 		mov	r3, #0
 425              	@ 172 "../chibios_2.4.x/os/hal/src/gpt.c" 1
 426 002c 83F31188 		msr     BASEPRI, r3
 427              	@ 0 "" 2
 428              		.thumb
 429              	.LBE9:
ARM GAS  /tmp/cc9G7dbi.s 			page 9


 430              		.loc 1 173 0
 431 0030 03B0     		add	sp, sp, #12
 432 0032 00BD     		pop	{pc}
 433              		.cfi_endproc
 434              	.LFE68:
 435              		.size	gptStartOneShot, .-gptStartOneShot
 436 0034 AFF30080 		.section	.rodata
 436      AFF30080 
 436      AFF30080 
 437 006a 0000     		.align	2
 438              	.LC6:
 439 006c 22677074 		.ascii	"\"gptStartOneShotI\"()\000"
 439      53746172 
 439      744F6E65 
 439      53686F74 
 439      49222829 
 440 0081 000000   		.align	2
 441              	.LC7:
 442 0084 67707453 		.ascii	"gptStartOneShotI(), #1\000"
 442      74617274 
 442      4F6E6553 
 442      686F7449 
 442      28292C20 
 443              		.section	.text.gptStartOneShotI,"ax",%progbits
 444              		.align	2
 445              		.p2align 4,,15
 446              		.global	gptStartOneShotI
 447              		.thumb
 448              		.thumb_func
 449              		.type	gptStartOneShotI, %function
 450              	gptStartOneShotI:
 451              	.LFB69:
 452              		.loc 1 183 0
 453              		.cfi_startproc
 454              		@ args = 0, pretend = 0, frame = 8
 455              		@ frame_needed = 0, uses_anonymous_args = 0
 456 0000 00B5     		push	{lr}
 457              	.LCFI12:
 458              		.cfi_def_cfa_offset 4
 459 0002 83B0     		sub	sp, sp, #12
 460              	.LCFI13:
 461              		.cfi_def_cfa_offset 16
 462 0004 0190     		str	r0, [sp, #4]
 463 0006 0B46     		mov	r3, r1
 464 0008 ADF80230 		strh	r3, [sp, #2]	@ movhi
 465              		.loc 1 185 0
 466              		.cfi_offset 14, -4
 467 000c FFF7FEFF 		bl	chDbgCheckClassI
 468              		.loc 1 186 0
 469 0010 019B     		ldr	r3, [sp, #4]
 470 0012 002B     		cmp	r3, #0
 471 0014 02D1     		bne	.L22
 472              		.loc 1 186 0 is_stmt 0 discriminator 1
 473 0016 0B48     		ldr	r0, .L24
 474 0018 FFF7FEFF 		bl	chDbgPanic
 475              	.L22:
 476              		.loc 1 187 0 is_stmt 1
ARM GAS  /tmp/cc9G7dbi.s 			page 10


 477 001c 019B     		ldr	r3, [sp, #4]
 478 001e 1B78     		ldrb	r3, [r3, #0]	@ zero_extendqisi2
 479 0020 022B     		cmp	r3, #2
 480 0022 02D0     		beq	.L23
 481              		.loc 1 187 0 is_stmt 0 discriminator 1
 482 0024 0848     		ldr	r0, .L24+4
 483 0026 FFF7FEFF 		bl	chDbgPanic
 484              	.L23:
 485              		.loc 1 190 0 is_stmt 1
 486 002a 019B     		ldr	r3, [sp, #4]
 487 002c 4FF00402 		mov	r2, #4
 488 0030 1A70     		strb	r2, [r3, #0]
 489              		.loc 1 191 0
 490 0032 BDF80230 		ldrh	r3, [sp, #2]
 491 0036 0198     		ldr	r0, [sp, #4]
 492 0038 1946     		mov	r1, r3
 493 003a FFF7FEFF 		bl	gpt_lld_start_timer
 494              		.loc 1 192 0
 495 003e 03B0     		add	sp, sp, #12
 496 0040 00BD     		pop	{pc}
 497              	.L25:
 498 0042 00BF     		.align	2
 499              	.L24:
 500 0044 6C000000 		.word	.LC6
 501 0048 84000000 		.word	.LC7
 502              		.cfi_endproc
 503              	.LFE69:
 504              		.size	gptStartOneShotI, .-gptStartOneShotI
 505 004c AFF30080 		.section	.text.gptStopTimer,"ax",%progbits
 506              		.align	2
 507              		.p2align 4,,15
 508              		.global	gptStopTimer
 509              		.thumb
 510              		.thumb_func
 511              		.type	gptStopTimer, %function
 512              	gptStopTimer:
 513              	.LFB70:
 514              		.loc 1 201 0
 515              		.cfi_startproc
 516              		@ args = 0, pretend = 0, frame = 8
 517              		@ frame_needed = 0, uses_anonymous_args = 0
 518 0000 00B5     		push	{lr}
 519              	.LCFI14:
 520              		.cfi_def_cfa_offset 4
 521 0002 83B0     		sub	sp, sp, #12
 522              	.LCFI15:
 523              		.cfi_def_cfa_offset 16
 524 0004 0190     		str	r0, [sp, #4]
 525              	.LBB10:
 526              		.loc 1 203 0
 527 0006 4FF02003 		mov	r3, #32
 528              	@ 203 "../chibios_2.4.x/os/hal/src/gpt.c" 1
 529 000a 83F31188 		msr     BASEPRI, r3
 530              	@ 0 "" 2
 531              		.thumb
 532              	.LBE10:
 533              		.cfi_offset 14, -4
ARM GAS  /tmp/cc9G7dbi.s 			page 11


 534 000e FFF7FEFF 		bl	dbg_check_lock
 535              		.loc 1 204 0
 536 0012 0198     		ldr	r0, [sp, #4]
 537 0014 FFF7FEFF 		bl	gptStopTimerI
 538              		.loc 1 205 0
 539 0018 FFF7FEFF 		bl	dbg_check_unlock
 540              	.LBB11:
 541 001c 4FF00003 		mov	r3, #0
 542              	@ 205 "../chibios_2.4.x/os/hal/src/gpt.c" 1
 543 0020 83F31188 		msr     BASEPRI, r3
 544              	@ 0 "" 2
 545              		.thumb
 546              	.LBE11:
 547              		.loc 1 206 0
 548 0024 03B0     		add	sp, sp, #12
 549 0026 00BD     		pop	{pc}
 550              		.cfi_endproc
 551              	.LFE70:
 552              		.size	gptStopTimer, .-gptStopTimer
 553 0028 AFF30080 		.section	.rodata
 553      AFF30080 
 554 009b 00       		.align	2
 555              	.LC8:
 556 009c 22677074 		.ascii	"\"gptStopTimerI\"()\000"
 556      53746F70 
 556      54696D65 
 556      72492228 
 556      2900
 557 00ae 0000     		.align	2
 558              	.LC9:
 559 00b0 67707453 		.ascii	"gptStopTimerI(), #1\000"
 559      746F7054 
 559      696D6572 
 559      4928292C 
 559      20233100 
 560              		.section	.text.gptStopTimerI,"ax",%progbits
 561              		.align	2
 562              		.p2align 4,,15
 563              		.global	gptStopTimerI
 564              		.thumb
 565              		.thumb_func
 566              		.type	gptStopTimerI, %function
 567              	gptStopTimerI:
 568              	.LFB71:
 569              		.loc 1 215 0
 570              		.cfi_startproc
 571              		@ args = 0, pretend = 0, frame = 8
 572              		@ frame_needed = 0, uses_anonymous_args = 0
 573 0000 00B5     		push	{lr}
 574              	.LCFI16:
 575              		.cfi_def_cfa_offset 4
 576 0002 83B0     		sub	sp, sp, #12
 577              	.LCFI17:
 578              		.cfi_def_cfa_offset 16
 579 0004 0190     		str	r0, [sp, #4]
 580              		.loc 1 217 0
 581              		.cfi_offset 14, -4
ARM GAS  /tmp/cc9G7dbi.s 			page 12


 582 0006 FFF7FEFF 		bl	chDbgCheckClassI
 583              		.loc 1 218 0
 584 000a 019B     		ldr	r3, [sp, #4]
 585 000c 002B     		cmp	r3, #0
 586 000e 02D1     		bne	.L28
 587              		.loc 1 218 0 is_stmt 0 discriminator 1
 588 0010 0D48     		ldr	r0, .L30
 589 0012 FFF7FEFF 		bl	chDbgPanic
 590              	.L28:
 591              		.loc 1 219 0 is_stmt 1
 592 0016 019B     		ldr	r3, [sp, #4]
 593 0018 1B78     		ldrb	r3, [r3, #0]	@ zero_extendqisi2
 594 001a 022B     		cmp	r3, #2
 595 001c 0AD0     		beq	.L29
 596              		.loc 1 219 0 is_stmt 0 discriminator 1
 597 001e 019B     		ldr	r3, [sp, #4]
 598 0020 1B78     		ldrb	r3, [r3, #0]	@ zero_extendqisi2
 599 0022 032B     		cmp	r3, #3
 600 0024 06D0     		beq	.L29
 601              		.loc 1 219 0 discriminator 2
 602 0026 019B     		ldr	r3, [sp, #4]
 603 0028 1B78     		ldrb	r3, [r3, #0]	@ zero_extendqisi2
 604 002a 042B     		cmp	r3, #4
 605 002c 02D0     		beq	.L29
 606              		.loc 1 219 0 discriminator 3
 607 002e 0748     		ldr	r0, .L30+4
 608 0030 FFF7FEFF 		bl	chDbgPanic
 609              	.L29:
 610              		.loc 1 223 0 is_stmt 1
 611 0034 019B     		ldr	r3, [sp, #4]
 612 0036 4FF00202 		mov	r2, #2
 613 003a 1A70     		strb	r2, [r3, #0]
 614              		.loc 1 224 0
 615 003c 0198     		ldr	r0, [sp, #4]
 616 003e FFF7FEFF 		bl	gpt_lld_stop_timer
 617              		.loc 1 225 0
 618 0042 03B0     		add	sp, sp, #12
 619 0044 00BD     		pop	{pc}
 620              	.L31:
 621 0046 00BF     		.align	2
 622              	.L30:
 623 0048 9C000000 		.word	.LC8
 624 004c B0000000 		.word	.LC9
 625              		.cfi_endproc
 626              	.LFE71:
 627              		.size	gptStopTimerI, .-gptStopTimerI
 628              		.section	.rodata
 629              		.align	2
 630              	.LC10:
 631 00c4 67707450 		.ascii	"gptPolledDelay(), #1\000"
 631      6F6C6C65 
 631      6444656C 
 631      61792829 
 631      2C202331 
 632 00d9 000000   		.section	.text.gptPolledDelay,"ax",%progbits
 633              		.align	2
 634              		.p2align 4,,15
ARM GAS  /tmp/cc9G7dbi.s 			page 13


 635              		.global	gptPolledDelay
 636              		.thumb
 637              		.thumb_func
 638              		.type	gptPolledDelay, %function
 639              	gptPolledDelay:
 640              	.LFB72:
 641              		.loc 1 239 0
 642              		.cfi_startproc
 643              		@ args = 0, pretend = 0, frame = 8
 644              		@ frame_needed = 0, uses_anonymous_args = 0
 645 0000 00B5     		push	{lr}
 646              	.LCFI18:
 647              		.cfi_def_cfa_offset 4
 648 0002 83B0     		sub	sp, sp, #12
 649              	.LCFI19:
 650              		.cfi_def_cfa_offset 16
 651 0004 0190     		str	r0, [sp, #4]
 652 0006 0B46     		mov	r3, r1
 653 0008 ADF80230 		strh	r3, [sp, #2]	@ movhi
 654              		.loc 1 241 0
 655 000c 019B     		ldr	r3, [sp, #4]
 656 000e 1B78     		ldrb	r3, [r3, #0]	@ zero_extendqisi2
 657 0010 022B     		cmp	r3, #2
 658 0012 02D0     		beq	.L33
 659              		.cfi_offset 14, -4
 660              		.loc 1 241 0 is_stmt 0 discriminator 1
 661 0014 0948     		ldr	r0, .L34
 662 0016 FFF7FEFF 		bl	chDbgPanic
 663              	.L33:
 664              		.loc 1 244 0 is_stmt 1
 665 001a 019B     		ldr	r3, [sp, #4]
 666 001c 4FF00402 		mov	r2, #4
 667 0020 1A70     		strb	r2, [r3, #0]
 668              		.loc 1 245 0
 669 0022 BDF80230 		ldrh	r3, [sp, #2]
 670 0026 0198     		ldr	r0, [sp, #4]
 671 0028 1946     		mov	r1, r3
 672 002a FFF7FEFF 		bl	gpt_lld_polled_delay
 673              		.loc 1 246 0
 674 002e 019B     		ldr	r3, [sp, #4]
 675 0030 4FF00202 		mov	r2, #2
 676 0034 1A70     		strb	r2, [r3, #0]
 677              		.loc 1 247 0
 678 0036 03B0     		add	sp, sp, #12
 679 0038 00BD     		pop	{pc}
 680              	.L35:
 681 003a 00BF     		.align	2
 682              	.L34:
 683 003c C4000000 		.word	.LC10
 684              		.cfi_endproc
 685              	.LFE72:
 686              		.size	gptPolledDelay, .-gptPolledDelay
 687              		.text
 688              	.Letext0: