ARM GAS  /tmp/ccHxW8IE.s 			page 1


   1              		.syntax unified
   2              		.cpu cortex-m3
   3              		.fpu softvfp
   4              		.eabi_attribute 20, 1
   5              		.eabi_attribute 21, 1
   6              		.eabi_attribute 23, 3
   7              		.eabi_attribute 24, 1
   8              		.eabi_attribute 25, 1
   9              		.eabi_attribute 26, 1
  10              		.eabi_attribute 30, 6
  11              		.eabi_attribute 18, 4
  12              		.thumb
  13              		.file	"gpt_lld.c"
  20 0000 52020000 		.text
  20      02008501 
  20      00000201 
  20      FB0E0D00 
  20      01010101 
  21              	.Ltext0:
  22              		.cfi_sections	.debug_frame
  23              		.global	GPTD1
  24              		.section	.bss.GPTD1,"aw",%nobits
  25              		.align	2
  26              		.type	GPTD1, %object
  27              		.size	GPTD1, 16
  28              	GPTD1:
  29 0000 00000000 		.space	16
  29      00000000 
  29      00000000 
  29      00000000 
  30              		.section	.text.gpt_lld_serve_interrupt,"ax",%progbits
  31              		.align	2
  32              		.p2align 4,,15
  33              		.thumb
  34              		.thumb_func
  35              		.type	gpt_lld_serve_interrupt, %function
  36              	gpt_lld_serve_interrupt:
  37              	.LFB62:
  38              		.file 1 "../chibios_2.4.x/os/hal/platforms/STM32/gpt_lld.c"
  39              		.loc 1 106 0
  40              		.cfi_startproc
  41              		@ args = 0, pretend = 0, frame = 8
  42              		@ frame_needed = 0, uses_anonymous_args = 0
  43 0000 00B5     		push	{lr}
  44              	.LCFI0:
  45              		.cfi_def_cfa_offset 4
  46 0002 83B0     		sub	sp, sp, #12
  47              	.LCFI1:
  48              		.cfi_def_cfa_offset 16
  49 0004 0190     		str	r0, [sp, #4]
  50              		.loc 1 108 0
ARM GAS  /tmp/ccHxW8IE.s 			page 2


  51 0006 019B     		ldr	r3, [sp, #4]
  52 0008 DB68     		ldr	r3, [r3, #12]
  53 000a 4FF00002 		mov	r2, #0
  54 000e 1A82     		strh	r2, [r3, #16]	@ movhi
  55              		.loc 1 109 0
  56 0010 019B     		ldr	r3, [sp, #4]
  57 0012 1B78     		ldrb	r3, [r3, #0]	@ zero_extendqisi2
  58 0014 042B     		cmp	r3, #4
  59 0016 06D1     		bne	.L2
  60              		.cfi_offset 14, -4
  61              		.loc 1 110 0
  62 0018 019B     		ldr	r3, [sp, #4]
  63 001a 4FF00202 		mov	r2, #2
  64 001e 1A70     		strb	r2, [r3, #0]
  65              		.loc 1 111 0
  66 0020 0198     		ldr	r0, [sp, #4]
  67 0022 FFF7FEFF 		bl	gpt_lld_stop_timer
  68              	.L2:
  69              		.loc 1 113 0
  70 0026 019B     		ldr	r3, [sp, #4]
  71 0028 5B68     		ldr	r3, [r3, #4]
  72 002a 5B68     		ldr	r3, [r3, #4]
  73 002c 0198     		ldr	r0, [sp, #4]
  74 002e 9847     		blx	r3
  75              		.loc 1 114 0
  76 0030 03B0     		add	sp, sp, #12
  77 0032 00BD     		pop	{pc}
  78              		.cfi_endproc
  79              	.LFE62:
  80              		.size	gpt_lld_serve_interrupt, .-gpt_lld_serve_interrupt
  81 0034 AFF30080 		.section	.text.VectorA4,"ax",%progbits
  81      AFF30080 
  81      AFF30080 
  82              		.align	2
  83              		.p2align 4,,15
  84              		.global	VectorA4
  85              		.thumb
  86              		.thumb_func
  87              		.type	VectorA4, %function
  88              	VectorA4:
  89              	.LFB63:
  90              		.loc 1 126 0
  91              		.cfi_startproc
  92              		@ args = 0, pretend = 0, frame = 0
  93              		@ frame_needed = 0, uses_anonymous_args = 0
  94 0000 08B5     		push	{r3, lr}
  95              	.LCFI2:
  96              		.cfi_def_cfa_offset 8
  97              		.loc 1 128 0
  98              		.cfi_offset 14, -4
  99              		.cfi_offset 3, -8
 100 0002 FFF7FEFF 		bl	dbg_check_enter_isr
 101              		.loc 1 130 0
 102 0006 0448     		ldr	r0, .L4
 103 0008 FFF7FEFF 		bl	gpt_lld_serve_interrupt
 104              		.loc 1 132 0
 105 000c FFF7FEFF 		bl	dbg_check_leave_isr
ARM GAS  /tmp/ccHxW8IE.s 			page 3


 106 0010 FFF7FEFF 		bl	_port_irq_epilogue
 107              		.loc 1 133 0
 108 0014 08BD     		pop	{r3, pc}
 109              	.L5:
 110 0016 00BF     		.align	2
 111              	.L4:
 112 0018 00000000 		.word	GPTD1
 113              		.cfi_endproc
 114              	.LFE63:
 115              		.size	VectorA4, .-VectorA4
 116 001c AFF30080 		.section	.text.gpt_lld_init,"ax",%progbits
 117              		.align	2
 118              		.p2align 4,,15
 119              		.global	gpt_lld_init
 120              		.thumb
 121              		.thumb_func
 122              		.type	gpt_lld_init, %function
 123              	gpt_lld_init:
 124              	.LFB64:
 125              		.loc 1 225 0
 126              		.cfi_startproc
 127              		@ args = 0, pretend = 0, frame = 0
 128              		@ frame_needed = 0, uses_anonymous_args = 0
 129 0000 08B5     		push	{r3, lr}
 130              	.LCFI3:
 131              		.cfi_def_cfa_offset 8
 132              		.loc 1 229 0
 133 0002 034B     		ldr	r3, .L7
 134              		.cfi_offset 14, -4
 135              		.cfi_offset 3, -8
 136 0004 034A     		ldr	r2, .L7+4
 137 0006 DA60     		str	r2, [r3, #12]
 138              		.loc 1 230 0
 139 0008 0148     		ldr	r0, .L7
 140 000a FFF7FEFF 		bl	gptObjectInit
 141              		.loc 1 262 0
 142 000e 08BD     		pop	{r3, pc}
 143              	.L8:
 144              		.align	2
 145              	.L7:
 146 0010 00000000 		.word	GPTD1
 147 0014 002C0140 		.word	1073818624
 148              		.cfi_endproc
 149              	.LFE64:
 150              		.size	gpt_lld_init, .-gpt_lld_init
 151 0018 AFF30080 		.section	.rodata
 151      AFF30080 
 152              		.align	2
 153              	.LC0:
 154 0000 6770745F 		.ascii	"gpt_lld_start(), #1\000"
 154      6C6C645F 
 154      73746172 
 154      7428292C 
 154      20233100 
 155              		.section	.text.gpt_lld_start,"ax",%progbits
 156              		.align	2
 157              		.p2align 4,,15
ARM GAS  /tmp/ccHxW8IE.s 			page 4


 158              		.global	gpt_lld_start
 159              		.thumb
 160              		.thumb_func
 161              		.type	gpt_lld_start, %function
 162              	gpt_lld_start:
 163              	.LFB65:
 164              		.loc 1 271 0
 165              		.cfi_startproc
 166              		@ args = 0, pretend = 0, frame = 16
 167              		@ frame_needed = 0, uses_anonymous_args = 0
 168 0000 00B5     		push	{lr}
 169              	.LCFI4:
 170              		.cfi_def_cfa_offset 4
 171 0002 85B0     		sub	sp, sp, #20
 172              	.LCFI5:
 173              		.cfi_def_cfa_offset 24
 174 0004 0190     		str	r0, [sp, #4]
 175              		.loc 1 274 0
 176 0006 019B     		ldr	r3, [sp, #4]
 177 0008 1B78     		ldrb	r3, [r3, #0]	@ zero_extendqisi2
 178 000a 012B     		cmp	r3, #1
 179 000c 1CD1     		bne	.L10
 180              		.cfi_offset 14, -4
 181              		.loc 1 277 0
 182 000e 019A     		ldr	r2, [sp, #4]
 183 0010 264B     		ldr	r3, .L12
 184 0012 9A42     		cmp	r2, r3
 185 0014 18D1     		bne	.L10
 186              		.loc 1 278 0
 187 0016 264B     		ldr	r3, .L12+4
 188 0018 254A     		ldr	r2, .L12+4
 189 001a 9269     		ldr	r2, [r2, #24]
 190 001c 42F40062 		orr	r2, r2, #2048
 191 0020 9A61     		str	r2, [r3, #24]
 192              		.loc 1 279 0
 193 0022 234B     		ldr	r3, .L12+4
 194 0024 224A     		ldr	r2, .L12+4
 195 0026 D268     		ldr	r2, [r2, #12]
 196 0028 42F40062 		orr	r2, r2, #2048
 197 002c DA60     		str	r2, [r3, #12]
 198 002e 204B     		ldr	r3, .L12+4
 199 0030 4FF00002 		mov	r2, #0
 200 0034 DA60     		str	r2, [r3, #12]
 201              		.loc 1 280 0
 202 0036 4FF01900 		mov	r0, #25
 203 003a 4FF07001 		mov	r1, #112
 204 003e FFF7FEFF 		bl	nvicEnableVector
 205              		.loc 1 282 0
 206 0042 019B     		ldr	r3, [sp, #4]
 207 0044 1B4A     		ldr	r2, .L12+8
 208 0046 9A60     		str	r2, [r3, #8]
 209              	.L10:
 210              		.loc 1 335 0
 211 0048 019B     		ldr	r3, [sp, #4]
 212 004a 9A68     		ldr	r2, [r3, #8]
 213 004c 019B     		ldr	r3, [sp, #4]
 214 004e 5B68     		ldr	r3, [r3, #4]
ARM GAS  /tmp/ccHxW8IE.s 			page 5


 215 0050 1B68     		ldr	r3, [r3, #0]
 216 0052 B2FBF3F3 		udiv	r3, r2, r3
 217 0056 9BB2     		uxth	r3, r3
 218 0058 03F1FF33 		add	r3, r3, #-1
 219 005c ADF80E30 		strh	r3, [sp, #14]	@ movhi
 220              		.loc 1 336 0
 221 0060 BDF80E30 		ldrh	r3, [sp, #14]
 222 0064 03F10103 		add	r3, r3, #1
 223 0068 019A     		ldr	r2, [sp, #4]
 224 006a 5268     		ldr	r2, [r2, #4]
 225 006c 1268     		ldr	r2, [r2, #0]
 226 006e 02FB03F2 		mul	r2, r2, r3
 227 0072 019B     		ldr	r3, [sp, #4]
 228 0074 9B68     		ldr	r3, [r3, #8]
 229 0076 9A42     		cmp	r2, r3
 230 0078 02D0     		beq	.L11
 231              		.loc 1 336 0 is_stmt 0 discriminator 1
 232 007a 0F48     		ldr	r0, .L12+12
 233 007c FFF7FEFF 		bl	chDbgPanic
 234              	.L11:
 235              		.loc 1 340 0 is_stmt 1
 236 0080 019B     		ldr	r3, [sp, #4]
 237 0082 DB68     		ldr	r3, [r3, #12]
 238 0084 4FF00002 		mov	r2, #0
 239 0088 1A80     		strh	r2, [r3, #0]	@ movhi
 240              		.loc 1 341 0
 241 008a 019B     		ldr	r3, [sp, #4]
 242 008c DB68     		ldr	r3, [r3, #12]
 243 008e 4FF00802 		mov	r2, #8
 244 0092 9A80     		strh	r2, [r3, #4]	@ movhi
 245              		.loc 1 342 0
 246 0094 019B     		ldr	r3, [sp, #4]
 247 0096 DB68     		ldr	r3, [r3, #12]
 248 0098 BDF80E20 		ldrh	r2, [sp, #14]	@ movhi
 249 009c 1A85     		strh	r2, [r3, #40]	@ movhi
 250              		.loc 1 343 0
 251 009e 019B     		ldr	r3, [sp, #4]
 252 00a0 DB68     		ldr	r3, [r3, #12]
 253 00a2 4FF00002 		mov	r2, #0
 254 00a6 9A81     		strh	r2, [r3, #12]	@ movhi
 255              		.loc 1 344 0
 256 00a8 05B0     		add	sp, sp, #20
 257 00aa 00BD     		pop	{pc}
 258              	.L13:
 259              		.align	2
 260              	.L12:
 261 00ac 00000000 		.word	GPTD1
 262 00b0 00100240 		.word	1073876992
 263 00b4 00A24A04 		.word	72000000
 264 00b8 00000000 		.word	.LC0
 265              		.cfi_endproc
 266              	.LFE65:
 267              		.size	gpt_lld_start, .-gpt_lld_start
 268 00bc AFF30080 		.section	.text.gpt_lld_stop,"ax",%progbits
 269              		.align	2
 270              		.p2align 4,,15
 271              		.global	gpt_lld_stop
ARM GAS  /tmp/ccHxW8IE.s 			page 6


 272              		.thumb
 273              		.thumb_func
 274              		.type	gpt_lld_stop, %function
 275              	gpt_lld_stop:
 276              	.LFB66:
 277              		.loc 1 353 0
 278              		.cfi_startproc
 279              		@ args = 0, pretend = 0, frame = 8
 280              		@ frame_needed = 0, uses_anonymous_args = 0
 281 0000 00B5     		push	{lr}
 282              	.LCFI6:
 283              		.cfi_def_cfa_offset 4
 284 0002 83B0     		sub	sp, sp, #12
 285              	.LCFI7:
 286              		.cfi_def_cfa_offset 16
 287 0004 0190     		str	r0, [sp, #4]
 288              		.loc 1 355 0
 289 0006 019B     		ldr	r3, [sp, #4]
 290 0008 1B78     		ldrb	r3, [r3, #0]	@ zero_extendqisi2
 291 000a 022B     		cmp	r3, #2
 292 000c 1CD1     		bne	.L14
 293              		.cfi_offset 14, -4
 294              		.loc 1 356 0
 295 000e 019B     		ldr	r3, [sp, #4]
 296 0010 DB68     		ldr	r3, [r3, #12]
 297 0012 4FF00002 		mov	r2, #0
 298 0016 1A80     		strh	r2, [r3, #0]	@ movhi
 299              		.loc 1 357 0
 300 0018 019B     		ldr	r3, [sp, #4]
 301 001a DB68     		ldr	r3, [r3, #12]
 302 001c 4FF00002 		mov	r2, #0
 303 0020 9A81     		strh	r2, [r3, #12]	@ movhi
 304              		.loc 1 358 0
 305 0022 019B     		ldr	r3, [sp, #4]
 306 0024 DB68     		ldr	r3, [r3, #12]
 307 0026 4FF00002 		mov	r2, #0
 308 002a 1A82     		strh	r2, [r3, #16]	@ movhi
 309              		.loc 1 361 0
 310 002c 019A     		ldr	r2, [sp, #4]
 311 002e 074B     		ldr	r3, .L16
 312 0030 9A42     		cmp	r2, r3
 313 0032 09D1     		bne	.L14
 314              		.loc 1 362 0
 315 0034 4FF01900 		mov	r0, #25
 316 0038 FFF7FEFF 		bl	nvicDisableVector
 317              		.loc 1 363 0
 318 003c 044B     		ldr	r3, .L16+4
 319 003e 044A     		ldr	r2, .L16+4
 320 0040 9269     		ldr	r2, [r2, #24]
 321 0042 22F40062 		bic	r2, r2, #2048
 322 0046 9A61     		str	r2, [r3, #24]
 323              	.L14:
 324              		.loc 1 397 0
 325 0048 03B0     		add	sp, sp, #12
 326 004a 00BD     		pop	{pc}
 327              	.L17:
 328              		.align	2
ARM GAS  /tmp/ccHxW8IE.s 			page 7


 329              	.L16:
 330 004c 00000000 		.word	GPTD1
 331 0050 00100240 		.word	1073876992
 332              		.cfi_endproc
 333              	.LFE66:
 334              		.size	gpt_lld_stop, .-gpt_lld_stop
 335 0054 AFF30080 		.section	.text.gpt_lld_start_timer,"ax",%progbits
 335      AFF30080 
 335      AFF30080 
 336              		.align	2
 337              		.p2align 4,,15
 338              		.global	gpt_lld_start_timer
 339              		.thumb
 340              		.thumb_func
 341              		.type	gpt_lld_start_timer, %function
 342              	gpt_lld_start_timer:
 343              	.LFB67:
 344              		.loc 1 407 0
 345              		.cfi_startproc
 346              		@ args = 0, pretend = 0, frame = 8
 347              		@ frame_needed = 0, uses_anonymous_args = 0
 348              		@ link register save eliminated.
 349 0000 82B0     		sub	sp, sp, #8
 350              	.LCFI8:
 351              		.cfi_def_cfa_offset 8
 352 0002 0190     		str	r0, [sp, #4]
 353 0004 0B46     		mov	r3, r1
 354 0006 ADF80230 		strh	r3, [sp, #2]	@ movhi
 355              		.loc 1 409 0
 356 000a 019B     		ldr	r3, [sp, #4]
 357 000c DB68     		ldr	r3, [r3, #12]
 358 000e BDF80220 		ldrh	r2, [sp, #2]
 359 0012 02F1FF32 		add	r2, r2, #-1
 360 0016 DA62     		str	r2, [r3, #44]
 361              		.loc 1 410 0
 362 0018 019B     		ldr	r3, [sp, #4]
 363 001a DB68     		ldr	r3, [r3, #12]
 364 001c 4FF00102 		mov	r2, #1
 365 0020 9A82     		strh	r2, [r3, #20]	@ movhi
 366              		.loc 1 411 0
 367 0022 019B     		ldr	r3, [sp, #4]
 368 0024 DB68     		ldr	r3, [r3, #12]
 369 0026 4FF00002 		mov	r2, #0
 370 002a 5A62     		str	r2, [r3, #36]
 371              		.loc 1 415 0
 372 002c 019B     		ldr	r3, [sp, #4]
 373 002e DB68     		ldr	r3, [r3, #12]
 374 0030 4FF00002 		mov	r2, #0
 375 0034 1A82     		strh	r2, [r3, #16]	@ movhi
 376              		.loc 1 416 0
 377 0036 019B     		ldr	r3, [sp, #4]
 378 0038 DB68     		ldr	r3, [r3, #12]
 379 003a 4FF00102 		mov	r2, #1
 380 003e 9A81     		strh	r2, [r3, #12]	@ movhi
 381              		.loc 1 417 0
 382 0040 019B     		ldr	r3, [sp, #4]
 383 0042 DB68     		ldr	r3, [r3, #12]
ARM GAS  /tmp/ccHxW8IE.s 			page 8


 384 0044 4FF00502 		mov	r2, #5
 385 0048 1A80     		strh	r2, [r3, #0]	@ movhi
 386              		.loc 1 418 0
 387 004a 02B0     		add	sp, sp, #8
 388 004c 7047     		bx	lr
 389              		.cfi_endproc
 390              	.LFE67:
 391              		.size	gpt_lld_start_timer, .-gpt_lld_start_timer
 392 004e 00BF     		.section	.text.gpt_lld_stop_timer,"ax",%progbits
 393              		.align	2
 394              		.p2align 4,,15
 395              		.global	gpt_lld_stop_timer
 396              		.thumb
 397              		.thumb_func
 398              		.type	gpt_lld_stop_timer, %function
 399              	gpt_lld_stop_timer:
 400              	.LFB68:
 401              		.loc 1 427 0
 402              		.cfi_startproc
 403              		@ args = 0, pretend = 0, frame = 8
 404              		@ frame_needed = 0, uses_anonymous_args = 0
 405              		@ link register save eliminated.
 406 0000 82B0     		sub	sp, sp, #8
 407              	.LCFI9:
 408              		.cfi_def_cfa_offset 8
 409 0002 0190     		str	r0, [sp, #4]
 410              		.loc 1 429 0
 411 0004 019B     		ldr	r3, [sp, #4]
 412 0006 DB68     		ldr	r3, [r3, #12]
 413 0008 4FF00002 		mov	r2, #0
 414 000c 1A80     		strh	r2, [r3, #0]	@ movhi
 415              		.loc 1 430 0
 416 000e 019B     		ldr	r3, [sp, #4]
 417 0010 DB68     		ldr	r3, [r3, #12]
 418 0012 4FF00002 		mov	r2, #0
 419 0016 1A82     		strh	r2, [r3, #16]	@ movhi
 420              		.loc 1 431 0
 421 0018 019B     		ldr	r3, [sp, #4]
 422 001a DB68     		ldr	r3, [r3, #12]
 423 001c 4FF00002 		mov	r2, #0
 424 0020 9A81     		strh	r2, [r3, #12]	@ movhi
 425              		.loc 1 432 0
 426 0022 02B0     		add	sp, sp, #8
 427 0024 7047     		bx	lr
 428              		.cfi_endproc
 429              	.LFE68:
 430              		.size	gpt_lld_stop_timer, .-gpt_lld_stop_timer
 431 0026 00BFAFF3 		.section	.text.gpt_lld_polled_delay,"ax",%progbits
 431      0080AFF3 
 431      0080
 432              		.align	2
 433              		.p2align 4,,15
 434              		.global	gpt_lld_polled_delay
 435              		.thumb
 436              		.thumb_func
 437              		.type	gpt_lld_polled_delay, %function
 438              	gpt_lld_polled_delay:
ARM GAS  /tmp/ccHxW8IE.s 			page 9


 439              	.LFB69:
 440              		.loc 1 445 0
 441              		.cfi_startproc
 442              		@ args = 0, pretend = 0, frame = 8
 443              		@ frame_needed = 0, uses_anonymous_args = 0
 444              		@ link register save eliminated.
 445 0000 82B0     		sub	sp, sp, #8
 446              	.LCFI10:
 447              		.cfi_def_cfa_offset 8
 448 0002 0190     		str	r0, [sp, #4]
 449 0004 0B46     		mov	r3, r1
 450 0006 ADF80230 		strh	r3, [sp, #2]	@ movhi
 451              		.loc 1 447 0
 452 000a 019B     		ldr	r3, [sp, #4]
 453 000c DB68     		ldr	r3, [r3, #12]
 454 000e BDF80220 		ldrh	r2, [sp, #2]
 455 0012 02F1FF32 		add	r2, r2, #-1
 456 0016 DA62     		str	r2, [r3, #44]
 457              		.loc 1 448 0
 458 0018 019B     		ldr	r3, [sp, #4]
 459 001a DB68     		ldr	r3, [r3, #12]
 460 001c 4FF00102 		mov	r2, #1
 461 0020 9A82     		strh	r2, [r3, #20]	@ movhi
 462              		.loc 1 449 0
 463 0022 019B     		ldr	r3, [sp, #4]
 464 0024 DB68     		ldr	r3, [r3, #12]
 465 0026 4FF00002 		mov	r2, #0
 466 002a 1A82     		strh	r2, [r3, #16]	@ movhi
 467              		.loc 1 450 0
 468 002c 019B     		ldr	r3, [sp, #4]
 469 002e DB68     		ldr	r3, [r3, #12]
 470 0030 4FF00D02 		mov	r2, #13
 471 0034 1A80     		strh	r2, [r3, #0]	@ movhi
 472              		.loc 1 451 0
 473 0036 00BF     		nop
 474              	.L21:
 475              		.loc 1 451 0 is_stmt 0 discriminator 1
 476 0038 019B     		ldr	r3, [sp, #4]
 477 003a DB68     		ldr	r3, [r3, #12]
 478 003c 1B8A     		ldrh	r3, [r3, #16]	@ movhi
 479 003e 9BB2     		uxth	r3, r3
 480 0040 03F00103 		and	r3, r3, #1
 481 0044 002B     		cmp	r3, #0
 482 0046 F7D0     		beq	.L21
 483              		.loc 1 453 0 is_stmt 1
 484 0048 02B0     		add	sp, sp, #8
 485 004a 7047     		bx	lr
 486              		.cfi_endproc
 487              	.LFE69:
 488              		.size	gpt_lld_polled_delay, .-gpt_lld_polled_delay
 489 004c AFF30080 		.text
 490              	.Letext0: