ARM GAS  C:\Users\z80\AppData\Local\Temp\ccyKjVO9.s 			page 1


   1              		.syntax unified
   2              		.cpu cortex-m3
   3              		.fpu softvfp
   4              		.eabi_attribute 20, 1
   5              		.eabi_attribute 21, 1
   6              		.eabi_attribute 23, 3
   7              		.eabi_attribute 24, 1
   8              		.eabi_attribute 25, 1
   9              		.eabi_attribute 26, 1
  10              		.eabi_attribute 30, 6
  11              		.eabi_attribute 34, 1
  12              		.eabi_attribute 18, 4
  13              		.thumb
  14              		.file	"i2c_lld.c"
  15              		.text
  16              	.Ltext0:
  17              		.cfi_sections	.debug_frame
  18              		.global	I2CD1
  19              		.section	.bss.I2CD1,"aw",%nobits
  20              		.align	2
  21              		.type	I2CD1, %object
  22              		.size	I2CD1, 72
  23              	I2CD1:
  24 0000 00000000 		.space	72
  24      00000000 
  24      00000000 
  24      00000000 
  24      00000000 
  25              		.section	.bss.dbgSR1,"aw",%nobits
  26              		.align	1
  27              		.type	dbgSR1, %object
  28              		.size	dbgSR1, 2
  29              	dbgSR1:
  30 0000 0000     		.space	2
  31              		.section	.bss.dbgSR2,"aw",%nobits
  32              		.align	1
  33              		.type	dbgSR2, %object
  34              		.size	dbgSR2, 2
  35              	dbgSR2:
  36 0000 0000     		.space	2
  37              		.section	.bss.dbgCR1,"aw",%nobits
  38              		.align	1
  39              		.type	dbgCR1, %object
  40              		.size	dbgCR1, 2
  41              	dbgCR1:
  42 0000 0000     		.space	2
  43              		.section	.bss.dbgCR2,"aw",%nobits
  44              		.align	1
  45              		.type	dbgCR2, %object
  46              		.size	dbgCR2, 2
  47              	dbgCR2:
  48 0000 0000     		.space	2
  49              		.section	.text.i2c_lld_abort_operation,"ax",%progbits
  50              		.align	2
  51              		.p2align 4,,15
  52              		.thumb
  53              		.thumb_func
ARM GAS  C:\Users\z80\AppData\Local\Temp\ccyKjVO9.s 			page 2


  54              		.type	i2c_lld_abort_operation, %function
  55              	i2c_lld_abort_operation:
  56              	.LFB62:
  57              		.file 1 "../chibios_2.4.x/os/hal/platforms/STM32/i2c_lld.c"
  58              		.loc 1 151 0
  59              		.cfi_startproc
  60              		@ args = 0, pretend = 0, frame = 16
  61              		@ frame_needed = 0, uses_anonymous_args = 0
  62              		@ link register save eliminated.
  63 0000 84B0     		sub	sp, sp, #16
  64              	.LCFI0:
  65              		.cfi_def_cfa_offset 16
  66 0002 0190     		str	r0, [sp, #4]
  67              		.loc 1 152 0
  68 0004 019B     		ldr	r3, [sp, #4]
  69 0006 1B6A     		ldr	r3, [r3, #32]
  70 0008 0393     		str	r3, [sp, #12]
  71              		.loc 1 155 0
  72 000a 039B     		ldr	r3, [sp, #12]
  73 000c 4FF40042 		mov	r2, #32768
  74 0010 1A80     		strh	r2, [r3, #0]	@ movhi
  75              		.loc 1 156 0
  76 0012 039B     		ldr	r3, [sp, #12]
  77 0014 4FF00002 		mov	r2, #0
  78 0018 1A80     		strh	r2, [r3, #0]	@ movhi
  79              		.loc 1 157 0
  80 001a 039B     		ldr	r3, [sp, #12]
  81 001c 4FF00002 		mov	r2, #0
  82 0020 9A80     		strh	r2, [r3, #4]	@ movhi
  83              		.loc 1 158 0
  84 0022 039B     		ldr	r3, [sp, #12]
  85 0024 4FF00002 		mov	r2, #0
  86 0028 9A82     		strh	r2, [r3, #20]	@ movhi
  87              		.loc 1 161 0
  88 002a 019B     		ldr	r3, [sp, #4]
  89 002c DB69     		ldr	r3, [r3, #28]
  90 002e 1B68     		ldr	r3, [r3, #0]
  91 0030 019A     		ldr	r2, [sp, #4]
  92 0032 D269     		ldr	r2, [r2, #28]
  93 0034 1268     		ldr	r2, [r2, #0]
  94 0036 1268     		ldr	r2, [r2, #0]
  95 0038 22F00102 		bic	r2, r2, #1
  96 003c 1A60     		str	r2, [r3, #0]
  97 003e 019B     		ldr	r3, [sp, #4]
  98 0040 DB69     		ldr	r3, [r3, #28]
  99 0042 5B68     		ldr	r3, [r3, #4]
 100 0044 019A     		ldr	r2, [sp, #4]
 101 0046 D269     		ldr	r2, [r2, #28]
 102 0048 127A     		ldrb	r2, [r2, #8]	@ zero_extendqisi2
 103 004a 4FF00F01 		mov	r1, #15
 104 004e 01FA02F2 		lsl	r2, r1, r2
 105 0052 1A60     		str	r2, [r3, #0]
 106              		.loc 1 162 0
 107 0054 019B     		ldr	r3, [sp, #4]
 108 0056 9B69     		ldr	r3, [r3, #24]
 109 0058 1B68     		ldr	r3, [r3, #0]
 110 005a 019A     		ldr	r2, [sp, #4]
ARM GAS  C:\Users\z80\AppData\Local\Temp\ccyKjVO9.s 			page 3


 111 005c 9269     		ldr	r2, [r2, #24]
 112 005e 1268     		ldr	r2, [r2, #0]
 113 0060 1268     		ldr	r2, [r2, #0]
 114 0062 22F00102 		bic	r2, r2, #1
 115 0066 1A60     		str	r2, [r3, #0]
 116 0068 019B     		ldr	r3, [sp, #4]
 117 006a 9B69     		ldr	r3, [r3, #24]
 118 006c 5B68     		ldr	r3, [r3, #4]
 119 006e 019A     		ldr	r2, [sp, #4]
 120 0070 9269     		ldr	r2, [r2, #24]
 121 0072 127A     		ldrb	r2, [r2, #8]	@ zero_extendqisi2
 122 0074 4FF00F01 		mov	r1, #15
 123 0078 01FA02F2 		lsl	r2, r1, r2
 124 007c 1A60     		str	r2, [r3, #0]
 125              		.loc 1 163 0
 126 007e 04B0     		add	sp, sp, #16
 127 0080 7047     		bx	lr
 128              		.cfi_endproc
 129              	.LFE62:
 130              		.size	i2c_lld_abort_operation, .-i2c_lld_abort_operation
 131 0082 00BFAFF3 		.section	.text.i2c_lld_safety_timeout,"ax",%progbits
 131      0080AFF3 
 131      0080AFF3 
 131      0080
 132              		.align	2
 133              		.p2align 4,,15
 134              		.thumb
 135              		.thumb_func
 136              		.type	i2c_lld_safety_timeout, %function
 137              	i2c_lld_safety_timeout:
 138              	.LFB63:
 139              		.loc 1 172 0
 140              		.cfi_startproc
 141              		@ args = 0, pretend = 0, frame = 16
 142              		@ frame_needed = 0, uses_anonymous_args = 0
 143 0000 00B5     		push	{lr}
 144              	.LCFI1:
 145              		.cfi_def_cfa_offset 4
 146              		.cfi_offset 14, -4
 147 0002 85B0     		sub	sp, sp, #20
 148              	.LCFI2:
 149              		.cfi_def_cfa_offset 24
 150 0004 0190     		str	r0, [sp, #4]
 151              		.loc 1 173 0
 152 0006 019B     		ldr	r3, [sp, #4]
 153 0008 0393     		str	r3, [sp, #12]
 154              		.loc 1 175 0
 155 000a 039B     		ldr	r3, [sp, #12]
 156 000c DB68     		ldr	r3, [r3, #12]
 157 000e 002B     		cmp	r3, #0
 158 0010 10D0     		beq	.L2
 159              	.LBB2:
 160              		.loc 1 176 0
 161 0012 039B     		ldr	r3, [sp, #12]
 162 0014 DB68     		ldr	r3, [r3, #12]
 163 0016 0293     		str	r3, [sp, #8]
 164              		.loc 1 177 0
ARM GAS  C:\Users\z80\AppData\Local\Temp\ccyKjVO9.s 			page 4


 165 0018 0398     		ldr	r0, [sp, #12]
 166 001a FFF7FEFF 		bl	i2c_lld_abort_operation
 167              		.loc 1 178 0
 168 001e 039B     		ldr	r3, [sp, #12]
 169 0020 4FF00002 		mov	r2, #0
 170 0024 DA60     		str	r2, [r3, #12]
 171              		.loc 1 179 0
 172 0026 029B     		ldr	r3, [sp, #8]
 173 0028 4FF0FF32 		mov	r2, #-1
 174 002c 9A62     		str	r2, [r3, #40]
 175              		.loc 1 180 0
 176 002e 0298     		ldr	r0, [sp, #8]
 177 0030 FFF7FEFF 		bl	chSchReadyI
 178              	.L2:
 179              	.LBE2:
 180              		.loc 1 182 0
 181 0034 05B0     		add	sp, sp, #20
 182 0036 00BD     		pop	{pc}
 183              		.cfi_endproc
 184              	.LFE63:
 185              		.size	i2c_lld_safety_timeout, .-i2c_lld_safety_timeout
 186 0038 AFF30080 		.section	.rodata
 186      AFF30080 
 187              		.align	2
 188              	.LC0:
 189 0000 22693263 		.ascii	"\"i2c_lld_set_clock\"()\000"
 189      5F6C6C64 
 189      5F736574 
 189      5F636C6F 
 189      636B2228 
 190 0016 0000     		.align	2
 191              	.LC1:
 192 0018 6932635F 		.ascii	"i2c_lld_set_clock(), #1\000"
 192      6C6C645F 
 192      7365745F 
 192      636C6F63 
 192      6B28292C 
 193              		.align	2
 194              	.LC2:
 195 0030 6932635F 		.ascii	"i2c_lld_set_clock(), #2\000"
 195      6C6C645F 
 195      7365745F 
 195      636C6F63 
 195      6B28292C 
 196              		.align	2
 197              	.LC3:
 198 0048 6932635F 		.ascii	"i2c_lld_set_clock(), #3\000"
 198      6C6C645F 
 198      7365745F 
 198      636C6F63 
 198      6B28292C 
 199              		.align	2
 200              	.LC4:
 201 0060 6932635F 		.ascii	"i2c_lld_set_clock(), #4\000"
 201      6C6C645F 
 201      7365745F 
 201      636C6F63 
ARM GAS  C:\Users\z80\AppData\Local\Temp\ccyKjVO9.s 			page 5


 201      6B28292C 
 202              		.align	2
 203              	.LC5:
 204 0078 6932635F 		.ascii	"i2c_lld_set_clock(), #5\000"
 204      6C6C645F 
 204      7365745F 
 204      636C6F63 
 204      6B28292C 
 205              		.align	2
 206              	.LC6:
 207 0090 6932635F 		.ascii	"i2c_lld_set_clock(), #6\000"
 207      6C6C645F 
 207      7365745F 
 207      636C6F63 
 207      6B28292C 
 208              		.align	2
 209              	.LC7:
 210 00a8 6932635F 		.ascii	"i2c_lld_set_clock(), #7\000"
 210      6C6C645F 
 210      7365745F 
 210      636C6F63 
 210      6B28292C 
 211              		.align	2
 212              	.LC8:
 213 00c0 6932635F 		.ascii	"i2c_lld_set_clock(), #8\000"
 213      6C6C645F 
 213      7365745F 
 213      636C6F63 
 213      6B28292C 
 214              		.section	.text.i2c_lld_set_clock,"ax",%progbits
 215              		.align	2
 216              		.p2align 4,,15
 217              		.thumb
 218              		.thumb_func
 219              		.type	i2c_lld_set_clock, %function
 220              	i2c_lld_set_clock:
 221              	.LFB64:
 222              		.loc 1 191 0
 223              		.cfi_startproc
 224              		@ args = 0, pretend = 0, frame = 24
 225              		@ frame_needed = 0, uses_anonymous_args = 0
 226 0000 00B5     		push	{lr}
 227              	.LCFI3:
 228              		.cfi_def_cfa_offset 4
 229              		.cfi_offset 14, -4
 230 0002 87B0     		sub	sp, sp, #28
 231              	.LCFI4:
 232              		.cfi_def_cfa_offset 32
 233 0004 0190     		str	r0, [sp, #4]
 234              		.loc 1 192 0
 235 0006 019B     		ldr	r3, [sp, #4]
 236 0008 1B6A     		ldr	r3, [r3, #32]
 237 000a 0493     		str	r3, [sp, #16]
 238              		.loc 1 194 0
 239 000c 019B     		ldr	r3, [sp, #4]
 240 000e 5B68     		ldr	r3, [r3, #4]
 241 0010 5B68     		ldr	r3, [r3, #4]
ARM GAS  C:\Users\z80\AppData\Local\Temp\ccyKjVO9.s 			page 6


 242 0012 0393     		str	r3, [sp, #12]
 243              		.loc 1 195 0
 244 0014 019B     		ldr	r3, [sp, #4]
 245 0016 5B68     		ldr	r3, [r3, #4]
 246 0018 1B7A     		ldrb	r3, [r3, #8]
 247 001a 8DF80B30 		strb	r3, [sp, #11]
 248              		.loc 1 197 0
 249 001e 019B     		ldr	r3, [sp, #4]
 250 0020 002B     		cmp	r3, #0
 251 0022 09D0     		beq	.L5
 252              		.loc 1 197 0 is_stmt 0 discriminator 2
 253 0024 039B     		ldr	r3, [sp, #12]
 254 0026 002B     		cmp	r3, #0
 255 0028 06DD     		ble	.L5
 256              		.loc 1 197 0 discriminator 3
 257 002a 039A     		ldr	r2, [sp, #12]
 258 002c 4FF41063 		mov	r3, #2304
 259 0030 C0F23D03 		movt	r3, 61
 260 0034 9A42     		cmp	r2, r3
 261 0036 05DD     		ble	.L6
 262              	.L5:
 263              		.loc 1 197 0 discriminator 1
 264 0038 40F20000 		movw	r0, #:lower16:.LC0
 265 003c C0F20000 		movt	r0, #:upper16:.LC0
 266 0040 FFF7FEFF 		bl	chDbgPanic
 267              	.L6:
 268              		.loc 1 201 0 is_stmt 1
 269 0044 049B     		ldr	r3, [sp, #16]
 270 0046 9B88     		ldrh	r3, [r3, #4]	@ movhi
 271 0048 9BB2     		uxth	r3, r3
 272 004a 23F03F03 		bic	r3, r3, #63
 273 004e 9AB2     		uxth	r2, r3
 274 0050 049B     		ldr	r3, [sp, #16]
 275 0052 9A80     		strh	r2, [r3, #4]	@ movhi
 276              		.loc 1 202 0
 277 0054 049B     		ldr	r3, [sp, #16]
 278 0056 9B88     		ldrh	r3, [r3, #4]	@ movhi
 279 0058 9BB2     		uxth	r3, r3
 280 005a 43F02403 		orr	r3, r3, #36
 281 005e 9AB2     		uxth	r2, r3
 282 0060 049B     		ldr	r3, [sp, #16]
 283 0062 9A80     		strh	r2, [r3, #4]	@ movhi
 284              		.loc 1 205 0
 285 0064 4FF00003 		mov	r3, #0
 286 0068 ADF81630 		strh	r3, [sp, #22]	@ movhi
 287              		.loc 1 206 0
 288 006c 40F6FF73 		movw	r3, #4095
 289 0070 ADF81430 		strh	r3, [sp, #20]	@ movhi
 290              		.loc 1 208 0
 291 0074 039A     		ldr	r2, [sp, #12]
 292 0076 48F2A063 		movw	r3, #34464
 293 007a C0F20103 		movt	r3, 1
 294 007e 9A42     		cmp	r2, r3
 295 0080 44DC     		bgt	.L7
 296              		.loc 1 210 0
 297 0082 9DF80B30 		ldrb	r3, [sp, #11]	@ zero_extendqisi2
 298 0086 012B     		cmp	r3, #1
ARM GAS  C:\Users\z80\AppData\Local\Temp\ccyKjVO9.s 			page 7


 299 0088 05D0     		beq	.L8
 300              		.loc 1 210 0 is_stmt 0 discriminator 1
 301 008a 40F20000 		movw	r0, #:lower16:.LC1
 302 008e C0F20000 		movt	r0, #:upper16:.LC1
 303 0092 FFF7FEFF 		bl	chDbgPanic
 304              	.L8:
 305              		.loc 1 215 0 is_stmt 1
 306 0096 039B     		ldr	r3, [sp, #12]
 307 0098 4FEA4302 		lsl	r2, r3, #1
 308 009c 4FF4A243 		mov	r3, #20736
 309 00a0 C0F22523 		movt	r3, 549
 310 00a4 93FBF2F1 		sdiv	r1, r3, r2
 311 00a8 02FB01F2 		mul	r2, r2, r1
 312 00ac 9B1A     		subs	r3, r3, r2
 313 00ae 002B     		cmp	r3, #0
 314 00b0 05D0     		beq	.L9
 315              		.loc 1 215 0 is_stmt 0 discriminator 1
 316 00b2 40F20000 		movw	r0, #:lower16:.LC2
 317 00b6 C0F20000 		movt	r0, #:upper16:.LC2
 318 00ba FFF7FEFF 		bl	chDbgPanic
 319              	.L9:
 320              		.loc 1 218 0 is_stmt 1
 321 00be 039B     		ldr	r3, [sp, #12]
 322 00c0 4FEA4302 		lsl	r2, r3, #1
 323 00c4 4FF4A243 		mov	r3, #20736
 324 00c8 C0F22523 		movt	r3, 549
 325 00cc 93FBF2F3 		sdiv	r3, r3, r2
 326 00d0 ADF81430 		strh	r3, [sp, #20]	@ movhi
 327              		.loc 1 220 0
 328 00d4 BDF81430 		ldrh	r3, [sp, #20]
 329 00d8 032B     		cmp	r3, #3
 330 00da 05D8     		bhi	.L10
 331              		.loc 1 220 0 is_stmt 0 discriminator 1
 332 00dc 40F20000 		movw	r0, #:lower16:.LC3
 333 00e0 C0F20000 		movt	r0, #:upper16:.LC3
 334 00e4 FFF7FEFF 		bl	chDbgPanic
 335              	.L10:
 336              		.loc 1 223 0 is_stmt 1
 337 00e8 BDF81430 		ldrh	r3, [sp, #20]
 338 00ec 4FEA0353 		lsl	r3, r3, #20
 339 00f0 4FEA1353 		lsr	r3, r3, #20
 340 00f4 9AB2     		uxth	r2, r3
 341 00f6 BDF81630 		ldrh	r3, [sp, #22]
 342 00fa 1343     		orrs	r3, r3, r2
 343 00fc 9BB2     		uxth	r3, r3
 344 00fe ADF81630 		strh	r3, [sp, #22]	@ movhi
 345              		.loc 1 226 0
 346 0102 049B     		ldr	r3, [sp, #16]
 347 0104 4FF02502 		mov	r2, #37
 348 0108 1A84     		strh	r2, [r3, #32]	@ movhi
 349 010a 90E0     		b	.L11
 350              	.L7:
 351              		.loc 1 228 0
 352 010c 039A     		ldr	r2, [sp, #12]
 353 010e 4FF4D453 		mov	r3, #6784
 354 0112 C0F20603 		movt	r3, 6
 355 0116 9A42     		cmp	r2, r3
ARM GAS  C:\Users\z80\AppData\Local\Temp\ccyKjVO9.s 			page 8


 356 0118 00F38980 		bgt	.L11
 357              		.loc 1 230 0
 358 011c 9DF80B30 		ldrb	r3, [sp, #11]	@ zero_extendqisi2
 359 0120 022B     		cmp	r3, #2
 360 0122 09D0     		beq	.L12
 361              		.loc 1 230 0 is_stmt 0 discriminator 1
 362 0124 9DF80B30 		ldrb	r3, [sp, #11]	@ zero_extendqisi2
 363 0128 032B     		cmp	r3, #3
 364 012a 05D0     		beq	.L12
 365              		.loc 1 230 0 discriminator 2
 366 012c 40F20000 		movw	r0, #:lower16:.LC4
 367 0130 C0F20000 		movt	r0, #:upper16:.LC4
 368 0134 FFF7FEFF 		bl	chDbgPanic
 369              	.L12:
 370              		.loc 1 234 0 is_stmt 1
 371 0138 9DF80B30 		ldrb	r3, [sp, #11]	@ zero_extendqisi2
 372 013c 022B     		cmp	r3, #2
 373 013e 23D1     		bne	.L13
 374              		.loc 1 236 0
 375 0140 039A     		ldr	r2, [sp, #12]
 376 0142 1346     		mov	r3, r2
 377 0144 4FEA4303 		lsl	r3, r3, #1
 378 0148 9A18     		adds	r2, r3, r2
 379 014a 4FF4A243 		mov	r3, #20736
 380 014e C0F22523 		movt	r3, 549
 381 0152 93FBF2F1 		sdiv	r1, r3, r2
 382 0156 02FB01F2 		mul	r2, r2, r1
 383 015a 9B1A     		subs	r3, r3, r2
 384 015c 002B     		cmp	r3, #0
 385 015e 05D0     		beq	.L14
 386              		.loc 1 236 0 is_stmt 0 discriminator 1
 387 0160 40F20000 		movw	r0, #:lower16:.LC5
 388 0164 C0F20000 		movt	r0, #:upper16:.LC5
 389 0168 FFF7FEFF 		bl	chDbgPanic
 390              	.L14:
 391              		.loc 1 239 0 is_stmt 1
 392 016c 039A     		ldr	r2, [sp, #12]
 393 016e 1346     		mov	r3, r2
 394 0170 4FEA4303 		lsl	r3, r3, #1
 395 0174 9A18     		adds	r2, r3, r2
 396 0176 4FF4A243 		mov	r3, #20736
 397 017a C0F22523 		movt	r3, 549
 398 017e 93FBF2F3 		sdiv	r3, r3, r2
 399 0182 ADF81430 		strh	r3, [sp, #20]	@ movhi
 400 0186 32E0     		b	.L15
 401              	.L13:
 402              		.loc 1 241 0
 403 0188 9DF80B30 		ldrb	r3, [sp, #11]	@ zero_extendqisi2
 404 018c 032B     		cmp	r3, #3
 405 018e 2ED1     		bne	.L15
 406              		.loc 1 243 0
 407 0190 039A     		ldr	r2, [sp, #12]
 408 0192 1346     		mov	r3, r2
 409 0194 4FEA8303 		lsl	r3, r3, #2
 410 0198 9B18     		adds	r3, r3, r2
 411 019a 4FEA8302 		lsl	r2, r3, #2
 412 019e 9A18     		adds	r2, r3, r2
ARM GAS  C:\Users\z80\AppData\Local\Temp\ccyKjVO9.s 			page 9


 413 01a0 4FF4A243 		mov	r3, #20736
 414 01a4 C0F22523 		movt	r3, 549
 415 01a8 93FBF2F1 		sdiv	r1, r3, r2
 416 01ac 02FB01F2 		mul	r2, r2, r1
 417 01b0 9B1A     		subs	r3, r3, r2
 418 01b2 002B     		cmp	r3, #0
 419 01b4 05D0     		beq	.L16
 420              		.loc 1 243 0 is_stmt 0 discriminator 1
 421 01b6 40F20000 		movw	r0, #:lower16:.LC6
 422 01ba C0F20000 		movt	r0, #:upper16:.LC6
 423 01be FFF7FEFF 		bl	chDbgPanic
 424              	.L16:
 425              		.loc 1 246 0 is_stmt 1
 426 01c2 039A     		ldr	r2, [sp, #12]
 427 01c4 1346     		mov	r3, r2
 428 01c6 4FEA8303 		lsl	r3, r3, #2
 429 01ca 9B18     		adds	r3, r3, r2
 430 01cc 4FEA8302 		lsl	r2, r3, #2
 431 01d0 9A18     		adds	r2, r3, r2
 432 01d2 4FF4A243 		mov	r3, #20736
 433 01d6 C0F22523 		movt	r3, 549
 434 01da 93FBF2F3 		sdiv	r3, r3, r2
 435 01de ADF81430 		strh	r3, [sp, #20]	@ movhi
 436              		.loc 1 247 0
 437 01e2 BDF81630 		ldrh	r3, [sp, #22]	@ movhi
 438 01e6 43F48043 		orr	r3, r3, #16384
 439 01ea ADF81630 		strh	r3, [sp, #22]	@ movhi
 440              	.L15:
 441              		.loc 1 250 0
 442 01ee BDF81430 		ldrh	r3, [sp, #20]
 443 01f2 002B     		cmp	r3, #0
 444 01f4 05D1     		bne	.L17
 445              		.loc 1 250 0 is_stmt 0 discriminator 1
 446 01f6 40F20000 		movw	r0, #:lower16:.LC7
 447 01fa C0F20000 		movt	r0, #:upper16:.LC7
 448 01fe FFF7FEFF 		bl	chDbgPanic
 449              	.L17:
 450              		.loc 1 253 0 is_stmt 1
 451 0202 BDF81430 		ldrh	r3, [sp, #20]
 452 0206 4FEA0353 		lsl	r3, r3, #20
 453 020a 4FEA1353 		lsr	r3, r3, #20
 454 020e 9BB2     		uxth	r3, r3
 455 0210 6FEA4343 		mvn	r3, r3, lsl #17
 456 0214 6FEA5343 		mvn	r3, r3, lsr #17
 457 0218 9AB2     		uxth	r2, r3
 458 021a BDF81630 		ldrh	r3, [sp, #22]
 459 021e 1343     		orrs	r3, r3, r2
 460 0220 9BB2     		uxth	r3, r3
 461 0222 ADF81630 		strh	r3, [sp, #22]	@ movhi
 462              		.loc 1 256 0
 463 0226 049B     		ldr	r3, [sp, #16]
 464 0228 4FF00B02 		mov	r2, #11
 465 022c 1A84     		strh	r2, [r3, #32]	@ movhi
 466              	.L11:
 467              		.loc 1 259 0
 468 022e BDF81420 		ldrh	r2, [sp, #20]
 469 0232 40F6FF73 		movw	r3, #4095
ARM GAS  C:\Users\z80\AppData\Local\Temp\ccyKjVO9.s 			page 10


 470 0236 9A42     		cmp	r2, r3
 471 0238 05D9     		bls	.L18
 472              		.loc 1 259 0 is_stmt 0 discriminator 1
 473 023a 40F20000 		movw	r0, #:lower16:.LC8
 474 023e C0F20000 		movt	r0, #:upper16:.LC8
 475 0242 FFF7FEFF 		bl	chDbgPanic
 476              	.L18:
 477              		.loc 1 262 0 is_stmt 1
 478 0246 049B     		ldr	r3, [sp, #16]
 479 0248 BDF81620 		ldrh	r2, [sp, #22]	@ movhi
 480 024c 9A83     		strh	r2, [r3, #28]	@ movhi
 481              		.loc 1 263 0
 482 024e 07B0     		add	sp, sp, #28
 483 0250 00BD     		pop	{pc}
 484              		.cfi_endproc
 485              	.LFE64:
 486              		.size	i2c_lld_set_clock, .-i2c_lld_set_clock
 487 0252 00BFAFF3 		.section	.text.i2c_lld_set_opmode,"ax",%progbits
 487      0080AFF3 
 487      0080AFF3 
 487      0080
 488              		.align	2
 489              		.p2align 4,,15
 490              		.thumb
 491              		.thumb_func
 492              		.type	i2c_lld_set_opmode, %function
 493              	i2c_lld_set_opmode:
 494              	.LFB65:
 495              		.loc 1 272 0
 496              		.cfi_startproc
 497              		@ args = 0, pretend = 0, frame = 24
 498              		@ frame_needed = 0, uses_anonymous_args = 0
 499              		@ link register save eliminated.
 500 0000 86B0     		sub	sp, sp, #24
 501              	.LCFI5:
 502              		.cfi_def_cfa_offset 24
 503 0002 0190     		str	r0, [sp, #4]
 504              		.loc 1 273 0
 505 0004 019B     		ldr	r3, [sp, #4]
 506 0006 1B6A     		ldr	r3, [r3, #32]
 507 0008 0493     		str	r3, [sp, #16]
 508              		.loc 1 274 0
 509 000a 019B     		ldr	r3, [sp, #4]
 510 000c 5B68     		ldr	r3, [r3, #4]
 511 000e 1B78     		ldrb	r3, [r3, #0]
 512 0010 8DF80F30 		strb	r3, [sp, #15]
 513              		.loc 1 277 0
 514 0014 049B     		ldr	r3, [sp, #16]
 515 0016 1B88     		ldrh	r3, [r3, #0]	@ movhi
 516 0018 ADF81630 		strh	r3, [sp, #22]	@ movhi
 517              		.loc 1 278 0
 518 001c 9DF80F30 		ldrb	r3, [sp, #15]	@ zero_extendqisi2
 519 0020 022B     		cmp	r3, #2
 520 0022 0AD0     		beq	.L22
 521 0024 032B     		cmp	r3, #3
 522 0026 15D0     		beq	.L23
 523 0028 012B     		cmp	r3, #1
ARM GAS  C:\Users\z80\AppData\Local\Temp\ccyKjVO9.s 			page 11


 524 002a 1AD1     		bne	.L20
 525              	.L21:
 526              		.loc 1 280 0
 527 002c BDF81630 		ldrh	r3, [sp, #22]	@ movhi
 528 0030 23F00A03 		bic	r3, r3, #10
 529 0034 ADF81630 		strh	r3, [sp, #22]	@ movhi
 530              		.loc 1 281 0
 531 0038 13E0     		b	.L20
 532              	.L22:
 533              		.loc 1 283 0
 534 003a BDF81630 		ldrh	r3, [sp, #22]	@ movhi
 535 003e 43F00203 		orr	r3, r3, #2
 536 0042 ADF81630 		strh	r3, [sp, #22]	@ movhi
 537              		.loc 1 284 0
 538 0046 BDF81630 		ldrh	r3, [sp, #22]	@ movhi
 539 004a 23F00803 		bic	r3, r3, #8
 540 004e ADF81630 		strh	r3, [sp, #22]	@ movhi
 541              		.loc 1 285 0
 542 0052 06E0     		b	.L20
 543              	.L23:
 544              		.loc 1 287 0
 545 0054 BDF81630 		ldrh	r3, [sp, #22]	@ movhi
 546 0058 43F00A03 		orr	r3, r3, #10
 547 005c ADF81630 		strh	r3, [sp, #22]	@ movhi
 548              		.loc 1 288 0
 549 0060 00BF     		nop
 550              	.L20:
 551              		.loc 1 290 0
 552 0062 049B     		ldr	r3, [sp, #16]
 553 0064 BDF81620 		ldrh	r2, [sp, #22]	@ movhi
 554 0068 1A80     		strh	r2, [r3, #0]	@ movhi
 555              		.loc 1 291 0
 556 006a 06B0     		add	sp, sp, #24
 557 006c 7047     		bx	lr
 558              		.cfi_endproc
 559              	.LFE65:
 560              		.size	i2c_lld_set_opmode, .-i2c_lld_set_opmode
 561 006e 00BF     		.section	.text.i2c_lld_serve_event_interrupt,"ax",%progbits
 562              		.align	2
 563              		.p2align 4,,15
 564              		.thumb
 565              		.thumb_func
 566              		.type	i2c_lld_serve_event_interrupt, %function
 567              	i2c_lld_serve_event_interrupt:
 568              	.LFB66:
 569              		.loc 1 300 0
 570              		.cfi_startproc
 571              		@ args = 0, pretend = 0, frame = 24
 572              		@ frame_needed = 0, uses_anonymous_args = 0
 573 0000 00B5     		push	{lr}
 574              	.LCFI6:
 575              		.cfi_def_cfa_offset 4
 576              		.cfi_offset 14, -4
 577 0002 87B0     		sub	sp, sp, #28
 578              	.LCFI7:
 579              		.cfi_def_cfa_offset 32
 580 0004 0190     		str	r0, [sp, #4]
ARM GAS  C:\Users\z80\AppData\Local\Temp\ccyKjVO9.s 			page 12


 581              		.loc 1 302 0
 582 0006 019B     		ldr	r3, [sp, #4]
 583 0008 1B6A     		ldr	r3, [r3, #32]
 584 000a 0493     		str	r3, [sp, #16]
 585              		.loc 1 303 0
 586 000c 049B     		ldr	r3, [sp, #16]
 587 000e 1B8B     		ldrh	r3, [r3, #24]	@ movhi
 588 0010 9BB2     		uxth	r3, r3
 589 0012 0393     		str	r3, [sp, #12]
 590              		.loc 1 304 0
 591 0014 049B     		ldr	r3, [sp, #16]
 592 0016 9B8A     		ldrh	r3, [r3, #20]	@ movhi
 593 0018 9BB2     		uxth	r3, r3
 594 001a 0593     		str	r3, [sp, #20]
 595              		.loc 1 307 0
 596 001c 019B     		ldr	r3, [sp, #4]
 597 001e 93F82430 		ldrb	r3, [r3, #36]	@ zero_extendqisi2
 598 0022 002B     		cmp	r3, #0
 599 0024 40F0B780 		bne	.L25
 600              		.loc 1 313 0
 601 0028 039B     		ldr	r3, [sp, #12]
 602 002a 4FEA0342 		lsl	r2, r3, #16
 603 002e 059B     		ldr	r3, [sp, #20]
 604 0030 1343     		orrs	r3, r3, r2
 605 0032 23F07F43 		bic	r3, r3, #-16777216
 606 0036 4FF00202 		mov	r2, #2
 607 003a C0F20302 		movt	r2, 3
 608 003e 9342     		cmp	r3, r2
 609 0040 1ED0     		beq	.L28
 610 0042 4FF00202 		mov	r2, #2
 611 0046 C0F20302 		movt	r2, 3
 612 004a 9342     		cmp	r3, r2
 613 004c 06D8     		bhi	.L31
 614 004e 4FF00102 		mov	r2, #1
 615 0052 C0F20302 		movt	r2, 3
 616 0056 9342     		cmp	r3, r2
 617 0058 0DD0     		beq	.L27
 618 005a 92E0     		b	.L26
 619              	.L31:
 620 005c 4FF08202 		mov	r2, #130
 621 0060 C0F20702 		movt	r2, 7
 622 0064 9342     		cmp	r3, r2
 623 0066 34D0     		beq	.L29
 624 0068 4FF08402 		mov	r2, #132
 625 006c C0F20702 		movt	r2, 7
 626 0070 9342     		cmp	r3, r2
 627 0072 41D0     		beq	.L30
 628 0074 85E0     		b	.L26
 629              	.L27:
 630              		.loc 1 315 0
 631 0076 019B     		ldr	r3, [sp, #4]
 632 0078 1A8A     		ldrh	r2, [r3, #16]
 633 007a 049B     		ldr	r3, [sp, #16]
 634 007c 1A82     		strh	r2, [r3, #16]	@ movhi
 635              		.loc 1 316 0
 636 007e 82E0     		b	.L32
 637              	.L28:
ARM GAS  C:\Users\z80\AppData\Local\Temp\ccyKjVO9.s 			page 13


 638              		.loc 1 318 0
 639 0080 049B     		ldr	r3, [sp, #16]
 640 0082 9B88     		ldrh	r3, [r3, #4]	@ movhi
 641 0084 9BB2     		uxth	r3, r3
 642 0086 23F40073 		bic	r3, r3, #512
 643 008a 9AB2     		uxth	r2, r3
 644 008c 049B     		ldr	r3, [sp, #16]
 645 008e 9A80     		strh	r2, [r3, #4]	@ movhi
 646              		.loc 1 319 0
 647 0090 019B     		ldr	r3, [sp, #4]
 648 0092 9B69     		ldr	r3, [r3, #24]
 649 0094 1B68     		ldr	r3, [r3, #0]
 650 0096 019A     		ldr	r2, [sp, #4]
 651 0098 9269     		ldr	r2, [r2, #24]
 652 009a 1268     		ldr	r2, [r2, #0]
 653 009c 1268     		ldr	r2, [r2, #0]
 654 009e 42F00102 		orr	r2, r2, #1
 655 00a2 1A60     		str	r2, [r3, #0]
 656              		.loc 1 320 0
 657 00a4 049B     		ldr	r3, [sp, #16]
 658 00a6 9B88     		ldrh	r3, [r3, #4]	@ movhi
 659 00a8 9BB2     		uxth	r3, r3
 660 00aa 43F48053 		orr	r3, r3, #4096
 661 00ae 9AB2     		uxth	r2, r3
 662 00b0 049B     		ldr	r3, [sp, #16]
 663 00b2 9A80     		strh	r2, [r3, #4]	@ movhi
 664              		.loc 1 321 0
 665 00b4 019B     		ldr	r3, [sp, #4]
 666 00b6 9B69     		ldr	r3, [r3, #24]
 667 00b8 1B68     		ldr	r3, [r3, #0]
 668 00ba 5B68     		ldr	r3, [r3, #4]
 669 00bc 012B     		cmp	r3, #1
 670 00be 61D8     		bhi	.L41
 671              		.loc 1 322 0
 672 00c0 049B     		ldr	r3, [sp, #16]
 673 00c2 1B88     		ldrh	r3, [r3, #0]	@ movhi
 674 00c4 9BB2     		uxth	r3, r3
 675 00c6 23F48063 		bic	r3, r3, #1024
 676 00ca 9AB2     		uxth	r2, r3
 677 00cc 049B     		ldr	r3, [sp, #16]
 678 00ce 1A80     		strh	r2, [r3, #0]	@ movhi
 679              		.loc 1 323 0
 680 00d0 58E0     		b	.L41
 681              	.L29:
 682              		.loc 1 325 0
 683 00d2 049B     		ldr	r3, [sp, #16]
 684 00d4 9B88     		ldrh	r3, [r3, #4]	@ movhi
 685 00d6 9BB2     		uxth	r3, r3
 686 00d8 23F40073 		bic	r3, r3, #512
 687 00dc 9AB2     		uxth	r2, r3
 688 00de 049B     		ldr	r3, [sp, #16]
 689 00e0 9A80     		strh	r2, [r3, #4]	@ movhi
 690              		.loc 1 326 0
 691 00e2 019B     		ldr	r3, [sp, #4]
 692 00e4 DB69     		ldr	r3, [r3, #28]
 693 00e6 1B68     		ldr	r3, [r3, #0]
 694 00e8 019A     		ldr	r2, [sp, #4]
ARM GAS  C:\Users\z80\AppData\Local\Temp\ccyKjVO9.s 			page 14


 695 00ea D269     		ldr	r2, [r2, #28]
 696 00ec 1268     		ldr	r2, [r2, #0]
 697 00ee 1268     		ldr	r2, [r2, #0]
 698 00f0 42F00102 		orr	r2, r2, #1
 699 00f4 1A60     		str	r2, [r3, #0]
 700              		.loc 1 327 0
 701 00f6 46E0     		b	.L32
 702              	.L30:
 703              		.loc 1 330 0
 704 00f8 019B     		ldr	r3, [sp, #4]
 705 00fa 9B69     		ldr	r3, [r3, #24]
 706 00fc 1B68     		ldr	r3, [r3, #0]
 707 00fe 5B68     		ldr	r3, [r3, #4]
 708 0100 002B     		cmp	r3, #0
 709 0102 0FD0     		beq	.L34
 710              		.loc 1 332 0
 711 0104 019B     		ldr	r3, [sp, #4]
 712 0106 1B8A     		ldrh	r3, [r3, #16]
 713 0108 43F00103 		orr	r3, r3, #1
 714 010c 9AB2     		uxth	r2, r3
 715 010e 019B     		ldr	r3, [sp, #4]
 716 0110 1A82     		strh	r2, [r3, #16]	@ movhi
 717              		.loc 1 333 0
 718 0112 049B     		ldr	r3, [sp, #16]
 719 0114 1B88     		ldrh	r3, [r3, #0]	@ movhi
 720 0116 9BB2     		uxth	r3, r3
 721 0118 43F4A063 		orr	r3, r3, #1280
 722 011c 9AB2     		uxth	r2, r3
 723 011e 049B     		ldr	r3, [sp, #16]
 724 0120 1A80     		strh	r2, [r3, #0]	@ movhi
 725              		.loc 1 334 0
 726 0122 B4E0     		b	.L24
 727              	.L34:
 728              		.loc 1 336 0
 729 0124 049B     		ldr	r3, [sp, #16]
 730 0126 9B88     		ldrh	r3, [r3, #4]	@ movhi
 731 0128 9BB2     		uxth	r3, r3
 732 012a 23F40073 		bic	r3, r3, #512
 733 012e 9AB2     		uxth	r2, r3
 734 0130 049B     		ldr	r3, [sp, #16]
 735 0132 9A80     		strh	r2, [r3, #4]	@ movhi
 736              		.loc 1 337 0
 737 0134 049B     		ldr	r3, [sp, #16]
 738 0136 1B88     		ldrh	r3, [r3, #0]	@ movhi
 739 0138 9BB2     		uxth	r3, r3
 740 013a 43F40073 		orr	r3, r3, #512
 741 013e 9AB2     		uxth	r2, r3
 742 0140 049B     		ldr	r3, [sp, #16]
 743 0142 1A80     		strh	r2, [r3, #0]	@ movhi
 744              	.LBB3:
 745              		.loc 1 338 0
 746 0144 4FF02003 		mov	r3, #32
 747              	@ 338 "../chibios_2.4.x/os/hal/platforms/STM32/i2c_lld.c" 1
 748 0148 83F31188 		msr     BASEPRI, r3
 749              	@ 0 "" 2
 750              		.thumb
 751              	.LBE3:
ARM GAS  C:\Users\z80\AppData\Local\Temp\ccyKjVO9.s 			page 15


 752 014c FFF7FEFF 		bl	dbg_check_lock_from_isr
 753 0150 019B     		ldr	r3, [sp, #4]
 754 0152 DB68     		ldr	r3, [r3, #12]
 755 0154 002B     		cmp	r3, #0
 756 0156 0DD0     		beq	.L36
 757              	.LBB4:
 758              		.loc 1 338 0 is_stmt 0 discriminator 1
 759 0158 019B     		ldr	r3, [sp, #4]
 760 015a DB68     		ldr	r3, [r3, #12]
 761 015c 0293     		str	r3, [sp, #8]
 762 015e 019B     		ldr	r3, [sp, #4]
 763 0160 4FF00002 		mov	r2, #0
 764 0164 DA60     		str	r2, [r3, #12]
 765 0166 029B     		ldr	r3, [sp, #8]
 766 0168 4FF00002 		mov	r2, #0
 767 016c 9A62     		str	r2, [r3, #40]
 768 016e 0298     		ldr	r0, [sp, #8]
 769 0170 FFF7FEFF 		bl	chSchReadyI
 770              	.L36:
 771              	.LBE4:
 772              		.loc 1 338 0 discriminator 2
 773 0174 FFF7FEFF 		bl	dbg_check_unlock_from_isr
 774              	.LBB5:
 775 0178 4FF00003 		mov	r3, #0
 776              	@ 338 "../chibios_2.4.x/os/hal/platforms/STM32/i2c_lld.c" 1
 777 017c 83F31188 		msr     BASEPRI, r3
 778              	@ 0 "" 2
 779              		.thumb
 780              	.LBE5:
 781              		.loc 1 339 0 is_stmt 1 discriminator 2
 782 0180 01E0     		b	.L32
 783              	.L26:
 784              		.loc 1 341 0
 785 0182 00E0     		b	.L32
 786              	.L41:
 787              		.loc 1 323 0
 788 0184 00BF     		nop
 789              	.L32:
 790              		.loc 1 344 0
 791 0186 059B     		ldr	r3, [sp, #20]
 792 0188 03F00A03 		and	r3, r3, #10
 793 018c 002B     		cmp	r3, #0
 794 018e 7ED0     		beq	.L24
 795              		.loc 1 345 0
 796 0190 049B     		ldr	r3, [sp, #16]
 797 0192 1B8B     		ldrh	r3, [r3, #24]	@ movhi
 798 0194 7BE0     		b	.L24
 799              	.L25:
 800              		.loc 1 350 0
 801 0196 059B     		ldr	r3, [sp, #20]
 802 0198 03F00A03 		and	r3, r3, #10
 803 019c 002B     		cmp	r3, #0
 804 019e 0FD0     		beq	.L37
 805              		.loc 1 353 0
 806 01a0 019B     		ldr	r3, [sp, #4]
 807 01a2 4FF00002 		mov	r2, #0
 808 01a6 1A63     		str	r2, [r3, #48]
ARM GAS  C:\Users\z80\AppData\Local\Temp\ccyKjVO9.s 			page 16


 809              		.loc 1 354 0
 810 01a8 019B     		ldr	r3, [sp, #4]
 811 01aa 4FF00002 		mov	r2, #0
 812 01ae 1A64     		str	r2, [r3, #64]
 813              		.loc 1 357 0
 814 01b0 049B     		ldr	r3, [sp, #16]
 815 01b2 9B8A     		ldrh	r3, [r3, #20]	@ movhi
 816 01b4 9BB2     		uxth	r3, r3
 817 01b6 0593     		str	r3, [sp, #20]
 818              		.loc 1 358 0
 819 01b8 049B     		ldr	r3, [sp, #16]
 820 01ba 1B8B     		ldrh	r3, [r3, #24]	@ movhi
 821 01bc 9BB2     		uxth	r3, r3
 822 01be 0393     		str	r3, [sp, #12]
 823              	.L37:
 824              		.loc 1 360 0
 825 01c0 059B     		ldr	r3, [sp, #20]
 826 01c2 03F08003 		and	r3, r3, #128
 827 01c6 002B     		cmp	r3, #0
 828 01c8 16D0     		beq	.L38
 829              		.loc 1 362 0
 830 01ca 019B     		ldr	r3, [sp, #4]
 831 01cc 9A6B     		ldr	r2, [r3, #56]
 832 01ce 019B     		ldr	r3, [sp, #4]
 833 01d0 1B6C     		ldr	r3, [r3, #64]
 834 01d2 D218     		adds	r2, r2, r3
 835 01d4 1278     		ldrb	r2, [r2, #0]	@ zero_extendqisi2
 836 01d6 1146     		mov	r1, r2
 837 01d8 049A     		ldr	r2, [sp, #16]
 838 01da 1182     		strh	r1, [r2, #16]	@ movhi
 839 01dc 03F10102 		add	r2, r3, #1
 840 01e0 019B     		ldr	r3, [sp, #4]
 841 01e2 1A64     		str	r2, [r3, #64]
 842              		.loc 1 363 0
 843 01e4 019B     		ldr	r3, [sp, #4]
 844 01e6 1A6B     		ldr	r2, [r3, #48]
 845 01e8 019B     		ldr	r3, [sp, #4]
 846 01ea DB6B     		ldr	r3, [r3, #60]
 847 01ec 9A42     		cmp	r2, r3
 848 01ee 03D3     		bcc	.L38
 849              		.loc 1 364 0
 850 01f0 019B     		ldr	r3, [sp, #4]
 851 01f2 4FF00002 		mov	r2, #0
 852 01f6 1A64     		str	r2, [r3, #64]
 853              	.L38:
 854              		.loc 1 366 0
 855 01f8 059B     		ldr	r3, [sp, #20]
 856 01fa 03F04003 		and	r3, r3, #64
 857 01fe 002B     		cmp	r3, #0
 858 0200 17D0     		beq	.L39
 859              		.loc 1 368 0
 860 0202 019B     		ldr	r3, [sp, #4]
 861 0204 9A6A     		ldr	r2, [r3, #40]
 862 0206 019B     		ldr	r3, [sp, #4]
 863 0208 1B6B     		ldr	r3, [r3, #48]
 864 020a D218     		adds	r2, r2, r3
 865 020c 0499     		ldr	r1, [sp, #16]
ARM GAS  C:\Users\z80\AppData\Local\Temp\ccyKjVO9.s 			page 17


 866 020e 098A     		ldrh	r1, [r1, #16]	@ movhi
 867 0210 89B2     		uxth	r1, r1
 868 0212 C9B2     		uxtb	r1, r1
 869 0214 1170     		strb	r1, [r2, #0]
 870 0216 03F10102 		add	r2, r3, #1
 871 021a 019B     		ldr	r3, [sp, #4]
 872 021c 1A63     		str	r2, [r3, #48]
 873              		.loc 1 369 0
 874 021e 019B     		ldr	r3, [sp, #4]
 875 0220 1A6B     		ldr	r2, [r3, #48]
 876 0222 019B     		ldr	r3, [sp, #4]
 877 0224 DB6A     		ldr	r3, [r3, #44]
 878 0226 9A42     		cmp	r2, r3
 879 0228 03D3     		bcc	.L39
 880              		.loc 1 370 0
 881 022a 019B     		ldr	r3, [sp, #4]
 882 022c 4FF00002 		mov	r2, #0
 883 0230 1A63     		str	r2, [r3, #48]
 884              	.L39:
 885              		.loc 1 372 0
 886 0232 059B     		ldr	r3, [sp, #20]
 887 0234 03F01003 		and	r3, r3, #16
 888 0238 002B     		cmp	r3, #0
 889 023a 13D0     		beq	.L40
 890              		.loc 1 375 0
 891 023c 049B     		ldr	r3, [sp, #16]
 892 023e 9B8A     		ldrh	r3, [r3, #20]	@ movhi
 893 0240 9BB2     		uxth	r3, r3
 894 0242 0593     		str	r3, [sp, #20]
 895              		.loc 1 376 0
 896 0244 049B     		ldr	r3, [sp, #16]
 897 0246 1B88     		ldrh	r3, [r3, #0]	@ movhi
 898 0248 9BB2     		uxth	r3, r3
 899 024a 43F00103 		orr	r3, r3, #1
 900 024e 9AB2     		uxth	r2, r3
 901 0250 049B     		ldr	r3, [sp, #16]
 902 0252 1A80     		strh	r2, [r3, #0]	@ movhi
 903              		.loc 1 379 0
 904 0254 019B     		ldr	r3, [sp, #4]
 905 0256 5B6B     		ldr	r3, [r3, #52]
 906 0258 002B     		cmp	r3, #0
 907 025a 03D0     		beq	.L40
 908              		.loc 1 380 0
 909 025c 019B     		ldr	r3, [sp, #4]
 910 025e 5B6B     		ldr	r3, [r3, #52]
 911 0260 0198     		ldr	r0, [sp, #4]
 912 0262 9847     		blx	r3
 913              	.L40:
 914              		.loc 1 382 0
 915 0264 059B     		ldr	r3, [sp, #20]
 916 0266 03F48063 		and	r3, r3, #1024
 917 026a 002B     		cmp	r3, #0
 918 026c 0FD0     		beq	.L24
 919              		.loc 1 384 0
 920 026e 049B     		ldr	r3, [sp, #16]
 921 0270 9B8A     		ldrh	r3, [r3, #20]	@ movhi
 922 0272 9BB2     		uxth	r3, r3
ARM GAS  C:\Users\z80\AppData\Local\Temp\ccyKjVO9.s 			page 18


 923 0274 23F48063 		bic	r3, r3, #1024
 924 0278 9AB2     		uxth	r2, r3
 925 027a 049B     		ldr	r3, [sp, #16]
 926 027c 9A82     		strh	r2, [r3, #20]	@ movhi
 927              		.loc 1 387 0
 928 027e 019B     		ldr	r3, [sp, #4]
 929 0280 5B6C     		ldr	r3, [r3, #68]
 930 0282 002B     		cmp	r3, #0
 931 0284 03D0     		beq	.L24
 932              		.loc 1 388 0
 933 0286 019B     		ldr	r3, [sp, #4]
 934 0288 5B6C     		ldr	r3, [r3, #68]
 935 028a 0198     		ldr	r0, [sp, #4]
 936 028c 9847     		blx	r3
 937              	.L24:
 938              		.loc 1 392 0
 939 028e 07B0     		add	sp, sp, #28
 940 0290 00BD     		pop	{pc}
 941              		.cfi_endproc
 942              	.LFE66:
 943              		.size	i2c_lld_serve_event_interrupt, .-i2c_lld_serve_event_interrupt
 944 0292 00BFAFF3 		.section	.text.i2c_lld_serve_rx_end_irq,"ax",%progbits
 944      0080AFF3 
 944      0080AFF3 
 944      0080
 945              		.align	2
 946              		.p2align 4,,15
 947              		.thumb
 948              		.thumb_func
 949              		.type	i2c_lld_serve_rx_end_irq, %function
 950              	i2c_lld_serve_rx_end_irq:
 951              	.LFB67:
 952              		.loc 1 402 0
 953              		.cfi_startproc
 954              		@ args = 0, pretend = 0, frame = 16
 955              		@ frame_needed = 0, uses_anonymous_args = 0
 956 0000 00B5     		push	{lr}
 957              	.LCFI8:
 958              		.cfi_def_cfa_offset 4
 959              		.cfi_offset 14, -4
 960 0002 85B0     		sub	sp, sp, #20
 961              	.LCFI9:
 962              		.cfi_def_cfa_offset 24
 963 0004 0190     		str	r0, [sp, #4]
 964 0006 0091     		str	r1, [sp, #0]
 965              		.loc 1 403 0
 966 0008 019B     		ldr	r3, [sp, #4]
 967 000a 1B6A     		ldr	r3, [r3, #32]
 968 000c 0393     		str	r3, [sp, #12]
 969              		.loc 1 407 0
 970 000e 009B     		ldr	r3, [sp, #0]
 971 0010 03F00803 		and	r3, r3, #8
 972 0014 002B     		cmp	r3, #0
 973 0016 01D0     		beq	.L43
 974              		.loc 1 408 0
 975 0018 FFF7FEFF 		bl	port_halt
 976              	.L43:
ARM GAS  C:\Users\z80\AppData\Local\Temp\ccyKjVO9.s 			page 19


 977              		.loc 1 414 0
 978 001c 019B     		ldr	r3, [sp, #4]
 979 001e 9B69     		ldr	r3, [r3, #24]
 980 0020 1B68     		ldr	r3, [r3, #0]
 981 0022 019A     		ldr	r2, [sp, #4]
 982 0024 9269     		ldr	r2, [r2, #24]
 983 0026 1268     		ldr	r2, [r2, #0]
 984 0028 1268     		ldr	r2, [r2, #0]
 985 002a 22F00102 		bic	r2, r2, #1
 986 002e 1A60     		str	r2, [r3, #0]
 987 0030 019B     		ldr	r3, [sp, #4]
 988 0032 9B69     		ldr	r3, [r3, #24]
 989 0034 5B68     		ldr	r3, [r3, #4]
 990 0036 019A     		ldr	r2, [sp, #4]
 991 0038 9269     		ldr	r2, [r2, #24]
 992 003a 127A     		ldrb	r2, [r2, #8]	@ zero_extendqisi2
 993 003c 4FF00F01 		mov	r1, #15
 994 0040 01FA02F2 		lsl	r2, r1, r2
 995 0044 1A60     		str	r2, [r3, #0]
 996              		.loc 1 417 0
 997 0046 019B     		ldr	r3, [sp, #4]
 998 0048 93F82430 		ldrb	r3, [r3, #36]	@ zero_extendqisi2
 999 004c 002B     		cmp	r3, #0
 1000 004e 35D1     		bne	.L42
 1001              		.loc 1 420 0
 1002 0050 039B     		ldr	r3, [sp, #12]
 1003 0052 9B88     		ldrh	r3, [r3, #4]	@ movhi
 1004 0054 9BB2     		uxth	r3, r3
 1005 0056 23F48053 		bic	r3, r3, #4096
 1006 005a 9AB2     		uxth	r2, r3
 1007 005c 039B     		ldr	r3, [sp, #12]
 1008 005e 9A80     		strh	r2, [r3, #4]	@ movhi
 1009              		.loc 1 421 0
 1010 0060 039B     		ldr	r3, [sp, #12]
 1011 0062 1B88     		ldrh	r3, [r3, #0]	@ movhi
 1012 0064 9BB2     		uxth	r3, r3
 1013 0066 23F48063 		bic	r3, r3, #1024
 1014 006a 9AB2     		uxth	r2, r3
 1015 006c 039B     		ldr	r3, [sp, #12]
 1016 006e 1A80     		strh	r2, [r3, #0]	@ movhi
 1017              		.loc 1 422 0
 1018 0070 039B     		ldr	r3, [sp, #12]
 1019 0072 1B88     		ldrh	r3, [r3, #0]	@ movhi
 1020 0074 9BB2     		uxth	r3, r3
 1021 0076 43F40073 		orr	r3, r3, #512
 1022 007a 9AB2     		uxth	r2, r3
 1023 007c 039B     		ldr	r3, [sp, #12]
 1024 007e 1A80     		strh	r2, [r3, #0]	@ movhi
 1025              	.LBB6:
 1026              		.loc 1 423 0
 1027 0080 4FF02003 		mov	r3, #32
 1028              	@ 423 "../chibios_2.4.x/os/hal/platforms/STM32/i2c_lld.c" 1
 1029 0084 83F31188 		msr     BASEPRI, r3
 1030              	@ 0 "" 2
 1031              		.thumb
 1032              	.LBE6:
 1033 0088 FFF7FEFF 		bl	dbg_check_lock_from_isr
ARM GAS  C:\Users\z80\AppData\Local\Temp\ccyKjVO9.s 			page 20


 1034 008c 019B     		ldr	r3, [sp, #4]
 1035 008e DB68     		ldr	r3, [r3, #12]
 1036 0090 002B     		cmp	r3, #0
 1037 0092 0DD0     		beq	.L45
 1038              	.LBB7:
 1039              		.loc 1 423 0 is_stmt 0 discriminator 1
 1040 0094 019B     		ldr	r3, [sp, #4]
 1041 0096 DB68     		ldr	r3, [r3, #12]
 1042 0098 0293     		str	r3, [sp, #8]
 1043 009a 019B     		ldr	r3, [sp, #4]
 1044 009c 4FF00002 		mov	r2, #0
 1045 00a0 DA60     		str	r2, [r3, #12]
 1046 00a2 029B     		ldr	r3, [sp, #8]
 1047 00a4 4FF00002 		mov	r2, #0
 1048 00a8 9A62     		str	r2, [r3, #40]
 1049 00aa 0298     		ldr	r0, [sp, #8]
 1050 00ac FFF7FEFF 		bl	chSchReadyI
 1051              	.L45:
 1052              	.LBE7:
 1053              		.loc 1 423 0 discriminator 2
 1054 00b0 FFF7FEFF 		bl	dbg_check_unlock_from_isr
 1055              	.LBB8:
 1056 00b4 4FF00003 		mov	r3, #0
 1057              	@ 423 "../chibios_2.4.x/os/hal/platforms/STM32/i2c_lld.c" 1
 1058 00b8 83F31188 		msr     BASEPRI, r3
 1059              	@ 0 "" 2
 1060              		.thumb
 1061              	.L42:
 1062              	.LBE8:
 1063              		.loc 1 427 0 is_stmt 1
 1064 00bc 05B0     		add	sp, sp, #20
 1065 00be 00BD     		pop	{pc}
 1066              		.cfi_endproc
 1067              	.LFE67:
 1068              		.size	i2c_lld_serve_rx_end_irq, .-i2c_lld_serve_rx_end_irq
 1069              		.section	.text.i2c_lld_serve_tx_end_irq,"ax",%progbits
 1070              		.align	2
 1071              		.p2align 4,,15
 1072              		.thumb
 1073              		.thumb_func
 1074              		.type	i2c_lld_serve_tx_end_irq, %function
 1075              	i2c_lld_serve_tx_end_irq:
 1076              	.LFB68:
 1077              		.loc 1 436 0
 1078              		.cfi_startproc
 1079              		@ args = 0, pretend = 0, frame = 16
 1080              		@ frame_needed = 0, uses_anonymous_args = 0
 1081 0000 00B5     		push	{lr}
 1082              	.LCFI10:
 1083              		.cfi_def_cfa_offset 4
 1084              		.cfi_offset 14, -4
 1085 0002 85B0     		sub	sp, sp, #20
 1086              	.LCFI11:
 1087              		.cfi_def_cfa_offset 24
 1088 0004 0190     		str	r0, [sp, #4]
 1089 0006 0091     		str	r1, [sp, #0]
 1090              		.loc 1 437 0
ARM GAS  C:\Users\z80\AppData\Local\Temp\ccyKjVO9.s 			page 21


 1091 0008 019B     		ldr	r3, [sp, #4]
 1092 000a 1B6A     		ldr	r3, [r3, #32]
 1093 000c 0393     		str	r3, [sp, #12]
 1094              		.loc 1 441 0
 1095 000e 009B     		ldr	r3, [sp, #0]
 1096 0010 03F00803 		and	r3, r3, #8
 1097 0014 002B     		cmp	r3, #0
 1098 0016 01D0     		beq	.L47
 1099              		.loc 1 442 0
 1100 0018 FFF7FEFF 		bl	port_halt
 1101              	.L47:
 1102              		.loc 1 448 0
 1103 001c 019B     		ldr	r3, [sp, #4]
 1104 001e DB69     		ldr	r3, [r3, #28]
 1105 0020 1B68     		ldr	r3, [r3, #0]
 1106 0022 019A     		ldr	r2, [sp, #4]
 1107 0024 D269     		ldr	r2, [r2, #28]
 1108 0026 1268     		ldr	r2, [r2, #0]
 1109 0028 1268     		ldr	r2, [r2, #0]
 1110 002a 22F00102 		bic	r2, r2, #1
 1111 002e 1A60     		str	r2, [r3, #0]
 1112 0030 019B     		ldr	r3, [sp, #4]
 1113 0032 DB69     		ldr	r3, [r3, #28]
 1114 0034 5B68     		ldr	r3, [r3, #4]
 1115 0036 019A     		ldr	r2, [sp, #4]
 1116 0038 D269     		ldr	r2, [r2, #28]
 1117 003a 127A     		ldrb	r2, [r2, #8]	@ zero_extendqisi2
 1118 003c 4FF00F01 		mov	r1, #15
 1119 0040 01FA02F2 		lsl	r2, r1, r2
 1120 0044 1A60     		str	r2, [r3, #0]
 1121              		.loc 1 452 0
 1122 0046 039B     		ldr	r3, [sp, #12]
 1123 0048 9B88     		ldrh	r3, [r3, #4]	@ movhi
 1124 004a 9BB2     		uxth	r3, r3
 1125 004c 43F40073 		orr	r3, r3, #512
 1126 0050 9AB2     		uxth	r2, r3
 1127 0052 039B     		ldr	r3, [sp, #12]
 1128 0054 9A80     		strh	r2, [r3, #4]	@ movhi
 1129              		.loc 1 453 0
 1130 0056 05B0     		add	sp, sp, #20
 1131 0058 00BD     		pop	{pc}
 1132              		.cfi_endproc
 1133              	.LFE68:
 1134              		.size	i2c_lld_serve_tx_end_irq, .-i2c_lld_serve_tx_end_irq
 1135 005a 00BFAFF3 		.section	.text.i2c_lld_serve_error_interrupt,"ax",%progbits
 1135      0080
 1136              		.align	2
 1137              		.p2align 4,,15
 1138              		.thumb
 1139              		.thumb_func
 1140              		.type	i2c_lld_serve_error_interrupt, %function
 1141              	i2c_lld_serve_error_interrupt:
 1142              	.LFB69:
 1143              		.loc 1 462 0
 1144              		.cfi_startproc
 1145              		@ args = 0, pretend = 0, frame = 24
 1146              		@ frame_needed = 0, uses_anonymous_args = 0
ARM GAS  C:\Users\z80\AppData\Local\Temp\ccyKjVO9.s 			page 22


 1147 0000 00B5     		push	{lr}
 1148              	.LCFI12:
 1149              		.cfi_def_cfa_offset 4
 1150              		.cfi_offset 14, -4
 1151 0002 87B0     		sub	sp, sp, #28
 1152              	.LCFI13:
 1153              		.cfi_def_cfa_offset 32
 1154 0004 0190     		str	r0, [sp, #4]
 1155              		.loc 1 463 0
 1156 0006 019B     		ldr	r3, [sp, #4]
 1157 0008 1B6A     		ldr	r3, [r3, #32]
 1158 000a 0493     		str	r3, [sp, #16]
 1159              	.LBB9:
 1160              		.loc 1 467 0
 1161 000c 4FF02003 		mov	r3, #32
 1162              	@ 467 "../chibios_2.4.x/os/hal/platforms/STM32/i2c_lld.c" 1
 1163 0010 83F31188 		msr     BASEPRI, r3
 1164              	@ 0 "" 2
 1165              		.thumb
 1166              	.LBE9:
 1167 0014 FFF7FEFF 		bl	dbg_check_lock_from_isr
 1168              		.loc 1 468 0
 1169 0018 019B     		ldr	r3, [sp, #4]
 1170 001a DB69     		ldr	r3, [r3, #28]
 1171 001c 1B68     		ldr	r3, [r3, #0]
 1172 001e 019A     		ldr	r2, [sp, #4]
 1173 0020 D269     		ldr	r2, [r2, #28]
 1174 0022 1268     		ldr	r2, [r2, #0]
 1175 0024 1268     		ldr	r2, [r2, #0]
 1176 0026 22F00102 		bic	r2, r2, #1
 1177 002a 1A60     		str	r2, [r3, #0]
 1178 002c 019B     		ldr	r3, [sp, #4]
 1179 002e DB69     		ldr	r3, [r3, #28]
 1180 0030 5B68     		ldr	r3, [r3, #4]
 1181 0032 019A     		ldr	r2, [sp, #4]
 1182 0034 D269     		ldr	r2, [r2, #28]
 1183 0036 127A     		ldrb	r2, [r2, #8]	@ zero_extendqisi2
 1184 0038 4FF00F01 		mov	r1, #15
 1185 003c 01FA02F2 		lsl	r2, r1, r2
 1186 0040 1A60     		str	r2, [r3, #0]
 1187              		.loc 1 469 0
 1188 0042 019B     		ldr	r3, [sp, #4]
 1189 0044 9B69     		ldr	r3, [r3, #24]
 1190 0046 1B68     		ldr	r3, [r3, #0]
 1191 0048 019A     		ldr	r2, [sp, #4]
 1192 004a 9269     		ldr	r2, [r2, #24]
 1193 004c 1268     		ldr	r2, [r2, #0]
 1194 004e 1268     		ldr	r2, [r2, #0]
 1195 0050 22F00102 		bic	r2, r2, #1
 1196 0054 1A60     		str	r2, [r3, #0]
 1197 0056 019B     		ldr	r3, [sp, #4]
 1198 0058 9B69     		ldr	r3, [r3, #24]
 1199 005a 5B68     		ldr	r3, [r3, #4]
 1200 005c 019A     		ldr	r2, [sp, #4]
 1201 005e 9269     		ldr	r2, [r2, #24]
 1202 0060 127A     		ldrb	r2, [r2, #8]	@ zero_extendqisi2
 1203 0062 4FF00F01 		mov	r1, #15
ARM GAS  C:\Users\z80\AppData\Local\Temp\ccyKjVO9.s 			page 23


 1204 0066 01FA02F2 		lsl	r2, r1, r2
 1205 006a 1A60     		str	r2, [r3, #0]
 1206              		.loc 1 470 0
 1207 006c FFF7FEFF 		bl	dbg_check_unlock_from_isr
 1208              	.LBB10:
 1209 0070 4FF00003 		mov	r3, #0
 1210              	@ 470 "../chibios_2.4.x/os/hal/platforms/STM32/i2c_lld.c" 1
 1211 0074 83F31188 		msr     BASEPRI, r3
 1212              	@ 0 "" 2
 1213              		.thumb
 1214              	.LBE10:
 1215              		.loc 1 472 0
 1216 0078 4FF00003 		mov	r3, #0
 1217 007c 0593     		str	r3, [sp, #20]
 1218              		.loc 1 474 0
 1219 007e 049B     		ldr	r3, [sp, #16]
 1220 0080 9B8A     		ldrh	r3, [r3, #20]	@ movhi
 1221 0082 9BB2     		uxth	r3, r3
 1222 0084 03F48073 		and	r3, r3, #256
 1223 0088 002B     		cmp	r3, #0
 1224 008a 0BD0     		beq	.L49
 1225              		.loc 1 475 0
 1226 008c 049B     		ldr	r3, [sp, #16]
 1227 008e 9B8A     		ldrh	r3, [r3, #20]	@ movhi
 1228 0090 9BB2     		uxth	r3, r3
 1229 0092 23F48073 		bic	r3, r3, #256
 1230 0096 9AB2     		uxth	r2, r3
 1231 0098 049B     		ldr	r3, [sp, #16]
 1232 009a 9A82     		strh	r2, [r3, #20]	@ movhi
 1233              		.loc 1 476 0
 1234 009c 059B     		ldr	r3, [sp, #20]
 1235 009e 43F00103 		orr	r3, r3, #1
 1236 00a2 0593     		str	r3, [sp, #20]
 1237              	.L49:
 1238              		.loc 1 478 0
 1239 00a4 049B     		ldr	r3, [sp, #16]
 1240 00a6 9B8A     		ldrh	r3, [r3, #20]	@ movhi
 1241 00a8 9BB2     		uxth	r3, r3
 1242 00aa 03F40073 		and	r3, r3, #512
 1243 00ae 002B     		cmp	r3, #0
 1244 00b0 0BD0     		beq	.L50
 1245              		.loc 1 479 0
 1246 00b2 049B     		ldr	r3, [sp, #16]
 1247 00b4 9B8A     		ldrh	r3, [r3, #20]	@ movhi
 1248 00b6 9BB2     		uxth	r3, r3
 1249 00b8 23F40073 		bic	r3, r3, #512
 1250 00bc 9AB2     		uxth	r2, r3
 1251 00be 049B     		ldr	r3, [sp, #16]
 1252 00c0 9A82     		strh	r2, [r3, #20]	@ movhi
 1253              		.loc 1 480 0
 1254 00c2 059B     		ldr	r3, [sp, #20]
 1255 00c4 43F00203 		orr	r3, r3, #2
 1256 00c8 0593     		str	r3, [sp, #20]
 1257              	.L50:
 1258              		.loc 1 483 0
 1259 00ca 019B     		ldr	r3, [sp, #4]
 1260 00cc 93F82430 		ldrb	r3, [r3, #36]	@ zero_extendqisi2
ARM GAS  C:\Users\z80\AppData\Local\Temp\ccyKjVO9.s 			page 24


 1261 00d0 002B     		cmp	r3, #0
 1262 00d2 23D1     		bne	.L51
 1263              		.loc 1 486 0
 1264 00d4 049B     		ldr	r3, [sp, #16]
 1265 00d6 9B8A     		ldrh	r3, [r3, #20]	@ movhi
 1266 00d8 9BB2     		uxth	r3, r3
 1267 00da 03F48063 		and	r3, r3, #1024
 1268 00de 002B     		cmp	r3, #0
 1269 00e0 2CD0     		beq	.L52
 1270              		.loc 1 487 0
 1271 00e2 049B     		ldr	r3, [sp, #16]
 1272 00e4 9B8A     		ldrh	r3, [r3, #20]	@ movhi
 1273 00e6 9BB2     		uxth	r3, r3
 1274 00e8 23F48063 		bic	r3, r3, #1024
 1275 00ec 9AB2     		uxth	r2, r3
 1276 00ee 049B     		ldr	r3, [sp, #16]
 1277 00f0 9A82     		strh	r2, [r3, #20]	@ movhi
 1278              		.loc 1 488 0
 1279 00f2 049B     		ldr	r3, [sp, #16]
 1280 00f4 9B88     		ldrh	r3, [r3, #4]	@ movhi
 1281 00f6 9BB2     		uxth	r3, r3
 1282 00f8 23F40073 		bic	r3, r3, #512
 1283 00fc 9AB2     		uxth	r2, r3
 1284 00fe 049B     		ldr	r3, [sp, #16]
 1285 0100 9A80     		strh	r2, [r3, #4]	@ movhi
 1286              		.loc 1 489 0
 1287 0102 049B     		ldr	r3, [sp, #16]
 1288 0104 1B88     		ldrh	r3, [r3, #0]	@ movhi
 1289 0106 9BB2     		uxth	r3, r3
 1290 0108 43F40073 		orr	r3, r3, #512
 1291 010c 9AB2     		uxth	r2, r3
 1292 010e 049B     		ldr	r3, [sp, #16]
 1293 0110 1A80     		strh	r2, [r3, #0]	@ movhi
 1294              		.loc 1 490 0
 1295 0112 059B     		ldr	r3, [sp, #20]
 1296 0114 43F00403 		orr	r3, r3, #4
 1297 0118 0593     		str	r3, [sp, #20]
 1298 011a 0FE0     		b	.L52
 1299              	.L51:
 1300              		.loc 1 498 0
 1301 011c 049B     		ldr	r3, [sp, #16]
 1302 011e 9B8A     		ldrh	r3, [r3, #20]	@ movhi
 1303 0120 9BB2     		uxth	r3, r3
 1304 0122 23F48063 		bic	r3, r3, #1024
 1305 0126 9AB2     		uxth	r2, r3
 1306 0128 049B     		ldr	r3, [sp, #16]
 1307 012a 9A82     		strh	r2, [r3, #20]	@ movhi
 1308              		.loc 1 501 0
 1309 012c 019B     		ldr	r3, [sp, #4]
 1310 012e 5B6C     		ldr	r3, [r3, #68]
 1311 0130 002B     		cmp	r3, #0
 1312 0132 03D0     		beq	.L52
 1313              		.loc 1 502 0
 1314 0134 019B     		ldr	r3, [sp, #4]
 1315 0136 5B6C     		ldr	r3, [r3, #68]
 1316 0138 0198     		ldr	r0, [sp, #4]
 1317 013a 9847     		blx	r3
ARM GAS  C:\Users\z80\AppData\Local\Temp\ccyKjVO9.s 			page 25


 1318              	.L52:
 1319              		.loc 1 505 0
 1320 013c 049B     		ldr	r3, [sp, #16]
 1321 013e 9B8A     		ldrh	r3, [r3, #20]	@ movhi
 1322 0140 9BB2     		uxth	r3, r3
 1323 0142 03F40063 		and	r3, r3, #2048
 1324 0146 002B     		cmp	r3, #0
 1325 0148 0BD0     		beq	.L53
 1326              		.loc 1 506 0
 1327 014a 049B     		ldr	r3, [sp, #16]
 1328 014c 9B8A     		ldrh	r3, [r3, #20]	@ movhi
 1329 014e 9BB2     		uxth	r3, r3
 1330 0150 23F40063 		bic	r3, r3, #2048
 1331 0154 9AB2     		uxth	r2, r3
 1332 0156 049B     		ldr	r3, [sp, #16]
 1333 0158 9A82     		strh	r2, [r3, #20]	@ movhi
 1334              		.loc 1 507 0
 1335 015a 059B     		ldr	r3, [sp, #20]
 1336 015c 43F00803 		orr	r3, r3, #8
 1337 0160 0593     		str	r3, [sp, #20]
 1338              	.L53:
 1339              		.loc 1 509 0
 1340 0162 049B     		ldr	r3, [sp, #16]
 1341 0164 9B8A     		ldrh	r3, [r3, #20]	@ movhi
 1342 0166 9BB2     		uxth	r3, r3
 1343 0168 03F48053 		and	r3, r3, #4096
 1344 016c 002B     		cmp	r3, #0
 1345 016e 0BD0     		beq	.L54
 1346              		.loc 1 510 0
 1347 0170 049B     		ldr	r3, [sp, #16]
 1348 0172 9B8A     		ldrh	r3, [r3, #20]	@ movhi
 1349 0174 9BB2     		uxth	r3, r3
 1350 0176 23F48053 		bic	r3, r3, #4096
 1351 017a 9AB2     		uxth	r2, r3
 1352 017c 049B     		ldr	r3, [sp, #16]
 1353 017e 9A82     		strh	r2, [r3, #20]	@ movhi
 1354              		.loc 1 511 0
 1355 0180 059B     		ldr	r3, [sp, #20]
 1356 0182 43F01003 		orr	r3, r3, #16
 1357 0186 0593     		str	r3, [sp, #20]
 1358              	.L54:
 1359              		.loc 1 513 0
 1360 0188 049B     		ldr	r3, [sp, #16]
 1361 018a 9B8A     		ldrh	r3, [r3, #20]	@ movhi
 1362 018c 9BB2     		uxth	r3, r3
 1363 018e 03F48043 		and	r3, r3, #16384
 1364 0192 002B     		cmp	r3, #0
 1365 0194 0BD0     		beq	.L55
 1366              		.loc 1 514 0
 1367 0196 049B     		ldr	r3, [sp, #16]
 1368 0198 9B8A     		ldrh	r3, [r3, #20]	@ movhi
 1369 019a 9BB2     		uxth	r3, r3
 1370 019c 23F48043 		bic	r3, r3, #16384
 1371 01a0 9AB2     		uxth	r2, r3
 1372 01a2 049B     		ldr	r3, [sp, #16]
 1373 01a4 9A82     		strh	r2, [r3, #20]	@ movhi
 1374              		.loc 1 515 0
ARM GAS  C:\Users\z80\AppData\Local\Temp\ccyKjVO9.s 			page 26


 1375 01a6 059B     		ldr	r3, [sp, #20]
 1376 01a8 43F02003 		orr	r3, r3, #32
 1377 01ac 0593     		str	r3, [sp, #20]
 1378              	.L55:
 1379              		.loc 1 517 0
 1380 01ae 049B     		ldr	r3, [sp, #16]
 1381 01b0 9B8A     		ldrh	r3, [r3, #20]	@ movhi
 1382 01b2 9BB2     		uxth	r3, r3
 1383 01b4 9BB2     		uxth	r3, r3
 1384 01b6 1BB2     		sxth	r3, r3
 1385 01b8 002B     		cmp	r3, #0
 1386 01ba 0DDA     		bge	.L56
 1387              		.loc 1 518 0
 1388 01bc 049B     		ldr	r3, [sp, #16]
 1389 01be 9B8A     		ldrh	r3, [r3, #20]	@ movhi
 1390 01c0 9BB2     		uxth	r3, r3
 1391 01c2 4FEA4343 		lsl	r3, r3, #17
 1392 01c6 4FEA5343 		lsr	r3, r3, #17
 1393 01ca 9AB2     		uxth	r2, r3
 1394 01cc 049B     		ldr	r3, [sp, #16]
 1395 01ce 9A82     		strh	r2, [r3, #20]	@ movhi
 1396              		.loc 1 519 0
 1397 01d0 059B     		ldr	r3, [sp, #20]
 1398 01d2 43F04003 		orr	r3, r3, #64
 1399 01d6 0593     		str	r3, [sp, #20]
 1400              	.L56:
 1401              		.loc 1 523 0
 1402 01d8 059B     		ldr	r3, [sp, #20]
 1403 01da 002B     		cmp	r3, #0
 1404 01dc 20D0     		beq	.L48
 1405              		.loc 1 524 0
 1406 01de 019B     		ldr	r3, [sp, #4]
 1407 01e0 059A     		ldr	r2, [sp, #20]
 1408 01e2 9A60     		str	r2, [r3, #8]
 1409              	.LBB11:
 1410              		.loc 1 525 0
 1411 01e4 4FF02003 		mov	r3, #32
 1412              	@ 525 "../chibios_2.4.x/os/hal/platforms/STM32/i2c_lld.c" 1
 1413 01e8 83F31188 		msr     BASEPRI, r3
 1414              	@ 0 "" 2
 1415              		.thumb
 1416              	.LBE11:
 1417 01ec FFF7FEFF 		bl	dbg_check_lock_from_isr
 1418 01f0 019B     		ldr	r3, [sp, #4]
 1419 01f2 DB68     		ldr	r3, [r3, #12]
 1420 01f4 002B     		cmp	r3, #0
 1421 01f6 0DD0     		beq	.L58
 1422              	.LBB12:
 1423              		.loc 1 525 0 is_stmt 0 discriminator 1
 1424 01f8 019B     		ldr	r3, [sp, #4]
 1425 01fa DB68     		ldr	r3, [r3, #12]
 1426 01fc 0393     		str	r3, [sp, #12]
 1427 01fe 019B     		ldr	r3, [sp, #4]
 1428 0200 4FF00002 		mov	r2, #0
 1429 0204 DA60     		str	r2, [r3, #12]
 1430 0206 039B     		ldr	r3, [sp, #12]
 1431 0208 6FF00102 		mvn	r2, #1
ARM GAS  C:\Users\z80\AppData\Local\Temp\ccyKjVO9.s 			page 27


 1432 020c 9A62     		str	r2, [r3, #40]
 1433 020e 0398     		ldr	r0, [sp, #12]
 1434 0210 FFF7FEFF 		bl	chSchReadyI
 1435              	.L58:
 1436              	.LBE12:
 1437              		.loc 1 525 0 discriminator 2
 1438 0214 FFF7FEFF 		bl	dbg_check_unlock_from_isr
 1439              	.LBB13:
 1440 0218 4FF00003 		mov	r3, #0
 1441              	@ 525 "../chibios_2.4.x/os/hal/platforms/STM32/i2c_lld.c" 1
 1442 021c 83F31188 		msr     BASEPRI, r3
 1443              	@ 0 "" 2
 1444              		.thumb
 1445              	.L48:
 1446              	.LBE13:
 1447              		.loc 1 527 0 is_stmt 1
 1448 0220 07B0     		add	sp, sp, #28
 1449 0222 00BD     		pop	{pc}
 1450              		.cfi_endproc
 1451              	.LFE69:
 1452              		.size	i2c_lld_serve_error_interrupt, .-i2c_lld_serve_error_interrupt
 1453 0224 AFF30080 		.section	.text.VectorBC,"ax",%progbits
 1453      AFF30080 
 1453      AFF30080 
 1454              		.align	2
 1455              		.p2align 4,,15
 1456              		.global	VectorBC
 1457              		.thumb
 1458              		.thumb_func
 1459              		.type	VectorBC, %function
 1460              	VectorBC:
 1461              	.LFB70:
 1462              		.loc 1 539 0
 1463              		.cfi_startproc
 1464              		@ args = 0, pretend = 0, frame = 0
 1465              		@ frame_needed = 0, uses_anonymous_args = 0
 1466 0000 08B5     		push	{r3, lr}
 1467              	.LCFI14:
 1468              		.cfi_def_cfa_offset 8
 1469              		.cfi_offset 14, -4
 1470              		.cfi_offset 3, -8
 1471              		.loc 1 541 0
 1472 0002 FFF7FEFF 		bl	dbg_check_enter_isr
 1473              		.loc 1 543 0
 1474 0006 40F20000 		movw	r0, #:lower16:I2CD1
 1475 000a C0F20000 		movt	r0, #:upper16:I2CD1
 1476 000e FFF7FEFF 		bl	i2c_lld_serve_event_interrupt
 1477              		.loc 1 545 0
 1478 0012 FFF7FEFF 		bl	dbg_check_leave_isr
 1479 0016 FFF7FEFF 		bl	_port_irq_epilogue
 1480              		.loc 1 546 0
 1481 001a 08BD     		pop	{r3, pc}
 1482              		.cfi_endproc
 1483              	.LFE70:
 1484              		.size	VectorBC, .-VectorBC
 1485 001c AFF30080 		.section	.text.VectorC0,"ax",%progbits
 1486              		.align	2
ARM GAS  C:\Users\z80\AppData\Local\Temp\ccyKjVO9.s 			page 28


 1487              		.p2align 4,,15
 1488              		.global	VectorC0
 1489              		.thumb
 1490              		.thumb_func
 1491              		.type	VectorC0, %function
 1492              	VectorC0:
 1493              	.LFB71:
 1494              		.loc 1 551 0
 1495              		.cfi_startproc
 1496              		@ args = 0, pretend = 0, frame = 0
 1497              		@ frame_needed = 0, uses_anonymous_args = 0
 1498 0000 08B5     		push	{r3, lr}
 1499              	.LCFI15:
 1500              		.cfi_def_cfa_offset 8
 1501              		.cfi_offset 14, -4
 1502              		.cfi_offset 3, -8
 1503              		.loc 1 553 0
 1504 0002 FFF7FEFF 		bl	dbg_check_enter_isr
 1505              		.loc 1 555 0
 1506 0006 40F20000 		movw	r0, #:lower16:I2CD1
 1507 000a C0F20000 		movt	r0, #:upper16:I2CD1
 1508 000e FFF7FEFF 		bl	i2c_lld_serve_error_interrupt
 1509              		.loc 1 557 0
 1510 0012 FFF7FEFF 		bl	dbg_check_leave_isr
 1511 0016 FFF7FEFF 		bl	_port_irq_epilogue
 1512              		.loc 1 558 0
 1513 001a 08BD     		pop	{r3, pc}
 1514              		.cfi_endproc
 1515              	.LFE71:
 1516              		.size	VectorC0, .-VectorC0
 1517 001c AFF30080 		.section	.text.i2c_lld_init,"ax",%progbits
 1518              		.align	2
 1519              		.p2align 4,,15
 1520              		.global	i2c_lld_init
 1521              		.thumb
 1522              		.thumb_func
 1523              		.type	i2c_lld_init, %function
 1524              	i2c_lld_init:
 1525              	.LFB72:
 1526              		.loc 1 630 0
 1527              		.cfi_startproc
 1528              		@ args = 0, pretend = 0, frame = 0
 1529              		@ frame_needed = 0, uses_anonymous_args = 0
 1530 0000 08B5     		push	{r3, lr}
 1531              	.LCFI16:
 1532              		.cfi_def_cfa_offset 8
 1533              		.cfi_offset 14, -4
 1534              		.cfi_offset 3, -8
 1535              		.loc 1 633 0
 1536 0002 40F20000 		movw	r0, #:lower16:I2CD1
 1537 0006 C0F20000 		movt	r0, #:upper16:I2CD1
 1538 000a FFF7FEFF 		bl	i2cObjectInit
 1539              		.loc 1 634 0
 1540 000e 40F20003 		movw	r3, #:lower16:I2CD1
 1541 0012 C0F20003 		movt	r3, #:upper16:I2CD1
 1542 0016 4FF00002 		mov	r2, #0
 1543 001a DA60     		str	r2, [r3, #12]
ARM GAS  C:\Users\z80\AppData\Local\Temp\ccyKjVO9.s 			page 29


 1544              		.loc 1 635 0
 1545 001c 40F20003 		movw	r3, #:lower16:I2CD1
 1546 0020 C0F20003 		movt	r3, #:upper16:I2CD1
 1547 0024 4FF4A842 		mov	r2, #21504
 1548 0028 C4F20002 		movt	r2, 16384
 1549 002c 1A62     		str	r2, [r3, #32]
 1550              		.loc 1 636 0
 1551 002e 40F20003 		movw	r3, #:lower16:I2CD1
 1552 0032 C0F20003 		movt	r3, #:upper16:I2CD1
 1553 0036 044A     		ldr	r2, .L62
 1554 0038 9A61     		str	r2, [r3, #24]
 1555              		.loc 1 637 0
 1556 003a 40F20003 		movw	r3, #:lower16:I2CD1
 1557 003e C0F20003 		movt	r3, #:upper16:I2CD1
 1558 0042 024A     		ldr	r2, .L62+4
 1559 0044 DA61     		str	r2, [r3, #28]
 1560              		.loc 1 655 0
 1561 0046 08BD     		pop	{r3, pc}
 1562              	.L63:
 1563              		.align	2
 1564              	.L62:
 1565 0048 48000000 		.word	_stm32_dma_streams+72
 1566 004c 3C000000 		.word	_stm32_dma_streams+60
 1567              		.cfi_endproc
 1568              	.LFE72:
 1569              		.size	i2c_lld_init, .-i2c_lld_init
 1570              		.section	.rodata
 1571              		.align	2
 1572              	.LC9:
 1573 00d8 6932635F 		.ascii	"i2c_lld_start(), #1\000"
 1573      6C6C645F 
 1573      73746172 
 1573      7428292C 
 1573      20233100 
 1574              		.align	2
 1575              	.LC10:
 1576 00ec 6932635F 		.ascii	"i2c_lld_start(), #2\000"
 1576      6C6C645F 
 1576      73746172 
 1576      7428292C 
 1576      20233200 
 1577              		.section	.text.i2c_lld_start,"ax",%progbits
 1578              		.align	2
 1579              		.p2align 4,,15
 1580              		.global	i2c_lld_start
 1581              		.thumb
 1582              		.thumb_func
 1583              		.type	i2c_lld_start, %function
 1584              	i2c_lld_start:
 1585              	.LFB73:
 1586              		.loc 1 664 0
 1587              		.cfi_startproc
 1588              		@ args = 0, pretend = 0, frame = 16
 1589              		@ frame_needed = 0, uses_anonymous_args = 0
 1590 0000 00B5     		push	{lr}
 1591              	.LCFI17:
 1592              		.cfi_def_cfa_offset 4
ARM GAS  C:\Users\z80\AppData\Local\Temp\ccyKjVO9.s 			page 30


 1593              		.cfi_offset 14, -4
 1594 0002 85B0     		sub	sp, sp, #20
 1595              	.LCFI18:
 1596              		.cfi_def_cfa_offset 24
 1597 0004 0190     		str	r0, [sp, #4]
 1598              		.loc 1 665 0
 1599 0006 019B     		ldr	r3, [sp, #4]
 1600 0008 1B6A     		ldr	r3, [r3, #32]
 1601 000a 0393     		str	r3, [sp, #12]
 1602              		.loc 1 667 0
 1603 000c 019B     		ldr	r3, [sp, #4]
 1604 000e 4FF08A02 		mov	r2, #138
 1605 0012 5A61     		str	r2, [r3, #20]
 1606              		.loc 1 672 0
 1607 0014 019B     		ldr	r3, [sp, #4]
 1608 0016 1B78     		ldrb	r3, [r3, #0]	@ zero_extendqisi2
 1609 0018 012B     		cmp	r3, #1
 1610 001a 63D1     		bne	.L65
 1611              		.loc 1 675 0
 1612 001c 019A     		ldr	r2, [sp, #4]
 1613 001e 40F20003 		movw	r3, #:lower16:I2CD1
 1614 0022 C0F20003 		movt	r3, #:upper16:I2CD1
 1615 0026 9A42     		cmp	r2, r3
 1616 0028 5CD1     		bne	.L65
 1617              	.LBB14:
 1618              		.loc 1 678 0
 1619 002a 4FF48053 		mov	r3, #4096
 1620 002e C4F20203 		movt	r3, 16386
 1621 0032 4FF48052 		mov	r2, #4096
 1622 0036 C4F20202 		movt	r2, 16386
 1623 003a 1269     		ldr	r2, [r2, #16]
 1624 003c 42F40012 		orr	r2, r2, #2097152
 1625 0040 1A61     		str	r2, [r3, #16]
 1626 0042 4FF48053 		mov	r3, #4096
 1627 0046 C4F20203 		movt	r3, 16386
 1628 004a 4FF00002 		mov	r2, #0
 1629 004e 1A61     		str	r2, [r3, #16]
 1630              		.loc 1 679 0
 1631 0050 019B     		ldr	r3, [sp, #4]
 1632 0052 9B69     		ldr	r3, [r3, #24]
 1633 0054 1846     		mov	r0, r3
 1634 0056 4FF00A01 		mov	r1, #10
 1635 005a 40F20002 		movw	r2, #:lower16:i2c_lld_serve_rx_end_irq
 1636 005e C0F20002 		movt	r2, #:upper16:i2c_lld_serve_rx_end_irq
 1637 0062 019B     		ldr	r3, [sp, #4]
 1638 0064 FFF7FEFF 		bl	dmaStreamAllocate
 1639 0068 0290     		str	r0, [sp, #8]
 1640              		.loc 1 683 0
 1641 006a 029B     		ldr	r3, [sp, #8]
 1642 006c 002B     		cmp	r3, #0
 1643 006e 05D0     		beq	.L66
 1644              		.loc 1 683 0 is_stmt 0 discriminator 1
 1645 0070 40F20000 		movw	r0, #:lower16:.LC9
 1646 0074 C0F20000 		movt	r0, #:upper16:.LC9
 1647 0078 FFF7FEFF 		bl	chDbgPanic
 1648              	.L66:
 1649              		.loc 1 684 0 is_stmt 1
ARM GAS  C:\Users\z80\AppData\Local\Temp\ccyKjVO9.s 			page 31


 1650 007c 019B     		ldr	r3, [sp, #4]
 1651 007e DB69     		ldr	r3, [r3, #28]
 1652 0080 1846     		mov	r0, r3
 1653 0082 4FF00A01 		mov	r1, #10
 1654 0086 40F20002 		movw	r2, #:lower16:i2c_lld_serve_tx_end_irq
 1655 008a C0F20002 		movt	r2, #:upper16:i2c_lld_serve_tx_end_irq
 1656 008e 019B     		ldr	r3, [sp, #4]
 1657 0090 FFF7FEFF 		bl	dmaStreamAllocate
 1658 0094 0290     		str	r0, [sp, #8]
 1659              		.loc 1 688 0
 1660 0096 029B     		ldr	r3, [sp, #8]
 1661 0098 002B     		cmp	r3, #0
 1662 009a 05D0     		beq	.L67
 1663              		.loc 1 688 0 is_stmt 0 discriminator 1
 1664 009c 40F20000 		movw	r0, #:lower16:.LC10
 1665 00a0 C0F20000 		movt	r0, #:upper16:.LC10
 1666 00a4 FFF7FEFF 		bl	chDbgPanic
 1667              	.L67:
 1668              		.loc 1 689 0 is_stmt 1
 1669 00a8 4FF48053 		mov	r3, #4096
 1670 00ac C4F20203 		movt	r3, 16386
 1671 00b0 4FF48052 		mov	r2, #4096
 1672 00b4 C4F20202 		movt	r2, 16386
 1673 00b8 D269     		ldr	r2, [r2, #28]
 1674 00ba 42F40012 		orr	r2, r2, #2097152
 1675 00be DA61     		str	r2, [r3, #28]
 1676              		.loc 1 690 0
 1677 00c0 4FF01F00 		mov	r0, #31
 1678 00c4 4FF0A001 		mov	r1, #160
 1679 00c8 FFF7FEFF 		bl	nvicEnableVector
 1680              		.loc 1 692 0
 1681 00cc 4FF02000 		mov	r0, #32
 1682 00d0 4FF0A001 		mov	r1, #160
 1683 00d4 FFF7FEFF 		bl	nvicEnableVector
 1684              		.loc 1 695 0
 1685 00d8 019B     		ldr	r3, [sp, #4]
 1686 00da 5B69     		ldr	r3, [r3, #20]
 1687 00dc 43F48052 		orr	r2, r3, #4096
 1688 00e0 019B     		ldr	r3, [sp, #4]
 1689 00e2 5A61     		str	r2, [r3, #20]
 1690              	.L65:
 1691              	.LBE14:
 1692              		.loc 1 754 0
 1693 00e4 019B     		ldr	r3, [sp, #4]
 1694 00e6 DB69     		ldr	r3, [r3, #28]
 1695 00e8 1B68     		ldr	r3, [r3, #0]
 1696 00ea 019A     		ldr	r2, [sp, #4]
 1697 00ec 5269     		ldr	r2, [r2, #20]
 1698 00ee 42F01002 		orr	r2, r2, #16
 1699 00f2 1A60     		str	r2, [r3, #0]
 1700              		.loc 1 755 0
 1701 00f4 019B     		ldr	r3, [sp, #4]
 1702 00f6 9B69     		ldr	r3, [r3, #24]
 1703 00f8 1B68     		ldr	r3, [r3, #0]
 1704 00fa 019A     		ldr	r2, [sp, #4]
 1705 00fc 5269     		ldr	r2, [r2, #20]
 1706 00fe 1A60     		str	r2, [r3, #0]
ARM GAS  C:\Users\z80\AppData\Local\Temp\ccyKjVO9.s 			page 32


 1707              		.loc 1 758 0
 1708 0100 019B     		ldr	r3, [sp, #4]
 1709 0102 9B69     		ldr	r3, [r3, #24]
 1710 0104 1B68     		ldr	r3, [r3, #0]
 1711 0106 039A     		ldr	r2, [sp, #12]
 1712 0108 02F11002 		add	r2, r2, #16
 1713 010c 9A60     		str	r2, [r3, #8]
 1714              		.loc 1 759 0
 1715 010e 019B     		ldr	r3, [sp, #4]
 1716 0110 DB69     		ldr	r3, [r3, #28]
 1717 0112 1B68     		ldr	r3, [r3, #0]
 1718 0114 039A     		ldr	r2, [sp, #12]
 1719 0116 02F11002 		add	r2, r2, #16
 1720 011a 9A60     		str	r2, [r3, #8]
 1721              		.loc 1 762 0
 1722 011c 039B     		ldr	r3, [sp, #12]
 1723 011e 4FF40042 		mov	r2, #32768
 1724 0122 1A80     		strh	r2, [r3, #0]	@ movhi
 1725              		.loc 1 763 0
 1726 0124 039B     		ldr	r3, [sp, #12]
 1727 0126 4FF00002 		mov	r2, #0
 1728 012a 1A80     		strh	r2, [r3, #0]	@ movhi
 1729              		.loc 1 764 0
 1730 012c 039B     		ldr	r3, [sp, #12]
 1731 012e 4FF41062 		mov	r2, #2304
 1732 0132 9A80     		strh	r2, [r3, #4]	@ movhi
 1733              		.loc 1 767 0
 1734 0134 0198     		ldr	r0, [sp, #4]
 1735 0136 FFF7FEFF 		bl	i2c_lld_set_clock
 1736              		.loc 1 768 0
 1737 013a 0198     		ldr	r0, [sp, #4]
 1738 013c FFF7FEFF 		bl	i2c_lld_set_opmode
 1739              		.loc 1 771 0
 1740 0140 039B     		ldr	r3, [sp, #12]
 1741 0142 1B88     		ldrh	r3, [r3, #0]	@ movhi
 1742 0144 9BB2     		uxth	r3, r3
 1743 0146 43F00103 		orr	r3, r3, #1
 1744 014a 9AB2     		uxth	r2, r3
 1745 014c 039B     		ldr	r3, [sp, #12]
 1746 014e 1A80     		strh	r2, [r3, #0]	@ movhi
 1747              		.loc 1 772 0
 1748 0150 05B0     		add	sp, sp, #20
 1749 0152 00BD     		pop	{pc}
 1750              		.cfi_endproc
 1751              	.LFE73:
 1752              		.size	i2c_lld_start, .-i2c_lld_start
 1753 0154 AFF30080 		.section	.text.i2c_lld_stop,"ax",%progbits
 1753      AFF30080 
 1753      AFF30080 
 1754              		.align	2
 1755              		.p2align 4,,15
 1756              		.global	i2c_lld_stop
 1757              		.thumb
 1758              		.thumb_func
 1759              		.type	i2c_lld_stop, %function
 1760              	i2c_lld_stop:
 1761              	.LFB74:
ARM GAS  C:\Users\z80\AppData\Local\Temp\ccyKjVO9.s 			page 33


 1762              		.loc 1 781 0
 1763              		.cfi_startproc
 1764              		@ args = 0, pretend = 0, frame = 8
 1765              		@ frame_needed = 0, uses_anonymous_args = 0
 1766 0000 00B5     		push	{lr}
 1767              	.LCFI19:
 1768              		.cfi_def_cfa_offset 4
 1769              		.cfi_offset 14, -4
 1770 0002 83B0     		sub	sp, sp, #12
 1771              	.LCFI20:
 1772              		.cfi_def_cfa_offset 16
 1773 0004 0190     		str	r0, [sp, #4]
 1774              		.loc 1 784 0
 1775 0006 019B     		ldr	r3, [sp, #4]
 1776 0008 1B78     		ldrb	r3, [r3, #0]	@ zero_extendqisi2
 1777 000a 012B     		cmp	r3, #1
 1778 000c 27D0     		beq	.L68
 1779              		.loc 1 787 0
 1780 000e 0198     		ldr	r0, [sp, #4]
 1781 0010 FFF7FEFF 		bl	i2c_lld_abort_operation
 1782              		.loc 1 788 0
 1783 0014 019B     		ldr	r3, [sp, #4]
 1784 0016 DB69     		ldr	r3, [r3, #28]
 1785 0018 1846     		mov	r0, r3
 1786 001a FFF7FEFF 		bl	dmaStreamRelease
 1787              		.loc 1 789 0
 1788 001e 019B     		ldr	r3, [sp, #4]
 1789 0020 9B69     		ldr	r3, [r3, #24]
 1790 0022 1846     		mov	r0, r3
 1791 0024 FFF7FEFF 		bl	dmaStreamRelease
 1792              		.loc 1 792 0
 1793 0028 019A     		ldr	r2, [sp, #4]
 1794 002a 40F20003 		movw	r3, #:lower16:I2CD1
 1795 002e C0F20003 		movt	r3, #:upper16:I2CD1
 1796 0032 9A42     		cmp	r2, r3
 1797 0034 13D1     		bne	.L68
 1798              		.loc 1 793 0
 1799 0036 4FF01F00 		mov	r0, #31
 1800 003a FFF7FEFF 		bl	nvicDisableVector
 1801              		.loc 1 794 0
 1802 003e 4FF02000 		mov	r0, #32
 1803 0042 FFF7FEFF 		bl	nvicDisableVector
 1804              		.loc 1 795 0
 1805 0046 4FF48053 		mov	r3, #4096
 1806 004a C4F20203 		movt	r3, 16386
 1807 004e 4FF48052 		mov	r2, #4096
 1808 0052 C4F20202 		movt	r2, 16386
 1809 0056 D269     		ldr	r2, [r2, #28]
 1810 0058 22F40012 		bic	r2, r2, #2097152
 1811 005c DA61     		str	r2, [r3, #28]
 1812              	.L68:
 1813              		.loc 1 815 0
 1814 005e 03B0     		add	sp, sp, #12
 1815 0060 00BD     		pop	{pc}
 1816              		.cfi_endproc
 1817              	.LFE74:
 1818              		.size	i2c_lld_stop, .-i2c_lld_stop
ARM GAS  C:\Users\z80\AppData\Local\Temp\ccyKjVO9.s 			page 34


 1819 0062 00BFAFF3 		.section	.rodata
 1819      0080AFF3 
 1819      0080AFF3 
 1819      0080
 1820              		.align	2
 1821              	.LC11:
 1822 0100 22693263 		.ascii	"\"i2c_lld_master_receive_timeout\"()\000"
 1822      5F6C6C64 
 1822      5F6D6173 
 1822      7465725F 
 1822      72656365 
 1823              		.section	.text.i2c_lld_master_receive_timeout,"ax",%progbits
 1824              		.align	2
 1825              		.p2align 4,,15
 1826              		.global	i2c_lld_master_receive_timeout
 1827              		.thumb
 1828              		.thumb_func
 1829              		.type	i2c_lld_master_receive_timeout, %function
 1830              	i2c_lld_master_receive_timeout:
 1831              	.LFB75:
 1832              		.loc 1 842 0
 1833              		.cfi_startproc
 1834              		@ args = 4, pretend = 0, frame = 40
 1835              		@ frame_needed = 0, uses_anonymous_args = 0
 1836 0000 00B5     		push	{lr}
 1837              	.LCFI21:
 1838              		.cfi_def_cfa_offset 4
 1839              		.cfi_offset 14, -4
 1840 0002 8BB0     		sub	sp, sp, #44
 1841              	.LCFI22:
 1842              		.cfi_def_cfa_offset 48
 1843 0004 0390     		str	r0, [sp, #12]
 1844 0006 0192     		str	r2, [sp, #4]
 1845 0008 0093     		str	r3, [sp, #0]
 1846 000a 0B46     		mov	r3, r1	@ movhi
 1847 000c ADF80A30 		strh	r3, [sp, #10]	@ movhi
 1848              		.loc 1 843 0
 1849 0010 039B     		ldr	r3, [sp, #12]
 1850 0012 1B6A     		ldr	r3, [r3, #32]
 1851 0014 0993     		str	r3, [sp, #36]
 1852              		.loc 1 847 0
 1853 0016 009B     		ldr	r3, [sp, #0]
 1854 0018 012B     		cmp	r3, #1
 1855 001a 05D8     		bhi	.L71
 1856              		.loc 1 847 0 is_stmt 0 discriminator 1
 1857 001c 40F20000 		movw	r0, #:lower16:.LC11
 1858 0020 C0F20000 		movt	r0, #:upper16:.LC11
 1859 0024 FFF7FEFF 		bl	chDbgPanic
 1860              	.L71:
 1861              		.loc 1 851 0 is_stmt 1
 1862 0028 0C9B     		ldr	r3, [sp, #48]
 1863 002a B3F1FF3F 		cmp	r3, #-1
 1864 002e 09D0     		beq	.L72
 1865              		.loc 1 852 0
 1866 0030 04AB     		add	r3, sp, #16
 1867 0032 1846     		mov	r0, r3
 1868 0034 0C99     		ldr	r1, [sp, #48]
ARM GAS  C:\Users\z80\AppData\Local\Temp\ccyKjVO9.s 			page 35


 1869 0036 40F20002 		movw	r2, #:lower16:i2c_lld_safety_timeout
 1870 003a C0F20002 		movt	r2, #:upper16:i2c_lld_safety_timeout
 1871 003e 039B     		ldr	r3, [sp, #12]
 1872 0040 FFF7FEFF 		bl	chVTSetI
 1873              	.L72:
 1874              		.loc 1 855 0
 1875 0044 FFF7FEFF 		bl	dbg_check_unlock
 1876              	.LBB15:
 1877 0048 4FF00003 		mov	r3, #0
 1878              	@ 855 "../chibios_2.4.x/os/hal/platforms/STM32/i2c_lld.c" 1
 1879 004c 83F31188 		msr     BASEPRI, r3
 1880              	@ 0 "" 2
 1881              		.thumb
 1882              	.LBE15:
 1883              		.loc 1 858 0
 1884 0050 BDF80A30 		ldrh	r3, [sp, #10]
 1885 0054 4FEA4303 		lsl	r3, r3, #1
 1886 0058 9BB2     		uxth	r3, r3
 1887 005a 43F00103 		orr	r3, r3, #1
 1888 005e 9BB2     		uxth	r3, r3
 1889 0060 9AB2     		uxth	r2, r3
 1890 0062 039B     		ldr	r3, [sp, #12]
 1891 0064 1A82     		strh	r2, [r3, #16]	@ movhi
 1892              		.loc 1 859 0
 1893 0066 039B     		ldr	r3, [sp, #12]
 1894 0068 4FF00002 		mov	r2, #0
 1895 006c 9A60     		str	r2, [r3, #8]
 1896              		.loc 1 862 0
 1897 006e 039B     		ldr	r3, [sp, #12]
 1898 0070 9B69     		ldr	r3, [r3, #24]
 1899 0072 1B68     		ldr	r3, [r3, #0]
 1900 0074 019A     		ldr	r2, [sp, #4]
 1901 0076 DA60     		str	r2, [r3, #12]
 1902              		.loc 1 863 0
 1903 0078 039B     		ldr	r3, [sp, #12]
 1904 007a 9B69     		ldr	r3, [r3, #24]
 1905 007c 1B68     		ldr	r3, [r3, #0]
 1906 007e 009A     		ldr	r2, [sp, #0]
 1907 0080 5A60     		str	r2, [r3, #4]
 1908              		.loc 1 867 0
 1909 0082 15E0     		b	.L73
 1910              	.L76:
 1911              	.LBB16:
 1912              		.loc 1 868 0
 1913 0084 4FF02003 		mov	r3, #32
 1914              	@ 868 "../chibios_2.4.x/os/hal/platforms/STM32/i2c_lld.c" 1
 1915 0088 83F31188 		msr     BASEPRI, r3
 1916              	@ 0 "" 2
 1917              		.thumb
 1918              	.LBE16:
 1919 008c FFF7FEFF 		bl	dbg_check_lock
 1920              		.loc 1 869 0
 1921 0090 0C9B     		ldr	r3, [sp, #48]
 1922 0092 B3F1FF3F 		cmp	r3, #-1
 1923 0096 05D0     		beq	.L74
 1924              		.loc 1 869 0 is_stmt 0 discriminator 1
 1925 0098 079B     		ldr	r3, [sp, #28]
ARM GAS  C:\Users\z80\AppData\Local\Temp\ccyKjVO9.s 			page 36


 1926 009a 002B     		cmp	r3, #0
 1927 009c 02D1     		bne	.L74
 1928              		.loc 1 870 0 is_stmt 1
 1929 009e 4FF0FF33 		mov	r3, #-1
 1930 00a2 54E0     		b	.L75
 1931              	.L74:
 1932              		.loc 1 871 0
 1933 00a4 FFF7FEFF 		bl	dbg_check_unlock
 1934              	.LBB17:
 1935 00a8 4FF00003 		mov	r3, #0
 1936              	@ 871 "../chibios_2.4.x/os/hal/platforms/STM32/i2c_lld.c" 1
 1937 00ac 83F31188 		msr     BASEPRI, r3
 1938              	@ 0 "" 2
 1939              		.thumb
 1940              	.L73:
 1941              	.LBE17:
 1942              		.loc 1 867 0 discriminator 1
 1943 00b0 099B     		ldr	r3, [sp, #36]
 1944 00b2 1B8B     		ldrh	r3, [r3, #24]	@ movhi
 1945 00b4 9BB2     		uxth	r3, r3
 1946 00b6 03F00203 		and	r3, r3, #2
 1947 00ba 002B     		cmp	r3, #0
 1948 00bc E2D1     		bne	.L76
 1949              		.loc 1 867 0 is_stmt 0 discriminator 2
 1950 00be 099B     		ldr	r3, [sp, #36]
 1951 00c0 1B88     		ldrh	r3, [r3, #0]	@ movhi
 1952 00c2 9BB2     		uxth	r3, r3
 1953 00c4 03F40073 		and	r3, r3, #512
 1954 00c8 002B     		cmp	r3, #0
 1955 00ca DBD1     		bne	.L76
 1956              	.LBB18:
 1957              		.loc 1 875 0 is_stmt 1
 1958 00cc 4FF02003 		mov	r3, #32
 1959              	@ 875 "../chibios_2.4.x/os/hal/platforms/STM32/i2c_lld.c" 1
 1960 00d0 83F31188 		msr     BASEPRI, r3
 1961              	@ 0 "" 2
 1962              		.thumb
 1963              	.LBE18:
 1964 00d4 FFF7FEFF 		bl	dbg_check_lock
 1965              		.loc 1 879 0
 1966 00d8 0C9B     		ldr	r3, [sp, #48]
 1967 00da B3F1FF3F 		cmp	r3, #-1
 1968 00de 05D0     		beq	.L77
 1969              		.loc 1 879 0 is_stmt 0 discriminator 1
 1970 00e0 079B     		ldr	r3, [sp, #28]
 1971 00e2 002B     		cmp	r3, #0
 1972 00e4 02D1     		bne	.L77
 1973              		.loc 1 880 0 is_stmt 1
 1974 00e6 4FF0FF33 		mov	r3, #-1
 1975 00ea 30E0     		b	.L75
 1976              	.L77:
 1977              		.loc 1 883 0
 1978 00ec 039B     		ldr	r3, [sp, #12]
 1979 00ee 4FF00002 		mov	r2, #0
 1980 00f2 83F82420 		strb	r2, [r3, #36]
 1981              		.loc 1 886 0
 1982 00f6 099B     		ldr	r3, [sp, #36]
ARM GAS  C:\Users\z80\AppData\Local\Temp\ccyKjVO9.s 			page 37


 1983 00f8 9B88     		ldrh	r3, [r3, #4]	@ movhi
 1984 00fa 9BB2     		uxth	r3, r3
 1985 00fc 43F40073 		orr	r3, r3, #512
 1986 0100 9AB2     		uxth	r2, r3
 1987 0102 099B     		ldr	r3, [sp, #36]
 1988 0104 9A80     		strh	r2, [r3, #4]	@ movhi
 1989              		.loc 1 887 0
 1990 0106 099B     		ldr	r3, [sp, #36]
 1991 0108 1B88     		ldrh	r3, [r3, #0]	@ movhi
 1992 010a 9BB2     		uxth	r3, r3
 1993 010c 43F4A063 		orr	r3, r3, #1280
 1994 0110 9AB2     		uxth	r2, r3
 1995 0112 099B     		ldr	r3, [sp, #36]
 1996 0114 1A80     		strh	r2, [r3, #0]	@ movhi
 1997              		.loc 1 890 0
 1998 0116 40F20003 		movw	r3, #:lower16:rlist
 1999 011a C0F20003 		movt	r3, #:upper16:rlist
 2000 011e DA69     		ldr	r2, [r3, #28]
 2001 0120 039B     		ldr	r3, [sp, #12]
 2002 0122 DA60     		str	r2, [r3, #12]
 2003              		.loc 1 891 0
 2004 0124 4FF00200 		mov	r0, #2
 2005 0128 FFF7FEFF 		bl	chSchGoSleepS
 2006              		.loc 1 892 0
 2007 012c 0C9B     		ldr	r3, [sp, #48]
 2008 012e B3F1FF3F 		cmp	r3, #-1
 2009 0132 06D0     		beq	.L78
 2010              		.loc 1 892 0 is_stmt 0 discriminator 1
 2011 0134 079B     		ldr	r3, [sp, #28]
 2012 0136 002B     		cmp	r3, #0
 2013 0138 03D0     		beq	.L78
 2014              		.loc 1 893 0 is_stmt 1
 2015 013a 04AB     		add	r3, sp, #16
 2016 013c 1846     		mov	r0, r3
 2017 013e FFF7FEFF 		bl	chVTResetI
 2018              	.L78:
 2019              		.loc 1 895 0
 2020 0142 40F20003 		movw	r3, #:lower16:rlist
 2021 0146 C0F20003 		movt	r3, #:upper16:rlist
 2022 014a DB69     		ldr	r3, [r3, #28]
 2023 014c 9B6A     		ldr	r3, [r3, #40]
 2024              	.L75:
 2025              		.loc 1 896 0
 2026 014e 1846     		mov	r0, r3
 2027 0150 0BB0     		add	sp, sp, #44
 2028 0152 00BD     		pop	{pc}
 2029              		.cfi_endproc
 2030              	.LFE75:
 2031              		.size	i2c_lld_master_receive_timeout, .-i2c_lld_master_receive_timeout
 2032 0154 AFF30080 		.section	.rodata
 2032      AFF30080 
 2032      AFF30080 
 2033 0123 00       		.align	2
 2034              	.LC12:
 2035 0124 22693263 		.ascii	"\"i2c_lld_master_transmit_timeout\"()\000"
 2035      5F6C6C64 
 2035      5F6D6173 
ARM GAS  C:\Users\z80\AppData\Local\Temp\ccyKjVO9.s 			page 38


 2035      7465725F 
 2035      7472616E 
 2036              		.section	.text.i2c_lld_master_transmit_timeout,"ax",%progbits
 2037              		.align	2
 2038              		.p2align 4,,15
 2039              		.global	i2c_lld_master_transmit_timeout
 2040              		.thumb
 2041              		.thumb_func
 2042              		.type	i2c_lld_master_transmit_timeout, %function
 2043              	i2c_lld_master_transmit_timeout:
 2044              	.LFB76:
 2045              		.loc 1 926 0
 2046              		.cfi_startproc
 2047              		@ args = 12, pretend = 0, frame = 40
 2048              		@ frame_needed = 0, uses_anonymous_args = 0
 2049 0000 00B5     		push	{lr}
 2050              	.LCFI23:
 2051              		.cfi_def_cfa_offset 4
 2052              		.cfi_offset 14, -4
 2053 0002 8BB0     		sub	sp, sp, #44
 2054              	.LCFI24:
 2055              		.cfi_def_cfa_offset 48
 2056 0004 0390     		str	r0, [sp, #12]
 2057 0006 0192     		str	r2, [sp, #4]
 2058 0008 0093     		str	r3, [sp, #0]
 2059 000a 0B46     		mov	r3, r1	@ movhi
 2060 000c ADF80A30 		strh	r3, [sp, #10]	@ movhi
 2061              		.loc 1 927 0
 2062 0010 039B     		ldr	r3, [sp, #12]
 2063 0012 1B6A     		ldr	r3, [r3, #32]
 2064 0014 0993     		str	r3, [sp, #36]
 2065              		.loc 1 931 0
 2066 0016 0D9B     		ldr	r3, [sp, #52]
 2067 0018 002B     		cmp	r3, #0
 2068 001a 0BD0     		beq	.L80
 2069              		.loc 1 931 0 is_stmt 0 discriminator 1
 2070 001c 0D9B     		ldr	r3, [sp, #52]
 2071 001e 012B     		cmp	r3, #1
 2072 0020 02D9     		bls	.L81
 2073              		.loc 1 931 0 discriminator 3
 2074 0022 0C9B     		ldr	r3, [sp, #48]
 2075 0024 002B     		cmp	r3, #0
 2076 0026 05D1     		bne	.L80
 2077              	.L81:
 2078              		.loc 1 931 0 discriminator 2
 2079 0028 40F20000 		movw	r0, #:lower16:.LC12
 2080 002c C0F20000 		movt	r0, #:upper16:.LC12
 2081 0030 FFF7FEFF 		bl	chDbgPanic
 2082              	.L80:
 2083              		.loc 1 936 0 is_stmt 1
 2084 0034 0E9B     		ldr	r3, [sp, #56]
 2085 0036 B3F1FF3F 		cmp	r3, #-1
 2086 003a 09D0     		beq	.L82
 2087              		.loc 1 937 0
 2088 003c 04AB     		add	r3, sp, #16
 2089 003e 1846     		mov	r0, r3
 2090 0040 0E99     		ldr	r1, [sp, #56]
ARM GAS  C:\Users\z80\AppData\Local\Temp\ccyKjVO9.s 			page 39


 2091 0042 40F20002 		movw	r2, #:lower16:i2c_lld_safety_timeout
 2092 0046 C0F20002 		movt	r2, #:upper16:i2c_lld_safety_timeout
 2093 004a 039B     		ldr	r3, [sp, #12]
 2094 004c FFF7FEFF 		bl	chVTSetI
 2095              	.L82:
 2096              		.loc 1 940 0
 2097 0050 FFF7FEFF 		bl	dbg_check_unlock
 2098              	.LBB19:
 2099 0054 4FF00003 		mov	r3, #0
 2100              	@ 940 "../chibios_2.4.x/os/hal/platforms/STM32/i2c_lld.c" 1
 2101 0058 83F31188 		msr     BASEPRI, r3
 2102              	@ 0 "" 2
 2103              		.thumb
 2104              	.LBE19:
 2105              		.loc 1 943 0
 2106 005c BDF80A30 		ldrh	r3, [sp, #10]	@ movhi
 2107 0060 4FEA4303 		lsl	r3, r3, #1
 2108 0064 9AB2     		uxth	r2, r3
 2109 0066 039B     		ldr	r3, [sp, #12]
 2110 0068 1A82     		strh	r2, [r3, #16]	@ movhi
 2111              		.loc 1 944 0
 2112 006a 039B     		ldr	r3, [sp, #12]
 2113 006c 4FF00002 		mov	r2, #0
 2114 0070 9A60     		str	r2, [r3, #8]
 2115              		.loc 1 947 0
 2116 0072 039B     		ldr	r3, [sp, #12]
 2117 0074 DB69     		ldr	r3, [r3, #28]
 2118 0076 1B68     		ldr	r3, [r3, #0]
 2119 0078 019A     		ldr	r2, [sp, #4]
 2120 007a DA60     		str	r2, [r3, #12]
 2121              		.loc 1 948 0
 2122 007c 039B     		ldr	r3, [sp, #12]
 2123 007e DB69     		ldr	r3, [r3, #28]
 2124 0080 1B68     		ldr	r3, [r3, #0]
 2125 0082 009A     		ldr	r2, [sp, #0]
 2126 0084 5A60     		str	r2, [r3, #4]
 2127              		.loc 1 951 0
 2128 0086 039B     		ldr	r3, [sp, #12]
 2129 0088 9B69     		ldr	r3, [r3, #24]
 2130 008a 1B68     		ldr	r3, [r3, #0]
 2131 008c 0C9A     		ldr	r2, [sp, #48]
 2132 008e DA60     		str	r2, [r3, #12]
 2133              		.loc 1 952 0
 2134 0090 039B     		ldr	r3, [sp, #12]
 2135 0092 9B69     		ldr	r3, [r3, #24]
 2136 0094 1B68     		ldr	r3, [r3, #0]
 2137 0096 0D9A     		ldr	r2, [sp, #52]
 2138 0098 5A60     		str	r2, [r3, #4]
 2139              		.loc 1 956 0
 2140 009a 15E0     		b	.L83
 2141              	.L86:
 2142              	.LBB20:
 2143              		.loc 1 957 0
 2144 009c 4FF02003 		mov	r3, #32
 2145              	@ 957 "../chibios_2.4.x/os/hal/platforms/STM32/i2c_lld.c" 1
 2146 00a0 83F31188 		msr     BASEPRI, r3
 2147              	@ 0 "" 2
ARM GAS  C:\Users\z80\AppData\Local\Temp\ccyKjVO9.s 			page 40


 2148              		.thumb
 2149              	.LBE20:
 2150 00a4 FFF7FEFF 		bl	dbg_check_lock
 2151              		.loc 1 958 0
 2152 00a8 0E9B     		ldr	r3, [sp, #56]
 2153 00aa B3F1FF3F 		cmp	r3, #-1
 2154 00ae 05D0     		beq	.L84
 2155              		.loc 1 958 0 is_stmt 0 discriminator 1
 2156 00b0 079B     		ldr	r3, [sp, #28]
 2157 00b2 002B     		cmp	r3, #0
 2158 00b4 02D1     		bne	.L84
 2159              		.loc 1 959 0 is_stmt 1
 2160 00b6 4FF0FF33 		mov	r3, #-1
 2161 00ba 54E0     		b	.L85
 2162              	.L84:
 2163              		.loc 1 960 0
 2164 00bc FFF7FEFF 		bl	dbg_check_unlock
 2165              	.LBB21:
 2166 00c0 4FF00003 		mov	r3, #0
 2167              	@ 960 "../chibios_2.4.x/os/hal/platforms/STM32/i2c_lld.c" 1
 2168 00c4 83F31188 		msr     BASEPRI, r3
 2169              	@ 0 "" 2
 2170              		.thumb
 2171              	.L83:
 2172              	.LBE21:
 2173              		.loc 1 956 0 discriminator 1
 2174 00c8 099B     		ldr	r3, [sp, #36]
 2175 00ca 1B8B     		ldrh	r3, [r3, #24]	@ movhi
 2176 00cc 9BB2     		uxth	r3, r3
 2177 00ce 03F00203 		and	r3, r3, #2
 2178 00d2 002B     		cmp	r3, #0
 2179 00d4 E2D1     		bne	.L86
 2180              		.loc 1 956 0 is_stmt 0 discriminator 2
 2181 00d6 099B     		ldr	r3, [sp, #36]
 2182 00d8 1B88     		ldrh	r3, [r3, #0]	@ movhi
 2183 00da 9BB2     		uxth	r3, r3
 2184 00dc 03F40073 		and	r3, r3, #512
 2185 00e0 002B     		cmp	r3, #0
 2186 00e2 DBD1     		bne	.L86
 2187              	.LBB22:
 2188              		.loc 1 964 0 is_stmt 1
 2189 00e4 4FF02003 		mov	r3, #32
 2190              	@ 964 "../chibios_2.4.x/os/hal/platforms/STM32/i2c_lld.c" 1
 2191 00e8 83F31188 		msr     BASEPRI, r3
 2192              	@ 0 "" 2
 2193              		.thumb
 2194              	.LBE22:
 2195 00ec FFF7FEFF 		bl	dbg_check_lock
 2196              		.loc 1 968 0
 2197 00f0 0E9B     		ldr	r3, [sp, #56]
 2198 00f2 B3F1FF3F 		cmp	r3, #-1
 2199 00f6 05D0     		beq	.L87
 2200              		.loc 1 968 0 is_stmt 0 discriminator 1
 2201 00f8 079B     		ldr	r3, [sp, #28]
 2202 00fa 002B     		cmp	r3, #0
 2203 00fc 02D1     		bne	.L87
 2204              		.loc 1 969 0 is_stmt 1
ARM GAS  C:\Users\z80\AppData\Local\Temp\ccyKjVO9.s 			page 41


 2205 00fe 4FF0FF33 		mov	r3, #-1
 2206 0102 30E0     		b	.L85
 2207              	.L87:
 2208              		.loc 1 972 0
 2209 0104 039B     		ldr	r3, [sp, #12]
 2210 0106 4FF00002 		mov	r2, #0
 2211 010a 83F82420 		strb	r2, [r3, #36]
 2212              		.loc 1 975 0
 2213 010e 099B     		ldr	r3, [sp, #36]
 2214 0110 9B88     		ldrh	r3, [r3, #4]	@ movhi
 2215 0112 9BB2     		uxth	r3, r3
 2216 0114 43F40073 		orr	r3, r3, #512
 2217 0118 9AB2     		uxth	r2, r3
 2218 011a 099B     		ldr	r3, [sp, #36]
 2219 011c 9A80     		strh	r2, [r3, #4]	@ movhi
 2220              		.loc 1 976 0
 2221 011e 099B     		ldr	r3, [sp, #36]
 2222 0120 1B88     		ldrh	r3, [r3, #0]	@ movhi
 2223 0122 9BB2     		uxth	r3, r3
 2224 0124 43F48073 		orr	r3, r3, #256
 2225 0128 9AB2     		uxth	r2, r3
 2226 012a 099B     		ldr	r3, [sp, #36]
 2227 012c 1A80     		strh	r2, [r3, #0]	@ movhi
 2228              		.loc 1 979 0
 2229 012e 40F20003 		movw	r3, #:lower16:rlist
 2230 0132 C0F20003 		movt	r3, #:upper16:rlist
 2231 0136 DA69     		ldr	r2, [r3, #28]
 2232 0138 039B     		ldr	r3, [sp, #12]
 2233 013a DA60     		str	r2, [r3, #12]
 2234              		.loc 1 980 0
 2235 013c 4FF00200 		mov	r0, #2
 2236 0140 FFF7FEFF 		bl	chSchGoSleepS
 2237              		.loc 1 981 0
 2238 0144 0E9B     		ldr	r3, [sp, #56]
 2239 0146 B3F1FF3F 		cmp	r3, #-1
 2240 014a 06D0     		beq	.L88
 2241              		.loc 1 981 0 is_stmt 0 discriminator 1
 2242 014c 079B     		ldr	r3, [sp, #28]
 2243 014e 002B     		cmp	r3, #0
 2244 0150 03D0     		beq	.L88
 2245              		.loc 1 982 0 is_stmt 1
 2246 0152 04AB     		add	r3, sp, #16
 2247 0154 1846     		mov	r0, r3
 2248 0156 FFF7FEFF 		bl	chVTResetI
 2249              	.L88:
 2250              		.loc 1 984 0
 2251 015a 40F20003 		movw	r3, #:lower16:rlist
 2252 015e C0F20003 		movt	r3, #:upper16:rlist
 2253 0162 DB69     		ldr	r3, [r3, #28]
 2254 0164 9B6A     		ldr	r3, [r3, #40]
 2255              	.L85:
 2256              		.loc 1 985 0
 2257 0166 1846     		mov	r0, r3
 2258 0168 0BB0     		add	sp, sp, #44
 2259 016a 00BD     		pop	{pc}
 2260              		.cfi_endproc
 2261              	.LFE76:
ARM GAS  C:\Users\z80\AppData\Local\Temp\ccyKjVO9.s 			page 42


 2262              		.size	i2c_lld_master_transmit_timeout, .-i2c_lld_master_transmit_timeout
 2263 016c AFF30080 		.section	.text.i2c_lld_slave_io_timeout,"ax",%progbits
 2264              		.align	2
 2265              		.p2align 4,,15
 2266              		.global	i2c_lld_slave_io_timeout
 2267              		.thumb
 2268              		.thumb_func
 2269              		.type	i2c_lld_slave_io_timeout, %function
 2270              	i2c_lld_slave_io_timeout:
 2271              	.LFB77:
 2272              		.loc 1 995 0
 2273              		.cfi_startproc
 2274              		@ args = 20, pretend = 0, frame = 40
 2275              		@ frame_needed = 0, uses_anonymous_args = 0
 2276 0000 00B5     		push	{lr}
 2277              	.LCFI25:
 2278              		.cfi_def_cfa_offset 4
 2279              		.cfi_offset 14, -4
 2280 0002 8BB0     		sub	sp, sp, #44
 2281              	.LCFI26:
 2282              		.cfi_def_cfa_offset 48
 2283 0004 0390     		str	r0, [sp, #12]
 2284 0006 0192     		str	r2, [sp, #4]
 2285 0008 0093     		str	r3, [sp, #0]
 2286 000a 0B46     		mov	r3, r1	@ movhi
 2287 000c ADF80A30 		strh	r3, [sp, #10]	@ movhi
 2288              		.loc 1 996 0
 2289 0010 039B     		ldr	r3, [sp, #12]
 2290 0012 1B6A     		ldr	r3, [r3, #32]
 2291 0014 0993     		str	r3, [sp, #36]
 2292              		.loc 1 1000 0
 2293 0016 40F20003 		movw	r3, #:lower16:rlist
 2294 001a C0F20003 		movt	r3, #:upper16:rlist
 2295 001e DA69     		ldr	r2, [r3, #28]
 2296 0020 039B     		ldr	r3, [sp, #12]
 2297 0022 DA60     		str	r2, [r3, #12]
 2298              		.loc 1 1001 0
 2299 0024 109B     		ldr	r3, [sp, #64]
 2300 0026 B3F1FF3F 		cmp	r3, #-1
 2301 002a 09D0     		beq	.L90
 2302              		.loc 1 1002 0
 2303 002c 04AB     		add	r3, sp, #16
 2304 002e 1846     		mov	r0, r3
 2305 0030 1099     		ldr	r1, [sp, #64]
 2306 0032 40F20002 		movw	r2, #:lower16:i2c_lld_safety_timeout
 2307 0036 C0F20002 		movt	r2, #:upper16:i2c_lld_safety_timeout
 2308 003a 039B     		ldr	r3, [sp, #12]
 2309 003c FFF7FEFF 		bl	chVTSetI
 2310              	.L90:
 2311              		.loc 1 1006 0
 2312 0040 FFF7FEFF 		bl	dbg_check_unlock
 2313              	.LBB23:
 2314 0044 4FF00003 		mov	r3, #0
 2315              	@ 1006 "../chibios_2.4.x/os/hal/platforms/STM32/i2c_lld.c" 1
 2316 0048 83F31188 		msr     BASEPRI, r3
 2317              	@ 0 "" 2
 2318              		.thumb
ARM GAS  C:\Users\z80\AppData\Local\Temp\ccyKjVO9.s 			page 43


 2319              	.LBE23:
 2320              		.loc 1 1007 0
 2321 004c 15E0     		b	.L91
 2322              	.L94:
 2323              	.LBB24:
 2324              		.loc 1 1009 0
 2325 004e 4FF02003 		mov	r3, #32
 2326              	@ 1009 "../chibios_2.4.x/os/hal/platforms/STM32/i2c_lld.c" 1
 2327 0052 83F31188 		msr     BASEPRI, r3
 2328              	@ 0 "" 2
 2329              		.thumb
 2330              	.LBE24:
 2331 0056 FFF7FEFF 		bl	dbg_check_lock
 2332              		.loc 1 1010 0
 2333 005a 109B     		ldr	r3, [sp, #64]
 2334 005c B3F1FF3F 		cmp	r3, #-1
 2335 0060 05D0     		beq	.L92
 2336              		.loc 1 1010 0 is_stmt 0 discriminator 1
 2337 0062 079B     		ldr	r3, [sp, #28]
 2338 0064 002B     		cmp	r3, #0
 2339 0066 02D1     		bne	.L92
 2340              		.loc 1 1011 0 is_stmt 1
 2341 0068 4FF0FF33 		mov	r3, #-1
 2342 006c 8AE0     		b	.L93
 2343              	.L92:
 2344              		.loc 1 1012 0
 2345 006e FFF7FEFF 		bl	dbg_check_unlock
 2346              	.LBB25:
 2347 0072 4FF00003 		mov	r3, #0
 2348              	@ 1012 "../chibios_2.4.x/os/hal/platforms/STM32/i2c_lld.c" 1
 2349 0076 83F31188 		msr     BASEPRI, r3
 2350              	@ 0 "" 2
 2351              		.thumb
 2352              	.L91:
 2353              	.LBE25:
 2354              		.loc 1 1007 0 discriminator 1
 2355 007a 099B     		ldr	r3, [sp, #36]
 2356 007c 1B8B     		ldrh	r3, [r3, #24]	@ movhi
 2357 007e 9BB2     		uxth	r3, r3
 2358 0080 03F00203 		and	r3, r3, #2
 2359 0084 002B     		cmp	r3, #0
 2360 0086 E2D1     		bne	.L94
 2361              		.loc 1 1007 0 is_stmt 0 discriminator 2
 2362 0088 099B     		ldr	r3, [sp, #36]
 2363 008a 1B88     		ldrh	r3, [r3, #0]	@ movhi
 2364 008c 9BB2     		uxth	r3, r3
 2365 008e 03F40073 		and	r3, r3, #512
 2366 0092 002B     		cmp	r3, #0
 2367 0094 DBD1     		bne	.L94
 2368              	.LBB26:
 2369              		.loc 1 1016 0 is_stmt 1
 2370 0096 4FF02003 		mov	r3, #32
 2371              	@ 1016 "../chibios_2.4.x/os/hal/platforms/STM32/i2c_lld.c" 1
 2372 009a 83F31188 		msr     BASEPRI, r3
 2373              	@ 0 "" 2
 2374              		.thumb
 2375              	.LBE26:
ARM GAS  C:\Users\z80\AppData\Local\Temp\ccyKjVO9.s 			page 44


 2376 009e FFF7FEFF 		bl	dbg_check_lock
 2377              		.loc 1 1020 0
 2378 00a2 109B     		ldr	r3, [sp, #64]
 2379 00a4 B3F1FF3F 		cmp	r3, #-1
 2380 00a8 05D0     		beq	.L95
 2381              		.loc 1 1020 0 is_stmt 0 discriminator 1
 2382 00aa 079B     		ldr	r3, [sp, #28]
 2383 00ac 002B     		cmp	r3, #0
 2384 00ae 02D1     		bne	.L95
 2385              		.loc 1 1021 0 is_stmt 1
 2386 00b0 4FF0FF33 		mov	r3, #-1
 2387 00b4 66E0     		b	.L93
 2388              	.L95:
 2389              		.loc 1 1024 0
 2390 00b6 BDF80A30 		ldrh	r3, [sp, #10]	@ movhi
 2391 00ba 4FEA4303 		lsl	r3, r3, #1
 2392 00be 9AB2     		uxth	r2, r3
 2393 00c0 039B     		ldr	r3, [sp, #12]
 2394 00c2 1A82     		strh	r2, [r3, #16]	@ movhi
 2395              		.loc 1 1025 0
 2396 00c4 039B     		ldr	r3, [sp, #12]
 2397 00c6 4FF00002 		mov	r2, #0
 2398 00ca 9A60     		str	r2, [r3, #8]
 2399              		.loc 1 1027 0
 2400 00cc 039B     		ldr	r3, [sp, #12]
 2401 00ce 019A     		ldr	r2, [sp, #4]
 2402 00d0 9A62     		str	r2, [r3, #40]
 2403              		.loc 1 1028 0
 2404 00d2 039B     		ldr	r3, [sp, #12]
 2405 00d4 009A     		ldr	r2, [sp, #0]
 2406 00d6 DA62     		str	r2, [r3, #44]
 2407              		.loc 1 1029 0
 2408 00d8 039B     		ldr	r3, [sp, #12]
 2409 00da 4FF00002 		mov	r2, #0
 2410 00de 1A63     		str	r2, [r3, #48]
 2411              		.loc 1 1030 0
 2412 00e0 039B     		ldr	r3, [sp, #12]
 2413 00e2 0E9A     		ldr	r2, [sp, #56]
 2414 00e4 5A63     		str	r2, [r3, #52]
 2415              		.loc 1 1032 0
 2416 00e6 039B     		ldr	r3, [sp, #12]
 2417 00e8 0C9A     		ldr	r2, [sp, #48]
 2418 00ea 9A63     		str	r2, [r3, #56]
 2419              		.loc 1 1033 0
 2420 00ec 039B     		ldr	r3, [sp, #12]
 2421 00ee 0D9A     		ldr	r2, [sp, #52]
 2422 00f0 DA63     		str	r2, [r3, #60]
 2423              		.loc 1 1034 0
 2424 00f2 039B     		ldr	r3, [sp, #12]
 2425 00f4 4FF00002 		mov	r2, #0
 2426 00f8 1A64     		str	r2, [r3, #64]
 2427              		.loc 1 1035 0
 2428 00fa 039B     		ldr	r3, [sp, #12]
 2429 00fc 0F9A     		ldr	r2, [sp, #60]
 2430 00fe 5A64     		str	r2, [r3, #68]
 2431              		.loc 1 1037 0
 2432 0100 039B     		ldr	r3, [sp, #12]
ARM GAS  C:\Users\z80\AppData\Local\Temp\ccyKjVO9.s 			page 45


 2433 0102 4FF00102 		mov	r2, #1
 2434 0106 83F82420 		strb	r2, [r3, #36]
 2435              		.loc 1 1040 0
 2436 010a 099B     		ldr	r3, [sp, #36]
 2437 010c 1B88     		ldrh	r3, [r3, #0]	@ movhi
 2438 010e 9BB2     		uxth	r3, r3
 2439 0110 23F48073 		bic	r3, r3, #256
 2440 0114 9AB2     		uxth	r2, r3
 2441 0116 099B     		ldr	r3, [sp, #36]
 2442 0118 1A80     		strh	r2, [r3, #0]	@ movhi
 2443              		.loc 1 1042 0
 2444 011a 099B     		ldr	r3, [sp, #36]
 2445 011c 9B88     		ldrh	r3, [r3, #4]	@ movhi
 2446 011e 9BB2     		uxth	r3, r3
 2447 0120 23F40063 		bic	r3, r3, #2048
 2448 0124 9AB2     		uxth	r2, r3
 2449 0126 099B     		ldr	r3, [sp, #36]
 2450 0128 9A80     		strh	r2, [r3, #4]	@ movhi
 2451              		.loc 1 1044 0
 2452 012a BDF80A30 		ldrh	r3, [sp, #10]
 2453 012e 4FEA4303 		lsl	r3, r3, #1
 2454 0132 9BB2     		uxth	r3, r3
 2455 0134 DBB2     		uxtb	r3, r3
 2456 0136 9AB2     		uxth	r2, r3
 2457 0138 099B     		ldr	r3, [sp, #36]
 2458 013a 1A81     		strh	r2, [r3, #8]	@ movhi
 2459              		.loc 1 1046 0
 2460 013c 099B     		ldr	r3, [sp, #36]
 2461 013e 9B88     		ldrh	r3, [r3, #4]	@ movhi
 2462 0140 9BB2     		uxth	r3, r3
 2463 0142 43F4C063 		orr	r3, r3, #1536
 2464 0146 9AB2     		uxth	r2, r3
 2465 0148 099B     		ldr	r3, [sp, #36]
 2466 014a 9A80     		strh	r2, [r3, #4]	@ movhi
 2467              		.loc 1 1048 0
 2468 014c 099B     		ldr	r3, [sp, #36]
 2469 014e 1B88     		ldrh	r3, [r3, #0]	@ movhi
 2470 0150 9BB2     		uxth	r3, r3
 2471 0152 43F48063 		orr	r3, r3, #1024
 2472 0156 9AB2     		uxth	r2, r3
 2473 0158 099B     		ldr	r3, [sp, #36]
 2474 015a 1A80     		strh	r2, [r3, #0]	@ movhi
 2475              		.loc 1 1051 0
 2476 015c 40F20003 		movw	r3, #:lower16:rlist
 2477 0160 C0F20003 		movt	r3, #:upper16:rlist
 2478 0164 DA69     		ldr	r2, [r3, #28]
 2479 0166 039B     		ldr	r3, [sp, #12]
 2480 0168 DA60     		str	r2, [r3, #12]
 2481              		.loc 1 1053 0
 2482 016a 109B     		ldr	r3, [sp, #64]
 2483 016c B3F1FF3F 		cmp	r3, #-1
 2484 0170 06D0     		beq	.L96
 2485              		.loc 1 1053 0 is_stmt 0 discriminator 1
 2486 0172 079B     		ldr	r3, [sp, #28]
 2487 0174 002B     		cmp	r3, #0
 2488 0176 03D0     		beq	.L96
 2489              		.loc 1 1054 0 is_stmt 1
ARM GAS  C:\Users\z80\AppData\Local\Temp\ccyKjVO9.s 			page 46


 2490 0178 04AB     		add	r3, sp, #16
 2491 017a 1846     		mov	r0, r3
 2492 017c FFF7FEFF 		bl	chVTResetI
 2493              	.L96:
 2494              		.loc 1 1057 0
 2495 0180 4FF00003 		mov	r3, #0
 2496              	.L93:
 2497              		.loc 1 1058 0
 2498 0184 1846     		mov	r0, r3
 2499 0186 0BB0     		add	sp, sp, #44
 2500 0188 00BD     		pop	{pc}
 2501              		.cfi_endproc
 2502              	.LFE77:
 2503              		.size	i2c_lld_slave_io_timeout, .-i2c_lld_slave_io_timeout
 2504 018a 00BFAFF3 		.text
 2504      0080
 2505              	.Letext0:
 2506              		.file 2 "c:\\programs\\codesourcery\\2011.03-56\\bin\\../lib/gcc/arm-none-eabi/4.6.3/include/stdde
 2507              		.file 3 "c:\\programs\\codesourcery\\2011.03-56\\bin\\../lib/gcc/arm-none-eabi/4.6.3/../../../../a
 2508              		.file 4 "../chibios_2.4.x/os/ports/GCC/ARMCMx/chtypes.h"
 2509              		.file 5 "../chibios_2.4.x/os/kernel/include/chlists.h"
 2510              		.file 6 "../chibios_2.4.x/os/kernel/include/chthreads.h"
 2511              		.file 7 "../chibios_2.4.x/os/ports/GCC/ARMCMx/chcore_v7m.h"
 2512              		.file 8 "../chibios_2.4.x/os/kernel/include/chvt.h"
 2513              		.file 9 "../chibios_2.4.x/os/kernel/include/chschd.h"
 2514              		.file 10 "../chibios_2.4.x/os/kernel/include/chmtx.h"
 2515              		.file 11 "../chibios_2.4.x/os/hal/platforms/STM32F1xx/stm32f10x.h"
 2516              		.file 12 "../chibios_2.4.x/os/hal/platforms/STM32F1xx/stm32_dma.h"
 2517              		.file 13 "../chibios_2.4.x/os/hal/include/i2c.h"
 2518              		.file 14 "../chibios_2.4.x/os/hal/platforms/STM32/i2c_lld.h"
 2519              		.file 15 "../chibios_2.4.x/os/ports/common/ARMCMx/CMSIS/include/core_cm3.h"