ARM GAS  C:\Users\z80\AppData\Local\Temp\ccyKjVO9.s 			page 1


   1              		.syntax unified
   2              		.cpu cortex-m3
   3              		.fpu softvfp
   4              		.eabi_attribute 20, 1
   5              		.eabi_attribute 21, 1
   6              		.eabi_attribute 23, 3
   7              		.eabi_attribute 24, 1
   8              		.eabi_attribute 25, 1
   9              		.eabi_attribute 26, 1
  10              		.eabi_attribute 30, 6
  11              		.eabi_attribute 34, 1
  12              		.eabi_attribute 18, 4
  13              		.thumb
  14              		.file	"i2c_lld.c"
  15              		.text
  16              	.Ltext0:
  17              		.cfi_sections	.debug_frame
  18              		.global	I2CD1
  19              		.section	.bss.I2CD1,"aw",%nobits
  20              		.align	2
  21              		.type	I2CD1, %object
  22              		.size	I2CD1, 72
  23              	I2CD1:
  24 0000 00000000 		.space	72
  24      00000000 
  24      00000000 
  24      00000000 
  24      00000000 
  25              		.section	.bss.dbgSR1,"aw",%nobits
  26              		.align	1
  27              		.type	dbgSR1, %object
  28              		.size	dbgSR1, 2
  29              	dbgSR1:
  30 0000 0000     		.space	2
  31              		.section	.bss.dbgSR2,"aw",%nobits
  32              		.align	1
  33              		.type	dbgSR2, %object
  34              		.size	dbgSR2, 2
  35              	dbgSR2:
  36 0000 0000     		.space	2
  37              		.section	.bss.dbgCR1,"aw",%nobits
  38              		.align	1
  39              		.type	dbgCR1, %object
  40              		.size	dbgCR1, 2
  41              	dbgCR1:
  42 0000 0000     		.space	2
  43              		.section	.bss.dbgCR2,"aw",%nobits
  44              		.align	1
  45              		.type	dbgCR2, %object
  46              		.size	dbgCR2, 2
  47              	dbgCR2:
  48 0000 0000     		.space	2
  49              		.section	.text.i2c_lld_abort_operation,"ax",%progbits
  50              		.align	2
  51              		.p2align 4,,15
  52              		.thumb
  53              		.thumb_func
ARM GAS  C:\Users\z80\AppData\Local\Temp\ccyKjVO9.s 			page 2


  54              		.type	i2c_lld_abort_operation, %function
  55              	i2c_lld_abort_operation:
  56              	.LFB62:
  57              		.file 1 "../chibios_2.4.x/os/hal/platforms/STM32/i2c_lld.c"
  58              		.loc 1 151 0
  59              		.cfi_startproc
  60              		@ args = 0, pretend = 0, frame = 16
  61              		@ frame_needed = 0, uses_anonymous_args = 0
  62              		@ link register save eliminated.
  63 0000 84B0     		sub	sp, sp, #16
  64              	.LCFI0:
  65              		.cfi_def_cfa_offset 16
  66 0002 0190     		str	r0, [sp, #4]
  67              		.loc 1 152 0
  68 0004 019B     		ldr	r3, [sp, #4]
  69 0006 1B6A     		ldr	r3, [r3, #32]
  70 0008 0393     		str	r3, [sp, #12]
  71              		.loc 1 155 0
  72 000a 039B     		ldr	r3, [sp, #12]
  73 000c 4FF40042 		mov	r2, #32768
  74 0010 1A80     		strh	r2, [r3, #0]	@ movhi
  75              		.loc 1 156 0
  76 0012 039B     		ldr	r3, [sp, #12]
  77 0014 4FF00002 		mov	r2, #0
  78 0018 1A80     		strh	r2, [r3, #0]	@ movhi
  79              		.loc 1 157 0
  80 001a 039B     		ldr	r3, [sp, #12]
  81 001c 4FF00002 		mov	r2, #0
  82 0020 9A80     		strh	r2, [r3, #4]	@ movhi
  83              		.loc 1 158 0
  84 0022 039B     		ldr	r3, [sp, #12]
  85 0024 4FF00002 		mov	r2, #0
  86 0028 9A82     		strh	r2, [r3, #20]	@ movhi
  87              		.loc 1 161 0
  88 002a 019B     		ldr	r3, [sp, #4]
  89 002c DB69     		ldr	r3, [r3, #28]
  90 002e 1B68     		ldr	r3, [r3, #0]
  91 0030 019A     		ldr	r2, [sp, #4]
  92 0032 D269     		ldr	r2, [r2, #28]
  93 0034 1268     		ldr	r2, [r2, #0]
  94 0036 1268     		ldr	r2, [r2, #0]
  95 0038 22F00102 		bic	r2, r2, #1
  96 003c 1A60     		str	r2, [r3, #0]
  97 003e 019B     		ldr	r3, [sp, #4]
  98 0040 DB69     		ldr	r3, [r3, #28]
  99 0042 5B68     		ldr	r3, [r3, #4]
 100 0044 019A     		ldr	r2, [sp, #4]
 101 0046 D269     		ldr	r2, [r2, #28]
 102 0048 127A     		ldrb	r2, [r2, #8]	@ zero_extendqisi2
 103 004a 4FF00F01 		mov	r1, #15
 104 004e 01FA02F2 		lsl	r2, r1, r2
 105 0052 1A60     		str	r2, [r3, #0]
 106              		.loc 1 162 0
 107 0054 019B     		ldr	r3, [sp, #4]
 108 0056 9B69     		ldr	r3, [r3, #24]
 109 0058 1B68     		ldr	r3, [r3, #0]
 110 005a 019A     		ldr	r2, [sp, #4]
ARM GAS  C:\Users\z80\AppData\Local\Temp\ccyKjVO9.s 			page 3


 111 005c 9269     		ldr	r2, [r2, #24]
 112 005e 1268     		ldr	r2, [r2, #0]
 113 0060 1268     		ldr	r2, [r2, #0]
 114 0062 22F00102 		bic	r2, r2, #1
 115 0066 1A60     		str	r2, [r3, #0]
 116 0068 019B     		ldr	r3, [sp, #4]
 117 006a 9B69     		ldr	r3, [r3, #24]
 118 006c 5B68     		ldr	r3, [r3, #4]
 119 006e 019A     		ldr	r2, [sp, #4]
 120 0070 9269     		ldr	r2, [r2, #24]
 121 0072 127A     		ldrb	r2, [r2, #8]	@ zero_extendqisi2
 122 0074 4FF00F01 		mov	r1, #15
 123 0078 01FA02F2 		lsl	r2, r1, r2
 124 007c 1A60     		str	r2, [r3, #0]
 125              		.loc 1 163 0
 126 007e 04B0     		add	sp, sp, #16
 127 0080 7047     		bx	lr
 128              		.cfi_endproc
 129              	.LFE62:
 130              		.size	i2c_lld_abort_operation, .-i2c_lld_abort_operation
 131 0082 00BFAFF3 		.section	.text.i2c_lld_safety_timeout,"ax",%progbits
 131      0080AFF3 
 131      0080AFF3 
 131      0080
 132              		.align	2
 133              		.p2align 4,,15
 134              		.thumb
 135              		.thumb_func
 136              		.type	i2c_lld_safety_timeout, %function
 137              	i2c_lld_safety_timeout:
 138              	.LFB63:
 139              		.loc 1 172 0
 140              		.cfi_startproc
 141              		@ args = 0, pretend = 0, frame = 16
 142              		@ frame_needed = 0, uses_anonymous_args = 0
 143 0000 00B5     		push	{lr}
 144              	.LCFI1:
 145              		.cfi_def_cfa_offset 4
 146              		.cfi_offset 14, -4
 147 0002 85B0     		sub	sp, sp, #20
 148              	.LCFI2:
 149              		.cfi_def_cfa_offset 24
 150 0004 0190     		str	r0, [sp, #4]
 151              		.loc 1 173 0
 152 0006 019B     		ldr	r3, [sp, #4]
 153 0008 0393     		str	r3, [sp, #12]
 154              		.loc 1 175 0
 155 000a 039B     		ldr	r3, [sp, #12]
 156 000c DB68     		ldr	r3, [r3, #12]
 157 000e 002B     		cmp	r3, #0
 158 0010 10D0     		beq	.L2
 159              	.LBB2:
 160              		.loc 1 176 0
 161 0012 039B     		ldr	r3, [sp, #12]
 162 0014 DB68     		ldr	r3, [r3, #12]
 163 0016 0293     		str	r3, [sp, #8]
 164              		.loc 1 177 0
ARM GAS  C:\Users\z80\AppData\Local\Temp\ccyKjVO9.s 			page 4


 165 0018 0398     		ldr	r0, [sp, #12]
 166 001a FFF7FEFF 		bl	i2c_lld_abort_operation
 167              		.loc 1 178 0
 168 001e 039B     		ldr	r3, [sp, #12]
 169 0020 4FF00002 		mov	r2, #0
 170 0024 DA60     		str	r2, [r3, #12]
 171              		.loc 1 179 0
 172 0026 029B     		ldr	r3, [sp, #8]
 173 0028 4FF0FF32 		mov	r2, #-1
 174 002c 9A62     		str	r2, [r3, #40]
 175              		.loc 1 180 0
 176 002e 0298     		ldr	r0, [sp, #8]
 177 0030 FFF7FEFF 		bl	chSchReadyI
 178              	.L2:
 179              	.LBE2:
 180              		.loc 1 182 0
 181 0034 05B0     		add	sp, sp, #20
 182 0036 00BD     		pop	{pc}
 183              		.cfi_endproc
 184              	.LFE63:
 185              		.size	i2c_lld_safety_timeout, .-i2c_lld_safety_timeout
 186 0038 AFF30080 		.section	.rodata
 186      AFF30080 
 187              		.align	2
 188              	.LC0:
 189 0000 22693263 		.ascii	"\"i2c_lld_set_clock\"()\000"
 189      5F6C6C64 
 189      5F736574 
 189      5F636C6F 
 189      636B2228 
 190 0016 0000     		.align	2
 191              	.LC1:
 192 0018 6932635F 		.ascii	"i2c_lld_set_clock(), #1\000"
 192      6C6C645F 
 192      7365745F 
 192      636C6F63 
 192      6B28292C 
 193              		.align	2
 194              	.LC2:
 195 0030 6932635F 		.ascii	"i2c_lld_set_clock(), #2\000"
 195      6C6C645F 
 195      7365745F 
 195      636C6F63 
 195      6B28292C 
 196              		.align	2
 197              	.LC3:
 198 0048 6932635F 		.ascii	"i2c_lld_set_clock(), #3\000"
 198      6C6C645F 
 198      7365745F 
 198      636C6F63 
 198      6B28292C 
 199              		.align	2
 200              	.LC4:
 201 0060 6932635F 		.ascii	"i2c_lld_set_clock(), #4\000"
 201      6C6C645F 
 201      7365745F 
 201      636C6F63 
ARM GAS  C:\Users\z80\AppData\Local\Temp\ccyKjVO9.s 			page 5


 201      6B28292C 
 202              		.align	2
 203              	.LC5:
 204 0078 6932635F 		.ascii	"i2c_lld_set_clock(), #5\000"
 204      6C6C645F 
 204      7365745F 
 204      636C6F63 
 204      6B28292C 
 205              		.align	2
 206              	.LC6:
 207 0090 6932635F 		.ascii	"i2c_lld_set_clock(), #6\000"
 207      6C6C645F 
 207      7365745F 
 207      636C6F63 
 207      6B28292C 
 208              		.align	2
 209              	.LC7:
 210 00a8 6932635F 		.ascii	"i2c_lld_set_clock(), #7\000"
 210      6C6C645F 
 210      7365745F 
 210      636C6F63 
 210      6B28292C 
 211              		.align	2
 212              	.LC8:
 213 00c0 6932635F 		.ascii	"i2c_lld_set_clock(), #8\000"
 213      6C6C645F 
 213      7365745F 
 213      636C6F63 
 213      6B28292C 
 214              		.section	.text.i2c_lld_set_clock,"ax",%progbits
 215              		.align	2
 216              		.p2align 4,,15
 217              		.thumb
 218              		.thumb_func
 219              		.type	i2c_lld_set_clock, %function
 220              	i2c_lld_set_clock:
 221              	.LFB64:
 222              		.loc 1 191 0
 223              		.cfi_startproc
 224              		@ args = 0, pretend = 0, frame = 24
 225              		@ frame_needed = 0, uses_anonymous_args = 0
 226 0000 00B5     		push	{lr}
 227              	.LCFI3:
 228              		.cfi_def_cfa_offset 4
 229              		.cfi_offset 14, -4
 230 0002 87B0     		sub	sp, sp, #28
 231              	.LCFI4:
 232              		.cfi_def_cfa_offset 32
 233 0004 0190     		str	r0, [sp, #4]
 234              		.loc 1 192 0
 235 0006 019B     		ldr	r3, [sp, #4]
 236 0008 1B6A     		ldr	r3, [r3, #32]
 237 000a 0493     		str	r3, [sp, #16]
 238              		.loc 1 194 0
 239 000c 019B     		ldr	r3, [sp, #4]
 240 000e 5B68     		ldr	r3, [r3, #4]
 241 0010 5B68     		ldr	r3, [r3, #4]
ARM GAS  C:\Users\z80\AppData\Local\Temp\ccyKjVO9.s 			page 6


 242 0012 0393     		str	r3, [sp, #12]
 243              		.loc 1 195 0
 244 0014 019B     		ldr	r3, [sp, #4]
 245 0016 5B68     		ldr	r3, [r3, #4]
 246 0018 1B7A     		ldrb	r3, [r3, #8]
 247 001a 8DF80B30 		strb	r3, [sp, #11]
 248              		.loc 1 197 0
 249 001e 019B     		ldr	r3, [sp, #4]
 250 0020 002B     		cmp	r3, #0
 251 0022 09D0     		beq	.L5
 252              		.loc 1 197 0 is_stmt 0 discriminator 2
 253 0024 039B     		ldr	r3, [sp, #12]
 254 0026 002B     		cmp	r3, #0
 255 0028 06DD     		ble	.L5
 256              		.loc 1 197 0 discriminator 3
 257 002a 039A     		ldr	r2, [sp, #12]
 258 002c 4FF41063 		mov	r3, #2304
 259 0030 C0F23D03 		movt	r3, 61
 260 0034 9A42     		cmp	r2, r3
 261 0036 05DD     		ble	.L6
 262              	.L5:
 263              		.loc 1 197 0 discriminator 1
 264 0038 40F20000 		movw	r0, #:lower16:.LC0
 265 003c C0F20000 		movt	r0, #:upper16:.LC0
 266 0040 FFF7FEFF 		bl	chDbgPanic
 267              	.L6:
 268              		.loc 1 201 0 is_stmt 1
 269 0044 049B     		ldr	r3, [sp, #16]
 270 0046 9B88     		ldrh	r3, [r3, #4]	@ movhi
 271 0048 9BB2     		uxth	r3, r3
 272 004a 23F03F03 		bic	r3, r3, #63
 273 004e 9AB2     		uxth	r2, r3
 274 0050 049B     		ldr	r3, [sp, #16]
 275 0052 9A80     		strh	r2, [r3, #4]	@ movhi
 276              		.loc 1 202 0
 277 0054 049B     		ldr	r3, [sp, #16]
 278 0056 9B88     		ldrh	r3, [r3, #4]	@ movhi
 279 0058 9BB2     		uxth	r3, r3
 280 005a 43F02403 		orr	r3, r3, #36
 281 005e 9AB2     		uxth	r2, r3
 282 0060 049B     		ldr	r3, [sp, #16]
 283 0062 9A80     		strh	r2, [r3, #4]	@ movhi
 284              		.loc 1 205 0
 285 0064 4FF00003 		mov	r3, #0
 286 0068 ADF81630 		strh	r3, [sp, #22]	@ movhi
 287              		.loc 1 206 0
 288 006c 40F6FF73 		movw	r3, #4095
 289 0070 ADF81430 		strh	r3, [sp, #20]	@ movhi
 290              		.loc 1 208 0
 291 0074 039A     		ldr	r2, [sp, #12]
 292 0076 48F2A063 		movw	r3, #34464
 293 007a C0F20103 		movt	r3, 1
 294 007e 9A42     		cmp	r2, r3
 295 0080 44DC     		bgt	.L7
 296              		.loc 1 210 0
 297 0082 9DF80B30 		ldrb	r3, [sp, #11]	@ zero_extendqisi2
 298 0086 012B     		cmp	r3, #1
ARM GAS  C:\Users\z80\AppData\Local\Temp\ccyKjVO9.s 			page 7


 299 0088 05D0     		beq	.L8
 300              		.loc 1 210 0 is_stmt 0 discriminator 1
 301 008a 40F20000 		movw	r0, #:lower16:.LC1
 302 008e C0F20000 		movt	r0, #:upper16:.LC1
 303 0092 FFF7FEFF 		bl	chDbgPanic
 304              	.L8:
 305              		.loc 1 215 0 is_stmt 1
 306 0096 039B     		ldr	r3, [sp, #12]
 307 0098 4FEA4302 		lsl	r2, r3, #1
 308 009c 4FF4A243 		mov	r3, #20736
 309 00a0 C0F22523 		movt	r3, 549
 310 00a4 93FBF2F1 		sdiv	r1, r3, r2
 311 00a8 02FB01F2 		mul	r2, r2, r1
 312 00ac 9B1A     		subs	r3, r3, r2
 313 00ae 002B     		cmp	r3, #0
 314 00b0 05D0     		beq	.L9
 315              		.loc 1 215 0 is_stmt 0 discriminator 1
 316 00b2 40F20000 		movw	r0, #:lower16:.LC2
 317 00b6 C0F20000 		movt	r0, #:upper16:.LC2
 318 00ba FFF7FEFF 		bl	chDbgPanic
 319              	.L9:
 320              		.loc 1 218 0 is_stmt 1
 321 00be 039B     		ldr	r3, [sp, #12]
 322 00c0 4FEA4302 		lsl	r2, r3, #1
 323 00c4 4FF4A243 		mov	r3, #20736
 324 00c8 C0F22523 		movt	r3, 549
 325 00cc 93FBF2F3 		sdiv	r3, r3, r2
 326 00d0 ADF81430 		strh	r3, [sp, #20]	@ movhi
 327              		.loc 1 220 0
 328 00d4 BDF81430 		ldrh	r3, [sp, #20]
 329 00d8 032B     		cmp	r3, #3
 330 00da 05D8     		bhi	.L10
 331              		.loc 1 220 0 is_stmt 0 discriminator 1
 332 00dc 40F20000 		movw	r0, #:lower16:.LC3
 333 00e0 C0F20000 		movt	r0, #:upper16:.LC3
 334 00e4 FFF7FEFF 		bl	chDbgPanic
 335              	.L10:
 336              		.loc 1 223 0 is_stmt 1
 337 00e8 BDF81430 		ldrh	r3, [sp, #20]
 338 00ec 4FEA0353 		lsl	r3, r3, #20
 339 00f0 4FEA1353 		lsr	r3, r3, #20
 340 00f4 9AB2     		uxth	r2, r3
 341 00f6 BDF81630 		ldrh	r3, [sp, #22]
 342 00fa 1343     		orrs	r3, r3, r2
 343 00fc 9BB2     		uxth	r3, r3
 344 00fe ADF81630 		strh	r3, [sp, #22]	@ movhi
 345              		.loc 1 226 0
 346 0102 049B     		ldr	r3, [sp, #16]
 347 0104 4FF02502 		mov	r2, #37
 348 0108 1A84     		strh	r2, [r3, #32]	@ movhi
 349 010a 90E0     		b	.L11
 350              	.L7:
 351              		.loc 1 228 0
 352 010c 039A     		ldr	r2, [sp, #12]
 353 010e 4FF4D453 		mov	r3, #6784
 354 0112 C0F20603 		movt	r3, 6
 355 0116 9A42     		cmp	r2, r3
ARM GAS  C:\Users\z80\AppData\Local\Temp\ccyKjVO9.s 			page 8


 356 0118 00F38980 		bgt	.L11
 357              		.loc 1 230 0
 358 011c 9DF80B30 		ldrb	r3, [sp, #11]	@ zero_extendqisi2
 359 0120 022B     		cmp	r3, #2
 360 0122 09D0     		beq	.L12
 361              		.loc 1 230 0 is_stmt 0 discriminator 1
 362 0124 9DF80B30 		ldrb	r3, [sp, #11]	@ zero_extendqisi2
 363 0128 032B     		cmp	r3, #3
 364 012a 05D0     		beq	.L12
 365              		.loc 1 230 0 discriminator 2
 366 012c 40F20000 		movw	r0, #:lower16:.LC4
 367 0130 C0F20000 		movt	r0, #:upper16:.LC4
 368 0134 FFF7FEFF 		bl	chDbgPanic
 369              	.L12:
 370              		.loc 1 234 0 is_stmt 1
 371 0138 9DF80B30 		ldrb	r3, [sp, #11]	@ zero_extendqisi2
 372 013c 022B     		cmp	r3, #2
 373 013e 23D1     		bne	.L13
 374              		.loc 1 236 0
 375 0140 039A     		ldr	r2, [sp, #12]
 376 0142 1346     		mov	r3, r2
 377 0144 4FEA4303 		lsl	r3, r3, #1
 378 0148 9A18     		adds	r2, r3, r2
 379 014a 4FF4A243 		mov	r3, #20736
 380 014e C0F22523 		movt	r3, 549
 381 0152 93FBF2F1 		sdiv	r1, r3, r2
 382 0156 02FB01F2 		mul	r2, r2, r1
 383 015a 9B1A     		subs	r3, r3, r2
 384 015c 002B     		cmp	r3, #0
 385 015e 05D0     		beq	.L14
 386              		.loc 1 236 0 is_stmt 0 discriminator 1
 387 0160 40F20000 		movw	r0, #:lower16:.LC5
 388 0164 C0F20000 		movt	r0, #:upper16:.LC5
 389 0168 FFF7FEFF 		bl	chDbgPanic
 390              	.L14:
 391              		.loc 1 239 0 is_stmt 1
 392 016c 039A     		ldr	r2, [sp, #12]
 393 016e 1346     		mov	r3, r2
 394 0170 4FEA4303 		lsl	r3, r3, #1
 395 0174 9A18     		adds	r2, r3, r2
 396 0176 4FF4A243 		mov	r3, #20736
 397 017a C0F22523 		movt	r3, 549
 398 017e 93FBF2F3 		sdiv	r3, r3, r2
 399 0182 ADF81430 		strh	r3, [sp, #20]	@ movhi
 400 0186 32E0     		b	.L15
 401              	.L13:
 402              		.loc 1 241 0
 403 0188 9DF80B30 		ldrb	r3, [sp, #11]	@ zero_extendqisi2
 404 018c 032B     		cmp	r3, #3
 405 018e 2ED1     		bne	.L15
 406              		.loc 1 243 0
 407 0190 039A     		ldr	r2, [sp, #12]
 408 0192 1346     		mov	r3, r2
 409 0194 4FEA8303 		lsl	r3, r3, #2
 410 0198 9B18     		adds	r3, r3, r2
 411 019a 4FEA8302 		lsl	r2, r3, #2
 412 019e 9A18     		adds	r2, r3, r2
ARM GAS  C:\Users\z80\AppData\Local\Temp\ccyKjVO9.s 			page 9


 413 01a0 4FF4A243 		mov	r3, #20736
 414 01a4 C0F22523 		movt	r3, 549
 415 01a8 93FBF2F1 		sdiv	r1, r3, r2
 416 01ac 02FB01F2 		mul	r2, r2, r1
 417 01b0 9B1A     		subs	r3, r3, r2
 418 01b2 002B     		cmp	r3, #0
 419 01b4 05D0     		beq	.L16
 420              		.loc 1 243 0 is_stmt 0 discriminator 1
 421 01b6 40F20000 		movw	r0, #:lower16:.LC6
 422 01ba C0F20000 		movt	r0, #:upper16:.LC6
 423 01be FFF7FEFF 		bl	chDbgPanic
 424              	.L16:
 425              		.loc 1 246 0 is_stmt 1
 426 01c2 039A     		ldr	r2, [sp, #12]
 427 01c4 1346     		mov	r3, r2
 428 01c6 4FEA8303 		lsl	r3, r3, #2
 429 01ca 9B18     		adds	r3, r3, r2
 430 01cc 4FEA8302 		lsl	r2, r3, #2
 431 01d0 9A18     		adds	r2, r3, r2
 432 01d2 4FF4A243 		mov	r3, #20736
 433 01d6 C0F22523 		movt	r3, 549
 434 01da 93FBF2F3 		sdiv	r3, r3, r2
 435 01de ADF81430 		strh	r3, [sp, #20]	@ movhi
 436              		.loc 1 247 0
 437 01e2 BDF81630 		ldrh	r3, [sp, #22]	@ movhi
 438 01e6 43F48043 		orr	r3, r3, #16384
 439 01ea ADF81630 		strh	r3, [sp, #22]	@ movhi
 440              	.L15:
 441              		.loc 1 250 0
 442 01ee BDF81430 		ldrh	r3, [sp, #20]
 443 01f2 002B     		cmp	r3, #0
 444 01f4 05D1     		bne	.L17
 445              		.loc 1 250 0 is_stmt 0 discriminator 1
 446 01f6 40F20000 		movw	r0, #:lower16:.LC7
 447 01fa C0F20000 		movt	r0, #:upper16:.LC7
 448 01fe FFF7FEFF 		bl	chDbgPanic
 449              	.L17:
 450              		.loc 1 253 0 is_stmt 1
 451 0202 BDF81430 		ldrh	r3, [sp, #20]
 452 0206 4FEA0353 		lsl	r3, r3, #20
 453 020a 4FEA1353 		lsr	r3, r3, #20
 454 020e 9BB2     		uxth	r3, r3
 455 0210 6FEA4343 		mvn	r3, r3, lsl #17
 456 0214 6FEA5343 		mvn	r3, r3, lsr #17
 457 0218 9AB2     		uxth	r2, r3
 458 021a BDF81630 		ldrh	r3, [sp, #22]
 459 021e 1343     		orrs	r3, r3, r2
 460 0220 9BB2     		uxth	r3, r3
 461 0222 ADF81630 		strh	r3, [sp, #22]	@ movhi
 462              		.loc 1 256 0
 463 0226 049B     		ldr	r3, [sp, #16]
 464 0228 4FF00B02 		mov	r2, #11
 465 022c 1A84     		strh	r2, [r3, #32]	@ movhi
 466              	.L11:
 467              		.loc 1 259 0
 468 022e BDF81420 		ldrh	r2, [sp, #20]
 469 0232 40F6FF73 		movw	r3, #4095
ARM GAS  C:\Users\z80\AppData\Local\Temp\ccyKjVO9.s 			page 10


 470 0236 9A42     		cmp	r2, r3
 471 0238 05D9     		bls	.L18
 472              		.loc 1 259 0 is_stmt 0 discriminator 1
 473 023a 40F20000 		movw	r0, #:lower16:.LC8
 474 023e C0F20000 		movt	r0, #:upper16:.LC8
 475 0242 FFF7FEFF 		bl	chDbgPanic
 476              	.L18:
 477              		.loc 1 262 0 is_stmt 1
 478 0246 049B     		ldr	r3, [sp, #16]
 479 0248 BDF81620 		ldrh	r2, [sp, #22]	@ movhi
 480 024c 9A83     		strh	r2, [r3, #28]	@ movhi
 481              		.loc 1 263 0
 482 024e 07B0     		add	sp, sp, #28
 483 0250 00BD     		pop	{pc}
 484              		.cfi_endproc
 485              	.LFE64:
 486              		.size	i2c_lld_set_clock, .-i2c_lld_set_clock
 487 0252 00BFAFF3 		.section	.text.i2c_lld_set_opmode,"ax",%progbits
 487      0080AFF3 
 487      0080AFF3 
 487      0080
 488              		.align	2
 489              		.p2align 4,,15
 490              		.thumb
 491              		.thumb_func
 492              		.type	i2c_lld_set_opmode, %function
 493              	i2c_lld_set_opmode:
 494              	.LFB65:
 495              		.loc 1 272 0
 496              		.cfi_startproc
 497              		@ args = 0, pretend = 0, frame = 24
 498              		@ frame_needed = 0, uses_anonymous_args = 0
 499              		@ link register save eliminated.
 500 0000 86B0     		sub	sp, sp, #24
 501              	.LCFI5:
 502              		.cfi_def_cfa_offset 24
 503 0002 0190     		str	r0, [sp, #4]
 504              		.loc 1 273 0
 505 0004 019B     		ldr	r3, [sp, #4]
 506 0006 1B6A     		ldr	r3, [r3, #32]
 507 0008 0493     		str	r3, [sp, #16]
 508              		.loc 1 274 0
 509 000a 019B     		ldr	r3, [sp, #4]
 510 000c 5B68     		ldr	r3, [r3, #4]
 511 000e 1B78     		ldrb	r3, [r3, #0]
 512 0010 8DF80F30 		strb	r3, [sp, #15]
 513              		.loc 1 277 0
 514 0014 049B     		ldr	r3, [sp, #16]
 515 0016 1B88     		ldrh	r3, [r3, #0]	@ movhi
 516 0018 ADF81630 		strh	r3, [sp, #22]	@ movhi
 517              		.loc 1 278 0
 518 001c 9DF80F30 		ldrb	r3, [sp, #15]	@ zero_extendqisi2
 519 0020 022B     		cmp	r3, #2
 520 0022 0AD0     		beq	.L22
 521 0024 032B     		cmp	r3, #3
 522 0026 15D0     		beq	.L23
 523 0028 012B     		cmp	r3, #1
ARM GAS  C:\Users\z80\AppData\Local\Temp\ccyKjVO9.s 			page 11


 524 002a 1AD1     		bne	.L20
 525              	.L21:
 526              		.loc 1 280 0
 527 002c BDF81630 		ldrh	r3, [sp, #22]	@ movhi
 528 0030 23F00A03 		bic	r3, r3, #10
 529 0034 ADF81630 		strh	r3, [sp, #22]	@ movhi
 530              		.loc 1 281 0
 531 0038 13E0     		b	.L20
 532              	.L22:
 533              		.loc 1 283 0
 534 003a BDF81630 		ldrh	r3, [sp, #22]	@ movhi
 535 003e 43F00203 		orr	r3, r3, #2
 536 0042 ADF81630 		strh	r3, [sp, #22]	@ movhi
 537              		.loc 1 284 0
 538 0046 BDF81630 		ldrh	r3, [sp, #22]	@ movhi
 539 004a 23F00803 		bic	r3, r3, #8
 540 004e ADF81630 		strh	r3, [sp, #22]	@ movhi
 541              		.loc 1 285 0
 542 0052 06E0     		b	.L20
 543              	.L23:
 544              		.loc 1 287 0
 545 0054 BDF81630 		ldrh	r3, [sp, #22]	@ movhi
 546 0058 43F00A03 		orr	r3, r3, #10
 547 005c ADF81630 		strh	r3, [sp, #22]	@ movhi
 548              		.loc 1 288 0
 549 0060 00BF     		nop
 550              	.L20:
 551              		.loc 1 290 0
 552 0062 049B     		ldr	r3, [sp, #16]
 553 0064 BDF81620 		ldrh	r2, [sp, #22]	@ movhi
 554 0068 1A80     		strh	r2, [r3, #0]	@ movhi
 555              		.loc 1 291 0
 556 006a 06B0     		add	sp, sp, #24
 557 006c 7047     		bx	lr
 558              		.cfi_endproc
 559              	.LFE65:
 560              		.size	i2c_lld_set_opmode, .-i2c_lld_set_opmode
 561 006e 00BF     		.section	.text.i2c_lld_serve_event_interrupt,"ax",%progbits
 562              		.align	2
 563              		.p2align 4,,15
 564              		.thumb
 565              		.thumb_func
 566              		.type	i2c_lld_serve_event_interrupt, %function
 567              	i2c_lld_serve_event_interrupt:
 568              	.LFB66:
 569              		.loc 1 300 0
 570              		.cfi_startproc
 571              		@ args = 0, pretend = 0, frame = 24
 572              		@ frame_needed = 0, uses_anonymous_args = 0
 573 0000 00B5     		push	{lr}
 574              	.LCFI6:
 575              		.cfi_def_cfa_offset 4
 576              		.cfi_offset 14, -4
 577 0002 87B0     		sub	sp, sp, #28
 578              	.LCFI7:
 579              		.cfi_def_cfa_offset 32
 580 0004 0190     		str	r0, [sp, #4]
ARM GAS  C:\Users\z80\AppData\Local\Temp\ccyKjVO9.s 			page 12


 581              		.loc 1 302 0
 582 0006 019B     		ldr	r3, [sp, #4]
 583 0008 1B6A     		ldr	r3, [r3, #32]
 584 000a 0493     		str	r3, [sp, #16]
 585              		.loc 1 303 0
 586 000c 049B     		ldr	r3, [sp, #16]
 587 000e 1B8B     		ldrh	r3, [r3, #24]	@ movhi
 588 0010 9BB2     		uxth	r3, r3
 589 0012 0393     		str	r3, [sp, #12]
 590              		.loc 1 304 0
 591 0014 049B     		ldr	r3, [sp, #16]
 592 0016 9B8A     		ldrh	r3, [r3, #20]	@ movhi
 593 0018 9BB2     		uxth	r3, r3
 594 001a 0593     		str	r3, [sp, #20]
 595              		.loc 1 307 0
 596 001c 019B     		ldr	r3, [sp, #4]
 597 001e 93F82430 		ldrb	r3, [r3, #36]	@ zero_extendqisi2
 598 0022 002B     		cmp	r3, #0
 599 0024 40F0B780 		bne	.L25
 600              		.loc 1 313 0
 601 0028 039B     		ldr	r3, [sp, #12]
 602 002a 4FEA0342 		lsl	r2, r3, #16
 603 002e 059B     		ldr	r3, [sp, #20]
 604 0030 1343     		orrs	r3, r3, r2
 605 0032 23F07F43 		bic	r3, r3, #-16777216
 606 0036 4FF00202 		mov	r2, #2
 607 003a C0F20302 		movt	r2, 3
 608 003e 9342     		cmp	r3, r2
 609 0040 1ED0     		beq	.L28
 610 0042 4FF00202 		mov	r2, #2
 611 0046 C0F20302 		movt	r2, 3
 612 004a 9342     		cmp	r3, r2
 613 004c 06D8     		bhi	.L31
 614 004e 4FF00102 		mov	r2, #1
 615 0052 C0F20302 		movt	r2, 3
 616 0056 9342     		cmp	r3, r2
 617 0058 0DD0     		beq	.L27
 618 005a 92E0     		b	.L26
 619              	.L31:
 620 005c 4FF08202 		mov	r2, #130
 621 0060 C0F20702 		movt	r2, 7
 622 0064 9342     		cmp	r3, r2
 623 0066 34D0     		beq	.L29
 624 0068 4FF08402 		mov	r2, #132
 625 006c C0F20702 		movt	r2, 7
 626 0070 9342     		cmp	r3, r2
 627 0072 41D0     		beq	.L30
 628 0074 85E0     		b	.L26
 629              	.L27:
 630              		.loc 1 315 0
 631 0076 019B     		ldr	r3, [sp, #4]
 632 0078 1A8A     		ldrh	r2, [r3, #16]
 633 007a 049B     		ldr	r3, [sp, #16]
 634 007c 1A82     		strh	r2, [r3, #16]	@ movhi
 635              		.loc 1 316 0
 636 007e 82E0     		b	.L32
 637              	.L28:
ARM GAS  C:\Users\z80\AppData\Local\Temp\ccyKjVO9.s 			page 13


 638              		.loc 1 318 0
 639 0080 049B     		ldr	r3, [sp, #16]
 640 0082 9B88     		ldrh	r3, [r3, #4]	@ movhi
 641 0084 9BB2     		uxth	r3, r3
 642 0086 23F40073 		bic	r3, r3, #512
 643 008a 9AB2     		uxth	r2, r3
 644 008c 049B     		ldr	r3, [sp, #16]
 645 008e 9A80     		strh	r2, [r3, #4]	@ movhi
 646              		.loc 1 319 0
 647 0090 019B     		ldr	r3, [sp, #4]
 648 0092 9B69     		ldr	r3, [r3, #24]
 649 0094 1B68     		ldr	r3, [r3, #0]
 650 0096 019A     		ldr	r2, [sp, #4]
 651 0098 9269     		ldr	r2, [r2, #24]
 652 009a 1268     		ldr	r2, [r2, #0]
 653 009c 1268     		ldr	r2, [r2, #0]
 654 009e 42F00102 		orr	r2, r2, #1
 655 00a2 1A60     		str	r2, [r3, #0]
 656              		.loc 1 320 0
 657 00a4 049B     		ldr	r3, [sp, #16]
 658 00a6 9B88     		ldrh	r3, [r3, #4]	@ movhi
 659 00a8 9BB2     		uxth	r3, r3
 660 00aa 43F48053 		orr	r3, r3, #4096
 661 00ae 9AB2     		uxth	r2, r3
 662 00b0 049B     		ldr	r3, [sp, #16]
 663 00b2 9A80     		strh	r2, [r3, #4]	@ movhi
 664              		.loc 1 321 0
 665 00b4 019B     		ldr	r3, [sp, #4]
 666 00b6 9B69     		ldr	r3, [r3, #24]
 667 00b8 1B68     		ldr	r3, [r3, #0]
 668 00ba 5B68     		ldr	r3, [r3, #4]
 669 00bc 012B     		cmp	r3, #1
 670 00be 61D8     		bhi	.L41
 671              		.loc 1 322 0
 672 00c0 049B     		ldr	r3, [sp, #16]
 673 00c2 1B88     		ldrh	r3, [r3, #0]	@ movhi
 674 00c4 9BB2     		uxth	r3, r3
 675 00c6 23F48063 		bic	r3, r3, #1024
 676 00ca 9AB2     		uxth	r2, r3
 677 00cc 049B     		ldr	r3, [sp, #16]
 678 00ce 1A80     		strh	r2, [r3, #0]	@ movhi
 679              		.loc 1 323 0
 680 00d0 58E0     		b	.L41
 681              	.L29:
 682              		.loc 1 325 0
 683 00d2 049B     		ldr	r3, [sp, #16]
 684 00d4 9B88     		ldrh	r3, [r3, #4]	@ movhi
 685 00d6 9BB2     		uxth	r3, r3
 686 00d8 23F40073 		bic	r3, r3, #512
 687 00dc 9AB2     		uxth	r2, r3
 688 00de 049B     		ldr	r3, [sp, #16]
 689 00e0 9A80     		strh	r2, [r3, #4]	@ movhi
 690              		.loc 1 326 0
 691 00e2 019B     		ldr	r3, [sp, #4]
 692 00e4 DB69     		ldr	r3, [r3, #28]
 693 00e6 1B68     		ldr	r3, [r3, #0]
 694 00e8 019A     		ldr	r2, [sp, #4]
ARM GAS  C:\Users\z80\AppData\Local\Temp\ccyKjVO9.s 			page 14


 695 00ea D269     		ldr	r2, [r2, #28]
 696 00ec 1268     		ldr	r2, [r2, #0]
 697 00ee 1268     		ldr	r2, [r2, #0]
 698 00f0 42F00102 		orr	r2, r2, #1
 699 00f4 1A60     		str	r2, [r3, #0]
 700              		.loc 1 327 0
 701 00f6 46E0     		b	.L32
 702              	.L30:
 703              		.loc 1 330 0
 704 00f8 019B     		ldr	r3, [sp, #4]
 705 00fa 9B69     		ldr	r3, [r3, #24]
 706 00fc 1B68     		ldr	r3, [r3, #0]
 707 00fe 5B68     		ldr	r3, [r3, #4]
 708 0100 002B     		cmp	r3, #0
 709 0102 0FD0     		beq	.L34
 710              		.loc 1 332 0
 711 0104 019B     		ldr	r3, [sp, #4]
 712 0106 1B8A     		ldrh	r3, [r3, #16]
 713 0108 43F00103 		orr	r3, r3, #1
 714 010c 9AB2     		uxth	r2, r3
 715 010e 019B     		ldr	r3, [sp, #4]
 716 0110 1A82     		strh	r2, [r3, #16]	@ movhi
 717              		.loc 1 333 0
 718 0112 049B     		ldr	r3, [sp, #16]
 719 0114 1B88     		ldrh	r3, [r3, #0]	@ movhi
 720 0116 9BB2     		uxth	r3, r3
 721 0118 43F4A063 		orr	r3, r3, #1280
 722 011c 9AB2     		uxth	r2, r3
 723 011e 049B     		ldr	r3, [sp, #16]
 724 0120 1A80     		strh	r2, [r3, #0]	@ movhi
 725              		.loc 1 334 0
 726 0122 B4E0     		b	.L24
 727              	.L34:
 728              		.loc 1 336 0
 729 0124 049B     		ldr	r3, [sp, #16]
 730 0126 9B88     		ldrh	r3, [r3, #4]	@ movhi
 731 0128 9BB2     		uxth	r3, r3
 732 012a 23F40073 		bic	r3, r3, #512
 733 012e 9AB2     		uxth	r2, r3
 734 0130 049B     		ldr	r3, [sp, #16]
 735 0132 9A80     		strh	r2, [r3, #4]	@ movhi
 736              		.loc 1 337 0
 737 0134 049B     		ldr	r3, [sp, #16]
 738 0136 1B88     		ldrh	r3, [r3, #0]	@ movhi
 739 0138 9BB2     		uxth	r3, r3
 740 013a 43F40073 		orr	r3, r3, #512
 741 013e 9AB2     		uxth	r2, r3
 742 0140 049B     		ldr	r3, [sp, #16]
 743 0142 1A80     		strh	r2, [r3, #0]	@ movhi
 744              	.LBB3:
 745              		.loc 1 338 0
 746 0144 4FF02003 		mov	r3, #32
 747              	@ 338 "../chibios_2.4.x/os/hal/platforms/STM32/i2c_lld.c" 1
 748 0148 83F31188 		msr     BASEPRI, r3
 749              	@ 0 "" 2
 750              		.thumb
 751              	.LBE3:
ARM GAS  C:\Users\z80\AppData\Local\Temp\ccyKjVO9.s 			page 15


 752 014c FFF7FEFF 		bl	dbg_check_lock_from_isr
 753 0150 019B     		ldr	r3, [sp, #4]
 754 0152 DB68     		ldr	r3, [r3, #12]
 755 0154 002B     		cmp	r3, #0
 756 0156 0DD0     		beq	.L36
 757              	.LBB4:
 758              		.loc 1 338 0 is_stmt 0 discriminator 1
 759 0158 019B     		ldr	r3, [sp, #4]
 760 015a DB68     		ldr	r3, [r3, #12]
 761 015c 0293     		str	r3, [sp, #8]
 762 015e 019B     		ldr	r3, [sp, #4]
 763 0160 4FF00002 		mov	r2, #0
 764 0164 DA60     		str	r2, [r3, #12]
 765 0166 029B     		ldr	r3, [sp, #8]
 766 0168 4FF00002 		mov	r2, #0
 767 016c 9A62     		str	r2, [r3, #40]
 768 016e 0298     		ldr	r0, [sp, #8]
 769 0170 FFF7FEFF 		bl	chSchReadyI
 770              	.L36:
 771              	.LBE4:
 772              		.loc 1 338 0 discriminator 2
 773 0174 FFF7FEFF 		bl	dbg_check_unlock_from_isr
 774              	.LBB5:
 775 0178 4FF00003 		mov	r3, #0
 776              	@ 338 "../chibios_2.4.x/os/hal/platforms/STM32/i2c_lld.c" 1
 777 017c 83F31188 		msr     BASEPRI, r3
 778              	@ 0 "" 2
 779              		.thumb
 780              	.LBE5:
 781              		.loc 1 339 0 is_stmt 1 discriminator 2
 782 0180 01E0     		b	.L32
 783              	.L26:
 784              		.loc 1 341 0
 785 0182 00E0     		b	.L32
 786              	.L41:
 787              		.loc 1 323 0
 788 0184 00BF     		nop
 789              	.L32:
 790              		.loc 1 344 0
 791 0186 059B     		ldr	r3, [sp, #20]
 792 0188 03F00A03 		and	r3, r3, #10
 793 018c 002B     		cmp	r3, #0
 794 018e 7ED0     		beq	.L24
 795              		.loc 1 345 0
 796 0190 049B     		ldr	r3, [sp, #16]
 797 0192 1B8B     		ldrh	r3, [r3, #24]	@ movhi
 798 0194 7BE0     		b	.L24
 799              	.L25:
 800              		.loc 1 350 0
 801 0196 059B     		ldr	r3, [sp, #20]
 802 0198 03F00A03 		and	r3, r3, #10
 803 019c 002B     		cmp	r3, #0
 804 019e 0FD0     		beq	.L37
 805              		.loc 1 353 0
 806 01a0 019B     		ldr	r3, [sp, #4]
 807 01a2 4FF00002 		mov	r2, #0
 808 01a6 1A63     		str	r2, [r3, #48]
ARM GAS  C:\Users\z80\AppData\Local\Temp\ccyKjVO9.s 			page 16


 809              		.loc 1 354 0
 810 01a8 019B     		ldr	r3, [sp, #4]
 811 01aa 4FF00002 		mov	r2, #0
 812 01ae 1A64     		str	r2, [r3, #64]
 813              		.loc 1 357 0
 814 01b0 049B     		ldr	r3, [sp, #16]
 815 01b2 9B8A     		ldrh	r3, [r3, #20]	@ movhi
 816 01b4 9BB2     		uxth	r3, r3
 817 01b6 0593     		str	r3, [sp, #20]
 818              		.loc 1 358 0
 819 01b8 049B     		ldr	r3, [sp, #16]
 820 01ba 1B8B     		ldrh	r3, [r3, #24]	@ movhi
 821 01bc 9BB2     		uxth	r3, r3
 822 01be 0393     		str	r3, [sp, #12]
 823              	.L37:
 824              		.loc 1 360 0
 825 01c0 059B     		ldr	r3, [sp, #20]
 826 01c2 03F08003 		and	r3, r3, #128
 827 01c6 002B     		cmp	r3, #0
 828 01c8 16D0     		beq	.L38
 829              		.loc 1 362 0
 830 01ca 019B     		ldr	r3, [sp, #4]
 831 01cc 9A6B     		ldr	r2, [r3, #56]
 832 01ce 019B     		ldr	r3, [sp, #4]
 833 01d0 1B6C     		ldr	r3, [r3, #64]
 834 01d2 D218     		adds	r2, r2, r3
 835 01d4 1278     		ldrb	r2, [r2, #0]	@ zero_extendqisi2
 836 01d6 1146     		mov	r1, r2
 837 01d8 049A     		ldr	r2, [sp, #16]
 838 01da 1182     		strh	r1, [r2, #16]	@ movhi
 839 01dc 03F10102 		add	r2, r3, #1
 840 01e0 019B     		ldr	r3, [sp, #4]
 841 01e2 1A64     		str	r2, [r3, #64]
 842              		.loc 1 363 0
 843 01e4 019B     		ldr	r3, [sp, #4]
 844 01e6 1A6B     		ldr	r2, [r3, #48]
 845 01e8 019B     		ldr	r3, [sp, #4]
 846 01ea DB6B     		ldr	r3, [r3, #60]
 847 01ec 9A42     		cmp	r2, r3
 848 01ee 03D3     		bcc	.L38
 849              		.loc 1 364 0
 850 01f0 019B     		ldr	r3, [sp, #4]
 851 01f2 4FF00002 		mov	r2, #0
 852 01f6 1A64     		str	r2, [r3, #64]
 853              	.L38:
 854              		.loc 1 366 0
 855 01f8 059B     		ldr	r3, [sp, #20]
 856 01fa 03F04003 		and	r3, r3, #64
 857 01fe 002B     		cmp	r3, #0
 858 0200 17D0     		beq	.L39
 859              		.loc 1 368 0
 860 0202 019B     		ldr	r3, [sp, #4]
 861 0204 9A6A     		ldr	r2, [r3, #40]
 862 0206 019B     		ldr	r3, [sp, #4]
 863 0208 1B6B     		ldr	r3, [r3, #48]
 864 020a D218     		adds	r2, r2, r3
 865 020c 0499     		ldr	r1, [sp, #16]
ARM GAS  C:\Users\z80\AppData\Local\Temp\ccyKjVO9.s 			page 17


 866 020e 098A     		ldrh	r1, [r1, #16]	@ movhi
 867 0210 89B2     		uxth	r1, r1
 868 0212 C9B2     		uxtb	r1, r1
 869 0214 1170     		strb	r1, [r2, #0]
 870 0216 03F10102 		add	r2, r3, #1
 871 021a 019B     		ldr	r3, [sp, #4]
 872 021c 1A63     		str	r2, [r3, #48]
 873              		.loc 1 369 0
 874 021e 019B     		ldr	r3, [sp, #4]
 875 0220 1A6B     		ldr	r2, [r3, #48]
 876 0222 019B     		ldr	r3, [sp, #4]
 877 0224 DB6A     		ldr	r3, [r3, #44]
 878 0226 9A42     		cmp	r2, r3
 879 0228 03D3     		bcc	.L39
 880              		.loc 1 370 0
 881 022a 019B     		ldr	r3, [sp, #4]
 882 022c 4FF00002 		mov	r2, #0
 883 0230 1A63     		str	r2, [r3, #48]
 884              	.L39:
 885              		.loc 1 372 0
 886 0232 059B     		ldr	r3, [sp, #20]
 887 0234 03F01003 		and	r3, r3, #16
 888 0238 002B     		cmp	r3, #0
 889 023a 13D0     		beq	.L40
 890              		.loc 1 375 0
 891 023c 049B     		ldr	r3, [sp, #16]
 892 023e 9B8A     		ldrh	r3, [r3, #20]	@ movhi
 893 0240 9BB2     		uxth	r3, r3
 894 0242 0593     		str	r3, [sp, #20]
 895              		.loc 1 376 0
 896 0244 049B     		ldr	r3, [sp, #16]
 897 0246 1B88     		ldrh	r3, [r3, #0]	@ movhi
 898 0248 9BB2     		uxth	r3, r3
 899 024a 43F00103 		orr	r3, r3, #1
 900 024e 9AB2     		uxth	r2, r3
 901 0250 049B     		ldr	r3, [sp, #16]
 902 0252 1A80     		strh	r2, [r3, #0]	@ movhi
 903              		.loc 1 379 0
 904 0254 019B     		ldr	r3, [sp, #4]
 905 0256 5B6B     		ldr	r3, [r3, #52]
 906 0258 002B     		cmp	r3, #0
 907 025a 03D0     		beq	.L40
 908              		.loc 1 380 0
 909 025c 019B     		ldr	r3, [sp, #4]
 910 025e 5B6B     		ldr	r3, [r3, #52]
 911 0260 0198     		ldr	r0, [sp, #4]
 912 0262 9847     		blx	r3
 913              	.L40:
 914              		.loc 1 382 0
 915 0264 059B     		ldr	r3, [sp, #20]
 916 0266 03F48063 		and	r3, r3, #1024
 917 026a 002B     		cmp	r3, #0
 918 026c 0FD0     		beq	.L24
 919              		.loc 1 384 0
 920 026e 049B     		ldr	r3, [sp, #16]
 921 0270 9B8A     		ldrh	r3, [r3, #20]	@ movhi
 922 0272 9BB2     		uxth	r3, r3
ARM GAS  C:\Users\z80\AppData\Local\Temp\ccyKjVO9.s 			page 18


 923 0274 23F48063 		bic	r3, r3, #1024
 924 0278 9AB2     		uxth	r2, r3
 925 027a 049B     		ldr	r3, [sp, #16]
 926 027c 9A82     		strh	r2, [r3, #20]	@ movhi
 927              		.loc 1 387 0
 928 027e 019B     		ldr	r3, [sp, #4]
 929 0280 5B6C     		ldr	r3, [r3, #68]
 930 0282 002B     		cmp	r3, #0
 931 0284 03D0     		beq	.L24
 932              		.loc 1 388 0
 933 0286 019B     		ldr	r3, [sp, #4]
 934 0288 5B6C     		ldr	r3, [r3, #68]
 935 028a 0198     		ldr	r0, [sp, #4]
 936 028c 9847     		blx	r3
 937              	.L24:
 938              		.loc 1 392 0
 939 028e 07B0     		add	sp, sp, #28
 940 0290 00BD     		pop	{pc}
 941              		.cfi_endproc
 942              	.LFE66:
 943              		.size	i2c_lld_serve_event_interrupt, .-i2c_lld_serve_event_interrupt
 944 0292 00BFAFF3 		.section	.text.i2c_lld_serve_rx_end_irq,"ax",%progbits
 944      0080AFF3 
 944      0080AFF3 
 944      0080
 945              		.align	2
 946              		.p2align 4,,15
 947              		.thumb
 948              		.thumb_func
 949              		.type	i2c_lld_serve_rx_end_irq, %function
 950              	i2c_lld_serve_rx_end_irq:
 951              	.LFB67:
 952              		.loc 1 402 0
 953              		.cfi_startproc
 954              		@ args = 0, pretend = 0, frame = 16
 955              		@ frame_needed = 0, uses_anonymous_args = 0
 956 0000 00B5     		push	{lr}
 957              	.LCFI8:
 958              		.cfi_def_cfa_offset 4
 959              		.cfi_offset 14, -4
 960 0002 85B0     		sub	sp, sp, #20
 961              	.LCFI9:
 962              		.cfi_def_cfa_offset 24
 963 0004 0190     		str	r0, [sp, #4]
 964 0006 0091     		str	r1, [sp, #0]
 965              		.loc 1 403 0
 966 0008 019B     		ldr	r3, [sp, #4]
 967 000a 1B6A     		ldr	r3, [r3, #32]
 968 000c 0393     		str	r3, [sp, #12]
 969              		.loc 1 407 0
 970 000e 009B     		ldr	r3, [sp, #0]
 971 0010 03F00803 		and	r3, r3, #8
 972 0014 002B     		cmp	r3, #0
 973 0016 01D0     		beq	.L43
 974              		.loc 1 408 0
 975 0018 FFF7FEFF 		bl	port_halt
 976              	.L43:
ARM GAS  C:\Users\z80\AppData\Local\Temp\ccyKjVO9.s 			page 19


 977              		.loc 1 414 0
 978 001c 019B     		ldr	r3, [sp, #4]
 979 001e 9B69     		ldr	r3, [r3, #24]
 980 0020 1B68     		ldr	r3, [r3, #0]
 981 0022 019A     		ldr	r2, [sp, #4]
 982 0024 9269     		ldr	r2, [r2, #24]
 983 0026 1268     		ldr	r2, [r2, #0]
 984 0028 1268     		ldr	r2, [r2, #0]
 985 002a 22F00102 		bic	r2, r2, #1
 986 002e 1A60     		str	r2, [r3, #0]
 987 0030 019B     		ldr	r3, [sp, #4]
 988 0032 9B69     		ldr	r3, [r3, #24]
 989 0034 5B68     		ldr	r3, [r3, #4]
 990 0036 019A     		ldr	r2, [sp, #4]
 991 0038 9269     		ldr	r2, [r2, #24]
 992 003a 127A     		ldrb	r2, [r2, #8]	@ zero_extendqisi2
 993 003c 4FF00F01 		mov	r1, #15
 994 0040 01FA02F2 		lsl	r2, r1, r2
 995 0044 1A60     		str	r2, [r3, #0]
 996              		.loc 1 417 0
 997 0046 019B     		ldr	r3, [sp, #4]
 998 0048 93F82430 		ldrb	r3, [r3, #36]	@ zero_extendqisi2
 999 004c 002B     		cmp	r3, #0
 1000 004e 35D1     		bne	.L42
 1001              		.loc 1 420 0
 1002 0050 039B     		ldr	r3, [sp, #12]
 1003 0052 9B88     		ldrh	r3, [r3, #4]	@ movhi
 1004 0054 9BB2     		uxth	r3, r3
 1005 0056 23F48053 		bic	r3, r3, #4096
 1006 005a 9AB2     		uxth	r2, r3
 1007 005c 039B     		ldr	r3, [sp, #12]
 1008 005e 9A80     		strh	r2, [r3, #4]	@ movhi
 1009              		.loc 1 421 0
 1010 0060 039B     		ldr	r3, [sp, #12]
 1011 0062 1B88     		ldrh	r3, [r3, #0]	@ movhi
 1012 0064 9BB2     		uxth	r3, r3
 1013 0066 23F48063 		bic	r3, r3, #1024
 1014 006a 9AB2     		uxth	r2, r3
 1015 006c 039B     		ldr	r3, [sp, #12]
 1016 006e 1A80     		strh	r2, [r3, #0]	@ movhi
 1017              		.loc 1 422 0
 1018 0070 039B     		ldr	r3, [sp, #12]
 1019 0072 1B88     		ldrh	r3, [r3, #0]	@ movhi
 1020 0074 9BB2     		uxth	r3, r3
 1021 0076 43F40073 		orr	r3, r3, #512
 1022 007a 9AB2     		uxth	r2, r3
 1023 007c 039B     		ldr	r3, [sp, #12]
 1024 007e 1A80     		strh	r2, [r3, #0]	@ movhi
 1025              	.LBB6:
 1026              		.loc 1 423 0
 1027 0080 4FF02003 		mov	r3, #32
 1028              	@ 423 "../chibios_2.4.x/os/hal/platforms/STM32/i2c_lld.c" 1
 1029 0084 83F31188 		msr     BASEPRI, r3
 1030              	@ 0 "" 2
 1031              		.thumb
 1032              	.LBE6:
 1033 0088 FFF7FEFF 		bl	dbg_check_lock_from_isr
ARM GAS  C:\Users\z80\AppData\Local\Temp\ccyKjVO9.s 			page 20


 1034 008c 019B     		ldr	r3, [sp, #4]
 1035 008e DB68     		ldr	r3, [r3, #12]
 1036 0090 002B     		cmp	r3, #0
 1037 0092 0DD0     		beq	.L45
 1038              	.LBB7:
 1039              		.loc 1 423 0 is_stmt 0 discriminator 1
 1040 0094 019B     		ldr	r3, [sp, #4]
 1041 0096 DB68     		ldr	r3, [r3, #12]
 1042 0098 0293     		str	r3, [sp, #8]
 1043 009a 019B     		ldr	r3, [sp, #4]
 1044 009c 4FF00002 		mov	r2, #0
 1045 00a0 DA60     		str	r2, [r3, #12]
 1046 00a2 029B     		ldr	r3, [sp, #8]
 1047 00a4 4FF00002 		mov	r2, #0
 1048 00a8 9A62     		str	r2, [r3, #40]
 1049 00aa 0298     		ldr	r0, [sp, #8]
 1050 00ac FFF7FEFF 		bl	chSchReadyI
 1051              	.L45:
 1052              	.LBE7:
 1053              		.loc 1 423 0 discriminator 2
 1054 00b0 FFF7FEFF 		bl	dbg_check_unlock_from_isr
 1055              	.LBB8:
 1056 00b4 4FF00003 		mov	r3, #0
 1057              	@ 423 "../chibios_2.4.x/os/hal/platforms/STM32/i2c_lld.c" 1
 1058 00b8 83F31188 		msr     BASEPRI, r3
 1059              	@ 0 "" 2
 1060              		.thumb
 1061              	.L42:
 1062              	.LBE8:
 1063              		.loc 1 427 0 is_stmt 1
 1064 00bc 05B0     		add	sp, sp, #20
 1065 00be 00BD     		pop	{pc}
 1066              		.cfi_endproc
 1067              	.LFE67:
 1068              		.size	i2c_lld_serve_rx_end_irq, .-i2c_lld_serve_rx_end_irq
 1069              		.section	.text.i2c_lld_serve_tx_end_irq,"ax",%progbits
 1070              		.align	2
 1071              		.p2align 4,,15
 1072              		.thumb
 1073              		.thumb_func
 1074              		.type	i2c_lld_serve_tx_end_irq, %function
 1075              	i2c_lld_serve_tx_end_irq:
 1076              	.LFB68:
 1077              		.loc 1 436 0
 1078              		.cfi_startproc
 1079              		@ args = 0, pretend = 0, frame = 16
 1080              		@ frame_needed = 0, uses_anonymous_args = 0
 1081 0000 00B5     		push	{lr}
 1082              	.LCFI10:
 1083              		.cfi_def_cfa_offset 4
 1084              		.cfi_offset 14, -4
 1085 0002 85B0     		sub	sp, sp, #20
 1086              	.LCFI11:
 1087              		.cfi_def_cfa_offset 24
 1088 0004 0190     		str	r0, [sp, #4]
 1089 0006 0091     		str	r1, [sp, #0]
 1090              		.loc 1 437 0
ARM GAS  C:\Users\z80\AppData\Local\Temp\ccyKjVO9.s 			page 21


 1091 0008 019B     		ldr	r3, [sp, #4]
 1092 000a 1B6A     		ldr	r3, [r3, #32]
 1093 000c 0393     		str	r3, [sp, #12]
 1094              		.loc 1 441 0
 1095 000e 009B     		ldr	r3, [sp, #0]
 1096 0010 03F00803 		and	r3, r3, #8
 1097 0014 002B     		cmp	r3, #0
 1098 0016 01D0     		beq	.L47
 1099              		.loc 1 442 0
 1100 0018 FFF7FEFF 		bl	port_halt
 1101              	.L47:
 1102              		.loc 1 448 0
 1103 001c 019B     		ldr	r3, [sp, #4]
 1104 001e DB69     		ldr	r3, [r3, #28]
 1105 0020 1B68     		ldr	r3, [r3, #0]
 1106 0022 019A     		ldr	r2, [sp, #4]
 1107 0024 D269     		ldr	r2, [r2, #28]
 1108 0026 1268     		ldr	r2, [r2, #0]
 1109 0028 1268     		ldr	r2, [r2, #0]
 1110 002a 22F00102 		bic	r2, r2, #1
 1111 002e 1A60     		str	r2, [r3, #0]
 1112 0030 019B     		ldr	r3, [sp, #4]
 1113 0032 DB69     		ldr	r3, [r3, #28]
 1114 0034 5B68     		ldr	r3, [r3, #4]
 1115 0036 019A     		ldr	r2, [sp, #4]
 1116 0038 D269     		ldr	r2, [r2, #28]
 1117 003a 127A     		ldrb	r2, [r2, #8]	@ zero_extendqisi2
 1118 003c 4FF00F01 		mov	r1, #15
 1119 0040 01FA02F2 		lsl	r2, r1, r2
 1120 0044 1A60     		str	r2, [r3, #0]
 1121              		.loc 1 452 0
 1122 0046 039B     		ldr	r3, [sp, #12]
 1123 0048 9B88     		ldrh	r3, [r3, #4]	@ movhi
 1124 004a 9BB2     		uxth	r3, r3
 1125 004c 43F40073 		orr	r3, r3, #512
 1126 0050 9AB2     		uxth	r2, r3
 1127 0052 039B     		ldr	r3, [sp, #12]
 1128 0054 9A80     		strh	r2, [r3, #4]	@ movhi
 1129              		.loc 1 453 0
 1130 0056 05B0     		add	sp, sp, #20
 1131 0058 00BD     		pop	{pc}
 1132              		.cfi_endproc
 1133              	.LFE68:
 1134              		.size	i2c_lld_serve_tx_end_irq, .-i2c_lld_serve_tx_end_irq
 1135 005a 00BFAFF3 		.section	.text.i2c_lld_serve_error_interrupt,"ax",%progbits
 1135      0080
 1136              		.align	2
 1137              		.p2align 4,,15
 1138              		.thumb
 1139              		.thumb_func
 1140              		.type	i2c_lld_serve_error_interrupt, %function
 1141              	i2c_lld_serve_error_interrupt:
 1142              	.LFB69:
 1143              		.loc 1 462 0
 1144              		.cfi_startproc
 1145              		@ args = 0, pretend = 0, frame = 24
 1146              		@ frame_needed = 0, uses_anonymous_args = 0
ARM GAS  C:\Users\z80\AppData\Local\Temp\ccyKjVO9.s 			page 22


 1147 0000 00B5     		push	{lr}
 1148              	.LCFI12:
 1149              		.cfi_def_cfa_offset 4
 1150              		.cfi_offset 14, -4
 1151 0002 87B0     		sub	sp, sp, #28
 1152              	.LCFI13:
 1153              		.cfi_def_cfa_offset 32
 1154 0004 0190     		str	r0, [sp, #4]
 1155              		.loc 1 463 0
 1156 0006 019B     		ldr	r3, [sp, #4]
 1157 0008 1B6A     		ldr	r3, [r3, #32]
 1158 000a 0493     		str	r3, [sp, #16]
 1159              	.LBB9:
 1160              		.loc 1 467 0
 1161 000c 4FF02003 		mov	r3, #32
 1162              	@ 467 "../chibios_2.4.x/os/hal/platforms/STM32/i2c_lld.c" 1
 1163 0010 83F31188 		msr     BASEPRI, r3
 1164              	@ 0 "" 2
 1165              		.thumb
 1166              	.LBE9:
 1167 0014 FFF7FEFF 		bl	dbg_check_lock_from_isr
 1168              		.loc 1 468 0
 1169 0018 019B     		ldr	r3, [sp, #4]
 1170 001a DB69     		ldr	r3, [r3, #28]
 1171 001c 1B68     		ldr	r3, [r3, #0]
 1172 001e 019A     		ldr	r2, [sp, #4]
 1173 0020 D269     		ldr	r2, [r2, #28]
 1174 0022 1268     		ldr	r2, [r2, #0]
 1175 0024 1268     		ldr	r2, [r2, #0]
 1176 0026 22F00102 		bic	r2, r2, #1
 1177 002a 1A60     		str	r2, [r3, #0]
 1178 002c 019B     		ldr	r3, [sp, #4]
 1179 002e DB69     		ldr	r3, [r3, #28]
 1180 0030 5B68     		ldr	r3, [r3, #4]
 1181 0032 019A     		ldr	r2, [sp, #4]
 1182 0034 D269     		ldr	r2, [r2, #28]
 1183 0036 127A     		ldrb	r2, [r2, #8]	@ zero_extendqisi2
 1184 0038 4FF00F01 		mov	r1, #15
 1185 003c 01FA02F2 		lsl	r2, r1, r2
 1186 0040 1A60     		str	r2, [r3, #0]
 1187              		.loc 1 469 0
 1188 0042 019B     		ldr	r3, [sp, #4]
 1189 0044 9B69     		ldr	r3, [r3, #24]
 1190 0046 1B68     		ldr	r3, [r3, #0]
 1191 0048 019A     		ldr	r2, [sp, #4]
 1192 004a 9269     		ldr	r2, [r2, #24]
 1193 004c 1268     		ldr	r2, [r2, #0]
 1194 004e 1268     		ldr	r2, [r2, #0]
 1195 0050 22F00102 		bic	r2, r2, #1
 1196 0054 1A60     		str	r2, [r3, #0]
 1197 0056 019B     		ldr	r3, [sp, #4]
 1198 0058 9B69     		ldr	r3, [r3, #24]
 1199 005a 5B68     		ldr	r3, [r3, #4]
 1200 005c 019A     		ldr	r2, [sp, #4]
 1201 005e 9269     		ldr	r2, [r2, #24]
 1202 0060 127A     		ldrb	r2, [r2, #8]	@ zero_extendqisi2
 1203 0062 4FF00F01 		mov	r1, #15
ARM GAS  C:\Users\z80\AppData\Local\Temp\ccyKjVO9.s 			page 23


 1204 0066 01FA02F2 		lsl	r2, r1, r2
 1205 006a 1A60     		str	r2, [r3, #0]
 1206              		.loc 1 470 0
 1207 006c FFF7FEFF 		bl	dbg_check_unlock_from_isr
 1208              	.LBB10:
 1209 0070 4FF00003 		mov	r3, #0
 1210              	@ 470 "../chibios_2.4.x/os/hal/platforms/STM32/i2c_lld.c" 1
 1211 0074 83F31188 		msr     BASEPRI, r3
 1212              	@ 0 "" 2
 1213              		.thumb
 1214              	.LBE10:
 1215              		.loc 1 472 0
 1216 0078 4FF00003 		mov	r3, #0
 1217 007c 0593     		str	r3, [sp, #20]
 1218              		.loc 1 474 0
 1219 007e 049B     		ldr	r3, [sp, #16]
 1220 0080 9B8A     		ldrh	r3, [r3, #20]	@ movhi
 1221 0082 9BB2     		uxth	r3, r3
 1222 0084 03F48073 		and	r3, r3, #256
 1223 0088 002B     		cmp	r3, #0
 1224 008a 0BD0     		beq	.L49
 1225              		.loc 1 475 0
 1226 008c 049B     		ldr	r3, [sp, #16]
 1227 008e 9B8A     		ldrh	r3, [r3, #20]	@ movhi
 1228 0090 9BB2     		uxth	r3, r3
 1229 0092 23F48073 		bic	r3, r3, #256
 1230 0096 9AB2     		uxth	r2, r3
 1231 0098 049B     		ldr	r3, [sp, #16]
 1232 009a 9A82     		strh	r2, [r3, #20]	@ movhi
 1233              		.loc 1 476 0
 1234 009c 059B     		ldr	r3, [sp, #20]
 1235 009e 43F00103 		orr	r3, r3, #1
 1236 00a2 0593     		str	r3, [sp, #20]
 1237              	.L49:
 1238              		.loc 1 478 0
 1239 00a4 049B     		ldr	r3, [sp, #16]
 1240 00a6 9B8A     		ldrh	r3, [r3, #20]	@ movhi
 1241 00a8 9BB2     		uxth	r3, r3
 1242 00aa 03F40073 		and	r3, r3, #512
 1243 00ae 002B     		cmp	r3, #0
 1244 00b0 0BD0     		beq	.L50
 1245              		.loc 1 479 0
 1246 00b2 049B     		ldr	r3, [sp, #16]
 1247 00b4 9B8A     		ldrh	r3, [r3, #20]	@ movhi
 1248 00b6 9BB2     		uxth	r3, r3
 1249 00b8 23F40073 		bic	r3, r3, #512
 1250 00bc 9AB2     		uxth	r2, r3
 1251 00be 049B     		ldr	r3, [sp, #16]
 1252 00c0 9A82     		strh	r2, [r3, #20]	@ movhi
 1253              		.loc 1 480 0
 1254 00c2 059B     		ldr	r3, [sp, #20]
 1255 00c4 43F00203 		orr	r3, r3, #2
 1256 00c8 0593     		str	r3, [sp, #20]
 1257              	.L50:
 1258              		.loc 1 483 0
 1259 00ca 019B     		ldr	r3, [sp, #4]
 1260 00cc 93F82430 		ldrb	r3, [r3, #36]	@ zero_extendqisi2
ARM GAS  C:\Users\z80\AppData\Local\Temp\ccyKjVO9.s 			page 24


 1261 00d0 002B     		cmp	r3, #0
 1262 00d2 23D1     		bne	.L51
 1263              		.loc 1 486 0
 1264 00d4 049B     		ldr	r3, [sp, #16]
 1265 00d6 9B8A     		ldrh	r3, [r3, #20]	@ movhi
 1266 00d8 9BB2     		uxth	r3, r3
 1267 00da 03F48063 		and	r3, r3, #1024
 1268 00de 002B     		cmp	r3, #0
 1269 00e0 2CD0     		beq	.L52
 1270              		.loc 1 487 0
 1271 00e2 049B     		ldr	r3, [sp, #16]
 1272 00e4 9B8A     		ldrh	r3, [r3, #20]	@ movhi
 1273 00e6 9BB2     		uxth	r3, r3
 1274 00e8 23F48063 		bic	r3, r3, #1024
 1275 00ec 9AB2     		uxth	r2, r3
 1276 00ee 049B     		ldr	r3, [sp, #16]
 1277 00f0 9A82     		strh	r2, [r3, #20]	@ movhi
 1278              		.loc 1 488 0
 1279 00f2 049B     		ldr	r3, [sp, #16]
 1280 00f4 9B88     		ldrh	r3, [r3, #4]	@ movhi
 1281 00f6 9BB2     		uxth	r3, r3
 1282 00f8 23F40073 		bic	r3, r3, #512
 1283 00fc 9AB2     		uxth	r2, r3
 1284 00fe 049B     		ldr	r3, [sp, #16]
 1285 0100 9A80     		strh	r2, [r3, #4]	@ movhi
 1286              		.loc 1 489 0
 1287 0102 049B     		ldr	r3, [sp, #16]
 1288 0104 1B88     		ldrh	r3, [r3, #0]	@ movhi
 1289 0106 9BB2     		uxth	r3, r3
 1290 0108 43F40073 		orr	r3, r3, #512
 1291 010c 9AB2     		uxth	r2, r3
 1292 010e 049B     		ldr	r3, [sp, #16]
 1293 0110 1A80     		strh	r2, [r3, #0]	@ movhi
 1294              		.loc 1 490 0
 1295 0112 059B     		ldr	r3, [sp, #20]
 1296 0114 43F00403 		orr	r3, r3, #4
 1297 0118 0593     		str	r3, [sp, #20]
 1298 011a 0FE0     		b	.L52
 1299              	.L51:
 1300              		.loc 1 498 0
 1301 011c 049B     		ldr	r3, [sp, #16]
 1302 011e 9B8A     		ldrh	r3, [r3, #20]	@ movhi
 1303 0120 9BB2     		uxth	r3, r3
 1304 0122 23F48063 		bic	r3, r3, #1024
 1305 0126 9AB2     		uxth	r2, r3
 1306 0128 049B     		ldr	r3, [sp, #16]
 1307 012a 9A82     		strh	r2, [r3, #20]	@ movhi
 1308              		.loc 1 501 0
 1309 012c 019B     		ldr	r3, [sp, #4]
 1310 012e 5B6C     		ldr	r3, [r3, #68]
 1311 0130 002B     		cmp	r3, #0
 1312 0132 03D0     		beq	.L52
 1313              		.loc 1 502 0
 1314 0134 019B     		ldr	r3, [sp, #4]
 1315 0136 5B6C     		ldr	r3, [r3, #68]
 1316 0138 0198     		ldr	r0, [sp, #4]
 1317 013a 9847     		blx	r3
ARM GAS  C:\Users\z80\AppData\Local\Temp\ccyKjVO9.s 			page 25


 1318              	.L52:
 1319              		.loc 1 505 0
 1320 013c 049B     		ldr	r3, [sp, #16]
 1321 013e 9B8A     		ldrh	r3, [r3, #20]	@ movhi
 1322 0140 9BB2     		uxth	r3, r3
 1323 0142 03F40063 		and	r3, r3, #2048
 1324 0146 002B     		cmp	r3, #0
 1325 0148 0BD0     		beq	.L53
 1326              		.loc 1 506 0
 1327 014a 049B     		ldr	r3, [sp, #16]
 1328 014c 9B8A     		ldrh	r3, [r3, #20]	@ movhi
 1329 014e 9BB2     		uxth	r3, r3
 1330 0150 23F40063 		bic	r3, r3, #2048
 1331 0154 9AB2     		uxth	r2, r3
 1332 0156 049B     		ldr	r3, [sp, #16]
 1333 0158 9A82     		strh	r2, [r3, #20]	@ movhi
 1334              		.loc 1 507 0
 1335 015a 059B     		ldr	r3, [sp, #20]
 1336 015c 43F00803 		orr	r3, r3, #8
 1337 0160 0593     		str	r3, [sp, #20]
 1338              	.L53:
 1339              		.loc 1 509 0
 1340 0162 049B     		ldr	r3, [sp, #16]
 1341 0164 9B8A     		ldrh	r3, [r3, #20]	@ movhi
 1342 0166 9BB2     		uxth	r3, r3
 1343 0168 03F48053 		and	r3, r3, #4096
 1344 016c 002B     		cmp	r3, #0
 1345 016e 0BD0     		beq	.L54
 1346              		.loc 1 510 0
 1347 0170 049B     		ldr	r3, [sp, #16]
 1348 0172 9B8A     		ldrh	r3, [r3, #20]	@ movhi
 1349 0174 9BB2     		uxth	r3, r3
 1350 0176 23F48053 		bic	r3, r3, #4096
 1351 017a 9AB2     		uxth	r2, r3
 1352 017c 049B     		ldr	r3, [sp, #16]
 1353 017e 9A82     		strh	r2, [r3, #20]	@ movhi
 1354              		.loc 1 511 0
 1355 0180 059B     		ldr	r3, [sp, #20]
 1356 0182 43F01003 		orr	r3, r3, #16
 1357 0186 0593     		str	r3, [sp, #20]
 1358              	.L54:
 1359              		.loc 1 513 0
 1360 0188 049B     		ldr	r3, [sp, #16]
 1361 018a 9B8A     		ldrh	r3, [r3, #20]	@ movhi
 1362 018c 9BB2     		uxth	r3, r3
 1363 018e 03F48043 		and	r3, r3, #16384
 1364 0192 002B     		cmp	r3, #0
 1365 0194 0BD0     		beq	.L55
 1366              		.loc 1 514 0
 1367 0196 049B     		ldr	r3, [sp, #16]
 1368 0198 9B8A     		ldrh	r3, [r3, #20]	@ movhi
 1369 019a 9BB2     		uxth	r3, r3
 1370 019c 23F48043 		bic	r3, r3, #16384
 1371 01a0 9AB2     		uxth	r2, r3
 1372 01a2 049B     		ldr	r3, [sp, #16]
 1373 01a4 9A82     		strh	r2, [r3, #20]	@ movhi
 1374              		.loc 1 515 0
ARM GAS  C:\Users\z80\AppData\Local\Temp\ccyKjVO9.s 			page 26


 1375 01a6 059B     		ldr	r3, [sp, #20]
 1376 01a8 43F02003 		orr	r3, r3, #32
 1377 01ac 0593     		str	r3, [sp, #20]
 1378              	.L55:
 1379              		.loc 1 517 0
 1380 01ae 049B     		ldr	r3, [sp, #16]
 1381 01b0 9B8A     		ldrh	r3, [r3, #20]	@ movhi
 1382 01b2 9BB2     		uxth	r3, r3
 1383 01b4 9BB2     		uxth	r3, r3
 1384 01b6 1BB2     		sxth	r3, r3
 1385 01b8 002B     		cmp	r3, #0
 1386 01ba 0DDA     		bge	.L56
 1387              		.loc 1 518 0
 1388 01bc 049B     		ldr	r3, [sp, #16]
 1389 01be 9B8A     		ldrh	r3, [r3, #20]	@ movhi
 1390 01c0 9BB2     		uxth	r3, r3
 1391 01c2 4FEA4343 		lsl	r3, r3, #17
 1392 01c6 4FEA5343 		lsr	r3, r3, #17
 1393 01ca 9AB2     		uxth	r2, r3
 1394 01cc 049B     		ldr	r3, [sp, #16]
 1395 01ce 9A82     		strh	r2, [r3, #20]	@ movhi
 1396              		.loc 1 519 0
 1397 01d0 059B     		ldr	r3, [sp, #20]
 1398 01d2 43F04003 		orr	r3, r3, #64
 1399 01d6 0593     		str	r3, [sp, #20]
 1400              	.L56:
 1401              		.loc 1 523 0
 1402 01d8 059B     		ldr	r3, [sp, #20]
 1403 01da 002B     		cmp	r3, #0
 1404 01dc 20D0     		beq	.L48
 1405              		.loc 1 524 0
 1406 01de 019B     		ldr	r3, [sp, #4]
 1407 01e0 059A     		ldr	r2, [sp, #20]
 1408 01e2 9A60     		str	r2, [r3, #8]
 1409              	.LBB11:
 1410              		.loc 1 525 0
 1411 01e4 4FF02003 		mov	r3, #32
 1412              	@ 525 "../chibios_2.4.x/os/hal/platforms/STM32/i2c_lld.c" 1
 1413 01e8 83F31188 		msr     BASEPRI, r3
 1414              	@ 0 "" 2
 1415              		.thumb
 1416              	.LBE11:
 1417 01ec FFF7FEFF 		bl	dbg_check_lock_from_isr
 1418 01f0 019B     		ldr	r3, [sp, #4]
 1419 01f2 DB68     		ldr	r3, [r3, #12]
 1420 01f4 002B     		cmp	r3, #0
 1421 01f6 0DD0     		beq	.L58
 1422              	.LBB12:
 1423              		.loc 1 525 0 is_stmt 0 discriminator 1
 1424 01f8 019B     		ldr	r3, [sp, #4]
 1425 01fa DB68     		ldr	r3, [r3, #12]
 1426 01fc 0393     		str	r3, [sp, #12]
 1427 01fe 019B     		ldr	r3, [sp, #4]
 1428 0200 4FF00002 		mov	r2, #0
 1429 0204 DA60     		str	r2, [r3, #12]
 1430 0206 039B     		ldr	r3, [sp, #12]
 1431 0208 6FF00102 		mvn	r2, #1
ARM GAS  C:\Users\z80\AppData\Local\Temp\ccyKjVO9.s 			page 27


 1432 020c 9A62     		str	r2, [r3, #40]
 1433 020e 0398     		ldr	r0, [sp, #12]
 1434 0210 FFF7FEFF 		bl	chSchReadyI
 1435              	.L58:
 1436              	.LBE12:
 1437              		.loc 1 525 0 discriminator 2
 1438 0214 FFF7FEFF 		bl	dbg_check_unlock_from_isr
 1439              	.LBB13:
 1440 0218 4FF00003 		mov	r3, #0
 1441              	@ 525 "../chibios_2.4.x/os/hal/platforms/STM32/i2c_lld.c" 1
 1442 021c 83F31188 		msr     BASEPRI, r3
 1443              	@ 0 "" 2
 1444              		.thumb
 1445              	.L48:
 1446              	.LBE13:
 1447              		.loc 1 527 0 is_stmt 1
 1448 0220 07B0     		add	sp, sp, #28
 1449 0222 00BD     		pop	{pc}
 1450              		.cfi_endproc
 1451              	.LFE69:
 1452              		.size	i2c_lld_serve_error_interrupt, .-i2c_lld_serve_error_interrupt
 1453 0224 AFF30080 		.section	.text.VectorBC,"ax",%progbits
 1453      AFF30080 
 1453      AFF30080 
 1454              		.align	2
 1455              		.p2align 4,,15
 1456              		.global	VectorBC
 1457              		.thumb
 1458              		.thumb_func
 1459              		.type	VectorBC, %function
 1460              	VectorBC:
 1461              	.LFB70:
 1462              		.loc 1 539 0
 1463              		.cfi_startproc
 1464              		@ args = 0, pretend = 0, frame = 0
 1465              		@ frame_needed = 0, uses_anonymous_args = 0
 1466 0000 08B5     		push	{r3, lr}
 1467              	.LCFI14:
 1468              		.cfi_def_cfa_offset 8
 1469              		.cfi_offset 14, -4
 1470              		.cfi_offset 3, -8
 1471              		.loc 1 541 0
 1472 0002 FFF7FEFF 		bl	dbg_check_enter_isr
 1473              		.loc 1 543 0
 1474 0006 40F20000 		movw	r0, #:lower16:I2CD1
 1475 000a C0F20000 		movt	r0, #:upper16:I2CD1
 1476 000e FFF7FEFF 		bl	i2c_lld_serve_event_interrupt
 1477              		.loc 1 545 0
 1478 0012 FFF7FEFF 		bl	dbg_check_leave_isr
 1479 0016 FFF7FEFF 		bl	_port_irq_epilogue
 1480              		.loc 1 546 0
 1481 001a 08BD     		pop	{r3, pc}
 1482              		.cfi_endproc
 1483              	.LFE70:
 1484              		.size	VectorBC, .-VectorBC
 1485 001c AFF30080 		.section	.text.VectorC0,"ax",%progbits
 1486              		.align	2
ARM GAS  C:\Users\z80\AppData\Local\Temp\ccyKjVO9.s 			page 28


 1487              		.p2align 4,,15
 1488              		.global	VectorC0
 1489              		.thumb
 1490              		.thumb_func
 1491              		.type	VectorC0, %function
 1492              	VectorC0:
 1493              	.LFB71:
 1494              		.loc 1 551 0
 1495              		.cfi_startproc
 1496              		@ args = 0, pretend = 0, frame = 0
 1497              		@ frame_needed = 0, uses_anonymous_args = 0
 1498 0000 08B5     		push	{r3, lr}
 1499              	.LCFI15:
 1500              		.cfi_def_cfa_offset 8
 1501              		.cfi_offset 14, -4
 1502              		.cfi_offset 3, -8
 1503              		.loc 1 553 0
 1504 0002 FFF7FEFF 		bl	dbg_check_enter_isr
 1505              		.loc 1 555 0
 1506 0006 40F20000 		movw	r0, #:lower16:I2CD1
 1507 000a C0F20000 		movt	r0, #:upper16:I2CD1
 1508 000e FFF7FEFF 		bl	i2c_lld_serve_error_interrupt
 1509              		.loc 1 557 0
 1510 0012 FFF7FEFF 		bl	dbg_check_leave_isr
 1511 0016 FFF7FEFF 		bl	_port_irq_epilogue
 1512              		.loc 1 558 0
 1513 001a 08BD     		pop	{r3, pc}
 1514              		.cfi_endproc
 1515              	.LFE71:
 1516              		.size	VectorC0, .-VectorC0
 1517 001c AFF30080 		.section	.text.i2c_lld_init,"ax",%progbits
 1518              		.align	2
 1519              		.p2align 4,,15
 1520              		.global	i2c_lld_init
 1521              		.thumb
 1522              		.thumb_func
 1523              		.type	i2c_lld_init, %function
 1524              	i2c_lld_init:
 1525              	.LFB72:
 1526              		.loc 1 630 0
 1527              		.cfi_startproc
 1528              		@ args = 0, pretend = 0, frame = 0
 1529              		@ frame_needed = 0, uses_anonymous_args = 0
 1530 0000 08B5     		push	{r3, lr}
 1531              	.LCFI16:
 1532              		.cfi_def_cfa_offset 8
 1533              		.cfi_offset 14, -4
 1534              		.cfi_offset 3, -8
 1535              		.loc 1 633 0
 1536 0002 40F20000 		movw	r0, #:lower16:I2CD1
 1537 0006 C0F20000 		movt	r0, #:upper16:I2CD1
 1538 000a FFF7FEFF 		bl	i2cObjectInit
 1539              		.loc 1 634 0
 1540 000e 40F20003 		movw	r3, #:lower16:I2CD1
 1541 0012 C0F20003 		movt	r3, #:upper16:I2CD1
 1542 0016 4FF00002 		mov	r2, #0
 1543 001a DA60     		str	r2, [r3, #12]
ARM GAS  C:\Users\z80\AppData\Local\Temp\ccyKjVO9.s 			page 29


 1544              		.loc 1 635 0
 1545 001c 40F20003 		movw	r3, #:lower16:I2CD1
 1546 0020 C0F20003 		movt	r3, #:upper16:I2CD1
 1547 0024 4FF4A842 		mov	r2, #21504
 1548 0028 C4F20002 		movt	r2, 16384
 1549 002c 1A62     		str	r2, [r3, #32]
 1550              		.loc 1 636 0
 1551 002e 40F20003 		movw	r3, #:lower16:I2CD1
 1552 0032 C0F20003 		movt	r3, #:upper16:I2CD1
 1553 0036 044A     		ldr	r2, .L62
 1554 0038 9A61     		str	r2, [r3, #24]
 1555              		.loc 1 637 0
 1556 003a 40F20003 		movw	r3, #:lower16:I2CD1
 1557 003e C0F20003 		movt	r3, #:upper16:I2CD1
 1558 0042 024A     		ldr	r2, .L62+4
 1559 0044 DA61     		str	r2, [r3, #28]
 1560              		.loc 1 655 0
 1561 0046 08BD     		pop	{r3, pc}
 1562              	.L63:
 1563              		.align	2
 1564              	.L62:
 1565 0048 48000000 		.word	_stm32_dma_streams+72
 1566 004c 3C000000 		.word	_stm32_dma_streams+60
 1567              		.cfi_endproc
 1568              	.LFE72:
 1569              		.size	i2c_lld_init, .-i2c_lld_init
 1570              		.section	.rodata
 1571              		.align	2
 1572              	.LC9:
 1573 00d8 6932635F 		.ascii	"i2c_lld_start(), #1\000"
 1573      6C6C645F 
 1573      73746172 
 1573      7428292C 
 1573      20233100 
 1574              		.align	2
 1575              	.LC10:
 1576 00ec 6932635F 		.ascii	"i2c_lld_start(), #2\000"
 1576      6C6C645F 
 1576      73746172 
 1576      7428292C 
 1576      20233200 
 1577              		.section	.text.i2c_lld_start,"ax",%progbits
 1578              		.align	2
 1579              		.p2align 4,,15
 1580              		.global	i2c_lld_start
 1581              		.thumb
 1582              		.thumb_func
 1583              		.type	i2c_lld_start, %function
 1584              	i2c_lld_start:
 1585              	.LFB73:
 1586              		.loc 1 664 0
 1587              		.cfi_startproc
 1588              		@ args = 0, pretend = 0, frame = 16
 1589              		@ frame_needed = 0, uses_anonymous_args = 0
 1590 0000 00B5     		push	{lr}
 1591              	.LCFI17:
 1592              		.cfi_def_cfa_offset 4
ARM GAS  C:\Users\z80\AppData\Local\Temp\ccyKjVO9.s 			page 30


 1593              		.cfi_offset 14, -4
 1594 0002 85B0     		sub	sp, sp, #20
 1595              	.LCFI18:
 1596              		.cfi_def_cfa_offset 24
 1597 0004 0190     		str	r0, [sp, #4]
 1598              		.loc 1 665 0
 1599 0006 019B     		ldr	r3, [sp, #4]
 1600 0008 1B6A     		ldr	r3, [r3, #32]
 1601 000a 0393     		str	r3, [sp, #12]
 1602              		.loc 1 667 0
 1603 000c 019B     		ldr	r3, [sp, #4]
 1604 000e 4FF08A02 		mov	r2, #138
 1605 0012 5A61     		str	r2, [r3, #20]
 1606              		.loc 1 672 0
 1607 0014 019B     		ldr	r3, [sp, #4]
 1608 0016 1B78     		ldrb	r3, [r3, #0]	@ zero_extendqisi2
 1609 0018 012B     		cmp	r3, #1
 1610 001a 63D1     		bne	.L65
 1611              		.loc 1 675 0
 1612 001c 019A     		ldr	r2, [sp, #4]
 1613 001e 40F20003 		movw	r3, #:lower16:I2CD1
 1614 0022 C0F20003 		movt	r3, #:upper16:I2CD1
 1615 0026 9A42     		cmp	r2, r3
 1616 0028 5CD1     		bne	.L65
 1617              	.LBB14:
 1618              		.loc 1 678 0
 1619 002a 4FF48053 		mov	r3, #4096
 1620 002e C4F20203 		movt	r3, 16386
 1621 0032 4FF48052 		mov	r2, #4096
 1622 0036 C4F20202 		movt	r2, 16386
 1623 003a 1269     		ldr	r2, [r2, #16]
 1624 003c 42F40012 		orr	r2, r2, #2097152
 1625 0040 1A61     		str	r2, [r3, #16]
 1626 0042 4FF48053 		mov	r3, #4096
 1627 0046 C4F20203 		movt	r3, 16386
 1628 004a 4FF00002 		mov	r2, #0
 1629 004e 1A61     		str	r2, [r3, #16]
 1630              		.loc 1 679 0
 1631 0050 019B     		ldr	r3, [sp, #4]
 1632 0052 9B69     		ldr	r3, [r3, #24]
 1633 0054 1846     		mov	r0, r3
 1634 0056 4FF00A01 		mov	r1, #10
 1635 005a 40F20002 		movw	r2, #:lower16:i2c_lld_serve_rx_end_irq
 1636 005e C0F20002 		movt	r2, #:upper16:i2c_lld_serve_rx_end_irq
 1637 0062 019B     		ldr	r3, [sp, #4]
 1638 0064 FFF7FEFF 		bl	dmaStreamAllocate
 1639 0068 0290     		str	r0, [sp, #8]
 1640              		.loc 1 683 0
 1641 006a 029B     		ldr	r3, [sp, #8]
 1642 006c 002B     		cmp	r3, #0
 1643 006e 05D0     		beq	.L66
 1644              		.loc 1 683 0 is_stmt 0 discriminator 1
 1645 0070 40F20000 		movw	r0, #:lower16:.LC9
 1646 0074 C0F20000 		movt	r0, #:upper16:.LC9
 1647 0078 FFF7FEFF 		bl	chDbgPanic
 1648              	.L66:
 1649              		.loc 1 684 0 is_stmt 1
ARM GAS  C:\Users\z80\AppData\Local\Temp\ccyKjVO9.s 			page 31


 1650 007c 019B     		ldr	r3, [sp, #4]
 1651 007e DB69     		ldr	r3, [r3, #28]
 1652 0080 1846     		mov	r0, r3
 1653 0082 4FF00A01 		mov	r1, #10
 1654 0086 40F20002 		movw	r2, #:lower16:i2c_lld_serve_tx_end_irq
 1655 008a C0F20002 		movt	r2, #:upper16:i2c_lld_serve_tx_end_irq
 1656 008e 019B     		ldr	r3, [sp, #4]
 1657 0090 FFF7FEFF 		bl	dmaStreamAllocate
 1658 0094 0290     		str	r0, [sp, #8]
 1659              		.loc 1 688 0
 1660 0096 029B     		ldr	r3, [sp, #8]
 1661 0098 002B     		cmp	r3, #0
 1662 009a 05D0     		beq	.L67
 1663              		.loc 1 688 0 is_stmt 0 discriminator 1
 1664 009c 40F20000 		movw	r0, #:lower16:.LC10
 1665 00a0 C0F20000 		movt	r0, #:upper16:.LC10
 1666 00a4 FFF7FEFF 		bl	chDbgPanic
 1667              	.L67:
 1668              		.loc 1 689 0 is_stmt 1
 1669 00a8 4FF48053 		mov	r3, #4096
 1670 00ac C4F20203 		movt	r3, 16386
 1671 00b0 4FF48052 		mov	r2, #4096
 1672 00b4 C4F20202 		movt	r2, 16386
 1673 00b8 D269     		ldr	r2, [r2, #28]
 1674 00ba 42F40012 		orr	r2, r2, #2097152
 1675 00be DA61     		str	r2, [r3, #28]
 1676              		.loc 1 690 0
 1677 00c0 4FF01F00 		mov	r0, #31
 1678 00c4 4FF0A001 		mov	r1, #160
 1679 00c8 FFF7FEFF 		bl	nvicEnableVector
 1680              		.loc 1 692 0
 1681 00cc 4FF02000 		mov	r0, #32
 1682 00d0 4FF0A001 		mov	r1, #160
 1683 00d4 FFF7FEFF 		bl	nvicEnableVector
 1684              		.loc 1 695 0
 1685 00d8 019B     		ldr	r3, [sp, #4]
 1686 00da 5B69     		ldr	r3, [r3, #20]
 1687 00dc 43F48052 		orr	r2, r3, #4096
 1688 00e0 019B     		ldr	r3, [sp, #4]
 1689 00e2 5A61     		str	r2, [r3, #20]
 1690              	.L65:
 1691              	.LBE14:
 1692              		.loc 1 754 0
 1693 00e4 019B     		ldr	r3, [sp, #4]
 1694 00e6 DB69     		ldr	r3, [r3, #28]
 1695 00e8 1B68     		ldr	r3, [r3, #0]
 1696 00ea 019A     		ldr	r2, [sp, #4]
 1697 00ec 5269     		ldr	r2, [r2, #20]
 1698 00ee 42F01002 		orr	r2, r2, #16
 1699 00f2 1A60     		str	r2, [r3, #0]
 1700              		.loc 1 755 0
 1701 00f4 019B     		ldr	r3, [sp, #4]
 1702 00f6 9B69     		ldr	r3, [r3, #24]
 1703 00f8 1B68     		ldr	r3, [r3, #0]
 1704 00fa 019A     		ldr	r2, [sp, #4]
 1705 00fc 5269     		ldr	r2, [r2, #20]
 1706 00fe 1A60     		str	r2, [r3, #0]
ARM GAS  C:\Users\z80\AppData\Local\Temp\ccyKjVO9.s 			page 32


 1707              		.loc 1 758 0
 1708 0100 019B     		ldr	r3, [sp, #4]
 1709 0102 9B69     		ldr	r3, [r3, #24]
 1710 0104 1B68     		ldr	r3, [r3, #0]
 1711 0106 039A     		ldr	r2, [sp, #12]
 1712 0108 02F11002 		add	r2, r2, #16
 1713 010c 9A60     		str	r2, [r3, #8]
 1714              		.loc 1 759 0
 1715 010e 019B     		ldr	r3, [sp, #4]
 1716 0110 DB69     		ldr	r3, [r3, #28]
 1717 0112 1B68     		ldr	r3, [r3, #0]
 1718 0114 039A     		ldr	r2, [sp, #12]
 1719 0116 02F11002 		add	r2, r2, #16
 1720 011a 9A60     		str	r2, [r3, #8]
 1721              		.loc 1 762 0
 1722 011c 039B     		ldr	r3, [sp, #12]
 1723 011e 4FF40042 		mov	r2, #32768
 1724 0122 1A80     		strh	r2, [r3, #0]	@ movhi
 1725              		.loc 1 763 0
 1726 0124 039B     		ldr	r3, [sp, #12]
 1727 0126 4FF00002 		mov	r2, #0
 1728 012a 1A80     		strh	r2, [r3, #0]	@ movhi
 1729              		.loc 1 764 0
 1730 012c 039B     		ldr	r3, [sp, #12]
 1731 012e 4FF41062 		mov	r2, #2304
 1732 0132 9A80     		strh	r2, [r3, #4]	@ movhi
 1733              		.loc 1 767 0
 1734 0134 0198     		ldr	r0, [sp, #4]
 1735 0136 FFF7FEFF 		bl	i2c_lld_set_clock
 1736              		.loc 1 768 0
 1737 013a 0198     		ldr	r0, [sp, #4]
 1738 013c FFF7FEFF 		bl	i2c_lld_set_opmode
 1739              		.loc 1 771 0
 1740 0140 039B     		ldr	r3, [sp, #12]
 1741 0142 1B88     		ldrh	r3, [r3, #0]	@ movhi
 1742 0144 9BB2     		uxth	r3, r3
 1743 0146 43F00103 		orr	r3, r3, #1
 1744 014a 9AB2     		uxth	r2, r3
 1745 014c 039B     		ldr	r3, [sp, #12]
 1746 014e 1A80     		strh	r2, [r3, #0]	@ movhi
 1747              		.loc 1 772 0
 1748 0150 05B0     		add	sp, sp, #20
 1749 0152 00BD     		pop	{pc}
 1750              		.cfi_endproc
 1751              	.LFE73:
 1752              		.size	i2c_lld_start, .-i2c_lld_start
 1753 0154 AFF30080 		.section	.text.i2c_lld_stop,"ax",%progbits
 1753      AFF30080 
 1753      AFF30080 
 1754              		.align	2
 1755              		.p2align 4,,15
 1756              		.global	i2c_lld_stop
 1757              		.thumb
 1758              		.thumb_func
 1759              		.type	i2c_lld_stop, %function
 1760              	i2c_lld_stop:
 1761              	.LFB74:
ARM GAS  C:\Users\z80\AppData\Local\Temp\ccyKjVO9.s 			page 33


 1762              		.loc 1 781 0
 1763              		.cfi_startproc
 1764              		@ args = 0, pretend = 0, frame = 8
 1765              		@ frame_needed = 0, uses_anonymous_args = 0
 1766 0000 00B5     		push	{lr}
 1767              	.LCFI19:
 1768              		.cfi_def_cfa_offset 4
 1769              		.cfi_offset 14, -4
 1770 0002 83B0     		sub	sp, sp, #12
 1771              	.LCFI20:
 1772              		.cfi_def_cfa_offset 16
 1773 0004 0190     		str	r0, [sp, #4]
 1774              		.loc 1 784 0
 1775 0006 019B     		ldr	r3, [sp, #4]
 1776 0008 1B78     		ldrb	r3, [r3, #0]	@ zero_extendqisi2
 1777 000a 012B     		cmp	r3, #1
 1778 000c 27D0     		beq	.L68
 1779              		.loc 1 787 0
 1780 000e 0198     		ldr	r0, [sp, #4]
 1781 0010 FFF7FEFF 		bl	i2c_lld_abort_operation
 1782              		.loc 1 788 0
 1783 0014 019B     		ldr	r3, [sp, #4]
 1784 0016 DB69     		ldr	r3, [r3, #28]
 1785 0018 1846     		mov	r0, r3
 1786 001a FFF7FEFF 		bl	dmaStreamRelease
 1787              		.loc 1 789 0
 1788 001e 019B     		ldr	r3, [sp, #4]
 1789 0020 9B69     		ldr	r3, [r3, #24]
 1790 0022 1846     		mov	r0, r3
 1791 0024 FFF7FEFF 		bl	dmaStreamRelease
 1792              		.loc 1 792 0
 1793 0028 019A     		ldr	r2, [sp, #4]
 1794 002a 40F20003 		movw	r3, #:lower16:I2CD1
 1795 002e C0F20003 		movt	r3, #:upper16:I2CD1
 1796 0032 9A42     		cmp	r2, r3
 1797 0034 13D1     		bne	.L68
 1798              		.loc 1 793 0
 1799 0036 4FF01F00 		mov	r0, #31
 1800 003a FFF7FEFF 		bl	nvicDisableVector
 1801              		.loc 1 794 0
 1802 003e 4FF02000 		mov	r0, #32
 1803 0042 FFF7FEFF 		bl	nvicDisableVector
 1804              		.loc 1 795 0
 1805 0046 4FF48053 		mov	r3, #4096
 1806 004a C4F20203 		movt	r3, 16386
 1807 004e 4FF48052 		mov	r2, #4096
 1808 0052 C4F20202 		movt	r2, 16386
 1809 0056 D269     		ldr	r2, [r2, #28]
 1810 0058 22F40012 		bic	r2, r2, #2097152
 1811 005c DA61     		str	r2, [r3, #28]
 1812              	.L68:
 1813              		.loc 1 815 0
 1814 005e 03B0     		add	sp, sp, #12
 1815 0060 00BD     		pop	{pc}
 1816              		.cfi_endproc
 1817              	.LFE74:
 1818              		.size	i2c_lld_stop, .-i2c_lld_stop
ARM GAS  C:\Users\z80\AppData\Local\Temp\ccyKjVO9.s 			page 34


 1819 0062 00BFAFF3 		.section	.rodata
 1819      0080AFF3 
 1819      0080AFF3 
 1819      0080
 1820              		.align	2
 1821              	.LC11:
 1822 0100 22693263 		.ascii	"\"i2c_lld_master_receive_timeout\"()\000"
 1822      5F6C6C64 
 1822      5F6D6173 
 1822      7465725F 
 1822      72656365 
 1823              		.section	.text.i2c_lld_master_receive_timeout,"ax",%progbits
 1824              		.align	2
 1825              		.p2align 4,,15
 1826              		.global	i2c_lld_master_receive_timeout
 1827              		.thumb
 1828              		.thumb_func
 1829              		.type	i2c_lld_master_receive_timeout, %function
 1830              	i2c_lld_master_receive_timeout:
 1831              	.LFB75:
 1832              		.loc 1 842 0
 1833              		.cfi_startproc
 1834              		@ args = 4, pretend = 0, frame = 40
 1835              		@ frame_needed = 0, uses_anonymous_args = 0
 1836 0000 00B5     		push	{lr}
 1837              	.LCFI21:
 1838              		.cfi_def_cfa_offset 4
 1839              		.cfi_offset 14, -4
 1840 0002 8BB0     		sub	sp, sp, #44
 1841              	.LCFI22:
 1842              		.cfi_def_cfa_offset 48
 1843 0004 0390     		str	r0, [sp, #12]
 1844 0006 0192     		str	r2, [sp, #4]
 1845 0008 0093     		str	r3, [sp, #0]
 1846 000a 0B46     		mov	r3, r1	@ movhi
 1847 000c ADF80A30 		strh	r3, [sp, #10]	@ movhi
 1848              		.loc 1 843 0
 1849 0010 039B     		ldr	r3, [sp, #12]
 1850 0012 1B6A     		ldr	r3, [r3, #32]
 1851 0014 0993     		str	r3, [sp, #36]
 1852              		.loc 1 847 0
 1853 0016 009B     		ldr	r3, [sp, #0]
 1854 0018 012B     		cmp	r3, #1
 1855 001a 05D8     		bhi	.L71
 1856              		.loc 1 847 0 is_stmt 0 discriminator 1
 1857 001c 40F20000 		movw	r0, #:lower16:.LC11
 1858 0020 C0F20000 		movt	r0, #:upper16:.LC11
 1859 0024 FFF7FEFF 		bl	chDbgPanic
 1860              	.L71:
 1861              		.loc 1 851 0 is_stmt 1
 1862 0028 0C9B     		ldr	r3, [sp, #48]
 1863 002a B3F1FF3F 		cmp	r3, #-1
 1864 002e 09D0     		beq	.L72
 1865              		.loc 1 852 0
 1866 0030 04AB     		add	r3, sp, #16
 1867 0032 1846     		mov	r0, r3
 1868 0034 0C99     		ldr	r1, [sp, #48]
ARM GAS  C:\Users\z80\AppData\Local\Temp\ccyKjVO9.s 			page 35


 1869 0036 40F20002 		movw	r2, #:lower16:i2c_lld_safety_timeout
 1870 003a C0F20002 		movt	r2, #:upper16:i2c_lld_safety_timeout
 1871 003e 039B     		ldr	r3, [sp, #12]
 1872 0040 FFF7FEFF 		bl	chVTSetI
 1873              	.L72:
 1874              		.loc 1 855 0
 1875 0044 FFF7FEFF 		bl	dbg_check_unlock
 1876              	.LBB15:
 1877 0048 4FF00003 		mov	r3, #0
 1878              	@ 855 "../chibios_2.4.x/os/hal/platforms/STM32/i2c_lld.c" 1
 1879 004c 83F31188 		msr     BASEPRI, r3
 1880              	@ 0 "" 2
 1881              		.thumb
 1882              	.LBE15:
 1883              		.loc 1 858 0
 1884 0050 BDF80A30 		ldrh	r3, [sp, #10]
 1885 0054 4FEA4303 		lsl	r3, r3, #1
 1886 0058 9BB2     		uxth	r3, r3
 1887 005a 43F00103 		orr	r3, r3, #1
 1888 005e 9BB2     		uxth	r3, r3
 1889 0060 9AB2     		uxth	r2, r3
 1890 0062 039B     		ldr	r3, [sp, #12]
 1891 0064 1A82     		strh	r2, [r3, #16]	@ movhi
 1892              		.loc 1 859 0
 1893 0066 039B     		ldr	r3, [sp, #12]
 1894 0068 4FF00002 		mov	r2, #0
 1895 006c 9A60     		str	r2, [r3, #8]
 1896              		.loc 1 862 0
 1897 006e 039B     		ldr	r3, [sp, #12]
 1898 0070 9B69     		ldr	r3, [r3, #24]
 1899 0072 1B68     		ldr	r3, [r3, #0]
 1900 0074 019A     		ldr	r2, [sp, #4]
 1901 0076 DA60     		str	r2, [r3, #12]
 1902              		.loc 1 863 0
 1903 0078 039B     		ldr	r3, [sp, #12]
 1904 007a 9B69     		ldr	r3, [r3, #24]
 1905 007c 1B68     		ldr	r3, [r3, #0]
 1906 007e 009A     		ldr	r2, [sp, #0]
 1907 0080 5A60     		str	r2, [r3, #4]
 1908              		.loc 1 867 0
 1909 0082 15E0     		b	.L73
 1910              	.L76:
 1911              	.LBB16:
 1912              		.loc 1 868 0
 1913 0084 4FF02003 		mov	r3, #32
 1914              	@ 868 "../chibios_2.4.x/os/hal/platforms/STM32/i2c_lld.c" 1
 1915 0088 83F31188 		msr     BASEPRI, r3
 1916              	@ 0 "" 2
 1917              		.thumb
 1918              	.LBE16:
 1919 008c FFF7FEFF 		bl	dbg_check_lock
 1920              		.loc 1 869 0
 1921 0090 0C9B     		ldr	r3, [sp, #48]
 1922 0092 B3F1FF3F 		cmp	r3, #-1
 1923 0096 05D0     		beq	.L74
 1924              		.loc 1 869 0 is_stmt 0 discriminator 1
 1925 0098 079B     		ldr	r3, [sp, #28]
ARM GAS  C:\Users\z80\AppData\Local\Temp\ccyKjVO9.s 			page 36


 1926 009a 002B     		cmp	r3, #0
 1927 009c 02D1     		bne	.L74
 1928              		.loc 1 870 0 is_stmt 1
 1929 009e 4FF0FF33 		mov	r3, #-1
 1930 00a2 54E0     		b	.L75
 1931              	.L74:
 1932              		.loc 1 871 0
 1933 00a4 FFF7FEFF 		bl	dbg_check_unlock
 1934              	.LBB17:
 1935 00a8 4FF00003 		mov	r3, #0
 1936              	@ 871 "../chibios_2.4.x/os/hal/platforms/STM32/i2c_lld.c" 1
 1937 00ac 83F31188 		msr     BASEPRI, r3
 1938              	@ 0 "" 2
 1939              		.thumb
 1940              	.L73:
 1941              	.LBE17:
 1942              		.loc 1 867 0 discriminator 1
 1943 00b0 099B     		ldr	r3, [sp, #36]
 1944 00b2 1B8B     		ldrh	r3, [r3, #24]	@ movhi
 1945 00b4 9BB2     		uxth	r3, r3
 1946 00b6 03F00203 		and	r3, r3, #2
 1947 00ba 002B     		cmp	r3, #0
 1948 00bc E2D1     		bne	.L76
 1949              		.loc 1 867 0 is_stmt 0 discriminator 2
 1950 00be 099B     		ldr	r3, [sp, #36]
 1951 00c0 1B88     		ldrh	r3, [r3, #0]	@ movhi
 1952 00c2 9BB2     		uxth	r3, r3
 1953 00c4 03F40073 		and	r3, r3, #512
 1954 00c8 002B     		cmp	r3, #0
 1955 00ca DBD1     		bne	.L76
 1956              	.LBB18:
 1957              		.loc 1 875 0 is_stmt 1
 1958 00cc 4FF02003 		mov	r3, #32
 1959              	@ 875 "../chibios_2.4.x/os/hal/platforms/STM32/i2c_lld.c" 1
 1960 00d0 83F31188 		msr     BASEPRI, r3
 1961              	@ 0 "" 2
 1962              		.thumb
 1963              	.LBE18:
 1964 00d4 FFF7FEFF 		bl	dbg_check_lock
 1965              		.loc 1 879 0
 1966 00d8 0C9B     		ldr	r3, [sp, #48]
 1967 00da B3F1FF3F 		cmp	r3, #-1
 1968 00de 05D0     		beq	.L77
 1969              		.loc 1 879 0 is_stmt 0 discriminator 1
 1970 00e0 079B     		ldr	r3, [sp, #28]
 1971 00e2 002B     		cmp	r3, #0
 1972 00e4 02D1     		bne	.L77
 1973              		.loc 1 880 0 is_stmt 1
 1974 00e6 4FF0FF33 		mov	r3, #-1
 1975 00ea 30E0     		b	.L75
 1976              	.L77:
 1977              		.loc 1 883 0
 1978 00ec 039B     		ldr	r3, [sp, #12]
 1979 00ee 4FF00002 		mov	r2, #0
 1980 00f2 83F82420 		strb	r2, [r3, #36]
 1981              		.loc 1 886 0
 1982 00f6 099B     		ldr	r3, [sp, #36]
ARM GAS  C:\Users\z80\AppData\Local\Temp\ccyKjVO9.s 			page 37


 1983 00f8 9B88     		ldrh	r3, [r3, #4]	@ movhi
 1984 00fa 9BB2     		uxth	r3, r3
 1985 00fc 43F40073 		orr	r3, r3, #512
 1986 0100 9AB2     		uxth	r2, r3
 1987 0102 099B     		ldr	r3, [sp, #36]
 1988 0104 9A80     		strh	r2, [r3, #4]	@ movhi
 1989              		.loc 1 887 0
 1990 0106 099B     		ldr	r3, [sp, #36]
 1991 0108 1B88     		ldrh	r3, [r3, #0]	@ movhi
 1992 010a 9BB2     		uxth	r3, r3
 1993 010c 43F4A063 		orr	r3, r3, #1280
 1994 0110 9AB2     		uxth	r2, r3
 1995 0112 099B     		ldr	r3, [sp, #36]
 1996 0114 1A80     		strh	r2, [r3, #0]	@ movhi
 1997              		.loc 1 890 0
 1998 0116 40F20003 		movw	r3, #:lower16:rlist
 1999 011a C0F20003 		movt	r3, #:upper16:rlist
 2000 011e DA69     		ldr	r2, [r3, #28]
 2001 0120 039B     		ldr	r3, [sp, #12]
 2002 0122 DA60     		str	r2, [r3, #12]
 2003              		.loc 1 891 0
 2004 0124 4FF00200 		mov	r0, #2
 2005 0128 FFF7FEFF 		bl	chSchGoSleepS
 2006              		.loc 1 892 0
 2007 012c 0C9B     		ldr	r3, [sp, #48]
 2008 012e B3F1FF3F 		cmp	r3, #-1
 2009 0132 06D0     		beq	.L78
 2010              		.loc 1 892 0 is_stmt 0 discriminator 1
 2011 0134 079B     		ldr	r3, [sp, #28]
 2012 0136 002B     		cmp	r3, #0
 2013 0138 03D0     		beq	.L78
 2014              		.loc 1 893 0 is_stmt 1
 2015 013a 04AB     		add	r3, sp, #16
 2016 013c 1846     		mov	r0, r3
 2017 013e FFF7FEFF 		bl	chVTResetI
 2018              	.L78:
 2019              		.loc 1 895 0
 2020 0142 40F20003 		movw	r3, #:lower16:rlist
 2021 0146 C0F20003 		movt	r3, #:upper16:rlist
 2022 014a DB69     		ldr	r3, [r3, #28]
 2023 014c 9B6A     		ldr	r3, [r3, #40]
 2024              	.L75:
 2025              		.loc 1 896 0
 2026 014e 1846     		mov	r0, r3
 2027 0150 0BB0     		add	sp, sp, #44
 2028 0152 00BD     		pop	{pc}
 2029              		.cfi_endproc
 2030              	.LFE75:
 2031              		.size	i2c_lld_master_receive_timeout, .-i2c_lld_master_receive_timeout
 2032 0154 AFF30080 		.section	.rodata
 2032      AFF30080 
 2032      AFF30080 
 2033 0123 00       		.align	2
 2034              	.LC12:
 2035 0124 22693263 		.ascii	"\"i2c_lld_master_transmit_timeout\"()\000"
 2035      5F6C6C64 
 2035      5F6D6173 
ARM GAS  C:\Users\z80\AppData\Local\Temp\ccyKjVO9.s 			page 38


 2035      7465725F 
 2035      7472616E 
 2036              		.section	.text.i2c_lld_master_transmit_timeout,"ax",%progbits
 2037              		.align	2
 2038              		.p2align 4,,15
 2039              		.global	i2c_lld_master_transmit_timeout
 2040              		.thumb
 2041              		.thumb_func
 2042              		.type	i2c_lld_master_transmit_timeout, %function
 2043              	i2c_lld_master_transmit_timeout:
 2044              	.LFB76:
 2045              		.loc 1 926 0
 2046              		.cfi_startproc
 2047              		@ args = 12, pretend = 0, frame = 40
 2048              		@ frame_needed = 0, uses_anonymous_args = 0
 2049 0000 00B5     		push	{lr}
 2050              	.LCFI23:
 2051              		.cfi_def_cfa_offset 4
 2052              		.cfi_offset 14, -4
 2053 0002 8BB0     		sub	sp, sp, #44
 2054              	.LCFI24:
 2055              		.cfi_def_cfa_offset 48
 2056 0004 0390     		str	r0, [sp, #12]
 2057 0006 0192     		str	r2, [sp, #4]
 2058 0008 0093     		str	r3, [sp, #0]
 2059 000a 0B46     		mov	r3, r1	@ movhi
 2060 000c ADF80A30 		strh	r3, [sp, #10]	@ movhi
 2061              		.loc 1 927 0
 2062 0010 039B     		ldr	r3, [sp, #12]
 2063 0012 1B6A     		ldr	r3, [r3, #32]
 2064 0014 0993     		str	r3, [sp, #36]
 2065              		.loc 1 931 0
 2066 0016 0D9B     		ldr	r3, [sp, #52]
 2067 0018 002B     		cmp	r3, #0
 2068 001a 0BD0     		beq	.L80
 2069              		.loc 1 931 0 is_stmt 0 discriminator 1
 2070 001c 0D9B     		ldr	r3, [sp, #52]
 2071 001e 012B     		cmp	r3, #1
 2072 0020 02D9     		bls	.L81
 2073              		.loc 1 931 0 discriminator 3
 2074 0022 0C9B     		ldr	r3, [sp, #48]
 2075 0024 002B     		cmp	r3, #0
 2076 0026 05D1     		bne	.L80
 2077              	.L81:
 2078              		.loc 1 931 0 discriminator 2
 2079 0028 40F20000 		movw	r0, #:lower16:.LC12
 2080 002c C0F20000 		movt	r0, #:upper16:.LC12
 2081 0030 FFF7FEFF 		bl	chDbgPanic
 2082              	.L80:
 2083              		.loc 1 936 0 is_stmt 1
 2084 0034 0E9B     		ldr	r3, [sp, #56]
 2085 0036 B3F1FF3F 		cmp	r3, #-1
 2086 003a 09D0     		beq	.L82
 2087              		.loc 1 937 0
 2088 003c 04AB     		add	r3, sp, #16
 2089 003e 1846     		mov	r0, r3
 2090 0040 0E99     		ldr	r1, [sp, #56]
ARM GAS  C:\Users\z80\AppData\Local\Temp\ccyKjVO9.s 			page 39


 2091 0042 40F20002 		movw	r2, #:lower16:i2c_lld_safety_timeout
 2092 0046 C0F20002 		movt	r2, #:upper16:i2c_lld_safety_timeout
 2093 004a 039B     		ldr	r3, [sp, #12]
 2094 004c FFF7FEFF 		bl	chVTSetI
 2095              	.L82:
 2096              		.loc 1 940 0
 2097 0050 FFF7FEFF 		bl	dbg_check_unlock
 2098              	.LBB19:
 2099 0054 4FF00003 		mov	r3, #0
 2100              	@ 940 "../chibios_2.4.x/os/hal/platforms/STM32/i2c_lld.c" 1
 2101 0058 83F31188 		msr     BASEPRI, r3
 2102              	@ 0 "" 2
 2103              		.thumb
 2104              	.LBE19:
 2105              		.loc 1 943 0
 2106 005c BDF80A30 		ldrh	r3, [sp, #10]	@ movhi
 2107 0060 4FEA4303 		lsl	r3, r3, #1
 2108 0064 9AB2     		uxth	r2, r3
 2109 0066 039B     		ldr	r3, [sp, #12]
 2110 0068 1A82     		strh	r2, [r3, #16]	@ movhi
 2111              		.loc 1 944 0
 2112 006a 039B     		ldr	r3, [sp, #12]
 2113 006c 4FF00002 		mov	r2, #0
 2114 0070 9A60     		str	r2, [r3, #8]
 2115              		.loc 1 947 0
 2116 0072 039B     		ldr	r3, [sp, #12]
 2117 0074 DB69     		ldr	r3, [r3, #28]
 2118 0076 1B68     		ldr	r3, [r3, #0]
 2119 0078 019A     		ldr	r2, [sp, #4]
 2120 007a DA60     		str	r2, [r3, #12]
 2121              		.loc 1 948 0
 2122 007c 039B     		ldr	r3, [sp, #12]
 2123 007e DB69     		ldr	r3, [r3, #28]
 2124 0080 1B68     		ldr	r3, [r3, #0]
 2125 0082 009A     		ldr	r2, [sp, #0]
 2126 0084 5A60     		str	r2, [r3, #4]
 2127              		.loc 1 951 0
 2128 0086 039B     		ldr	r3, [sp, #12]
 2129 0088 9B69     		ldr	r3, [r3, #24]
 2130 008a 1B68     		ldr	r3, [r3, #0]
 2131 008c 0C9A     		ldr	r2, [sp, #48]
 2132 008e DA60     		str	r2, [r3, #12]
 2133              		.loc 1 952 0
 2134 0090 039B     		ldr	r3, [sp, #12]
 2135 0092 9B69     		ldr	r3, [r3, #24]
 2136 0094 1B68     		ldr	r3, [r3, #0]
 2137 0096 0D9A     		ldr	r2, [sp, #52]
 2138 0098 5A60     		str	r2, [r3, #4]
 2139              		.loc 1 956 0
 2140 009a 15E0     		b	.L83
 2141              	.L86:
 2142              	.LBB20:
 2143              		.loc 1 957 0
 2144 009c 4FF02003 		mov	r3, #32
 2145              	@ 957 "../chibios_2.4.x/os/hal/platforms/STM32/i2c_lld.c" 1
 2146 00a0 83F31188 		msr     BASEPRI, r3
 2147              	@ 0 "" 2
ARM GAS  C:\Users\z80\AppData\Local\Temp\ccyKjVO9.s 			page 40


 2148              		.thumb
 2149              	.LBE20:
 2150 00a4 FFF7FEFF 		bl	dbg_check_lock
 2151              		.loc 1 958 0
 2152 00a8 0E9B     		ldr	r3, [sp, #56]
 2153 00aa B3F1FF3F 		cmp	r3, #-1
 2154 00ae 05D0     		beq	.L84
 2155              		.loc 1 958 0 is_stmt 0 discriminator 1
 2156 00b0 079B     		ldr	r3, [sp, #28]
 2157 00b2 002B     		cmp	r3, #0
 2158 00b4 02D1     		bne	.L84
 2159              		.loc 1 959 0 is_stmt 1
 2160 00b6 4FF0FF33 		mov	r3, #-1
 2161 00ba 54E0     		b	.L85
 2162              	.L84:
 2163              		.loc 1 960 0
 2164 00bc FFF7FEFF 		bl	dbg_check_unlock
 2165              	.LBB21:
 2166 00c0 4FF00003 		mov	r3, #0
 2167              	@ 960 "../chibios_2.4.x/os/hal/platforms/STM32/i2c_lld.c" 1
 2168 00c4 83F31188 		msr     BASEPRI, r3
 2169              	@ 0 "" 2
 2170              		.thumb
 2171              	.L83:
 2172              	.LBE21:
 2173              		.loc 1 956 0 discriminator 1
 2174 00c8 099B     		ldr	r3, [sp, #36]
 2175 00ca 1B8B     		ldrh	r3, [r3, #24]	@ movhi
 2176 00cc 9BB2     		uxth	r3, r3
 2177 00ce 03F00203 		and	r3, r3, #2
 2178 00d2 002B     		cmp	r3, #0
 2179 00d4 E2D1     		bne	.L86
 2180              		.loc 1 956 0 is_stmt 0 discriminator 2
 2181 00d6 099B     		ldr	r3, [sp, #36]
 2182 00d8 1B88     		ldrh	r3, [r3, #0]	@ movhi
 2183 00da 9BB2     		uxth	r3, r3
 2184 00dc 03F40073 		and	r3, r3, #512
 2185 00e0 002B     		cmp	r3, #0
 2186 00e2 DBD1     		bne	.L86
 2187              	.LBB22:
 2188              		.loc 1 964 0 is_stmt 1
 2189 00e4 4FF02003 		mov	r3, #32
 2190              	@ 964 "../chibios_2.4.x/os/hal/platforms/STM32/i2c_lld.c" 1
 2191 00e8 83F31188 		msr     BASEPRI, r3
 2192              	@ 0 "" 2
 2193              		.thumb
 2194              	.LBE22:
 2195 00ec FFF7FEFF 		bl	dbg_check_lock
 2196              		.loc 1 968 0
 2197 00f0 0E9B     		ldr	r3, [sp, #56]
 2198 00f2 B3F1FF3F 		cmp	r3, #-1
 2199 00f6 05D0     		beq	.L87
 2200              		.loc 1 968 0 is_stmt 0 discriminator 1
 2201 00f8 079B     		ldr	r3, [sp, #28]
 2202 00fa 002B     		cmp	r3, #0
 2203 00fc 02D1     		bne	.L87
 2204              		.loc 1 969 0 is_stmt 1
ARM GAS  C:\Users\z80\AppData\Local\Temp\ccyKjVO9.s 			page 41


 2205 00fe 4FF0FF33 		mov	r3, #-1
 2206 0102 30E0     		b	.L85
 2207              	.L87:
 2208              		.loc 1 972 0
 2209 0104 039B     		ldr	r3, [sp, #12]
 2210 0106 4FF00002 		mov	r2, #0
 2211 010a 83F82420 		strb	r2, [r3, #36]
 2212              		.loc 1 975 0
 2213 010e 099B     		ldr	r3, [sp, #36]
 2214 0110 9B88     		ldrh	r3, [r3, #4]	@ movhi
 2215 0112 9BB2     		uxth	r3, r3
 2216 0114 43F40073 		orr	r3, r3, #512
 2217 0118 9AB2     		uxth	r2, r3
 2218 011a 099B     		ldr	r3, [sp, #36]
 2219 011c 9A80     		strh	r2, [r3, #4]	@ movhi
 2220              		.loc 1 976 0
 2221 011e 099B     		ldr	r3, [sp, #36]
 2222 0120 1B88     		ldrh	r3, [r3, #0]	@ movhi
 2223 0122 9BB2     		uxth	r3, r3
 2224 0124 43F48073 		orr	r3, r3, #256
 2225 0128 9AB2     		uxth	r2, r3
 2226 012a 099B     		ldr	r3, [sp, #36]
 2227 012c 1A80     		strh	r2, [r3, #0]	@ movhi
 2228              		.loc 1 979 0
 2229 012e 40F20003 		movw	r3, #:lower16:rlist
 2230 0132 C0F20003 		movt	r3, #:upper16:rlist
 2231 0136 DA69     		ldr	r2, [r3, #28]
 2232 0138 039B     		ldr	r3, [sp, #12]
 2233 013a DA60     		str	r2, [r3, #12]
 2234              		.loc 1 980 0
 2235 013c 4FF00200 		mov	r0, #2
 2236 0140 FFF7FEFF 		bl	chSchGoSleepS
 2237              		.loc 1 981 0
 2238 0144 0E9B     		ldr	r3, [sp, #56]
 2239 0146 B3F1FF3F 		cmp	r3, #-1
 2240 014a 06D0     		beq	.L88
 2241              		.loc 1 981 0 is_stmt 0 discriminator 1
 2242 014c 079B     		ldr	r3, [sp, #28]
 2243 014e 002B     		cmp	r3, #0
 2244 0150 03D0     		beq	.L88
 2245              		.loc 1 982 0 is_stmt 1
 2246 0152 04AB     		add	r3, sp, #16
 2247 0154 1846     		mov	r0, r3
 2248 0156 FFF7FEFF 		bl	chVTResetI
 2249              	.L88:
 2250              		.loc 1 984 0
 2251 015a 40F20003 		movw	r3, #:lower16:rlist
 2252 015e C0F20003 		movt	r3, #:upper16:rlist
 2253 0162 DB69     		ldr	r3, [r3, #28]
 2254 0164 9B6A     		ldr	r3, [r3, #40]
 2255              	.L85:
 2256              		.loc 1 985 0
 2257 0166 1846     		mov	r0, r3
 2258 0168 0BB0     		add	sp, sp, #44
 2259 016a 00BD     		pop	{pc}
 2260              		.cfi_endproc
 2261              	.LFE76:
ARM GAS  C:\Users\z80\AppData\Local\Temp\ccyKjVO9.s 			page 42


 2262              		.size	i2c_lld_master_transmit_timeout, .-i2c_lld_master_transmit_timeout
 2263 016c AFF30080 		.section	.text.i2c_lld_slave_io_timeout,"ax",%progbits
 2264              		.align	2
 2265              		.p2align 4,,15
 2266              		.global	i2c_lld_slave_io_timeout
 2267              		.thumb
 2268              		.thumb_func
 2269              		.type	i2c_lld_slave_io_timeout, %function
 2270              	i2c_lld_slave_io_timeout:
 2271              	.LFB77:
 2272              		.loc 1 995 0
 2273              		.cfi_startproc
 2274              		@ args = 20, pretend = 0, frame = 40
 2275              		@ frame_needed = 0, uses_anonymous_args = 0
 2276 0000 00B5     		push	{lr}
 2277              	.LCFI25:
 2278              		.cfi_def_cfa_offset 4
 2279              		.cfi_offset 14, -4
 2280 0002 8BB0     		sub	sp, sp, #44
 2281              	.LCFI26:
 2282              		.cfi_def_cfa_offset 48
 2283 0004 0390     		str	r0, [sp, #12]
 2284 0006 0192     		str	r2, [sp, #4]
 2285 0008 0093     		str	r3, [sp, #0]
 2286 000a 0B46     		mov	r3, r1	@ movhi
 2287 000c ADF80A30 		strh	r3, [sp, #10]	@ movhi
 2288              		.loc 1 996 0
 2289 0010 039B     		ldr	r3, [sp, #12]
 2290 0012 1B6A     		ldr	r3, [r3, #32]
 2291 0014 0993     		str	r3, [sp, #36]
 2292              		.loc 1 1000 0
 2293 0016 40F20003 		movw	r3, #:lower16:rlist
 2294 001a C0F20003 		movt	r3, #:upper16:rlist
 2295 001e DA69     		ldr	r2, [r3, #28]
 2296 0020 039B     		ldr	r3, [sp, #12]
 2297 0022 DA60     		str	r2, [r3, #12]
 2298              		.loc 1 1001 0
 2299 0024 109B     		ldr	r3, [sp, #64]
 2300 0026 B3F1FF3F 		cmp	r3, #-1
 2301 002a 09D0     		beq	.L90
 2302              		.loc 1 1002 0
 2303 002c 04AB     		add	r3, sp, #16
 2304 002e 1846     		mov	r0, r3
 2305 0030 1099     		ldr	r1, [sp, #64]
 2306 0032 40F20002 		movw	r2, #:lower16:i2c_lld_safety_timeout
 2307 0036 C0F20002 		movt	r2, #:upper16:i2c_lld_safety_timeout
 2308 003a 039B     		ldr	r3, [sp, #12]
 2309 003c FFF7FEFF 		bl	chVTSetI
 2310              	.L90:
 2311              		.loc 1 1006 0
 2312 0040 FFF7FEFF 		bl	dbg_check_unlock
 2313              	.LBB23:
 2314 0044 4FF00003 		mov	r3, #0
 2315              	@ 1006 "../chibios_2.4.x/os/hal/platforms/STM32/i2c_lld.c" 1
 2316 0048 83F31188 		msr     BASEPRI, r3
 2317              	@ 0 "" 2
 2318              		.thumb
ARM GAS  C:\Users\z80\AppData\Local\Temp\ccyKjVO9.s 			page 43


 2319              	.LBE23:
 2320              		.loc 1 1007 0
 2321 004c 15E0     		b	.L91
 2322              	.L94:
 2323              	.LBB24:
 2324              		.loc 1 1009 0
 2325 004e 4FF02003 		mov	r3, #32
 2326              	@ 1009 "../chibios_2.4.x/os/hal/platforms/STM32/i2c_lld.c" 1
 2327 0052 83F31188 		msr     BASEPRI, r3
 2328              	@ 0 "" 2
 2329              		.thumb
 2330              	.LBE24:
 2331 0056 FFF7FEFF 		bl	dbg_check_lock
 2332              		.loc 1 1010 0
 2333 005a 109B     		ldr	r3, [sp, #64]
 2334 005c B3F1FF3F 		cmp	r3, #-1
 2335 0060 05D0     		beq	.L92
 2336              		.loc 1 1010 0 is_stmt 0 discriminator 1
 2337 0062 079B     		ldr	r3, [sp, #28]
 2338 0064 002B     		cmp	r3, #0
 2339 0066 02D1     		bne	.L92
 2340              		.loc 1 1011 0 is_stmt 1
 2341 0068 4FF0FF33 		mov	r3, #-1
 2342 006c 8AE0     		b	.L93
 2343              	.L92:
 2344              		.loc 1 1012 0
 2345 006e FFF7FEFF 		bl	dbg_check_unlock
 2346              	.LBB25:
 2347 0072 4FF00003 		mov	r3, #0
 2348              	@ 1012 "../chibios_2.4.x/os/hal/platforms/STM32/i2c_lld.c" 1
 2349 0076 83F31188 		msr     BASEPRI, r3
 2350              	@ 0 "" 2
 2351              		.thumb
 2352              	.L91:
 2353              	.LBE25:
 2354              		.loc 1 1007 0 discriminator 1
 2355 007a 099B     		ldr	r3, [sp, #36]
 2356 007c 1B8B     		ldrh	r3, [r3, #24]	@ movhi
 2357 007e 9BB2     		uxth	r3, r3
 2358 0080 03F00203 		and	r3, r3, #2
 2359 0084 002B     		cmp	r3, #0
 2360 0086 E2D1     		bne	.L94
 2361              		.loc 1 1007 0 is_stmt 0 discriminator 2
 2362 0088 099B     		ldr	r3, [sp, #36]
 2363 008a 1B88     		ldrh	r3, [r3, #0]	@ movhi
 2364 008c 9BB2     		uxth	r3, r3
 2365 008e 03F40073 		and	r3, r3, #512
 2366 0092 002B     		cmp	r3, #0
 2367 0094 DBD1     		bne	.L94
 2368              	.LBB26:
 2369              		.loc 1 1016 0 is_stmt 1
 2370 0096 4FF02003 		mov	r3, #32
 2371              	@ 1016 "../chibios_2.4.x/os/hal/platforms/STM32/i2c_lld.c" 1
 2372 009a 83F31188 		msr     BASEPRI, r3
 2373              	@ 0 "" 2
 2374              		.thumb
 2375              	.LBE26:
ARM GAS  C:\Users\z80\AppData\Local\Temp\ccyKjVO9.s 			page 44


 2376 009e FFF7FEFF 		bl	dbg_check_lock
 2377              		.loc 1 1020 0
 2378 00a2 109B     		ldr	r3, [sp, #64]
 2379 00a4 B3F1FF3F 		cmp	r3, #-1
 2380 00a8 05D0     		beq	.L95
 2381              		.loc 1 1020 0 is_stmt 0 discriminator 1
 2382 00aa 079B     		ldr	r3, [sp, #28]
 2383 00ac 002B     		cmp	r3, #0
 2384 00ae 02D1     		bne	.L95
 2385              		.loc 1 1021 0 is_stmt 1
 2386 00b0 4FF0FF33 		mov	r3, #-1
 2387 00b4 66E0     		b	.L93
 2388              	.L95:
 2389              		.loc 1 1024 0
 2390 00b6 BDF80A30 		ldrh	r3, [sp, #10]	@ movhi
 2391 00ba 4FEA4303 		lsl	r3, r3, #1
 2392 00be 9AB2     		uxth	r2, r3
 2393 00c0 039B     		ldr	r3, [sp, #12]
 2394 00c2 1A82     		strh	r2, [r3, #16]	@ movhi
 2395              		.loc 1 1025 0
 2396 00c4 039B     		ldr	r3, [sp, #12]
 2397 00c6 4FF00002 		mov	r2, #0
 2398 00ca 9A60     		str	r2, [r3, #8]
 2399              		.loc 1 1027 0
 2400 00cc 039B     		ldr	r3, [sp, #12]
 2401 00ce 019A     		ldr	r2, [sp, #4]
 2402 00d0 9A62     		str	r2, [r3, #40]
 2403              		.loc 1 1028 0
 2404 00d2 039B     		ldr	r3, [sp, #12]
 2405 00d4 009A     		ldr	r2, [sp, #0]
 2406 00d6 DA62     		str	r2, [r3, #44]
 2407              		.loc 1 1029 0
 2408 00d8 039B     		ldr	r3, [sp, #12]
 2409 00da 4FF00002 		mov	r2, #0
 2410 00de 1A63     		str	r2, [r3, #48]
 2411              		.loc 1 1030 0
 2412 00e0 039B     		ldr	r3, [sp, #12]
 2413 00e2 0E9A     		ldr	r2, [sp, #56]
 2414 00e4 5A63     		str	r2, [r3, #52]
 2415              		.loc 1 1032 0
 2416 00e6 039B     		ldr	r3, [sp, #12]
 2417 00e8 0C9A     		ldr	r2, [sp, #48]
 2418 00ea 9A63     		str	r2, [r3, #56]
 2419              		.loc 1 1033 0
 2420 00ec 039B     		ldr	r3, [sp, #12]
 2421 00ee 0D9A     		ldr	r2, [sp, #52]
 2422 00f0 DA63     		str	r2, [r3, #60]
 2423              		.loc 1 1034 0
 2424 00f2 039B     		ldr	r3, [sp, #12]
 2425 00f4 4FF00002 		mov	r2, #0
 2426 00f8 1A64     		str	r2, [r3, #64]
 2427              		.loc 1 1035 0
 2428 00fa 039B     		ldr	r3, [sp, #12]
 2429 00fc 0F9A     		ldr	r2, [sp, #60]
 2430 00fe 5A64     		str	r2, [r3, #68]
 2431              		.loc 1 1037 0
 2432 0100 039B     		ldr	r3, [sp, #12]
ARM GAS  C:\Users\z80\AppData\Local\Temp\ccyKjVO9.s 			page 45


 2433 0102 4FF00102 		mov	r2, #1
 2434 0106 83F82420 		strb	r2, [r3, #36]
 2435              		.loc 1 1040 0
 2436 010a 099B     		ldr	r3, [sp, #36]
 2437 010c 1B88     		ldrh	r3, [r3, #0]	@ movhi
 2438 010e 9BB2     		uxth	r3, r3
 2439 0110 23F48073 		bic	r3, r3, #256
 2440 0114 9AB2     		uxth	r2, r3
 2441 0116 099B     		ldr	r3, [sp, #36]
 2442 0118 1A80     		strh	r2, [r3, #0]	@ movhi
 2443              		.loc 1 1042 0
 2444 011a 099B     		ldr	r3, [sp, #36]
 2445 011c 9B88     		ldrh	r3, [r3, #4]	@ movhi
 2446 011e 9BB2     		uxth	r3, r3
 2447 0120 23F40063 		bic	r3, r3, #2048
 2448 0124 9AB2     		uxth	r2, r3
 2449 0126 099B     		ldr	r3, [sp, #36]
 2450 0128 9A80     		strh	r2, [r3, #4]	@ movhi
 2451              		.loc 1 1044 0
 2452 012a BDF80A30 		ldrh	r3, [sp, #10]
 2453 012e 4FEA4303 		lsl	r3, r3, #1
 2454 0132 9BB2     		uxth	r3, r3
 2455 0134 DBB2     		uxtb	r3, r3
 2456 0136 9AB2     		uxth	r2, r3
 2457 0138 099B     		ldr	r3, [sp, #36]
 2458 013a 1A81     		strh	r2, [r3, #8]	@ movhi
 2459              		.loc 1 1046 0
 2460 013c 099B     		ldr	r3, [sp, #36]
 2461 013e 9B88     		ldrh	r3, [r3, #4]	@ movhi
 2462 0140 9BB2     		uxth	r3, r3
 2463 0142 43F4C063 		orr	r3, r3, #1536
 2464 0146 9AB2     		uxth	r2, r3
 2465 0148 099B     		ldr	r3, [sp, #36]
 2466 014a 9A80     		strh	r2, [r3, #4]	@ movhi
 2467              		.loc 1 1048 0
 2468 014c 099B     		ldr	r3, [sp, #36]
 2469 014e 1B88     		ldrh	r3, [r3, #0]	@ movhi
 2470 0150 9BB2     		uxth	r3, r3
 2471 0152 43F48063 		orr	r3, r3, #1024
 2472 0156 9AB2     		uxth	r2, r3
 2473 0158 099B     		ldr	r3, [sp, #36]
 2474 015a 1A80     		strh	r2, [r3, #0]	@ movhi
 2475              		.loc 1 1051 0
 2476 015c 40F20003 		movw	r3, #:lower16:rlist
 2477 0160 C0F20003 		movt	r3, #:upper16:rlist
 2478 0164 DA69     		ldr	r2, [r3, #28]
 2479 0166 039B     		ldr	r3, [sp, #12]
 2480 0168 DA60     		str	r2, [r3, #12]
 2481              		.loc 1 1053 0
 2482 016a 109B     		ldr	r3, [sp, #64]
 2483 016c B3F1FF3F 		cmp	r3, #-1
 2484 0170 06D0     		beq	.L96
 2485              		.loc 1 1053 0 is_stmt 0 discriminator 1
 2486 0172 079B     		ldr	r3, [sp, #28]
 2487 0174 002B     		cmp	r3, #0
 2488 0176 03D0     		beq	.L96
 2489              		.loc 1 1054 0 is_stmt 1
ARM GAS  C:\Users\z80\AppData\Local\Temp\ccyKjVO9.s 			page 46


 2490 0178 04AB     		add	r3, sp, #16
 2491 017a 1846     		mov	r0, r3
 2492 017c FFF7FEFF 		bl	chVTResetI
 2493              	.L96:
 2494              		.loc 1 1057 0
 2495 0180 4FF00003 		mov	r3, #0
 2496              	.L93:
 2497              		.loc 1 1058 0
 2498 0184 1846     		mov	r0, r3
 2499 0186 0BB0     		add	sp, sp, #44
 2500 0188 00BD     		pop	{pc}
 2501              		.cfi_endproc
 2502              	.LFE77:
 2503              		.size	i2c_lld_slave_io_timeout, .-i2c_lld_slave_io_timeout
 2504 018a 00BFAFF3 		.text
 2504      0080
 2505              	.Letext0:
 2506              		.file 2 "c:\\programs\\codesourcery\\2011.03-56\\bin\\../lib/gcc/arm-none-eabi/4.6.3/include/stdde
 2507              		.file 3 "c:\\programs\\codesourcery\\2011.03-56\\bin\\../lib/gcc/arm-none-eabi/4.6.3/../../../../a
 2508              		.file 4 "../chibios_2.4.x/os/ports/GCC/ARMCMx/chtypes.h"
 2509              		.file 5 "../chibios_2.4.x/os/kernel/include/chlists.h"
 2510              		.file 6 "../chibios_2.4.x/os/kernel/include/chthreads.h"
 2511              		.file 7 "../chibios_2.4.x/os/ports/GCC/ARMCMx/chcore_v7m.h"
 2512              		.file 8 "../chibios_2.4.x/os/kernel/include/chvt.h"
 2513              		.file 9 "../chibios_2.4.x/os/kernel/include/chschd.h"
 2514              		.file 10 "../chibios_2.4.x/os/kernel/include/chmtx.h"
 2515              		.file 11 "../chibios_2.4.x/os/hal/platforms/STM32F1xx/stm32f10x.h"
 2516              		.file 12 "../chibios_2.4.x/os/hal/platforms/STM32F1xx/stm32_dma.h"
 2517              		.file 13 "../chibios_2.4.x/os/hal/include/i2c.h"
 2518              		.file 14 "../chibios_2.4.x/os/hal/platforms/STM32/i2c_lld.h"
 2519              		.file 15 "../chibios_2.4.x/os/ports/common/ARMCMx/CMSIS/include/core_cm3.h"
 2520              		.section	.debug_info,"",%progbits
 2521              	.Ldebug_info0:
 2522 0000 30130000 		.4byte	0x1330
 2523 0004 0200     		.2byte	0x2
 2524 0006 00000000 		.4byte	.Ldebug_abbrev0
 2525 000a 04       		.byte	0x4
 2526 000b 01       		.uleb128 0x1
 2527 000c FE080000 		.4byte	.LASF228
 2528 0010 01       		.byte	0x1
 2529 0011 DC040000 		.4byte	.LASF229
 2530 0015 5D010000 		.4byte	.LASF230
 2531 0019 00000000 		.4byte	0
 2532 001d 00000000 		.4byte	0
 2533 0021 00000000 		.4byte	.Ldebug_ranges0+0
 2534 0025 00000000 		.4byte	.Ldebug_line0
 2535 0029 02       		.uleb128 0x2
 2536 002a 04       		.byte	0x4
 2537 002b 05       		.byte	0x5
 2538 002c 696E7400 		.ascii	"int\000"
 2539 0030 03       		.uleb128 0x3
 2540 0031 00000000 		.4byte	.LASF2
 2541 0035 02       		.byte	0x2
 2542 0036 D4       		.byte	0xd4
 2543 0037 3B000000 		.4byte	0x3b
 2544 003b 04       		.uleb128 0x4
 2545 003c 04       		.byte	0x4
ARM GAS  C:\Users\z80\AppData\Local\Temp\ccyKjVO9.s 			page 47


 2546 003d 07       		.byte	0x7
 2547 003e 08060000 		.4byte	.LASF0
 2548 0042 04       		.uleb128 0x4
 2549 0043 01       		.byte	0x1
 2550 0044 06       		.byte	0x6
 2551 0045 03020000 		.4byte	.LASF1
 2552 0049 03       		.uleb128 0x3
 2553 004a 16020000 		.4byte	.LASF3
 2554 004e 03       		.byte	0x3
 2555 004f 2A       		.byte	0x2a
 2556 0050 54000000 		.4byte	0x54
 2557 0054 04       		.uleb128 0x4
 2558 0055 01       		.byte	0x1
 2559 0056 08       		.byte	0x8
 2560 0057 46020000 		.4byte	.LASF4
 2561 005b 04       		.uleb128 0x4
 2562 005c 02       		.byte	0x2
 2563 005d 05       		.byte	0x5
 2564 005e 47080000 		.4byte	.LASF5
 2565 0062 03       		.uleb128 0x3
 2566 0063 4A070000 		.4byte	.LASF6
 2567 0067 03       		.byte	0x3
 2568 0068 36       		.byte	0x36
 2569 0069 6D000000 		.4byte	0x6d
 2570 006d 04       		.uleb128 0x4
 2571 006e 02       		.byte	0x2
 2572 006f 07       		.byte	0x7
 2573 0070 98090000 		.4byte	.LASF7
 2574 0074 03       		.uleb128 0x3
 2575 0075 6C000000 		.4byte	.LASF8
 2576 0079 03       		.byte	0x3
 2577 007a 4F       		.byte	0x4f
 2578 007b 7F000000 		.4byte	0x7f
 2579 007f 04       		.uleb128 0x4
 2580 0080 04       		.byte	0x4
 2581 0081 05       		.byte	0x5
 2582 0082 40010000 		.4byte	.LASF9
 2583 0086 03       		.uleb128 0x3
 2584 0087 1E090000 		.4byte	.LASF10
 2585 008b 03       		.byte	0x3
 2586 008c 50       		.byte	0x50
 2587 008d 91000000 		.4byte	0x91
 2588 0091 04       		.uleb128 0x4
 2589 0092 04       		.byte	0x4
 2590 0093 07       		.byte	0x7
 2591 0094 5A040000 		.4byte	.LASF11
 2592 0098 04       		.uleb128 0x4
 2593 0099 08       		.byte	0x8
 2594 009a 05       		.byte	0x5
 2595 009b 45050000 		.4byte	.LASF12
 2596 009f 03       		.uleb128 0x3
 2597 00a0 64080000 		.4byte	.LASF13
 2598 00a4 03       		.byte	0x3
 2599 00a5 78       		.byte	0x78
 2600 00a6 AA000000 		.4byte	0xaa
 2601 00aa 04       		.uleb128 0x4
 2602 00ab 08       		.byte	0x8
ARM GAS  C:\Users\z80\AppData\Local\Temp\ccyKjVO9.s 			page 48


 2603 00ac 07       		.byte	0x7
 2604 00ad 12070000 		.4byte	.LASF14
 2605 00b1 03       		.uleb128 0x3
 2606 00b2 AB080000 		.4byte	.LASF15
 2607 00b6 04       		.byte	0x4
 2608 00b7 2E       		.byte	0x2e
 2609 00b8 74000000 		.4byte	0x74
 2610 00bc 03       		.uleb128 0x3
 2611 00bd E0070000 		.4byte	.LASF16
 2612 00c1 04       		.byte	0x4
 2613 00c2 2F       		.byte	0x2f
 2614 00c3 49000000 		.4byte	0x49
 2615 00c7 03       		.uleb128 0x3
 2616 00c8 9D010000 		.4byte	.LASF17
 2617 00cc 04       		.byte	0x4
 2618 00cd 30       		.byte	0x30
 2619 00ce 49000000 		.4byte	0x49
 2620 00d2 03       		.uleb128 0x3
 2621 00d3 26000000 		.4byte	.LASF18
 2622 00d7 04       		.byte	0x4
 2623 00d8 32       		.byte	0x32
 2624 00d9 86000000 		.4byte	0x86
 2625 00dd 03       		.uleb128 0x3
 2626 00de 53070000 		.4byte	.LASF19
 2627 00e2 04       		.byte	0x4
 2628 00e3 33       		.byte	0x33
 2629 00e4 74000000 		.4byte	0x74
 2630 00e8 03       		.uleb128 0x3
 2631 00e9 1E020000 		.4byte	.LASF20
 2632 00ed 04       		.byte	0x4
 2633 00ee 35       		.byte	0x35
 2634 00ef 86000000 		.4byte	0x86
 2635 00f3 03       		.uleb128 0x3
 2636 00f4 07000000 		.4byte	.LASF21
 2637 00f8 04       		.byte	0x4
 2638 00f9 36       		.byte	0x36
 2639 00fa 86000000 		.4byte	0x86
 2640 00fe 03       		.uleb128 0x3
 2641 00ff AE030000 		.4byte	.LASF22
 2642 0103 04       		.byte	0x4
 2643 0104 37       		.byte	0x37
 2644 0105 74000000 		.4byte	0x74
 2645 0109 03       		.uleb128 0x3
 2646 010a BB080000 		.4byte	.LASF23
 2647 010e 05       		.byte	0x5
 2648 010f 2A       		.byte	0x2a
 2649 0110 14010000 		.4byte	0x114
 2650 0114 05       		.uleb128 0x5
 2651 0115 BB080000 		.4byte	.LASF23
 2652 0119 48       		.byte	0x48
 2653 011a 06       		.byte	0x6
 2654 011b 5E       		.byte	0x5e
 2655 011c 1D020000 		.4byte	0x21d
 2656 0120 06       		.uleb128 0x6
 2657 0121 49010000 		.4byte	.LASF24
 2658 0125 06       		.byte	0x6
 2659 0126 5F       		.byte	0x5f
ARM GAS  C:\Users\z80\AppData\Local\Temp\ccyKjVO9.s 			page 49


 2660 0127 42020000 		.4byte	0x242
 2661 012b 02       		.byte	0x2
 2662 012c 23       		.byte	0x23
 2663 012d 00       		.uleb128 0
 2664 012e 06       		.uleb128 0x6
 2665 012f 8A010000 		.4byte	.LASF25
 2666 0133 06       		.byte	0x6
 2667 0134 61       		.byte	0x61
 2668 0135 42020000 		.4byte	0x242
 2669 0139 02       		.byte	0x2
 2670 013a 23       		.byte	0x23
 2671 013b 04       		.uleb128 0x4
 2672 013c 06       		.uleb128 0x6
 2673 013d 27030000 		.4byte	.LASF26
 2674 0141 06       		.byte	0x6
 2675 0142 63       		.byte	0x63
 2676 0143 D2000000 		.4byte	0xd2
 2677 0147 02       		.byte	0x2
 2678 0148 23       		.byte	0x23
 2679 0149 08       		.uleb128 0x8
 2680 014a 06       		.uleb128 0x6
 2681 014b 20000000 		.4byte	.LASF27
 2682 014f 06       		.byte	0x6
 2683 0150 64       		.byte	0x64
 2684 0151 1A030000 		.4byte	0x31a
 2685 0155 02       		.byte	0x2
 2686 0156 23       		.byte	0x23
 2687 0157 0C       		.uleb128 0xc
 2688 0158 06       		.uleb128 0x6
 2689 0159 38010000 		.4byte	.LASF28
 2690 015d 06       		.byte	0x6
 2691 015e 66       		.byte	0x66
 2692 015f 42020000 		.4byte	0x242
 2693 0163 02       		.byte	0x2
 2694 0164 23       		.byte	0x23
 2695 0165 10       		.uleb128 0x10
 2696 0166 06       		.uleb128 0x6
 2697 0167 29070000 		.4byte	.LASF29
 2698 016b 06       		.byte	0x6
 2699 016c 67       		.byte	0x67
 2700 016d 42020000 		.4byte	0x242
 2701 0171 02       		.byte	0x2
 2702 0172 23       		.byte	0x23
 2703 0173 14       		.uleb128 0x14
 2704 0174 06       		.uleb128 0x6
 2705 0175 180A0000 		.4byte	.LASF30
 2706 0179 06       		.byte	0x6
 2707 017a 6E       		.byte	0x6e
 2708 017b BB040000 		.4byte	0x4bb
 2709 017f 02       		.byte	0x2
 2710 0180 23       		.byte	0x23
 2711 0181 18       		.uleb128 0x18
 2712 0182 06       		.uleb128 0x6
 2713 0183 CE090000 		.4byte	.LASF31
 2714 0187 06       		.byte	0x6
 2715 0188 74       		.byte	0x74
 2716 0189 CD040000 		.4byte	0x4cd
ARM GAS  C:\Users\z80\AppData\Local\Temp\ccyKjVO9.s 			page 50


 2717 018d 02       		.byte	0x2
 2718 018e 23       		.byte	0x23
 2719 018f 1C       		.uleb128 0x1c
 2720 0190 06       		.uleb128 0x6
 2721 0191 500A0000 		.4byte	.LASF32
 2722 0195 06       		.byte	0x6
 2723 0196 79       		.byte	0x79
 2724 0197 C7000000 		.4byte	0xc7
 2725 019b 02       		.byte	0x2
 2726 019c 23       		.byte	0x23
 2727 019d 20       		.uleb128 0x20
 2728 019e 06       		.uleb128 0x6
 2729 019f E8050000 		.4byte	.LASF33
 2730 01a3 06       		.byte	0x6
 2731 01a4 7D       		.byte	0x7d
 2732 01a5 BC000000 		.4byte	0xbc
 2733 01a9 02       		.byte	0x2
 2734 01aa 23       		.byte	0x23
 2735 01ab 21       		.uleb128 0x21
 2736 01ac 06       		.uleb128 0x6
 2737 01ad 58060000 		.4byte	.LASF34
 2738 01b1 06       		.byte	0x6
 2739 01b2 89       		.byte	0x89
 2740 01b3 C3030000 		.4byte	0x3c3
 2741 01b7 02       		.byte	0x2
 2742 01b8 23       		.byte	0x23
 2743 01b9 24       		.uleb128 0x24
 2744 01ba 07       		.uleb128 0x7
 2745 01bb 705F7500 		.ascii	"p_u\000"
 2746 01bf 06       		.byte	0x6
 2747 01c0 AE       		.byte	0xae
 2748 01c1 86040000 		.4byte	0x486
 2749 01c5 02       		.byte	0x2
 2750 01c6 23       		.byte	0x23
 2751 01c7 28       		.uleb128 0x28
 2752 01c8 06       		.uleb128 0x6
 2753 01c9 CD050000 		.4byte	.LASF35
 2754 01cd 06       		.byte	0x6
 2755 01ce B3       		.byte	0xb3
 2756 01cf 6A020000 		.4byte	0x26a
 2757 01d3 02       		.byte	0x2
 2758 01d4 23       		.byte	0x23
 2759 01d5 2C       		.uleb128 0x2c
 2760 01d6 06       		.uleb128 0x6
 2761 01d7 5B000000 		.4byte	.LASF36
 2762 01db 06       		.byte	0x6
 2763 01dc B9       		.byte	0xb9
 2764 01dd 48020000 		.4byte	0x248
 2765 01e1 02       		.byte	0x2
 2766 01e2 23       		.byte	0x23
 2767 01e3 30       		.uleb128 0x30
 2768 01e4 06       		.uleb128 0x6
 2769 01e5 4A0A0000 		.4byte	.LASF37
 2770 01e9 06       		.byte	0x6
 2771 01ea BD       		.byte	0xbd
 2772 01eb DD000000 		.4byte	0xdd
 2773 01ef 02       		.byte	0x2
ARM GAS  C:\Users\z80\AppData\Local\Temp\ccyKjVO9.s 			page 51


 2774 01f0 23       		.byte	0x23
 2775 01f1 38       		.uleb128 0x38
 2776 01f2 06       		.uleb128 0x6
 2777 01f3 F4030000 		.4byte	.LASF38
 2778 01f7 06       		.byte	0x6
 2779 01f8 C3       		.byte	0xc3
 2780 01f9 E8000000 		.4byte	0xe8
 2781 01fd 02       		.byte	0x2
 2782 01fe 23       		.byte	0x23
 2783 01ff 3C       		.uleb128 0x3c
 2784 0200 06       		.uleb128 0x6
 2785 0201 A6010000 		.4byte	.LASF39
 2786 0205 06       		.byte	0x6
 2787 0206 CA       		.byte	0xca
 2788 0207 D3040000 		.4byte	0x4d3
 2789 020b 02       		.byte	0x2
 2790 020c 23       		.byte	0x23
 2791 020d 40       		.uleb128 0x40
 2792 020e 06       		.uleb128 0x6
 2793 020f 75060000 		.4byte	.LASF40
 2794 0213 06       		.byte	0x6
 2795 0214 CE       		.byte	0xce
 2796 0215 D2000000 		.4byte	0xd2
 2797 0219 02       		.byte	0x2
 2798 021a 23       		.byte	0x23
 2799 021b 44       		.uleb128 0x44
 2800 021c 00       		.byte	0
 2801 021d 08       		.uleb128 0x8
 2802 021e 08       		.byte	0x8
 2803 021f 05       		.byte	0x5
 2804 0220 61       		.byte	0x61
 2805 0221 42020000 		.4byte	0x242
 2806 0225 06       		.uleb128 0x6
 2807 0226 49010000 		.4byte	.LASF24
 2808 022a 05       		.byte	0x5
 2809 022b 62       		.byte	0x62
 2810 022c 42020000 		.4byte	0x242
 2811 0230 02       		.byte	0x2
 2812 0231 23       		.byte	0x23
 2813 0232 00       		.uleb128 0
 2814 0233 06       		.uleb128 0x6
 2815 0234 8A010000 		.4byte	.LASF25
 2816 0238 05       		.byte	0x5
 2817 0239 64       		.byte	0x64
 2818 023a 42020000 		.4byte	0x242
 2819 023e 02       		.byte	0x2
 2820 023f 23       		.byte	0x23
 2821 0240 04       		.uleb128 0x4
 2822 0241 00       		.byte	0
 2823 0242 09       		.uleb128 0x9
 2824 0243 04       		.byte	0x4
 2825 0244 09010000 		.4byte	0x109
 2826 0248 03       		.uleb128 0x3
 2827 0249 4F090000 		.4byte	.LASF41
 2828 024d 05       		.byte	0x5
 2829 024e 66       		.byte	0x66
 2830 024f 1D020000 		.4byte	0x21d
ARM GAS  C:\Users\z80\AppData\Local\Temp\ccyKjVO9.s 			page 52


 2831 0253 08       		.uleb128 0x8
 2832 0254 04       		.byte	0x4
 2833 0255 05       		.byte	0x5
 2834 0256 6B       		.byte	0x6b
 2835 0257 6A020000 		.4byte	0x26a
 2836 025b 06       		.uleb128 0x6
 2837 025c 49010000 		.4byte	.LASF24
 2838 0260 05       		.byte	0x5
 2839 0261 6D       		.byte	0x6d
 2840 0262 42020000 		.4byte	0x242
 2841 0266 02       		.byte	0x2
 2842 0267 23       		.byte	0x23
 2843 0268 00       		.uleb128 0
 2844 0269 00       		.byte	0
 2845 026a 03       		.uleb128 0x3
 2846 026b 42060000 		.4byte	.LASF42
 2847 026f 05       		.byte	0x5
 2848 0270 70       		.byte	0x70
 2849 0271 53020000 		.4byte	0x253
 2850 0275 03       		.uleb128 0x3
 2851 0276 B6010000 		.4byte	.LASF43
 2852 027a 07       		.byte	0x7
 2853 027b D7       		.byte	0xd7
 2854 027c 80020000 		.4byte	0x280
 2855 0280 0A       		.uleb128 0xa
 2856 0281 04       		.byte	0x4
 2857 0282 03       		.uleb128 0x3
 2858 0283 42030000 		.4byte	.LASF44
 2859 0287 07       		.byte	0x7
 2860 0288 DD       		.byte	0xdd
 2861 0289 9F000000 		.4byte	0x9f
 2862 028d 05       		.uleb128 0x5
 2863 028e ED030000 		.4byte	.LASF45
 2864 0292 24       		.byte	0x24
 2865 0293 07       		.byte	0x7
 2866 0294 FE       		.byte	0xfe
 2867 0295 1A030000 		.4byte	0x31a
 2868 0299 0B       		.uleb128 0xb
 2869 029a 723400   		.ascii	"r4\000"
 2870 029d 07       		.byte	0x7
 2871 029e 1101     		.2byte	0x111
 2872 02a0 75020000 		.4byte	0x275
 2873 02a4 02       		.byte	0x2
 2874 02a5 23       		.byte	0x23
 2875 02a6 00       		.uleb128 0
 2876 02a7 0B       		.uleb128 0xb
 2877 02a8 723500   		.ascii	"r5\000"
 2878 02ab 07       		.byte	0x7
 2879 02ac 1201     		.2byte	0x112
 2880 02ae 75020000 		.4byte	0x275
 2881 02b2 02       		.byte	0x2
 2882 02b3 23       		.byte	0x23
 2883 02b4 04       		.uleb128 0x4
 2884 02b5 0B       		.uleb128 0xb
 2885 02b6 723600   		.ascii	"r6\000"
 2886 02b9 07       		.byte	0x7
 2887 02ba 1301     		.2byte	0x113
ARM GAS  C:\Users\z80\AppData\Local\Temp\ccyKjVO9.s 			page 53


 2888 02bc 75020000 		.4byte	0x275
 2889 02c0 02       		.byte	0x2
 2890 02c1 23       		.byte	0x23
 2891 02c2 08       		.uleb128 0x8
 2892 02c3 0B       		.uleb128 0xb
 2893 02c4 723700   		.ascii	"r7\000"
 2894 02c7 07       		.byte	0x7
 2895 02c8 1401     		.2byte	0x114
 2896 02ca 75020000 		.4byte	0x275
 2897 02ce 02       		.byte	0x2
 2898 02cf 23       		.byte	0x23
 2899 02d0 0C       		.uleb128 0xc
 2900 02d1 0B       		.uleb128 0xb
 2901 02d2 723800   		.ascii	"r8\000"
 2902 02d5 07       		.byte	0x7
 2903 02d6 1501     		.2byte	0x115
 2904 02d8 75020000 		.4byte	0x275
 2905 02dc 02       		.byte	0x2
 2906 02dd 23       		.byte	0x23
 2907 02de 10       		.uleb128 0x10
 2908 02df 0B       		.uleb128 0xb
 2909 02e0 723900   		.ascii	"r9\000"
 2910 02e3 07       		.byte	0x7
 2911 02e4 1601     		.2byte	0x116
 2912 02e6 75020000 		.4byte	0x275
 2913 02ea 02       		.byte	0x2
 2914 02eb 23       		.byte	0x23
 2915 02ec 14       		.uleb128 0x14
 2916 02ed 0B       		.uleb128 0xb
 2917 02ee 72313000 		.ascii	"r10\000"
 2918 02f2 07       		.byte	0x7
 2919 02f3 1701     		.2byte	0x117
 2920 02f5 75020000 		.4byte	0x275
 2921 02f9 02       		.byte	0x2
 2922 02fa 23       		.byte	0x23
 2923 02fb 18       		.uleb128 0x18
 2924 02fc 0B       		.uleb128 0xb
 2925 02fd 72313100 		.ascii	"r11\000"
 2926 0301 07       		.byte	0x7
 2927 0302 1801     		.2byte	0x118
 2928 0304 75020000 		.4byte	0x275
 2929 0308 02       		.byte	0x2
 2930 0309 23       		.byte	0x23
 2931 030a 1C       		.uleb128 0x1c
 2932 030b 0B       		.uleb128 0xb
 2933 030c 6C7200   		.ascii	"lr\000"
 2934 030f 07       		.byte	0x7
 2935 0310 1901     		.2byte	0x119
 2936 0312 75020000 		.4byte	0x275
 2937 0316 02       		.byte	0x2
 2938 0317 23       		.byte	0x23
 2939 0318 20       		.uleb128 0x20
 2940 0319 00       		.byte	0
 2941 031a 0C       		.uleb128 0xc
 2942 031b 2A020000 		.4byte	.LASF46
 2943 031f 04       		.byte	0x4
 2944 0320 07       		.byte	0x7
ARM GAS  C:\Users\z80\AppData\Local\Temp\ccyKjVO9.s 			page 54


 2945 0321 2301     		.2byte	0x123
 2946 0323 37030000 		.4byte	0x337
 2947 0327 0B       		.uleb128 0xb
 2948 0328 72313300 		.ascii	"r13\000"
 2949 032c 07       		.byte	0x7
 2950 032d 2401     		.2byte	0x124
 2951 032f 37030000 		.4byte	0x337
 2952 0333 02       		.byte	0x2
 2953 0334 23       		.byte	0x23
 2954 0335 00       		.uleb128 0
 2955 0336 00       		.byte	0
 2956 0337 09       		.uleb128 0x9
 2957 0338 04       		.byte	0x4
 2958 0339 8D020000 		.4byte	0x28d
 2959 033d 0D       		.uleb128 0xd
 2960 033e 86000000 		.4byte	0x86
 2961 0342 03       		.uleb128 0x3
 2962 0343 87000000 		.4byte	.LASF47
 2963 0347 08       		.byte	0x8
 2964 0348 53       		.byte	0x53
 2965 0349 4D030000 		.4byte	0x34d
 2966 034d 09       		.uleb128 0x9
 2967 034e 04       		.byte	0x4
 2968 034f 53030000 		.4byte	0x353
 2969 0353 0E       		.uleb128 0xe
 2970 0354 01       		.byte	0x1
 2971 0355 5F030000 		.4byte	0x35f
 2972 0359 0F       		.uleb128 0xf
 2973 035a 80020000 		.4byte	0x280
 2974 035e 00       		.byte	0
 2975 035f 03       		.uleb128 0x3
 2976 0360 27090000 		.4byte	.LASF48
 2977 0364 08       		.byte	0x8
 2978 0365 58       		.byte	0x58
 2979 0366 6A030000 		.4byte	0x36a
 2980 036a 05       		.uleb128 0x5
 2981 036b 27090000 		.4byte	.LASF48
 2982 036f 14       		.byte	0x14
 2983 0370 08       		.byte	0x8
 2984 0371 5F       		.byte	0x5f
 2985 0372 BD030000 		.4byte	0x3bd
 2986 0376 06       		.uleb128 0x6
 2987 0377 66050000 		.4byte	.LASF49
 2988 037b 08       		.byte	0x8
 2989 037c 60       		.byte	0x60
 2990 037d BD030000 		.4byte	0x3bd
 2991 0381 02       		.byte	0x2
 2992 0382 23       		.byte	0x23
 2993 0383 00       		.uleb128 0
 2994 0384 06       		.uleb128 0x6
 2995 0385 90020000 		.4byte	.LASF50
 2996 0389 08       		.byte	0x8
 2997 038a 62       		.byte	0x62
 2998 038b BD030000 		.4byte	0x3bd
 2999 038f 02       		.byte	0x2
 3000 0390 23       		.byte	0x23
 3001 0391 04       		.uleb128 0x4
ARM GAS  C:\Users\z80\AppData\Local\Temp\ccyKjVO9.s 			page 55


 3002 0392 06       		.uleb128 0x6
 3003 0393 1F0A0000 		.4byte	.LASF51
 3004 0397 08       		.byte	0x8
 3005 0398 64       		.byte	0x64
 3006 0399 F3000000 		.4byte	0xf3
 3007 039d 02       		.byte	0x2
 3008 039e 23       		.byte	0x23
 3009 039f 08       		.uleb128 0x8
 3010 03a0 06       		.uleb128 0x6
 3011 03a1 C7030000 		.4byte	.LASF52
 3012 03a5 08       		.byte	0x8
 3013 03a6 65       		.byte	0x65
 3014 03a7 42030000 		.4byte	0x342
 3015 03ab 02       		.byte	0x2
 3016 03ac 23       		.byte	0x23
 3017 03ad 0C       		.uleb128 0xc
 3018 03ae 06       		.uleb128 0x6
 3019 03af 05010000 		.4byte	.LASF53
 3020 03b3 08       		.byte	0x8
 3021 03b4 67       		.byte	0x67
 3022 03b5 80020000 		.4byte	0x280
 3023 03b9 02       		.byte	0x2
 3024 03ba 23       		.byte	0x23
 3025 03bb 10       		.uleb128 0x10
 3026 03bc 00       		.byte	0
 3027 03bd 09       		.uleb128 0x9
 3028 03be 04       		.byte	0x4
 3029 03bf 5F030000 		.4byte	0x35f
 3030 03c3 0D       		.uleb128 0xd
 3031 03c4 F3000000 		.4byte	0xf3
 3032 03c8 08       		.uleb128 0x8
 3033 03c9 20       		.byte	0x20
 3034 03ca 09       		.byte	0x9
 3035 03cb 5E       		.byte	0x5e
 3036 03cc 33040000 		.4byte	0x433
 3037 03d0 06       		.uleb128 0x6
 3038 03d1 B8070000 		.4byte	.LASF54
 3039 03d5 09       		.byte	0x9
 3040 03d6 5F       		.byte	0x5f
 3041 03d7 48020000 		.4byte	0x248
 3042 03db 02       		.byte	0x2
 3043 03dc 23       		.byte	0x23
 3044 03dd 00       		.uleb128 0
 3045 03de 06       		.uleb128 0x6
 3046 03df 7F080000 		.4byte	.LASF55
 3047 03e3 09       		.byte	0x9
 3048 03e4 60       		.byte	0x60
 3049 03e5 D2000000 		.4byte	0xd2
 3050 03e9 02       		.byte	0x2
 3051 03ea 23       		.byte	0x23
 3052 03eb 08       		.uleb128 0x8
 3053 03ec 06       		.uleb128 0x6
 3054 03ed 66000000 		.4byte	.LASF56
 3055 03f1 09       		.byte	0x9
 3056 03f2 62       		.byte	0x62
 3057 03f3 1A030000 		.4byte	0x31a
 3058 03f7 02       		.byte	0x2
ARM GAS  C:\Users\z80\AppData\Local\Temp\ccyKjVO9.s 			page 56


 3059 03f8 23       		.byte	0x23
 3060 03f9 0C       		.uleb128 0xc
 3061 03fa 06       		.uleb128 0x6
 3062 03fb A5020000 		.4byte	.LASF57
 3063 03ff 09       		.byte	0x9
 3064 0400 65       		.byte	0x65
 3065 0401 42020000 		.4byte	0x242
 3066 0405 02       		.byte	0x2
 3067 0406 23       		.byte	0x23
 3068 0407 10       		.uleb128 0x10
 3069 0408 06       		.uleb128 0x6
 3070 0409 04080000 		.4byte	.LASF58
 3071 040d 09       		.byte	0x9
 3072 040e 66       		.byte	0x66
 3073 040f 42020000 		.4byte	0x242
 3074 0413 02       		.byte	0x2
 3075 0414 23       		.byte	0x23
 3076 0415 14       		.uleb128 0x14
 3077 0416 06       		.uleb128 0x6
 3078 0417 6B060000 		.4byte	.LASF59
 3079 041b 09       		.byte	0x9
 3080 041c 6A       		.byte	0x6a
 3081 041d FE000000 		.4byte	0xfe
 3082 0421 02       		.byte	0x2
 3083 0422 23       		.byte	0x23
 3084 0423 18       		.uleb128 0x18
 3085 0424 06       		.uleb128 0x6
 3086 0425 6F070000 		.4byte	.LASF60
 3087 0429 09       		.byte	0x9
 3088 042a 6C       		.byte	0x6c
 3089 042b 42020000 		.4byte	0x242
 3090 042f 02       		.byte	0x2
 3091 0430 23       		.byte	0x23
 3092 0431 1C       		.uleb128 0x1c
 3093 0432 00       		.byte	0
 3094 0433 03       		.uleb128 0x3
 3095 0434 050A0000 		.4byte	.LASF61
 3096 0438 09       		.byte	0x9
 3097 0439 6E       		.byte	0x6e
 3098 043a C8030000 		.4byte	0x3c8
 3099 043e 05       		.uleb128 0x5
 3100 043f 3F050000 		.4byte	.LASF62
 3101 0443 10       		.byte	0x10
 3102 0444 0A       		.byte	0xa
 3103 0445 2C       		.byte	0x2c
 3104 0446 75040000 		.4byte	0x475
 3105 044a 06       		.uleb128 0x6
 3106 044b 5E050000 		.4byte	.LASF63
 3107 044f 0A       		.byte	0xa
 3108 0450 2D       		.byte	0x2d
 3109 0451 48020000 		.4byte	0x248
 3110 0455 02       		.byte	0x2
 3111 0456 23       		.byte	0x23
 3112 0457 00       		.uleb128 0
 3113 0458 06       		.uleb128 0x6
 3114 0459 FD000000 		.4byte	.LASF64
 3115 045d 0A       		.byte	0xa
ARM GAS  C:\Users\z80\AppData\Local\Temp\ccyKjVO9.s 			page 57


 3116 045e 2F       		.byte	0x2f
 3117 045f 42020000 		.4byte	0x242
 3118 0463 02       		.byte	0x2
 3119 0464 23       		.byte	0x23
 3120 0465 08       		.uleb128 0x8
 3121 0466 06       		.uleb128 0x6
 3122 0467 3A0A0000 		.4byte	.LASF65
 3123 046b 0A       		.byte	0xa
 3124 046c 31       		.byte	0x31
 3125 046d 75040000 		.4byte	0x475
 3126 0471 02       		.byte	0x2
 3127 0472 23       		.byte	0x23
 3128 0473 0C       		.uleb128 0xc
 3129 0474 00       		.byte	0
 3130 0475 09       		.uleb128 0x9
 3131 0476 04       		.byte	0x4
 3132 0477 3E040000 		.4byte	0x43e
 3133 047b 03       		.uleb128 0x3
 3134 047c 3F050000 		.4byte	.LASF62
 3135 0480 0A       		.byte	0xa
 3136 0481 33       		.byte	0x33
 3137 0482 3E040000 		.4byte	0x43e
 3138 0486 10       		.uleb128 0x10
 3139 0487 04       		.byte	0x4
 3140 0488 06       		.byte	0x6
 3141 0489 90       		.byte	0x90
 3142 048a BB040000 		.4byte	0x4bb
 3143 048e 11       		.uleb128 0x11
 3144 048f 86090000 		.4byte	.LASF66
 3145 0493 06       		.byte	0x6
 3146 0494 97       		.byte	0x97
 3147 0495 DD000000 		.4byte	0xdd
 3148 0499 11       		.uleb128 0x11
 3149 049a 0C010000 		.4byte	.LASF67
 3150 049e 06       		.byte	0x6
 3151 049f 9E       		.byte	0x9e
 3152 04a0 DD000000 		.4byte	0xdd
 3153 04a4 11       		.uleb128 0x11
 3154 04a5 2E030000 		.4byte	.LASF68
 3155 04a9 06       		.byte	0x6
 3156 04aa A5       		.byte	0xa5
 3157 04ab 80020000 		.4byte	0x280
 3158 04af 11       		.uleb128 0x11
 3159 04b0 0F020000 		.4byte	.LASF69
 3160 04b4 06       		.byte	0x6
 3161 04b5 AC       		.byte	0xac
 3162 04b6 E8000000 		.4byte	0xe8
 3163 04ba 00       		.byte	0
 3164 04bb 09       		.uleb128 0x9
 3165 04bc 04       		.byte	0x4
 3166 04bd C1040000 		.4byte	0x4c1
 3167 04c1 12       		.uleb128 0x12
 3168 04c2 C6040000 		.4byte	0x4c6
 3169 04c6 04       		.uleb128 0x4
 3170 04c7 01       		.byte	0x1
 3171 04c8 08       		.byte	0x8
 3172 04c9 15030000 		.4byte	.LASF70
ARM GAS  C:\Users\z80\AppData\Local\Temp\ccyKjVO9.s 			page 58


 3173 04cd 09       		.uleb128 0x9
 3174 04ce 04       		.byte	0x4
 3175 04cf 82020000 		.4byte	0x282
 3176 04d3 09       		.uleb128 0x9
 3177 04d4 04       		.byte	0x4
 3178 04d5 7B040000 		.4byte	0x47b
 3179 04d9 09       		.uleb128 0x9
 3180 04da 04       		.byte	0x4
 3181 04db 49000000 		.4byte	0x49
 3182 04df 09       		.uleb128 0x9
 3183 04e0 04       		.byte	0x4
 3184 04e1 E5040000 		.4byte	0x4e5
 3185 04e5 12       		.uleb128 0x12
 3186 04e6 49000000 		.4byte	0x49
 3187 04ea 13       		.uleb128 0x13
 3188 04eb 66060000 		.4byte	.LASF231
 3189 04ef 01       		.byte	0x1
 3190 04f0 0B       		.byte	0xb
 3191 04f1 A9       		.byte	0xa9
 3192 04f2 29060000 		.4byte	0x629
 3193 04f6 14       		.uleb128 0x14
 3194 04f7 3C040000 		.4byte	.LASF71
 3195 04fb 72       		.sleb128 -14
 3196 04fc 14       		.uleb128 0x14
 3197 04fd 6C040000 		.4byte	.LASF72
 3198 0501 74       		.sleb128 -12
 3199 0502 14       		.uleb128 0x14
 3200 0503 20050000 		.4byte	.LASF73
 3201 0507 75       		.sleb128 -11
 3202 0508 14       		.uleb128 0x14
 3203 0509 E6020000 		.4byte	.LASF74
 3204 050d 76       		.sleb128 -10
 3205 050e 14       		.uleb128 0x14
 3206 050f 78050000 		.4byte	.LASF75
 3207 0513 7B       		.sleb128 -5
 3208 0514 14       		.uleb128 0x14
 3209 0515 F2070000 		.4byte	.LASF76
 3210 0519 7C       		.sleb128 -4
 3211 051a 14       		.uleb128 0x14
 3212 051b C2090000 		.4byte	.LASF77
 3213 051f 7E       		.sleb128 -2
 3214 0520 14       		.uleb128 0x14
 3215 0521 E5010000 		.4byte	.LASF78
 3216 0525 7F       		.sleb128 -1
 3217 0526 14       		.uleb128 0x14
 3218 0527 50040000 		.4byte	.LASF79
 3219 052b 00       		.sleb128 0
 3220 052c 14       		.uleb128 0x14
 3221 052d C0070000 		.4byte	.LASF80
 3222 0531 01       		.sleb128 1
 3223 0532 14       		.uleb128 0x14
 3224 0533 91010000 		.4byte	.LASF81
 3225 0537 02       		.sleb128 2
 3226 0538 14       		.uleb128 0x14
 3227 0539 410A0000 		.4byte	.LASF82
 3228 053d 03       		.sleb128 3
 3229 053e 14       		.uleb128 0x14
ARM GAS  C:\Users\z80\AppData\Local\Temp\ccyKjVO9.s 			page 59


 3230 053f B9000000 		.4byte	.LASF83
 3231 0543 04       		.sleb128 4
 3232 0544 14       		.uleb128 0x14
 3233 0545 6D080000 		.4byte	.LASF84
 3234 0549 05       		.sleb128 5
 3235 054a 14       		.uleb128 0x14
 3236 054b CF070000 		.4byte	.LASF85
 3237 054f 06       		.sleb128 6
 3238 0550 14       		.uleb128 0x14
 3239 0551 27040000 		.4byte	.LASF86
 3240 0555 07       		.sleb128 7
 3241 0556 14       		.uleb128 0x14
 3242 0557 79070000 		.4byte	.LASF87
 3243 055b 08       		.sleb128 8
 3244 055c 14       		.uleb128 0x14
 3245 055d B7090000 		.4byte	.LASF88
 3246 0561 09       		.sleb128 9
 3247 0562 14       		.uleb128 0x14
 3248 0563 8D090000 		.4byte	.LASF89
 3249 0567 0A       		.sleb128 10
 3250 0568 14       		.uleb128 0x14
 3251 0569 AD020000 		.4byte	.LASF90
 3252 056d 0B       		.sleb128 11
 3253 056e 14       		.uleb128 0x14
 3254 056f C2080000 		.4byte	.LASF91
 3255 0573 0C       		.sleb128 12
 3256 0574 14       		.uleb128 0x14
 3257 0575 28080000 		.4byte	.LASF92
 3258 0579 0D       		.sleb128 13
 3259 057a 14       		.uleb128 0x14
 3260 057b 82040000 		.4byte	.LASF93
 3261 057f 0E       		.sleb128 14
 3262 0580 14       		.uleb128 0x14
 3263 0581 74000000 		.4byte	.LASF94
 3264 0585 0F       		.sleb128 15
 3265 0586 14       		.uleb128 0x14
 3266 0587 270A0000 		.4byte	.LASF95
 3267 058b 10       		.sleb128 16
 3268 058c 14       		.uleb128 0x14
 3269 058d 2F060000 		.4byte	.LASF96
 3270 0591 11       		.sleb128 17
 3271 0592 14       		.uleb128 0x14
 3272 0593 98080000 		.4byte	.LASF97
 3273 0597 12       		.sleb128 18
 3274 0598 14       		.uleb128 0x14
 3275 0599 F6020000 		.4byte	.LASF98
 3276 059d 13       		.sleb128 19
 3277 059e 14       		.uleb128 0x14
 3278 059f 13080000 		.4byte	.LASF99
 3279 05a3 14       		.sleb128 20
 3280 05a4 14       		.uleb128 0x14
 3281 05a5 41090000 		.4byte	.LASF100
 3282 05a9 15       		.sleb128 21
 3283 05aa 14       		.uleb128 0x14
 3284 05ab 9D040000 		.4byte	.LASF101
 3285 05af 16       		.sleb128 22
 3286 05b0 14       		.uleb128 0x14
ARM GAS  C:\Users\z80\AppData\Local\Temp\ccyKjVO9.s 			page 60


 3287 05b1 79090000 		.4byte	.LASF102
 3288 05b5 17       		.sleb128 23
 3289 05b6 14       		.uleb128 0x14
 3290 05b7 CE020000 		.4byte	.LASF103
 3291 05bb 18       		.sleb128 24
 3292 05bc 14       		.uleb128 0x14
 3293 05bd 34090000 		.4byte	.LASF104
 3294 05c1 19       		.sleb128 25
 3295 05c2 14       		.uleb128 0x14
 3296 05c3 AF060000 		.4byte	.LASF105
 3297 05c7 1A       		.sleb128 26
 3298 05c8 14       		.uleb128 0x14
 3299 05c9 1A040000 		.4byte	.LASF106
 3300 05cd 1B       		.sleb128 27
 3301 05ce 14       		.uleb128 0x14
 3302 05cf D7000000 		.4byte	.LASF107
 3303 05d3 1C       		.sleb128 28
 3304 05d4 14       		.uleb128 0x14
 3305 05d5 59070000 		.4byte	.LASF108
 3306 05d9 1D       		.sleb128 29
 3307 05da 14       		.uleb128 0x14
 3308 05db 74030000 		.4byte	.LASF109
 3309 05df 1E       		.sleb128 30
 3310 05e0 14       		.uleb128 0x14
 3311 05e1 B4030000 		.4byte	.LASF110
 3312 05e5 1F       		.sleb128 31
 3313 05e6 14       		.uleb128 0x14
 3314 05e7 98020000 		.4byte	.LASF111
 3315 05eb 20       		.sleb128 32
 3316 05ec 14       		.uleb128 0x14
 3317 05ed 15060000 		.4byte	.LASF112
 3318 05f1 21       		.sleb128 33
 3319 05f2 14       		.uleb128 0x14
 3320 05f3 13050000 		.4byte	.LASF113
 3321 05f7 22       		.sleb128 34
 3322 05f8 14       		.uleb128 0x14
 3323 05f9 6E050000 		.4byte	.LASF114
 3324 05fd 23       		.sleb128 35
 3325 05fe 14       		.uleb128 0x14
 3326 05ff 1F010000 		.4byte	.LASF115
 3327 0603 24       		.sleb128 36
 3328 0604 14       		.uleb128 0x14
 3329 0605 63070000 		.4byte	.LASF116
 3330 0609 25       		.sleb128 37
 3331 060a 14       		.uleb128 0x14
 3332 060b 8F030000 		.4byte	.LASF117
 3333 060f 26       		.sleb128 38
 3334 0610 14       		.uleb128 0x14
 3335 0611 F2010000 		.4byte	.LASF118
 3336 0615 27       		.sleb128 39
 3337 0616 14       		.uleb128 0x14
 3338 0617 03070000 		.4byte	.LASF119
 3339 061b 28       		.sleb128 40
 3340 061c 14       		.uleb128 0x14
 3341 061d E4060000 		.4byte	.LASF120
 3342 0621 29       		.sleb128 41
 3343 0622 14       		.uleb128 0x14
ARM GAS  C:\Users\z80\AppData\Local\Temp\ccyKjVO9.s 			page 61


 3344 0623 7E030000 		.4byte	.LASF121
 3345 0627 2A       		.sleb128 42
 3346 0628 00       		.byte	0
 3347 0629 0D       		.uleb128 0xd
 3348 062a 62000000 		.4byte	0x62
 3349 062e 0D       		.uleb128 0xd
 3350 062f 74000000 		.4byte	0x74
 3351 0633 15       		.uleb128 0x15
 3352 0634 10       		.byte	0x10
 3353 0635 0B       		.byte	0xb
 3354 0636 2D03     		.2byte	0x32d
 3355 0638 79060000 		.4byte	0x679
 3356 063c 0B       		.uleb128 0xb
 3357 063d 43435200 		.ascii	"CCR\000"
 3358 0641 0B       		.byte	0xb
 3359 0642 2F03     		.2byte	0x32f
 3360 0644 3D030000 		.4byte	0x33d
 3361 0648 02       		.byte	0x2
 3362 0649 23       		.byte	0x23
 3363 064a 00       		.uleb128 0
 3364 064b 16       		.uleb128 0x16
 3365 064c D1000000 		.4byte	.LASF122
 3366 0650 0B       		.byte	0xb
 3367 0651 3003     		.2byte	0x330
 3368 0653 3D030000 		.4byte	0x33d
 3369 0657 02       		.byte	0x2
 3370 0658 23       		.byte	0x23
 3371 0659 04       		.uleb128 0x4
 3372 065a 16       		.uleb128 0x16
 3373 065b FE010000 		.4byte	.LASF123
 3374 065f 0B       		.byte	0xb
 3375 0660 3103     		.2byte	0x331
 3376 0662 3D030000 		.4byte	0x33d
 3377 0666 02       		.byte	0x2
 3378 0667 23       		.byte	0x23
 3379 0668 08       		.uleb128 0x8
 3380 0669 16       		.uleb128 0x16
 3381 066a 2A060000 		.4byte	.LASF124
 3382 066e 0B       		.byte	0xb
 3383 066f 3203     		.2byte	0x332
 3384 0671 3D030000 		.4byte	0x33d
 3385 0675 02       		.byte	0x2
 3386 0676 23       		.byte	0x23
 3387 0677 0C       		.uleb128 0xc
 3388 0678 00       		.byte	0
 3389 0679 17       		.uleb128 0x17
 3390 067a C1060000 		.4byte	.LASF125
 3391 067e 0B       		.byte	0xb
 3392 067f 3303     		.2byte	0x333
 3393 0681 33060000 		.4byte	0x633
 3394 0685 15       		.uleb128 0x15
 3395 0686 24       		.byte	0x24
 3396 0687 0B       		.byte	0xb
 3397 0688 1304     		.2byte	0x413
 3398 068a 9C070000 		.4byte	0x79c
 3399 068e 0B       		.uleb128 0xb
 3400 068f 43523100 		.ascii	"CR1\000"
ARM GAS  C:\Users\z80\AppData\Local\Temp\ccyKjVO9.s 			page 62


 3401 0693 0B       		.byte	0xb
 3402 0694 1504     		.2byte	0x415
 3403 0696 29060000 		.4byte	0x629
 3404 069a 02       		.byte	0x2
 3405 069b 23       		.byte	0x23
 3406 069c 00       		.uleb128 0
 3407 069d 16       		.uleb128 0x16
 3408 069e 32020000 		.4byte	.LASF126
 3409 06a2 0B       		.byte	0xb
 3410 06a3 1604     		.2byte	0x416
 3411 06a5 62000000 		.4byte	0x62
 3412 06a9 02       		.byte	0x2
 3413 06aa 23       		.byte	0x23
 3414 06ab 02       		.uleb128 0x2
 3415 06ac 0B       		.uleb128 0xb
 3416 06ad 43523200 		.ascii	"CR2\000"
 3417 06b1 0B       		.byte	0xb
 3418 06b2 1704     		.2byte	0x417
 3419 06b4 29060000 		.4byte	0x629
 3420 06b8 02       		.byte	0x2
 3421 06b9 23       		.byte	0x23
 3422 06ba 04       		.uleb128 0x4
 3423 06bb 16       		.uleb128 0x16
 3424 06bc 3C020000 		.4byte	.LASF127
 3425 06c0 0B       		.byte	0xb
 3426 06c1 1804     		.2byte	0x418
 3427 06c3 62000000 		.4byte	0x62
 3428 06c7 02       		.byte	0x2
 3429 06c8 23       		.byte	0x23
 3430 06c9 06       		.uleb128 0x6
 3431 06ca 16       		.uleb128 0x16
 3432 06cb E8070000 		.4byte	.LASF128
 3433 06cf 0B       		.byte	0xb
 3434 06d0 1904     		.2byte	0x419
 3435 06d2 29060000 		.4byte	0x629
 3436 06d6 02       		.byte	0x2
 3437 06d7 23       		.byte	0x23
 3438 06d8 08       		.uleb128 0x8
 3439 06d9 16       		.uleb128 0x16
 3440 06da DC020000 		.4byte	.LASF129
 3441 06de 0B       		.byte	0xb
 3442 06df 1A04     		.2byte	0x41a
 3443 06e1 62000000 		.4byte	0x62
 3444 06e5 02       		.byte	0x2
 3445 06e6 23       		.byte	0x23
 3446 06e7 0A       		.uleb128 0xa
 3447 06e8 16       		.uleb128 0x16
 3448 06e9 ED070000 		.4byte	.LASF130
 3449 06ed 0B       		.byte	0xb
 3450 06ee 1B04     		.2byte	0x41b
 3451 06f0 29060000 		.4byte	0x629
 3452 06f4 02       		.byte	0x2
 3453 06f5 23       		.byte	0x23
 3454 06f6 0C       		.uleb128 0xc
 3455 06f7 16       		.uleb128 0x16
 3456 06f8 54020000 		.4byte	.LASF131
 3457 06fc 0B       		.byte	0xb
ARM GAS  C:\Users\z80\AppData\Local\Temp\ccyKjVO9.s 			page 63


 3458 06fd 1C04     		.2byte	0x41c
 3459 06ff 62000000 		.4byte	0x62
 3460 0703 02       		.byte	0x2
 3461 0704 23       		.byte	0x23
 3462 0705 0E       		.uleb128 0xe
 3463 0706 0B       		.uleb128 0xb
 3464 0707 445200   		.ascii	"DR\000"
 3465 070a 0B       		.byte	0xb
 3466 070b 1D04     		.2byte	0x41d
 3467 070d 29060000 		.4byte	0x629
 3468 0711 02       		.byte	0x2
 3469 0712 23       		.byte	0x23
 3470 0713 10       		.uleb128 0x10
 3471 0714 16       		.uleb128 0x16
 3472 0715 5E020000 		.4byte	.LASF132
 3473 0719 0B       		.byte	0xb
 3474 071a 1E04     		.2byte	0x41e
 3475 071c 62000000 		.4byte	0x62
 3476 0720 02       		.byte	0x2
 3477 0721 23       		.byte	0x23
 3478 0722 12       		.uleb128 0x12
 3479 0723 0B       		.uleb128 0xb
 3480 0724 53523100 		.ascii	"SR1\000"
 3481 0728 0B       		.byte	0xb
 3482 0729 1F04     		.2byte	0x41f
 3483 072b 29060000 		.4byte	0x629
 3484 072f 02       		.byte	0x2
 3485 0730 23       		.byte	0x23
 3486 0731 14       		.uleb128 0x14
 3487 0732 16       		.uleb128 0x16
 3488 0733 68020000 		.4byte	.LASF133
 3489 0737 0B       		.byte	0xb
 3490 0738 2004     		.2byte	0x420
 3491 073a 62000000 		.4byte	0x62
 3492 073e 02       		.byte	0x2
 3493 073f 23       		.byte	0x23
 3494 0740 16       		.uleb128 0x16
 3495 0741 0B       		.uleb128 0xb
 3496 0742 53523200 		.ascii	"SR2\000"
 3497 0746 0B       		.byte	0xb
 3498 0747 2104     		.2byte	0x421
 3499 0749 29060000 		.4byte	0x629
 3500 074d 02       		.byte	0x2
 3501 074e 23       		.byte	0x23
 3502 074f 18       		.uleb128 0x18
 3503 0750 16       		.uleb128 0x16
 3504 0751 72020000 		.4byte	.LASF134
 3505 0755 0B       		.byte	0xb
 3506 0756 2204     		.2byte	0x422
 3507 0758 62000000 		.4byte	0x62
 3508 075c 02       		.byte	0x2
 3509 075d 23       		.byte	0x23
 3510 075e 1A       		.uleb128 0x1a
 3511 075f 0B       		.uleb128 0xb
 3512 0760 43435200 		.ascii	"CCR\000"
 3513 0764 0B       		.byte	0xb
 3514 0765 2304     		.2byte	0x423
ARM GAS  C:\Users\z80\AppData\Local\Temp\ccyKjVO9.s 			page 64


 3515 0767 29060000 		.4byte	0x629
 3516 076b 02       		.byte	0x2
 3517 076c 23       		.byte	0x23
 3518 076d 1C       		.uleb128 0x1c
 3519 076e 16       		.uleb128 0x16
 3520 076f 7C020000 		.4byte	.LASF135
 3521 0773 0B       		.byte	0xb
 3522 0774 2404     		.2byte	0x424
 3523 0776 62000000 		.4byte	0x62
 3524 077a 02       		.byte	0x2
 3525 077b 23       		.byte	0x23
 3526 077c 1E       		.uleb128 0x1e
 3527 077d 16       		.uleb128 0x16
 3528 077e BE040000 		.4byte	.LASF136
 3529 0782 0B       		.byte	0xb
 3530 0783 2504     		.2byte	0x425
 3531 0785 29060000 		.4byte	0x629
 3532 0789 02       		.byte	0x2
 3533 078a 23       		.byte	0x23
 3534 078b 20       		.uleb128 0x20
 3535 078c 16       		.uleb128 0x16
 3536 078d 86020000 		.4byte	.LASF137
 3537 0791 0B       		.byte	0xb
 3538 0792 2604     		.2byte	0x426
 3539 0794 62000000 		.4byte	0x62
 3540 0798 02       		.byte	0x2
 3541 0799 23       		.byte	0x23
 3542 079a 22       		.uleb128 0x22
 3543 079b 00       		.byte	0
 3544 079c 17       		.uleb128 0x17
 3545 079d 8B070000 		.4byte	.LASF138
 3546 07a1 0B       		.byte	0xb
 3547 07a2 2704     		.2byte	0x427
 3548 07a4 85060000 		.4byte	0x685
 3549 07a8 15       		.uleb128 0x15
 3550 07a9 28       		.byte	0x28
 3551 07aa 0B       		.byte	0xb
 3552 07ab 4304     		.2byte	0x443
 3553 07ad 47080000 		.4byte	0x847
 3554 07b1 0B       		.uleb128 0xb
 3555 07b2 435200   		.ascii	"CR\000"
 3556 07b5 0B       		.byte	0xb
 3557 07b6 4504     		.2byte	0x445
 3558 07b8 3D030000 		.4byte	0x33d
 3559 07bc 02       		.byte	0x2
 3560 07bd 23       		.byte	0x23
 3561 07be 00       		.uleb128 0
 3562 07bf 16       		.uleb128 0x16
 3563 07c0 15040000 		.4byte	.LASF139
 3564 07c4 0B       		.byte	0xb
 3565 07c5 4604     		.2byte	0x446
 3566 07c7 3D030000 		.4byte	0x33d
 3567 07cb 02       		.byte	0x2
 3568 07cc 23       		.byte	0x23
 3569 07cd 04       		.uleb128 0x4
 3570 07ce 0B       		.uleb128 0xb
 3571 07cf 43495200 		.ascii	"CIR\000"
ARM GAS  C:\Users\z80\AppData\Local\Temp\ccyKjVO9.s 			page 65


 3572 07d3 0B       		.byte	0xb
 3573 07d4 4704     		.2byte	0x447
 3574 07d6 3D030000 		.4byte	0x33d
 3575 07da 02       		.byte	0x2
 3576 07db 23       		.byte	0x23
 3577 07dc 08       		.uleb128 0x8
 3578 07dd 16       		.uleb128 0x16
 3579 07de 84050000 		.4byte	.LASF140
 3580 07e2 0B       		.byte	0xb
 3581 07e3 4804     		.2byte	0x448
 3582 07e5 3D030000 		.4byte	0x33d
 3583 07e9 02       		.byte	0x2
 3584 07ea 23       		.byte	0x23
 3585 07eb 0C       		.uleb128 0xc
 3586 07ec 16       		.uleb128 0x16
 3587 07ed 76080000 		.4byte	.LASF141
 3588 07f1 0B       		.byte	0xb
 3589 07f2 4904     		.2byte	0x449
 3590 07f4 3D030000 		.4byte	0x33d
 3591 07f8 02       		.byte	0x2
 3592 07f9 23       		.byte	0x23
 3593 07fa 10       		.uleb128 0x10
 3594 07fb 16       		.uleb128 0x16
 3595 07fc A4080000 		.4byte	.LASF142
 3596 0800 0B       		.byte	0xb
 3597 0801 4A04     		.2byte	0x44a
 3598 0803 3D030000 		.4byte	0x33d
 3599 0807 02       		.byte	0x2
 3600 0808 23       		.byte	0x23
 3601 0809 14       		.uleb128 0x14
 3602 080a 16       		.uleb128 0x16
 3603 080b BF010000 		.4byte	.LASF143
 3604 080f 0B       		.byte	0xb
 3605 0810 4B04     		.2byte	0x44b
 3606 0812 3D030000 		.4byte	0x33d
 3607 0816 02       		.byte	0x2
 3608 0817 23       		.byte	0x23
 3609 0818 18       		.uleb128 0x18
 3610 0819 16       		.uleb128 0x16
 3611 081a F3060000 		.4byte	.LASF144
 3612 081e 0B       		.byte	0xb
 3613 081f 4C04     		.2byte	0x44c
 3614 0821 3D030000 		.4byte	0x33d
 3615 0825 02       		.byte	0x2
 3616 0826 23       		.byte	0x23
 3617 0827 1C       		.uleb128 0x1c
 3618 0828 16       		.uleb128 0x16
 3619 0829 A9030000 		.4byte	.LASF145
 3620 082d 0B       		.byte	0xb
 3621 082e 4D04     		.2byte	0x44d
 3622 0830 3D030000 		.4byte	0x33d
 3623 0834 02       		.byte	0x2
 3624 0835 23       		.byte	0x23
 3625 0836 20       		.uleb128 0x20
 3626 0837 0B       		.uleb128 0xb
 3627 0838 43535200 		.ascii	"CSR\000"
 3628 083c 0B       		.byte	0xb
ARM GAS  C:\Users\z80\AppData\Local\Temp\ccyKjVO9.s 			page 66


 3629 083d 4E04     		.2byte	0x44e
 3630 083f 3D030000 		.4byte	0x33d
 3631 0843 02       		.byte	0x2
 3632 0844 23       		.byte	0x23
 3633 0845 24       		.uleb128 0x24
 3634 0846 00       		.byte	0
 3635 0847 17       		.uleb128 0x17
 3636 0848 3B080000 		.4byte	.LASF146
 3637 084c 0B       		.byte	0xb
 3638 084d 5904     		.2byte	0x459
 3639 084f A8070000 		.4byte	0x7a8
 3640 0853 08       		.uleb128 0x8
 3641 0854 0C       		.byte	0xc
 3642 0855 0C       		.byte	0xc
 3643 0856 C2       		.byte	0xc2
 3644 0857 A2080000 		.4byte	0x8a2
 3645 085b 06       		.uleb128 0x6
 3646 085c 95040000 		.4byte	.LASF147
 3647 0860 0C       		.byte	0xc
 3648 0861 C3       		.byte	0xc3
 3649 0862 A2080000 		.4byte	0x8a2
 3650 0866 02       		.byte	0x2
 3651 0867 23       		.byte	0x23
 3652 0868 00       		.uleb128 0
 3653 0869 06       		.uleb128 0x6
 3654 086a F2090000 		.4byte	.LASF148
 3655 086e 0C       		.byte	0xc
 3656 086f C4       		.byte	0xc4
 3657 0870 A8080000 		.4byte	0x8a8
 3658 0874 02       		.byte	0x2
 3659 0875 23       		.byte	0x23
 3660 0876 04       		.uleb128 0x4
 3661 0877 06       		.uleb128 0x6
 3662 0878 20030000 		.4byte	.LASF149
 3663 087c 0C       		.byte	0xc
 3664 087d C5       		.byte	0xc5
 3665 087e 49000000 		.4byte	0x49
 3666 0882 02       		.byte	0x2
 3667 0883 23       		.byte	0x23
 3668 0884 08       		.uleb128 0x8
 3669 0885 06       		.uleb128 0x6
 3670 0886 FE050000 		.4byte	.LASF150
 3671 088a 0C       		.byte	0xc
 3672 088b C7       		.byte	0xc7
 3673 088c 49000000 		.4byte	0x49
 3674 0890 02       		.byte	0x2
 3675 0891 23       		.byte	0x23
 3676 0892 09       		.uleb128 0x9
 3677 0893 06       		.uleb128 0x6
 3678 0894 84070000 		.4byte	.LASF151
 3679 0898 0C       		.byte	0xc
 3680 0899 C8       		.byte	0xc8
 3681 089a 49000000 		.4byte	0x49
 3682 089e 02       		.byte	0x2
 3683 089f 23       		.byte	0x23
 3684 08a0 0A       		.uleb128 0xa
 3685 08a1 00       		.byte	0
ARM GAS  C:\Users\z80\AppData\Local\Temp\ccyKjVO9.s 			page 67


 3686 08a2 09       		.uleb128 0x9
 3687 08a3 04       		.byte	0x4
 3688 08a4 79060000 		.4byte	0x679
 3689 08a8 09       		.uleb128 0x9
 3690 08a9 04       		.byte	0x4
 3691 08aa 3D030000 		.4byte	0x33d
 3692 08ae 03       		.uleb128 0x3
 3693 08af C4040000 		.4byte	.LASF152
 3694 08b3 0C       		.byte	0xc
 3695 08b4 C9       		.byte	0xc9
 3696 08b5 53080000 		.4byte	0x853
 3697 08b9 03       		.uleb128 0x3
 3698 08ba D5060000 		.4byte	.LASF153
 3699 08be 0C       		.byte	0xc
 3700 08bf D2       		.byte	0xd2
 3701 08c0 C4080000 		.4byte	0x8c4
 3702 08c4 09       		.uleb128 0x9
 3703 08c5 04       		.byte	0x4
 3704 08c6 CA080000 		.4byte	0x8ca
 3705 08ca 0E       		.uleb128 0xe
 3706 08cb 01       		.byte	0x1
 3707 08cc DB080000 		.4byte	0x8db
 3708 08d0 0F       		.uleb128 0xf
 3709 08d1 80020000 		.4byte	0x280
 3710 08d5 0F       		.uleb128 0xf
 3711 08d6 86000000 		.4byte	0x86
 3712 08da 00       		.byte	0
 3713 08db 18       		.uleb128 0x18
 3714 08dc 01       		.byte	0x1
 3715 08dd 0D       		.byte	0xd
 3716 08de 5B       		.byte	0x5b
 3717 08df 08090000 		.4byte	0x908
 3718 08e3 14       		.uleb128 0x14
 3719 08e4 53050000 		.4byte	.LASF154
 3720 08e8 00       		.sleb128 0
 3721 08e9 14       		.uleb128 0x14
 3722 08ea 0F0A0000 		.4byte	.LASF155
 3723 08ee 01       		.sleb128 1
 3724 08ef 14       		.uleb128 0x14
 3725 08f0 4E060000 		.4byte	.LASF156
 3726 08f4 02       		.sleb128 2
 3727 08f5 14       		.uleb128 0x14
 3728 08f6 66030000 		.4byte	.LASF157
 3729 08fa 03       		.sleb128 3
 3730 08fb 14       		.uleb128 0x14
 3731 08fc C0020000 		.4byte	.LASF158
 3732 0900 04       		.sleb128 4
 3733 0901 14       		.uleb128 0x14
 3734 0902 FF030000 		.4byte	.LASF159
 3735 0906 05       		.sleb128 5
 3736 0907 00       		.byte	0
 3737 0908 03       		.uleb128 0x3
 3738 0909 A5050000 		.4byte	.LASF160
 3739 090d 0D       		.byte	0xd
 3740 090e 62       		.byte	0x62
 3741 090f DB080000 		.4byte	0x8db
 3742 0913 17       		.uleb128 0x17
ARM GAS  C:\Users\z80\AppData\Local\Temp\ccyKjVO9.s 			page 68


 3743 0914 15010000 		.4byte	.LASF161
 3744 0918 0E       		.byte	0xe
 3745 0919 4001     		.2byte	0x140
 3746 091b 62000000 		.4byte	0x62
 3747 091f 17       		.uleb128 0x17
 3748 0920 6E090000 		.4byte	.LASF162
 3749 0924 0E       		.byte	0xe
 3750 0925 4501     		.2byte	0x145
 3751 0927 86000000 		.4byte	0x86
 3752 092b 19       		.uleb128 0x19
 3753 092c 01       		.byte	0x1
 3754 092d 0E       		.byte	0xe
 3755 092e 4A01     		.2byte	0x14a
 3756 0930 47090000 		.4byte	0x947
 3757 0934 14       		.uleb128 0x14
 3758 0935 0A030000 		.4byte	.LASF163
 3759 0939 01       		.sleb128 1
 3760 093a 14       		.uleb128 0x14
 3761 093b 47000000 		.4byte	.LASF164
 3762 093f 02       		.sleb128 2
 3763 0940 14       		.uleb128 0x14
 3764 0941 86080000 		.4byte	.LASF165
 3765 0945 03       		.sleb128 3
 3766 0946 00       		.byte	0
 3767 0947 17       		.uleb128 0x17
 3768 0948 3E070000 		.4byte	.LASF166
 3769 094c 0E       		.byte	0xe
 3770 094d 4E01     		.2byte	0x14e
 3771 094f 2B090000 		.4byte	0x92b
 3772 0953 19       		.uleb128 0x19
 3773 0954 01       		.byte	0x1
 3774 0955 0E       		.byte	0xe
 3775 0956 5301     		.2byte	0x153
 3776 0958 6F090000 		.4byte	0x96f
 3777 095c 14       		.uleb128 0x14
 3778 095d 97070000 		.4byte	.LASF167
 3779 0961 01       		.sleb128 1
 3780 0962 14       		.uleb128 0x14
 3781 0963 90000000 		.4byte	.LASF168
 3782 0967 02       		.sleb128 2
 3783 0968 14       		.uleb128 0x14
 3784 0969 E1000000 		.4byte	.LASF169
 3785 096d 03       		.sleb128 3
 3786 096e 00       		.byte	0
 3787 096f 17       		.uleb128 0x17
 3788 0970 29010000 		.4byte	.LASF170
 3789 0974 0E       		.byte	0xe
 3790 0975 5701     		.2byte	0x157
 3791 0977 53090000 		.4byte	0x953
 3792 097b 15       		.uleb128 0x15
 3793 097c 0C       		.byte	0xc
 3794 097d 0E       		.byte	0xe
 3795 097e 5C01     		.2byte	0x15c
 3796 0980 B2090000 		.4byte	0x9b2
 3797 0984 16       		.uleb128 0x16
 3798 0985 16090000 		.4byte	.LASF171
 3799 0989 0E       		.byte	0xe
ARM GAS  C:\Users\z80\AppData\Local\Temp\ccyKjVO9.s 			page 69


 3800 098a 5D01     		.2byte	0x15d
 3801 098c 47090000 		.4byte	0x947
 3802 0990 02       		.byte	0x2
 3803 0991 23       		.byte	0x23
 3804 0992 00       		.uleb128 0
 3805 0993 16       		.uleb128 0x16
 3806 0994 AB090000 		.4byte	.LASF172
 3807 0998 0E       		.byte	0xe
 3808 0999 5E01     		.2byte	0x15e
 3809 099b 86000000 		.4byte	0x86
 3810 099f 02       		.byte	0x2
 3811 09a0 23       		.byte	0x23
 3812 09a1 04       		.uleb128 0x4
 3813 09a2 16       		.uleb128 0x16
 3814 09a3 0A040000 		.4byte	.LASF173
 3815 09a7 0E       		.byte	0xe
 3816 09a8 6101     		.2byte	0x161
 3817 09aa 6F090000 		.4byte	0x96f
 3818 09ae 02       		.byte	0x2
 3819 09af 23       		.byte	0x23
 3820 09b0 08       		.uleb128 0x8
 3821 09b1 00       		.byte	0
 3822 09b2 17       		.uleb128 0x17
 3823 09b3 A5060000 		.4byte	.LASF174
 3824 09b7 0E       		.byte	0xe
 3825 09b8 6301     		.2byte	0x163
 3826 09ba 7B090000 		.4byte	0x97b
 3827 09be 17       		.uleb128 0x17
 3828 09bf 32040000 		.4byte	.LASF175
 3829 09c3 0E       		.byte	0xe
 3830 09c4 6801     		.2byte	0x168
 3831 09c6 CA090000 		.4byte	0x9ca
 3832 09ca 0C       		.uleb128 0xc
 3833 09cb 32040000 		.4byte	.LASF175
 3834 09cf 48       		.byte	0x48
 3835 09d0 0E       		.byte	0xe
 3836 09d1 7101     		.2byte	0x171
 3837 09d3 E60A0000 		.4byte	0xae6
 3838 09d7 16       		.uleb128 0x16
 3839 09d8 CB000000 		.4byte	.LASF176
 3840 09dc 0E       		.byte	0xe
 3841 09dd 7501     		.2byte	0x175
 3842 09df 08090000 		.4byte	0x908
 3843 09e3 02       		.byte	0x2
 3844 09e4 23       		.byte	0x23
 3845 09e5 00       		.uleb128 0
 3846 09e6 16       		.uleb128 0x16
 3847 09e7 C4000000 		.4byte	.LASF177
 3848 09eb 0E       		.byte	0xe
 3849 09ec 7901     		.2byte	0x179
 3850 09ee 0A0B0000 		.4byte	0xb0a
 3851 09f2 02       		.byte	0x2
 3852 09f3 23       		.byte	0x23
 3853 09f4 04       		.uleb128 0x4
 3854 09f5 16       		.uleb128 0x16
 3855 09f6 35030000 		.4byte	.LASF178
 3856 09fa 0E       		.byte	0xe
ARM GAS  C:\Users\z80\AppData\Local\Temp\ccyKjVO9.s 			page 70


 3857 09fb 7D01     		.2byte	0x17d
 3858 09fd 1F090000 		.4byte	0x91f
 3859 0a01 02       		.byte	0x2
 3860 0a02 23       		.byte	0x23
 3861 0a03 08       		.uleb128 0x8
 3862 0a04 16       		.uleb128 0x16
 3863 0a05 0C080000 		.4byte	.LASF179
 3864 0a09 0E       		.byte	0xe
 3865 0a0a 8F01     		.2byte	0x18f
 3866 0a0c 42020000 		.4byte	0x242
 3867 0a10 02       		.byte	0x2
 3868 0a11 23       		.byte	0x23
 3869 0a12 0C       		.uleb128 0xc
 3870 0a13 16       		.uleb128 0x16
 3871 0a14 DD050000 		.4byte	.LASF180
 3872 0a18 0E       		.byte	0xe
 3873 0a19 9301     		.2byte	0x193
 3874 0a1b 13090000 		.4byte	0x913
 3875 0a1f 02       		.byte	0x2
 3876 0a20 23       		.byte	0x23
 3877 0a21 10       		.uleb128 0x10
 3878 0a22 16       		.uleb128 0x16
 3879 0a23 C5050000 		.4byte	.LASF181
 3880 0a27 0E       		.byte	0xe
 3881 0a28 9701     		.2byte	0x197
 3882 0a2a 86000000 		.4byte	0x86
 3883 0a2e 02       		.byte	0x2
 3884 0a2f 23       		.byte	0x23
 3885 0a30 14       		.uleb128 0x14
 3886 0a31 16       		.uleb128 0x16
 3887 0a32 39050000 		.4byte	.LASF182
 3888 0a36 0E       		.byte	0xe
 3889 0a37 9B01     		.2byte	0x19b
 3890 0a39 150B0000 		.4byte	0xb15
 3891 0a3d 02       		.byte	0x2
 3892 0a3e 23       		.byte	0x23
 3893 0a3f 18       		.uleb128 0x18
 3894 0a40 16       		.uleb128 0x16
 3895 0a41 E2050000 		.4byte	.LASF183
 3896 0a45 0E       		.byte	0xe
 3897 0a46 9F01     		.2byte	0x19f
 3898 0a48 150B0000 		.4byte	0xb15
 3899 0a4c 02       		.byte	0x2
 3900 0a4d 23       		.byte	0x23
 3901 0a4e 1C       		.uleb128 0x1c
 3902 0a4f 0B       		.uleb128 0xb
 3903 0a50 69326300 		.ascii	"i2c\000"
 3904 0a54 0E       		.byte	0xe
 3905 0a55 A301     		.2byte	0x1a3
 3906 0a57 200B0000 		.4byte	0xb20
 3907 0a5b 02       		.byte	0x2
 3908 0a5c 23       		.byte	0x23
 3909 0a5d 20       		.uleb128 0x20
 3910 0a5e 16       		.uleb128 0x16
 3911 0a5f AD070000 		.4byte	.LASF184
 3912 0a63 0E       		.byte	0xe
 3913 0a64 A501     		.2byte	0x1a5
ARM GAS  C:\Users\z80\AppData\Local\Temp\ccyKjVO9.s 			page 71


 3914 0a66 49000000 		.4byte	0x49
 3915 0a6a 02       		.byte	0x2
 3916 0a6b 23       		.byte	0x23
 3917 0a6c 24       		.uleb128 0x24
 3918 0a6d 16       		.uleb128 0x16
 3919 0a6e 33050000 		.4byte	.LASF185
 3920 0a72 0E       		.byte	0xe
 3921 0a73 A601     		.2byte	0x1a6
 3922 0a75 D9040000 		.4byte	0x4d9
 3923 0a79 02       		.byte	0x2
 3924 0a7a 23       		.byte	0x23
 3925 0a7b 28       		.uleb128 0x28
 3926 0a7c 16       		.uleb128 0x16
 3927 0a7d 22060000 		.4byte	.LASF186
 3928 0a81 0E       		.byte	0xe
 3929 0a82 A701     		.2byte	0x1a7
 3930 0a84 30000000 		.4byte	0x30
 3931 0a88 02       		.byte	0x2
 3932 0a89 23       		.byte	0x23
 3933 0a8a 2C       		.uleb128 0x2c
 3934 0a8b 16       		.uleb128 0x16
 3935 0a8c 9F060000 		.4byte	.LASF187
 3936 0a90 0E       		.byte	0xe
 3937 0a91 A801     		.2byte	0x1a8
 3938 0a93 30000000 		.4byte	0x30
 3939 0a97 02       		.byte	0x2
 3940 0a98 23       		.byte	0x23
 3941 0a99 30       		.uleb128 0x30
 3942 0a9a 16       		.uleb128 0x16
 3943 0a9b D7040000 		.4byte	.LASF188
 3944 0a9f 0E       		.byte	0xe
 3945 0aa0 A901     		.2byte	0x1a9
 3946 0aa2 E60A0000 		.4byte	0xae6
 3947 0aa6 02       		.byte	0x2
 3948 0aa7 23       		.byte	0x23
 3949 0aa8 34       		.uleb128 0x34
 3950 0aa9 16       		.uleb128 0x16
 3951 0aaa B0010000 		.4byte	.LASF189
 3952 0aae 0E       		.byte	0xe
 3953 0aaf AB01     		.2byte	0x1ab
 3954 0ab1 D9040000 		.4byte	0x4d9
 3955 0ab5 02       		.byte	0x2
 3956 0ab6 23       		.byte	0x23
 3957 0ab7 38       		.uleb128 0x38
 3958 0ab8 16       		.uleb128 0x16
 3959 0ab9 FB060000 		.4byte	.LASF190
 3960 0abd 0E       		.byte	0xe
 3961 0abe AC01     		.2byte	0x1ac
 3962 0ac0 30000000 		.4byte	0x30
 3963 0ac4 02       		.byte	0x2
 3964 0ac5 23       		.byte	0x23
 3965 0ac6 3C       		.uleb128 0x3c
 3966 0ac7 16       		.uleb128 0x16
 3967 0ac8 C1030000 		.4byte	.LASF191
 3968 0acc 0E       		.byte	0xe
 3969 0acd AD01     		.2byte	0x1ad
 3970 0acf 30000000 		.4byte	0x30
ARM GAS  C:\Users\z80\AppData\Local\Temp\ccyKjVO9.s 			page 72


 3971 0ad3 02       		.byte	0x2
 3972 0ad4 23       		.byte	0x23
 3973 0ad5 40       		.uleb128 0x40
 3974 0ad6 16       		.uleb128 0x16
 3975 0ad7 0E050000 		.4byte	.LASF192
 3976 0adb 0E       		.byte	0xe
 3977 0adc AE01     		.2byte	0x1ae
 3978 0ade E60A0000 		.4byte	0xae6
 3979 0ae2 02       		.byte	0x2
 3980 0ae3 23       		.byte	0x23
 3981 0ae4 44       		.uleb128 0x44
 3982 0ae5 00       		.byte	0
 3983 0ae6 17       		.uleb128 0x17
 3984 0ae7 0A090000 		.4byte	.LASF193
 3985 0aeb 0E       		.byte	0xe
 3986 0aec 6B01     		.2byte	0x16b
 3987 0aee F20A0000 		.4byte	0xaf2
 3988 0af2 09       		.uleb128 0x9
 3989 0af3 04       		.byte	0x4
 3990 0af4 F80A0000 		.4byte	0xaf8
 3991 0af8 0E       		.uleb128 0xe
 3992 0af9 01       		.byte	0x1
 3993 0afa 040B0000 		.4byte	0xb04
 3994 0afe 0F       		.uleb128 0xf
 3995 0aff 040B0000 		.4byte	0xb04
 3996 0b03 00       		.byte	0
 3997 0b04 09       		.uleb128 0x9
 3998 0b05 04       		.byte	0x4
 3999 0b06 BE090000 		.4byte	0x9be
 4000 0b0a 09       		.uleb128 0x9
 4001 0b0b 04       		.byte	0x4
 4002 0b0c 100B0000 		.4byte	0xb10
 4003 0b10 12       		.uleb128 0x12
 4004 0b11 B2090000 		.4byte	0x9b2
 4005 0b15 09       		.uleb128 0x9
 4006 0b16 04       		.byte	0x4
 4007 0b17 1B0B0000 		.4byte	0xb1b
 4008 0b1b 12       		.uleb128 0x12
 4009 0b1c AE080000 		.4byte	0x8ae
 4010 0b20 09       		.uleb128 0x9
 4011 0b21 04       		.byte	0x4
 4012 0b22 9C070000 		.4byte	0x79c
 4013 0b26 1A       		.uleb128 0x1a
 4014 0b27 8D050000 		.4byte	.LASF194
 4015 0b2b 01       		.byte	0x1
 4016 0b2c 97       		.byte	0x97
 4017 0b2d 01       		.byte	0x1
 4018 0b2e 00000000 		.4byte	.LFB62
 4019 0b32 82000000 		.4byte	.LFE62
 4020 0b36 00000000 		.4byte	.LLST0
 4021 0b3a 5A0B0000 		.4byte	0xb5a
 4022 0b3e 1B       		.uleb128 0x1b
 4023 0b3f 2E050000 		.4byte	.LASF196
 4024 0b43 01       		.byte	0x1
 4025 0b44 97       		.byte	0x97
 4026 0b45 040B0000 		.4byte	0xb04
 4027 0b49 02       		.byte	0x2
ARM GAS  C:\Users\z80\AppData\Local\Temp\ccyKjVO9.s 			page 73


 4028 0b4a 91       		.byte	0x91
 4029 0b4b 74       		.sleb128 -12
 4030 0b4c 1C       		.uleb128 0x1c
 4031 0b4d 647000   		.ascii	"dp\000"
 4032 0b50 01       		.byte	0x1
 4033 0b51 98       		.byte	0x98
 4034 0b52 200B0000 		.4byte	0xb20
 4035 0b56 02       		.byte	0x2
 4036 0b57 91       		.byte	0x91
 4037 0b58 7C       		.sleb128 -4
 4038 0b59 00       		.byte	0
 4039 0b5a 1A       		.uleb128 0x1a
 4040 0b5b A2000000 		.4byte	.LASF195
 4041 0b5f 01       		.byte	0x1
 4042 0b60 AC       		.byte	0xac
 4043 0b61 01       		.byte	0x1
 4044 0b62 00000000 		.4byte	.LFB63
 4045 0b66 38000000 		.4byte	.LFE63
 4046 0b6a 20000000 		.4byte	.LLST1
 4047 0b6e A40B0000 		.4byte	0xba4
 4048 0b72 1D       		.uleb128 0x1d
 4049 0b73 7000     		.ascii	"p\000"
 4050 0b75 01       		.byte	0x1
 4051 0b76 AC       		.byte	0xac
 4052 0b77 80020000 		.4byte	0x280
 4053 0b7b 02       		.byte	0x2
 4054 0b7c 91       		.byte	0x91
 4055 0b7d 6C       		.sleb128 -20
 4056 0b7e 1E       		.uleb128 0x1e
 4057 0b7f 2E050000 		.4byte	.LASF196
 4058 0b83 01       		.byte	0x1
 4059 0b84 AD       		.byte	0xad
 4060 0b85 040B0000 		.4byte	0xb04
 4061 0b89 02       		.byte	0x2
 4062 0b8a 91       		.byte	0x91
 4063 0b8b 74       		.sleb128 -12
 4064 0b8c 1F       		.uleb128 0x1f
 4065 0b8d 12000000 		.4byte	.LBB2
 4066 0b91 34000000 		.4byte	.LBE2
 4067 0b95 1C       		.uleb128 0x1c
 4068 0b96 747000   		.ascii	"tp\000"
 4069 0b99 01       		.byte	0x1
 4070 0b9a B0       		.byte	0xb0
 4071 0b9b 42020000 		.4byte	0x242
 4072 0b9f 02       		.byte	0x2
 4073 0ba0 91       		.byte	0x91
 4074 0ba1 70       		.sleb128 -16
 4075 0ba2 00       		.byte	0
 4076 0ba3 00       		.byte	0
 4077 0ba4 1A       		.uleb128 0x1a
 4078 0ba5 5C090000 		.4byte	.LASF197
 4079 0ba9 01       		.byte	0x1
 4080 0baa BF       		.byte	0xbf
 4081 0bab 01       		.byte	0x1
 4082 0bac 00000000 		.4byte	.LFB64
 4083 0bb0 52020000 		.4byte	.LFE64
 4084 0bb4 4C000000 		.4byte	.LLST2
ARM GAS  C:\Users\z80\AppData\Local\Temp\ccyKjVO9.s 			page 74


 4085 0bb8 100C0000 		.4byte	0xc10
 4086 0bbc 1B       		.uleb128 0x1b
 4087 0bbd 2E050000 		.4byte	.LASF196
 4088 0bc1 01       		.byte	0x1
 4089 0bc2 BF       		.byte	0xbf
 4090 0bc3 040B0000 		.4byte	0xb04
 4091 0bc7 02       		.byte	0x2
 4092 0bc8 91       		.byte	0x91
 4093 0bc9 64       		.sleb128 -28
 4094 0bca 1C       		.uleb128 0x1c
 4095 0bcb 647000   		.ascii	"dp\000"
 4096 0bce 01       		.byte	0x1
 4097 0bcf C0       		.byte	0xc0
 4098 0bd0 200B0000 		.4byte	0xb20
 4099 0bd4 02       		.byte	0x2
 4100 0bd5 91       		.byte	0x91
 4101 0bd6 70       		.sleb128 -16
 4102 0bd7 1E       		.uleb128 0x1e
 4103 0bd8 5F060000 		.4byte	.LASF198
 4104 0bdc 01       		.byte	0x1
 4105 0bdd C1       		.byte	0xc1
 4106 0bde 62000000 		.4byte	0x62
 4107 0be2 02       		.byte	0x2
 4108 0be3 91       		.byte	0x91
 4109 0be4 76       		.sleb128 -10
 4110 0be5 1E       		.uleb128 0x1e
 4111 0be6 11000000 		.4byte	.LASF199
 4112 0bea 01       		.byte	0x1
 4113 0beb C1       		.byte	0xc1
 4114 0bec 62000000 		.4byte	0x62
 4115 0bf0 02       		.byte	0x2
 4116 0bf1 91       		.byte	0x91
 4117 0bf2 74       		.sleb128 -12
 4118 0bf3 1E       		.uleb128 0x1e
 4119 0bf4 AB090000 		.4byte	.LASF172
 4120 0bf8 01       		.byte	0x1
 4121 0bf9 C2       		.byte	0xc2
 4122 0bfa 74000000 		.4byte	0x74
 4123 0bfe 02       		.byte	0x2
 4124 0bff 91       		.byte	0x91
 4125 0c00 6C       		.sleb128 -20
 4126 0c01 1E       		.uleb128 0x1e
 4127 0c02 1B000000 		.4byte	.LASF200
 4128 0c06 01       		.byte	0x1
 4129 0c07 C3       		.byte	0xc3
 4130 0c08 6F090000 		.4byte	0x96f
 4131 0c0c 02       		.byte	0x2
 4132 0c0d 91       		.byte	0x91
 4133 0c0e 6B       		.sleb128 -21
 4134 0c0f 00       		.byte	0
 4135 0c10 20       		.uleb128 0x20
 4136 0c11 51080000 		.4byte	.LASF201
 4137 0c15 01       		.byte	0x1
 4138 0c16 1001     		.2byte	0x110
 4139 0c18 01       		.byte	0x1
 4140 0c19 00000000 		.4byte	.LFB65
 4141 0c1d 6E000000 		.4byte	.LFE65
ARM GAS  C:\Users\z80\AppData\Local\Temp\ccyKjVO9.s 			page 75


 4142 0c21 78000000 		.4byte	.LLST3
 4143 0c25 650C0000 		.4byte	0xc65
 4144 0c29 21       		.uleb128 0x21
 4145 0c2a 2E050000 		.4byte	.LASF196
 4146 0c2e 01       		.byte	0x1
 4147 0c2f 1001     		.2byte	0x110
 4148 0c31 040B0000 		.4byte	0xb04
 4149 0c35 02       		.byte	0x2
 4150 0c36 91       		.byte	0x91
 4151 0c37 6C       		.sleb128 -20
 4152 0c38 22       		.uleb128 0x22
 4153 0c39 647000   		.ascii	"dp\000"
 4154 0c3c 01       		.byte	0x1
 4155 0c3d 1101     		.2byte	0x111
 4156 0c3f 200B0000 		.4byte	0xb20
 4157 0c43 02       		.byte	0x2
 4158 0c44 91       		.byte	0x91
 4159 0c45 78       		.sleb128 -8
 4160 0c46 23       		.uleb128 0x23
 4161 0c47 A6070000 		.4byte	.LASF202
 4162 0c4b 01       		.byte	0x1
 4163 0c4c 1201     		.2byte	0x112
 4164 0c4e 47090000 		.4byte	0x947
 4165 0c52 02       		.byte	0x2
 4166 0c53 91       		.byte	0x91
 4167 0c54 77       		.sleb128 -9
 4168 0c55 23       		.uleb128 0x23
 4169 0c56 F6000000 		.4byte	.LASF203
 4170 0c5a 01       		.byte	0x1
 4171 0c5b 1301     		.2byte	0x113
 4172 0c5d 62000000 		.4byte	0x62
 4173 0c61 02       		.byte	0x2
 4174 0c62 91       		.byte	0x91
 4175 0c63 7E       		.sleb128 -2
 4176 0c64 00       		.byte	0
 4177 0c65 20       		.uleb128 0x20
 4178 0c66 CF030000 		.4byte	.LASF204
 4179 0c6a 01       		.byte	0x1
 4180 0c6b 2C01     		.2byte	0x12c
 4181 0c6d 01       		.byte	0x1
 4182 0c6e 00000000 		.4byte	.LFB66
 4183 0c72 92020000 		.4byte	.LFE66
 4184 0c76 98000000 		.4byte	.LLST4
 4185 0c7a 0A0D0000 		.4byte	0xd0a
 4186 0c7e 21       		.uleb128 0x21
 4187 0c7f 2E050000 		.4byte	.LASF196
 4188 0c83 01       		.byte	0x1
 4189 0c84 2C01     		.2byte	0x12c
 4190 0c86 040B0000 		.4byte	0xb04
 4191 0c8a 02       		.byte	0x2
 4192 0c8b 91       		.byte	0x91
 4193 0c8c 64       		.sleb128 -28
 4194 0c8d 22       		.uleb128 0x22
 4195 0c8e 647000   		.ascii	"dp\000"
 4196 0c91 01       		.byte	0x1
 4197 0c92 2E01     		.2byte	0x12e
 4198 0c94 200B0000 		.4byte	0xb20
ARM GAS  C:\Users\z80\AppData\Local\Temp\ccyKjVO9.s 			page 76


 4199 0c98 02       		.byte	0x2
 4200 0c99 91       		.byte	0x91
 4201 0c9a 70       		.sleb128 -16
 4202 0c9b 23       		.uleb128 0x23
 4203 0c9c C9070000 		.4byte	.LASF205
 4204 0ca0 01       		.byte	0x1
 4205 0ca1 2F01     		.2byte	0x12f
 4206 0ca3 86000000 		.4byte	0x86
 4207 0ca7 02       		.byte	0x2
 4208 0ca8 91       		.byte	0x91
 4209 0ca9 6C       		.sleb128 -20
 4210 0caa 23       		.uleb128 0x23
 4211 0cab D7050000 		.4byte	.LASF206
 4212 0caf 01       		.byte	0x1
 4213 0cb0 3001     		.2byte	0x130
 4214 0cb2 86000000 		.4byte	0x86
 4215 0cb6 02       		.byte	0x2
 4216 0cb7 91       		.byte	0x91
 4217 0cb8 74       		.sleb128 -12
 4218 0cb9 24       		.uleb128 0x24
 4219 0cba 44010000 		.4byte	.LBB3
 4220 0cbe 4C010000 		.4byte	.LBE3
 4221 0cc2 D50C0000 		.4byte	0xcd5
 4222 0cc6 22       		.uleb128 0x22
 4223 0cc7 746D7000 		.ascii	"tmp\000"
 4224 0ccb 01       		.byte	0x1
 4225 0ccc 5201     		.2byte	0x152
 4226 0cce 86000000 		.4byte	0x86
 4227 0cd2 01       		.byte	0x1
 4228 0cd3 53       		.byte	0x53
 4229 0cd4 00       		.byte	0
 4230 0cd5 24       		.uleb128 0x24
 4231 0cd6 58010000 		.4byte	.LBB4
 4232 0cda 74010000 		.4byte	.LBE4
 4233 0cde F10C0000 		.4byte	0xcf1
 4234 0ce2 22       		.uleb128 0x22
 4235 0ce3 747000   		.ascii	"tp\000"
 4236 0ce6 01       		.byte	0x1
 4237 0ce7 5201     		.2byte	0x152
 4238 0ce9 42020000 		.4byte	0x242
 4239 0ced 02       		.byte	0x2
 4240 0cee 91       		.byte	0x91
 4241 0cef 68       		.sleb128 -24
 4242 0cf0 00       		.byte	0
 4243 0cf1 1F       		.uleb128 0x1f
 4244 0cf2 78010000 		.4byte	.LBB5
 4245 0cf6 80010000 		.4byte	.LBE5
 4246 0cfa 22       		.uleb128 0x22
 4247 0cfb 746D7000 		.ascii	"tmp\000"
 4248 0cff 01       		.byte	0x1
 4249 0d00 5201     		.2byte	0x152
 4250 0d02 86000000 		.4byte	0x86
 4251 0d06 01       		.byte	0x1
 4252 0d07 53       		.byte	0x53
 4253 0d08 00       		.byte	0
 4254 0d09 00       		.byte	0
 4255 0d0a 20       		.uleb128 0x20
ARM GAS  C:\Users\z80\AppData\Local\Temp\ccyKjVO9.s 			page 77


 4256 0d0b 4D030000 		.4byte	.LASF207
 4257 0d0f 01       		.byte	0x1
 4258 0d10 9201     		.2byte	0x192
 4259 0d12 01       		.byte	0x1
 4260 0d13 00000000 		.4byte	.LFB67
 4261 0d17 C0000000 		.4byte	.LFE67
 4262 0d1b C4000000 		.4byte	.LLST5
 4263 0d1f A00D0000 		.4byte	0xda0
 4264 0d23 21       		.uleb128 0x21
 4265 0d24 2E050000 		.4byte	.LASF196
 4266 0d28 01       		.byte	0x1
 4267 0d29 9201     		.2byte	0x192
 4268 0d2b 040B0000 		.4byte	0xb04
 4269 0d2f 02       		.byte	0x2
 4270 0d30 91       		.byte	0x91
 4271 0d31 6C       		.sleb128 -20
 4272 0d32 21       		.uleb128 0x21
 4273 0d33 3C030000 		.4byte	.LASF208
 4274 0d37 01       		.byte	0x1
 4275 0d38 9201     		.2byte	0x192
 4276 0d3a 86000000 		.4byte	0x86
 4277 0d3e 02       		.byte	0x2
 4278 0d3f 91       		.byte	0x91
 4279 0d40 68       		.sleb128 -24
 4280 0d41 22       		.uleb128 0x22
 4281 0d42 647000   		.ascii	"dp\000"
 4282 0d45 01       		.byte	0x1
 4283 0d46 9301     		.2byte	0x193
 4284 0d48 200B0000 		.4byte	0xb20
 4285 0d4c 02       		.byte	0x2
 4286 0d4d 91       		.byte	0x91
 4287 0d4e 74       		.sleb128 -12
 4288 0d4f 24       		.uleb128 0x24
 4289 0d50 80000000 		.4byte	.LBB6
 4290 0d54 88000000 		.4byte	.LBE6
 4291 0d58 6B0D0000 		.4byte	0xd6b
 4292 0d5c 22       		.uleb128 0x22
 4293 0d5d 746D7000 		.ascii	"tmp\000"
 4294 0d61 01       		.byte	0x1
 4295 0d62 A701     		.2byte	0x1a7
 4296 0d64 86000000 		.4byte	0x86
 4297 0d68 01       		.byte	0x1
 4298 0d69 53       		.byte	0x53
 4299 0d6a 00       		.byte	0
 4300 0d6b 24       		.uleb128 0x24
 4301 0d6c 94000000 		.4byte	.LBB7
 4302 0d70 B0000000 		.4byte	.LBE7
 4303 0d74 870D0000 		.4byte	0xd87
 4304 0d78 22       		.uleb128 0x22
 4305 0d79 747000   		.ascii	"tp\000"
 4306 0d7c 01       		.byte	0x1
 4307 0d7d A701     		.2byte	0x1a7
 4308 0d7f 42020000 		.4byte	0x242
 4309 0d83 02       		.byte	0x2
 4310 0d84 91       		.byte	0x91
 4311 0d85 70       		.sleb128 -16
 4312 0d86 00       		.byte	0
ARM GAS  C:\Users\z80\AppData\Local\Temp\ccyKjVO9.s 			page 78


 4313 0d87 1F       		.uleb128 0x1f
 4314 0d88 B4000000 		.4byte	.LBB8
 4315 0d8c BC000000 		.4byte	.LBE8
 4316 0d90 22       		.uleb128 0x22
 4317 0d91 746D7000 		.ascii	"tmp\000"
 4318 0d95 01       		.byte	0x1
 4319 0d96 A701     		.2byte	0x1a7
 4320 0d98 86000000 		.4byte	0x86
 4321 0d9c 01       		.byte	0x1
 4322 0d9d 53       		.byte	0x53
 4323 0d9e 00       		.byte	0
 4324 0d9f 00       		.byte	0
 4325 0da0 20       		.uleb128 0x20
 4326 0da1 D9090000 		.4byte	.LASF209
 4327 0da5 01       		.byte	0x1
 4328 0da6 B401     		.2byte	0x1b4
 4329 0da8 01       		.byte	0x1
 4330 0da9 00000000 		.4byte	.LFB68
 4331 0dad 5A000000 		.4byte	.LFE68
 4332 0db1 F0000000 		.4byte	.LLST6
 4333 0db5 E60D0000 		.4byte	0xde6
 4334 0db9 21       		.uleb128 0x21
 4335 0dba 2E050000 		.4byte	.LASF196
 4336 0dbe 01       		.byte	0x1
 4337 0dbf B401     		.2byte	0x1b4
 4338 0dc1 040B0000 		.4byte	0xb04
 4339 0dc5 02       		.byte	0x2
 4340 0dc6 91       		.byte	0x91
 4341 0dc7 6C       		.sleb128 -20
 4342 0dc8 21       		.uleb128 0x21
 4343 0dc9 3C030000 		.4byte	.LASF208
 4344 0dcd 01       		.byte	0x1
 4345 0dce B401     		.2byte	0x1b4
 4346 0dd0 86000000 		.4byte	0x86
 4347 0dd4 02       		.byte	0x2
 4348 0dd5 91       		.byte	0x91
 4349 0dd6 68       		.sleb128 -24
 4350 0dd7 22       		.uleb128 0x22
 4351 0dd8 647000   		.ascii	"dp\000"
 4352 0ddb 01       		.byte	0x1
 4353 0ddc B501     		.2byte	0x1b5
 4354 0dde 200B0000 		.4byte	0xb20
 4355 0de2 02       		.byte	0x2
 4356 0de3 91       		.byte	0x91
 4357 0de4 74       		.sleb128 -12
 4358 0de5 00       		.byte	0
 4359 0de6 20       		.uleb128 0x20
 4360 0de7 C7010000 		.4byte	.LASF210
 4361 0deb 01       		.byte	0x1
 4362 0dec CE01     		.2byte	0x1ce
 4363 0dee 01       		.byte	0x1
 4364 0def 00000000 		.4byte	.LFB69
 4365 0df3 24020000 		.4byte	.LFE69
 4366 0df7 1C010000 		.4byte	.LLST7
 4367 0dfb B40E0000 		.4byte	0xeb4
 4368 0dff 21       		.uleb128 0x21
 4369 0e00 2E050000 		.4byte	.LASF196
ARM GAS  C:\Users\z80\AppData\Local\Temp\ccyKjVO9.s 			page 79


 4370 0e04 01       		.byte	0x1
 4371 0e05 CE01     		.2byte	0x1ce
 4372 0e07 040B0000 		.4byte	0xb04
 4373 0e0b 02       		.byte	0x2
 4374 0e0c 91       		.byte	0x91
 4375 0e0d 64       		.sleb128 -28
 4376 0e0e 22       		.uleb128 0x22
 4377 0e0f 647000   		.ascii	"dp\000"
 4378 0e12 01       		.byte	0x1
 4379 0e13 CF01     		.2byte	0x1cf
 4380 0e15 200B0000 		.4byte	0xb20
 4381 0e19 02       		.byte	0x2
 4382 0e1a 91       		.byte	0x91
 4383 0e1b 70       		.sleb128 -16
 4384 0e1c 23       		.uleb128 0x23
 4385 0e1d 35030000 		.4byte	.LASF178
 4386 0e21 01       		.byte	0x1
 4387 0e22 D001     		.2byte	0x1d0
 4388 0e24 1F090000 		.4byte	0x91f
 4389 0e28 02       		.byte	0x2
 4390 0e29 91       		.byte	0x91
 4391 0e2a 74       		.sleb128 -12
 4392 0e2b 24       		.uleb128 0x24
 4393 0e2c 0C000000 		.4byte	.LBB9
 4394 0e30 14000000 		.4byte	.LBE9
 4395 0e34 470E0000 		.4byte	0xe47
 4396 0e38 22       		.uleb128 0x22
 4397 0e39 746D7000 		.ascii	"tmp\000"
 4398 0e3d 01       		.byte	0x1
 4399 0e3e D301     		.2byte	0x1d3
 4400 0e40 86000000 		.4byte	0x86
 4401 0e44 01       		.byte	0x1
 4402 0e45 53       		.byte	0x53
 4403 0e46 00       		.byte	0
 4404 0e47 24       		.uleb128 0x24
 4405 0e48 70000000 		.4byte	.LBB10
 4406 0e4c 78000000 		.4byte	.LBE10
 4407 0e50 630E0000 		.4byte	0xe63
 4408 0e54 22       		.uleb128 0x22
 4409 0e55 746D7000 		.ascii	"tmp\000"
 4410 0e59 01       		.byte	0x1
 4411 0e5a D601     		.2byte	0x1d6
 4412 0e5c 86000000 		.4byte	0x86
 4413 0e60 01       		.byte	0x1
 4414 0e61 53       		.byte	0x53
 4415 0e62 00       		.byte	0
 4416 0e63 24       		.uleb128 0x24
 4417 0e64 E4010000 		.4byte	.LBB11
 4418 0e68 EC010000 		.4byte	.LBE11
 4419 0e6c 7F0E0000 		.4byte	0xe7f
 4420 0e70 22       		.uleb128 0x22
 4421 0e71 746D7000 		.ascii	"tmp\000"
 4422 0e75 01       		.byte	0x1
 4423 0e76 0D02     		.2byte	0x20d
 4424 0e78 86000000 		.4byte	0x86
 4425 0e7c 01       		.byte	0x1
 4426 0e7d 53       		.byte	0x53
ARM GAS  C:\Users\z80\AppData\Local\Temp\ccyKjVO9.s 			page 80


 4427 0e7e 00       		.byte	0
 4428 0e7f 24       		.uleb128 0x24
 4429 0e80 F8010000 		.4byte	.LBB12
 4430 0e84 14020000 		.4byte	.LBE12
 4431 0e88 9B0E0000 		.4byte	0xe9b
 4432 0e8c 22       		.uleb128 0x22
 4433 0e8d 747000   		.ascii	"tp\000"
 4434 0e90 01       		.byte	0x1
 4435 0e91 0D02     		.2byte	0x20d
 4436 0e93 42020000 		.4byte	0x242
 4437 0e97 02       		.byte	0x2
 4438 0e98 91       		.byte	0x91
 4439 0e99 6C       		.sleb128 -20
 4440 0e9a 00       		.byte	0
 4441 0e9b 1F       		.uleb128 0x1f
 4442 0e9c 18020000 		.4byte	.LBB13
 4443 0ea0 20020000 		.4byte	.LBE13
 4444 0ea4 22       		.uleb128 0x22
 4445 0ea5 746D7000 		.ascii	"tmp\000"
 4446 0ea9 01       		.byte	0x1
 4447 0eaa 0D02     		.2byte	0x20d
 4448 0eac 86000000 		.4byte	0x86
 4449 0eb0 01       		.byte	0x1
 4450 0eb1 53       		.byte	0x53
 4451 0eb2 00       		.byte	0
 4452 0eb3 00       		.byte	0
 4453 0eb4 25       		.uleb128 0x25
 4454 0eb5 01       		.byte	0x1
 4455 0eb6 B2080000 		.4byte	.LASF211
 4456 0eba 01       		.byte	0x1
 4457 0ebb 1B02     		.2byte	0x21b
 4458 0ebd 01       		.byte	0x1
 4459 0ebe 00000000 		.4byte	.LFB70
 4460 0ec2 1C000000 		.4byte	.LFE70
 4461 0ec6 48010000 		.4byte	.LLST8
 4462 0eca 25       		.uleb128 0x25
 4463 0ecb 01       		.byte	0x1
 4464 0ecc F5080000 		.4byte	.LASF212
 4465 0ed0 01       		.byte	0x1
 4466 0ed1 2702     		.2byte	0x227
 4467 0ed3 01       		.byte	0x1
 4468 0ed4 00000000 		.4byte	.LFB71
 4469 0ed8 1C000000 		.4byte	.LFE71
 4470 0edc 68010000 		.4byte	.LLST9
 4471 0ee0 25       		.uleb128 0x25
 4472 0ee1 01       		.byte	0x1
 4473 0ee2 31070000 		.4byte	.LASF213
 4474 0ee6 01       		.byte	0x1
 4475 0ee7 7602     		.2byte	0x276
 4476 0ee9 01       		.byte	0x1
 4477 0eea 00000000 		.4byte	.LFB72
 4478 0eee 50000000 		.4byte	.LFE72
 4479 0ef2 88010000 		.4byte	.LLST10
 4480 0ef6 26       		.uleb128 0x26
 4481 0ef7 01       		.byte	0x1
 4482 0ef8 F7090000 		.4byte	.LASF214
 4483 0efc 01       		.byte	0x1
ARM GAS  C:\Users\z80\AppData\Local\Temp\ccyKjVO9.s 			page 81


 4484 0efd 9802     		.2byte	0x298
 4485 0eff 01       		.byte	0x1
 4486 0f00 00000000 		.4byte	.LFB73
 4487 0f04 54010000 		.4byte	.LFE73
 4488 0f08 A8010000 		.4byte	.LLST11
 4489 0f0c 450F0000 		.4byte	0xf45
 4490 0f10 21       		.uleb128 0x21
 4491 0f11 2E050000 		.4byte	.LASF196
 4492 0f15 01       		.byte	0x1
 4493 0f16 9802     		.2byte	0x298
 4494 0f18 040B0000 		.4byte	0xb04
 4495 0f1c 02       		.byte	0x2
 4496 0f1d 91       		.byte	0x91
 4497 0f1e 6C       		.sleb128 -20
 4498 0f1f 22       		.uleb128 0x22
 4499 0f20 647000   		.ascii	"dp\000"
 4500 0f23 01       		.byte	0x1
 4501 0f24 9902     		.2byte	0x299
 4502 0f26 200B0000 		.4byte	0xb20
 4503 0f2a 02       		.byte	0x2
 4504 0f2b 91       		.byte	0x91
 4505 0f2c 74       		.sleb128 -12
 4506 0f2d 1F       		.uleb128 0x1f
 4507 0f2e 2A000000 		.4byte	.LBB14
 4508 0f32 E4000000 		.4byte	.LBE14
 4509 0f36 22       		.uleb128 0x22
 4510 0f37 6200     		.ascii	"b\000"
 4511 0f39 01       		.byte	0x1
 4512 0f3a A402     		.2byte	0x2a4
 4513 0f3c B1000000 		.4byte	0xb1
 4514 0f40 02       		.byte	0x2
 4515 0f41 91       		.byte	0x91
 4516 0f42 70       		.sleb128 -16
 4517 0f43 00       		.byte	0
 4518 0f44 00       		.byte	0
 4519 0f45 26       		.uleb128 0x26
 4520 0f46 01       		.byte	0x1
 4521 0f47 50010000 		.4byte	.LASF215
 4522 0f4b 01       		.byte	0x1
 4523 0f4c 0D03     		.2byte	0x30d
 4524 0f4e 01       		.byte	0x1
 4525 0f4f 00000000 		.4byte	.LFB74
 4526 0f53 62000000 		.4byte	.LFE74
 4527 0f57 D4010000 		.4byte	.LLST12
 4528 0f5b 6F0F0000 		.4byte	0xf6f
 4529 0f5f 21       		.uleb128 0x21
 4530 0f60 2E050000 		.4byte	.LASF196
 4531 0f64 01       		.byte	0x1
 4532 0f65 0D03     		.2byte	0x30d
 4533 0f67 040B0000 		.4byte	0xb04
 4534 0f6b 02       		.byte	0x2
 4535 0f6c 91       		.byte	0x91
 4536 0f6d 74       		.sleb128 -12
 4537 0f6e 00       		.byte	0
 4538 0f6f 27       		.uleb128 0x27
 4539 0f70 01       		.byte	0x1
 4540 0f71 80060000 		.4byte	.LASF217
ARM GAS  C:\Users\z80\AppData\Local\Temp\ccyKjVO9.s 			page 82


 4541 0f75 01       		.byte	0x1
 4542 0f76 4803     		.2byte	0x348
 4543 0f78 01       		.byte	0x1
 4544 0f79 DD000000 		.4byte	0xdd
 4545 0f7d 00000000 		.4byte	.LFB75
 4546 0f81 54010000 		.4byte	.LFE75
 4547 0f85 00020000 		.4byte	.LLST13
 4548 0f89 61100000 		.4byte	0x1061
 4549 0f8d 21       		.uleb128 0x21
 4550 0f8e 2E050000 		.4byte	.LASF196
 4551 0f92 01       		.byte	0x1
 4552 0f93 4803     		.2byte	0x348
 4553 0f95 040B0000 		.4byte	0xb04
 4554 0f99 02       		.byte	0x2
 4555 0f9a 91       		.byte	0x91
 4556 0f9b 5C       		.sleb128 -36
 4557 0f9c 21       		.uleb128 0x21
 4558 0f9d DD050000 		.4byte	.LASF180
 4559 0fa1 01       		.byte	0x1
 4560 0fa2 4803     		.2byte	0x348
 4561 0fa4 13090000 		.4byte	0x913
 4562 0fa8 02       		.byte	0x2
 4563 0fa9 91       		.byte	0x91
 4564 0faa 5A       		.sleb128 -38
 4565 0fab 21       		.uleb128 0x21
 4566 0fac 33050000 		.4byte	.LASF185
 4567 0fb0 01       		.byte	0x1
 4568 0fb1 4903     		.2byte	0x349
 4569 0fb3 D9040000 		.4byte	0x4d9
 4570 0fb7 02       		.byte	0x2
 4571 0fb8 91       		.byte	0x91
 4572 0fb9 54       		.sleb128 -44
 4573 0fba 21       		.uleb128 0x21
 4574 0fbb 22060000 		.4byte	.LASF186
 4575 0fbf 01       		.byte	0x1
 4576 0fc0 4903     		.2byte	0x349
 4577 0fc2 30000000 		.4byte	0x30
 4578 0fc6 02       		.byte	0x2
 4579 0fc7 91       		.byte	0x91
 4580 0fc8 50       		.sleb128 -48
 4581 0fc9 21       		.uleb128 0x21
 4582 0fca BD050000 		.4byte	.LASF216
 4583 0fce 01       		.byte	0x1
 4584 0fcf 4A03     		.2byte	0x34a
 4585 0fd1 F3000000 		.4byte	0xf3
 4586 0fd5 02       		.byte	0x2
 4587 0fd6 91       		.byte	0x91
 4588 0fd7 00       		.sleb128 0
 4589 0fd8 22       		.uleb128 0x22
 4590 0fd9 647000   		.ascii	"dp\000"
 4591 0fdc 01       		.byte	0x1
 4592 0fdd 4B03     		.2byte	0x34b
 4593 0fdf 200B0000 		.4byte	0xb20
 4594 0fe3 02       		.byte	0x2
 4595 0fe4 91       		.byte	0x91
 4596 0fe5 74       		.sleb128 -12
 4597 0fe6 22       		.uleb128 0x22
ARM GAS  C:\Users\z80\AppData\Local\Temp\ccyKjVO9.s 			page 83


 4598 0fe7 767400   		.ascii	"vt\000"
 4599 0fea 01       		.byte	0x1
 4600 0feb 4C03     		.2byte	0x34c
 4601 0fed 5F030000 		.4byte	0x35f
 4602 0ff1 02       		.byte	0x2
 4603 0ff2 91       		.byte	0x91
 4604 0ff3 60       		.sleb128 -32
 4605 0ff4 24       		.uleb128 0x24
 4606 0ff5 48000000 		.4byte	.LBB15
 4607 0ff9 50000000 		.4byte	.LBE15
 4608 0ffd 10100000 		.4byte	0x1010
 4609 1001 22       		.uleb128 0x22
 4610 1002 746D7000 		.ascii	"tmp\000"
 4611 1006 01       		.byte	0x1
 4612 1007 5703     		.2byte	0x357
 4613 1009 86000000 		.4byte	0x86
 4614 100d 01       		.byte	0x1
 4615 100e 53       		.byte	0x53
 4616 100f 00       		.byte	0
 4617 1010 24       		.uleb128 0x24
 4618 1011 84000000 		.4byte	.LBB16
 4619 1015 8C000000 		.4byte	.LBE16
 4620 1019 2C100000 		.4byte	0x102c
 4621 101d 22       		.uleb128 0x22
 4622 101e 746D7000 		.ascii	"tmp\000"
 4623 1022 01       		.byte	0x1
 4624 1023 6403     		.2byte	0x364
 4625 1025 86000000 		.4byte	0x86
 4626 1029 01       		.byte	0x1
 4627 102a 53       		.byte	0x53
 4628 102b 00       		.byte	0
 4629 102c 24       		.uleb128 0x24
 4630 102d A8000000 		.4byte	.LBB17
 4631 1031 B0000000 		.4byte	.LBE17
 4632 1035 48100000 		.4byte	0x1048
 4633 1039 22       		.uleb128 0x22
 4634 103a 746D7000 		.ascii	"tmp\000"
 4635 103e 01       		.byte	0x1
 4636 103f 6703     		.2byte	0x367
 4637 1041 86000000 		.4byte	0x86
 4638 1045 01       		.byte	0x1
 4639 1046 53       		.byte	0x53
 4640 1047 00       		.byte	0
 4641 1048 1F       		.uleb128 0x1f
 4642 1049 CC000000 		.4byte	.LBB18
 4643 104d D4000000 		.4byte	.LBE18
 4644 1051 22       		.uleb128 0x22
 4645 1052 746D7000 		.ascii	"tmp\000"
 4646 1056 01       		.byte	0x1
 4647 1057 6B03     		.2byte	0x36b
 4648 1059 86000000 		.4byte	0x86
 4649 105d 01       		.byte	0x1
 4650 105e 53       		.byte	0x53
 4651 105f 00       		.byte	0
 4652 1060 00       		.byte	0
 4653 1061 27       		.uleb128 0x27
 4654 1062 01       		.byte	0x1
ARM GAS  C:\Users\z80\AppData\Local\Temp\ccyKjVO9.s 			page 84


 4655 1063 D5080000 		.4byte	.LASF218
 4656 1067 01       		.byte	0x1
 4657 1068 9B03     		.2byte	0x39b
 4658 106a 01       		.byte	0x1
 4659 106b DD000000 		.4byte	0xdd
 4660 106f 00000000 		.4byte	.LFB76
 4661 1073 6C010000 		.4byte	.LFE76
 4662 1077 2C020000 		.4byte	.LLST14
 4663 107b 71110000 		.4byte	0x1171
 4664 107f 21       		.uleb128 0x21
 4665 1080 2E050000 		.4byte	.LASF196
 4666 1084 01       		.byte	0x1
 4667 1085 9B03     		.2byte	0x39b
 4668 1087 040B0000 		.4byte	0xb04
 4669 108b 02       		.byte	0x2
 4670 108c 91       		.byte	0x91
 4671 108d 5C       		.sleb128 -36
 4672 108e 21       		.uleb128 0x21
 4673 108f DD050000 		.4byte	.LASF180
 4674 1093 01       		.byte	0x1
 4675 1094 9B03     		.2byte	0x39b
 4676 1096 13090000 		.4byte	0x913
 4677 109a 02       		.byte	0x2
 4678 109b 91       		.byte	0x91
 4679 109c 5A       		.sleb128 -38
 4680 109d 21       		.uleb128 0x21
 4681 109e B0010000 		.4byte	.LASF189
 4682 10a2 01       		.byte	0x1
 4683 10a3 9C03     		.2byte	0x39c
 4684 10a5 DF040000 		.4byte	0x4df
 4685 10a9 02       		.byte	0x2
 4686 10aa 91       		.byte	0x91
 4687 10ab 54       		.sleb128 -44
 4688 10ac 21       		.uleb128 0x21
 4689 10ad FB060000 		.4byte	.LASF190
 4690 10b1 01       		.byte	0x1
 4691 10b2 9C03     		.2byte	0x39c
 4692 10b4 30000000 		.4byte	0x30
 4693 10b8 02       		.byte	0x2
 4694 10b9 91       		.byte	0x91
 4695 10ba 50       		.sleb128 -48
 4696 10bb 21       		.uleb128 0x21
 4697 10bc 33050000 		.4byte	.LASF185
 4698 10c0 01       		.byte	0x1
 4699 10c1 9D03     		.2byte	0x39d
 4700 10c3 D9040000 		.4byte	0x4d9
 4701 10c7 02       		.byte	0x2
 4702 10c8 91       		.byte	0x91
 4703 10c9 00       		.sleb128 0
 4704 10ca 21       		.uleb128 0x21
 4705 10cb 22060000 		.4byte	.LASF186
 4706 10cf 01       		.byte	0x1
 4707 10d0 9D03     		.2byte	0x39d
 4708 10d2 30000000 		.4byte	0x30
 4709 10d6 02       		.byte	0x2
 4710 10d7 91       		.byte	0x91
 4711 10d8 04       		.sleb128 4
ARM GAS  C:\Users\z80\AppData\Local\Temp\ccyKjVO9.s 			page 85


 4712 10d9 21       		.uleb128 0x21
 4713 10da BD050000 		.4byte	.LASF216
 4714 10de 01       		.byte	0x1
 4715 10df 9E03     		.2byte	0x39e
 4716 10e1 F3000000 		.4byte	0xf3
 4717 10e5 02       		.byte	0x2
 4718 10e6 91       		.byte	0x91
 4719 10e7 08       		.sleb128 8
 4720 10e8 22       		.uleb128 0x22
 4721 10e9 647000   		.ascii	"dp\000"
 4722 10ec 01       		.byte	0x1
 4723 10ed 9F03     		.2byte	0x39f
 4724 10ef 200B0000 		.4byte	0xb20
 4725 10f3 02       		.byte	0x2
 4726 10f4 91       		.byte	0x91
 4727 10f5 74       		.sleb128 -12
 4728 10f6 22       		.uleb128 0x22
 4729 10f7 767400   		.ascii	"vt\000"
 4730 10fa 01       		.byte	0x1
 4731 10fb A003     		.2byte	0x3a0
 4732 10fd 5F030000 		.4byte	0x35f
 4733 1101 02       		.byte	0x2
 4734 1102 91       		.byte	0x91
 4735 1103 60       		.sleb128 -32
 4736 1104 24       		.uleb128 0x24
 4737 1105 54000000 		.4byte	.LBB19
 4738 1109 5C000000 		.4byte	.LBE19
 4739 110d 20110000 		.4byte	0x1120
 4740 1111 22       		.uleb128 0x22
 4741 1112 746D7000 		.ascii	"tmp\000"
 4742 1116 01       		.byte	0x1
 4743 1117 AC03     		.2byte	0x3ac
 4744 1119 86000000 		.4byte	0x86
 4745 111d 01       		.byte	0x1
 4746 111e 53       		.byte	0x53
 4747 111f 00       		.byte	0
 4748 1120 24       		.uleb128 0x24
 4749 1121 9C000000 		.4byte	.LBB20
 4750 1125 A4000000 		.4byte	.LBE20
 4751 1129 3C110000 		.4byte	0x113c
 4752 112d 22       		.uleb128 0x22
 4753 112e 746D7000 		.ascii	"tmp\000"
 4754 1132 01       		.byte	0x1
 4755 1133 BD03     		.2byte	0x3bd
 4756 1135 86000000 		.4byte	0x86
 4757 1139 01       		.byte	0x1
 4758 113a 53       		.byte	0x53
 4759 113b 00       		.byte	0
 4760 113c 24       		.uleb128 0x24
 4761 113d C0000000 		.4byte	.LBB21
 4762 1141 C8000000 		.4byte	.LBE21
 4763 1145 58110000 		.4byte	0x1158
 4764 1149 22       		.uleb128 0x22
 4765 114a 746D7000 		.ascii	"tmp\000"
 4766 114e 01       		.byte	0x1
 4767 114f C003     		.2byte	0x3c0
 4768 1151 86000000 		.4byte	0x86
ARM GAS  C:\Users\z80\AppData\Local\Temp\ccyKjVO9.s 			page 86


 4769 1155 01       		.byte	0x1
 4770 1156 53       		.byte	0x53
 4771 1157 00       		.byte	0
 4772 1158 1F       		.uleb128 0x1f
 4773 1159 E4000000 		.4byte	.LBB22
 4774 115d EC000000 		.4byte	.LBE22
 4775 1161 22       		.uleb128 0x22
 4776 1162 746D7000 		.ascii	"tmp\000"
 4777 1166 01       		.byte	0x1
 4778 1167 C403     		.2byte	0x3c4
 4779 1169 86000000 		.4byte	0x86
 4780 116d 01       		.byte	0x1
 4781 116e 53       		.byte	0x53
 4782 116f 00       		.byte	0
 4783 1170 00       		.byte	0
 4784 1171 27       		.uleb128 0x27
 4785 1172 01       		.byte	0x1
 4786 1173 2E000000 		.4byte	.LASF219
 4787 1177 01       		.byte	0x1
 4788 1178 DD03     		.2byte	0x3dd
 4789 117a 01       		.byte	0x1
 4790 117b DD000000 		.4byte	0xdd
 4791 117f 00000000 		.4byte	.LFB77
 4792 1183 8A010000 		.4byte	.LFE77
 4793 1187 58020000 		.4byte	.LLST15
 4794 118b 9F120000 		.4byte	0x129f
 4795 118f 21       		.uleb128 0x21
 4796 1190 2E050000 		.4byte	.LASF196
 4797 1194 01       		.byte	0x1
 4798 1195 DD03     		.2byte	0x3dd
 4799 1197 040B0000 		.4byte	0xb04
 4800 119b 02       		.byte	0x2
 4801 119c 91       		.byte	0x91
 4802 119d 5C       		.sleb128 -36
 4803 119e 21       		.uleb128 0x21
 4804 119f DD050000 		.4byte	.LASF180
 4805 11a3 01       		.byte	0x1
 4806 11a4 DD03     		.2byte	0x3dd
 4807 11a6 13090000 		.4byte	0x913
 4808 11aa 02       		.byte	0x2
 4809 11ab 91       		.byte	0x91
 4810 11ac 5A       		.sleb128 -38
 4811 11ad 21       		.uleb128 0x21
 4812 11ae 33050000 		.4byte	.LASF185
 4813 11b2 01       		.byte	0x1
 4814 11b3 DE03     		.2byte	0x3de
 4815 11b5 D9040000 		.4byte	0x4d9
 4816 11b9 02       		.byte	0x2
 4817 11ba 91       		.byte	0x91
 4818 11bb 54       		.sleb128 -44
 4819 11bc 21       		.uleb128 0x21
 4820 11bd 22060000 		.4byte	.LASF186
 4821 11c1 01       		.byte	0x1
 4822 11c2 DE03     		.2byte	0x3de
 4823 11c4 30000000 		.4byte	0x30
 4824 11c8 02       		.byte	0x2
 4825 11c9 91       		.byte	0x91
ARM GAS  C:\Users\z80\AppData\Local\Temp\ccyKjVO9.s 			page 87


 4826 11ca 50       		.sleb128 -48
 4827 11cb 21       		.uleb128 0x21
 4828 11cc B0010000 		.4byte	.LASF189
 4829 11d0 01       		.byte	0x1
 4830 11d1 DF03     		.2byte	0x3df
 4831 11d3 D9040000 		.4byte	0x4d9
 4832 11d7 02       		.byte	0x2
 4833 11d8 91       		.byte	0x91
 4834 11d9 00       		.sleb128 0
 4835 11da 21       		.uleb128 0x21
 4836 11db FB060000 		.4byte	.LASF190
 4837 11df 01       		.byte	0x1
 4838 11e0 DF03     		.2byte	0x3df
 4839 11e2 30000000 		.4byte	0x30
 4840 11e6 02       		.byte	0x2
 4841 11e7 91       		.byte	0x91
 4842 11e8 04       		.sleb128 4
 4843 11e9 21       		.uleb128 0x21
 4844 11ea D7040000 		.4byte	.LASF188
 4845 11ee 01       		.byte	0x1
 4846 11ef E003     		.2byte	0x3e0
 4847 11f1 E60A0000 		.4byte	0xae6
 4848 11f5 02       		.byte	0x2
 4849 11f6 91       		.byte	0x91
 4850 11f7 08       		.sleb128 8
 4851 11f8 21       		.uleb128 0x21
 4852 11f9 0E050000 		.4byte	.LASF192
 4853 11fd 01       		.byte	0x1
 4854 11fe E103     		.2byte	0x3e1
 4855 1200 E60A0000 		.4byte	0xae6
 4856 1204 02       		.byte	0x2
 4857 1205 91       		.byte	0x91
 4858 1206 0C       		.sleb128 12
 4859 1207 21       		.uleb128 0x21
 4860 1208 BD050000 		.4byte	.LASF216
 4861 120c 01       		.byte	0x1
 4862 120d E203     		.2byte	0x3e2
 4863 120f F3000000 		.4byte	0xf3
 4864 1213 02       		.byte	0x2
 4865 1214 91       		.byte	0x91
 4866 1215 10       		.sleb128 16
 4867 1216 22       		.uleb128 0x22
 4868 1217 647000   		.ascii	"dp\000"
 4869 121a 01       		.byte	0x1
 4870 121b E403     		.2byte	0x3e4
 4871 121d 200B0000 		.4byte	0xb20
 4872 1221 02       		.byte	0x2
 4873 1222 91       		.byte	0x91
 4874 1223 74       		.sleb128 -12
 4875 1224 22       		.uleb128 0x22
 4876 1225 767400   		.ascii	"vt\000"
 4877 1228 01       		.byte	0x1
 4878 1229 E503     		.2byte	0x3e5
 4879 122b 5F030000 		.4byte	0x35f
 4880 122f 02       		.byte	0x2
 4881 1230 91       		.byte	0x91
 4882 1231 60       		.sleb128 -32
ARM GAS  C:\Users\z80\AppData\Local\Temp\ccyKjVO9.s 			page 88


 4883 1232 24       		.uleb128 0x24
 4884 1233 44000000 		.4byte	.LBB23
 4885 1237 4C000000 		.4byte	.LBE23
 4886 123b 4E120000 		.4byte	0x124e
 4887 123f 22       		.uleb128 0x22
 4888 1240 746D7000 		.ascii	"tmp\000"
 4889 1244 01       		.byte	0x1
 4890 1245 EE03     		.2byte	0x3ee
 4891 1247 86000000 		.4byte	0x86
 4892 124b 01       		.byte	0x1
 4893 124c 53       		.byte	0x53
 4894 124d 00       		.byte	0
 4895 124e 24       		.uleb128 0x24
 4896 124f 4E000000 		.4byte	.LBB24
 4897 1253 56000000 		.4byte	.LBE24
 4898 1257 6A120000 		.4byte	0x126a
 4899 125b 22       		.uleb128 0x22
 4900 125c 746D7000 		.ascii	"tmp\000"
 4901 1260 01       		.byte	0x1
 4902 1261 F103     		.2byte	0x3f1
 4903 1263 86000000 		.4byte	0x86
 4904 1267 01       		.byte	0x1
 4905 1268 53       		.byte	0x53
 4906 1269 00       		.byte	0
 4907 126a 24       		.uleb128 0x24
 4908 126b 72000000 		.4byte	.LBB25
 4909 126f 7A000000 		.4byte	.LBE25
 4910 1273 86120000 		.4byte	0x1286
 4911 1277 22       		.uleb128 0x22
 4912 1278 746D7000 		.ascii	"tmp\000"
 4913 127c 01       		.byte	0x1
 4914 127d F403     		.2byte	0x3f4
 4915 127f 86000000 		.4byte	0x86
 4916 1283 01       		.byte	0x1
 4917 1284 53       		.byte	0x53
 4918 1285 00       		.byte	0
 4919 1286 1F       		.uleb128 0x1f
 4920 1287 96000000 		.4byte	.LBB26
 4921 128b 9E000000 		.4byte	.LBE26
 4922 128f 22       		.uleb128 0x22
 4923 1290 746D7000 		.ascii	"tmp\000"
 4924 1294 01       		.byte	0x1
 4925 1295 F803     		.2byte	0x3f8
 4926 1297 86000000 		.4byte	0x86
 4927 129b 01       		.byte	0x1
 4928 129c 53       		.byte	0x53
 4929 129d 00       		.byte	0
 4930 129e 00       		.byte	0
 4931 129f 1E       		.uleb128 0x1e
 4932 12a0 F0050000 		.4byte	.LASF220
 4933 12a4 01       		.byte	0x1
 4934 12a5 73       		.byte	0x73
 4935 12a6 29060000 		.4byte	0x629
 4936 12aa 05       		.byte	0x5
 4937 12ab 03       		.byte	0x3
 4938 12ac 00000000 		.4byte	dbgSR1
 4939 12b0 1E       		.uleb128 0x1e
ARM GAS  C:\Users\z80\AppData\Local\Temp\ccyKjVO9.s 			page 89


 4940 12b1 F7050000 		.4byte	.LASF221
 4941 12b5 01       		.byte	0x1
 4942 12b6 74       		.byte	0x74
 4943 12b7 29060000 		.4byte	0x629
 4944 12bb 05       		.byte	0x5
 4945 12bc 03       		.byte	0x3
 4946 12bd 00000000 		.4byte	dbgSR2
 4947 12c1 1E       		.uleb128 0x1e
 4948 12c2 9B030000 		.4byte	.LASF222
 4949 12c6 01       		.byte	0x1
 4950 12c7 75       		.byte	0x75
 4951 12c8 29060000 		.4byte	0x629
 4952 12cc 05       		.byte	0x5
 4953 12cd 03       		.byte	0x3
 4954 12ce 00000000 		.4byte	dbgCR1
 4955 12d2 1E       		.uleb128 0x1e
 4956 12d3 A2030000 		.4byte	.LASF223
 4957 12d7 01       		.byte	0x1
 4958 12d8 76       		.byte	0x76
 4959 12d9 29060000 		.4byte	0x629
 4960 12dd 05       		.byte	0x5
 4961 12de 03       		.byte	0x3
 4962 12df 00000000 		.4byte	dbgCR2
 4963 12e3 28       		.uleb128 0x28
 4964 12e4 DA070000 		.4byte	.LASF224
 4965 12e8 09       		.byte	0x9
 4966 12e9 72       		.byte	0x72
 4967 12ea 33040000 		.4byte	0x433
 4968 12ee 01       		.byte	0x1
 4969 12ef 01       		.byte	0x1
 4970 12f0 29       		.uleb128 0x29
 4971 12f1 B0050000 		.4byte	.LASF225
 4972 12f5 0F       		.byte	0xf
 4973 12f6 9404     		.2byte	0x494
 4974 12f8 2E060000 		.4byte	0x62e
 4975 12fc 01       		.byte	0x1
 4976 12fd 01       		.byte	0x1
 4977 12fe 2A       		.uleb128 0x2a
 4978 12ff AE080000 		.4byte	0x8ae
 4979 1303 0E130000 		.4byte	0x130e
 4980 1307 2B       		.uleb128 0x2b
 4981 1308 3B000000 		.4byte	0x3b
 4982 130c 06       		.byte	0x6
 4983 130d 00       		.byte	0
 4984 130e 29       		.uleb128 0x29
 4985 130f AB040000 		.4byte	.LASF226
 4986 1313 0C       		.byte	0xc
 4987 1314 8201     		.2byte	0x182
 4988 1316 1C130000 		.4byte	0x131c
 4989 131a 01       		.byte	0x1
 4990 131b 01       		.byte	0x1
 4991 131c 12       		.uleb128 0x12
 4992 131d FE120000 		.4byte	0x12fe
 4993 1321 2C       		.uleb128 0x2c
 4994 1322 1A030000 		.4byte	.LASF227
 4995 1326 01       		.byte	0x1
 4996 1327 5F       		.byte	0x5f
ARM GAS  C:\Users\z80\AppData\Local\Temp\ccyKjVO9.s 			page 90


 4997 1328 BE090000 		.4byte	0x9be
 4998 132c 01       		.byte	0x1
 4999 132d 05       		.byte	0x5
 5000 132e 03       		.byte	0x3
 5001 132f 00000000 		.4byte	I2CD1
 5002 1333 00       		.byte	0
 5003              		.section	.debug_abbrev,"",%progbits
 5004              	.Ldebug_abbrev0:
 5005 0000 01       		.uleb128 0x1
 5006 0001 11       		.uleb128 0x11
 5007 0002 01       		.byte	0x1
 5008 0003 25       		.uleb128 0x25
 5009 0004 0E       		.uleb128 0xe
 5010 0005 13       		.uleb128 0x13
 5011 0006 0B       		.uleb128 0xb
 5012 0007 03       		.uleb128 0x3
 5013 0008 0E       		.uleb128 0xe
 5014 0009 1B       		.uleb128 0x1b
 5015 000a 0E       		.uleb128 0xe
 5016 000b 11       		.uleb128 0x11
 5017 000c 01       		.uleb128 0x1
 5018 000d 52       		.uleb128 0x52
 5019 000e 01       		.uleb128 0x1
 5020 000f 55       		.uleb128 0x55
 5021 0010 06       		.uleb128 0x6
 5022 0011 10       		.uleb128 0x10
 5023 0012 06       		.uleb128 0x6
 5024 0013 00       		.byte	0
 5025 0014 00       		.byte	0
 5026 0015 02       		.uleb128 0x2
 5027 0016 24       		.uleb128 0x24
 5028 0017 00       		.byte	0
 5029 0018 0B       		.uleb128 0xb
 5030 0019 0B       		.uleb128 0xb
 5031 001a 3E       		.uleb128 0x3e
 5032 001b 0B       		.uleb128 0xb
 5033 001c 03       		.uleb128 0x3
 5034 001d 08       		.uleb128 0x8
 5035 001e 00       		.byte	0
 5036 001f 00       		.byte	0
 5037 0020 03       		.uleb128 0x3
 5038 0021 16       		.uleb128 0x16
 5039 0022 00       		.byte	0
 5040 0023 03       		.uleb128 0x3
 5041 0024 0E       		.uleb128 0xe
 5042 0025 3A       		.uleb128 0x3a
 5043 0026 0B       		.uleb128 0xb
 5044 0027 3B       		.uleb128 0x3b
 5045 0028 0B       		.uleb128 0xb
 5046 0029 49       		.uleb128 0x49
 5047 002a 13       		.uleb128 0x13
 5048 002b 00       		.byte	0
 5049 002c 00       		.byte	0
 5050 002d 04       		.uleb128 0x4
 5051 002e 24       		.uleb128 0x24
 5052 002f 00       		.byte	0
 5053 0030 0B       		.uleb128 0xb
ARM GAS  C:\Users\z80\AppData\Local\Temp\ccyKjVO9.s 			page 91


 5054 0031 0B       		.uleb128 0xb
 5055 0032 3E       		.uleb128 0x3e
 5056 0033 0B       		.uleb128 0xb
 5057 0034 03       		.uleb128 0x3
 5058 0035 0E       		.uleb128 0xe
 5059 0036 00       		.byte	0
 5060 0037 00       		.byte	0
 5061 0038 05       		.uleb128 0x5
 5062 0039 13       		.uleb128 0x13
 5063 003a 01       		.byte	0x1
 5064 003b 03       		.uleb128 0x3
 5065 003c 0E       		.uleb128 0xe
 5066 003d 0B       		.uleb128 0xb
 5067 003e 0B       		.uleb128 0xb
 5068 003f 3A       		.uleb128 0x3a
 5069 0040 0B       		.uleb128 0xb
 5070 0041 3B       		.uleb128 0x3b
 5071 0042 0B       		.uleb128 0xb
 5072 0043 01       		.uleb128 0x1
 5073 0044 13       		.uleb128 0x13
 5074 0045 00       		.byte	0
 5075 0046 00       		.byte	0
 5076 0047 06       		.uleb128 0x6
 5077 0048 0D       		.uleb128 0xd
 5078 0049 00       		.byte	0
 5079 004a 03       		.uleb128 0x3
 5080 004b 0E       		.uleb128 0xe
 5081 004c 3A       		.uleb128 0x3a
 5082 004d 0B       		.uleb128 0xb
 5083 004e 3B       		.uleb128 0x3b
 5084 004f 0B       		.uleb128 0xb
 5085 0050 49       		.uleb128 0x49
 5086 0051 13       		.uleb128 0x13
 5087 0052 38       		.uleb128 0x38
 5088 0053 0A       		.uleb128 0xa
 5089 0054 00       		.byte	0
 5090 0055 00       		.byte	0
 5091 0056 07       		.uleb128 0x7
 5092 0057 0D       		.uleb128 0xd
 5093 0058 00       		.byte	0
 5094 0059 03       		.uleb128 0x3
 5095 005a 08       		.uleb128 0x8
 5096 005b 3A       		.uleb128 0x3a
 5097 005c 0B       		.uleb128 0xb
 5098 005d 3B       		.uleb128 0x3b
 5099 005e 0B       		.uleb128 0xb
 5100 005f 49       		.uleb128 0x49
 5101 0060 13       		.uleb128 0x13
 5102 0061 38       		.uleb128 0x38
 5103 0062 0A       		.uleb128 0xa
 5104 0063 00       		.byte	0
 5105 0064 00       		.byte	0
 5106 0065 08       		.uleb128 0x8
 5107 0066 13       		.uleb128 0x13
 5108 0067 01       		.byte	0x1
 5109 0068 0B       		.uleb128 0xb
 5110 0069 0B       		.uleb128 0xb
ARM GAS  C:\Users\z80\AppData\Local\Temp\ccyKjVO9.s 			page 92


 5111 006a 3A       		.uleb128 0x3a
 5112 006b 0B       		.uleb128 0xb
 5113 006c 3B       		.uleb128 0x3b
 5114 006d 0B       		.uleb128 0xb
 5115 006e 01       		.uleb128 0x1
 5116 006f 13       		.uleb128 0x13
 5117 0070 00       		.byte	0
 5118 0071 00       		.byte	0
 5119 0072 09       		.uleb128 0x9
 5120 0073 0F       		.uleb128 0xf
 5121 0074 00       		.byte	0
 5122 0075 0B       		.uleb128 0xb
 5123 0076 0B       		.uleb128 0xb
 5124 0077 49       		.uleb128 0x49
 5125 0078 13       		.uleb128 0x13
 5126 0079 00       		.byte	0
 5127 007a 00       		.byte	0
 5128 007b 0A       		.uleb128 0xa
 5129 007c 0F       		.uleb128 0xf
 5130 007d 00       		.byte	0
 5131 007e 0B       		.uleb128 0xb
 5132 007f 0B       		.uleb128 0xb
 5133 0080 00       		.byte	0
 5134 0081 00       		.byte	0
 5135 0082 0B       		.uleb128 0xb
 5136 0083 0D       		.uleb128 0xd
 5137 0084 00       		.byte	0
 5138 0085 03       		.uleb128 0x3
 5139 0086 08       		.uleb128 0x8
 5140 0087 3A       		.uleb128 0x3a
 5141 0088 0B       		.uleb128 0xb
 5142 0089 3B       		.uleb128 0x3b
 5143 008a 05       		.uleb128 0x5
 5144 008b 49       		.uleb128 0x49
 5145 008c 13       		.uleb128 0x13
 5146 008d 38       		.uleb128 0x38
 5147 008e 0A       		.uleb128 0xa
 5148 008f 00       		.byte	0
 5149 0090 00       		.byte	0
 5150 0091 0C       		.uleb128 0xc
 5151 0092 13       		.uleb128 0x13
 5152 0093 01       		.byte	0x1
 5153 0094 03       		.uleb128 0x3
 5154 0095 0E       		.uleb128 0xe
 5155 0096 0B       		.uleb128 0xb
 5156 0097 0B       		.uleb128 0xb
 5157 0098 3A       		.uleb128 0x3a
 5158 0099 0B       		.uleb128 0xb
 5159 009a 3B       		.uleb128 0x3b
 5160 009b 05       		.uleb128 0x5
 5161 009c 01       		.uleb128 0x1
 5162 009d 13       		.uleb128 0x13
 5163 009e 00       		.byte	0
 5164 009f 00       		.byte	0
 5165 00a0 0D       		.uleb128 0xd
 5166 00a1 35       		.uleb128 0x35
 5167 00a2 00       		.byte	0
ARM GAS  C:\Users\z80\AppData\Local\Temp\ccyKjVO9.s 			page 93


 5168 00a3 49       		.uleb128 0x49
 5169 00a4 13       		.uleb128 0x13
 5170 00a5 00       		.byte	0
 5171 00a6 00       		.byte	0
 5172 00a7 0E       		.uleb128 0xe
 5173 00a8 15       		.uleb128 0x15
 5174 00a9 01       		.byte	0x1
 5175 00aa 27       		.uleb128 0x27
 5176 00ab 0C       		.uleb128 0xc
 5177 00ac 01       		.uleb128 0x1
 5178 00ad 13       		.uleb128 0x13
 5179 00ae 00       		.byte	0
 5180 00af 00       		.byte	0
 5181 00b0 0F       		.uleb128 0xf
 5182 00b1 05       		.uleb128 0x5
 5183 00b2 00       		.byte	0
 5184 00b3 49       		.uleb128 0x49
 5185 00b4 13       		.uleb128 0x13
 5186 00b5 00       		.byte	0
 5187 00b6 00       		.byte	0
 5188 00b7 10       		.uleb128 0x10
 5189 00b8 17       		.uleb128 0x17
 5190 00b9 01       		.byte	0x1
 5191 00ba 0B       		.uleb128 0xb
 5192 00bb 0B       		.uleb128 0xb
 5193 00bc 3A       		.uleb128 0x3a
 5194 00bd 0B       		.uleb128 0xb
 5195 00be 3B       		.uleb128 0x3b
 5196 00bf 0B       		.uleb128 0xb
 5197 00c0 01       		.uleb128 0x1
 5198 00c1 13       		.uleb128 0x13
 5199 00c2 00       		.byte	0
 5200 00c3 00       		.byte	0
 5201 00c4 11       		.uleb128 0x11
 5202 00c5 0D       		.uleb128 0xd
 5203 00c6 00       		.byte	0
 5204 00c7 03       		.uleb128 0x3
 5205 00c8 0E       		.uleb128 0xe
 5206 00c9 3A       		.uleb128 0x3a
 5207 00ca 0B       		.uleb128 0xb
 5208 00cb 3B       		.uleb128 0x3b
 5209 00cc 0B       		.uleb128 0xb
 5210 00cd 49       		.uleb128 0x49
 5211 00ce 13       		.uleb128 0x13
 5212 00cf 00       		.byte	0
 5213 00d0 00       		.byte	0
 5214 00d1 12       		.uleb128 0x12
 5215 00d2 26       		.uleb128 0x26
 5216 00d3 00       		.byte	0
 5217 00d4 49       		.uleb128 0x49
 5218 00d5 13       		.uleb128 0x13
 5219 00d6 00       		.byte	0
 5220 00d7 00       		.byte	0
 5221 00d8 13       		.uleb128 0x13
 5222 00d9 04       		.uleb128 0x4
 5223 00da 01       		.byte	0x1
 5224 00db 03       		.uleb128 0x3
ARM GAS  C:\Users\z80\AppData\Local\Temp\ccyKjVO9.s 			page 94


 5225 00dc 0E       		.uleb128 0xe
 5226 00dd 0B       		.uleb128 0xb
 5227 00de 0B       		.uleb128 0xb
 5228 00df 3A       		.uleb128 0x3a
 5229 00e0 0B       		.uleb128 0xb
 5230 00e1 3B       		.uleb128 0x3b
 5231 00e2 0B       		.uleb128 0xb
 5232 00e3 01       		.uleb128 0x1
 5233 00e4 13       		.uleb128 0x13
 5234 00e5 00       		.byte	0
 5235 00e6 00       		.byte	0
 5236 00e7 14       		.uleb128 0x14
 5237 00e8 28       		.uleb128 0x28
 5238 00e9 00       		.byte	0
 5239 00ea 03       		.uleb128 0x3
 5240 00eb 0E       		.uleb128 0xe
 5241 00ec 1C       		.uleb128 0x1c
 5242 00ed 0D       		.uleb128 0xd
 5243 00ee 00       		.byte	0
 5244 00ef 00       		.byte	0
 5245 00f0 15       		.uleb128 0x15
 5246 00f1 13       		.uleb128 0x13
 5247 00f2 01       		.byte	0x1
 5248 00f3 0B       		.uleb128 0xb
 5249 00f4 0B       		.uleb128 0xb
 5250 00f5 3A       		.uleb128 0x3a
 5251 00f6 0B       		.uleb128 0xb
 5252 00f7 3B       		.uleb128 0x3b
 5253 00f8 05       		.uleb128 0x5
 5254 00f9 01       		.uleb128 0x1
 5255 00fa 13       		.uleb128 0x13
 5256 00fb 00       		.byte	0
 5257 00fc 00       		.byte	0
 5258 00fd 16       		.uleb128 0x16
 5259 00fe 0D       		.uleb128 0xd
 5260 00ff 00       		.byte	0
 5261 0100 03       		.uleb128 0x3
 5262 0101 0E       		.uleb128 0xe
 5263 0102 3A       		.uleb128 0x3a
 5264 0103 0B       		.uleb128 0xb
 5265 0104 3B       		.uleb128 0x3b
 5266 0105 05       		.uleb128 0x5
 5267 0106 49       		.uleb128 0x49
 5268 0107 13       		.uleb128 0x13
 5269 0108 38       		.uleb128 0x38
 5270 0109 0A       		.uleb128 0xa
 5271 010a 00       		.byte	0
 5272 010b 00       		.byte	0
 5273 010c 17       		.uleb128 0x17
 5274 010d 16       		.uleb128 0x16
 5275 010e 00       		.byte	0
 5276 010f 03       		.uleb128 0x3
 5277 0110 0E       		.uleb128 0xe
 5278 0111 3A       		.uleb128 0x3a
 5279 0112 0B       		.uleb128 0xb
 5280 0113 3B       		.uleb128 0x3b
 5281 0114 05       		.uleb128 0x5
ARM GAS  C:\Users\z80\AppData\Local\Temp\ccyKjVO9.s 			page 95


 5282 0115 49       		.uleb128 0x49
 5283 0116 13       		.uleb128 0x13
 5284 0117 00       		.byte	0
 5285 0118 00       		.byte	0
 5286 0119 18       		.uleb128 0x18
 5287 011a 04       		.uleb128 0x4
 5288 011b 01       		.byte	0x1
 5289 011c 0B       		.uleb128 0xb
 5290 011d 0B       		.uleb128 0xb
 5291 011e 3A       		.uleb128 0x3a
 5292 011f 0B       		.uleb128 0xb
 5293 0120 3B       		.uleb128 0x3b
 5294 0121 0B       		.uleb128 0xb
 5295 0122 01       		.uleb128 0x1
 5296 0123 13       		.uleb128 0x13
 5297 0124 00       		.byte	0
 5298 0125 00       		.byte	0
 5299 0126 19       		.uleb128 0x19
 5300 0127 04       		.uleb128 0x4
 5301 0128 01       		.byte	0x1
 5302 0129 0B       		.uleb128 0xb
 5303 012a 0B       		.uleb128 0xb
 5304 012b 3A       		.uleb128 0x3a
 5305 012c 0B       		.uleb128 0xb
 5306 012d 3B       		.uleb128 0x3b
 5307 012e 05       		.uleb128 0x5
 5308 012f 01       		.uleb128 0x1
 5309 0130 13       		.uleb128 0x13
 5310 0131 00       		.byte	0
 5311 0132 00       		.byte	0
 5312 0133 1A       		.uleb128 0x1a
 5313 0134 2E       		.uleb128 0x2e
 5314 0135 01       		.byte	0x1
 5315 0136 03       		.uleb128 0x3
 5316 0137 0E       		.uleb128 0xe
 5317 0138 3A       		.uleb128 0x3a
 5318 0139 0B       		.uleb128 0xb
 5319 013a 3B       		.uleb128 0x3b
 5320 013b 0B       		.uleb128 0xb
 5321 013c 27       		.uleb128 0x27
 5322 013d 0C       		.uleb128 0xc
 5323 013e 11       		.uleb128 0x11
 5324 013f 01       		.uleb128 0x1
 5325 0140 12       		.uleb128 0x12
 5326 0141 01       		.uleb128 0x1
 5327 0142 40       		.uleb128 0x40
 5328 0143 06       		.uleb128 0x6
 5329 0144 01       		.uleb128 0x1
 5330 0145 13       		.uleb128 0x13
 5331 0146 00       		.byte	0
 5332 0147 00       		.byte	0
 5333 0148 1B       		.uleb128 0x1b
 5334 0149 05       		.uleb128 0x5
 5335 014a 00       		.byte	0
 5336 014b 03       		.uleb128 0x3
 5337 014c 0E       		.uleb128 0xe
 5338 014d 3A       		.uleb128 0x3a
ARM GAS  C:\Users\z80\AppData\Local\Temp\ccyKjVO9.s 			page 96


 5339 014e 0B       		.uleb128 0xb
 5340 014f 3B       		.uleb128 0x3b
 5341 0150 0B       		.uleb128 0xb
 5342 0151 49       		.uleb128 0x49
 5343 0152 13       		.uleb128 0x13
 5344 0153 02       		.uleb128 0x2
 5345 0154 0A       		.uleb128 0xa
 5346 0155 00       		.byte	0
 5347 0156 00       		.byte	0
 5348 0157 1C       		.uleb128 0x1c
 5349 0158 34       		.uleb128 0x34
 5350 0159 00       		.byte	0
 5351 015a 03       		.uleb128 0x3
 5352 015b 08       		.uleb128 0x8
 5353 015c 3A       		.uleb128 0x3a
 5354 015d 0B       		.uleb128 0xb
 5355 015e 3B       		.uleb128 0x3b
 5356 015f 0B       		.uleb128 0xb
 5357 0160 49       		.uleb128 0x49
 5358 0161 13       		.uleb128 0x13
 5359 0162 02       		.uleb128 0x2
 5360 0163 0A       		.uleb128 0xa
 5361 0164 00       		.byte	0
 5362 0165 00       		.byte	0
 5363 0166 1D       		.uleb128 0x1d
 5364 0167 05       		.uleb128 0x5
 5365 0168 00       		.byte	0
 5366 0169 03       		.uleb128 0x3
 5367 016a 08       		.uleb128 0x8
 5368 016b 3A       		.uleb128 0x3a
 5369 016c 0B       		.uleb128 0xb
 5370 016d 3B       		.uleb128 0x3b
 5371 016e 0B       		.uleb128 0xb
 5372 016f 49       		.uleb128 0x49
 5373 0170 13       		.uleb128 0x13
 5374 0171 02       		.uleb128 0x2
 5375 0172 0A       		.uleb128 0xa
 5376 0173 00       		.byte	0
 5377 0174 00       		.byte	0
 5378 0175 1E       		.uleb128 0x1e
 5379 0176 34       		.uleb128 0x34
 5380 0177 00       		.byte	0
 5381 0178 03       		.uleb128 0x3
 5382 0179 0E       		.uleb128 0xe
 5383 017a 3A       		.uleb128 0x3a
 5384 017b 0B       		.uleb128 0xb
 5385 017c 3B       		.uleb128 0x3b
 5386 017d 0B       		.uleb128 0xb
 5387 017e 49       		.uleb128 0x49
 5388 017f 13       		.uleb128 0x13
 5389 0180 02       		.uleb128 0x2
 5390 0181 0A       		.uleb128 0xa
 5391 0182 00       		.byte	0
 5392 0183 00       		.byte	0
 5393 0184 1F       		.uleb128 0x1f
 5394 0185 0B       		.uleb128 0xb
 5395 0186 01       		.byte	0x1
ARM GAS  C:\Users\z80\AppData\Local\Temp\ccyKjVO9.s 			page 97


 5396 0187 11       		.uleb128 0x11
 5397 0188 01       		.uleb128 0x1
 5398 0189 12       		.uleb128 0x12
 5399 018a 01       		.uleb128 0x1
 5400 018b 00       		.byte	0
 5401 018c 00       		.byte	0
 5402 018d 20       		.uleb128 0x20
 5403 018e 2E       		.uleb128 0x2e
 5404 018f 01       		.byte	0x1
 5405 0190 03       		.uleb128 0x3
 5406 0191 0E       		.uleb128 0xe
 5407 0192 3A       		.uleb128 0x3a
 5408 0193 0B       		.uleb128 0xb
 5409 0194 3B       		.uleb128 0x3b
 5410 0195 05       		.uleb128 0x5
 5411 0196 27       		.uleb128 0x27
 5412 0197 0C       		.uleb128 0xc
 5413 0198 11       		.uleb128 0x11
 5414 0199 01       		.uleb128 0x1
 5415 019a 12       		.uleb128 0x12
 5416 019b 01       		.uleb128 0x1
 5417 019c 40       		.uleb128 0x40
 5418 019d 06       		.uleb128 0x6
 5419 019e 01       		.uleb128 0x1
 5420 019f 13       		.uleb128 0x13
 5421 01a0 00       		.byte	0
 5422 01a1 00       		.byte	0
 5423 01a2 21       		.uleb128 0x21
 5424 01a3 05       		.uleb128 0x5
 5425 01a4 00       		.byte	0
 5426 01a5 03       		.uleb128 0x3
 5427 01a6 0E       		.uleb128 0xe
 5428 01a7 3A       		.uleb128 0x3a
 5429 01a8 0B       		.uleb128 0xb
 5430 01a9 3B       		.uleb128 0x3b
 5431 01aa 05       		.uleb128 0x5
 5432 01ab 49       		.uleb128 0x49
 5433 01ac 13       		.uleb128 0x13
 5434 01ad 02       		.uleb128 0x2
 5435 01ae 0A       		.uleb128 0xa
 5436 01af 00       		.byte	0
 5437 01b0 00       		.byte	0
 5438 01b1 22       		.uleb128 0x22
 5439 01b2 34       		.uleb128 0x34
 5440 01b3 00       		.byte	0
 5441 01b4 03       		.uleb128 0x3
 5442 01b5 08       		.uleb128 0x8
 5443 01b6 3A       		.uleb128 0x3a
 5444 01b7 0B       		.uleb128 0xb
 5445 01b8 3B       		.uleb128 0x3b
 5446 01b9 05       		.uleb128 0x5
 5447 01ba 49       		.uleb128 0x49
 5448 01bb 13       		.uleb128 0x13
 5449 01bc 02       		.uleb128 0x2
 5450 01bd 0A       		.uleb128 0xa
 5451 01be 00       		.byte	0
 5452 01bf 00       		.byte	0
ARM GAS  C:\Users\z80\AppData\Local\Temp\ccyKjVO9.s 			page 98


 5453 01c0 23       		.uleb128 0x23
 5454 01c1 34       		.uleb128 0x34
 5455 01c2 00       		.byte	0
 5456 01c3 03       		.uleb128 0x3
 5457 01c4 0E       		.uleb128 0xe
 5458 01c5 3A       		.uleb128 0x3a
 5459 01c6 0B       		.uleb128 0xb
 5460 01c7 3B       		.uleb128 0x3b
 5461 01c8 05       		.uleb128 0x5
 5462 01c9 49       		.uleb128 0x49
 5463 01ca 13       		.uleb128 0x13
 5464 01cb 02       		.uleb128 0x2
 5465 01cc 0A       		.uleb128 0xa
 5466 01cd 00       		.byte	0
 5467 01ce 00       		.byte	0
 5468 01cf 24       		.uleb128 0x24
 5469 01d0 0B       		.uleb128 0xb
 5470 01d1 01       		.byte	0x1
 5471 01d2 11       		.uleb128 0x11
 5472 01d3 01       		.uleb128 0x1
 5473 01d4 12       		.uleb128 0x12
 5474 01d5 01       		.uleb128 0x1
 5475 01d6 01       		.uleb128 0x1
 5476 01d7 13       		.uleb128 0x13
 5477 01d8 00       		.byte	0
 5478 01d9 00       		.byte	0
 5479 01da 25       		.uleb128 0x25
 5480 01db 2E       		.uleb128 0x2e
 5481 01dc 00       		.byte	0
 5482 01dd 3F       		.uleb128 0x3f
 5483 01de 0C       		.uleb128 0xc
 5484 01df 03       		.uleb128 0x3
 5485 01e0 0E       		.uleb128 0xe
 5486 01e1 3A       		.uleb128 0x3a
 5487 01e2 0B       		.uleb128 0xb
 5488 01e3 3B       		.uleb128 0x3b
 5489 01e4 05       		.uleb128 0x5
 5490 01e5 27       		.uleb128 0x27
 5491 01e6 0C       		.uleb128 0xc
 5492 01e7 11       		.uleb128 0x11
 5493 01e8 01       		.uleb128 0x1
 5494 01e9 12       		.uleb128 0x12
 5495 01ea 01       		.uleb128 0x1
 5496 01eb 40       		.uleb128 0x40
 5497 01ec 06       		.uleb128 0x6
 5498 01ed 00       		.byte	0
 5499 01ee 00       		.byte	0
 5500 01ef 26       		.uleb128 0x26
 5501 01f0 2E       		.uleb128 0x2e
 5502 01f1 01       		.byte	0x1
 5503 01f2 3F       		.uleb128 0x3f
 5504 01f3 0C       		.uleb128 0xc
 5505 01f4 03       		.uleb128 0x3
 5506 01f5 0E       		.uleb128 0xe
 5507 01f6 3A       		.uleb128 0x3a
 5508 01f7 0B       		.uleb128 0xb
 5509 01f8 3B       		.uleb128 0x3b
ARM GAS  C:\Users\z80\AppData\Local\Temp\ccyKjVO9.s 			page 99


 5510 01f9 05       		.uleb128 0x5
 5511 01fa 27       		.uleb128 0x27
 5512 01fb 0C       		.uleb128 0xc
 5513 01fc 11       		.uleb128 0x11
 5514 01fd 01       		.uleb128 0x1
 5515 01fe 12       		.uleb128 0x12
 5516 01ff 01       		.uleb128 0x1
 5517 0200 40       		.uleb128 0x40
 5518 0201 06       		.uleb128 0x6
 5519 0202 01       		.uleb128 0x1
 5520 0203 13       		.uleb128 0x13
 5521 0204 00       		.byte	0
 5522 0205 00       		.byte	0
 5523 0206 27       		.uleb128 0x27
 5524 0207 2E       		.uleb128 0x2e
 5525 0208 01       		.byte	0x1
 5526 0209 3F       		.uleb128 0x3f
 5527 020a 0C       		.uleb128 0xc
 5528 020b 03       		.uleb128 0x3
 5529 020c 0E       		.uleb128 0xe
 5530 020d 3A       		.uleb128 0x3a
 5531 020e 0B       		.uleb128 0xb
 5532 020f 3B       		.uleb128 0x3b
 5533 0210 05       		.uleb128 0x5
 5534 0211 27       		.uleb128 0x27
 5535 0212 0C       		.uleb128 0xc
 5536 0213 49       		.uleb128 0x49
 5537 0214 13       		.uleb128 0x13
 5538 0215 11       		.uleb128 0x11
 5539 0216 01       		.uleb128 0x1
 5540 0217 12       		.uleb128 0x12
 5541 0218 01       		.uleb128 0x1
 5542 0219 40       		.uleb128 0x40
 5543 021a 06       		.uleb128 0x6
 5544 021b 01       		.uleb128 0x1
 5545 021c 13       		.uleb128 0x13
 5546 021d 00       		.byte	0
 5547 021e 00       		.byte	0
 5548 021f 28       		.uleb128 0x28
 5549 0220 34       		.uleb128 0x34
 5550 0221 00       		.byte	0
 5551 0222 03       		.uleb128 0x3
 5552 0223 0E       		.uleb128 0xe
 5553 0224 3A       		.uleb128 0x3a
 5554 0225 0B       		.uleb128 0xb
 5555 0226 3B       		.uleb128 0x3b
 5556 0227 0B       		.uleb128 0xb
 5557 0228 49       		.uleb128 0x49
 5558 0229 13       		.uleb128 0x13
 5559 022a 3F       		.uleb128 0x3f
 5560 022b 0C       		.uleb128 0xc
 5561 022c 3C       		.uleb128 0x3c
 5562 022d 0C       		.uleb128 0xc
 5563 022e 00       		.byte	0
 5564 022f 00       		.byte	0
 5565 0230 29       		.uleb128 0x29
 5566 0231 34       		.uleb128 0x34
ARM GAS  C:\Users\z80\AppData\Local\Temp\ccyKjVO9.s 			page 100


 5567 0232 00       		.byte	0
 5568 0233 03       		.uleb128 0x3
 5569 0234 0E       		.uleb128 0xe
 5570 0235 3A       		.uleb128 0x3a
 5571 0236 0B       		.uleb128 0xb
 5572 0237 3B       		.uleb128 0x3b
 5573 0238 05       		.uleb128 0x5
 5574 0239 49       		.uleb128 0x49
 5575 023a 13       		.uleb128 0x13
 5576 023b 3F       		.uleb128 0x3f
 5577 023c 0C       		.uleb128 0xc
 5578 023d 3C       		.uleb128 0x3c
 5579 023e 0C       		.uleb128 0xc
 5580 023f 00       		.byte	0
 5581 0240 00       		.byte	0
 5582 0241 2A       		.uleb128 0x2a
 5583 0242 01       		.uleb128 0x1
 5584 0243 01       		.byte	0x1
 5585 0244 49       		.uleb128 0x49
 5586 0245 13       		.uleb128 0x13
 5587 0246 01       		.uleb128 0x1
 5588 0247 13       		.uleb128 0x13
 5589 0248 00       		.byte	0
 5590 0249 00       		.byte	0
 5591 024a 2B       		.uleb128 0x2b
 5592 024b 21       		.uleb128 0x21
 5593 024c 00       		.byte	0
 5594 024d 49       		.uleb128 0x49
 5595 024e 13       		.uleb128 0x13
 5596 024f 2F       		.uleb128 0x2f
 5597 0250 0B       		.uleb128 0xb
 5598 0251 00       		.byte	0
 5599 0252 00       		.byte	0
 5600 0253 2C       		.uleb128 0x2c
 5601 0254 34       		.uleb128 0x34
 5602 0255 00       		.byte	0
 5603 0256 03       		.uleb128 0x3
 5604 0257 0E       		.uleb128 0xe
 5605 0258 3A       		.uleb128 0x3a
 5606 0259 0B       		.uleb128 0xb
 5607 025a 3B       		.uleb128 0x3b
 5608 025b 0B       		.uleb128 0xb
 5609 025c 49       		.uleb128 0x49
 5610 025d 13       		.uleb128 0x13
 5611 025e 3F       		.uleb128 0x3f
 5612 025f 0C       		.uleb128 0xc
 5613 0260 02       		.uleb128 0x2
 5614 0261 0A       		.uleb128 0xa
 5615 0262 00       		.byte	0
 5616 0263 00       		.byte	0
 5617 0264 00       		.byte	0
 5618              		.section	.debug_loc,"",%progbits
 5619              	.Ldebug_loc0:
 5620              	.LLST0:
 5621 0000 00000000 		.4byte	.LFB62
 5622 0004 02000000 		.4byte	.LCFI0
 5623 0008 0200     		.2byte	0x2
ARM GAS  C:\Users\z80\AppData\Local\Temp\ccyKjVO9.s 			page 101


 5624 000a 7D       		.byte	0x7d
 5625 000b 00       		.sleb128 0
 5626 000c 02000000 		.4byte	.LCFI0
 5627 0010 82000000 		.4byte	.LFE62
 5628 0014 0200     		.2byte	0x2
 5629 0016 7D       		.byte	0x7d
 5630 0017 10       		.sleb128 16
 5631 0018 00000000 		.4byte	0
 5632 001c 00000000 		.4byte	0
 5633              	.LLST1:
 5634 0020 00000000 		.4byte	.LFB63
 5635 0024 02000000 		.4byte	.LCFI1
 5636 0028 0200     		.2byte	0x2
 5637 002a 7D       		.byte	0x7d
 5638 002b 00       		.sleb128 0
 5639 002c 02000000 		.4byte	.LCFI1
 5640 0030 04000000 		.4byte	.LCFI2
 5641 0034 0200     		.2byte	0x2
 5642 0036 7D       		.byte	0x7d
 5643 0037 04       		.sleb128 4
 5644 0038 04000000 		.4byte	.LCFI2
 5645 003c 38000000 		.4byte	.LFE63
 5646 0040 0200     		.2byte	0x2
 5647 0042 7D       		.byte	0x7d
 5648 0043 18       		.sleb128 24
 5649 0044 00000000 		.4byte	0
 5650 0048 00000000 		.4byte	0
 5651              	.LLST2:
 5652 004c 00000000 		.4byte	.LFB64
 5653 0050 02000000 		.4byte	.LCFI3
 5654 0054 0200     		.2byte	0x2
 5655 0056 7D       		.byte	0x7d
 5656 0057 00       		.sleb128 0
 5657 0058 02000000 		.4byte	.LCFI3
 5658 005c 04000000 		.4byte	.LCFI4
 5659 0060 0200     		.2byte	0x2
 5660 0062 7D       		.byte	0x7d
 5661 0063 04       		.sleb128 4
 5662 0064 04000000 		.4byte	.LCFI4
 5663 0068 52020000 		.4byte	.LFE64
 5664 006c 0200     		.2byte	0x2
 5665 006e 7D       		.byte	0x7d
 5666 006f 20       		.sleb128 32
 5667 0070 00000000 		.4byte	0
 5668 0074 00000000 		.4byte	0
 5669              	.LLST3:
 5670 0078 00000000 		.4byte	.LFB65
 5671 007c 02000000 		.4byte	.LCFI5
 5672 0080 0200     		.2byte	0x2
 5673 0082 7D       		.byte	0x7d
 5674 0083 00       		.sleb128 0
 5675 0084 02000000 		.4byte	.LCFI5
 5676 0088 6E000000 		.4byte	.LFE65
 5677 008c 0200     		.2byte	0x2
 5678 008e 7D       		.byte	0x7d
 5679 008f 18       		.sleb128 24
 5680 0090 00000000 		.4byte	0
ARM GAS  C:\Users\z80\AppData\Local\Temp\ccyKjVO9.s 			page 102


 5681 0094 00000000 		.4byte	0
 5682              	.LLST4:
 5683 0098 00000000 		.4byte	.LFB66
 5684 009c 02000000 		.4byte	.LCFI6
 5685 00a0 0200     		.2byte	0x2
 5686 00a2 7D       		.byte	0x7d
 5687 00a3 00       		.sleb128 0
 5688 00a4 02000000 		.4byte	.LCFI6
 5689 00a8 04000000 		.4byte	.LCFI7
 5690 00ac 0200     		.2byte	0x2
 5691 00ae 7D       		.byte	0x7d
 5692 00af 04       		.sleb128 4
 5693 00b0 04000000 		.4byte	.LCFI7
 5694 00b4 92020000 		.4byte	.LFE66
 5695 00b8 0200     		.2byte	0x2
 5696 00ba 7D       		.byte	0x7d
 5697 00bb 20       		.sleb128 32
 5698 00bc 00000000 		.4byte	0
 5699 00c0 00000000 		.4byte	0
 5700              	.LLST5:
 5701 00c4 00000000 		.4byte	.LFB67
 5702 00c8 02000000 		.4byte	.LCFI8
 5703 00cc 0200     		.2byte	0x2
 5704 00ce 7D       		.byte	0x7d
 5705 00cf 00       		.sleb128 0
 5706 00d0 02000000 		.4byte	.LCFI8
 5707 00d4 04000000 		.4byte	.LCFI9
 5708 00d8 0200     		.2byte	0x2
 5709 00da 7D       		.byte	0x7d
 5710 00db 04       		.sleb128 4
 5711 00dc 04000000 		.4byte	.LCFI9
 5712 00e0 C0000000 		.4byte	.LFE67
 5713 00e4 0200     		.2byte	0x2
 5714 00e6 7D       		.byte	0x7d
 5715 00e7 18       		.sleb128 24
 5716 00e8 00000000 		.4byte	0
 5717 00ec 00000000 		.4byte	0
 5718              	.LLST6:
 5719 00f0 00000000 		.4byte	.LFB68
 5720 00f4 02000000 		.4byte	.LCFI10
 5721 00f8 0200     		.2byte	0x2
 5722 00fa 7D       		.byte	0x7d
 5723 00fb 00       		.sleb128 0
 5724 00fc 02000000 		.4byte	.LCFI10
 5725 0100 04000000 		.4byte	.LCFI11
 5726 0104 0200     		.2byte	0x2
 5727 0106 7D       		.byte	0x7d
 5728 0107 04       		.sleb128 4
 5729 0108 04000000 		.4byte	.LCFI11
 5730 010c 5A000000 		.4byte	.LFE68
 5731 0110 0200     		.2byte	0x2
 5732 0112 7D       		.byte	0x7d
 5733 0113 18       		.sleb128 24
 5734 0114 00000000 		.4byte	0
 5735 0118 00000000 		.4byte	0
 5736              	.LLST7:
 5737 011c 00000000 		.4byte	.LFB69
ARM GAS  C:\Users\z80\AppData\Local\Temp\ccyKjVO9.s 			page 103


 5738 0120 02000000 		.4byte	.LCFI12
 5739 0124 0200     		.2byte	0x2
 5740 0126 7D       		.byte	0x7d
 5741 0127 00       		.sleb128 0
 5742 0128 02000000 		.4byte	.LCFI12
 5743 012c 04000000 		.4byte	.LCFI13
 5744 0130 0200     		.2byte	0x2
 5745 0132 7D       		.byte	0x7d
 5746 0133 04       		.sleb128 4
 5747 0134 04000000 		.4byte	.LCFI13
 5748 0138 24020000 		.4byte	.LFE69
 5749 013c 0200     		.2byte	0x2
 5750 013e 7D       		.byte	0x7d
 5751 013f 20       		.sleb128 32
 5752 0140 00000000 		.4byte	0
 5753 0144 00000000 		.4byte	0
 5754              	.LLST8:
 5755 0148 00000000 		.4byte	.LFB70
 5756 014c 02000000 		.4byte	.LCFI14
 5757 0150 0200     		.2byte	0x2
 5758 0152 7D       		.byte	0x7d
 5759 0153 00       		.sleb128 0
 5760 0154 02000000 		.4byte	.LCFI14
 5761 0158 1C000000 		.4byte	.LFE70
 5762 015c 0200     		.2byte	0x2
 5763 015e 7D       		.byte	0x7d
 5764 015f 08       		.sleb128 8
 5765 0160 00000000 		.4byte	0
 5766 0164 00000000 		.4byte	0
 5767              	.LLST9:
 5768 0168 00000000 		.4byte	.LFB71
 5769 016c 02000000 		.4byte	.LCFI15
 5770 0170 0200     		.2byte	0x2
 5771 0172 7D       		.byte	0x7d
 5772 0173 00       		.sleb128 0
 5773 0174 02000000 		.4byte	.LCFI15
 5774 0178 1C000000 		.4byte	.LFE71
 5775 017c 0200     		.2byte	0x2
 5776 017e 7D       		.byte	0x7d
 5777 017f 08       		.sleb128 8
 5778 0180 00000000 		.4byte	0
 5779 0184 00000000 		.4byte	0
 5780              	.LLST10:
 5781 0188 00000000 		.4byte	.LFB72
 5782 018c 02000000 		.4byte	.LCFI16
 5783 0190 0200     		.2byte	0x2
 5784 0192 7D       		.byte	0x7d
 5785 0193 00       		.sleb128 0
 5786 0194 02000000 		.4byte	.LCFI16
 5787 0198 50000000 		.4byte	.LFE72
 5788 019c 0200     		.2byte	0x2
 5789 019e 7D       		.byte	0x7d
 5790 019f 08       		.sleb128 8
 5791 01a0 00000000 		.4byte	0
 5792 01a4 00000000 		.4byte	0
 5793              	.LLST11:
 5794 01a8 00000000 		.4byte	.LFB73
ARM GAS  C:\Users\z80\AppData\Local\Temp\ccyKjVO9.s 			page 104


 5795 01ac 02000000 		.4byte	.LCFI17
 5796 01b0 0200     		.2byte	0x2
 5797 01b2 7D       		.byte	0x7d
 5798 01b3 00       		.sleb128 0
 5799 01b4 02000000 		.4byte	.LCFI17
 5800 01b8 04000000 		.4byte	.LCFI18
 5801 01bc 0200     		.2byte	0x2
 5802 01be 7D       		.byte	0x7d
 5803 01bf 04       		.sleb128 4
 5804 01c0 04000000 		.4byte	.LCFI18
 5805 01c4 54010000 		.4byte	.LFE73
 5806 01c8 0200     		.2byte	0x2
 5807 01ca 7D       		.byte	0x7d
 5808 01cb 18       		.sleb128 24
 5809 01cc 00000000 		.4byte	0
 5810 01d0 00000000 		.4byte	0
 5811              	.LLST12:
 5812 01d4 00000000 		.4byte	.LFB74
 5813 01d8 02000000 		.4byte	.LCFI19
 5814 01dc 0200     		.2byte	0x2
 5815 01de 7D       		.byte	0x7d
 5816 01df 00       		.sleb128 0
 5817 01e0 02000000 		.4byte	.LCFI19
 5818 01e4 04000000 		.4byte	.LCFI20
 5819 01e8 0200     		.2byte	0x2
 5820 01ea 7D       		.byte	0x7d
 5821 01eb 04       		.sleb128 4
 5822 01ec 04000000 		.4byte	.LCFI20
 5823 01f0 62000000 		.4byte	.LFE74
 5824 01f4 0200     		.2byte	0x2
 5825 01f6 7D       		.byte	0x7d
 5826 01f7 10       		.sleb128 16
 5827 01f8 00000000 		.4byte	0
 5828 01fc 00000000 		.4byte	0
 5829              	.LLST13:
 5830 0200 00000000 		.4byte	.LFB75
 5831 0204 02000000 		.4byte	.LCFI21
 5832 0208 0200     		.2byte	0x2
 5833 020a 7D       		.byte	0x7d
 5834 020b 00       		.sleb128 0
 5835 020c 02000000 		.4byte	.LCFI21
 5836 0210 04000000 		.4byte	.LCFI22
 5837 0214 0200     		.2byte	0x2
 5838 0216 7D       		.byte	0x7d
 5839 0217 04       		.sleb128 4
 5840 0218 04000000 		.4byte	.LCFI22
 5841 021c 54010000 		.4byte	.LFE75
 5842 0220 0200     		.2byte	0x2
 5843 0222 7D       		.byte	0x7d
 5844 0223 30       		.sleb128 48
 5845 0224 00000000 		.4byte	0
 5846 0228 00000000 		.4byte	0
 5847              	.LLST14:
 5848 022c 00000000 		.4byte	.LFB76
 5849 0230 02000000 		.4byte	.LCFI23
 5850 0234 0200     		.2byte	0x2
 5851 0236 7D       		.byte	0x7d
ARM GAS  C:\Users\z80\AppData\Local\Temp\ccyKjVO9.s 			page 105


 5852 0237 00       		.sleb128 0
 5853 0238 02000000 		.4byte	.LCFI23
 5854 023c 04000000 		.4byte	.LCFI24
 5855 0240 0200     		.2byte	0x2
 5856 0242 7D       		.byte	0x7d
 5857 0243 04       		.sleb128 4
 5858 0244 04000000 		.4byte	.LCFI24
 5859 0248 6C010000 		.4byte	.LFE76
 5860 024c 0200     		.2byte	0x2
 5861 024e 7D       		.byte	0x7d
 5862 024f 30       		.sleb128 48
 5863 0250 00000000 		.4byte	0
 5864 0254 00000000 		.4byte	0
 5865              	.LLST15:
 5866 0258 00000000 		.4byte	.LFB77
 5867 025c 02000000 		.4byte	.LCFI25
 5868 0260 0200     		.2byte	0x2
 5869 0262 7D       		.byte	0x7d
 5870 0263 00       		.sleb128 0
 5871 0264 02000000 		.4byte	.LCFI25
 5872 0268 04000000 		.4byte	.LCFI26
 5873 026c 0200     		.2byte	0x2
 5874 026e 7D       		.byte	0x7d
 5875 026f 04       		.sleb128 4
 5876 0270 04000000 		.4byte	.LCFI26
 5877 0274 8A010000 		.4byte	.LFE77
 5878 0278 0200     		.2byte	0x2
 5879 027a 7D       		.byte	0x7d
 5880 027b 30       		.sleb128 48
 5881 027c 00000000 		.4byte	0
 5882 0280 00000000 		.4byte	0
 5883              		.section	.debug_aranges,"",%progbits
 5884 0000 94000000 		.4byte	0x94
 5885 0004 0200     		.2byte	0x2
 5886 0006 00000000 		.4byte	.Ldebug_info0
 5887 000a 04       		.byte	0x4
 5888 000b 00       		.byte	0
 5889 000c 0000     		.2byte	0
 5890 000e 0000     		.2byte	0
 5891 0010 00000000 		.4byte	.LFB62
 5892 0014 82000000 		.4byte	.LFE62-.LFB62
 5893 0018 00000000 		.4byte	.LFB63
 5894 001c 38000000 		.4byte	.LFE63-.LFB63
 5895 0020 00000000 		.4byte	.LFB64
 5896 0024 52020000 		.4byte	.LFE64-.LFB64
 5897 0028 00000000 		.4byte	.LFB65
 5898 002c 6E000000 		.4byte	.LFE65-.LFB65
 5899 0030 00000000 		.4byte	.LFB66
 5900 0034 92020000 		.4byte	.LFE66-.LFB66
 5901 0038 00000000 		.4byte	.LFB67
 5902 003c C0000000 		.4byte	.LFE67-.LFB67
 5903 0040 00000000 		.4byte	.LFB68
 5904 0044 5A000000 		.4byte	.LFE68-.LFB68
 5905 0048 00000000 		.4byte	.LFB69
 5906 004c 24020000 		.4byte	.LFE69-.LFB69
 5907 0050 00000000 		.4byte	.LFB70
 5908 0054 1C000000 		.4byte	.LFE70-.LFB70
ARM GAS  C:\Users\z80\AppData\Local\Temp\ccyKjVO9.s 			page 106


 5909 0058 00000000 		.4byte	.LFB71
 5910 005c 1C000000 		.4byte	.LFE71-.LFB71
 5911 0060 00000000 		.4byte	.LFB72
 5912 0064 50000000 		.4byte	.LFE72-.LFB72
 5913 0068 00000000 		.4byte	.LFB73
 5914 006c 54010000 		.4byte	.LFE73-.LFB73
 5915 0070 00000000 		.4byte	.LFB74
 5916 0074 62000000 		.4byte	.LFE74-.LFB74
 5917 0078 00000000 		.4byte	.LFB75
 5918 007c 54010000 		.4byte	.LFE75-.LFB75
 5919 0080 00000000 		.4byte	.LFB76
 5920 0084 6C010000 		.4byte	.LFE76-.LFB76
 5921 0088 00000000 		.4byte	.LFB77
 5922 008c 8A010000 		.4byte	.LFE77-.LFB77
 5923 0090 00000000 		.4byte	0
 5924 0094 00000000 		.4byte	0
 5925              		.section	.debug_ranges,"",%progbits
 5926              	.Ldebug_ranges0:
 5927 0000 00000000 		.4byte	.LFB62
 5928 0004 82000000 		.4byte	.LFE62
 5929 0008 00000000 		.4byte	.LFB63
 5930 000c 38000000 		.4byte	.LFE63
 5931 0010 00000000 		.4byte	.LFB64
 5932 0014 52020000 		.4byte	.LFE64
 5933 0018 00000000 		.4byte	.LFB65
 5934 001c 6E000000 		.4byte	.LFE65
 5935 0020 00000000 		.4byte	.LFB66
 5936 0024 92020000 		.4byte	.LFE66
 5937 0028 00000000 		.4byte	.LFB67
 5938 002c C0000000 		.4byte	.LFE67
 5939 0030 00000000 		.4byte	.LFB68
 5940 0034 5A000000 		.4byte	.LFE68
 5941 0038 00000000 		.4byte	.LFB69
 5942 003c 24020000 		.4byte	.LFE69
 5943 0040 00000000 		.4byte	.LFB70
 5944 0044 1C000000 		.4byte	.LFE70
 5945 0048 00000000 		.4byte	.LFB71
 5946 004c 1C000000 		.4byte	.LFE71
 5947 0050 00000000 		.4byte	.LFB72
 5948 0054 50000000 		.4byte	.LFE72
 5949 0058 00000000 		.4byte	.LFB73
 5950 005c 54010000 		.4byte	.LFE73
 5951 0060 00000000 		.4byte	.LFB74
 5952 0064 62000000 		.4byte	.LFE74
 5953 0068 00000000 		.4byte	.LFB75
 5954 006c 54010000 		.4byte	.LFE75
 5955 0070 00000000 		.4byte	.LFB76
 5956 0074 6C010000 		.4byte	.LFE76
 5957 0078 00000000 		.4byte	.LFB77
 5958 007c 8A010000 		.4byte	.LFE77
 5959 0080 00000000 		.4byte	0
 5960 0084 00000000 		.4byte	0
 5961              		.section	.debug_line,"",%progbits
 5962              	.Ldebug_line0:
 5963 0000 C4050000 		.section	.debug_str,"MS",%progbits,1
 5963      02007E02 
 5963      00000201 
ARM GAS  C:\Users\z80\AppData\Local\Temp\ccyKjVO9.s 			page 107


 5963      FB0E0D00 
 5963      01010101 
 5964              	.LASF2:
 5965 0000 73697A65 		.ascii	"size_t\000"
 5965      5F7400
 5966              	.LASF21:
 5967 0007 73797374 		.ascii	"systime_t\000"
 5967      696D655F 
 5967      7400
 5968              	.LASF199:
 5969 0011 636C6F63 		.ascii	"clock_div\000"
 5969      6B5F6469 
 5969      7600
 5970              	.LASF200:
 5971 001b 64757479 		.ascii	"duty\000"
 5971      00
 5972              	.LASF27:
 5973 0020 705F6374 		.ascii	"p_ctx\000"
 5973      7800
 5974              	.LASF18:
 5975 0026 74707269 		.ascii	"tprio_t\000"
 5975      6F5F7400 
 5976              	.LASF219:
 5977 002e 6932635F 		.ascii	"i2c_lld_slave_io_timeout\000"
 5977      6C6C645F 
 5977      736C6176 
 5977      655F696F 
 5977      5F74696D 
 5978              	.LASF164:
 5979 0047 4F504D4F 		.ascii	"OPMODE_SMBUS_DEVICE\000"
 5979      44455F53 
 5979      4D425553 
 5979      5F444556 
 5979      49434500 
 5980              	.LASF36:
 5981 005b 705F6D73 		.ascii	"p_msgqueue\000"
 5981      67717565 
 5981      756500
 5982              	.LASF56:
 5983 0066 725F6374 		.ascii	"r_ctx\000"
 5983      7800
 5984              	.LASF8:
 5985 006c 696E7433 		.ascii	"int32_t\000"
 5985      325F7400 
 5986              	.LASF94:
 5987 0074 444D4131 		.ascii	"DMA1_Channel5_IRQn\000"
 5987      5F436861 
 5987      6E6E656C 
 5987      355F4952 
 5987      516E00
 5988              	.LASF47:
 5989 0087 76746675 		.ascii	"vtfunc_t\000"
 5989      6E635F74 
 5989      00
 5990              	.LASF168:
 5991 0090 46415354 		.ascii	"FAST_DUTY_CYCLE_2\000"
 5991      5F445554 
ARM GAS  C:\Users\z80\AppData\Local\Temp\ccyKjVO9.s 			page 108


 5991      595F4359 
 5991      434C455F 
 5991      3200
 5992              	.LASF195:
 5993 00a2 6932635F 		.ascii	"i2c_lld_safety_timeout\000"
 5993      6C6C645F 
 5993      73616665 
 5993      74795F74 
 5993      696D656F 
 5994              	.LASF83:
 5995 00b9 464C4153 		.ascii	"FLASH_IRQn\000"
 5995      485F4952 
 5995      516E00
 5996              	.LASF177:
 5997 00c4 636F6E66 		.ascii	"config\000"
 5997      696700
 5998              	.LASF176:
 5999 00cb 73746174 		.ascii	"state\000"
 5999      6500
 6000              	.LASF122:
 6001 00d1 434E4454 		.ascii	"CNDTR\000"
 6001      5200
 6002              	.LASF107:
 6003 00d7 54494D32 		.ascii	"TIM2_IRQn\000"
 6003      5F495251 
 6003      6E00
 6004              	.LASF169:
 6005 00e1 46415354 		.ascii	"FAST_DUTY_CYCLE_16_9\000"
 6005      5F445554 
 6005      595F4359 
 6005      434C455F 
 6005      31365F39 
 6006              	.LASF203:
 6007 00f6 72656743 		.ascii	"regCR1\000"
 6007      523100
 6008              	.LASF64:
 6009 00fd 6D5F6F77 		.ascii	"m_owner\000"
 6009      6E657200 
 6010              	.LASF53:
 6011 0105 76745F70 		.ascii	"vt_par\000"
 6011      617200
 6012              	.LASF67:
 6013 010c 65786974 		.ascii	"exitcode\000"
 6013      636F6465 
 6013      00
 6014              	.LASF161:
 6015 0115 69326361 		.ascii	"i2caddr_t\000"
 6015      6464725F 
 6015      7400
 6016              	.LASF115:
 6017 011f 53504932 		.ascii	"SPI2_IRQn\000"
 6017      5F495251 
 6017      6E00
 6018              	.LASF170:
 6019 0129 69326364 		.ascii	"i2cdutycycle_t\000"
 6019      75747963 
 6019      79636C65 
ARM GAS  C:\Users\z80\AppData\Local\Temp\ccyKjVO9.s 			page 109


 6019      5F7400
 6020              	.LASF28:
 6021 0138 705F6E65 		.ascii	"p_newer\000"
 6021      77657200 
 6022              	.LASF9:
 6023 0140 6C6F6E67 		.ascii	"long int\000"
 6023      20696E74 
 6023      00
 6024              	.LASF24:
 6025 0149 705F6E65 		.ascii	"p_next\000"
 6025      787400
 6026              	.LASF215:
 6027 0150 6932635F 		.ascii	"i2c_lld_stop\000"
 6027      6C6C645F 
 6027      73746F70 
 6027      00
 6028              	.LASF230:
 6029 015d 433A5C70 		.ascii	"C:\\projects\\digitizer.git\\firmware\\digitizer\000"
 6029      726F6A65 
 6029      6374735C 
 6029      64696769 
 6029      74697A65 
 6030              	.LASF25:
 6031 018a 705F7072 		.ascii	"p_prev\000"
 6031      657600
 6032              	.LASF81:
 6033 0191 54414D50 		.ascii	"TAMPER_IRQn\000"
 6033      45525F49 
 6033      52516E00 
 6034              	.LASF17:
 6035 019d 74737461 		.ascii	"tstate_t\000"
 6035      74655F74 
 6035      00
 6036              	.LASF39:
 6037 01a6 705F6D74 		.ascii	"p_mtxlist\000"
 6037      786C6973 
 6037      7400
 6038              	.LASF189:
 6039 01b0 74786275 		.ascii	"txbuf\000"
 6039      6600
 6040              	.LASF43:
 6041 01b6 72656761 		.ascii	"regarm_t\000"
 6041      726D5F74 
 6041      00
 6042              	.LASF143:
 6043 01bf 41504232 		.ascii	"APB2ENR\000"
 6043      454E5200 
 6044              	.LASF210:
 6045 01c7 6932635F 		.ascii	"i2c_lld_serve_error_interrupt\000"
 6045      6C6C645F 
 6045      73657276 
 6045      655F6572 
 6045      726F725F 
 6046              	.LASF78:
 6047 01e5 53797354 		.ascii	"SysTick_IRQn\000"
 6047      69636B5F 
 6047      4952516E 
ARM GAS  C:\Users\z80\AppData\Local\Temp\ccyKjVO9.s 			page 110


 6047      00
 6048              	.LASF118:
 6049 01f2 55534152 		.ascii	"USART3_IRQn\000"
 6049      54335F49 
 6049      52516E00 
 6050              	.LASF123:
 6051 01fe 43504152 		.ascii	"CPAR\000"
 6051      00
 6052              	.LASF1:
 6053 0203 7369676E 		.ascii	"signed char\000"
 6053      65642063 
 6053      68617200 
 6054              	.LASF69:
 6055 020f 65776D61 		.ascii	"ewmask\000"
 6055      736B00
 6056              	.LASF3:
 6057 0216 75696E74 		.ascii	"uint8_t\000"
 6057      385F7400 
 6058              	.LASF20:
 6059 021e 6576656E 		.ascii	"eventmask_t\000"
 6059      746D6173 
 6059      6B5F7400 
 6060              	.LASF46:
 6061 022a 636F6E74 		.ascii	"context\000"
 6061      65787400 
 6062              	.LASF126:
 6063 0232 52455345 		.ascii	"RESERVED0\000"
 6063      52564544 
 6063      3000
 6064              	.LASF127:
 6065 023c 52455345 		.ascii	"RESERVED1\000"
 6065      52564544 
 6065      3100
 6066              	.LASF4:
 6067 0246 756E7369 		.ascii	"unsigned char\000"
 6067      676E6564 
 6067      20636861 
 6067      7200
 6068              	.LASF131:
 6069 0254 52455345 		.ascii	"RESERVED3\000"
 6069      52564544 
 6069      3300
 6070              	.LASF132:
 6071 025e 52455345 		.ascii	"RESERVED4\000"
 6071      52564544 
 6071      3400
 6072              	.LASF133:
 6073 0268 52455345 		.ascii	"RESERVED5\000"
 6073      52564544 
 6073      3500
 6074              	.LASF134:
 6075 0272 52455345 		.ascii	"RESERVED6\000"
 6075      52564544 
 6075      3600
 6076              	.LASF135:
 6077 027c 52455345 		.ascii	"RESERVED7\000"
 6077      52564544 
ARM GAS  C:\Users\z80\AppData\Local\Temp\ccyKjVO9.s 			page 111


 6077      3700
 6078              	.LASF137:
 6079 0286 52455345 		.ascii	"RESERVED8\000"
 6079      52564544 
 6079      3800
 6080              	.LASF50:
 6081 0290 76745F70 		.ascii	"vt_prev\000"
 6081      72657600 
 6082              	.LASF111:
 6083 0298 49324331 		.ascii	"I2C1_ER_IRQn\000"
 6083      5F45525F 
 6083      4952516E 
 6083      00
 6084              	.LASF57:
 6085 02a5 725F6E65 		.ascii	"r_newer\000"
 6085      77657200 
 6086              	.LASF90:
 6087 02ad 444D4131 		.ascii	"DMA1_Channel1_IRQn\000"
 6087      5F436861 
 6087      6E6E656C 
 6087      315F4952 
 6087      516E00
 6088              	.LASF158:
 6089 02c0 4932435F 		.ascii	"I2C_ACTIVE_RX\000"
 6089      41435449 
 6089      56455F52 
 6089      5800
 6090              	.LASF103:
 6091 02ce 54494D31 		.ascii	"TIM1_BRK_IRQn\000"
 6091      5F42524B 
 6091      5F495251 
 6091      6E00
 6092              	.LASF129:
 6093 02dc 52455345 		.ascii	"RESERVED2\000"
 6093      52564544 
 6093      3200
 6094              	.LASF74:
 6095 02e6 55736167 		.ascii	"UsageFault_IRQn\000"
 6095      65466175 
 6095      6C745F49 
 6095      52516E00 
 6096              	.LASF98:
 6097 02f6 5553425F 		.ascii	"USB_HP_CAN1_TX_IRQn\000"
 6097      48505F43 
 6097      414E315F 
 6097      54585F49 
 6097      52516E00 
 6098              	.LASF163:
 6099 030a 4F504D4F 		.ascii	"OPMODE_I2C\000"
 6099      44455F49 
 6099      324300
 6100              	.LASF70:
 6101 0315 63686172 		.ascii	"char\000"
 6101      00
 6102              	.LASF227:
 6103 031a 49324344 		.ascii	"I2CD1\000"
 6103      3100
ARM GAS  C:\Users\z80\AppData\Local\Temp\ccyKjVO9.s 			page 112


 6104              	.LASF149:
 6105 0320 69736869 		.ascii	"ishift\000"
 6105      667400
 6106              	.LASF26:
 6107 0327 705F7072 		.ascii	"p_prio\000"
 6107      696F00
 6108              	.LASF68:
 6109 032e 77746F62 		.ascii	"wtobjp\000"
 6109      6A7000
 6110              	.LASF178:
 6111 0335 6572726F 		.ascii	"errors\000"
 6111      727300
 6112              	.LASF208:
 6113 033c 666C6167 		.ascii	"flags\000"
 6113      7300
 6114              	.LASF44:
 6115 0342 73746B61 		.ascii	"stkalign_t\000"
 6115      6C69676E 
 6115      5F7400
 6116              	.LASF207:
 6117 034d 6932635F 		.ascii	"i2c_lld_serve_rx_end_irq\000"
 6117      6C6C645F 
 6117      73657276 
 6117      655F7278 
 6117      5F656E64 
 6118              	.LASF157:
 6119 0366 4932435F 		.ascii	"I2C_ACTIVE_TX\000"
 6119      41435449 
 6119      56455F54 
 6119      5800
 6120              	.LASF109:
 6121 0374 54494D34 		.ascii	"TIM4_IRQn\000"
 6121      5F495251 
 6121      6E00
 6122              	.LASF121:
 6123 037e 5553425F 		.ascii	"USB_FS_WKUP_IRQn\000"
 6123      46535F57 
 6123      4B55505F 
 6123      4952516E 
 6123      00
 6124              	.LASF117:
 6125 038f 55534152 		.ascii	"USART2_IRQn\000"
 6125      54325F49 
 6125      52516E00 
 6126              	.LASF222:
 6127 039b 64626743 		.ascii	"dbgCR1\000"
 6127      523100
 6128              	.LASF223:
 6129 03a2 64626743 		.ascii	"dbgCR2\000"
 6129      523200
 6130              	.LASF145:
 6131 03a9 42444352 		.ascii	"BDCR\000"
 6131      00
 6132              	.LASF22:
 6133 03ae 636E745F 		.ascii	"cnt_t\000"
 6133      7400
 6134              	.LASF110:
ARM GAS  C:\Users\z80\AppData\Local\Temp\ccyKjVO9.s 			page 113


 6135 03b4 49324331 		.ascii	"I2C1_EV_IRQn\000"
 6135      5F45565F 
 6135      4952516E 
 6135      00
 6136              	.LASF191:
 6137 03c1 7478696E 		.ascii	"txind\000"
 6137      6400
 6138              	.LASF52:
 6139 03c7 76745F66 		.ascii	"vt_func\000"
 6139      756E6300 
 6140              	.LASF204:
 6141 03cf 6932635F 		.ascii	"i2c_lld_serve_event_interrupt\000"
 6141      6C6C645F 
 6141      73657276 
 6141      655F6576 
 6141      656E745F 
 6142              	.LASF45:
 6143 03ed 696E7463 		.ascii	"intctx\000"
 6143      747800
 6144              	.LASF38:
 6145 03f4 705F6570 		.ascii	"p_epending\000"
 6145      656E6469 
 6145      6E6700
 6146              	.LASF159:
 6147 03ff 4932435F 		.ascii	"I2C_LOCKED\000"
 6147      4C4F434B 
 6147      454400
 6148              	.LASF173:
 6149 040a 64757479 		.ascii	"duty_cycle\000"
 6149      5F637963 
 6149      6C6500
 6150              	.LASF139:
 6151 0415 43464752 		.ascii	"CFGR\000"
 6151      00
 6152              	.LASF106:
 6153 041a 54494D31 		.ascii	"TIM1_CC_IRQn\000"
 6153      5F43435F 
 6153      4952516E 
 6153      00
 6154              	.LASF86:
 6155 0427 45585449 		.ascii	"EXTI1_IRQn\000"
 6155      315F4952 
 6155      516E00
 6156              	.LASF175:
 6157 0432 49324344 		.ascii	"I2CDriver\000"
 6157      72697665 
 6157      7200
 6158              	.LASF71:
 6159 043c 4E6F6E4D 		.ascii	"NonMaskableInt_IRQn\000"
 6159      61736B61 
 6159      626C6549 
 6159      6E745F49 
 6159      52516E00 
 6160              	.LASF79:
 6161 0450 57574447 		.ascii	"WWDG_IRQn\000"
 6161      5F495251 
 6161      6E00
ARM GAS  C:\Users\z80\AppData\Local\Temp\ccyKjVO9.s 			page 114


 6162              	.LASF11:
 6163 045a 6C6F6E67 		.ascii	"long unsigned int\000"
 6163      20756E73 
 6163      69676E65 
 6163      6420696E 
 6163      7400
 6164              	.LASF72:
 6165 046c 4D656D6F 		.ascii	"MemoryManagement_IRQn\000"
 6165      72794D61 
 6165      6E616765 
 6165      6D656E74 
 6165      5F495251 
 6166              	.LASF93:
 6167 0482 444D4131 		.ascii	"DMA1_Channel4_IRQn\000"
 6167      5F436861 
 6167      6E6E656C 
 6167      345F4952 
 6167      516E00
 6168              	.LASF147:
 6169 0495 6368616E 		.ascii	"channel\000"
 6169      6E656C00 
 6170              	.LASF101:
 6171 049d 43414E31 		.ascii	"CAN1_SCE_IRQn\000"
 6171      5F534345 
 6171      5F495251 
 6171      6E00
 6172              	.LASF226:
 6173 04ab 5F73746D 		.ascii	"_stm32_dma_streams\000"
 6173      33325F64 
 6173      6D615F73 
 6173      74726561 
 6173      6D7300
 6174              	.LASF136:
 6175 04be 54524953 		.ascii	"TRISE\000"
 6175      4500
 6176              	.LASF152:
 6177 04c4 73746D33 		.ascii	"stm32_dma_stream_t\000"
 6177      325F646D 
 6177      615F7374 
 6177      7265616D 
 6177      5F7400
 6178              	.LASF188:
 6179 04d7 72786362 		.ascii	"rxcb\000"
 6179      00
 6180              	.LASF229:
 6181 04dc 2E2E2F63 		.ascii	"../chibios_2.4.x/os/hal/platforms/STM32/i2c_lld.c\000"
 6181      68696269 
 6181      6F735F32 
 6181      2E342E78 
 6181      2F6F732F 
 6182              	.LASF192:
 6183 050e 74786362 		.ascii	"txcb\000"
 6183      00
 6184              	.LASF113:
 6185 0513 49324332 		.ascii	"I2C2_ER_IRQn\000"
 6185      5F45525F 
 6185      4952516E 
ARM GAS  C:\Users\z80\AppData\Local\Temp\ccyKjVO9.s 			page 115


 6185      00
 6186              	.LASF73:
 6187 0520 42757346 		.ascii	"BusFault_IRQn\000"
 6187      61756C74 
 6187      5F495251 
 6187      6E00
 6188              	.LASF196:
 6189 052e 69326370 		.ascii	"i2cp\000"
 6189      00
 6190              	.LASF185:
 6191 0533 72786275 		.ascii	"rxbuf\000"
 6191      6600
 6192              	.LASF182:
 6193 0539 646D6172 		.ascii	"dmarx\000"
 6193      7800
 6194              	.LASF62:
 6195 053f 4D757465 		.ascii	"Mutex\000"
 6195      7800
 6196              	.LASF12:
 6197 0545 6C6F6E67 		.ascii	"long long int\000"
 6197      206C6F6E 
 6197      6720696E 
 6197      7400
 6198              	.LASF154:
 6199 0553 4932435F 		.ascii	"I2C_UNINIT\000"
 6199      554E494E 
 6199      495400
 6200              	.LASF63:
 6201 055e 6D5F7175 		.ascii	"m_queue\000"
 6201      65756500 
 6202              	.LASF49:
 6203 0566 76745F6E 		.ascii	"vt_next\000"
 6203      65787400 
 6204              	.LASF114:
 6205 056e 53504931 		.ascii	"SPI1_IRQn\000"
 6205      5F495251 
 6205      6E00
 6206              	.LASF75:
 6207 0578 53564361 		.ascii	"SVCall_IRQn\000"
 6207      6C6C5F49 
 6207      52516E00 
 6208              	.LASF140:
 6209 0584 41504232 		.ascii	"APB2RSTR\000"
 6209      52535452 
 6209      00
 6210              	.LASF194:
 6211 058d 6932635F 		.ascii	"i2c_lld_abort_operation\000"
 6211      6C6C645F 
 6211      61626F72 
 6211      745F6F70 
 6211      65726174 
 6212              	.LASF160:
 6213 05a5 69326373 		.ascii	"i2cstate_t\000"
 6213      74617465 
 6213      5F7400
 6214              	.LASF225:
 6215 05b0 49544D5F 		.ascii	"ITM_RxBuffer\000"
ARM GAS  C:\Users\z80\AppData\Local\Temp\ccyKjVO9.s 			page 116


 6215      52784275 
 6215      66666572 
 6215      00
 6216              	.LASF216:
 6217 05bd 74696D65 		.ascii	"timeout\000"
 6217      6F757400 
 6218              	.LASF181:
 6219 05c5 646D616D 		.ascii	"dmamode\000"
 6219      6F646500 
 6220              	.LASF35:
 6221 05cd 705F7761 		.ascii	"p_waiting\000"
 6221      6974696E 
 6221      6700
 6222              	.LASF206:
 6223 05d7 6576656E 		.ascii	"event\000"
 6223      7400
 6224              	.LASF180:
 6225 05dd 61646472 		.ascii	"addr\000"
 6225      00
 6226              	.LASF183:
 6227 05e2 646D6174 		.ascii	"dmatx\000"
 6227      7800
 6228              	.LASF33:
 6229 05e8 705F666C 		.ascii	"p_flags\000"
 6229      61677300 
 6230              	.LASF220:
 6231 05f0 64626753 		.ascii	"dbgSR1\000"
 6231      523100
 6232              	.LASF221:
 6233 05f7 64626753 		.ascii	"dbgSR2\000"
 6233      523200
 6234              	.LASF150:
 6235 05fe 73656C66 		.ascii	"selfindex\000"
 6235      696E6465 
 6235      7800
 6236              	.LASF0:
 6237 0608 756E7369 		.ascii	"unsigned int\000"
 6237      676E6564 
 6237      20696E74 
 6237      00
 6238              	.LASF112:
 6239 0615 49324332 		.ascii	"I2C2_EV_IRQn\000"
 6239      5F45565F 
 6239      4952516E 
 6239      00
 6240              	.LASF186:
 6241 0622 72786279 		.ascii	"rxbytes\000"
 6241      74657300 
 6242              	.LASF124:
 6243 062a 434D4152 		.ascii	"CMAR\000"
 6243      00
 6244              	.LASF96:
 6245 062f 444D4131 		.ascii	"DMA1_Channel7_IRQn\000"
 6245      5F436861 
 6245      6E6E656C 
 6245      375F4952 
 6245      516E00
ARM GAS  C:\Users\z80\AppData\Local\Temp\ccyKjVO9.s 			page 117


 6246              	.LASF42:
 6247 0642 54687265 		.ascii	"ThreadsList\000"
 6247      6164734C 
 6247      69737400 
 6248              	.LASF156:
 6249 064e 4932435F 		.ascii	"I2C_READY\000"
 6249      52454144 
 6249      5900
 6250              	.LASF34:
 6251 0658 705F7469 		.ascii	"p_time\000"
 6251      6D6500
 6252              	.LASF198:
 6253 065f 72656743 		.ascii	"regCCR\000"
 6253      435200
 6254              	.LASF231:
 6255 0666 4952516E 		.ascii	"IRQn\000"
 6255      00
 6256              	.LASF59:
 6257 066b 725F7072 		.ascii	"r_preempt\000"
 6257      65656D70 
 6257      7400
 6258              	.LASF40:
 6259 0675 705F7265 		.ascii	"p_realprio\000"
 6259      616C7072 
 6259      696F00
 6260              	.LASF217:
 6261 0680 6932635F 		.ascii	"i2c_lld_master_receive_timeout\000"
 6261      6C6C645F 
 6261      6D617374 
 6261      65725F72 
 6261      65636569 
 6262              	.LASF187:
 6263 069f 7278696E 		.ascii	"rxind\000"
 6263      6400
 6264              	.LASF174:
 6265 06a5 49324343 		.ascii	"I2CConfig\000"
 6265      6F6E6669 
 6265      6700
 6266              	.LASF105:
 6267 06af 54494D31 		.ascii	"TIM1_TRG_COM_IRQn\000"
 6267      5F545247 
 6267      5F434F4D 
 6267      5F495251 
 6267      6E00
 6268              	.LASF125:
 6269 06c1 444D415F 		.ascii	"DMA_Channel_TypeDef\000"
 6269      4368616E 
 6269      6E656C5F 
 6269      54797065 
 6269      44656600 
 6270              	.LASF153:
 6271 06d5 73746D33 		.ascii	"stm32_dmaisr_t\000"
 6271      325F646D 
 6271      61697372 
 6271      5F7400
 6272              	.LASF120:
 6273 06e4 5254435F 		.ascii	"RTC_Alarm_IRQn\000"
ARM GAS  C:\Users\z80\AppData\Local\Temp\ccyKjVO9.s 			page 118


 6273      416C6172 
 6273      6D5F4952 
 6273      516E00
 6274              	.LASF144:
 6275 06f3 41504231 		.ascii	"APB1ENR\000"
 6275      454E5200 
 6276              	.LASF190:
 6277 06fb 74786279 		.ascii	"txbytes\000"
 6277      74657300 
 6278              	.LASF119:
 6279 0703 45585449 		.ascii	"EXTI15_10_IRQn\000"
 6279      31355F31 
 6279      305F4952 
 6279      516E00
 6280              	.LASF14:
 6281 0712 6C6F6E67 		.ascii	"long long unsigned int\000"
 6281      206C6F6E 
 6281      6720756E 
 6281      7369676E 
 6281      65642069 
 6282              	.LASF29:
 6283 0729 705F6F6C 		.ascii	"p_older\000"
 6283      64657200 
 6284              	.LASF213:
 6285 0731 6932635F 		.ascii	"i2c_lld_init\000"
 6285      6C6C645F 
 6285      696E6974 
 6285      00
 6286              	.LASF166:
 6287 073e 6932636F 		.ascii	"i2copmode_t\000"
 6287      706D6F64 
 6287      655F7400 
 6288              	.LASF6:
 6289 074a 75696E74 		.ascii	"uint16_t\000"
 6289      31365F74 
 6289      00
 6290              	.LASF19:
 6291 0753 6D73675F 		.ascii	"msg_t\000"
 6291      7400
 6292              	.LASF108:
 6293 0759 54494D33 		.ascii	"TIM3_IRQn\000"
 6293      5F495251 
 6293      6E00
 6294              	.LASF116:
 6295 0763 55534152 		.ascii	"USART1_IRQn\000"
 6295      54315F49 
 6295      52516E00 
 6296              	.LASF60:
 6297 076f 725F6375 		.ascii	"r_current\000"
 6297      7272656E 
 6297      7400
 6298              	.LASF87:
 6299 0779 45585449 		.ascii	"EXTI2_IRQn\000"
 6299      325F4952 
 6299      516E00
 6300              	.LASF151:
 6301 0784 76656374 		.ascii	"vector\000"
ARM GAS  C:\Users\z80\AppData\Local\Temp\ccyKjVO9.s 			page 119


 6301      6F7200
 6302              	.LASF138:
 6303 078b 4932435F 		.ascii	"I2C_TypeDef\000"
 6303      54797065 
 6303      44656600 
 6304              	.LASF167:
 6305 0797 5354445F 		.ascii	"STD_DUTY_CYCLE\000"
 6305      44555459 
 6305      5F435943 
 6305      4C4500
 6306              	.LASF202:
 6307 07a6 6F706D6F 		.ascii	"opmode\000"
 6307      646500
 6308              	.LASF184:
 6309 07ad 736C6176 		.ascii	"slave_mode\000"
 6309      655F6D6F 
 6309      646500
 6310              	.LASF54:
 6311 07b8 725F7175 		.ascii	"r_queue\000"
 6311      65756500 
 6312              	.LASF80:
 6313 07c0 5056445F 		.ascii	"PVD_IRQn\000"
 6313      4952516E 
 6313      00
 6314              	.LASF205:
 6315 07c9 72656753 		.ascii	"regSR\000"
 6315      5200
 6316              	.LASF85:
 6317 07cf 45585449 		.ascii	"EXTI0_IRQn\000"
 6317      305F4952 
 6317      516E00
 6318              	.LASF224:
 6319 07da 726C6973 		.ascii	"rlist\000"
 6319      7400
 6320              	.LASF16:
 6321 07e0 746D6F64 		.ascii	"tmode_t\000"
 6321      655F7400 
 6322              	.LASF128:
 6323 07e8 4F415231 		.ascii	"OAR1\000"
 6323      00
 6324              	.LASF130:
 6325 07ed 4F415232 		.ascii	"OAR2\000"
 6325      00
 6326              	.LASF76:
 6327 07f2 44656275 		.ascii	"DebugMonitor_IRQn\000"
 6327      674D6F6E 
 6327      69746F72 
 6327      5F495251 
 6327      6E00
 6328              	.LASF58:
 6329 0804 725F6F6C 		.ascii	"r_older\000"
 6329      64657200 
 6330              	.LASF179:
 6331 080c 74687265 		.ascii	"thread\000"
 6331      616400
 6332              	.LASF99:
 6333 0813 5553425F 		.ascii	"USB_LP_CAN1_RX0_IRQn\000"
ARM GAS  C:\Users\z80\AppData\Local\Temp\ccyKjVO9.s 			page 120


 6333      4C505F43 
 6333      414E315F 
 6333      5258305F 
 6333      4952516E 
 6334              	.LASF92:
 6335 0828 444D4131 		.ascii	"DMA1_Channel3_IRQn\000"
 6335      5F436861 
 6335      6E6E656C 
 6335      335F4952 
 6335      516E00
 6336              	.LASF146:
 6337 083b 5243435F 		.ascii	"RCC_TypeDef\000"
 6337      54797065 
 6337      44656600 
 6338              	.LASF5:
 6339 0847 73686F72 		.ascii	"short int\000"
 6339      7420696E 
 6339      7400
 6340              	.LASF201:
 6341 0851 6932635F 		.ascii	"i2c_lld_set_opmode\000"
 6341      6C6C645F 
 6341      7365745F 
 6341      6F706D6F 
 6341      646500
 6342              	.LASF13:
 6343 0864 75696E74 		.ascii	"uint64_t\000"
 6343      36345F74 
 6343      00
 6344              	.LASF84:
 6345 086d 5243435F 		.ascii	"RCC_IRQn\000"
 6345      4952516E 
 6345      00
 6346              	.LASF141:
 6347 0876 41504231 		.ascii	"APB1RSTR\000"
 6347      52535452 
 6347      00
 6348              	.LASF55:
 6349 087f 725F7072 		.ascii	"r_prio\000"
 6349      696F00
 6350              	.LASF165:
 6351 0886 4F504D4F 		.ascii	"OPMODE_SMBUS_HOST\000"
 6351      44455F53 
 6351      4D425553 
 6351      5F484F53 
 6351      5400
 6352              	.LASF97:
 6353 0898 41444331 		.ascii	"ADC1_2_IRQn\000"
 6353      5F325F49 
 6353      52516E00 
 6354              	.LASF142:
 6355 08a4 41484245 		.ascii	"AHBENR\000"
 6355      4E5200
 6356              	.LASF15:
 6357 08ab 626F6F6C 		.ascii	"bool_t\000"
 6357      5F7400
 6358              	.LASF211:
 6359 08b2 56656374 		.ascii	"VectorBC\000"
ARM GAS  C:\Users\z80\AppData\Local\Temp\ccyKjVO9.s 			page 121


 6359      6F724243 
 6359      00
 6360              	.LASF23:
 6361 08bb 54687265 		.ascii	"Thread\000"
 6361      616400
 6362              	.LASF91:
 6363 08c2 444D4131 		.ascii	"DMA1_Channel2_IRQn\000"
 6363      5F436861 
 6363      6E6E656C 
 6363      325F4952 
 6363      516E00
 6364              	.LASF218:
 6365 08d5 6932635F 		.ascii	"i2c_lld_master_transmit_timeout\000"
 6365      6C6C645F 
 6365      6D617374 
 6365      65725F74 
 6365      72616E73 
 6366              	.LASF212:
 6367 08f5 56656374 		.ascii	"VectorC0\000"
 6367      6F724330 
 6367      00
 6368              	.LASF228:
 6369 08fe 474E5520 		.ascii	"GNU C 4.6.3\000"
 6369      4320342E 
 6369      362E3300 
 6370              	.LASF193:
 6371 090a 54493263 		.ascii	"TI2cSlaveCb\000"
 6371      536C6176 
 6371      65436200 
 6372              	.LASF171:
 6373 0916 6F705F6D 		.ascii	"op_mode\000"
 6373      6F646500 
 6374              	.LASF10:
 6375 091e 75696E74 		.ascii	"uint32_t\000"
 6375      33325F74 
 6375      00
 6376              	.LASF48:
 6377 0927 56697274 		.ascii	"VirtualTimer\000"
 6377      75616C54 
 6377      696D6572 
 6377      00
 6378              	.LASF104:
 6379 0934 54494D31 		.ascii	"TIM1_UP_IRQn\000"
 6379      5F55505F 
 6379      4952516E 
 6379      00
 6380              	.LASF100:
 6381 0941 43414E31 		.ascii	"CAN1_RX1_IRQn\000"
 6381      5F525831 
 6381      5F495251 
 6381      6E00
 6382              	.LASF41:
 6383 094f 54687265 		.ascii	"ThreadsQueue\000"
 6383      61647351 
 6383      75657565 
 6383      00
 6384              	.LASF197:
ARM GAS  C:\Users\z80\AppData\Local\Temp\ccyKjVO9.s 			page 122


 6385 095c 6932635F 		.ascii	"i2c_lld_set_clock\000"
 6385      6C6C645F 
 6385      7365745F 
 6385      636C6F63 
 6385      6B00
 6386              	.LASF162:
 6387 096e 69326366 		.ascii	"i2cflags_t\000"
 6387      6C616773 
 6387      5F7400
 6388              	.LASF102:
 6389 0979 45585449 		.ascii	"EXTI9_5_IRQn\000"
 6389      395F355F 
 6389      4952516E 
 6389      00
 6390              	.LASF66:
 6391 0986 7264796D 		.ascii	"rdymsg\000"
 6391      736700
 6392              	.LASF89:
 6393 098d 45585449 		.ascii	"EXTI4_IRQn\000"
 6393      345F4952 
 6393      516E00
 6394              	.LASF7:
 6395 0998 73686F72 		.ascii	"short unsigned int\000"
 6395      7420756E 
 6395      7369676E 
 6395      65642069 
 6395      6E7400
 6396              	.LASF172:
 6397 09ab 636C6F63 		.ascii	"clock_speed\000"
 6397      6B5F7370 
 6397      65656400 
 6398              	.LASF88:
 6399 09b7 45585449 		.ascii	"EXTI3_IRQn\000"
 6399      335F4952 
 6399      516E00
 6400              	.LASF77:
 6401 09c2 50656E64 		.ascii	"PendSV_IRQn\000"
 6401      53565F49 
 6401      52516E00 
 6402              	.LASF31:
 6403 09ce 705F7374 		.ascii	"p_stklimit\000"
 6403      6B6C696D 
 6403      697400
 6404              	.LASF209:
 6405 09d9 6932635F 		.ascii	"i2c_lld_serve_tx_end_irq\000"
 6405      6C6C645F 
 6405      73657276 
 6405      655F7478 
 6405      5F656E64 
 6406              	.LASF148:
 6407 09f2 69666372 		.ascii	"ifcr\000"
 6407      00
 6408              	.LASF214:
 6409 09f7 6932635F 		.ascii	"i2c_lld_start\000"
 6409      6C6C645F 
 6409      73746172 
 6409      7400
ARM GAS  C:\Users\z80\AppData\Local\Temp\ccyKjVO9.s 			page 123


 6410              	.LASF61:
 6411 0a05 52656164 		.ascii	"ReadyList\000"
 6411      794C6973 
 6411      7400
 6412              	.LASF155:
 6413 0a0f 4932435F 		.ascii	"I2C_STOP\000"
 6413      53544F50 
 6413      00
 6414              	.LASF30:
 6415 0a18 705F6E61 		.ascii	"p_name\000"
 6415      6D6500
 6416              	.LASF51:
 6417 0a1f 76745F74 		.ascii	"vt_time\000"
 6417      696D6500 
 6418              	.LASF95:
 6419 0a27 444D4131 		.ascii	"DMA1_Channel6_IRQn\000"
 6419      5F436861 
 6419      6E6E656C 
 6419      365F4952 
 6419      516E00
 6420              	.LASF65:
 6421 0a3a 6D5F6E65 		.ascii	"m_next\000"
 6421      787400
 6422              	.LASF82:
 6423 0a41 5254435F 		.ascii	"RTC_IRQn\000"
 6423      4952516E 
 6423      00
 6424              	.LASF37:
 6425 0a4a 705F6D73 		.ascii	"p_msg\000"
 6425      6700
 6426              	.LASF32:
 6427 0a50 705F7374 		.ascii	"p_state\000"
 6427      61746500 
 6428              		.ident	"GCC: (Sourcery CodeBench Lite 2012.03-56) 4.6.3"
ARM GAS  C:\Users\z80\AppData\Local\Temp\ccyKjVO9.s 			page 124


DEFINED SYMBOLS
                            *ABS*:00000000 i2c_lld.c
C:\Users\z80\AppData\Local\Temp\ccyKjVO9.s:23     .bss.I2CD1:00000000 I2CD1
C:\Users\z80\AppData\Local\Temp\ccyKjVO9.s:20     .bss.I2CD1:00000000 $d
C:\Users\z80\AppData\Local\Temp\ccyKjVO9.s:26     .bss.dbgSR1:00000000 $d
C:\Users\z80\AppData\Local\Temp\ccyKjVO9.s:29     .bss.dbgSR1:00000000 dbgSR1
C:\Users\z80\AppData\Local\Temp\ccyKjVO9.s:32     .bss.dbgSR2:00000000 $d
C:\Users\z80\AppData\Local\Temp\ccyKjVO9.s:35     .bss.dbgSR2:00000000 dbgSR2
C:\Users\z80\AppData\Local\Temp\ccyKjVO9.s:38     .bss.dbgCR1:00000000 $d
C:\Users\z80\AppData\Local\Temp\ccyKjVO9.s:41     .bss.dbgCR1:00000000 dbgCR1
C:\Users\z80\AppData\Local\Temp\ccyKjVO9.s:44     .bss.dbgCR2:00000000 $d
C:\Users\z80\AppData\Local\Temp\ccyKjVO9.s:47     .bss.dbgCR2:00000000 dbgCR2
C:\Users\z80\AppData\Local\Temp\ccyKjVO9.s:50     .text.i2c_lld_abort_operation:00000000 $t
C:\Users\z80\AppData\Local\Temp\ccyKjVO9.s:55     .text.i2c_lld_abort_operation:00000000 i2c_lld_abort_operation
C:\Users\z80\AppData\Local\Temp\ccyKjVO9.s:132    .text.i2c_lld_safety_timeout:00000000 $t
C:\Users\z80\AppData\Local\Temp\ccyKjVO9.s:137    .text.i2c_lld_safety_timeout:00000000 i2c_lld_safety_timeout
C:\Users\z80\AppData\Local\Temp\ccyKjVO9.s:187    .rodata:00000000 $d
C:\Users\z80\AppData\Local\Temp\ccyKjVO9.s:188    .rodata:00000000 .LC0
C:\Users\z80\AppData\Local\Temp\ccyKjVO9.s:191    .rodata:00000018 .LC1
C:\Users\z80\AppData\Local\Temp\ccyKjVO9.s:194    .rodata:00000030 .LC2
C:\Users\z80\AppData\Local\Temp\ccyKjVO9.s:197    .rodata:00000048 .LC3
C:\Users\z80\AppData\Local\Temp\ccyKjVO9.s:200    .rodata:00000060 .LC4
C:\Users\z80\AppData\Local\Temp\ccyKjVO9.s:203    .rodata:00000078 .LC5
C:\Users\z80\AppData\Local\Temp\ccyKjVO9.s:206    .rodata:00000090 .LC6
C:\Users\z80\AppData\Local\Temp\ccyKjVO9.s:209    .rodata:000000a8 .LC7
C:\Users\z80\AppData\Local\Temp\ccyKjVO9.s:212    .rodata:000000c0 .LC8
C:\Users\z80\AppData\Local\Temp\ccyKjVO9.s:215    .text.i2c_lld_set_clock:00000000 $t
C:\Users\z80\AppData\Local\Temp\ccyKjVO9.s:220    .text.i2c_lld_set_clock:00000000 i2c_lld_set_clock
C:\Users\z80\AppData\Local\Temp\ccyKjVO9.s:488    .text.i2c_lld_set_opmode:00000000 $t
C:\Users\z80\AppData\Local\Temp\ccyKjVO9.s:493    .text.i2c_lld_set_opmode:00000000 i2c_lld_set_opmode
C:\Users\z80\AppData\Local\Temp\ccyKjVO9.s:562    .text.i2c_lld_serve_event_interrupt:00000000 $t
C:\Users\z80\AppData\Local\Temp\ccyKjVO9.s:567    .text.i2c_lld_serve_event_interrupt:00000000 i2c_lld_serve_event_interrupt
C:\Users\z80\AppData\Local\Temp\ccyKjVO9.s:945    .text.i2c_lld_serve_rx_end_irq:00000000 $t
C:\Users\z80\AppData\Local\Temp\ccyKjVO9.s:950    .text.i2c_lld_serve_rx_end_irq:00000000 i2c_lld_serve_rx_end_irq
C:\Users\z80\AppData\Local\Temp\ccyKjVO9.s:1070   .text.i2c_lld_serve_tx_end_irq:00000000 $t
C:\Users\z80\AppData\Local\Temp\ccyKjVO9.s:1075   .text.i2c_lld_serve_tx_end_irq:00000000 i2c_lld_serve_tx_end_irq
C:\Users\z80\AppData\Local\Temp\ccyKjVO9.s:1136   .text.i2c_lld_serve_error_interrupt:00000000 $t
C:\Users\z80\AppData\Local\Temp\ccyKjVO9.s:1141   .text.i2c_lld_serve_error_interrupt:00000000 i2c_lld_serve_error_interrupt
C:\Users\z80\AppData\Local\Temp\ccyKjVO9.s:1454   .text.VectorBC:00000000 $t
C:\Users\z80\AppData\Local\Temp\ccyKjVO9.s:1460   .text.VectorBC:00000000 VectorBC
C:\Users\z80\AppData\Local\Temp\ccyKjVO9.s:1486   .text.VectorC0:00000000 $t
C:\Users\z80\AppData\Local\Temp\ccyKjVO9.s:1492   .text.VectorC0:00000000 VectorC0
C:\Users\z80\AppData\Local\Temp\ccyKjVO9.s:1518   .text.i2c_lld_init:00000000 $t
C:\Users\z80\AppData\Local\Temp\ccyKjVO9.s:1524   .text.i2c_lld_init:00000000 i2c_lld_init
C:\Users\z80\AppData\Local\Temp\ccyKjVO9.s:1565   .text.i2c_lld_init:00000048 $d
C:\Users\z80\AppData\Local\Temp\ccyKjVO9.s:1572   .rodata:000000d8 .LC9
C:\Users\z80\AppData\Local\Temp\ccyKjVO9.s:1575   .rodata:000000ec .LC10
C:\Users\z80\AppData\Local\Temp\ccyKjVO9.s:1578   .text.i2c_lld_start:00000000 $t
C:\Users\z80\AppData\Local\Temp\ccyKjVO9.s:1584   .text.i2c_lld_start:00000000 i2c_lld_start
C:\Users\z80\AppData\Local\Temp\ccyKjVO9.s:1754   .text.i2c_lld_stop:00000000 $t
C:\Users\z80\AppData\Local\Temp\ccyKjVO9.s:1760   .text.i2c_lld_stop:00000000 i2c_lld_stop
C:\Users\z80\AppData\Local\Temp\ccyKjVO9.s:1821   .rodata:00000100 .LC11
C:\Users\z80\AppData\Local\Temp\ccyKjVO9.s:1824   .text.i2c_lld_master_receive_timeout:00000000 $t
C:\Users\z80\AppData\Local\Temp\ccyKjVO9.s:1830   .text.i2c_lld_master_receive_timeout:00000000 i2c_lld_master_receive_timeout
C:\Users\z80\AppData\Local\Temp\ccyKjVO9.s:2034   .rodata:00000124 .LC12
C:\Users\z80\AppData\Local\Temp\ccyKjVO9.s:2037   .text.i2c_lld_master_transmit_timeout:00000000 $t
C:\Users\z80\AppData\Local\Temp\ccyKjVO9.s:2043   .text.i2c_lld_master_transmit_timeout:00000000 i2c_lld_master_transmit_timeout
ARM GAS  C:\Users\z80\AppData\Local\Temp\ccyKjVO9.s 			page 125


C:\Users\z80\AppData\Local\Temp\ccyKjVO9.s:2264   .text.i2c_lld_slave_io_timeout:00000000 $t
C:\Users\z80\AppData\Local\Temp\ccyKjVO9.s:2270   .text.i2c_lld_slave_io_timeout:00000000 i2c_lld_slave_io_timeout
                     .debug_frame:00000010 $d

UNDEFINED SYMBOLS
chSchReadyI
chDbgPanic
dbg_check_lock_from_isr
dbg_check_unlock_from_isr
port_halt
dbg_check_enter_isr
dbg_check_leave_isr
_port_irq_epilogue
i2cObjectInit
_stm32_dma_streams
dmaStreamAllocate
nvicEnableVector
dmaStreamRelease
nvicDisableVector
chVTSetI
dbg_check_unlock
dbg_check_lock
rlist
chSchGoSleepS
chVTResetI
