ARM GAS  C:\Users\z80\AppData\Local\Temp\cc9rHBnh.s 			page 1


   1              		.syntax unified
   2              		.cpu cortex-m3
   3              		.fpu softvfp
   4              		.eabi_attribute 20, 1
   5              		.eabi_attribute 21, 1
   6              		.eabi_attribute 23, 3
   7              		.eabi_attribute 24, 1
   8              		.eabi_attribute 25, 1
   9              		.eabi_attribute 26, 1
  10              		.eabi_attribute 30, 6
  11              		.eabi_attribute 34, 1
  12              		.eabi_attribute 18, 4
  13              		.thumb
  14              		.file	"iwdg_lld.c"
  15              		.text
  16              	.Ltext0:
  17              		.cfi_sections	.debug_frame
  18              		.global	IWDGD
  19              		.section	.bss.IWDGD,"aw",%nobits
  20              		.align	2
  21              		.type	IWDGD, %object
  22              		.size	IWDGD, 8
  23              	IWDGD:
  24 0000 00000000 		.space	8
  24      00000000 
  25              		.section	.text.iwdg_lld_init,"ax",%progbits
  26              		.align	2
  27              		.p2align 4,,15
  28              		.global	iwdg_lld_init
  29              		.thumb
  30              		.thumb_func
  31              		.type	iwdg_lld_init, %function
  32              	iwdg_lld_init:
  33              	.LFB62:
  34              		.file 1 "./src/iwdg/iwdg_lld.c"
  35              		.loc 1 76 0
  36              		.cfi_startproc
  37              		@ args = 0, pretend = 0, frame = 0
  38              		@ frame_needed = 0, uses_anonymous_args = 0
  39              		@ link register save eliminated.
  40              		.loc 1 77 0
  41 0000 40F20003 		movw	r3, #:lower16:IWDGD
  42 0004 C0F20003 		movt	r3, #:upper16:IWDGD
  43 0008 4FF00102 		mov	r2, #1
  44 000c 1A70     		strb	r2, [r3, #0]
  45              		.loc 1 78 0
  46 000e 40F20003 		movw	r3, #:lower16:IWDGD
  47 0012 C0F20003 		movt	r3, #:upper16:IWDGD
  48 0016 4FF44052 		mov	r2, #12288
  49 001a C4F20002 		movt	r2, 16384
  50 001e 5A60     		str	r2, [r3, #4]
  51              		.loc 1 79 0
  52 0020 7047     		bx	lr
  53              		.cfi_endproc
  54              	.LFE62:
  55              		.size	iwdg_lld_init, .-iwdg_lld_init
  56 0022 00BFAFF3 		.section	.text.iwdg_lld_start,"ax",%progbits
ARM GAS  C:\Users\z80\AppData\Local\Temp\cc9rHBnh.s 			page 2


  56      0080AFF3 
  56      0080AFF3 
  56      0080
  57              		.align	2
  58              		.p2align 4,,15
  59              		.global	iwdg_lld_start
  60              		.thumb
  61              		.thumb_func
  62              		.type	iwdg_lld_start, %function
  63              	iwdg_lld_start:
  64              	.LFB63:
  65              		.loc 1 90 0
  66              		.cfi_startproc
  67              		@ args = 0, pretend = 0, frame = 16
  68              		@ frame_needed = 0, uses_anonymous_args = 0
  69              		@ link register save eliminated.
  70 0000 84B0     		sub	sp, sp, #16
  71              	.LCFI0:
  72              		.cfi_def_cfa_offset 16
  73 0002 0190     		str	r0, [sp, #4]
  74 0004 0091     		str	r1, [sp, #0]
  75              		.loc 1 94 0
  76 0006 019B     		ldr	r3, [sp, #4]
  77 0008 5B68     		ldr	r3, [r3, #4]
  78 000a 0393     		str	r3, [sp, #12]
  79              		.loc 1 95 0
  80 000c 039B     		ldr	r3, [sp, #12]
  81 000e 45F25552 		movw	r2, #21845
  82 0012 1A60     		str	r2, [r3, #0]
  83              		.loc 1 96 0
  84 0014 009B     		ldr	r3, [sp, #0]
  85 0016 9B78     		ldrb	r3, [r3, #2]	@ zero_extendqisi2
  86 0018 1A46     		mov	r2, r3
  87 001a 039B     		ldr	r3, [sp, #12]
  88 001c 5A60     		str	r2, [r3, #4]
  89              		.loc 1 97 0
  90 001e 009B     		ldr	r3, [sp, #0]
  91 0020 1A88     		ldrh	r2, [r3, #0]
  92 0022 40F6FF73 		movw	r3, #4095
  93 0026 9A42     		cmp	r2, r3
  94 0028 02D8     		bhi	.L3
  95              		.loc 1 97 0 is_stmt 0 discriminator 1
  96 002a 009B     		ldr	r3, [sp, #0]
  97 002c 1B88     		ldrh	r3, [r3, #0]
  98 002e 01E0     		b	.L4
  99              	.L3:
 100              		.loc 1 97 0 discriminator 2
 101 0030 40F6FF73 		movw	r3, #4095
 102              	.L4:
 103              		.loc 1 97 0 discriminator 3
 104 0034 039A     		ldr	r2, [sp, #12]
 105 0036 9360     		str	r3, [r2, #8]
 106              		.loc 1 98 0 is_stmt 1 discriminator 3
 107 0038 039B     		ldr	r3, [sp, #12]
 108 003a 4AF6AA22 		movw	r2, #43690
 109 003e 1A60     		str	r2, [r3, #0]
 110              		.loc 1 99 0 discriminator 3
ARM GAS  C:\Users\z80\AppData\Local\Temp\cc9rHBnh.s 			page 3


 111 0040 039B     		ldr	r3, [sp, #12]
 112 0042 4CF6CC42 		movw	r2, #52428
 113 0046 1A60     		str	r2, [r3, #0]
 114              		.loc 1 100 0 discriminator 3
 115 0048 04B0     		add	sp, sp, #16
 116 004a 7047     		bx	lr
 117              		.cfi_endproc
 118              	.LFE63:
 119              		.size	iwdg_lld_start, .-iwdg_lld_start
 120 004c AFF30080 		.section	.text.iwdg_lld_reset,"ax",%progbits
 121              		.align	2
 122              		.p2align 4,,15
 123              		.global	iwdg_lld_reset
 124              		.thumb
 125              		.thumb_func
 126              		.type	iwdg_lld_reset, %function
 127              	iwdg_lld_reset:
 128              	.LFB64:
 129              		.loc 1 110 0
 130              		.cfi_startproc
 131              		@ args = 0, pretend = 0, frame = 8
 132              		@ frame_needed = 0, uses_anonymous_args = 0
 133              		@ link register save eliminated.
 134 0000 82B0     		sub	sp, sp, #8
 135              	.LCFI1:
 136              		.cfi_def_cfa_offset 8
 137 0002 0190     		str	r0, [sp, #4]
 138              		.loc 1 111 0
 139 0004 019B     		ldr	r3, [sp, #4]
 140 0006 5B68     		ldr	r3, [r3, #4]
 141 0008 4AF6AA22 		movw	r2, #43690
 142 000c 1A60     		str	r2, [r3, #0]
 143              		.loc 1 112 0
 144 000e 02B0     		add	sp, sp, #8
 145 0010 7047     		bx	lr
 146              		.cfi_endproc
 147              	.LFE64:
 148              		.size	iwdg_lld_reset, .-iwdg_lld_reset
 149 0012 00BFAFF3 		.text
 149      0080AFF3 
 149      0080AFF3 
 149      0080
 150              	.Letext0:
 151              		.file 2 "c:\\programs\\codesourcery\\2011.03-56\\bin\\../lib/gcc/arm-none-eabi/4.6.3/../../../../a
 152              		.file 3 "../chibios_2.4.x/os/hal/platforms/STM32F1xx/stm32f10x.h"
 153              		.file 4 "./src/iwdg/iwdg.h"
 154              		.file 5 "./src/iwdg/iwdg_lld.h"
 155              		.file 6 "../chibios_2.4.x/os/ports/common/ARMCMx/CMSIS/include/core_cm3.h"
 156              		.section	.debug_info,"",%progbits
 157              	.Ldebug_info0:
 158 0000 37020000 		.4byte	0x237
 159 0004 0200     		.2byte	0x2
 160 0006 00000000 		.4byte	.Ldebug_abbrev0
 161 000a 04       		.byte	0x4
 162 000b 01       		.uleb128 0x1
 163 000c CB000000 		.4byte	.LASF29
 164 0010 01       		.byte	0x1
ARM GAS  C:\Users\z80\AppData\Local\Temp\cc9rHBnh.s 			page 4


 165 0011 00000000 		.4byte	.LASF30
 166 0015 3F000000 		.4byte	.LASF31
 167 0019 00000000 		.4byte	0
 168 001d 00000000 		.4byte	0
 169 0021 00000000 		.4byte	.Ldebug_ranges0+0
 170 0025 00000000 		.4byte	.Ldebug_line0
 171 0029 02       		.uleb128 0x2
 172 002a 04       		.byte	0x4
 173 002b 05       		.byte	0x5
 174 002c 696E7400 		.ascii	"int\000"
 175 0030 03       		.uleb128 0x3
 176 0031 04       		.byte	0x4
 177 0032 07       		.byte	0x7
 178 0033 F4000000 		.4byte	.LASF0
 179 0037 03       		.uleb128 0x3
 180 0038 01       		.byte	0x1
 181 0039 06       		.byte	0x6
 182 003a 6F010000 		.4byte	.LASF1
 183 003e 04       		.uleb128 0x4
 184 003f 06010000 		.4byte	.LASF4
 185 0043 02       		.byte	0x2
 186 0044 2A       		.byte	0x2a
 187 0045 49000000 		.4byte	0x49
 188 0049 03       		.uleb128 0x3
 189 004a 01       		.byte	0x1
 190 004b 08       		.byte	0x8
 191 004c 8B000000 		.4byte	.LASF2
 192 0050 03       		.uleb128 0x3
 193 0051 02       		.byte	0x2
 194 0052 05       		.byte	0x5
 195 0053 3B010000 		.4byte	.LASF3
 196 0057 04       		.uleb128 0x4
 197 0058 51010000 		.4byte	.LASF5
 198 005c 02       		.byte	0x2
 199 005d 36       		.byte	0x36
 200 005e 62000000 		.4byte	0x62
 201 0062 03       		.uleb128 0x3
 202 0063 02       		.byte	0x2
 203 0064 07       		.byte	0x7
 204 0065 AB000000 		.4byte	.LASF6
 205 0069 04       		.uleb128 0x4
 206 006a 1F010000 		.4byte	.LASF7
 207 006e 02       		.byte	0x2
 208 006f 4F       		.byte	0x4f
 209 0070 74000000 		.4byte	0x74
 210 0074 03       		.uleb128 0x3
 211 0075 04       		.byte	0x4
 212 0076 05       		.byte	0x5
 213 0077 2B000000 		.4byte	.LASF8
 214 007b 04       		.uleb128 0x4
 215 007c 5A010000 		.4byte	.LASF9
 216 0080 02       		.byte	0x2
 217 0081 50       		.byte	0x50
 218 0082 86000000 		.4byte	0x86
 219 0086 03       		.uleb128 0x3
 220 0087 04       		.byte	0x4
 221 0088 07       		.byte	0x7
ARM GAS  C:\Users\z80\AppData\Local\Temp\cc9rHBnh.s 			page 5


 222 0089 99000000 		.4byte	.LASF10
 223 008d 03       		.uleb128 0x3
 224 008e 08       		.byte	0x8
 225 008f 05       		.byte	0x5
 226 0090 27010000 		.4byte	.LASF11
 227 0094 03       		.uleb128 0x3
 228 0095 08       		.byte	0x8
 229 0096 07       		.byte	0x7
 230 0097 74000000 		.4byte	.LASF12
 231 009b 05       		.uleb128 0x5
 232 009c 7B000000 		.4byte	0x7b
 233 00a0 03       		.uleb128 0x3
 234 00a1 01       		.byte	0x1
 235 00a2 08       		.byte	0x8
 236 00a3 01010000 		.4byte	.LASF13
 237 00a7 05       		.uleb128 0x5
 238 00a8 69000000 		.4byte	0x69
 239 00ac 06       		.uleb128 0x6
 240 00ad 10       		.byte	0x10
 241 00ae 03       		.byte	0x3
 242 00af 2D04     		.2byte	0x42d
 243 00b1 EF000000 		.4byte	0xef
 244 00b5 07       		.uleb128 0x7
 245 00b6 4B5200   		.ascii	"KR\000"
 246 00b9 03       		.byte	0x3
 247 00ba 2F04     		.2byte	0x42f
 248 00bc 9B000000 		.4byte	0x9b
 249 00c0 02       		.byte	0x2
 250 00c1 23       		.byte	0x23
 251 00c2 00       		.uleb128 0
 252 00c3 07       		.uleb128 0x7
 253 00c4 505200   		.ascii	"PR\000"
 254 00c7 03       		.byte	0x3
 255 00c8 3004     		.2byte	0x430
 256 00ca 9B000000 		.4byte	0x9b
 257 00ce 02       		.byte	0x2
 258 00cf 23       		.byte	0x23
 259 00d0 04       		.uleb128 0x4
 260 00d1 07       		.uleb128 0x7
 261 00d2 524C5200 		.ascii	"RLR\000"
 262 00d6 03       		.byte	0x3
 263 00d7 3104     		.2byte	0x431
 264 00d9 9B000000 		.4byte	0x9b
 265 00dd 02       		.byte	0x2
 266 00de 23       		.byte	0x23
 267 00df 08       		.uleb128 0x8
 268 00e0 07       		.uleb128 0x7
 269 00e1 535200   		.ascii	"SR\000"
 270 00e4 03       		.byte	0x3
 271 00e5 3204     		.2byte	0x432
 272 00e7 9B000000 		.4byte	0x9b
 273 00eb 02       		.byte	0x2
 274 00ec 23       		.byte	0x23
 275 00ed 0C       		.uleb128 0xc
 276 00ee 00       		.byte	0
 277 00ef 08       		.uleb128 0x8
 278 00f0 86010000 		.4byte	.LASF14
ARM GAS  C:\Users\z80\AppData\Local\Temp\cc9rHBnh.s 			page 6


 279 00f4 03       		.byte	0x3
 280 00f5 3304     		.2byte	0x433
 281 00f7 AC000000 		.4byte	0xac
 282 00fb 09       		.uleb128 0x9
 283 00fc 01       		.byte	0x1
 284 00fd 04       		.byte	0x4
 285 00fe 3C       		.byte	0x3c
 286 00ff 16010000 		.4byte	0x116
 287 0103 0A       		.uleb128 0xa
 288 0104 63010000 		.4byte	.LASF15
 289 0108 00       		.sleb128 0
 290 0109 0A       		.uleb128 0xa
 291 010a D7000000 		.4byte	.LASF16
 292 010e 01       		.sleb128 1
 293 010f 0A       		.uleb128 0xa
 294 0110 7B010000 		.4byte	.LASF17
 295 0114 02       		.sleb128 2
 296 0115 00       		.byte	0
 297 0116 04       		.uleb128 0x4
 298 0117 45010000 		.4byte	.LASF18
 299 011b 04       		.byte	0x4
 300 011c 40       		.byte	0x40
 301 011d FB000000 		.4byte	0xfb
 302 0121 0B       		.uleb128 0xb
 303 0122 04       		.byte	0x4
 304 0123 05       		.byte	0x5
 305 0124 49       		.byte	0x49
 306 0125 46010000 		.4byte	0x146
 307 0129 0C       		.uleb128 0xc
 308 012a 6C000000 		.4byte	.LASF19
 309 012e 05       		.byte	0x5
 310 012f 4A       		.byte	0x4a
 311 0130 57000000 		.4byte	0x57
 312 0134 02       		.byte	0x2
 313 0135 23       		.byte	0x23
 314 0136 00       		.uleb128 0
 315 0137 0D       		.uleb128 0xd
 316 0138 64697600 		.ascii	"div\000"
 317 013c 05       		.byte	0x5
 318 013d 4B       		.byte	0x4b
 319 013e 3E000000 		.4byte	0x3e
 320 0142 02       		.byte	0x2
 321 0143 23       		.byte	0x23
 322 0144 02       		.uleb128 0x2
 323 0145 00       		.byte	0
 324 0146 04       		.uleb128 0x4
 325 0147 0E010000 		.4byte	.LASF20
 326 014b 05       		.byte	0x5
 327 014c 4C       		.byte	0x4c
 328 014d 21010000 		.4byte	0x121
 329 0151 0E       		.uleb128 0xe
 330 0152 34000000 		.4byte	.LASF23
 331 0156 08       		.byte	0x8
 332 0157 05       		.byte	0x5
 333 0158 51       		.byte	0x51
 334 0159 7A010000 		.4byte	0x17a
 335 015d 0C       		.uleb128 0xc
ARM GAS  C:\Users\z80\AppData\Local\Temp\cc9rHBnh.s 			page 7


 336 015e 25000000 		.4byte	.LASF21
 337 0162 05       		.byte	0x5
 338 0163 55       		.byte	0x55
 339 0164 16010000 		.4byte	0x116
 340 0168 02       		.byte	0x2
 341 0169 23       		.byte	0x23
 342 016a 00       		.uleb128 0
 343 016b 0C       		.uleb128 0xc
 344 016c E1000000 		.4byte	.LASF22
 345 0170 05       		.byte	0x5
 346 0171 57       		.byte	0x57
 347 0172 7A010000 		.4byte	0x17a
 348 0176 02       		.byte	0x2
 349 0177 23       		.byte	0x23
 350 0178 04       		.uleb128 0x4
 351 0179 00       		.byte	0
 352 017a 0F       		.uleb128 0xf
 353 017b 04       		.byte	0x4
 354 017c EF000000 		.4byte	0xef
 355 0180 04       		.uleb128 0x4
 356 0181 34000000 		.4byte	.LASF23
 357 0185 05       		.byte	0x5
 358 0186 5A       		.byte	0x5a
 359 0187 51010000 		.4byte	0x151
 360 018b 10       		.uleb128 0x10
 361 018c 01       		.byte	0x1
 362 018d E6000000 		.4byte	.LASF32
 363 0191 01       		.byte	0x1
 364 0192 4C       		.byte	0x4c
 365 0193 01       		.byte	0x1
 366 0194 00000000 		.4byte	.LFB62
 367 0198 22000000 		.4byte	.LFE62
 368 019c 02       		.byte	0x2
 369 019d 7D       		.byte	0x7d
 370 019e 00       		.sleb128 0
 371 019f 11       		.uleb128 0x11
 372 01a0 01       		.byte	0x1
 373 01a1 16000000 		.4byte	.LASF25
 374 01a5 01       		.byte	0x1
 375 01a6 59       		.byte	0x59
 376 01a7 01       		.byte	0x1
 377 01a8 00000000 		.4byte	.LFB63
 378 01ac 4C000000 		.4byte	.LFE63
 379 01b0 00000000 		.4byte	.LLST0
 380 01b4 E1010000 		.4byte	0x1e1
 381 01b8 12       		.uleb128 0x12
 382 01b9 19010000 		.4byte	.LASF24
 383 01bd 01       		.byte	0x1
 384 01be 59       		.byte	0x59
 385 01bf E1010000 		.4byte	0x1e1
 386 01c3 02       		.byte	0x2
 387 01c4 91       		.byte	0x91
 388 01c5 74       		.sleb128 -12
 389 01c6 13       		.uleb128 0x13
 390 01c7 63666700 		.ascii	"cfg\000"
 391 01cb 01       		.byte	0x1
 392 01cc 59       		.byte	0x59
ARM GAS  C:\Users\z80\AppData\Local\Temp\cc9rHBnh.s 			page 8


 393 01cd E7010000 		.4byte	0x1e7
 394 01d1 02       		.byte	0x2
 395 01d2 91       		.byte	0x91
 396 01d3 70       		.sleb128 -16
 397 01d4 14       		.uleb128 0x14
 398 01d5 6400     		.ascii	"d\000"
 399 01d7 01       		.byte	0x1
 400 01d8 5E       		.byte	0x5e
 401 01d9 7A010000 		.4byte	0x17a
 402 01dd 02       		.byte	0x2
 403 01de 91       		.byte	0x91
 404 01df 7C       		.sleb128 -4
 405 01e0 00       		.byte	0
 406 01e1 0F       		.uleb128 0xf
 407 01e2 04       		.byte	0x4
 408 01e3 80010000 		.4byte	0x180
 409 01e7 0F       		.uleb128 0xf
 410 01e8 04       		.byte	0x4
 411 01e9 ED010000 		.4byte	0x1ed
 412 01ed 15       		.uleb128 0x15
 413 01ee 46010000 		.4byte	0x146
 414 01f2 11       		.uleb128 0x11
 415 01f3 01       		.byte	0x1
 416 01f4 93010000 		.4byte	.LASF26
 417 01f8 01       		.byte	0x1
 418 01f9 6D       		.byte	0x6d
 419 01fa 01       		.byte	0x1
 420 01fb 00000000 		.4byte	.LFB64
 421 01ff 12000000 		.4byte	.LFE64
 422 0203 20000000 		.4byte	.LLST1
 423 0207 1A020000 		.4byte	0x21a
 424 020b 12       		.uleb128 0x12
 425 020c 19010000 		.4byte	.LASF24
 426 0210 01       		.byte	0x1
 427 0211 6D       		.byte	0x6d
 428 0212 E1010000 		.4byte	0x1e1
 429 0216 02       		.byte	0x2
 430 0217 91       		.byte	0x91
 431 0218 7C       		.sleb128 -4
 432 0219 00       		.byte	0
 433 021a 16       		.uleb128 0x16
 434 021b BE000000 		.4byte	.LASF27
 435 021f 06       		.byte	0x6
 436 0220 9404     		.2byte	0x494
 437 0222 A7000000 		.4byte	0xa7
 438 0226 01       		.byte	0x1
 439 0227 01       		.byte	0x1
 440 0228 17       		.uleb128 0x17
 441 0229 35010000 		.4byte	.LASF28
 442 022d 01       		.byte	0x1
 443 022e 36       		.byte	0x36
 444 022f 80010000 		.4byte	0x180
 445 0233 01       		.byte	0x1
 446 0234 05       		.byte	0x5
 447 0235 03       		.byte	0x3
 448 0236 00000000 		.4byte	IWDGD
 449 023a 00       		.byte	0
ARM GAS  C:\Users\z80\AppData\Local\Temp\cc9rHBnh.s 			page 9


 450              		.section	.debug_abbrev,"",%progbits
 451              	.Ldebug_abbrev0:
 452 0000 01       		.uleb128 0x1
 453 0001 11       		.uleb128 0x11
 454 0002 01       		.byte	0x1
 455 0003 25       		.uleb128 0x25
 456 0004 0E       		.uleb128 0xe
 457 0005 13       		.uleb128 0x13
 458 0006 0B       		.uleb128 0xb
 459 0007 03       		.uleb128 0x3
 460 0008 0E       		.uleb128 0xe
 461 0009 1B       		.uleb128 0x1b
 462 000a 0E       		.uleb128 0xe
 463 000b 11       		.uleb128 0x11
 464 000c 01       		.uleb128 0x1
 465 000d 52       		.uleb128 0x52
 466 000e 01       		.uleb128 0x1
 467 000f 55       		.uleb128 0x55
 468 0010 06       		.uleb128 0x6
 469 0011 10       		.uleb128 0x10
 470 0012 06       		.uleb128 0x6
 471 0013 00       		.byte	0
 472 0014 00       		.byte	0
 473 0015 02       		.uleb128 0x2
 474 0016 24       		.uleb128 0x24
 475 0017 00       		.byte	0
 476 0018 0B       		.uleb128 0xb
 477 0019 0B       		.uleb128 0xb
 478 001a 3E       		.uleb128 0x3e
 479 001b 0B       		.uleb128 0xb
 480 001c 03       		.uleb128 0x3
 481 001d 08       		.uleb128 0x8
 482 001e 00       		.byte	0
 483 001f 00       		.byte	0
 484 0020 03       		.uleb128 0x3
 485 0021 24       		.uleb128 0x24
 486 0022 00       		.byte	0
 487 0023 0B       		.uleb128 0xb
 488 0024 0B       		.uleb128 0xb
 489 0025 3E       		.uleb128 0x3e
 490 0026 0B       		.uleb128 0xb
 491 0027 03       		.uleb128 0x3
 492 0028 0E       		.uleb128 0xe
 493 0029 00       		.byte	0
 494 002a 00       		.byte	0
 495 002b 04       		.uleb128 0x4
 496 002c 16       		.uleb128 0x16
 497 002d 00       		.byte	0
 498 002e 03       		.uleb128 0x3
 499 002f 0E       		.uleb128 0xe
 500 0030 3A       		.uleb128 0x3a
 501 0031 0B       		.uleb128 0xb
 502 0032 3B       		.uleb128 0x3b
 503 0033 0B       		.uleb128 0xb
 504 0034 49       		.uleb128 0x49
 505 0035 13       		.uleb128 0x13
 506 0036 00       		.byte	0
ARM GAS  C:\Users\z80\AppData\Local\Temp\cc9rHBnh.s 			page 10


 507 0037 00       		.byte	0
 508 0038 05       		.uleb128 0x5
 509 0039 35       		.uleb128 0x35
 510 003a 00       		.byte	0
 511 003b 49       		.uleb128 0x49
 512 003c 13       		.uleb128 0x13
 513 003d 00       		.byte	0
 514 003e 00       		.byte	0
 515 003f 06       		.uleb128 0x6
 516 0040 13       		.uleb128 0x13
 517 0041 01       		.byte	0x1
 518 0042 0B       		.uleb128 0xb
 519 0043 0B       		.uleb128 0xb
 520 0044 3A       		.uleb128 0x3a
 521 0045 0B       		.uleb128 0xb
 522 0046 3B       		.uleb128 0x3b
 523 0047 05       		.uleb128 0x5
 524 0048 01       		.uleb128 0x1
 525 0049 13       		.uleb128 0x13
 526 004a 00       		.byte	0
 527 004b 00       		.byte	0
 528 004c 07       		.uleb128 0x7
 529 004d 0D       		.uleb128 0xd
 530 004e 00       		.byte	0
 531 004f 03       		.uleb128 0x3
 532 0050 08       		.uleb128 0x8
 533 0051 3A       		.uleb128 0x3a
 534 0052 0B       		.uleb128 0xb
 535 0053 3B       		.uleb128 0x3b
 536 0054 05       		.uleb128 0x5
 537 0055 49       		.uleb128 0x49
 538 0056 13       		.uleb128 0x13
 539 0057 38       		.uleb128 0x38
 540 0058 0A       		.uleb128 0xa
 541 0059 00       		.byte	0
 542 005a 00       		.byte	0
 543 005b 08       		.uleb128 0x8
 544 005c 16       		.uleb128 0x16
 545 005d 00       		.byte	0
 546 005e 03       		.uleb128 0x3
 547 005f 0E       		.uleb128 0xe
 548 0060 3A       		.uleb128 0x3a
 549 0061 0B       		.uleb128 0xb
 550 0062 3B       		.uleb128 0x3b
 551 0063 05       		.uleb128 0x5
 552 0064 49       		.uleb128 0x49
 553 0065 13       		.uleb128 0x13
 554 0066 00       		.byte	0
 555 0067 00       		.byte	0
 556 0068 09       		.uleb128 0x9
 557 0069 04       		.uleb128 0x4
 558 006a 01       		.byte	0x1
 559 006b 0B       		.uleb128 0xb
 560 006c 0B       		.uleb128 0xb
 561 006d 3A       		.uleb128 0x3a
 562 006e 0B       		.uleb128 0xb
 563 006f 3B       		.uleb128 0x3b
ARM GAS  C:\Users\z80\AppData\Local\Temp\cc9rHBnh.s 			page 11


 564 0070 0B       		.uleb128 0xb
 565 0071 01       		.uleb128 0x1
 566 0072 13       		.uleb128 0x13
 567 0073 00       		.byte	0
 568 0074 00       		.byte	0
 569 0075 0A       		.uleb128 0xa
 570 0076 28       		.uleb128 0x28
 571 0077 00       		.byte	0
 572 0078 03       		.uleb128 0x3
 573 0079 0E       		.uleb128 0xe
 574 007a 1C       		.uleb128 0x1c
 575 007b 0D       		.uleb128 0xd
 576 007c 00       		.byte	0
 577 007d 00       		.byte	0
 578 007e 0B       		.uleb128 0xb
 579 007f 13       		.uleb128 0x13
 580 0080 01       		.byte	0x1
 581 0081 0B       		.uleb128 0xb
 582 0082 0B       		.uleb128 0xb
 583 0083 3A       		.uleb128 0x3a
 584 0084 0B       		.uleb128 0xb
 585 0085 3B       		.uleb128 0x3b
 586 0086 0B       		.uleb128 0xb
 587 0087 01       		.uleb128 0x1
 588 0088 13       		.uleb128 0x13
 589 0089 00       		.byte	0
 590 008a 00       		.byte	0
 591 008b 0C       		.uleb128 0xc
 592 008c 0D       		.uleb128 0xd
 593 008d 00       		.byte	0
 594 008e 03       		.uleb128 0x3
 595 008f 0E       		.uleb128 0xe
 596 0090 3A       		.uleb128 0x3a
 597 0091 0B       		.uleb128 0xb
 598 0092 3B       		.uleb128 0x3b
 599 0093 0B       		.uleb128 0xb
 600 0094 49       		.uleb128 0x49
 601 0095 13       		.uleb128 0x13
 602 0096 38       		.uleb128 0x38
 603 0097 0A       		.uleb128 0xa
 604 0098 00       		.byte	0
 605 0099 00       		.byte	0
 606 009a 0D       		.uleb128 0xd
 607 009b 0D       		.uleb128 0xd
 608 009c 00       		.byte	0
 609 009d 03       		.uleb128 0x3
 610 009e 08       		.uleb128 0x8
 611 009f 3A       		.uleb128 0x3a
 612 00a0 0B       		.uleb128 0xb
 613 00a1 3B       		.uleb128 0x3b
 614 00a2 0B       		.uleb128 0xb
 615 00a3 49       		.uleb128 0x49
 616 00a4 13       		.uleb128 0x13
 617 00a5 38       		.uleb128 0x38
 618 00a6 0A       		.uleb128 0xa
 619 00a7 00       		.byte	0
 620 00a8 00       		.byte	0
ARM GAS  C:\Users\z80\AppData\Local\Temp\cc9rHBnh.s 			page 12


 621 00a9 0E       		.uleb128 0xe
 622 00aa 13       		.uleb128 0x13
 623 00ab 01       		.byte	0x1
 624 00ac 03       		.uleb128 0x3
 625 00ad 0E       		.uleb128 0xe
 626 00ae 0B       		.uleb128 0xb
 627 00af 0B       		.uleb128 0xb
 628 00b0 3A       		.uleb128 0x3a
 629 00b1 0B       		.uleb128 0xb
 630 00b2 3B       		.uleb128 0x3b
 631 00b3 0B       		.uleb128 0xb
 632 00b4 01       		.uleb128 0x1
 633 00b5 13       		.uleb128 0x13
 634 00b6 00       		.byte	0
 635 00b7 00       		.byte	0
 636 00b8 0F       		.uleb128 0xf
 637 00b9 0F       		.uleb128 0xf
 638 00ba 00       		.byte	0
 639 00bb 0B       		.uleb128 0xb
 640 00bc 0B       		.uleb128 0xb
 641 00bd 49       		.uleb128 0x49
 642 00be 13       		.uleb128 0x13
 643 00bf 00       		.byte	0
 644 00c0 00       		.byte	0
 645 00c1 10       		.uleb128 0x10
 646 00c2 2E       		.uleb128 0x2e
 647 00c3 00       		.byte	0
 648 00c4 3F       		.uleb128 0x3f
 649 00c5 0C       		.uleb128 0xc
 650 00c6 03       		.uleb128 0x3
 651 00c7 0E       		.uleb128 0xe
 652 00c8 3A       		.uleb128 0x3a
 653 00c9 0B       		.uleb128 0xb
 654 00ca 3B       		.uleb128 0x3b
 655 00cb 0B       		.uleb128 0xb
 656 00cc 27       		.uleb128 0x27
 657 00cd 0C       		.uleb128 0xc
 658 00ce 11       		.uleb128 0x11
 659 00cf 01       		.uleb128 0x1
 660 00d0 12       		.uleb128 0x12
 661 00d1 01       		.uleb128 0x1
 662 00d2 40       		.uleb128 0x40
 663 00d3 0A       		.uleb128 0xa
 664 00d4 00       		.byte	0
 665 00d5 00       		.byte	0
 666 00d6 11       		.uleb128 0x11
 667 00d7 2E       		.uleb128 0x2e
 668 00d8 01       		.byte	0x1
 669 00d9 3F       		.uleb128 0x3f
 670 00da 0C       		.uleb128 0xc
 671 00db 03       		.uleb128 0x3
 672 00dc 0E       		.uleb128 0xe
 673 00dd 3A       		.uleb128 0x3a
 674 00de 0B       		.uleb128 0xb
 675 00df 3B       		.uleb128 0x3b
 676 00e0 0B       		.uleb128 0xb
 677 00e1 27       		.uleb128 0x27
ARM GAS  C:\Users\z80\AppData\Local\Temp\cc9rHBnh.s 			page 13


 678 00e2 0C       		.uleb128 0xc
 679 00e3 11       		.uleb128 0x11
 680 00e4 01       		.uleb128 0x1
 681 00e5 12       		.uleb128 0x12
 682 00e6 01       		.uleb128 0x1
 683 00e7 40       		.uleb128 0x40
 684 00e8 06       		.uleb128 0x6
 685 00e9 01       		.uleb128 0x1
 686 00ea 13       		.uleb128 0x13
 687 00eb 00       		.byte	0
 688 00ec 00       		.byte	0
 689 00ed 12       		.uleb128 0x12
 690 00ee 05       		.uleb128 0x5
 691 00ef 00       		.byte	0
 692 00f0 03       		.uleb128 0x3
 693 00f1 0E       		.uleb128 0xe
 694 00f2 3A       		.uleb128 0x3a
 695 00f3 0B       		.uleb128 0xb
 696 00f4 3B       		.uleb128 0x3b
 697 00f5 0B       		.uleb128 0xb
 698 00f6 49       		.uleb128 0x49
 699 00f7 13       		.uleb128 0x13
 700 00f8 02       		.uleb128 0x2
 701 00f9 0A       		.uleb128 0xa
 702 00fa 00       		.byte	0
 703 00fb 00       		.byte	0
 704 00fc 13       		.uleb128 0x13
 705 00fd 05       		.uleb128 0x5
 706 00fe 00       		.byte	0
 707 00ff 03       		.uleb128 0x3
 708 0100 08       		.uleb128 0x8
 709 0101 3A       		.uleb128 0x3a
 710 0102 0B       		.uleb128 0xb
 711 0103 3B       		.uleb128 0x3b
 712 0104 0B       		.uleb128 0xb
 713 0105 49       		.uleb128 0x49
 714 0106 13       		.uleb128 0x13
 715 0107 02       		.uleb128 0x2
 716 0108 0A       		.uleb128 0xa
 717 0109 00       		.byte	0
 718 010a 00       		.byte	0
 719 010b 14       		.uleb128 0x14
 720 010c 34       		.uleb128 0x34
 721 010d 00       		.byte	0
 722 010e 03       		.uleb128 0x3
 723 010f 08       		.uleb128 0x8
 724 0110 3A       		.uleb128 0x3a
 725 0111 0B       		.uleb128 0xb
 726 0112 3B       		.uleb128 0x3b
 727 0113 0B       		.uleb128 0xb
 728 0114 49       		.uleb128 0x49
 729 0115 13       		.uleb128 0x13
 730 0116 02       		.uleb128 0x2
 731 0117 0A       		.uleb128 0xa
 732 0118 00       		.byte	0
 733 0119 00       		.byte	0
 734 011a 15       		.uleb128 0x15
ARM GAS  C:\Users\z80\AppData\Local\Temp\cc9rHBnh.s 			page 14


 735 011b 26       		.uleb128 0x26
 736 011c 00       		.byte	0
 737 011d 49       		.uleb128 0x49
 738 011e 13       		.uleb128 0x13
 739 011f 00       		.byte	0
 740 0120 00       		.byte	0
 741 0121 16       		.uleb128 0x16
 742 0122 34       		.uleb128 0x34
 743 0123 00       		.byte	0
 744 0124 03       		.uleb128 0x3
 745 0125 0E       		.uleb128 0xe
 746 0126 3A       		.uleb128 0x3a
 747 0127 0B       		.uleb128 0xb
 748 0128 3B       		.uleb128 0x3b
 749 0129 05       		.uleb128 0x5
 750 012a 49       		.uleb128 0x49
 751 012b 13       		.uleb128 0x13
 752 012c 3F       		.uleb128 0x3f
 753 012d 0C       		.uleb128 0xc
 754 012e 3C       		.uleb128 0x3c
 755 012f 0C       		.uleb128 0xc
 756 0130 00       		.byte	0
 757 0131 00       		.byte	0
 758 0132 17       		.uleb128 0x17
 759 0133 34       		.uleb128 0x34
 760 0134 00       		.byte	0
 761 0135 03       		.uleb128 0x3
 762 0136 0E       		.uleb128 0xe
 763 0137 3A       		.uleb128 0x3a
 764 0138 0B       		.uleb128 0xb
 765 0139 3B       		.uleb128 0x3b
 766 013a 0B       		.uleb128 0xb
 767 013b 49       		.uleb128 0x49
 768 013c 13       		.uleb128 0x13
 769 013d 3F       		.uleb128 0x3f
 770 013e 0C       		.uleb128 0xc
 771 013f 02       		.uleb128 0x2
 772 0140 0A       		.uleb128 0xa
 773 0141 00       		.byte	0
 774 0142 00       		.byte	0
 775 0143 00       		.byte	0
 776              		.section	.debug_loc,"",%progbits
 777              	.Ldebug_loc0:
 778              	.LLST0:
 779 0000 00000000 		.4byte	.LFB63
 780 0004 02000000 		.4byte	.LCFI0
 781 0008 0200     		.2byte	0x2
 782 000a 7D       		.byte	0x7d
 783 000b 00       		.sleb128 0
 784 000c 02000000 		.4byte	.LCFI0
 785 0010 4C000000 		.4byte	.LFE63
 786 0014 0200     		.2byte	0x2
 787 0016 7D       		.byte	0x7d
 788 0017 10       		.sleb128 16
 789 0018 00000000 		.4byte	0
 790 001c 00000000 		.4byte	0
 791              	.LLST1:
ARM GAS  C:\Users\z80\AppData\Local\Temp\cc9rHBnh.s 			page 15


 792 0020 00000000 		.4byte	.LFB64
 793 0024 02000000 		.4byte	.LCFI1
 794 0028 0200     		.2byte	0x2
 795 002a 7D       		.byte	0x7d
 796 002b 00       		.sleb128 0
 797 002c 02000000 		.4byte	.LCFI1
 798 0030 12000000 		.4byte	.LFE64
 799 0034 0200     		.2byte	0x2
 800 0036 7D       		.byte	0x7d
 801 0037 08       		.sleb128 8
 802 0038 00000000 		.4byte	0
 803 003c 00000000 		.4byte	0
 804              		.section	.debug_aranges,"",%progbits
 805 0000 2C000000 		.4byte	0x2c
 806 0004 0200     		.2byte	0x2
 807 0006 00000000 		.4byte	.Ldebug_info0
 808 000a 04       		.byte	0x4
 809 000b 00       		.byte	0
 810 000c 0000     		.2byte	0
 811 000e 0000     		.2byte	0
 812 0010 00000000 		.4byte	.LFB62
 813 0014 22000000 		.4byte	.LFE62-.LFB62
 814 0018 00000000 		.4byte	.LFB63
 815 001c 4C000000 		.4byte	.LFE63-.LFB63
 816 0020 00000000 		.4byte	.LFB64
 817 0024 12000000 		.4byte	.LFE64-.LFB64
 818 0028 00000000 		.4byte	0
 819 002c 00000000 		.4byte	0
 820              		.section	.debug_ranges,"",%progbits
 821              	.Ldebug_ranges0:
 822 0000 00000000 		.4byte	.LFB62
 823 0004 22000000 		.4byte	.LFE62
 824 0008 00000000 		.4byte	.LFB63
 825 000c 4C000000 		.4byte	.LFE63
 826 0010 00000000 		.4byte	.LFB64
 827 0014 12000000 		.4byte	.LFE64
 828 0018 00000000 		.4byte	0
 829 001c 00000000 		.4byte	0
 830              		.section	.debug_line,"",%progbits
 831              	.Ldebug_line0:
 832 0000 97010000 		.section	.debug_str,"MS",%progbits,1
 832      02003801 
 832      00000201 
 832      FB0E0D00 
 832      01010101 
 833              	.LASF30:
 834 0000 2E2F7372 		.ascii	"./src/iwdg/iwdg_lld.c\000"
 834      632F6977 
 834      64672F69 
 834      7764675F 
 834      6C6C642E 
 835              	.LASF25:
 836 0016 69776467 		.ascii	"iwdg_lld_start\000"
 836      5F6C6C64 
 836      5F737461 
 836      727400
 837              	.LASF21:
ARM GAS  C:\Users\z80\AppData\Local\Temp\cc9rHBnh.s 			page 16


 838 0025 73746174 		.ascii	"state\000"
 838      6500
 839              	.LASF8:
 840 002b 6C6F6E67 		.ascii	"long int\000"
 840      20696E74 
 840      00
 841              	.LASF23:
 842 0034 49574447 		.ascii	"IWDGDriver\000"
 842      44726976 
 842      657200
 843              	.LASF31:
 844 003f 433A5C70 		.ascii	"C:\\projects\\digitizer.git\\firmware\\digitizer\000"
 844      726F6A65 
 844      6374735C 
 844      64696769 
 844      74697A65 
 845              	.LASF19:
 846 006c 636F756E 		.ascii	"counter\000"
 846      74657200 
 847              	.LASF12:
 848 0074 6C6F6E67 		.ascii	"long long unsigned int\000"
 848      206C6F6E 
 848      6720756E 
 848      7369676E 
 848      65642069 
 849              	.LASF2:
 850 008b 756E7369 		.ascii	"unsigned char\000"
 850      676E6564 
 850      20636861 
 850      7200
 851              	.LASF10:
 852 0099 6C6F6E67 		.ascii	"long unsigned int\000"
 852      20756E73 
 852      69676E65 
 852      6420696E 
 852      7400
 853              	.LASF6:
 854 00ab 73686F72 		.ascii	"short unsigned int\000"
 854      7420756E 
 854      7369676E 
 854      65642069 
 854      6E7400
 855              	.LASF27:
 856 00be 49544D5F 		.ascii	"ITM_RxBuffer\000"
 856      52784275 
 856      66666572 
 856      00
 857              	.LASF29:
 858 00cb 474E5520 		.ascii	"GNU C 4.6.3\000"
 858      4320342E 
 858      362E3300 
 859              	.LASF16:
 860 00d7 49574447 		.ascii	"IWDG_STOP\000"
 860      5F53544F 
 860      5000
 861              	.LASF22:
 862 00e1 69776467 		.ascii	"iwdg\000"
ARM GAS  C:\Users\z80\AppData\Local\Temp\cc9rHBnh.s 			page 17


 862      00
 863              	.LASF32:
 864 00e6 69776467 		.ascii	"iwdg_lld_init\000"
 864      5F6C6C64 
 864      5F696E69 
 864      7400
 865              	.LASF0:
 866 00f4 756E7369 		.ascii	"unsigned int\000"
 866      676E6564 
 866      20696E74 
 866      00
 867              	.LASF13:
 868 0101 63686172 		.ascii	"char\000"
 868      00
 869              	.LASF4:
 870 0106 75696E74 		.ascii	"uint8_t\000"
 870      385F7400 
 871              	.LASF20:
 872 010e 49574447 		.ascii	"IWDGConfig\000"
 872      436F6E66 
 872      696700
 873              	.LASF24:
 874 0119 69776467 		.ascii	"iwdgp\000"
 874      7000
 875              	.LASF7:
 876 011f 696E7433 		.ascii	"int32_t\000"
 876      325F7400 
 877              	.LASF11:
 878 0127 6C6F6E67 		.ascii	"long long int\000"
 878      206C6F6E 
 878      6720696E 
 878      7400
 879              	.LASF28:
 880 0135 49574447 		.ascii	"IWDGD\000"
 880      4400
 881              	.LASF3:
 882 013b 73686F72 		.ascii	"short int\000"
 882      7420696E 
 882      7400
 883              	.LASF18:
 884 0145 69776467 		.ascii	"iwdgstate_t\000"
 884      73746174 
 884      655F7400 
 885              	.LASF5:
 886 0151 75696E74 		.ascii	"uint16_t\000"
 886      31365F74 
 886      00
 887              	.LASF9:
 888 015a 75696E74 		.ascii	"uint32_t\000"
 888      33325F74 
 888      00
 889              	.LASF15:
 890 0163 49574447 		.ascii	"IWDG_UNINIT\000"
 890      5F554E49 
 890      4E495400 
 891              	.LASF1:
 892 016f 7369676E 		.ascii	"signed char\000"
ARM GAS  C:\Users\z80\AppData\Local\Temp\cc9rHBnh.s 			page 18


 892      65642063 
 892      68617200 
 893              	.LASF17:
 894 017b 49574447 		.ascii	"IWDG_READY\000"
 894      5F524541 
 894      445900
 895              	.LASF14:
 896 0186 49574447 		.ascii	"IWDG_TypeDef\000"
 896      5F547970 
 896      65446566 
 896      00
 897              	.LASF26:
 898 0193 69776467 		.ascii	"iwdg_lld_reset\000"
 898      5F6C6C64 
 898      5F726573 
 898      657400
 899              		.ident	"GCC: (Sourcery CodeBench Lite 2012.03-56) 4.6.3"
ARM GAS  C:\Users\z80\AppData\Local\Temp\cc9rHBnh.s 			page 19


DEFINED SYMBOLS
                            *ABS*:00000000 iwdg_lld.c
C:\Users\z80\AppData\Local\Temp\cc9rHBnh.s:23     .bss.IWDGD:00000000 IWDGD
C:\Users\z80\AppData\Local\Temp\cc9rHBnh.s:20     .bss.IWDGD:00000000 $d
C:\Users\z80\AppData\Local\Temp\cc9rHBnh.s:26     .text.iwdg_lld_init:00000000 $t
C:\Users\z80\AppData\Local\Temp\cc9rHBnh.s:32     .text.iwdg_lld_init:00000000 iwdg_lld_init
C:\Users\z80\AppData\Local\Temp\cc9rHBnh.s:57     .text.iwdg_lld_start:00000000 $t
C:\Users\z80\AppData\Local\Temp\cc9rHBnh.s:63     .text.iwdg_lld_start:00000000 iwdg_lld_start
C:\Users\z80\AppData\Local\Temp\cc9rHBnh.s:121    .text.iwdg_lld_reset:00000000 $t
C:\Users\z80\AppData\Local\Temp\cc9rHBnh.s:127    .text.iwdg_lld_reset:00000000 iwdg_lld_reset
                     .debug_frame:00000010 $d

NO UNDEFINED SYMBOLS
