ARM GAS  C:\Users\z80\AppData\Local\Temp\ccqTM5Fb.s 			page 1


   1              		.syntax unified
   2              		.cpu cortex-m3
   3              		.fpu softvfp
   4              		.eabi_attribute 20, 1
   5              		.eabi_attribute 21, 1
   6              		.eabi_attribute 23, 3
   7              		.eabi_attribute 24, 1
   8              		.eabi_attribute 25, 1
   9              		.eabi_attribute 26, 1
  10              		.eabi_attribute 30, 6
  11              		.eabi_attribute 34, 1
  12              		.eabi_attribute 18, 4
  13              		.thumb
  14              		.file	"iwdg.c"
  15              		.text
  16              	.Ltext0:
  17              		.cfi_sections	.debug_frame
  18              		.section	.text.iwdgInit,"ax",%progbits
  19              		.align	2
  20              		.p2align 4,,15
  21              		.global	iwdgInit
  22              		.thumb
  23              		.thumb_func
  24              		.type	iwdgInit, %function
  25              	iwdgInit:
  26              	.LFB62:
  27              		.file 1 "./src/iwdg/iwdg.c"
  28              		.loc 1 70 0
  29              		.cfi_startproc
  30              		@ args = 0, pretend = 0, frame = 0
  31              		@ frame_needed = 0, uses_anonymous_args = 0
  32 0000 08B5     		push	{r3, lr}
  33              	.LCFI0:
  34              		.cfi_def_cfa_offset 8
  35              		.cfi_offset 14, -4
  36              		.cfi_offset 3, -8
  37              		.loc 1 71 0
  38 0002 FFF7FEFF 		bl	iwdg_lld_init
  39              		.loc 1 72 0
  40 0006 08BD     		pop	{r3, pc}
  41              		.cfi_endproc
  42              	.LFE62:
  43              		.size	iwdgInit, .-iwdgInit
  44 0008 AFF30080 		.section	.rodata
  44      AFF30080 
  45              		.align	2
  46              	.LC0:
  47 0000 22697764 		.ascii	"\"iwdgStart\"()\000"
  47      67537461 
  47      72742228 
  47      2900
  48              		.section	.text.iwdgStart,"ax",%progbits
  49              		.align	2
  50              		.p2align 4,,15
  51              		.global	iwdgStart
  52              		.thumb
  53              		.thumb_func
ARM GAS  C:\Users\z80\AppData\Local\Temp\ccqTM5Fb.s 			page 2


  54              		.type	iwdgStart, %function
  55              	iwdgStart:
  56              	.LFB63:
  57              		.loc 1 84 0
  58              		.cfi_startproc
  59              		@ args = 0, pretend = 0, frame = 8
  60              		@ frame_needed = 0, uses_anonymous_args = 0
  61 0000 00B5     		push	{lr}
  62              	.LCFI1:
  63              		.cfi_def_cfa_offset 4
  64              		.cfi_offset 14, -4
  65 0002 83B0     		sub	sp, sp, #12
  66              	.LCFI2:
  67              		.cfi_def_cfa_offset 16
  68 0004 0190     		str	r0, [sp, #4]
  69 0006 0091     		str	r1, [sp, #0]
  70              		.loc 1 85 0
  71 0008 019B     		ldr	r3, [sp, #4]
  72 000a 002B     		cmp	r3, #0
  73 000c 02D0     		beq	.L3
  74              		.loc 1 85 0 is_stmt 0 discriminator 2
  75 000e 009B     		ldr	r3, [sp, #0]
  76 0010 002B     		cmp	r3, #0
  77 0012 05D1     		bne	.L4
  78              	.L3:
  79              		.loc 1 85 0 discriminator 1
  80 0014 40F20000 		movw	r0, #:lower16:.LC0
  81 0018 C0F20000 		movt	r0, #:upper16:.LC0
  82 001c FFF7FEFF 		bl	chDbgPanic
  83              	.L4:
  84              	.LBB2:
  85              		.loc 1 87 0 is_stmt 1
  86 0020 4FF02003 		mov	r3, #32
  87              	@ 87 "./src/iwdg/iwdg.c" 1
  88 0024 83F31188 		msr     BASEPRI, r3
  89              	@ 0 "" 2
  90              		.thumb
  91              	.LBE2:
  92 0028 FFF7FEFF 		bl	dbg_check_lock
  93              		.loc 1 88 0
  94 002c 0198     		ldr	r0, [sp, #4]
  95 002e 0099     		ldr	r1, [sp, #0]
  96 0030 FFF7FEFF 		bl	iwdg_lld_start
  97              		.loc 1 89 0
  98 0034 019B     		ldr	r3, [sp, #4]
  99 0036 4FF00202 		mov	r2, #2
 100 003a 1A70     		strb	r2, [r3, #0]
 101              		.loc 1 90 0
 102 003c FFF7FEFF 		bl	dbg_check_unlock
 103              	.LBB3:
 104 0040 4FF00003 		mov	r3, #0
 105              	@ 90 "./src/iwdg/iwdg.c" 1
 106 0044 83F31188 		msr     BASEPRI, r3
 107              	@ 0 "" 2
 108              		.thumb
 109              	.LBE3:
 110              		.loc 1 91 0
ARM GAS  C:\Users\z80\AppData\Local\Temp\ccqTM5Fb.s 			page 3


 111 0048 03B0     		add	sp, sp, #12
 112 004a 00BD     		pop	{pc}
 113              		.cfi_endproc
 114              	.LFE63:
 115              		.size	iwdgStart, .-iwdgStart
 116 004c AFF30080 		.section	.rodata
 117 000e 0000     		.align	2
 118              	.LC1:
 119 0010 22697764 		.ascii	"\"iwdgReset\"()\000"
 119      67526573 
 119      65742228 
 119      2900
 120 001e 0000     		.section	.text.iwdgReset,"ax",%progbits
 121              		.align	2
 122              		.p2align 4,,15
 123              		.global	iwdgReset
 124              		.thumb
 125              		.thumb_func
 126              		.type	iwdgReset, %function
 127              	iwdgReset:
 128              	.LFB64:
 129              		.loc 1 101 0
 130              		.cfi_startproc
 131              		@ args = 0, pretend = 0, frame = 8
 132              		@ frame_needed = 0, uses_anonymous_args = 0
 133 0000 00B5     		push	{lr}
 134              	.LCFI3:
 135              		.cfi_def_cfa_offset 4
 136              		.cfi_offset 14, -4
 137 0002 83B0     		sub	sp, sp, #12
 138              	.LCFI4:
 139              		.cfi_def_cfa_offset 16
 140 0004 0190     		str	r0, [sp, #4]
 141              		.loc 1 102 0
 142 0006 019B     		ldr	r3, [sp, #4]
 143 0008 002B     		cmp	r3, #0
 144 000a 05D1     		bne	.L6
 145              		.loc 1 102 0 is_stmt 0 discriminator 1
 146 000c 40F20000 		movw	r0, #:lower16:.LC1
 147 0010 C0F20000 		movt	r0, #:upper16:.LC1
 148 0014 FFF7FEFF 		bl	chDbgPanic
 149              	.L6:
 150              	.LBB4:
 151              		.loc 1 104 0 is_stmt 1
 152 0018 4FF02003 		mov	r3, #32
 153              	@ 104 "./src/iwdg/iwdg.c" 1
 154 001c 83F31188 		msr     BASEPRI, r3
 155              	@ 0 "" 2
 156              		.thumb
 157              	.LBE4:
 158 0020 FFF7FEFF 		bl	dbg_check_lock
 159              		.loc 1 105 0
 160 0024 0198     		ldr	r0, [sp, #4]
 161 0026 FFF7FEFF 		bl	iwdg_lld_reset
 162              		.loc 1 106 0
 163 002a FFF7FEFF 		bl	dbg_check_unlock
 164              	.LBB5:
ARM GAS  C:\Users\z80\AppData\Local\Temp\ccqTM5Fb.s 			page 4


 165 002e 4FF00003 		mov	r3, #0
 166              	@ 106 "./src/iwdg/iwdg.c" 1
 167 0032 83F31188 		msr     BASEPRI, r3
 168              	@ 0 "" 2
 169              		.thumb
 170              	.LBE5:
 171              		.loc 1 107 0
 172 0036 03B0     		add	sp, sp, #12
 173 0038 00BD     		pop	{pc}
 174              		.cfi_endproc
 175              	.LFE64:
 176              		.size	iwdgReset, .-iwdgReset
 177 003a 00BFAFF3 		.text
 177      0080
 178              	.Letext0:
 179              		.file 2 "c:\\programs\\codesourcery\\2011.03-56\\bin\\../lib/gcc/arm-none-eabi/4.6.3/../../../../a
 180              		.file 3 "../chibios_2.4.x/os/hal/platforms/STM32F1xx/stm32f10x.h"
 181              		.file 4 "./src/iwdg/iwdg.h"
 182              		.file 5 "./src/iwdg/iwdg_lld.h"
 183              		.file 6 "../chibios_2.4.x/os/ports/common/ARMCMx/CMSIS/include/core_cm3.h"