ARM GAS  C:\Users\z80\AppData\Local\Temp\ccfnRJCM.s 			page 1


   1              		.syntax unified
   2              		.cpu cortex-m3
   3              		.fpu softvfp
   4              		.eabi_attribute 20, 1
   5              		.eabi_attribute 21, 1
   6              		.eabi_attribute 23, 3
   7              		.eabi_attribute 24, 1
   8              		.eabi_attribute 25, 1
   9              		.eabi_attribute 26, 1
  10              		.eabi_attribute 30, 6
  11              		.eabi_attribute 18, 4
  12              		.thumb
  13              		.file	"led_ctrl.c"
  20 0000 4D020000 		.text
  20      0200C201 
  20      00000201 
  20      FB0E0D00 
  20      01010101 
  21              	.Ltext0:
  22              		.cfi_sections	.debug_frame
  23              		.section	.bss.mutex,"aw",%nobits
  24              		.align	2
  25              		.type	mutex, %object
  26              		.size	mutex, 16
  27              	mutex:
  28 0000 00000000 		.space	16
  28      00000000 
  28      00000000 
  28      00000000 
  29              		.section	.bss.value,"aw",%nobits
  30              		.align	2
  31              		.type	value, %object
  32              		.size	value, 4
  33              	value:
  34 0000 00000000 		.space	4
  35              		.section	.bss.waLeds,"aw",%nobits
  36              		.align	3
  37              		.type	waLeds, %object
  38              		.size	waLeds, 432
  39              	waLeds:
  40 0000 00000000 		.space	432
  40      00000000 
  40      00000000 
  40      00000000 
  40      00000000 
  41              		.section	.rodata
  42              		.align	2
  43              	.LC0:
  44 0000 6C6400   		.ascii	"ld\000"
  45 0003 00       		.section	.text.ledsThread,"ax",%progbits
  46              		.align	2
ARM GAS  C:\Users\z80\AppData\Local\Temp\ccfnRJCM.s 			page 2


  47              		.p2align 4,,15
  48              		.thumb
  49              		.thumb_func
  50              		.type	ledsThread, %function
  51              	ledsThread:
  52              	.LFB62:
  53              		.file 1 "./src/led_ctrl.c"
  54              		.loc 1 15 0
  55              		.cfi_startproc
  56              		@ args = 0, pretend = 0, frame = 8
  57              		@ frame_needed = 0, uses_anonymous_args = 0
  58 0000 00B5     		push	{lr}
  59              	.LCFI0:
  60              		.cfi_def_cfa_offset 4
  61 0002 83B0     		sub	sp, sp, #12
  62              	.LCFI1:
  63              		.cfi_def_cfa_offset 16
  64 0004 0190     		str	r0, [sp, #4]
  65              		.loc 1 17 0
  66 0006 40F20003 		movw	r3, #:lower16:rlist
  67 000a C0F20003 		movt	r3, #:upper16:rlist
  68 000e DA69     		ldr	r2, [r3, #28]
  69 0010 40F20003 		movw	r3, #:lower16:.LC0
  70 0014 C0F20003 		movt	r3, #:upper16:.LC0
  71 0018 9361     		str	r3, [r2, #24]
  72              	.L6:
  73              	.LBB2:
  74              		.loc 1 21 0
  75 001a 40F20000 		movw	r0, #:lower16:mutex
  76 001e C0F20000 		movt	r0, #:upper16:mutex
  77              		.cfi_offset 14, -4
  78 0022 FFF7FEFF 		bl	chMtxLock
  79              		.loc 1 22 0
  80 0026 40F20003 		movw	r3, #:lower16:value
  81 002a C0F20003 		movt	r3, #:upper16:value
  82 002e 1A68     		ldr	r2, [r3, #0]
  83 0030 40F20003 		movw	r3, #:lower16:arg.3388
  84 0034 C0F20003 		movt	r3, #:upper16:arg.3388
  85 0038 1A60     		str	r2, [r3, #0]
  86              		.loc 1 23 0
  87 003a 40F20003 		movw	r3, #:lower16:arg.3388
  88 003e C0F20003 		movt	r3, #:upper16:arg.3388
  89 0042 1B68     		ldr	r3, [r3, #0]
  90 0044 03F00103 		and	r3, r3, #1
  91 0048 DBB2     		uxtb	r3, r3
  92 004a 002B     		cmp	r3, #0
  93 004c 0CD0     		beq	.L2
  94              		.loc 1 24 0
  95 004e 4FF48053 		mov	r3, #4096
  96 0052 C4F20103 		movt	r3, 16385
  97 0056 4FF48052 		mov	r2, #4096
  98 005a C4F20102 		movt	r2, 16385
  99 005e D268     		ldr	r2, [r2, #12]
 100 0060 82F48042 		eor	r2, r2, #16384
 101 0064 DA60     		str	r2, [r3, #12]
 102 0066 06E0     		b	.L3
 103              	.L2:
ARM GAS  C:\Users\z80\AppData\Local\Temp\ccfnRJCM.s 			page 3


 104              		.loc 1 26 0
 105 0068 4FF48053 		mov	r3, #4096
 106 006c C4F20103 		movt	r3, 16385
 107 0070 4FF48042 		mov	r2, #16384
 108 0074 5A61     		str	r2, [r3, #20]
 109              	.L3:
 110              		.loc 1 28 0
 111 0076 40F20003 		movw	r3, #:lower16:arg.3388
 112 007a C0F20003 		movt	r3, #:upper16:arg.3388
 113 007e 1B68     		ldr	r3, [r3, #0]
 114 0080 03F00203 		and	r3, r3, #2
 115 0084 002B     		cmp	r3, #0
 116 0086 0CD0     		beq	.L4
 117              		.loc 1 29 0
 118 0088 4FF48053 		mov	r3, #4096
 119 008c C4F20103 		movt	r3, 16385
 120 0090 4FF48052 		mov	r2, #4096
 121 0094 C4F20102 		movt	r2, 16385
 122 0098 D268     		ldr	r2, [r2, #12]
 123 009a 82F40052 		eor	r2, r2, #8192
 124 009e DA60     		str	r2, [r3, #12]
 125 00a0 06E0     		b	.L5
 126              	.L4:
 127              		.loc 1 31 0
 128 00a2 4FF48053 		mov	r3, #4096
 129 00a6 C4F20103 		movt	r3, 16385
 130 00aa 4FF40052 		mov	r2, #8192
 131 00ae 5A61     		str	r2, [r3, #20]
 132              	.L5:
 133              		.loc 1 32 0
 134 00b0 FFF7FEFF 		bl	chMtxUnlock
 135              		.loc 1 33 0
 136 00b4 4FF0FA00 		mov	r0, #250
 137 00b8 FFF7FEFF 		bl	chThdSleep
 138              		.loc 1 35 0
 139 00bc FFF7FEFF 		bl	processTemp
 140              	.LBE2:
 141              		.loc 1 36 0
 142 00c0 ABE7     		b	.L6
 143              		.cfi_endproc
 144              	.LFE62:
 145              		.size	ledsThread, .-ledsThread
 146 00c2 00BFAFF3 		.section	.text.initLed,"ax",%progbits
 146      0080AFF3 
 146      0080AFF3 
 146      0080
 147              		.align	2
 148              		.p2align 4,,15
 149              		.global	initLed
 150              		.thumb
 151              		.thumb_func
 152              		.type	initLed, %function
 153              	initLed:
 154              	.LFB63:
 155              		.loc 1 42 0
 156              		.cfi_startproc
 157              		@ args = 0, pretend = 0, frame = 0
ARM GAS  C:\Users\z80\AppData\Local\Temp\ccfnRJCM.s 			page 4


 158              		@ frame_needed = 0, uses_anonymous_args = 0
 159 0000 00B5     		push	{lr}
 160              	.LCFI2:
 161              		.cfi_def_cfa_offset 4
 162 0002 83B0     		sub	sp, sp, #12
 163              	.LCFI3:
 164              		.cfi_def_cfa_offset 16
 165              		.loc 1 43 0
 166 0004 4FF48053 		mov	r3, #4096
 167 0008 C4F20103 		movt	r3, 16385
 168 000c 4FF48042 		mov	r2, #16384
 169 0010 5A61     		str	r2, [r3, #20]
 170              		.loc 1 44 0
 171 0012 4FF48053 		mov	r3, #4096
 172 0016 C4F20103 		movt	r3, 16385
 173 001a 4FF40052 		mov	r2, #8192
 174 001e 5A61     		str	r2, [r3, #20]
 175              		.loc 1 45 0
 176 0020 4FF48050 		mov	r0, #4096
 177 0024 C4F20100 		movt	r0, 16385
 178 0028 4FF48041 		mov	r1, #16384
 179 002c 4FF00602 		mov	r2, #6
 180              		.cfi_offset 14, -4
 181 0030 FFF7FEFF 		bl	_pal_lld_setgroupmode
 182              		.loc 1 46 0
 183 0034 4FF48050 		mov	r0, #4096
 184 0038 C4F20100 		movt	r0, 16385
 185 003c 4FF40051 		mov	r1, #8192
 186 0040 4FF00602 		mov	r2, #6
 187 0044 FFF7FEFF 		bl	_pal_lld_setgroupmode
 188              		.loc 1 49 0
 189 0048 40F20000 		movw	r0, #:lower16:mutex
 190 004c C0F20000 		movt	r0, #:upper16:mutex
 191 0050 FFF7FEFF 		bl	chMtxInit
 192              		.loc 1 51 0
 193 0054 4FF00003 		mov	r3, #0
 194 0058 0093     		str	r3, [sp, #0]
 195 005a 40F20000 		movw	r0, #:lower16:waLeds
 196 005e C0F20000 		movt	r0, #:upper16:waLeds
 197 0062 4FF4D871 		mov	r1, #432
 198 0066 4FF04002 		mov	r2, #64
 199 006a 40F20003 		movw	r3, #:lower16:ledsThread
 200 006e C0F20003 		movt	r3, #:upper16:ledsThread
 201 0072 FFF7FEFF 		bl	chThdCreateStatic
 202              		.loc 1 52 0
 203 0076 03B0     		add	sp, sp, #12
 204 0078 00BD     		pop	{pc}
 205              		.cfi_endproc
 206              	.LFE63:
 207              		.size	initLed, .-initLed
 208 007a 00BFAFF3 		.section	.text.setLeds,"ax",%progbits
 208      0080
 209              		.align	2
 210              		.p2align 4,,15
 211              		.global	setLeds
 212              		.thumb
 213              		.thumb_func
ARM GAS  C:\Users\z80\AppData\Local\Temp\ccfnRJCM.s 			page 5


 214              		.type	setLeds, %function
 215              	setLeds:
 216              	.LFB64:
 217              		.loc 1 55 0
 218              		.cfi_startproc
 219              		@ args = 0, pretend = 0, frame = 8
 220              		@ frame_needed = 0, uses_anonymous_args = 0
 221 0000 00B5     		push	{lr}
 222              	.LCFI4:
 223              		.cfi_def_cfa_offset 4
 224 0002 83B0     		sub	sp, sp, #12
 225              	.LCFI5:
 226              		.cfi_def_cfa_offset 16
 227 0004 0190     		str	r0, [sp, #4]
 228              		.loc 1 56 0
 229 0006 40F20000 		movw	r0, #:lower16:mutex
 230 000a C0F20000 		movt	r0, #:upper16:mutex
 231              		.cfi_offset 14, -4
 232 000e FFF7FEFF 		bl	chMtxLock
 233              		.loc 1 57 0
 234 0012 40F20003 		movw	r3, #:lower16:value
 235 0016 C0F20003 		movt	r3, #:upper16:value
 236 001a 019A     		ldr	r2, [sp, #4]
 237 001c 1A60     		str	r2, [r3, #0]
 238              		.loc 1 58 0
 239 001e FFF7FEFF 		bl	chMtxUnlock
 240              		.loc 1 59 0
 241 0022 03B0     		add	sp, sp, #12
 242 0024 00BD     		pop	{pc}
 243              		.cfi_endproc
 244              	.LFE64:
 245              		.size	setLeds, .-setLeds
 246 0026 00BFAFF3 		.section	.text.toggleLeds,"ax",%progbits
 246      0080AFF3 
 246      0080
 247              		.align	2
 248              		.p2align 4,,15
 249              		.global	toggleLeds
 250              		.thumb
 251              		.thumb_func
 252              		.type	toggleLeds, %function
 253              	toggleLeds:
 254              	.LFB65:
 255              		.loc 1 62 0
 256              		.cfi_startproc
 257              		@ args = 0, pretend = 0, frame = 8
 258              		@ frame_needed = 0, uses_anonymous_args = 0
 259 0000 00B5     		push	{lr}
 260              	.LCFI6:
 261              		.cfi_def_cfa_offset 4
 262 0002 83B0     		sub	sp, sp, #12
 263              	.LCFI7:
 264              		.cfi_def_cfa_offset 16
 265 0004 0190     		str	r0, [sp, #4]
 266              		.loc 1 63 0
 267 0006 40F20000 		movw	r0, #:lower16:mutex
 268 000a C0F20000 		movt	r0, #:upper16:mutex
ARM GAS  C:\Users\z80\AppData\Local\Temp\ccfnRJCM.s 			page 6


 269              		.cfi_offset 14, -4
 270 000e FFF7FEFF 		bl	chMtxLock
 271              		.loc 1 64 0
 272 0012 019B     		ldr	r3, [sp, #4]
 273 0014 6FEA0302 		mvn	r2, r3
 274 0018 40F20003 		movw	r3, #:lower16:value
 275 001c C0F20003 		movt	r3, #:upper16:value
 276 0020 1B68     		ldr	r3, [r3, #0]
 277 0022 02EA0302 		and	r2, r2, r3
 278              		.loc 1 65 0
 279 0026 40F20003 		movw	r3, #:lower16:value
 280 002a C0F20003 		movt	r3, #:upper16:value
 281 002e 1B68     		ldr	r3, [r3, #0]
 282 0030 6FEA0301 		mvn	r1, r3
 283 0034 019B     		ldr	r3, [sp, #4]
 284 0036 01EA0303 		and	r3, r1, r3
 285 003a 03F00703 		and	r3, r3, #7
 286              		.loc 1 64 0
 287 003e 42EA0302 		orr	r2, r2, r3
 288 0042 40F20003 		movw	r3, #:lower16:value
 289 0046 C0F20003 		movt	r3, #:upper16:value
 290 004a 1A60     		str	r2, [r3, #0]
 291              		.loc 1 66 0
 292 004c FFF7FEFF 		bl	chMtxUnlock
 293              		.loc 1 67 0
 294 0050 03B0     		add	sp, sp, #12
 295 0052 00BD     		pop	{pc}
 296              		.cfi_endproc
 297              	.LFE65:
 298              		.size	toggleLeds, .-toggleLeds
 299 0054 AFF30080 		.section	.text.toggleLedsImmediate,"ax",%progbits
 299      AFF30080 
 299      AFF30080 
 300              		.align	2
 301              		.p2align 4,,15
 302              		.global	toggleLedsImmediate
 303              		.thumb
 304              		.thumb_func
 305              		.type	toggleLedsImmediate, %function
 306              	toggleLedsImmediate:
 307              	.LFB66:
 308              		.loc 1 70 0
 309              		.cfi_startproc
 310              		@ args = 0, pretend = 0, frame = 8
 311              		@ frame_needed = 0, uses_anonymous_args = 0
 312              		@ link register save eliminated.
 313 0000 82B0     		sub	sp, sp, #8
 314              	.LCFI8:
 315              		.cfi_def_cfa_offset 8
 316 0002 0190     		str	r0, [sp, #4]
 317              		.loc 1 71 0
 318 0004 019B     		ldr	r3, [sp, #4]
 319 0006 03F00103 		and	r3, r3, #1
 320 000a DBB2     		uxtb	r3, r3
 321 000c 002B     		cmp	r3, #0
 322 000e 0BD0     		beq	.L11
 323              		.loc 1 72 0
ARM GAS  C:\Users\z80\AppData\Local\Temp\ccfnRJCM.s 			page 7


 324 0010 4FF48053 		mov	r3, #4096
 325 0014 C4F20103 		movt	r3, 16385
 326 0018 4FF48052 		mov	r2, #4096
 327 001c C4F20102 		movt	r2, 16385
 328 0020 D268     		ldr	r2, [r2, #12]
 329 0022 82F48042 		eor	r2, r2, #16384
 330 0026 DA60     		str	r2, [r3, #12]
 331              	.L11:
 332              		.loc 1 73 0
 333 0028 019B     		ldr	r3, [sp, #4]
 334 002a 03F00203 		and	r3, r3, #2
 335 002e 002B     		cmp	r3, #0
 336 0030 0BD0     		beq	.L10
 337              		.loc 1 74 0
 338 0032 4FF48053 		mov	r3, #4096
 339 0036 C4F20103 		movt	r3, 16385
 340 003a 4FF48052 		mov	r2, #4096
 341 003e C4F20102 		movt	r2, 16385
 342 0042 D268     		ldr	r2, [r2, #12]
 343 0044 82F40052 		eor	r2, r2, #8192
 344 0048 DA60     		str	r2, [r3, #12]
 345              	.L10:
 346              		.loc 1 75 0
 347 004a 02B0     		add	sp, sp, #8
 348 004c 7047     		bx	lr
 349              		.cfi_endproc
 350              	.LFE66:
 351              		.size	toggleLedsImmediate, .-toggleLedsImmediate
 352 004e 00BF     		.section	.text.toggleLedsI,"ax",%progbits
 353              		.align	2
 354              		.p2align 4,,15
 355              		.global	toggleLedsI
 356              		.thumb
 357              		.thumb_func
 358              		.type	toggleLedsI, %function
 359              	toggleLedsI:
 360              	.LFB67:
 361              		.loc 1 78 0
 362              		.cfi_startproc
 363              		@ args = 0, pretend = 0, frame = 8
 364              		@ frame_needed = 0, uses_anonymous_args = 0
 365              		@ link register save eliminated.
 366 0000 82B0     		sub	sp, sp, #8
 367              	.LCFI9:
 368              		.cfi_def_cfa_offset 8
 369 0002 0190     		str	r0, [sp, #4]
 370              		.loc 1 79 0
 371 0004 019B     		ldr	r3, [sp, #4]
 372 0006 03F00103 		and	r3, r3, #1
 373 000a DBB2     		uxtb	r3, r3
 374 000c 002B     		cmp	r3, #0
 375 000e 0BD0     		beq	.L14
 376              		.loc 1 80 0
 377 0010 4FF48053 		mov	r3, #4096
 378 0014 C4F20103 		movt	r3, 16385
 379 0018 4FF48052 		mov	r2, #4096
 380 001c C4F20102 		movt	r2, 16385
ARM GAS  C:\Users\z80\AppData\Local\Temp\ccfnRJCM.s 			page 8


 381 0020 D268     		ldr	r2, [r2, #12]
 382 0022 82F48042 		eor	r2, r2, #16384
 383 0026 DA60     		str	r2, [r3, #12]
 384              	.L14:
 385              		.loc 1 81 0
 386 0028 019B     		ldr	r3, [sp, #4]
 387 002a 03F00203 		and	r3, r3, #2
 388 002e 002B     		cmp	r3, #0
 389 0030 0BD0     		beq	.L13
 390              		.loc 1 82 0
 391 0032 4FF48053 		mov	r3, #4096
 392 0036 C4F20103 		movt	r3, 16385
 393 003a 4FF48052 		mov	r2, #4096
 394 003e C4F20102 		movt	r2, 16385
 395 0042 D268     		ldr	r2, [r2, #12]
 396 0044 82F40052 		eor	r2, r2, #8192
 397 0048 DA60     		str	r2, [r3, #12]
 398              	.L13:
 399              		.loc 1 83 0
 400 004a 02B0     		add	sp, sp, #8
 401 004c 7047     		bx	lr
 402              		.cfi_endproc
 403              	.LFE67:
 404              		.size	toggleLedsI, .-toggleLedsI
 405 004e 00BF     		.section	.bss.arg.3388,"aw",%nobits
 406              		.align	2
 407              		.type	arg.3388, %object
 408              		.size	arg.3388, 4
 409              	arg.3388:
 410 0000 00000000 		.space	4
 411              		.text
 412              	.Letext0: