ARM GAS  /tmp/ccsSXh69.s 			page 1


   1              		.syntax unified
   2              		.cpu cortex-m3
   3              		.fpu softvfp
   4              		.eabi_attribute 20, 1
   5              		.eabi_attribute 21, 1
   6              		.eabi_attribute 23, 3
   7              		.eabi_attribute 24, 1
   8              		.eabi_attribute 25, 1
   9              		.eabi_attribute 26, 1
  10              		.eabi_attribute 30, 6
  11              		.eabi_attribute 18, 4
  12              		.thumb
  13              		.file	"main.c"
  14              		.section	.debug_abbrev,"",%progbits
  15              	.Ldebug_abbrev0:
  16              		.section	.debug_info,"",%progbits
  17              	.Ldebug_info0:
  18              		.section	.debug_line,"",%progbits
  19              	.Ldebug_line0:
  20 0000 0E010000 		.text
  20      0200E400 
  20      00000201 
  20      FB0E0D00 
  20      01010101 
  21              	.Ltext0:
  22              		.cfi_sections	.debug_frame
  23              		.section	.text.main,"ax",%progbits
  24              		.align	2
  25              		.p2align 4,,15
  26              		.global	main
  27              		.thumb
  28              		.thumb_func
  29              		.type	main, %function
  30              	main:
  31              	.LFB62:
  32              		.file 1 "./src/main.c"
  33              		.loc 1 15 0
  34              		.cfi_startproc
  35              		@ args = 0, pretend = 0, frame = 0
  36              		@ frame_needed = 0, uses_anonymous_args = 0
  37 0000 08B5     		push	{r3, lr}
  38              	.LCFI0:
  39              		.cfi_def_cfa_offset 8
  40              		.loc 1 16 0
  41              		.cfi_offset 14, -4
  42              		.cfi_offset 3, -8
  43 0002 FFF7FEFF 		bl	halInit
  44              		.loc 1 17 0
  45 0006 FFF7FEFF 		bl	chSysInit
  46              		.loc 1 19 0
  47 000a FFF7FEFF 		bl	initAdc
  48              		.loc 1 20 0
  49 000e FFF7FEFF 		bl	initDac
  50              		.loc 1 21 0
  51 0012 FFF7FEFF 		bl	initSweep
  52              		.loc 1 22 0
  53 0016 FFF7FEFF 		bl	initTimer
ARM GAS  /tmp/ccsSXh69.s 			page 2


  54              		.loc 1 23 0
  55 001a FFF7FEFF 		bl	initCpuIo
  56              		.loc 1 24 0
  57 001e FFF7FEFF 		bl	initTemp
  58              		.loc 1 25 0
  59 0022 FFF7FEFF 		bl	initLed
  60              	.L2:
  61              		.loc 1 29 0 discriminator 1
  62 0026 FFF7FEFF 		bl	processCpuIo
  63              		.loc 1 58 0 discriminator 1
  64 002a FCE7     		b	.L2
  65              		.cfi_endproc
  66              	.LFE62:
  67              		.size	main, .-main
  68 002c AFF30080 		.text
  69              	.Letext0:
  70              		.section	.debug_loc,"",%progbits
  71              	.Ldebug_loc0:
  72              	.LLST0:
  73 0000 00000000 		.4byte	.LFB62
  74 0004 02000000 		.4byte	.LCFI0
  75 0008 0200     		.2byte	0x2
  76 000a 7D       		.byte	0x7d
  77 000b 00       		.sleb128 0
  78 000c 02000000 		.4byte	.LCFI0
  79 0010 2C000000 		.4byte	.LFE62
  80 0014 0200     		.2byte	0x2
  81 0016 7D       		.byte	0x7d
  82 0017 08       		.sleb128 8
  83 0018 00000000 		.4byte	0x0
  84 001c 00000000 		.4byte	0x0
  85              		.file 2 "../chibios_2.4.x/os/ports/common/ARMCMx/CMSIS/include/core_cm3.h"
  86              		.file 3 "/home/z80/programs/code-sourcery/2011.03-42/bin/../lib/gcc/arm-none-eabi/4.5.2/../../../.
  87              		.section	.debug_info
  88 0000 B8000000 		.4byte	0xb8
  89 0004 0200     		.2byte	0x2
  90 0006 00000000 		.4byte	.Ldebug_abbrev0
  91 000a 04       		.byte	0x4
  92 000b 01       		.uleb128 0x1
  93 000c 21000000 		.4byte	.LASF11
  94 0010 01       		.byte	0x1
  95 0011 97000000 		.4byte	.LASF12
  96 0015 3A000000 		.4byte	.LASF13
  97 0019 00000000 		.4byte	0x0
  98 001d 00000000 		.4byte	0x0
  99 0021 00000000 		.4byte	.Ldebug_ranges0+0x0
 100 0025 00000000 		.4byte	.Ldebug_line0
 101 0029 02       		.uleb128 0x2
 102 002a 04       		.byte	0x4
 103 002b 05       		.byte	0x5
 104 002c 696E7400 		.ascii	"int\000"
 105 0030 03       		.uleb128 0x3
 106 0031 04       		.byte	0x4
 107 0032 07       		.byte	0x7
 108 0033 2D000000 		.4byte	.LASF0
 109 0037 03       		.uleb128 0x3
 110 0038 01       		.byte	0x1
ARM GAS  /tmp/ccsSXh69.s 			page 3


 111 0039 06       		.byte	0x6
 112 003a CD000000 		.4byte	.LASF1
 113 003e 03       		.uleb128 0x3
 114 003f 01       		.byte	0x1
 115 0040 08       		.byte	0x8
 116 0041 A4000000 		.4byte	.LASF2
 117 0045 03       		.uleb128 0x3
 118 0046 02       		.byte	0x2
 119 0047 05       		.byte	0x5
 120 0048 D9000000 		.4byte	.LASF3
 121 004c 03       		.uleb128 0x3
 122 004d 02       		.byte	0x2
 123 004e 07       		.byte	0x7
 124 004f 0E000000 		.4byte	.LASF4
 125 0053 04       		.uleb128 0x4
 126 0054 E3000000 		.4byte	.LASF14
 127 0058 03       		.byte	0x3
 128 0059 4F       		.byte	0x4f
 129 005a 5E000000 		.4byte	0x5e
 130 005e 03       		.uleb128 0x3
 131 005f 04       		.byte	0x4
 132 0060 05       		.byte	0x5
 133 0061 B7000000 		.4byte	.LASF5
 134 0065 03       		.uleb128 0x3
 135 0066 04       		.byte	0x4
 136 0067 07       		.byte	0x7
 137 0068 6E000000 		.4byte	.LASF6
 138 006c 03       		.uleb128 0x3
 139 006d 08       		.byte	0x8
 140 006e 05       		.byte	0x5
 141 006f 00000000 		.4byte	.LASF7
 142 0073 03       		.uleb128 0x3
 143 0074 08       		.byte	0x8
 144 0075 07       		.byte	0x7
 145 0076 80000000 		.4byte	.LASF8
 146 007a 03       		.uleb128 0x3
 147 007b 01       		.byte	0x1
 148 007c 08       		.byte	0x8
 149 007d EB000000 		.4byte	.LASF9
 150 0081 05       		.uleb128 0x5
 151 0082 53000000 		.4byte	0x53
 152 0086 06       		.uleb128 0x6
 153 0087 01       		.byte	0x1
 154 0088 B2000000 		.4byte	.LASF15
 155 008c 01       		.byte	0x1
 156 008d 0E       		.byte	0xe
 157 008e 01       		.byte	0x1
 158 008f 29000000 		.4byte	0x29
 159 0093 00000000 		.4byte	.LFB62
 160 0097 2C000000 		.4byte	.LFE62
 161 009b 00000000 		.4byte	.LLST0
 162 009f 07       		.uleb128 0x7
 163 00a0 C0000000 		.4byte	.LASF10
 164 00a4 02       		.byte	0x2
 165 00a5 9404     		.2byte	0x494
 166 00a7 81000000 		.4byte	0x81
 167 00ab 01       		.byte	0x1
ARM GAS  /tmp/ccsSXh69.s 			page 4


 168 00ac 01       		.byte	0x1
 169 00ad 07       		.uleb128 0x7
 170 00ae C0000000 		.4byte	.LASF10
 171 00b2 02       		.byte	0x2
 172 00b3 9404     		.2byte	0x494
 173 00b5 81000000 		.4byte	0x81
 174 00b9 01       		.byte	0x1
 175 00ba 01       		.byte	0x1
 176 00bb 00       		.byte	0x0
 177              		.section	.debug_abbrev
 178 0000 01       		.uleb128 0x1
 179 0001 11       		.uleb128 0x11
 180 0002 01       		.byte	0x1
 181 0003 25       		.uleb128 0x25
 182 0004 0E       		.uleb128 0xe
 183 0005 13       		.uleb128 0x13
 184 0006 0B       		.uleb128 0xb
 185 0007 03       		.uleb128 0x3
 186 0008 0E       		.uleb128 0xe
 187 0009 1B       		.uleb128 0x1b
 188 000a 0E       		.uleb128 0xe
 189 000b 11       		.uleb128 0x11
 190 000c 01       		.uleb128 0x1
 191 000d 52       		.uleb128 0x52
 192 000e 01       		.uleb128 0x1
 193 000f 55       		.uleb128 0x55
 194 0010 06       		.uleb128 0x6
 195 0011 10       		.uleb128 0x10
 196 0012 06       		.uleb128 0x6
 197 0013 00       		.byte	0x0
 198 0014 00       		.byte	0x0
 199 0015 02       		.uleb128 0x2
 200 0016 24       		.uleb128 0x24
 201 0017 00       		.byte	0x0
 202 0018 0B       		.uleb128 0xb
 203 0019 0B       		.uleb128 0xb
 204 001a 3E       		.uleb128 0x3e
 205 001b 0B       		.uleb128 0xb
 206 001c 03       		.uleb128 0x3
 207 001d 08       		.uleb128 0x8
 208 001e 00       		.byte	0x0
 209 001f 00       		.byte	0x0
 210 0020 03       		.uleb128 0x3
 211 0021 24       		.uleb128 0x24
 212 0022 00       		.byte	0x0
 213 0023 0B       		.uleb128 0xb
 214 0024 0B       		.uleb128 0xb
 215 0025 3E       		.uleb128 0x3e
 216 0026 0B       		.uleb128 0xb
 217 0027 03       		.uleb128 0x3
 218 0028 0E       		.uleb128 0xe
 219 0029 00       		.byte	0x0
 220 002a 00       		.byte	0x0
 221 002b 04       		.uleb128 0x4
 222 002c 16       		.uleb128 0x16
 223 002d 00       		.byte	0x0
 224 002e 03       		.uleb128 0x3
ARM GAS  /tmp/ccsSXh69.s 			page 5


 225 002f 0E       		.uleb128 0xe
 226 0030 3A       		.uleb128 0x3a
 227 0031 0B       		.uleb128 0xb
 228 0032 3B       		.uleb128 0x3b
 229 0033 0B       		.uleb128 0xb
 230 0034 49       		.uleb128 0x49
 231 0035 13       		.uleb128 0x13
 232 0036 00       		.byte	0x0
 233 0037 00       		.byte	0x0
 234 0038 05       		.uleb128 0x5
 235 0039 35       		.uleb128 0x35
 236 003a 00       		.byte	0x0
 237 003b 49       		.uleb128 0x49
 238 003c 13       		.uleb128 0x13
 239 003d 00       		.byte	0x0
 240 003e 00       		.byte	0x0
 241 003f 06       		.uleb128 0x6
 242 0040 2E       		.uleb128 0x2e
 243 0041 00       		.byte	0x0
 244 0042 3F       		.uleb128 0x3f
 245 0043 0C       		.uleb128 0xc
 246 0044 03       		.uleb128 0x3
 247 0045 0E       		.uleb128 0xe
 248 0046 3A       		.uleb128 0x3a
 249 0047 0B       		.uleb128 0xb
 250 0048 3B       		.uleb128 0x3b
 251 0049 0B       		.uleb128 0xb
 252 004a 27       		.uleb128 0x27
 253 004b 0C       		.uleb128 0xc
 254 004c 49       		.uleb128 0x49
 255 004d 13       		.uleb128 0x13
 256 004e 11       		.uleb128 0x11
 257 004f 01       		.uleb128 0x1
 258 0050 12       		.uleb128 0x12
 259 0051 01       		.uleb128 0x1
 260 0052 40       		.uleb128 0x40
 261 0053 06       		.uleb128 0x6
 262 0054 00       		.byte	0x0
 263 0055 00       		.byte	0x0
 264 0056 07       		.uleb128 0x7
 265 0057 34       		.uleb128 0x34
 266 0058 00       		.byte	0x0
 267 0059 03       		.uleb128 0x3
 268 005a 0E       		.uleb128 0xe
 269 005b 3A       		.uleb128 0x3a
 270 005c 0B       		.uleb128 0xb
 271 005d 3B       		.uleb128 0x3b
 272 005e 05       		.uleb128 0x5
 273 005f 49       		.uleb128 0x49
 274 0060 13       		.uleb128 0x13
 275 0061 3F       		.uleb128 0x3f
 276 0062 0C       		.uleb128 0xc
 277 0063 3C       		.uleb128 0x3c
 278 0064 0C       		.uleb128 0xc
 279 0065 00       		.byte	0x0
 280 0066 00       		.byte	0x0
 281 0067 00       		.byte	0x0
ARM GAS  /tmp/ccsSXh69.s 			page 6


 282              		.section	.debug_pubnames,"",%progbits
 283 0000 17000000 		.4byte	0x17
 284 0004 0200     		.2byte	0x2
 285 0006 00000000 		.4byte	.Ldebug_info0
 286 000a BC000000 		.4byte	0xbc
 287 000e 86000000 		.4byte	0x86
 288 0012 6D61696E 		.ascii	"main\000"
 288      00
 289 0017 00000000 		.4byte	0x0
 290              		.section	.debug_pubtypes,"",%progbits
 291 0000 1A000000 		.4byte	0x1a
 292 0004 0200     		.2byte	0x2
 293 0006 00000000 		.4byte	.Ldebug_info0
 294 000a BC000000 		.4byte	0xbc
 295 000e 53000000 		.4byte	0x53
 296 0012 696E7433 		.ascii	"int32_t\000"
 296      325F7400 
 297 001a 00000000 		.4byte	0x0
 298              		.section	.debug_aranges,"",%progbits
 299 0000 1C000000 		.4byte	0x1c
 300 0004 0200     		.2byte	0x2
 301 0006 00000000 		.4byte	.Ldebug_info0
 302 000a 04       		.byte	0x4
 303 000b 00       		.byte	0x0
 304 000c 0000     		.2byte	0x0
 305 000e 0000     		.2byte	0x0
 306 0010 00000000 		.4byte	.LFB62
 307 0014 2C000000 		.4byte	.LFE62-.LFB62
 308 0018 00000000 		.4byte	0x0
 309 001c 00000000 		.4byte	0x0
 310              		.section	.debug_ranges,"",%progbits
 311              	.Ldebug_ranges0:
 312 0000 00000000 		.4byte	.LFB62
 313 0004 2C000000 		.4byte	.LFE62
 314 0008 00000000 		.4byte	0x0
 315 000c 00000000 		.4byte	0x0
 316              		.section	.debug_str,"MS",%progbits,1
 317              	.LASF7:
 318 0000 6C6F6E67 		.ascii	"long long int\000"
 318      206C6F6E 
 318      6720696E 
 318      7400
 319              	.LASF4:
 320 000e 73686F72 		.ascii	"short unsigned int\000"
 320      7420756E 
 320      7369676E 
 320      65642069 
 320      6E7400
 321              	.LASF11:
 322 0021 474E5520 		.ascii	"GNU C 4.5.2\000"
 322      4320342E 
 322      352E3200 
 323              	.LASF0:
 324 002d 756E7369 		.ascii	"unsigned int\000"
 324      676E6564 
 324      20696E74 
 324      00
ARM GAS  /tmp/ccsSXh69.s 			page 7


 325              	.LASF13:
 326 003a 2F686F6D 		.ascii	"/home/z80/projects/digitizer.git/firmware/digitizer"
 326      652F7A38 
 326      302F7072 
 326      6F6A6563 
 326      74732F64 
 327 006d 00       		.ascii	"\000"
 328              	.LASF6:
 329 006e 6C6F6E67 		.ascii	"long unsigned int\000"
 329      20756E73 
 329      69676E65 
 329      6420696E 
 329      7400
 330              	.LASF8:
 331 0080 6C6F6E67 		.ascii	"long long unsigned int\000"
 331      206C6F6E 
 331      6720756E 
 331      7369676E 
 331      65642069 
 332              	.LASF12:
 333 0097 2E2F7372 		.ascii	"./src/main.c\000"
 333      632F6D61 
 333      696E2E63 
 333      00
 334              	.LASF2:
 335 00a4 756E7369 		.ascii	"unsigned char\000"
 335      676E6564 
 335      20636861 
 335      7200
 336              	.LASF15:
 337 00b2 6D61696E 		.ascii	"main\000"
 337      00
 338              	.LASF5:
 339 00b7 6C6F6E67 		.ascii	"long int\000"
 339      20696E74 
 339      00
 340              	.LASF10:
 341 00c0 49544D5F 		.ascii	"ITM_RxBuffer\000"
 341      52784275 
 341      66666572 
 341      00
 342              	.LASF1:
 343 00cd 7369676E 		.ascii	"signed char\000"
 343      65642063 
 343      68617200 
 344              	.LASF3:
 345 00d9 73686F72 		.ascii	"short int\000"
 345      7420696E 
 345      7400
 346              	.LASF14:
 347 00e3 696E7433 		.ascii	"int32_t\000"
 347      325F7400 
 348              	.LASF9:
 349 00eb 63686172 		.ascii	"char\000"
 349      00
 350              		.ident	"GCC: (Sourcery G++ Lite 2011.03-42) 4.5.2"
ARM GAS  /tmp/ccsSXh69.s 			page 8


DEFINED SYMBOLS
                            *ABS*:00000000 main.c
     /tmp/ccsSXh69.s:24     .text.main:00000000 $t
     /tmp/ccsSXh69.s:30     .text.main:00000000 main
                     .debug_frame:00000010 $d

UNDEFINED SYMBOLS
halInit
chSysInit
initAdc
initDac
initSweep
initTimer
initCpuIo
initTemp
initLed
processCpuIo
