ARM GAS  C:\Users\z80\AppData\Local\Temp\ccDftlKk.s 			page 1


   1              		.syntax unified
   2              		.cpu cortex-m3
   3              		.fpu softvfp
   4              		.eabi_attribute 20, 1
   5              		.eabi_attribute 21, 1
   6              		.eabi_attribute 23, 3
   7              		.eabi_attribute 24, 1
   8              		.eabi_attribute 25, 1
   9              		.eabi_attribute 26, 1
  10              		.eabi_attribute 30, 6
  11              		.eabi_attribute 34, 1
  12              		.eabi_attribute 18, 4
  13              		.thumb
  14              		.file	"main.c"
  15              		.text
  16              	.Ltext0:
  17              		.cfi_sections	.debug_frame
  18              		.section	.text.main,"ax",%progbits
  19              		.align	2
  20              		.p2align 4,,15
  21              		.global	main
  22              		.thumb
  23              		.thumb_func
  24              		.type	main, %function
  25              	main:
  26              	.LFB62:
  27              		.file 1 "./src/main.c"
  28              		.loc 1 15 0
  29              		.cfi_startproc
  30              		@ args = 0, pretend = 0, frame = 0
  31              		@ frame_needed = 0, uses_anonymous_args = 0
  32 0000 08B5     		push	{r3, lr}
  33              	.LCFI0:
  34              		.cfi_def_cfa_offset 8
  35              		.cfi_offset 14, -4
  36              		.cfi_offset 3, -8
  37              		.loc 1 16 0
  38 0002 FFF7FEFF 		bl	halInit
  39              		.loc 1 17 0
  40 0006 FFF7FEFF 		bl	chSysInit
  41              		.loc 1 19 0
  42 000a FFF7FEFF 		bl	initAdc
  43              		.loc 1 20 0
  44 000e FFF7FEFF 		bl	initDac
  45              		.loc 1 21 0
  46 0012 FFF7FEFF 		bl	initSweep
  47              		.loc 1 22 0
  48 0016 FFF7FEFF 		bl	initTimer
  49              		.loc 1 23 0
  50 001a FFF7FEFF 		bl	initCpuIo
  51              		.loc 1 24 0
  52 001e FFF7FEFF 		bl	initTemp
  53              		.loc 1 25 0
  54 0022 FFF7FEFF 		bl	initLed
  55              		.loc 1 26 0
  56 0026 4FF00300 		mov	r0, #3
  57 002a FFF7FEFF 		bl	setLeds
ARM GAS  C:\Users\z80\AppData\Local\Temp\ccDftlKk.s 			page 2


  58              	.L2:
  59              		.loc 1 30 0 discriminator 1
  60 002e FFF7FEFF 		bl	processCpuIo
  61              		.loc 1 59 0 discriminator 1
  62 0032 FCE7     		b	.L2
  63              		.cfi_endproc
  64              	.LFE62:
  65              		.size	main, .-main
  66 0034 AFF30080 		.text
  66      AFF30080 
  66      AFF30080 
  67              	.Letext0:
  68              		.file 2 "c:\\programs\\codesourcery\\2011.03-56\\bin\\../lib/gcc/arm-none-eabi/4.6.3/../../../../a
  69              		.file 3 "../chibios_2.4.x/os/ports/common/ARMCMx/CMSIS/include/core_cm3.h"
  70              		.section	.debug_info,"",%progbits
  71              	.Ldebug_info0:
  72 0000 AA000000 		.4byte	0xaa
  73 0004 0200     		.2byte	0x2
  74 0006 00000000 		.4byte	.Ldebug_abbrev0
  75 000a 04       		.byte	0x4
  76 000b 01       		.uleb128 0x1
  77 000c 80000000 		.4byte	.LASF10
  78 0010 01       		.byte	0x1
  79 0011 57000000 		.4byte	.LASF11
  80 0015 8C000000 		.4byte	.LASF12
  81 0019 00000000 		.4byte	0
  82 001d 00000000 		.4byte	0
  83 0021 00000000 		.4byte	.Ldebug_ranges0+0
  84 0025 00000000 		.4byte	.Ldebug_line0
  85 0029 02       		.uleb128 0x2
  86 002a 04       		.byte	0x4
  87 002b 05       		.byte	0x5
  88 002c 696E7400 		.ascii	"int\000"
  89 0030 03       		.uleb128 0x3
  90 0031 04       		.byte	0x4
  91 0032 07       		.byte	0x7
  92 0033 21000000 		.4byte	.LASF0
  93 0037 03       		.uleb128 0x3
  94 0038 01       		.byte	0x1
  95 0039 06       		.byte	0x6
  96 003a C6000000 		.4byte	.LASF1
  97 003e 03       		.uleb128 0x3
  98 003f 01       		.byte	0x1
  99 0040 08       		.byte	0x8
 100 0041 64000000 		.4byte	.LASF2
 101 0045 03       		.uleb128 0x3
 102 0046 02       		.byte	0x2
 103 0047 05       		.byte	0x5
 104 0048 D2000000 		.4byte	.LASF3
 105 004c 03       		.uleb128 0x3
 106 004d 02       		.byte	0x2
 107 004e 07       		.byte	0x7
 108 004f 0E000000 		.4byte	.LASF4
 109 0053 04       		.uleb128 0x4
 110 0054 DC000000 		.4byte	.LASF13
 111 0058 02       		.byte	0x2
 112 0059 4F       		.byte	0x4f
ARM GAS  C:\Users\z80\AppData\Local\Temp\ccDftlKk.s 			page 3


 113 005a 5E000000 		.4byte	0x5e
 114 005e 03       		.uleb128 0x3
 115 005f 04       		.byte	0x4
 116 0060 05       		.byte	0x5
 117 0061 77000000 		.4byte	.LASF5
 118 0065 03       		.uleb128 0x3
 119 0066 04       		.byte	0x4
 120 0067 07       		.byte	0x7
 121 0068 2E000000 		.4byte	.LASF6
 122 006c 03       		.uleb128 0x3
 123 006d 08       		.byte	0x8
 124 006e 05       		.byte	0x5
 125 006f 00000000 		.4byte	.LASF7
 126 0073 03       		.uleb128 0x3
 127 0074 08       		.byte	0x8
 128 0075 07       		.byte	0x7
 129 0076 40000000 		.4byte	.LASF8
 130 007a 03       		.uleb128 0x3
 131 007b 01       		.byte	0x1
 132 007c 08       		.byte	0x8
 133 007d E4000000 		.4byte	.LASF9
 134 0081 05       		.uleb128 0x5
 135 0082 53000000 		.4byte	0x53
 136 0086 06       		.uleb128 0x6
 137 0087 01       		.byte	0x1
 138 0088 72000000 		.4byte	.LASF14
 139 008c 01       		.byte	0x1
 140 008d 0E       		.byte	0xe
 141 008e 01       		.byte	0x1
 142 008f 29000000 		.4byte	0x29
 143 0093 00000000 		.4byte	.LFB62
 144 0097 34000000 		.4byte	.LFE62
 145 009b 00000000 		.4byte	.LLST0
 146 009f 07       		.uleb128 0x7
 147 00a0 B9000000 		.4byte	.LASF15
 148 00a4 03       		.byte	0x3
 149 00a5 9404     		.2byte	0x494
 150 00a7 81000000 		.4byte	0x81
 151 00ab 01       		.byte	0x1
 152 00ac 01       		.byte	0x1
 153 00ad 00       		.byte	0
 154              		.section	.debug_abbrev,"",%progbits
 155              	.Ldebug_abbrev0:
 156 0000 01       		.uleb128 0x1
 157 0001 11       		.uleb128 0x11
 158 0002 01       		.byte	0x1
 159 0003 25       		.uleb128 0x25
 160 0004 0E       		.uleb128 0xe
 161 0005 13       		.uleb128 0x13
 162 0006 0B       		.uleb128 0xb
 163 0007 03       		.uleb128 0x3
 164 0008 0E       		.uleb128 0xe
 165 0009 1B       		.uleb128 0x1b
 166 000a 0E       		.uleb128 0xe
 167 000b 11       		.uleb128 0x11
 168 000c 01       		.uleb128 0x1
 169 000d 52       		.uleb128 0x52
ARM GAS  C:\Users\z80\AppData\Local\Temp\ccDftlKk.s 			page 4


 170 000e 01       		.uleb128 0x1
 171 000f 55       		.uleb128 0x55
 172 0010 06       		.uleb128 0x6
 173 0011 10       		.uleb128 0x10
 174 0012 06       		.uleb128 0x6
 175 0013 00       		.byte	0
 176 0014 00       		.byte	0
 177 0015 02       		.uleb128 0x2
 178 0016 24       		.uleb128 0x24
 179 0017 00       		.byte	0
 180 0018 0B       		.uleb128 0xb
 181 0019 0B       		.uleb128 0xb
 182 001a 3E       		.uleb128 0x3e
 183 001b 0B       		.uleb128 0xb
 184 001c 03       		.uleb128 0x3
 185 001d 08       		.uleb128 0x8
 186 001e 00       		.byte	0
 187 001f 00       		.byte	0
 188 0020 03       		.uleb128 0x3
 189 0021 24       		.uleb128 0x24
 190 0022 00       		.byte	0
 191 0023 0B       		.uleb128 0xb
 192 0024 0B       		.uleb128 0xb
 193 0025 3E       		.uleb128 0x3e
 194 0026 0B       		.uleb128 0xb
 195 0027 03       		.uleb128 0x3
 196 0028 0E       		.uleb128 0xe
 197 0029 00       		.byte	0
 198 002a 00       		.byte	0
 199 002b 04       		.uleb128 0x4
 200 002c 16       		.uleb128 0x16
 201 002d 00       		.byte	0
 202 002e 03       		.uleb128 0x3
 203 002f 0E       		.uleb128 0xe
 204 0030 3A       		.uleb128 0x3a
 205 0031 0B       		.uleb128 0xb
 206 0032 3B       		.uleb128 0x3b
 207 0033 0B       		.uleb128 0xb
 208 0034 49       		.uleb128 0x49
 209 0035 13       		.uleb128 0x13
 210 0036 00       		.byte	0
 211 0037 00       		.byte	0
 212 0038 05       		.uleb128 0x5
 213 0039 35       		.uleb128 0x35
 214 003a 00       		.byte	0
 215 003b 49       		.uleb128 0x49
 216 003c 13       		.uleb128 0x13
 217 003d 00       		.byte	0
 218 003e 00       		.byte	0
 219 003f 06       		.uleb128 0x6
 220 0040 2E       		.uleb128 0x2e
 221 0041 00       		.byte	0
 222 0042 3F       		.uleb128 0x3f
 223 0043 0C       		.uleb128 0xc
 224 0044 03       		.uleb128 0x3
 225 0045 0E       		.uleb128 0xe
 226 0046 3A       		.uleb128 0x3a
ARM GAS  C:\Users\z80\AppData\Local\Temp\ccDftlKk.s 			page 5


 227 0047 0B       		.uleb128 0xb
 228 0048 3B       		.uleb128 0x3b
 229 0049 0B       		.uleb128 0xb
 230 004a 27       		.uleb128 0x27
 231 004b 0C       		.uleb128 0xc
 232 004c 49       		.uleb128 0x49
 233 004d 13       		.uleb128 0x13
 234 004e 11       		.uleb128 0x11
 235 004f 01       		.uleb128 0x1
 236 0050 12       		.uleb128 0x12
 237 0051 01       		.uleb128 0x1
 238 0052 40       		.uleb128 0x40
 239 0053 06       		.uleb128 0x6
 240 0054 00       		.byte	0
 241 0055 00       		.byte	0
 242 0056 07       		.uleb128 0x7
 243 0057 34       		.uleb128 0x34
 244 0058 00       		.byte	0
 245 0059 03       		.uleb128 0x3
 246 005a 0E       		.uleb128 0xe
 247 005b 3A       		.uleb128 0x3a
 248 005c 0B       		.uleb128 0xb
 249 005d 3B       		.uleb128 0x3b
 250 005e 05       		.uleb128 0x5
 251 005f 49       		.uleb128 0x49
 252 0060 13       		.uleb128 0x13
 253 0061 3F       		.uleb128 0x3f
 254 0062 0C       		.uleb128 0xc
 255 0063 3C       		.uleb128 0x3c
 256 0064 0C       		.uleb128 0xc
 257 0065 00       		.byte	0
 258 0066 00       		.byte	0
 259 0067 00       		.byte	0
 260              		.section	.debug_loc,"",%progbits
 261              	.Ldebug_loc0:
 262              	.LLST0:
 263 0000 00000000 		.4byte	.LFB62
 264 0004 02000000 		.4byte	.LCFI0
 265 0008 0200     		.2byte	0x2
 266 000a 7D       		.byte	0x7d
 267 000b 00       		.sleb128 0
 268 000c 02000000 		.4byte	.LCFI0
 269 0010 34000000 		.4byte	.LFE62
 270 0014 0200     		.2byte	0x2
 271 0016 7D       		.byte	0x7d
 272 0017 08       		.sleb128 8
 273 0018 00000000 		.4byte	0
 274 001c 00000000 		.4byte	0
 275              		.section	.debug_aranges,"",%progbits
 276 0000 1C000000 		.4byte	0x1c
 277 0004 0200     		.2byte	0x2
 278 0006 00000000 		.4byte	.Ldebug_info0
 279 000a 04       		.byte	0x4
 280 000b 00       		.byte	0
 281 000c 0000     		.2byte	0
 282 000e 0000     		.2byte	0
 283 0010 00000000 		.4byte	.LFB62
ARM GAS  C:\Users\z80\AppData\Local\Temp\ccDftlKk.s 			page 6


 284 0014 34000000 		.4byte	.LFE62-.LFB62
 285 0018 00000000 		.4byte	0
 286 001c 00000000 		.4byte	0
 287              		.section	.debug_ranges,"",%progbits
 288              	.Ldebug_ranges0:
 289 0000 00000000 		.4byte	.LFB62
 290 0004 34000000 		.4byte	.LFE62
 291 0008 00000000 		.4byte	0
 292 000c 00000000 		.4byte	0
 293              		.section	.debug_line,"",%progbits
 294              	.Ldebug_line0:
 295 0000 07010000 		.section	.debug_str,"MS",%progbits,1
 295      0200DC00 
 295      00000201 
 295      FB0E0D00 
 295      01010101 
 296              	.LASF7:
 297 0000 6C6F6E67 		.ascii	"long long int\000"
 297      206C6F6E 
 297      6720696E 
 297      7400
 298              	.LASF4:
 299 000e 73686F72 		.ascii	"short unsigned int\000"
 299      7420756E 
 299      7369676E 
 299      65642069 
 299      6E7400
 300              	.LASF0:
 301 0021 756E7369 		.ascii	"unsigned int\000"
 301      676E6564 
 301      20696E74 
 301      00
 302              	.LASF6:
 303 002e 6C6F6E67 		.ascii	"long unsigned int\000"
 303      20756E73 
 303      69676E65 
 303      6420696E 
 303      7400
 304              	.LASF8:
 305 0040 6C6F6E67 		.ascii	"long long unsigned int\000"
 305      206C6F6E 
 305      6720756E 
 305      7369676E 
 305      65642069 
 306              	.LASF11:
 307 0057 2E2F7372 		.ascii	"./src/main.c\000"
 307      632F6D61 
 307      696E2E63 
 307      00
 308              	.LASF2:
 309 0064 756E7369 		.ascii	"unsigned char\000"
 309      676E6564 
 309      20636861 
 309      7200
 310              	.LASF14:
 311 0072 6D61696E 		.ascii	"main\000"
 311      00
ARM GAS  C:\Users\z80\AppData\Local\Temp\ccDftlKk.s 			page 7


 312              	.LASF5:
 313 0077 6C6F6E67 		.ascii	"long int\000"
 313      20696E74 
 313      00
 314              	.LASF10:
 315 0080 474E5520 		.ascii	"GNU C 4.6.3\000"
 315      4320342E 
 315      362E3300 
 316              	.LASF12:
 317 008c 433A5C70 		.ascii	"C:\\projects\\digitizer.git\\firmware\\digitizer\000"
 317      726F6A65 
 317      6374735C 
 317      64696769 
 317      74697A65 
 318              	.LASF15:
 319 00b9 49544D5F 		.ascii	"ITM_RxBuffer\000"
 319      52784275 
 319      66666572 
 319      00
 320              	.LASF1:
 321 00c6 7369676E 		.ascii	"signed char\000"
 321      65642063 
 321      68617200 
 322              	.LASF3:
 323 00d2 73686F72 		.ascii	"short int\000"
 323      7420696E 
 323      7400
 324              	.LASF13:
 325 00dc 696E7433 		.ascii	"int32_t\000"
 325      325F7400 
 326              	.LASF9:
 327 00e4 63686172 		.ascii	"char\000"
 327      00
 328              		.ident	"GCC: (Sourcery CodeBench Lite 2012.03-56) 4.6.3"
ARM GAS  C:\Users\z80\AppData\Local\Temp\ccDftlKk.s 			page 8


DEFINED SYMBOLS
                            *ABS*:00000000 main.c
C:\Users\z80\AppData\Local\Temp\ccDftlKk.s:19     .text.main:00000000 $t
C:\Users\z80\AppData\Local\Temp\ccDftlKk.s:25     .text.main:00000000 main
                     .debug_frame:00000010 $d

UNDEFINED SYMBOLS
halInit
chSysInit
initAdc
initDac
initSweep
initTimer
initCpuIo
initTemp
initLed
setLeds
processCpuIo
