ARM GAS  C:\Users\z80\AppData\Local\Temp\ccTFDBEY.s 			page 1


   1              		.syntax unified
   2              		.cpu cortex-m3
   3              		.fpu softvfp
   4              		.eabi_attribute 20, 1
   5              		.eabi_attribute 21, 1
   6              		.eabi_attribute 23, 3
   7              		.eabi_attribute 24, 1
   8              		.eabi_attribute 25, 1
   9              		.eabi_attribute 26, 1
  10              		.eabi_attribute 30, 6
  11              		.eabi_attribute 34, 1
  12              		.eabi_attribute 18, 4
  13              		.thumb
  14              		.file	"pal.c"
  15              		.text
  16              	.Ltext0:
  17              		.cfi_sections	.debug_frame
  18              		.section	.rodata
  19              		.align	2
  20              	.LC0:
  21 0000 2270616C 		.ascii	"\"palReadBus\"()\000"
  21      52656164 
  21      42757322 
  21      282900
  22              		.section	.text.palReadBus,"ax",%progbits
  23              		.align	2
  24              		.p2align 4,,15
  25              		.global	palReadBus
  26              		.thumb
  27              		.thumb_func
  28              		.type	palReadBus, %function
  29              	palReadBus:
  30              	.LFB62:
  31              		.file 1 "../chibios_2.4.x/os/hal/src/pal.c"
  32              		.loc 1 76 0
  33              		.cfi_startproc
  34              		@ args = 0, pretend = 0, frame = 8
  35              		@ frame_needed = 0, uses_anonymous_args = 0
  36 0000 00B5     		push	{lr}
  37              	.LCFI0:
  38              		.cfi_def_cfa_offset 4
  39              		.cfi_offset 14, -4
  40 0002 83B0     		sub	sp, sp, #12
  41              	.LCFI1:
  42              		.cfi_def_cfa_offset 16
  43 0004 0190     		str	r0, [sp, #4]
  44              		.loc 1 78 0
  45 0006 019B     		ldr	r3, [sp, #4]
  46 0008 002B     		cmp	r3, #0
  47 000a 03D0     		beq	.L2
  48              		.loc 1 78 0 is_stmt 0 discriminator 2
  49 000c 019B     		ldr	r3, [sp, #4]
  50 000e 9B68     		ldr	r3, [r3, #8]
  51 0010 0F2B     		cmp	r3, #15
  52 0012 05D9     		bls	.L3
  53              	.L2:
  54              		.loc 1 78 0 discriminator 1
ARM GAS  C:\Users\z80\AppData\Local\Temp\ccTFDBEY.s 			page 2


  55 0014 40F20000 		movw	r0, #:lower16:.LC0
  56 0018 C0F20000 		movt	r0, #:upper16:.LC0
  57 001c FFF7FEFF 		bl	chDbgPanic
  58              	.L3:
  59              		.loc 1 81 0 is_stmt 1
  60 0020 019B     		ldr	r3, [sp, #4]
  61 0022 1B68     		ldr	r3, [r3, #0]
  62 0024 9A68     		ldr	r2, [r3, #8]
  63 0026 019B     		ldr	r3, [sp, #4]
  64 0028 9B68     		ldr	r3, [r3, #8]
  65 002a 22FA03F2 		lsr	r2, r2, r3
  66 002e 019B     		ldr	r3, [sp, #4]
  67 0030 5B68     		ldr	r3, [r3, #4]
  68 0032 1340     		ands	r3, r3, r2
  69              		.loc 1 82 0
  70 0034 1846     		mov	r0, r3
  71 0036 03B0     		add	sp, sp, #12
  72 0038 00BD     		pop	{pc}
  73              		.cfi_endproc
  74              	.LFE62:
  75              		.size	palReadBus, .-palReadBus
  76 003a 00BFAFF3 		.section	.rodata
  76      0080
  77 000f 00       		.align	2
  78              	.LC1:
  79 0010 2270616C 		.ascii	"\"palWriteBus\"()\000"
  79      57726974 
  79      65427573 
  79      22282900 
  80              		.section	.text.palWriteBus,"ax",%progbits
  81              		.align	2
  82              		.p2align 4,,15
  83              		.global	palWriteBus
  84              		.thumb
  85              		.thumb_func
  86              		.type	palWriteBus, %function
  87              	palWriteBus:
  88              	.LFB63:
  89              		.loc 1 101 0
  90              		.cfi_startproc
  91              		@ args = 0, pretend = 0, frame = 8
  92              		@ frame_needed = 0, uses_anonymous_args = 0
  93 0000 00B5     		push	{lr}
  94              	.LCFI2:
  95              		.cfi_def_cfa_offset 4
  96              		.cfi_offset 14, -4
  97 0002 83B0     		sub	sp, sp, #12
  98              	.LCFI3:
  99              		.cfi_def_cfa_offset 16
 100 0004 0190     		str	r0, [sp, #4]
 101 0006 0091     		str	r1, [sp, #0]
 102              		.loc 1 103 0
 103 0008 019B     		ldr	r3, [sp, #4]
 104 000a 002B     		cmp	r3, #0
 105 000c 03D0     		beq	.L5
 106              		.loc 1 103 0 is_stmt 0 discriminator 2
 107 000e 019B     		ldr	r3, [sp, #4]
ARM GAS  C:\Users\z80\AppData\Local\Temp\ccTFDBEY.s 			page 3


 108 0010 9B68     		ldr	r3, [r3, #8]
 109 0012 0F2B     		cmp	r3, #15
 110 0014 05D9     		bls	.L6
 111              	.L5:
 112              		.loc 1 103 0 discriminator 1
 113 0016 40F20000 		movw	r0, #:lower16:.LC1
 114 001a C0F20000 		movt	r0, #:upper16:.LC1
 115 001e FFF7FEFF 		bl	chDbgPanic
 116              	.L6:
 117              		.loc 1 106 0 is_stmt 1
 118 0022 019B     		ldr	r3, [sp, #4]
 119 0024 1B68     		ldr	r3, [r3, #0]
 120 0026 009A     		ldr	r2, [sp, #0]
 121 0028 6FEA0201 		mvn	r1, r2
 122 002c 019A     		ldr	r2, [sp, #4]
 123 002e 5268     		ldr	r2, [r2, #4]
 124 0030 1140     		ands	r1, r1, r2
 125 0032 019A     		ldr	r2, [sp, #4]
 126 0034 9268     		ldr	r2, [r2, #8]
 127 0036 02F11002 		add	r2, r2, #16
 128 003a 01FA02F1 		lsl	r1, r1, r2
 129 003e 019A     		ldr	r2, [sp, #4]
 130 0040 5068     		ldr	r0, [r2, #4]
 131 0042 009A     		ldr	r2, [sp, #0]
 132 0044 1040     		ands	r0, r0, r2
 133 0046 019A     		ldr	r2, [sp, #4]
 134 0048 9268     		ldr	r2, [r2, #8]
 135 004a 00FA02F2 		lsl	r2, r0, r2
 136 004e 0A43     		orrs	r2, r2, r1
 137 0050 1A61     		str	r2, [r3, #16]
 138              		.loc 1 107 0
 139 0052 03B0     		add	sp, sp, #12
 140 0054 00BD     		pop	{pc}
 141              		.cfi_endproc
 142              	.LFE63:
 143              		.size	palWriteBus, .-palWriteBus
 144 0056 00BFAFF3 		.section	.rodata
 144      0080AFF3 
 144      0080
 145              		.align	2
 146              	.LC2:
 147 0020 2270616C 		.ascii	"\"palSetBusMode\"()\000"
 147      53657442 
 147      75734D6F 
 147      64652228 
 147      2900
 148 0032 0000     		.section	.text.palSetBusMode,"ax",%progbits
 149              		.align	2
 150              		.p2align 4,,15
 151              		.global	palSetBusMode
 152              		.thumb
 153              		.thumb_func
 154              		.type	palSetBusMode, %function
 155              	palSetBusMode:
 156              	.LFB64:
 157              		.loc 1 124 0
 158              		.cfi_startproc
ARM GAS  C:\Users\z80\AppData\Local\Temp\ccTFDBEY.s 			page 4


 159              		@ args = 0, pretend = 0, frame = 8
 160              		@ frame_needed = 0, uses_anonymous_args = 0
 161 0000 00B5     		push	{lr}
 162              	.LCFI4:
 163              		.cfi_def_cfa_offset 4
 164              		.cfi_offset 14, -4
 165 0002 83B0     		sub	sp, sp, #12
 166              	.LCFI5:
 167              		.cfi_def_cfa_offset 16
 168 0004 0190     		str	r0, [sp, #4]
 169 0006 0091     		str	r1, [sp, #0]
 170              		.loc 1 126 0
 171 0008 019B     		ldr	r3, [sp, #4]
 172 000a 002B     		cmp	r3, #0
 173 000c 03D0     		beq	.L8
 174              		.loc 1 126 0 is_stmt 0 discriminator 2
 175 000e 019B     		ldr	r3, [sp, #4]
 176 0010 9B68     		ldr	r3, [r3, #8]
 177 0012 0F2B     		cmp	r3, #15
 178 0014 05D9     		bls	.L9
 179              	.L8:
 180              		.loc 1 126 0 discriminator 1
 181 0016 40F20000 		movw	r0, #:lower16:.LC2
 182 001a C0F20000 		movt	r0, #:upper16:.LC2
 183 001e FFF7FEFF 		bl	chDbgPanic
 184              	.L9:
 185              		.loc 1 129 0 is_stmt 1
 186 0022 019B     		ldr	r3, [sp, #4]
 187 0024 1A68     		ldr	r2, [r3, #0]
 188 0026 019B     		ldr	r3, [sp, #4]
 189 0028 5968     		ldr	r1, [r3, #4]
 190 002a 019B     		ldr	r3, [sp, #4]
 191 002c 9B68     		ldr	r3, [r3, #8]
 192 002e 01FA03F3 		lsl	r3, r1, r3
 193 0032 1046     		mov	r0, r2
 194 0034 1946     		mov	r1, r3
 195 0036 009A     		ldr	r2, [sp, #0]
 196 0038 FFF7FEFF 		bl	_pal_lld_setgroupmode
 197              		.loc 1 130 0
 198 003c 03B0     		add	sp, sp, #12
 199 003e 00BD     		pop	{pc}
 200              		.cfi_endproc
 201              	.LFE64:
 202              		.size	palSetBusMode, .-palSetBusMode
 203              		.text
 204              	.Letext0:
 205              		.file 2 "c:\\programs\\codesourcery\\2011.03-56\\bin\\../lib/gcc/arm-none-eabi/4.6.3/../../../../a
 206              		.file 3 "../chibios_2.4.x/os/hal/platforms/STM32F1xx/stm32f10x.h"
 207              		.file 4 "../chibios_2.4.x/os/hal/platforms/STM32/GPIOv1/pal_lld.h"
 208              		.file 5 "../chibios_2.4.x/os/hal/include/pal.h"
 209              		.file 6 "../chibios_2.4.x/os/ports/common/ARMCMx/CMSIS/include/core_cm3.h"
 210              		.section	.debug_info,"",%progbits
 211              	.Ldebug_info0:
 212 0000 2E020000 		.4byte	0x22e
 213 0004 0200     		.2byte	0x2
 214 0006 00000000 		.4byte	.Ldebug_abbrev0
 215 000a 04       		.byte	0x4
ARM GAS  C:\Users\z80\AppData\Local\Temp\ccTFDBEY.s 			page 5


 216 000b 01       		.uleb128 0x1
 217 000c DD000000 		.4byte	.LASF27
 218 0010 01       		.byte	0x1
 219 0011 23000000 		.4byte	.LASF28
 220 0015 45000000 		.4byte	.LASF29
 221 0019 00000000 		.4byte	0
 222 001d 00000000 		.4byte	0
 223 0021 00000000 		.4byte	.Ldebug_ranges0+0
 224 0025 00000000 		.4byte	.Ldebug_line0
 225 0029 02       		.uleb128 0x2
 226 002a 04       		.byte	0x4
 227 002b 05       		.byte	0x5
 228 002c 696E7400 		.ascii	"int\000"
 229 0030 03       		.uleb128 0x3
 230 0031 04       		.byte	0x4
 231 0032 07       		.byte	0x7
 232 0033 E9000000 		.4byte	.LASF0
 233 0037 03       		.uleb128 0x3
 234 0038 01       		.byte	0x1
 235 0039 06       		.byte	0x6
 236 003a 66010000 		.4byte	.LASF1
 237 003e 03       		.uleb128 0x3
 238 003f 01       		.byte	0x1
 239 0040 08       		.byte	0x8
 240 0041 8F000000 		.4byte	.LASF2
 241 0045 03       		.uleb128 0x3
 242 0046 02       		.byte	0x2
 243 0047 05       		.byte	0x5
 244 0048 34010000 		.4byte	.LASF3
 245 004c 03       		.uleb128 0x3
 246 004d 02       		.byte	0x2
 247 004e 07       		.byte	0x7
 248 004f AF000000 		.4byte	.LASF4
 249 0053 04       		.uleb128 0x4
 250 0054 0D010000 		.4byte	.LASF6
 251 0058 02       		.byte	0x2
 252 0059 4F       		.byte	0x4f
 253 005a 5E000000 		.4byte	0x5e
 254 005e 03       		.uleb128 0x3
 255 005f 04       		.byte	0x4
 256 0060 05       		.byte	0x5
 257 0061 52010000 		.4byte	.LASF5
 258 0065 04       		.uleb128 0x4
 259 0066 49010000 		.4byte	.LASF7
 260 006a 02       		.byte	0x2
 261 006b 50       		.byte	0x50
 262 006c 70000000 		.4byte	0x70
 263 0070 03       		.uleb128 0x3
 264 0071 04       		.byte	0x4
 265 0072 07       		.byte	0x7
 266 0073 9D000000 		.4byte	.LASF8
 267 0077 03       		.uleb128 0x3
 268 0078 08       		.byte	0x8
 269 0079 05       		.byte	0x5
 270 007a 15010000 		.4byte	.LASF9
 271 007e 03       		.uleb128 0x3
 272 007f 08       		.byte	0x8
ARM GAS  C:\Users\z80\AppData\Local\Temp\ccTFDBEY.s 			page 6


 273 0080 07       		.byte	0x7
 274 0081 72010000 		.4byte	.LASF10
 275 0085 04       		.uleb128 0x4
 276 0086 05000000 		.4byte	.LASF11
 277 008a 02       		.byte	0x2
 278 008b A0       		.byte	0xa0
 279 008c 30000000 		.4byte	0x30
 280 0090 05       		.uleb128 0x5
 281 0091 65000000 		.4byte	0x65
 282 0095 03       		.uleb128 0x3
 283 0096 01       		.byte	0x1
 284 0097 08       		.byte	0x8
 285 0098 03010000 		.4byte	.LASF12
 286 009c 05       		.uleb128 0x5
 287 009d 53000000 		.4byte	0x53
 288 00a1 06       		.uleb128 0x6
 289 00a2 1C       		.byte	0x1c
 290 00a3 03       		.byte	0x3
 291 00a4 F803     		.2byte	0x3f8
 292 00a6 14010000 		.4byte	0x114
 293 00aa 07       		.uleb128 0x7
 294 00ab 43524C00 		.ascii	"CRL\000"
 295 00af 03       		.byte	0x3
 296 00b0 FA03     		.2byte	0x3fa
 297 00b2 90000000 		.4byte	0x90
 298 00b6 02       		.byte	0x2
 299 00b7 23       		.byte	0x23
 300 00b8 00       		.uleb128 0
 301 00b9 07       		.uleb128 0x7
 302 00ba 43524800 		.ascii	"CRH\000"
 303 00be 03       		.byte	0x3
 304 00bf FB03     		.2byte	0x3fb
 305 00c1 90000000 		.4byte	0x90
 306 00c5 02       		.byte	0x2
 307 00c6 23       		.byte	0x23
 308 00c7 04       		.uleb128 0x4
 309 00c8 07       		.uleb128 0x7
 310 00c9 49445200 		.ascii	"IDR\000"
 311 00cd 03       		.byte	0x3
 312 00ce FC03     		.2byte	0x3fc
 313 00d0 90000000 		.4byte	0x90
 314 00d4 02       		.byte	0x2
 315 00d5 23       		.byte	0x23
 316 00d6 08       		.uleb128 0x8
 317 00d7 07       		.uleb128 0x7
 318 00d8 4F445200 		.ascii	"ODR\000"
 319 00dc 03       		.byte	0x3
 320 00dd FD03     		.2byte	0x3fd
 321 00df 90000000 		.4byte	0x90
 322 00e3 02       		.byte	0x2
 323 00e4 23       		.byte	0x23
 324 00e5 0C       		.uleb128 0xc
 325 00e6 08       		.uleb128 0x8
 326 00e7 12000000 		.4byte	.LASF13
 327 00eb 03       		.byte	0x3
 328 00ec FE03     		.2byte	0x3fe
 329 00ee 90000000 		.4byte	0x90
ARM GAS  C:\Users\z80\AppData\Local\Temp\ccTFDBEY.s 			page 7


 330 00f2 02       		.byte	0x2
 331 00f3 23       		.byte	0x23
 332 00f4 10       		.uleb128 0x10
 333 00f5 07       		.uleb128 0x7
 334 00f6 42525200 		.ascii	"BRR\000"
 335 00fa 03       		.byte	0x3
 336 00fb FF03     		.2byte	0x3ff
 337 00fd 90000000 		.4byte	0x90
 338 0101 02       		.byte	0x2
 339 0102 23       		.byte	0x23
 340 0103 14       		.uleb128 0x14
 341 0104 08       		.uleb128 0x8
 342 0105 00000000 		.4byte	.LASF14
 343 0109 03       		.byte	0x3
 344 010a 0004     		.2byte	0x400
 345 010c 90000000 		.4byte	0x90
 346 0110 02       		.byte	0x2
 347 0111 23       		.byte	0x23
 348 0112 18       		.uleb128 0x18
 349 0113 00       		.byte	0
 350 0114 09       		.uleb128 0x9
 351 0115 F6000000 		.4byte	.LASF15
 352 0119 03       		.byte	0x3
 353 011a 0104     		.2byte	0x401
 354 011c A1000000 		.4byte	0xa1
 355 0120 04       		.uleb128 0x4
 356 0121 79000000 		.4byte	.LASF16
 357 0125 04       		.byte	0x4
 358 0126 78       		.byte	0x78
 359 0127 65000000 		.4byte	0x65
 360 012b 04       		.uleb128 0x4
 361 012c 86000000 		.4byte	.LASF17
 362 0130 04       		.byte	0x4
 363 0131 7D       		.byte	0x7d
 364 0132 65000000 		.4byte	0x65
 365 0136 04       		.uleb128 0x4
 366 0137 3E010000 		.4byte	.LASF18
 367 013b 04       		.byte	0x4
 368 013c 85       		.byte	0x85
 369 013d 41010000 		.4byte	0x141
 370 0141 0A       		.uleb128 0xa
 371 0142 04       		.byte	0x4
 372 0143 14010000 		.4byte	0x114
 373 0147 0B       		.uleb128 0xb
 374 0148 0C       		.byte	0xc
 375 0149 05       		.byte	0x5
 376 014a 85       		.byte	0x85
 377 014b 7A010000 		.4byte	0x17a
 378 014f 0C       		.uleb128 0xc
 379 0150 72000000 		.4byte	.LASF19
 380 0154 05       		.byte	0x5
 381 0155 89       		.byte	0x89
 382 0156 36010000 		.4byte	0x136
 383 015a 02       		.byte	0x2
 384 015b 23       		.byte	0x23
 385 015c 00       		.uleb128 0
 386 015d 0C       		.uleb128 0xc
ARM GAS  C:\Users\z80\AppData\Local\Temp\ccTFDBEY.s 			page 8


 387 015e 23010000 		.4byte	.LASF20
 388 0162 05       		.byte	0x5
 389 0163 8F       		.byte	0x8f
 390 0164 20010000 		.4byte	0x120
 391 0168 02       		.byte	0x2
 392 0169 23       		.byte	0x23
 393 016a 04       		.uleb128 0x4
 394 016b 0C       		.uleb128 0xc
 395 016c 2D010000 		.4byte	.LASF21
 396 0170 05       		.byte	0x5
 397 0171 93       		.byte	0x93
 398 0172 85000000 		.4byte	0x85
 399 0176 02       		.byte	0x2
 400 0177 23       		.byte	0x23
 401 0178 08       		.uleb128 0x8
 402 0179 00       		.byte	0
 403 017a 04       		.uleb128 0x4
 404 017b 89010000 		.4byte	.LASF22
 405 017f 05       		.byte	0x5
 406 0180 94       		.byte	0x94
 407 0181 47010000 		.4byte	0x147
 408 0185 0D       		.uleb128 0xd
 409 0186 01       		.byte	0x1
 410 0187 5B010000 		.4byte	.LASF30
 411 018b 01       		.byte	0x1
 412 018c 4C       		.byte	0x4c
 413 018d 01       		.byte	0x1
 414 018e 20010000 		.4byte	0x120
 415 0192 00000000 		.4byte	.LFB62
 416 0196 3A000000 		.4byte	.LFE62
 417 019a 00000000 		.4byte	.LLST0
 418 019e B1010000 		.4byte	0x1b1
 419 01a2 0E       		.uleb128 0xe
 420 01a3 62757300 		.ascii	"bus\000"
 421 01a7 01       		.byte	0x1
 422 01a8 4C       		.byte	0x4c
 423 01a9 B1010000 		.4byte	0x1b1
 424 01ad 02       		.byte	0x2
 425 01ae 91       		.byte	0x91
 426 01af 74       		.sleb128 -12
 427 01b0 00       		.byte	0
 428 01b1 0A       		.uleb128 0xa
 429 01b2 04       		.byte	0x4
 430 01b3 7A010000 		.4byte	0x17a
 431 01b7 0F       		.uleb128 0xf
 432 01b8 01       		.byte	0x1
 433 01b9 17000000 		.4byte	.LASF24
 434 01bd 01       		.byte	0x1
 435 01be 65       		.byte	0x65
 436 01bf 01       		.byte	0x1
 437 01c0 00000000 		.4byte	.LFB63
 438 01c4 56000000 		.4byte	.LFE63
 439 01c8 2C000000 		.4byte	.LLST1
 440 01cc ED010000 		.4byte	0x1ed
 441 01d0 0E       		.uleb128 0xe
 442 01d1 62757300 		.ascii	"bus\000"
 443 01d5 01       		.byte	0x1
ARM GAS  C:\Users\z80\AppData\Local\Temp\ccTFDBEY.s 			page 9


 444 01d6 65       		.byte	0x65
 445 01d7 B1010000 		.4byte	0x1b1
 446 01db 02       		.byte	0x2
 447 01dc 91       		.byte	0x91
 448 01dd 74       		.sleb128 -12
 449 01de 10       		.uleb128 0x10
 450 01df 28010000 		.4byte	.LASF23
 451 01e3 01       		.byte	0x1
 452 01e4 65       		.byte	0x65
 453 01e5 20010000 		.4byte	0x120
 454 01e9 02       		.byte	0x2
 455 01ea 91       		.byte	0x91
 456 01eb 70       		.sleb128 -16
 457 01ec 00       		.byte	0
 458 01ed 0F       		.uleb128 0xf
 459 01ee 01       		.byte	0x1
 460 01ef C2000000 		.4byte	.LASF25
 461 01f3 01       		.byte	0x1
 462 01f4 7C       		.byte	0x7c
 463 01f5 01       		.byte	0x1
 464 01f6 00000000 		.4byte	.LFB64
 465 01fa 40000000 		.4byte	.LFE64
 466 01fe 58000000 		.4byte	.LLST2
 467 0202 23020000 		.4byte	0x223
 468 0206 0E       		.uleb128 0xe
 469 0207 62757300 		.ascii	"bus\000"
 470 020b 01       		.byte	0x1
 471 020c 7C       		.byte	0x7c
 472 020d B1010000 		.4byte	0x1b1
 473 0211 02       		.byte	0x2
 474 0212 91       		.byte	0x91
 475 0213 74       		.sleb128 -12
 476 0214 10       		.uleb128 0x10
 477 0215 08010000 		.4byte	.LASF26
 478 0219 01       		.byte	0x1
 479 021a 7C       		.byte	0x7c
 480 021b 2B010000 		.4byte	0x12b
 481 021f 02       		.byte	0x2
 482 0220 91       		.byte	0x91
 483 0221 70       		.sleb128 -16
 484 0222 00       		.byte	0
 485 0223 11       		.uleb128 0x11
 486 0224 D0000000 		.4byte	.LASF31
 487 0228 06       		.byte	0x6
 488 0229 9404     		.2byte	0x494
 489 022b 9C000000 		.4byte	0x9c
 490 022f 01       		.byte	0x1
 491 0230 01       		.byte	0x1
 492 0231 00       		.byte	0
 493              		.section	.debug_abbrev,"",%progbits
 494              	.Ldebug_abbrev0:
 495 0000 01       		.uleb128 0x1
 496 0001 11       		.uleb128 0x11
 497 0002 01       		.byte	0x1
 498 0003 25       		.uleb128 0x25
 499 0004 0E       		.uleb128 0xe
 500 0005 13       		.uleb128 0x13
ARM GAS  C:\Users\z80\AppData\Local\Temp\ccTFDBEY.s 			page 10


 501 0006 0B       		.uleb128 0xb
 502 0007 03       		.uleb128 0x3
 503 0008 0E       		.uleb128 0xe
 504 0009 1B       		.uleb128 0x1b
 505 000a 0E       		.uleb128 0xe
 506 000b 11       		.uleb128 0x11
 507 000c 01       		.uleb128 0x1
 508 000d 52       		.uleb128 0x52
 509 000e 01       		.uleb128 0x1
 510 000f 55       		.uleb128 0x55
 511 0010 06       		.uleb128 0x6
 512 0011 10       		.uleb128 0x10
 513 0012 06       		.uleb128 0x6
 514 0013 00       		.byte	0
 515 0014 00       		.byte	0
 516 0015 02       		.uleb128 0x2
 517 0016 24       		.uleb128 0x24
 518 0017 00       		.byte	0
 519 0018 0B       		.uleb128 0xb
 520 0019 0B       		.uleb128 0xb
 521 001a 3E       		.uleb128 0x3e
 522 001b 0B       		.uleb128 0xb
 523 001c 03       		.uleb128 0x3
 524 001d 08       		.uleb128 0x8
 525 001e 00       		.byte	0
 526 001f 00       		.byte	0
 527 0020 03       		.uleb128 0x3
 528 0021 24       		.uleb128 0x24
 529 0022 00       		.byte	0
 530 0023 0B       		.uleb128 0xb
 531 0024 0B       		.uleb128 0xb
 532 0025 3E       		.uleb128 0x3e
 533 0026 0B       		.uleb128 0xb
 534 0027 03       		.uleb128 0x3
 535 0028 0E       		.uleb128 0xe
 536 0029 00       		.byte	0
 537 002a 00       		.byte	0
 538 002b 04       		.uleb128 0x4
 539 002c 16       		.uleb128 0x16
 540 002d 00       		.byte	0
 541 002e 03       		.uleb128 0x3
 542 002f 0E       		.uleb128 0xe
 543 0030 3A       		.uleb128 0x3a
 544 0031 0B       		.uleb128 0xb
 545 0032 3B       		.uleb128 0x3b
 546 0033 0B       		.uleb128 0xb
 547 0034 49       		.uleb128 0x49
 548 0035 13       		.uleb128 0x13
 549 0036 00       		.byte	0
 550 0037 00       		.byte	0
 551 0038 05       		.uleb128 0x5
 552 0039 35       		.uleb128 0x35
 553 003a 00       		.byte	0
 554 003b 49       		.uleb128 0x49
 555 003c 13       		.uleb128 0x13
 556 003d 00       		.byte	0
 557 003e 00       		.byte	0
ARM GAS  C:\Users\z80\AppData\Local\Temp\ccTFDBEY.s 			page 11


 558 003f 06       		.uleb128 0x6
 559 0040 13       		.uleb128 0x13
 560 0041 01       		.byte	0x1
 561 0042 0B       		.uleb128 0xb
 562 0043 0B       		.uleb128 0xb
 563 0044 3A       		.uleb128 0x3a
 564 0045 0B       		.uleb128 0xb
 565 0046 3B       		.uleb128 0x3b
 566 0047 05       		.uleb128 0x5
 567 0048 01       		.uleb128 0x1
 568 0049 13       		.uleb128 0x13
 569 004a 00       		.byte	0
 570 004b 00       		.byte	0
 571 004c 07       		.uleb128 0x7
 572 004d 0D       		.uleb128 0xd
 573 004e 00       		.byte	0
 574 004f 03       		.uleb128 0x3
 575 0050 08       		.uleb128 0x8
 576 0051 3A       		.uleb128 0x3a
 577 0052 0B       		.uleb128 0xb
 578 0053 3B       		.uleb128 0x3b
 579 0054 05       		.uleb128 0x5
 580 0055 49       		.uleb128 0x49
 581 0056 13       		.uleb128 0x13
 582 0057 38       		.uleb128 0x38
 583 0058 0A       		.uleb128 0xa
 584 0059 00       		.byte	0
 585 005a 00       		.byte	0
 586 005b 08       		.uleb128 0x8
 587 005c 0D       		.uleb128 0xd
 588 005d 00       		.byte	0
 589 005e 03       		.uleb128 0x3
 590 005f 0E       		.uleb128 0xe
 591 0060 3A       		.uleb128 0x3a
 592 0061 0B       		.uleb128 0xb
 593 0062 3B       		.uleb128 0x3b
 594 0063 05       		.uleb128 0x5
 595 0064 49       		.uleb128 0x49
 596 0065 13       		.uleb128 0x13
 597 0066 38       		.uleb128 0x38
 598 0067 0A       		.uleb128 0xa
 599 0068 00       		.byte	0
 600 0069 00       		.byte	0
 601 006a 09       		.uleb128 0x9
 602 006b 16       		.uleb128 0x16
 603 006c 00       		.byte	0
 604 006d 03       		.uleb128 0x3
 605 006e 0E       		.uleb128 0xe
 606 006f 3A       		.uleb128 0x3a
 607 0070 0B       		.uleb128 0xb
 608 0071 3B       		.uleb128 0x3b
 609 0072 05       		.uleb128 0x5
 610 0073 49       		.uleb128 0x49
 611 0074 13       		.uleb128 0x13
 612 0075 00       		.byte	0
 613 0076 00       		.byte	0
 614 0077 0A       		.uleb128 0xa
ARM GAS  C:\Users\z80\AppData\Local\Temp\ccTFDBEY.s 			page 12


 615 0078 0F       		.uleb128 0xf
 616 0079 00       		.byte	0
 617 007a 0B       		.uleb128 0xb
 618 007b 0B       		.uleb128 0xb
 619 007c 49       		.uleb128 0x49
 620 007d 13       		.uleb128 0x13
 621 007e 00       		.byte	0
 622 007f 00       		.byte	0
 623 0080 0B       		.uleb128 0xb
 624 0081 13       		.uleb128 0x13
 625 0082 01       		.byte	0x1
 626 0083 0B       		.uleb128 0xb
 627 0084 0B       		.uleb128 0xb
 628 0085 3A       		.uleb128 0x3a
 629 0086 0B       		.uleb128 0xb
 630 0087 3B       		.uleb128 0x3b
 631 0088 0B       		.uleb128 0xb
 632 0089 01       		.uleb128 0x1
 633 008a 13       		.uleb128 0x13
 634 008b 00       		.byte	0
 635 008c 00       		.byte	0
 636 008d 0C       		.uleb128 0xc
 637 008e 0D       		.uleb128 0xd
 638 008f 00       		.byte	0
 639 0090 03       		.uleb128 0x3
 640 0091 0E       		.uleb128 0xe
 641 0092 3A       		.uleb128 0x3a
 642 0093 0B       		.uleb128 0xb
 643 0094 3B       		.uleb128 0x3b
 644 0095 0B       		.uleb128 0xb
 645 0096 49       		.uleb128 0x49
 646 0097 13       		.uleb128 0x13
 647 0098 38       		.uleb128 0x38
 648 0099 0A       		.uleb128 0xa
 649 009a 00       		.byte	0
 650 009b 00       		.byte	0
 651 009c 0D       		.uleb128 0xd
 652 009d 2E       		.uleb128 0x2e
 653 009e 01       		.byte	0x1
 654 009f 3F       		.uleb128 0x3f
 655 00a0 0C       		.uleb128 0xc
 656 00a1 03       		.uleb128 0x3
 657 00a2 0E       		.uleb128 0xe
 658 00a3 3A       		.uleb128 0x3a
 659 00a4 0B       		.uleb128 0xb
 660 00a5 3B       		.uleb128 0x3b
 661 00a6 0B       		.uleb128 0xb
 662 00a7 27       		.uleb128 0x27
 663 00a8 0C       		.uleb128 0xc
 664 00a9 49       		.uleb128 0x49
 665 00aa 13       		.uleb128 0x13
 666 00ab 11       		.uleb128 0x11
 667 00ac 01       		.uleb128 0x1
 668 00ad 12       		.uleb128 0x12
 669 00ae 01       		.uleb128 0x1
 670 00af 40       		.uleb128 0x40
 671 00b0 06       		.uleb128 0x6
ARM GAS  C:\Users\z80\AppData\Local\Temp\ccTFDBEY.s 			page 13


 672 00b1 01       		.uleb128 0x1
 673 00b2 13       		.uleb128 0x13
 674 00b3 00       		.byte	0
 675 00b4 00       		.byte	0
 676 00b5 0E       		.uleb128 0xe
 677 00b6 05       		.uleb128 0x5
 678 00b7 00       		.byte	0
 679 00b8 03       		.uleb128 0x3
 680 00b9 08       		.uleb128 0x8
 681 00ba 3A       		.uleb128 0x3a
 682 00bb 0B       		.uleb128 0xb
 683 00bc 3B       		.uleb128 0x3b
 684 00bd 0B       		.uleb128 0xb
 685 00be 49       		.uleb128 0x49
 686 00bf 13       		.uleb128 0x13
 687 00c0 02       		.uleb128 0x2
 688 00c1 0A       		.uleb128 0xa
 689 00c2 00       		.byte	0
 690 00c3 00       		.byte	0
 691 00c4 0F       		.uleb128 0xf
 692 00c5 2E       		.uleb128 0x2e
 693 00c6 01       		.byte	0x1
 694 00c7 3F       		.uleb128 0x3f
 695 00c8 0C       		.uleb128 0xc
 696 00c9 03       		.uleb128 0x3
 697 00ca 0E       		.uleb128 0xe
 698 00cb 3A       		.uleb128 0x3a
 699 00cc 0B       		.uleb128 0xb
 700 00cd 3B       		.uleb128 0x3b
 701 00ce 0B       		.uleb128 0xb
 702 00cf 27       		.uleb128 0x27
 703 00d0 0C       		.uleb128 0xc
 704 00d1 11       		.uleb128 0x11
 705 00d2 01       		.uleb128 0x1
 706 00d3 12       		.uleb128 0x12
 707 00d4 01       		.uleb128 0x1
 708 00d5 40       		.uleb128 0x40
 709 00d6 06       		.uleb128 0x6
 710 00d7 01       		.uleb128 0x1
 711 00d8 13       		.uleb128 0x13
 712 00d9 00       		.byte	0
 713 00da 00       		.byte	0
 714 00db 10       		.uleb128 0x10
 715 00dc 05       		.uleb128 0x5
 716 00dd 00       		.byte	0
 717 00de 03       		.uleb128 0x3
 718 00df 0E       		.uleb128 0xe
 719 00e0 3A       		.uleb128 0x3a
 720 00e1 0B       		.uleb128 0xb
 721 00e2 3B       		.uleb128 0x3b
 722 00e3 0B       		.uleb128 0xb
 723 00e4 49       		.uleb128 0x49
 724 00e5 13       		.uleb128 0x13
 725 00e6 02       		.uleb128 0x2
 726 00e7 0A       		.uleb128 0xa
 727 00e8 00       		.byte	0
 728 00e9 00       		.byte	0
ARM GAS  C:\Users\z80\AppData\Local\Temp\ccTFDBEY.s 			page 14


 729 00ea 11       		.uleb128 0x11
 730 00eb 34       		.uleb128 0x34
 731 00ec 00       		.byte	0
 732 00ed 03       		.uleb128 0x3
 733 00ee 0E       		.uleb128 0xe
 734 00ef 3A       		.uleb128 0x3a
 735 00f0 0B       		.uleb128 0xb
 736 00f1 3B       		.uleb128 0x3b
 737 00f2 05       		.uleb128 0x5
 738 00f3 49       		.uleb128 0x49
 739 00f4 13       		.uleb128 0x13
 740 00f5 3F       		.uleb128 0x3f
 741 00f6 0C       		.uleb128 0xc
 742 00f7 3C       		.uleb128 0x3c
 743 00f8 0C       		.uleb128 0xc
 744 00f9 00       		.byte	0
 745 00fa 00       		.byte	0
 746 00fb 00       		.byte	0
 747              		.section	.debug_loc,"",%progbits
 748              	.Ldebug_loc0:
 749              	.LLST0:
 750 0000 00000000 		.4byte	.LFB62
 751 0004 02000000 		.4byte	.LCFI0
 752 0008 0200     		.2byte	0x2
 753 000a 7D       		.byte	0x7d
 754 000b 00       		.sleb128 0
 755 000c 02000000 		.4byte	.LCFI0
 756 0010 04000000 		.4byte	.LCFI1
 757 0014 0200     		.2byte	0x2
 758 0016 7D       		.byte	0x7d
 759 0017 04       		.sleb128 4
 760 0018 04000000 		.4byte	.LCFI1
 761 001c 3A000000 		.4byte	.LFE62
 762 0020 0200     		.2byte	0x2
 763 0022 7D       		.byte	0x7d
 764 0023 10       		.sleb128 16
 765 0024 00000000 		.4byte	0
 766 0028 00000000 		.4byte	0
 767              	.LLST1:
 768 002c 00000000 		.4byte	.LFB63
 769 0030 02000000 		.4byte	.LCFI2
 770 0034 0200     		.2byte	0x2
 771 0036 7D       		.byte	0x7d
 772 0037 00       		.sleb128 0
 773 0038 02000000 		.4byte	.LCFI2
 774 003c 04000000 		.4byte	.LCFI3
 775 0040 0200     		.2byte	0x2
 776 0042 7D       		.byte	0x7d
 777 0043 04       		.sleb128 4
 778 0044 04000000 		.4byte	.LCFI3
 779 0048 56000000 		.4byte	.LFE63
 780 004c 0200     		.2byte	0x2
 781 004e 7D       		.byte	0x7d
 782 004f 10       		.sleb128 16
 783 0050 00000000 		.4byte	0
 784 0054 00000000 		.4byte	0
 785              	.LLST2:
ARM GAS  C:\Users\z80\AppData\Local\Temp\ccTFDBEY.s 			page 15


 786 0058 00000000 		.4byte	.LFB64
 787 005c 02000000 		.4byte	.LCFI4
 788 0060 0200     		.2byte	0x2
 789 0062 7D       		.byte	0x7d
 790 0063 00       		.sleb128 0
 791 0064 02000000 		.4byte	.LCFI4
 792 0068 04000000 		.4byte	.LCFI5
 793 006c 0200     		.2byte	0x2
 794 006e 7D       		.byte	0x7d
 795 006f 04       		.sleb128 4
 796 0070 04000000 		.4byte	.LCFI5
 797 0074 40000000 		.4byte	.LFE64
 798 0078 0200     		.2byte	0x2
 799 007a 7D       		.byte	0x7d
 800 007b 10       		.sleb128 16
 801 007c 00000000 		.4byte	0
 802 0080 00000000 		.4byte	0
 803              		.section	.debug_aranges,"",%progbits
 804 0000 2C000000 		.4byte	0x2c
 805 0004 0200     		.2byte	0x2
 806 0006 00000000 		.4byte	.Ldebug_info0
 807 000a 04       		.byte	0x4
 808 000b 00       		.byte	0
 809 000c 0000     		.2byte	0
 810 000e 0000     		.2byte	0
 811 0010 00000000 		.4byte	.LFB62
 812 0014 3A000000 		.4byte	.LFE62-.LFB62
 813 0018 00000000 		.4byte	.LFB63
 814 001c 56000000 		.4byte	.LFE63-.LFB63
 815 0020 00000000 		.4byte	.LFB64
 816 0024 40000000 		.4byte	.LFE64-.LFB64
 817 0028 00000000 		.4byte	0
 818 002c 00000000 		.4byte	0
 819              		.section	.debug_ranges,"",%progbits
 820              	.Ldebug_ranges0:
 821 0000 00000000 		.4byte	.LFB62
 822 0004 3A000000 		.4byte	.LFE62
 823 0008 00000000 		.4byte	.LFB63
 824 000c 56000000 		.4byte	.LFE63
 825 0010 00000000 		.4byte	.LFB64
 826 0014 40000000 		.4byte	.LFE64
 827 0018 00000000 		.4byte	0
 828 001c 00000000 		.4byte	0
 829              		.section	.debug_line,"",%progbits
 830              	.Ldebug_line0:
 831 0000 F5010000 		.section	.debug_str,"MS",%progbits,1
 831      02009101 
 831      00000201 
 831      FB0E0D00 
 831      01010101 
 832              	.LASF14:
 833 0000 4C434B52 		.ascii	"LCKR\000"
 833      00
 834              	.LASF11:
 835 0005 75696E74 		.ascii	"uint_fast8_t\000"
 835      5F666173 
 835      74385F74 
ARM GAS  C:\Users\z80\AppData\Local\Temp\ccTFDBEY.s 			page 16


 835      00
 836              	.LASF13:
 837 0012 42535252 		.ascii	"BSRR\000"
 837      00
 838              	.LASF24:
 839 0017 70616C57 		.ascii	"palWriteBus\000"
 839      72697465 
 839      42757300 
 840              	.LASF28:
 841 0023 2E2E2F63 		.ascii	"../chibios_2.4.x/os/hal/src/pal.c\000"
 841      68696269 
 841      6F735F32 
 841      2E342E78 
 841      2F6F732F 
 842              	.LASF29:
 843 0045 433A5C70 		.ascii	"C:\\projects\\digitizer.git\\firmware\\digitizer\000"
 843      726F6A65 
 843      6374735C 
 843      64696769 
 843      74697A65 
 844              	.LASF19:
 845 0072 706F7274 		.ascii	"portid\000"
 845      696400
 846              	.LASF16:
 847 0079 696F706F 		.ascii	"ioportmask_t\000"
 847      72746D61 
 847      736B5F74 
 847      00
 848              	.LASF17:
 849 0086 696F6D6F 		.ascii	"iomode_t\000"
 849      64655F74 
 849      00
 850              	.LASF2:
 851 008f 756E7369 		.ascii	"unsigned char\000"
 851      676E6564 
 851      20636861 
 851      7200
 852              	.LASF8:
 853 009d 6C6F6E67 		.ascii	"long unsigned int\000"
 853      20756E73 
 853      69676E65 
 853      6420696E 
 853      7400
 854              	.LASF4:
 855 00af 73686F72 		.ascii	"short unsigned int\000"
 855      7420756E 
 855      7369676E 
 855      65642069 
 855      6E7400
 856              	.LASF25:
 857 00c2 70616C53 		.ascii	"palSetBusMode\000"
 857      65744275 
 857      734D6F64 
 857      6500
 858              	.LASF31:
 859 00d0 49544D5F 		.ascii	"ITM_RxBuffer\000"
 859      52784275 
ARM GAS  C:\Users\z80\AppData\Local\Temp\ccTFDBEY.s 			page 17


 859      66666572 
 859      00
 860              	.LASF27:
 861 00dd 474E5520 		.ascii	"GNU C 4.6.3\000"
 861      4320342E 
 861      362E3300 
 862              	.LASF0:
 863 00e9 756E7369 		.ascii	"unsigned int\000"
 863      676E6564 
 863      20696E74 
 863      00
 864              	.LASF15:
 865 00f6 4750494F 		.ascii	"GPIO_TypeDef\000"
 865      5F547970 
 865      65446566 
 865      00
 866              	.LASF12:
 867 0103 63686172 		.ascii	"char\000"
 867      00
 868              	.LASF26:
 869 0108 6D6F6465 		.ascii	"mode\000"
 869      00
 870              	.LASF6:
 871 010d 696E7433 		.ascii	"int32_t\000"
 871      325F7400 
 872              	.LASF9:
 873 0115 6C6F6E67 		.ascii	"long long int\000"
 873      206C6F6E 
 873      6720696E 
 873      7400
 874              	.LASF20:
 875 0123 6D61736B 		.ascii	"mask\000"
 875      00
 876              	.LASF23:
 877 0128 62697473 		.ascii	"bits\000"
 877      00
 878              	.LASF21:
 879 012d 6F666673 		.ascii	"offset\000"
 879      657400
 880              	.LASF3:
 881 0134 73686F72 		.ascii	"short int\000"
 881      7420696E 
 881      7400
 882              	.LASF18:
 883 013e 696F706F 		.ascii	"ioportid_t\000"
 883      72746964 
 883      5F7400
 884              	.LASF7:
 885 0149 75696E74 		.ascii	"uint32_t\000"
 885      33325F74 
 885      00
 886              	.LASF5:
 887 0152 6C6F6E67 		.ascii	"long int\000"
 887      20696E74 
 887      00
 888              	.LASF30:
 889 015b 70616C52 		.ascii	"palReadBus\000"
ARM GAS  C:\Users\z80\AppData\Local\Temp\ccTFDBEY.s 			page 18


 889      65616442 
 889      757300
 890              	.LASF1:
 891 0166 7369676E 		.ascii	"signed char\000"
 891      65642063 
 891      68617200 
 892              	.LASF10:
 893 0172 6C6F6E67 		.ascii	"long long unsigned int\000"
 893      206C6F6E 
 893      6720756E 
 893      7369676E 
 893      65642069 
 894              	.LASF22:
 895 0189 494F4275 		.ascii	"IOBus\000"
 895      7300
 896              		.ident	"GCC: (Sourcery CodeBench Lite 2012.03-56) 4.6.3"
ARM GAS  C:\Users\z80\AppData\Local\Temp\ccTFDBEY.s 			page 19


DEFINED SYMBOLS
                            *ABS*:00000000 pal.c
C:\Users\z80\AppData\Local\Temp\ccTFDBEY.s:19     .rodata:00000000 $d
C:\Users\z80\AppData\Local\Temp\ccTFDBEY.s:20     .rodata:00000000 .LC0
C:\Users\z80\AppData\Local\Temp\ccTFDBEY.s:23     .text.palReadBus:00000000 $t
C:\Users\z80\AppData\Local\Temp\ccTFDBEY.s:29     .text.palReadBus:00000000 palReadBus
C:\Users\z80\AppData\Local\Temp\ccTFDBEY.s:78     .rodata:00000010 .LC1
C:\Users\z80\AppData\Local\Temp\ccTFDBEY.s:81     .text.palWriteBus:00000000 $t
C:\Users\z80\AppData\Local\Temp\ccTFDBEY.s:87     .text.palWriteBus:00000000 palWriteBus
C:\Users\z80\AppData\Local\Temp\ccTFDBEY.s:146    .rodata:00000020 .LC2
C:\Users\z80\AppData\Local\Temp\ccTFDBEY.s:149    .text.palSetBusMode:00000000 $t
C:\Users\z80\AppData\Local\Temp\ccTFDBEY.s:155    .text.palSetBusMode:00000000 palSetBusMode
                     .debug_frame:00000010 $d

UNDEFINED SYMBOLS
chDbgPanic
_pal_lld_setgroupmode
