ARM GAS  C:\Users\z80\AppData\Local\Temp\ccgjv1a7.s 			page 1


   1              		.syntax unified
   2              		.cpu cortex-m3
   3              		.fpu softvfp
   4              		.eabi_attribute 20, 1
   5              		.eabi_attribute 21, 1
   6              		.eabi_attribute 23, 3
   7              		.eabi_attribute 24, 1
   8              		.eabi_attribute 25, 1
   9              		.eabi_attribute 26, 1
  10              		.eabi_attribute 30, 2
  11              		.eabi_attribute 34, 1
  12              		.eabi_attribute 18, 4
  13              		.thumb
  14              		.file	"serial.c"
  15              		.text
  16              	.Ltext0:
  17              		.cfi_sections	.debug_frame
  18              		.section	.text.putwouldblock,"ax",%progbits
  19              		.align	2
  20              		.p2align 4,,15
  21              		.thumb
  22              		.thumb_func
  23              		.type	putwouldblock, %function
  24              	putwouldblock:
  25              	.LFB64:
  26              		.file 1 "../chibios_2.4.x/os/hal/src/serial.c"
  27              		.loc 1 74 0
  28              		.cfi_startproc
  29              		@ args = 0, pretend = 0, frame = 0
  30              		@ frame_needed = 0, uses_anonymous_args = 0
  31              		@ link register save eliminated.
  32              	.LVL0:
  33              		.loc 1 76 0
  34 0000 806B     		ldr	r0, [r0, #56]
  35              	.LVL1:
  36              		.loc 1 77 0
  37 0002 D0F10100 		rsbs	r0, r0, #1
  38 0006 38BF     		it	cc
  39 0008 0020     		movcc	r0, #0
  40 000a 7047     		bx	lr
  41              		.cfi_endproc
  42              	.LFE64:
  43              		.size	putwouldblock, .-putwouldblock
  44 000c AFF30080 		.section	.text.getwouldblock,"ax",%progbits
  45              		.align	2
  46              		.p2align 4,,15
  47              		.thumb
  48              		.thumb_func
  49              		.type	getwouldblock, %function
  50              	getwouldblock:
  51              	.LFB65:
  52              		.loc 1 79 0
  53              		.cfi_startproc
  54              		@ args = 0, pretend = 0, frame = 0
  55              		@ frame_needed = 0, uses_anonymous_args = 0
  56              		@ link register save eliminated.
  57              	.LVL2:
ARM GAS  C:\Users\z80\AppData\Local\Temp\ccgjv1a7.s 			page 2


  58              		.loc 1 81 0
  59 0000 8069     		ldr	r0, [r0, #24]
  60              	.LVL3:
  61              		.loc 1 82 0
  62 0002 D0F10100 		rsbs	r0, r0, #1
  63 0006 38BF     		it	cc
  64 0008 0020     		movcc	r0, #0
  65 000a 7047     		bx	lr
  66              		.cfi_endproc
  67              	.LFE65:
  68              		.size	getwouldblock, .-getwouldblock
  69 000c AFF30080 		.section	.text.getflags,"ax",%progbits
  70              		.align	2
  71              		.p2align 4,,15
  72              		.thumb
  73              		.thumb_func
  74              		.type	getflags, %function
  75              	getflags:
  76              	.LFB70:
  77              		.loc 1 104 0
  78              		.cfi_startproc
  79              		@ args = 0, pretend = 0, frame = 0
  80              		@ frame_needed = 0, uses_anonymous_args = 0
  81              	.LVL4:
  82 0000 70B5     		push	{r4, r5, r6, lr}
  83              	.LCFI0:
  84              		.cfi_def_cfa_offset 16
  85              		.cfi_offset 14, -4
  86              		.cfi_offset 6, -8
  87              		.cfi_offset 5, -12
  88              		.cfi_offset 4, -16
  89              	.LBB2:
  90              		.loc 1 105 0
  91 0002 2023     		movs	r3, #32
  92              	.LVL5:
  93              	.LBE2:
  94              		.loc 1 104 0
  95 0004 0446     		mov	r4, r0
  96              	.LBB3:
  97              		.loc 1 105 0
  98              	@ 105 "../chibios_2.4.x/os/hal/src/serial.c" 1
  99 0006 83F31188 		msr     BASEPRI, r3
 100              	@ 0 "" 2
 101              	.LVL6:
 102              		.thumb
 103              	.LBE3:
 104 000a 0026     		movs	r6, #0
 105 000c FFF7FEFF 		bl	dbg_check_lock
 106              	.LVL7:
 107 0010 A568     		ldr	r5, [r4, #8]
 108              	.LVL8:
 109 0012 A660     		str	r6, [r4, #8]
 110 0014 FFF7FEFF 		bl	dbg_check_unlock
 111              	.LVL9:
 112              	.LBB4:
 113 0018 3346     		mov	r3, r6
 114              	.LVL10:
ARM GAS  C:\Users\z80\AppData\Local\Temp\ccgjv1a7.s 			page 3


 115              	@ 105 "../chibios_2.4.x/os/hal/src/serial.c" 1
 116 001a 83F31188 		msr     BASEPRI, r3
 117              	@ 0 "" 2
 118              	.LVL11:
 119              		.thumb
 120              	.LBE4:
 121              		.loc 1 106 0
 122 001e 2846     		mov	r0, r5
 123 0020 70BD     		pop	{r4, r5, r6, pc}
 124              		.cfi_endproc
 125              	.LFE70:
 126              		.size	getflags, .-getflags
 127 0022 00BFAFF3 		.section	.text.readt,"ax",%progbits
 127      0080AFF3 
 127      0080AFF3 
 127      0080
 128              		.align	2
 129              		.p2align 4,,15
 130              		.thumb
 131              		.thumb_func
 132              		.type	readt, %function
 133              	readt:
 134              	.LFB69:
 135              		.loc 1 99 0
 136              		.cfi_startproc
 137              		@ args = 0, pretend = 0, frame = 0
 138              		@ frame_needed = 0, uses_anonymous_args = 0
 139              		@ link register save eliminated.
 140              	.LVL12:
 141              		.loc 1 101 0
 142 0000 1030     		adds	r0, r0, #16
 143              	.LVL13:
 144              		.loc 1 102 0
 145              		.loc 1 101 0
 146 0002 FFF7FEBF 		b	chIQReadTimeout
 147              	.LVL14:
 148              	.LVL15:
 149              	.LVL16:
 150              	.LVL17:
 151              		.cfi_endproc
 152              	.LFE69:
 153              		.size	readt, .-readt
 154 0006 00BFAFF3 		.section	.text.reads,"ax",%progbits
 154      0080AFF3 
 154      0080
 155              		.align	2
 156              		.p2align 4,,15
 157              		.thumb
 158              		.thumb_func
 159              		.type	reads, %function
 160              	reads:
 161              	.LFB63:
 162              		.loc 1 68 0
 163              		.cfi_startproc
 164              		@ args = 0, pretend = 0, frame = 0
 165              		@ frame_needed = 0, uses_anonymous_args = 0
 166              		@ link register save eliminated.
ARM GAS  C:\Users\z80\AppData\Local\Temp\ccgjv1a7.s 			page 4


 167              	.LVL18:
 168              		.loc 1 70 0
 169 0000 1030     		adds	r0, r0, #16
 170              	.LVL19:
 171 0002 4FF0FF33 		mov	r3, #-1
 172              		.loc 1 72 0
 173              		.loc 1 70 0
 174 0006 FFF7FEBF 		b	chIQReadTimeout
 175              	.LVL20:
 176              	.LVL21:
 177              	.LVL22:
 178              		.cfi_endproc
 179              	.LFE63:
 180              		.size	reads, .-reads
 181 000a 00BFAFF3 		.section	.text.writet,"ax",%progbits
 181      0080
 182              		.align	2
 183              		.p2align 4,,15
 184              		.thumb
 185              		.thumb_func
 186              		.type	writet, %function
 187              	writet:
 188              	.LFB68:
 189              		.loc 1 94 0
 190              		.cfi_startproc
 191              		@ args = 0, pretend = 0, frame = 0
 192              		@ frame_needed = 0, uses_anonymous_args = 0
 193              		@ link register save eliminated.
 194              	.LVL23:
 195              		.loc 1 96 0
 196 0000 3030     		adds	r0, r0, #48
 197              	.LVL24:
 198              		.loc 1 97 0
 199              		.loc 1 96 0
 200 0002 FFF7FEBF 		b	chOQWriteTimeout
 201              	.LVL25:
 202              	.LVL26:
 203              	.LVL27:
 204              	.LVL28:
 205              		.cfi_endproc
 206              	.LFE68:
 207              		.size	writet, .-writet
 208 0006 00BFAFF3 		.section	.text.writes,"ax",%progbits
 208      0080AFF3 
 208      0080
 209              		.align	2
 210              		.p2align 4,,15
 211              		.thumb
 212              		.thumb_func
 213              		.type	writes, %function
 214              	writes:
 215              	.LFB62:
 216              		.loc 1 62 0
 217              		.cfi_startproc
 218              		@ args = 0, pretend = 0, frame = 0
 219              		@ frame_needed = 0, uses_anonymous_args = 0
 220              		@ link register save eliminated.
ARM GAS  C:\Users\z80\AppData\Local\Temp\ccgjv1a7.s 			page 5


 221              	.LVL29:
 222              		.loc 1 64 0
 223 0000 3030     		adds	r0, r0, #48
 224              	.LVL30:
 225 0002 4FF0FF33 		mov	r3, #-1
 226              		.loc 1 66 0
 227              		.loc 1 64 0
 228 0006 FFF7FEBF 		b	chOQWriteTimeout
 229              	.LVL31:
 230              	.LVL32:
 231              	.LVL33:
 232              		.cfi_endproc
 233              	.LFE62:
 234              		.size	writes, .-writes
 235 000a 00BFAFF3 		.section	.text.gett,"ax",%progbits
 235      0080
 236              		.align	2
 237              		.p2align 4,,15
 238              		.thumb
 239              		.thumb_func
 240              		.type	gett, %function
 241              	gett:
 242              	.LFB67:
 243              		.loc 1 89 0
 244              		.cfi_startproc
 245              		@ args = 0, pretend = 0, frame = 0
 246              		@ frame_needed = 0, uses_anonymous_args = 0
 247              		@ link register save eliminated.
 248              	.LVL34:
 249              		.loc 1 91 0
 250 0000 1030     		adds	r0, r0, #16
 251              	.LVL35:
 252              		.loc 1 92 0
 253              		.loc 1 91 0
 254 0002 FFF7FEBF 		b	chIQGetTimeout
 255              	.LVL36:
 256              	.LVL37:
 257              		.cfi_endproc
 258              	.LFE67:
 259              		.size	gett, .-gett
 260 0006 00BFAFF3 		.section	.text.putt,"ax",%progbits
 260      0080AFF3 
 260      0080
 261              		.align	2
 262              		.p2align 4,,15
 263              		.thumb
 264              		.thumb_func
 265              		.type	putt, %function
 266              	putt:
 267              	.LFB66:
 268              		.loc 1 84 0
 269              		.cfi_startproc
 270              		@ args = 0, pretend = 0, frame = 0
 271              		@ frame_needed = 0, uses_anonymous_args = 0
 272              		@ link register save eliminated.
 273              	.LVL38:
 274              		.loc 1 86 0
ARM GAS  C:\Users\z80\AppData\Local\Temp\ccgjv1a7.s 			page 6


 275 0000 3030     		adds	r0, r0, #48
 276              	.LVL39:
 277              		.loc 1 87 0
 278              		.loc 1 86 0
 279 0002 FFF7FEBF 		b	chOQPutTimeout
 280              	.LVL40:
 281              	.LVL41:
 282              	.LVL42:
 283              		.cfi_endproc
 284              	.LFE66:
 285              		.size	putt, .-putt
 286 0006 00BFAFF3 		.section	.text.sdInit,"ax",%progbits
 286      0080AFF3 
 286      0080
 287              		.align	2
 288              		.p2align 4,,15
 289              		.global	sdInit
 290              		.thumb
 291              		.thumb_func
 292              		.type	sdInit, %function
 293              	sdInit:
 294              	.LFB71:
 295              		.loc 1 125 0
 296              		.cfi_startproc
 297              		@ args = 0, pretend = 0, frame = 0
 298              		@ frame_needed = 0, uses_anonymous_args = 0
 299              		@ link register save eliminated.
 300              		.loc 1 128 0
 301              		.loc 1 127 0
 302 0000 FFF7FEBF 		b	sd_lld_init
 303              		.cfi_endproc
 304              	.LFE71:
 305              		.size	sdInit, .-sdInit
 306 0004 AFF30080 		.section	.text.sdObjectInit,"ax",%progbits
 306      AFF30080 
 306      AFF30080 
 307              		.align	2
 308              		.p2align 4,,15
 309              		.global	sdObjectInit
 310              		.thumb
 311              		.thumb_func
 312              		.type	sdObjectInit, %function
 313              	sdObjectInit:
 314              	.LFB72:
 315              		.loc 1 145 0
 316              		.cfi_startproc
 317              		@ args = 0, pretend = 0, frame = 0
 318              		@ frame_needed = 0, uses_anonymous_args = 0
 319              	.LVL43:
 320 0000 70B5     		push	{r4, r5, r6, lr}
 321              	.LCFI1:
 322              		.cfi_def_cfa_offset 16
 323              		.cfi_offset 14, -4
 324              		.cfi_offset 6, -8
 325              		.cfi_offset 5, -12
 326              		.cfi_offset 4, -16
 327              		.loc 1 145 0
ARM GAS  C:\Users\z80\AppData\Local\Temp\ccgjv1a7.s 			page 7


 328 0002 0446     		mov	r4, r0
 329              		.loc 1 147 0
 330 0004 40F20000 		movw	r0, #:lower16:.LANCHOR0
 331              	.LVL44:
 332 0008 2646     		mov	r6, r4
 333 000a C0F20000 		movt	r0, #:upper16:.LANCHOR0
 334 000e 46F8040B 		str	r0, [r6], #4
 335              		.loc 1 148 0
 336 0012 6660     		str	r6, [r4, #4]
 337              		.loc 1 149 0
 338 0014 0026     		movs	r6, #0
 339 0016 A660     		str	r6, [r4, #8]
 340              		.loc 1 150 0
 341 0018 0126     		movs	r6, #1
 342              		.loc 1 145 0
 343 001a 0B46     		mov	r3, r1
 344 001c 1546     		mov	r5, r2
 345              		.loc 1 151 0
 346 001e 04F11000 		add	r0, r4, #16
 347 0022 04F15001 		add	r1, r4, #80
 348              	.LVL45:
 349 0026 4FF40072 		mov	r2, #512
 350              	.LVL46:
 351              		.loc 1 150 0
 352 002a 2673     		strb	r6, [r4, #12]
 353              		.loc 1 151 0
 354 002c FFF7FEFF 		bl	chIQInit
 355              	.LVL47:
 356              		.loc 1 152 0
 357 0030 04F13000 		add	r0, r4, #48
 358 0034 04F51471 		add	r1, r4, #592
 359 0038 4FF40072 		mov	r2, #512
 360 003c 2B46     		mov	r3, r5
 361              		.loc 1 153 0
 362 003e BDE87040 		pop	{r4, r5, r6, lr}
 363              		.loc 1 152 0
 364 0042 FFF7FEBF 		b	chOQInit
 365              		.cfi_endproc
 366              	.LFE72:
 367              		.size	sdObjectInit, .-sdObjectInit
 368 0046 00BFAFF3 		.section	.text.sdStart,"ax",%progbits
 368      0080AFF3 
 368      0080
 369              		.align	2
 370              		.p2align 4,,15
 371              		.global	sdStart
 372              		.thumb
 373              		.thumb_func
 374              		.type	sdStart, %function
 375              	sdStart:
 376              	.LFB73:
 377              		.loc 1 165 0
 378              		.cfi_startproc
 379              		@ args = 0, pretend = 0, frame = 0
 380              		@ frame_needed = 0, uses_anonymous_args = 0
 381              	.LVL48:
 382 0000 38B5     		push	{r3, r4, r5, lr}
ARM GAS  C:\Users\z80\AppData\Local\Temp\ccgjv1a7.s 			page 8


 383              	.LCFI2:
 384              		.cfi_def_cfa_offset 16
 385              		.cfi_offset 14, -4
 386              		.cfi_offset 5, -8
 387              		.cfi_offset 4, -12
 388              		.cfi_offset 3, -16
 389              		.loc 1 167 0
 390 0002 0446     		mov	r4, r0
 391              		.loc 1 165 0
 392 0004 0D46     		mov	r5, r1
 393              		.loc 1 167 0
 394 0006 D8B1     		cbz	r0, .L16
 395              	.LVL49:
 396              	.L13:
 397              	.LBB5:
 398              		.loc 1 169 0
 399 0008 2023     		movs	r3, #32
 400              	.LVL50:
 401              	@ 169 "../chibios_2.4.x/os/hal/src/serial.c" 1
 402 000a 83F31188 		msr     BASEPRI, r3
 403              	@ 0 "" 2
 404              	.LVL51:
 405              		.thumb
 406              	.LBE5:
 407 000e FFF7FEFF 		bl	dbg_check_lock
 408              	.LVL52:
 409              		.loc 1 170 0
 410 0012 217B     		ldrb	r1, [r4, #12]	@ zero_extendqisi2
 411 0014 481E     		subs	r0, r1, #1
 412 0016 C3B2     		uxtb	r3, r0
 413 0018 012B     		cmp	r3, #1
 414 001a 05D9     		bls	.L14
 415              		.loc 1 170 0 is_stmt 0 discriminator 1
 416 001c 40F20000 		movw	r0, #:lower16:.LC1
 417 0020 C0F20000 		movt	r0, #:upper16:.LC1
 418 0024 FFF7FEFF 		bl	chDbgPanic
 419              	.L14:
 420              		.loc 1 173 0 is_stmt 1
 421 0028 2046     		mov	r0, r4
 422 002a 2946     		mov	r1, r5
 423 002c FFF7FEFF 		bl	sd_lld_start
 424              		.loc 1 174 0
 425 0030 0222     		movs	r2, #2
 426 0032 2273     		strb	r2, [r4, #12]
 427              		.loc 1 175 0
 428 0034 FFF7FEFF 		bl	dbg_check_unlock
 429              	.LBB6:
 430 0038 0023     		movs	r3, #0
 431              	.LVL53:
 432              	@ 175 "../chibios_2.4.x/os/hal/src/serial.c" 1
 433 003a 83F31188 		msr     BASEPRI, r3
 434              	@ 0 "" 2
 435              	.LVL54:
 436              		.thumb
 437              	.LBE6:
 438              		.loc 1 176 0
 439 003e 38BD     		pop	{r3, r4, r5, pc}
ARM GAS  C:\Users\z80\AppData\Local\Temp\ccgjv1a7.s 			page 9


 440              	.LVL55:
 441              	.L16:
 442              		.loc 1 167 0 discriminator 1
 443 0040 40F20000 		movw	r0, #:lower16:.LC0
 444 0044 C0F20000 		movt	r0, #:upper16:.LC0
 445 0048 FFF7FEFF 		bl	chDbgPanic
 446 004c DCE7     		b	.L13
 447              		.cfi_endproc
 448              	.LFE73:
 449              		.size	sdStart, .-sdStart
 450 004e 00BF     		.section	.text.sdStop,"ax",%progbits
 451              		.align	2
 452              		.p2align 4,,15
 453              		.global	sdStop
 454              		.thumb
 455              		.thumb_func
 456              		.type	sdStop, %function
 457              	sdStop:
 458              	.LFB74:
 459              		.loc 1 187 0
 460              		.cfi_startproc
 461              		@ args = 0, pretend = 0, frame = 0
 462              		@ frame_needed = 0, uses_anonymous_args = 0
 463              	.LVL56:
 464 0000 10B5     		push	{r4, lr}
 465              	.LCFI3:
 466              		.cfi_def_cfa_offset 8
 467              		.cfi_offset 14, -4
 468              		.cfi_offset 4, -8
 469              		.loc 1 189 0
 470 0002 0446     		mov	r4, r0
 471 0004 20B3     		cbz	r0, .L20
 472              	.LVL57:
 473              	.L18:
 474              	.LBB7:
 475              		.loc 1 191 0
 476 0006 2023     		movs	r3, #32
 477              	.LVL58:
 478              	@ 191 "../chibios_2.4.x/os/hal/src/serial.c" 1
 479 0008 83F31188 		msr     BASEPRI, r3
 480              	@ 0 "" 2
 481              	.LVL59:
 482              		.thumb
 483              	.LBE7:
 484 000c FFF7FEFF 		bl	dbg_check_lock
 485              	.LVL60:
 486              		.loc 1 192 0
 487 0010 217B     		ldrb	r1, [r4, #12]	@ zero_extendqisi2
 488 0012 481E     		subs	r0, r1, #1
 489 0014 C3B2     		uxtb	r3, r0
 490 0016 012B     		cmp	r3, #1
 491 0018 05D9     		bls	.L19
 492              		.loc 1 192 0 is_stmt 0 discriminator 1
 493 001a 40F20000 		movw	r0, #:lower16:.LC3
 494 001e C0F20000 		movt	r0, #:upper16:.LC3
 495 0022 FFF7FEFF 		bl	chDbgPanic
 496              	.L19:
ARM GAS  C:\Users\z80\AppData\Local\Temp\ccgjv1a7.s 			page 10


 497              		.loc 1 195 0 is_stmt 1
 498 0026 2046     		mov	r0, r4
 499 0028 FFF7FEFF 		bl	sd_lld_stop
 500              		.loc 1 196 0
 501 002c 0122     		movs	r2, #1
 502 002e 2273     		strb	r2, [r4, #12]
 503              		.loc 1 197 0
 504 0030 04F13000 		add	r0, r4, #48
 505 0034 FFF7FEFF 		bl	chOQResetI
 506              		.loc 1 198 0
 507 0038 04F11000 		add	r0, r4, #16
 508 003c FFF7FEFF 		bl	chIQResetI
 509              		.loc 1 199 0
 510 0040 FFF7FEFF 		bl	chSchRescheduleS
 511              		.loc 1 200 0
 512 0044 FFF7FEFF 		bl	dbg_check_unlock
 513              	.LBB8:
 514 0048 0023     		movs	r3, #0
 515              	.LVL61:
 516              	@ 200 "../chibios_2.4.x/os/hal/src/serial.c" 1
 517 004a 83F31188 		msr     BASEPRI, r3
 518              	@ 0 "" 2
 519              	.LVL62:
 520              		.thumb
 521              	.LBE8:
 522              		.loc 1 201 0
 523 004e 10BD     		pop	{r4, pc}
 524              	.LVL63:
 525              	.L20:
 526              		.loc 1 189 0 discriminator 1
 527 0050 40F20000 		movw	r0, #:lower16:.LC2
 528 0054 C0F20000 		movt	r0, #:upper16:.LC2
 529 0058 FFF7FEFF 		bl	chDbgPanic
 530 005c D3E7     		b	.L18
 531              		.cfi_endproc
 532              	.LFE74:
 533              		.size	sdStop, .-sdStop
 534 005e 00BF     		.section	.text.sdIncomingDataI,"ax",%progbits
 535              		.align	2
 536              		.p2align 4,,15
 537              		.global	sdIncomingDataI
 538              		.thumb
 539              		.thumb_func
 540              		.type	sdIncomingDataI, %function
 541              	sdIncomingDataI:
 542              	.LFB75:
 543              		.loc 1 219 0
 544              		.cfi_startproc
 545              		@ args = 0, pretend = 0, frame = 0
 546              		@ frame_needed = 0, uses_anonymous_args = 0
 547              	.LVL64:
 548 0000 38B5     		push	{r3, r4, r5, lr}
 549              	.LCFI4:
 550              		.cfi_def_cfa_offset 16
 551              		.cfi_offset 14, -4
 552              		.cfi_offset 5, -8
 553              		.cfi_offset 4, -12
ARM GAS  C:\Users\z80\AppData\Local\Temp\ccgjv1a7.s 			page 11


 554              		.cfi_offset 3, -16
 555              		.loc 1 219 0
 556 0002 0446     		mov	r4, r0
 557 0004 0D46     		mov	r5, r1
 558              		.loc 1 221 0
 559 0006 FFF7FEFF 		bl	chDbgCheckClassI
 560              	.LVL65:
 561              		.loc 1 222 0
 562 000a 002C     		cmp	r4, #0
 563 000c 21D0     		beq	.L25
 564              	.L22:
 565              		.loc 1 224 0
 566 000e A169     		ldr	r1, [r4, #24]
 567 0010 39B1     		cbz	r1, .L26
 568              		.loc 1 226 0
 569 0012 04F11000 		add	r0, r4, #16
 570 0016 2946     		mov	r1, r5
 571 0018 FFF7FEFF 		bl	chIQPutI
 572 001c 0028     		cmp	r0, #0
 573 001e 0EDB     		blt	.L27
 574              	.L21:
 575 0020 38BD     		pop	{r3, r4, r5, pc}
 576              	.L26:
 577              		.loc 1 225 0
 578 0022 A268     		ldr	r2, [r4, #8]
 579 0024 201D     		adds	r0, r4, #4
 580 0026 42F00403 		orr	r3, r2, #4
 581 002a A360     		str	r3, [r4, #8]
 582 002c FFF7FEFF 		bl	chEvtBroadcastFlagsI
 583              		.loc 1 226 0
 584 0030 04F11000 		add	r0, r4, #16
 585 0034 2946     		mov	r1, r5
 586 0036 FFF7FEFF 		bl	chIQPutI
 587 003a 0028     		cmp	r0, #0
 588 003c F0DA     		bge	.L21
 589              	.L27:
 590              		.loc 1 227 0
 591 003e A368     		ldr	r3, [r4, #8]
 592 0040 201D     		adds	r0, r4, #4
 593 0042 43F08001 		orr	r1, r3, #128
 594 0046 A160     		str	r1, [r4, #8]
 595 0048 0021     		movs	r1, #0
 596              		.loc 1 228 0
 597 004a BDE83840 		pop	{r3, r4, r5, lr}
 598              		.loc 1 227 0
 599 004e FFF7FEBF 		b	chEvtBroadcastFlagsI
 600              	.L25:
 601              		.loc 1 222 0 discriminator 1
 602 0052 40F20000 		movw	r0, #:lower16:.LC4
 603 0056 C0F20000 		movt	r0, #:upper16:.LC4
 604 005a FFF7FEFF 		bl	chDbgPanic
 605 005e D6E7     		b	.L22
 606              		.cfi_endproc
 607              	.LFE75:
 608              		.size	sdIncomingDataI, .-sdIncomingDataI
 609              		.section	.text.sdRequestDataI,"ax",%progbits
 610              		.align	2
ARM GAS  C:\Users\z80\AppData\Local\Temp\ccgjv1a7.s 			page 12


 611              		.p2align 4,,15
 612              		.global	sdRequestDataI
 613              		.thumb
 614              		.thumb_func
 615              		.type	sdRequestDataI, %function
 616              	sdRequestDataI:
 617              	.LFB76:
 618              		.loc 1 245 0
 619              		.cfi_startproc
 620              		@ args = 0, pretend = 0, frame = 0
 621              		@ frame_needed = 0, uses_anonymous_args = 0
 622              	.LVL66:
 623 0000 38B5     		push	{r3, r4, r5, lr}
 624              	.LCFI5:
 625              		.cfi_def_cfa_offset 16
 626              		.cfi_offset 14, -4
 627              		.cfi_offset 5, -8
 628              		.cfi_offset 4, -12
 629              		.cfi_offset 3, -16
 630              		.loc 1 245 0
 631 0002 0546     		mov	r5, r0
 632              		.loc 1 248 0
 633 0004 FFF7FEFF 		bl	chDbgCheckClassI
 634              	.LVL67:
 635              		.loc 1 249 0
 636 0008 8DB1     		cbz	r5, .L31
 637              	.L29:
 638              		.loc 1 251 0
 639 000a 05F13000 		add	r0, r5, #48
 640 000e FFF7FEFF 		bl	chOQGetI
 641              	.LVL68:
 642              		.loc 1 252 0
 643 0012 041E     		subs	r4, r0, #0
 644 0014 01DB     		blt	.L32
 645              		.loc 1 255 0
 646 0016 2046     		mov	r0, r4
 647 0018 38BD     		pop	{r3, r4, r5, pc}
 648              	.L32:
 649              		.loc 1 253 0
 650 001a A968     		ldr	r1, [r5, #8]
 651 001c 281D     		adds	r0, r5, #4
 652              	.LVL69:
 653 001e 41F00803 		orr	r3, r1, #8
 654 0022 AB60     		str	r3, [r5, #8]
 655 0024 0021     		movs	r1, #0
 656 0026 FFF7FEFF 		bl	chEvtBroadcastFlagsI
 657              		.loc 1 255 0
 658 002a 2046     		mov	r0, r4
 659 002c 38BD     		pop	{r3, r4, r5, pc}
 660              	.LVL70:
 661              	.L31:
 662              		.loc 1 249 0 discriminator 1
 663 002e 40F20000 		movw	r0, #:lower16:.LC5
 664 0032 C0F20000 		movt	r0, #:upper16:.LC5
 665 0036 FFF7FEFF 		bl	chDbgPanic
 666 003a E6E7     		b	.L29
 667              		.cfi_endproc
ARM GAS  C:\Users\z80\AppData\Local\Temp\ccgjv1a7.s 			page 13


 668              	.LFE76:
 669              		.size	sdRequestDataI, .-sdRequestDataI
 670 003c AFF30080 		.section	.rodata.str1.4,"aMS",%progbits,1
 671              		.align	2
 672              	.LC0:
 673 0000 22736453 		.ascii	"\"sdStart\"()\000"
 673      74617274 
 673      22282900 
 674              	.LC1:
 675 000c 73645374 		.ascii	"sdStart(), #1\000"
 675      61727428 
 675      292C2023 
 675      3100
 676 001a 0000     		.space	2
 677              	.LC2:
 678 001c 22736453 		.ascii	"\"sdStop\"()\000"
 678      746F7022 
 678      282900
 679 0027 00       		.space	1
 680              	.LC3:
 681 0028 73645374 		.ascii	"sdStop(), #1\000"
 681      6F702829 
 681      2C202331 
 681      00
 682 0035 000000   		.space	3
 683              	.LC4:
 684 0038 22736449 		.ascii	"\"sdIncomingDataI\"()\000"
 684      6E636F6D 
 684      696E6744 
 684      61746149 
 684      22282900 
 685              	.LC5:
 686 004c 22736452 		.ascii	"\"sdRequestDataI\"()\000"
 686      65717565 
 686      73744461 
 686      74614922 
 686      282900
 687 005f 00       		.section	.rodata.vmt,"a",%progbits
 688              		.align	2
 689              		.set	.LANCHOR0,. + 0
 690              		.type	vmt, %object
 691              		.size	vmt, 36
 692              	vmt:
 693 0000 00000000 		.word	writes
 694 0004 00000000 		.word	reads
 695 0008 00000000 		.word	putwouldblock
 696 000c 00000000 		.word	getwouldblock
 697 0010 00000000 		.word	putt
 698 0014 00000000 		.word	gett
 699 0018 00000000 		.word	writet
 700 001c 00000000 		.word	readt
 701 0020 00000000 		.word	getflags
 702              		.text
 703              	.Letext0:
 704              		.file 2 "c:\\programs\\codesourcery\\2011.03-56\\bin\\../lib/gcc/arm-none-eabi/4.6.3/include/stdde
 705              		.file 3 "c:\\programs\\codesourcery\\2011.03-56\\bin\\../lib/gcc/arm-none-eabi/4.6.3/../../../../a
 706              		.file 4 "../chibios_2.4.x/os/ports/GCC/ARMCMx/chtypes.h"
ARM GAS  C:\Users\z80\AppData\Local\Temp\ccgjv1a7.s 			page 14


 707              		.file 5 "../chibios_2.4.x/os/kernel/include/chlists.h"
 708              		.file 6 "../chibios_2.4.x/os/kernel/include/chthreads.h"
 709              		.file 7 "../chibios_2.4.x/os/ports/GCC/ARMCMx/chcore_v7m.h"
 710              		.file 8 "../chibios_2.4.x/os/kernel/include/chmtx.h"
 711              		.file 9 "../chibios_2.4.x/os/kernel/include/chevents.h"
 712              		.file 10 "../chibios_2.4.x/os/kernel/include/chqueues.h"
 713              		.file 11 "../chibios_2.4.x/os/kernel/include/chioch.h"
 714              		.file 12 "../chibios_2.4.x/os/hal/platforms/STM32F1xx/stm32f10x.h"
 715              		.file 13 "../chibios_2.4.x/os/hal/include/serial.h"
 716              		.file 14 "../chibios_2.4.x/os/hal/platforms/STM32/serial_lld.h"
 717              		.file 15 "../chibios_2.4.x/os/ports/common/ARMCMx/CMSIS/include/core_cm3.h"
 718              		.section	.debug_info,"",%progbits
 719              	.Ldebug_info0:
 720 0000 CB0D0000 		.4byte	0xdcb
 721 0004 0200     		.2byte	0x2
 722 0006 00000000 		.4byte	.Ldebug_abbrev0
 723 000a 04       		.byte	0x4
 724 000b 01       		.uleb128 0x1
 725 000c DA030000 		.4byte	.LASF123
 726 0010 01       		.byte	0x1
 727 0011 00000000 		.4byte	.LASF124
 728 0015 F1000000 		.4byte	.LASF125
 729 0019 00000000 		.4byte	0
 730 001d 00000000 		.4byte	0
 731 0021 18000000 		.4byte	.Ldebug_ranges0+0x18
 732 0025 00000000 		.4byte	.Ldebug_line0
 733 0029 02       		.uleb128 0x2
 734 002a 04       		.byte	0x4
 735 002b 05       		.byte	0x5
 736 002c 696E7400 		.ascii	"int\000"
 737 0030 03       		.uleb128 0x3
 738 0031 2E000000 		.4byte	.LASF2
 739 0035 02       		.byte	0x2
 740 0036 D4       		.byte	0xd4
 741 0037 3B000000 		.4byte	0x3b
 742 003b 04       		.uleb128 0x4
 743 003c 04       		.byte	0x4
 744 003d 07       		.byte	0x7
 745 003e 92010000 		.4byte	.LASF0
 746 0042 04       		.uleb128 0x4
 747 0043 01       		.byte	0x1
 748 0044 06       		.byte	0x6
 749 0045 C9000000 		.4byte	.LASF1
 750 0049 03       		.uleb128 0x3
 751 004a A0040000 		.4byte	.LASF3
 752 004e 03       		.byte	0x3
 753 004f 2A       		.byte	0x2a
 754 0050 54000000 		.4byte	0x54
 755 0054 04       		.uleb128 0x4
 756 0055 01       		.byte	0x1
 757 0056 08       		.byte	0x8
 758 0057 32030000 		.4byte	.LASF4
 759 005b 04       		.uleb128 0x4
 760 005c 02       		.byte	0x2
 761 005d 05       		.byte	0x5
 762 005e 6C030000 		.4byte	.LASF5
 763 0062 03       		.uleb128 0x3
ARM GAS  C:\Users\z80\AppData\Local\Temp\ccgjv1a7.s 			page 15


 764 0063 9F010000 		.4byte	.LASF6
 765 0067 03       		.byte	0x3
 766 0068 36       		.byte	0x36
 767 0069 6D000000 		.4byte	0x6d
 768 006d 04       		.uleb128 0x4
 769 006e 02       		.byte	0x2
 770 006f 07       		.byte	0x7
 771 0070 EC010000 		.4byte	.LASF7
 772 0074 03       		.uleb128 0x3
 773 0075 2A030000 		.4byte	.LASF8
 774 0079 03       		.byte	0x3
 775 007a 4F       		.byte	0x4f
 776 007b 7F000000 		.4byte	0x7f
 777 007f 04       		.uleb128 0x4
 778 0080 04       		.byte	0x4
 779 0081 05       		.byte	0x5
 780 0082 24010000 		.4byte	.LASF9
 781 0086 03       		.uleb128 0x3
 782 0087 BA030000 		.4byte	.LASF10
 783 008b 03       		.byte	0x3
 784 008c 50       		.byte	0x50
 785 008d 91000000 		.4byte	0x91
 786 0091 04       		.uleb128 0x4
 787 0092 04       		.byte	0x4
 788 0093 07       		.byte	0x7
 789 0094 E6030000 		.4byte	.LASF11
 790 0098 04       		.uleb128 0x4
 791 0099 08       		.byte	0x8
 792 009a 05       		.byte	0x5
 793 009b BB000000 		.4byte	.LASF12
 794 009f 03       		.uleb128 0x3
 795 00a0 3C000000 		.4byte	.LASF13
 796 00a4 03       		.byte	0x3
 797 00a5 78       		.byte	0x78
 798 00a6 AA000000 		.4byte	0xaa
 799 00aa 04       		.uleb128 0x4
 800 00ab 08       		.byte	0x8
 801 00ac 07       		.byte	0x7
 802 00ad 6B000000 		.4byte	.LASF14
 803 00b1 03       		.uleb128 0x3
 804 00b2 5D000000 		.4byte	.LASF15
 805 00b6 03       		.byte	0x3
 806 00b7 A6       		.byte	0xa6
 807 00b8 3B000000 		.4byte	0x3b
 808 00bc 03       		.uleb128 0x3
 809 00bd E2000000 		.4byte	.LASF16
 810 00c1 04       		.byte	0x4
 811 00c2 2E       		.byte	0x2e
 812 00c3 74000000 		.4byte	0x74
 813 00c7 03       		.uleb128 0x3
 814 00c8 1A020000 		.4byte	.LASF17
 815 00cc 04       		.byte	0x4
 816 00cd 2F       		.byte	0x2f
 817 00ce 49000000 		.4byte	0x49
 818 00d2 03       		.uleb128 0x3
 819 00d3 2D010000 		.4byte	.LASF18
 820 00d7 04       		.byte	0x4
ARM GAS  C:\Users\z80\AppData\Local\Temp\ccgjv1a7.s 			page 16


 821 00d8 30       		.byte	0x30
 822 00d9 49000000 		.4byte	0x49
 823 00dd 03       		.uleb128 0x3
 824 00de 1A030000 		.4byte	.LASF19
 825 00e2 04       		.byte	0x4
 826 00e3 32       		.byte	0x32
 827 00e4 86000000 		.4byte	0x86
 828 00e8 03       		.uleb128 0x3
 829 00e9 FF010000 		.4byte	.LASF20
 830 00ed 04       		.byte	0x4
 831 00ee 33       		.byte	0x33
 832 00ef 74000000 		.4byte	0x74
 833 00f3 03       		.uleb128 0x3
 834 00f4 51000000 		.4byte	.LASF21
 835 00f8 04       		.byte	0x4
 836 00f9 35       		.byte	0x35
 837 00fa 86000000 		.4byte	0x86
 838 00fe 03       		.uleb128 0x3
 839 00ff 28040000 		.4byte	.LASF22
 840 0103 04       		.byte	0x4
 841 0104 36       		.byte	0x36
 842 0105 86000000 		.4byte	0x86
 843 0109 03       		.uleb128 0x3
 844 010a 94030000 		.4byte	.LASF23
 845 010e 05       		.byte	0x5
 846 010f 2A       		.byte	0x2a
 847 0110 14010000 		.4byte	0x114
 848 0114 05       		.uleb128 0x5
 849 0115 94030000 		.4byte	.LASF23
 850 0119 48       		.byte	0x48
 851 011a 06       		.byte	0x6
 852 011b 5E       		.byte	0x5e
 853 011c 1D020000 		.4byte	0x21d
 854 0120 06       		.uleb128 0x6
 855 0121 7D030000 		.4byte	.LASF24
 856 0125 06       		.byte	0x6
 857 0126 5F       		.byte	0x5f
 858 0127 42020000 		.4byte	0x242
 859 012b 02       		.byte	0x2
 860 012c 23       		.byte	0x23
 861 012d 00       		.uleb128 0
 862 012e 06       		.uleb128 0x6
 863 012f 09030000 		.4byte	.LASF25
 864 0133 06       		.byte	0x6
 865 0134 61       		.byte	0x61
 866 0135 42020000 		.4byte	0x242
 867 0139 02       		.byte	0x2
 868 013a 23       		.byte	0x23
 869 013b 04       		.uleb128 0x4
 870 013c 06       		.uleb128 0x6
 871 013d 7C020000 		.4byte	.LASF26
 872 0141 06       		.byte	0x6
 873 0142 63       		.byte	0x63
 874 0143 DD000000 		.4byte	0xdd
 875 0147 02       		.byte	0x2
 876 0148 23       		.byte	0x23
 877 0149 08       		.uleb128 0x8
ARM GAS  C:\Users\z80\AppData\Local\Temp\ccgjv1a7.s 			page 17


 878 014a 06       		.uleb128 0x6
 879 014b FD040000 		.4byte	.LASF27
 880 014f 06       		.byte	0x6
 881 0150 64       		.byte	0x64
 882 0151 1A030000 		.4byte	0x31a
 883 0155 02       		.byte	0x2
 884 0156 23       		.byte	0x23
 885 0157 0C       		.uleb128 0xc
 886 0158 06       		.uleb128 0x6
 887 0159 47010000 		.4byte	.LASF28
 888 015d 06       		.byte	0x6
 889 015e 66       		.byte	0x66
 890 015f 42020000 		.4byte	0x242
 891 0163 02       		.byte	0x2
 892 0164 23       		.byte	0x23
 893 0165 10       		.uleb128 0x10
 894 0166 06       		.uleb128 0x6
 895 0167 8B020000 		.4byte	.LASF29
 896 016b 06       		.byte	0x6
 897 016c 67       		.byte	0x67
 898 016d 42020000 		.4byte	0x242
 899 0171 02       		.byte	0x2
 900 0172 23       		.byte	0x23
 901 0173 14       		.uleb128 0x14
 902 0174 06       		.uleb128 0x6
 903 0175 73040000 		.4byte	.LASF30
 904 0179 06       		.byte	0x6
 905 017a 6E       		.byte	0x6e
 906 017b 2D040000 		.4byte	0x42d
 907 017f 02       		.byte	0x2
 908 0180 23       		.byte	0x23
 909 0181 18       		.uleb128 0x18
 910 0182 06       		.uleb128 0x6
 911 0183 B3020000 		.4byte	.LASF31
 912 0187 06       		.byte	0x6
 913 0188 74       		.byte	0x74
 914 0189 3F040000 		.4byte	0x43f
 915 018d 02       		.byte	0x2
 916 018e 23       		.byte	0x23
 917 018f 1C       		.uleb128 0x1c
 918 0190 06       		.uleb128 0x6
 919 0191 5A030000 		.4byte	.LASF32
 920 0195 06       		.byte	0x6
 921 0196 79       		.byte	0x79
 922 0197 D2000000 		.4byte	0xd2
 923 019b 02       		.byte	0x2
 924 019c 23       		.byte	0x23
 925 019d 20       		.uleb128 0x20
 926 019e 06       		.uleb128 0x6
 927 019f 84030000 		.4byte	.LASF33
 928 01a3 06       		.byte	0x6
 929 01a4 7D       		.byte	0x7d
 930 01a5 C7000000 		.4byte	0xc7
 931 01a9 02       		.byte	0x2
 932 01aa 23       		.byte	0x23
 933 01ab 21       		.uleb128 0x21
 934 01ac 06       		.uleb128 0x6
ARM GAS  C:\Users\z80\AppData\Local\Temp\ccgjv1a7.s 			page 18


 935 01ad B8010000 		.4byte	.LASF34
 936 01b1 06       		.byte	0x6
 937 01b2 89       		.byte	0x89
 938 01b3 3D030000 		.4byte	0x33d
 939 01b7 02       		.byte	0x2
 940 01b8 23       		.byte	0x23
 941 01b9 24       		.uleb128 0x24
 942 01ba 07       		.uleb128 0x7
 943 01bb 705F7500 		.ascii	"p_u\000"
 944 01bf 06       		.byte	0x6
 945 01c0 AE       		.byte	0xae
 946 01c1 F8030000 		.4byte	0x3f8
 947 01c5 02       		.byte	0x2
 948 01c6 23       		.byte	0x23
 949 01c7 28       		.uleb128 0x28
 950 01c8 06       		.uleb128 0x6
 951 01c9 03050000 		.4byte	.LASF35
 952 01cd 06       		.byte	0x6
 953 01ce B3       		.byte	0xb3
 954 01cf 6A020000 		.4byte	0x26a
 955 01d3 02       		.byte	0x2
 956 01d4 23       		.byte	0x23
 957 01d5 2C       		.uleb128 0x2c
 958 01d6 06       		.uleb128 0x6
 959 01d7 CE010000 		.4byte	.LASF36
 960 01db 06       		.byte	0x6
 961 01dc B9       		.byte	0xb9
 962 01dd 48020000 		.4byte	0x248
 963 01e1 02       		.byte	0x2
 964 01e2 23       		.byte	0x23
 965 01e3 30       		.uleb128 0x30
 966 01e4 06       		.uleb128 0x6
 967 01e5 8B040000 		.4byte	.LASF37
 968 01e9 06       		.byte	0x6
 969 01ea BD       		.byte	0xbd
 970 01eb E8000000 		.4byte	0xe8
 971 01ef 02       		.byte	0x2
 972 01f0 23       		.byte	0x23
 973 01f1 38       		.uleb128 0x38
 974 01f2 06       		.uleb128 0x6
 975 01f3 9B030000 		.4byte	.LASF38
 976 01f7 06       		.byte	0x6
 977 01f8 C3       		.byte	0xc3
 978 01f9 F3000000 		.4byte	0xf3
 979 01fd 02       		.byte	0x2
 980 01fe 23       		.byte	0x23
 981 01ff 3C       		.uleb128 0x3c
 982 0200 06       		.uleb128 0x6
 983 0201 62030000 		.4byte	.LASF39
 984 0205 06       		.byte	0x6
 985 0206 CA       		.byte	0xca
 986 0207 45040000 		.4byte	0x445
 987 020b 02       		.byte	0x2
 988 020c 23       		.byte	0x23
 989 020d 40       		.uleb128 0x40
 990 020e 06       		.uleb128 0x6
 991 020f 32040000 		.4byte	.LASF40
ARM GAS  C:\Users\z80\AppData\Local\Temp\ccgjv1a7.s 			page 19


 992 0213 06       		.byte	0x6
 993 0214 CE       		.byte	0xce
 994 0215 DD000000 		.4byte	0xdd
 995 0219 02       		.byte	0x2
 996 021a 23       		.byte	0x23
 997 021b 44       		.uleb128 0x44
 998 021c 00       		.byte	0
 999 021d 08       		.uleb128 0x8
 1000 021e 08       		.byte	0x8
 1001 021f 05       		.byte	0x5
 1002 0220 61       		.byte	0x61
 1003 0221 42020000 		.4byte	0x242
 1004 0225 06       		.uleb128 0x6
 1005 0226 7D030000 		.4byte	.LASF24
 1006 022a 05       		.byte	0x5
 1007 022b 62       		.byte	0x62
 1008 022c 42020000 		.4byte	0x242
 1009 0230 02       		.byte	0x2
 1010 0231 23       		.byte	0x23
 1011 0232 00       		.uleb128 0
 1012 0233 06       		.uleb128 0x6
 1013 0234 09030000 		.4byte	.LASF25
 1014 0238 05       		.byte	0x5
 1015 0239 64       		.byte	0x64
 1016 023a 42020000 		.4byte	0x242
 1017 023e 02       		.byte	0x2
 1018 023f 23       		.byte	0x23
 1019 0240 04       		.uleb128 0x4
 1020 0241 00       		.byte	0
 1021 0242 09       		.uleb128 0x9
 1022 0243 04       		.byte	0x4
 1023 0244 09010000 		.4byte	0x109
 1024 0248 03       		.uleb128 0x3
 1025 0249 A6020000 		.4byte	.LASF41
 1026 024d 05       		.byte	0x5
 1027 024e 66       		.byte	0x66
 1028 024f 1D020000 		.4byte	0x21d
 1029 0253 08       		.uleb128 0x8
 1030 0254 04       		.byte	0x4
 1031 0255 05       		.byte	0x5
 1032 0256 6B       		.byte	0x6b
 1033 0257 6A020000 		.4byte	0x26a
 1034 025b 06       		.uleb128 0x6
 1035 025c 7D030000 		.4byte	.LASF24
 1036 0260 05       		.byte	0x5
 1037 0261 6D       		.byte	0x6d
 1038 0262 42020000 		.4byte	0x242
 1039 0266 02       		.byte	0x2
 1040 0267 23       		.byte	0x23
 1041 0268 00       		.uleb128 0
 1042 0269 00       		.byte	0
 1043 026a 03       		.uleb128 0x3
 1044 026b 22020000 		.4byte	.LASF42
 1045 026f 05       		.byte	0x5
 1046 0270 70       		.byte	0x70
 1047 0271 53020000 		.4byte	0x253
 1048 0275 03       		.uleb128 0x3
ARM GAS  C:\Users\z80\AppData\Local\Temp\ccgjv1a7.s 			page 20


 1049 0276 62010000 		.4byte	.LASF43
 1050 027a 07       		.byte	0x7
 1051 027b D7       		.byte	0xd7
 1052 027c 80020000 		.4byte	0x280
 1053 0280 0A       		.uleb128 0xa
 1054 0281 04       		.byte	0x4
 1055 0282 03       		.uleb128 0x3
 1056 0283 56020000 		.4byte	.LASF44
 1057 0287 07       		.byte	0x7
 1058 0288 DD       		.byte	0xdd
 1059 0289 9F000000 		.4byte	0x9f
 1060 028d 05       		.uleb128 0x5
 1061 028e 5D040000 		.4byte	.LASF45
 1062 0292 24       		.byte	0x24
 1063 0293 07       		.byte	0x7
 1064 0294 FE       		.byte	0xfe
 1065 0295 1A030000 		.4byte	0x31a
 1066 0299 0B       		.uleb128 0xb
 1067 029a 723400   		.ascii	"r4\000"
 1068 029d 07       		.byte	0x7
 1069 029e 1101     		.2byte	0x111
 1070 02a0 75020000 		.4byte	0x275
 1071 02a4 02       		.byte	0x2
 1072 02a5 23       		.byte	0x23
 1073 02a6 00       		.uleb128 0
 1074 02a7 0B       		.uleb128 0xb
 1075 02a8 723500   		.ascii	"r5\000"
 1076 02ab 07       		.byte	0x7
 1077 02ac 1201     		.2byte	0x112
 1078 02ae 75020000 		.4byte	0x275
 1079 02b2 02       		.byte	0x2
 1080 02b3 23       		.byte	0x23
 1081 02b4 04       		.uleb128 0x4
 1082 02b5 0B       		.uleb128 0xb
 1083 02b6 723600   		.ascii	"r6\000"
 1084 02b9 07       		.byte	0x7
 1085 02ba 1301     		.2byte	0x113
 1086 02bc 75020000 		.4byte	0x275
 1087 02c0 02       		.byte	0x2
 1088 02c1 23       		.byte	0x23
 1089 02c2 08       		.uleb128 0x8
 1090 02c3 0B       		.uleb128 0xb
 1091 02c4 723700   		.ascii	"r7\000"
 1092 02c7 07       		.byte	0x7
 1093 02c8 1401     		.2byte	0x114
 1094 02ca 75020000 		.4byte	0x275
 1095 02ce 02       		.byte	0x2
 1096 02cf 23       		.byte	0x23
 1097 02d0 0C       		.uleb128 0xc
 1098 02d1 0B       		.uleb128 0xb
 1099 02d2 723800   		.ascii	"r8\000"
 1100 02d5 07       		.byte	0x7
 1101 02d6 1501     		.2byte	0x115
 1102 02d8 75020000 		.4byte	0x275
 1103 02dc 02       		.byte	0x2
 1104 02dd 23       		.byte	0x23
 1105 02de 10       		.uleb128 0x10
ARM GAS  C:\Users\z80\AppData\Local\Temp\ccgjv1a7.s 			page 21


 1106 02df 0B       		.uleb128 0xb
 1107 02e0 723900   		.ascii	"r9\000"
 1108 02e3 07       		.byte	0x7
 1109 02e4 1601     		.2byte	0x116
 1110 02e6 75020000 		.4byte	0x275
 1111 02ea 02       		.byte	0x2
 1112 02eb 23       		.byte	0x23
 1113 02ec 14       		.uleb128 0x14
 1114 02ed 0B       		.uleb128 0xb
 1115 02ee 72313000 		.ascii	"r10\000"
 1116 02f2 07       		.byte	0x7
 1117 02f3 1701     		.2byte	0x117
 1118 02f5 75020000 		.4byte	0x275
 1119 02f9 02       		.byte	0x2
 1120 02fa 23       		.byte	0x23
 1121 02fb 18       		.uleb128 0x18
 1122 02fc 0B       		.uleb128 0xb
 1123 02fd 72313100 		.ascii	"r11\000"
 1124 0301 07       		.byte	0x7
 1125 0302 1801     		.2byte	0x118
 1126 0304 75020000 		.4byte	0x275
 1127 0308 02       		.byte	0x2
 1128 0309 23       		.byte	0x23
 1129 030a 1C       		.uleb128 0x1c
 1130 030b 0B       		.uleb128 0xb
 1131 030c 6C7200   		.ascii	"lr\000"
 1132 030f 07       		.byte	0x7
 1133 0310 1901     		.2byte	0x119
 1134 0312 75020000 		.4byte	0x275
 1135 0316 02       		.byte	0x2
 1136 0317 23       		.byte	0x23
 1137 0318 20       		.uleb128 0x20
 1138 0319 00       		.byte	0
 1139 031a 0C       		.uleb128 0xc
 1140 031b 55040000 		.4byte	.LASF46
 1141 031f 04       		.byte	0x4
 1142 0320 07       		.byte	0x7
 1143 0321 2301     		.2byte	0x123
 1144 0323 37030000 		.4byte	0x337
 1145 0327 0B       		.uleb128 0xb
 1146 0328 72313300 		.ascii	"r13\000"
 1147 032c 07       		.byte	0x7
 1148 032d 2401     		.2byte	0x124
 1149 032f 37030000 		.4byte	0x337
 1150 0333 02       		.byte	0x2
 1151 0334 23       		.byte	0x23
 1152 0335 00       		.uleb128 0
 1153 0336 00       		.byte	0
 1154 0337 09       		.uleb128 0x9
 1155 0338 04       		.byte	0x4
 1156 0339 8D020000 		.4byte	0x28d
 1157 033d 0D       		.uleb128 0xd
 1158 033e FE000000 		.4byte	0xfe
 1159 0342 05       		.uleb128 0x5
 1160 0343 76020000 		.4byte	.LASF47
 1161 0347 10       		.byte	0x10
 1162 0348 08       		.byte	0x8
ARM GAS  C:\Users\z80\AppData\Local\Temp\ccgjv1a7.s 			page 22


 1163 0349 2C       		.byte	0x2c
 1164 034a 79030000 		.4byte	0x379
 1165 034e 06       		.uleb128 0x6
 1166 034f E9000000 		.4byte	.LASF48
 1167 0353 08       		.byte	0x8
 1168 0354 2D       		.byte	0x2d
 1169 0355 48020000 		.4byte	0x248
 1170 0359 02       		.byte	0x2
 1171 035a 23       		.byte	0x23
 1172 035b 00       		.uleb128 0
 1173 035c 06       		.uleb128 0x6
 1174 035d F5040000 		.4byte	.LASF49
 1175 0361 08       		.byte	0x8
 1176 0362 2F       		.byte	0x2f
 1177 0363 42020000 		.4byte	0x242
 1178 0367 02       		.byte	0x2
 1179 0368 23       		.byte	0x23
 1180 0369 08       		.uleb128 0x8
 1181 036a 06       		.uleb128 0x6
 1182 036b 21040000 		.4byte	.LASF50
 1183 036f 08       		.byte	0x8
 1184 0370 31       		.byte	0x31
 1185 0371 79030000 		.4byte	0x379
 1186 0375 02       		.byte	0x2
 1187 0376 23       		.byte	0x23
 1188 0377 0C       		.uleb128 0xc
 1189 0378 00       		.byte	0
 1190 0379 09       		.uleb128 0x9
 1191 037a 04       		.byte	0x4
 1192 037b 42030000 		.4byte	0x342
 1193 037f 03       		.uleb128 0x3
 1194 0380 76020000 		.4byte	.LASF47
 1195 0384 08       		.byte	0x8
 1196 0385 33       		.byte	0x33
 1197 0386 42030000 		.4byte	0x342
 1198 038a 03       		.uleb128 0x3
 1199 038b B6040000 		.4byte	.LASF51
 1200 038f 09       		.byte	0x9
 1201 0390 29       		.byte	0x29
 1202 0391 95030000 		.4byte	0x395
 1203 0395 05       		.uleb128 0x5
 1204 0396 B6040000 		.4byte	.LASF51
 1205 039a 0C       		.byte	0xc
 1206 039b 09       		.byte	0x9
 1207 039c 2E       		.byte	0x2e
 1208 039d CC030000 		.4byte	0x3cc
 1209 03a1 06       		.uleb128 0x6
 1210 03a2 8C030000 		.4byte	.LASF52
 1211 03a6 09       		.byte	0x9
 1212 03a7 2F       		.byte	0x2f
 1213 03a8 CC030000 		.4byte	0x3cc
 1214 03ac 02       		.byte	0x2
 1215 03ad 23       		.byte	0x23
 1216 03ae 00       		.uleb128 0
 1217 03af 06       		.uleb128 0x6
 1218 03b0 4E030000 		.4byte	.LASF53
 1219 03b4 09       		.byte	0x9
ARM GAS  C:\Users\z80\AppData\Local\Temp\ccgjv1a7.s 			page 23


 1220 03b5 32       		.byte	0x32
 1221 03b6 42020000 		.4byte	0x242
 1222 03ba 02       		.byte	0x2
 1223 03bb 23       		.byte	0x23
 1224 03bc 04       		.uleb128 0x4
 1225 03bd 06       		.uleb128 0x6
 1226 03be 83020000 		.4byte	.LASF54
 1227 03c2 09       		.byte	0x9
 1228 03c3 34       		.byte	0x34
 1229 03c4 F3000000 		.4byte	0xf3
 1230 03c8 02       		.byte	0x2
 1231 03c9 23       		.byte	0x23
 1232 03ca 08       		.uleb128 0x8
 1233 03cb 00       		.byte	0
 1234 03cc 09       		.uleb128 0x9
 1235 03cd 04       		.byte	0x4
 1236 03ce 8A030000 		.4byte	0x38a
 1237 03d2 05       		.uleb128 0x5
 1238 03d3 6B010000 		.4byte	.LASF55
 1239 03d7 04       		.byte	0x4
 1240 03d8 09       		.byte	0x9
 1241 03d9 3C       		.byte	0x3c
 1242 03da ED030000 		.4byte	0x3ed
 1243 03de 06       		.uleb128 0x6
 1244 03df 7A040000 		.4byte	.LASF56
 1245 03e3 09       		.byte	0x9
 1246 03e4 3D       		.byte	0x3d
 1247 03e5 CC030000 		.4byte	0x3cc
 1248 03e9 02       		.byte	0x2
 1249 03ea 23       		.byte	0x23
 1250 03eb 00       		.uleb128 0
 1251 03ec 00       		.byte	0
 1252 03ed 03       		.uleb128 0x3
 1253 03ee 6B010000 		.4byte	.LASF55
 1254 03f2 09       		.byte	0x9
 1255 03f3 40       		.byte	0x40
 1256 03f4 D2030000 		.4byte	0x3d2
 1257 03f8 0E       		.uleb128 0xe
 1258 03f9 04       		.byte	0x4
 1259 03fa 06       		.byte	0x6
 1260 03fb 90       		.byte	0x90
 1261 03fc 2D040000 		.4byte	0x42d
 1262 0400 0F       		.uleb128 0xf
 1263 0401 35000000 		.4byte	.LASF57
 1264 0405 06       		.byte	0x6
 1265 0406 97       		.byte	0x97
 1266 0407 E8000000 		.4byte	0xe8
 1267 040b 0F       		.uleb128 0xf
 1268 040c 82000000 		.4byte	.LASF58
 1269 0410 06       		.byte	0x6
 1270 0411 9E       		.byte	0x9e
 1271 0412 E8000000 		.4byte	0xe8
 1272 0416 0F       		.uleb128 0xf
 1273 0417 C4040000 		.4byte	.LASF59
 1274 041b 06       		.byte	0x6
 1275 041c A5       		.byte	0xa5
 1276 041d 80020000 		.4byte	0x280
ARM GAS  C:\Users\z80\AppData\Local\Temp\ccgjv1a7.s 			page 24


 1277 0421 0F       		.uleb128 0xf
 1278 0422 76030000 		.4byte	.LASF60
 1279 0426 06       		.byte	0x6
 1280 0427 AC       		.byte	0xac
 1281 0428 F3000000 		.4byte	0xf3
 1282 042c 00       		.byte	0
 1283 042d 09       		.uleb128 0x9
 1284 042e 04       		.byte	0x4
 1285 042f 33040000 		.4byte	0x433
 1286 0433 10       		.uleb128 0x10
 1287 0434 38040000 		.4byte	0x438
 1288 0438 04       		.uleb128 0x4
 1289 0439 01       		.byte	0x1
 1290 043a 08       		.byte	0x8
 1291 043b FD030000 		.4byte	.LASF61
 1292 043f 09       		.uleb128 0x9
 1293 0440 04       		.byte	0x4
 1294 0441 82020000 		.4byte	0x282
 1295 0445 09       		.uleb128 0x9
 1296 0446 04       		.byte	0x4
 1297 0447 7F030000 		.4byte	0x37f
 1298 044b 03       		.uleb128 0x3
 1299 044c 49020000 		.4byte	.LASF62
 1300 0450 0A       		.byte	0xa
 1301 0451 37       		.byte	0x37
 1302 0452 56040000 		.4byte	0x456
 1303 0456 05       		.uleb128 0x5
 1304 0457 49020000 		.4byte	.LASF62
 1305 045b 20       		.byte	0x20
 1306 045c 0A       		.byte	0xa
 1307 045d 45       		.byte	0x45
 1308 045e C5040000 		.4byte	0x4c5
 1309 0462 06       		.uleb128 0x6
 1310 0463 B1000000 		.4byte	.LASF63
 1311 0467 0A       		.byte	0xa
 1312 0468 46       		.byte	0x46
 1313 0469 48020000 		.4byte	0x248
 1314 046d 02       		.byte	0x2
 1315 046e 23       		.byte	0x23
 1316 046f 00       		.uleb128 0
 1317 0470 06       		.uleb128 0x6
 1318 0471 6C020000 		.4byte	.LASF64
 1319 0475 0A       		.byte	0xa
 1320 0476 47       		.byte	0x47
 1321 0477 30000000 		.4byte	0x30
 1322 047b 02       		.byte	0x2
 1323 047c 23       		.byte	0x23
 1324 047d 08       		.uleb128 0x8
 1325 047e 06       		.uleb128 0x6
 1326 047f 36010000 		.4byte	.LASF65
 1327 0483 0A       		.byte	0xa
 1328 0484 48       		.byte	0x48
 1329 0485 E8040000 		.4byte	0x4e8
 1330 0489 02       		.byte	0x2
 1331 048a 23       		.byte	0x23
 1332 048b 0C       		.uleb128 0xc
 1333 048c 06       		.uleb128 0x6
ARM GAS  C:\Users\z80\AppData\Local\Temp\ccgjv1a7.s 			page 25


 1334 048d 6D040000 		.4byte	.LASF66
 1335 0491 0A       		.byte	0xa
 1336 0492 49       		.byte	0x49
 1337 0493 E8040000 		.4byte	0x4e8
 1338 0497 02       		.byte	0x2
 1339 0498 23       		.byte	0x23
 1340 0499 10       		.uleb128 0x10
 1341 049a 06       		.uleb128 0x6
 1342 049b 3F010000 		.4byte	.LASF67
 1343 049f 0A       		.byte	0xa
 1344 04a0 4B       		.byte	0x4b
 1345 04a1 E8040000 		.4byte	0x4e8
 1346 04a5 02       		.byte	0x2
 1347 04a6 23       		.byte	0x23
 1348 04a7 14       		.uleb128 0x14
 1349 04a8 06       		.uleb128 0x6
 1350 04a9 22030000 		.4byte	.LASF68
 1351 04ad 0A       		.byte	0xa
 1352 04ae 4C       		.byte	0x4c
 1353 04af E8040000 		.4byte	0x4e8
 1354 04b3 02       		.byte	0x2
 1355 04b4 23       		.byte	0x23
 1356 04b5 18       		.uleb128 0x18
 1357 04b6 06       		.uleb128 0x6
 1358 04b7 82040000 		.4byte	.LASF69
 1359 04bb 0A       		.byte	0xa
 1360 04bc 4D       		.byte	0x4d
 1361 04bd C5040000 		.4byte	0x4c5
 1362 04c1 02       		.byte	0x2
 1363 04c2 23       		.byte	0x23
 1364 04c3 1C       		.uleb128 0x1c
 1365 04c4 00       		.byte	0
 1366 04c5 03       		.uleb128 0x3
 1367 04c6 3F020000 		.4byte	.LASF70
 1368 04ca 0A       		.byte	0xa
 1369 04cb 3A       		.byte	0x3a
 1370 04cc D0040000 		.4byte	0x4d0
 1371 04d0 09       		.uleb128 0x9
 1372 04d1 04       		.byte	0x4
 1373 04d2 D6040000 		.4byte	0x4d6
 1374 04d6 11       		.uleb128 0x11
 1375 04d7 01       		.byte	0x1
 1376 04d8 E2040000 		.4byte	0x4e2
 1377 04dc 12       		.uleb128 0x12
 1378 04dd E2040000 		.4byte	0x4e2
 1379 04e1 00       		.byte	0
 1380 04e2 09       		.uleb128 0x9
 1381 04e3 04       		.byte	0x4
 1382 04e4 4B040000 		.4byte	0x44b
 1383 04e8 09       		.uleb128 0x9
 1384 04e9 04       		.byte	0x4
 1385 04ea 49000000 		.4byte	0x49
 1386 04ee 03       		.uleb128 0x3
 1387 04ef 34020000 		.4byte	.LASF71
 1388 04f3 0A       		.byte	0xa
 1389 04f4 76       		.byte	0x76
 1390 04f5 4B040000 		.4byte	0x44b
ARM GAS  C:\Users\z80\AppData\Local\Temp\ccgjv1a7.s 			page 26


 1391 04f9 03       		.uleb128 0x3
 1392 04fa 45000000 		.4byte	.LASF72
 1393 04fe 0A       		.byte	0xa
 1394 04ff E6       		.byte	0xe6
 1395 0500 4B040000 		.4byte	0x44b
 1396 0504 13       		.uleb128 0x13
 1397 0505 01       		.byte	0x1
 1398 0506 30000000 		.4byte	0x30
 1399 050a 1E050000 		.4byte	0x51e
 1400 050e 12       		.uleb128 0x12
 1401 050f 80020000 		.4byte	0x280
 1402 0513 12       		.uleb128 0x12
 1403 0514 1E050000 		.4byte	0x51e
 1404 0518 12       		.uleb128 0x12
 1405 0519 30000000 		.4byte	0x30
 1406 051d 00       		.byte	0
 1407 051e 09       		.uleb128 0x9
 1408 051f 04       		.byte	0x4
 1409 0520 24050000 		.4byte	0x524
 1410 0524 10       		.uleb128 0x10
 1411 0525 49000000 		.4byte	0x49
 1412 0529 09       		.uleb128 0x9
 1413 052a 04       		.byte	0x4
 1414 052b 04050000 		.4byte	0x504
 1415 052f 13       		.uleb128 0x13
 1416 0530 01       		.byte	0x1
 1417 0531 30000000 		.4byte	0x30
 1418 0535 49050000 		.4byte	0x549
 1419 0539 12       		.uleb128 0x12
 1420 053a 80020000 		.4byte	0x280
 1421 053e 12       		.uleb128 0x12
 1422 053f E8040000 		.4byte	0x4e8
 1423 0543 12       		.uleb128 0x12
 1424 0544 30000000 		.4byte	0x30
 1425 0548 00       		.byte	0
 1426 0549 09       		.uleb128 0x9
 1427 054a 04       		.byte	0x4
 1428 054b 2F050000 		.4byte	0x52f
 1429 054f 13       		.uleb128 0x13
 1430 0550 01       		.byte	0x1
 1431 0551 BC000000 		.4byte	0xbc
 1432 0555 5F050000 		.4byte	0x55f
 1433 0559 12       		.uleb128 0x12
 1434 055a 80020000 		.4byte	0x280
 1435 055e 00       		.byte	0
 1436 055f 09       		.uleb128 0x9
 1437 0560 04       		.byte	0x4
 1438 0561 4F050000 		.4byte	0x54f
 1439 0565 13       		.uleb128 0x13
 1440 0566 01       		.byte	0x1
 1441 0567 E8000000 		.4byte	0xe8
 1442 056b 7F050000 		.4byte	0x57f
 1443 056f 12       		.uleb128 0x12
 1444 0570 80020000 		.4byte	0x280
 1445 0574 12       		.uleb128 0x12
 1446 0575 49000000 		.4byte	0x49
 1447 0579 12       		.uleb128 0x12
ARM GAS  C:\Users\z80\AppData\Local\Temp\ccgjv1a7.s 			page 27


 1448 057a FE000000 		.4byte	0xfe
 1449 057e 00       		.byte	0
 1450 057f 09       		.uleb128 0x9
 1451 0580 04       		.byte	0x4
 1452 0581 65050000 		.4byte	0x565
 1453 0585 13       		.uleb128 0x13
 1454 0586 01       		.byte	0x1
 1455 0587 E8000000 		.4byte	0xe8
 1456 058b 9A050000 		.4byte	0x59a
 1457 058f 12       		.uleb128 0x12
 1458 0590 80020000 		.4byte	0x280
 1459 0594 12       		.uleb128 0x12
 1460 0595 FE000000 		.4byte	0xfe
 1461 0599 00       		.byte	0
 1462 059a 09       		.uleb128 0x9
 1463 059b 04       		.byte	0x4
 1464 059c 85050000 		.4byte	0x585
 1465 05a0 13       		.uleb128 0x13
 1466 05a1 01       		.byte	0x1
 1467 05a2 30000000 		.4byte	0x30
 1468 05a6 BF050000 		.4byte	0x5bf
 1469 05aa 12       		.uleb128 0x12
 1470 05ab 80020000 		.4byte	0x280
 1471 05af 12       		.uleb128 0x12
 1472 05b0 1E050000 		.4byte	0x51e
 1473 05b4 12       		.uleb128 0x12
 1474 05b5 30000000 		.4byte	0x30
 1475 05b9 12       		.uleb128 0x12
 1476 05ba FE000000 		.4byte	0xfe
 1477 05be 00       		.byte	0
 1478 05bf 09       		.uleb128 0x9
 1479 05c0 04       		.byte	0x4
 1480 05c1 A0050000 		.4byte	0x5a0
 1481 05c5 13       		.uleb128 0x13
 1482 05c6 01       		.byte	0x1
 1483 05c7 30000000 		.4byte	0x30
 1484 05cb E4050000 		.4byte	0x5e4
 1485 05cf 12       		.uleb128 0x12
 1486 05d0 80020000 		.4byte	0x280
 1487 05d4 12       		.uleb128 0x12
 1488 05d5 E8040000 		.4byte	0x4e8
 1489 05d9 12       		.uleb128 0x12
 1490 05da 30000000 		.4byte	0x30
 1491 05de 12       		.uleb128 0x12
 1492 05df FE000000 		.4byte	0xfe
 1493 05e3 00       		.byte	0
 1494 05e4 09       		.uleb128 0x9
 1495 05e5 04       		.byte	0x4
 1496 05e6 C5050000 		.4byte	0x5c5
 1497 05ea 14       		.uleb128 0x14
 1498 05eb 9C020000 		.4byte	.LASF73
 1499 05ef 0B       		.byte	0xb
 1500 05f0 0B01     		.2byte	0x10b
 1501 05f2 B1000000 		.4byte	0xb1
 1502 05f6 0C       		.uleb128 0xc
 1503 05f7 77010000 		.4byte	.LASF74
 1504 05fb 24       		.byte	0x24
ARM GAS  C:\Users\z80\AppData\Local\Temp\ccgjv1a7.s 			page 28


 1505 05fc 0B       		.byte	0xb
 1506 05fd 2401     		.2byte	0x124
 1507 05ff 8B060000 		.4byte	0x68b
 1508 0603 15       		.uleb128 0x15
 1509 0604 61020000 		.4byte	.LASF75
 1510 0608 0B       		.byte	0xb
 1511 0609 2501     		.2byte	0x125
 1512 060b 29050000 		.4byte	0x529
 1513 060f 02       		.byte	0x2
 1514 0610 23       		.byte	0x23
 1515 0611 00       		.uleb128 0
 1516 0612 15       		.uleb128 0x15
 1517 0613 F8030000 		.4byte	.LASF76
 1518 0617 0B       		.byte	0xb
 1519 0618 2501     		.2byte	0x125
 1520 061a 49050000 		.4byte	0x549
 1521 061e 02       		.byte	0x2
 1522 061f 23       		.byte	0x23
 1523 0620 04       		.uleb128 0x4
 1524 0621 15       		.uleb128 0x15
 1525 0622 4F010000 		.4byte	.LASF77
 1526 0626 0B       		.byte	0xb
 1527 0627 2501     		.2byte	0x125
 1528 0629 5F050000 		.4byte	0x55f
 1529 062d 02       		.byte	0x2
 1530 062e 23       		.byte	0x23
 1531 062f 08       		.uleb128 0x8
 1532 0630 15       		.uleb128 0x15
 1533 0631 CB040000 		.4byte	.LASF78
 1534 0635 0B       		.byte	0xb
 1535 0636 2501     		.2byte	0x125
 1536 0638 5F050000 		.4byte	0x55f
 1537 063c 02       		.byte	0x2
 1538 063d 23       		.byte	0x23
 1539 063e 0C       		.uleb128 0xc
 1540 063f 0B       		.uleb128 0xb
 1541 0640 70757400 		.ascii	"put\000"
 1542 0644 0B       		.byte	0xb
 1543 0645 2501     		.2byte	0x125
 1544 0647 7F050000 		.4byte	0x57f
 1545 064b 02       		.byte	0x2
 1546 064c 23       		.byte	0x23
 1547 064d 10       		.uleb128 0x10
 1548 064e 0B       		.uleb128 0xb
 1549 064f 67657400 		.ascii	"get\000"
 1550 0653 0B       		.byte	0xb
 1551 0654 2501     		.2byte	0x125
 1552 0656 9A050000 		.4byte	0x59a
 1553 065a 02       		.byte	0x2
 1554 065b 23       		.byte	0x23
 1555 065c 14       		.uleb128 0x14
 1556 065d 15       		.uleb128 0x15
 1557 065e 13020000 		.4byte	.LASF79
 1558 0662 0B       		.byte	0xb
 1559 0663 2501     		.2byte	0x125
 1560 0665 BF050000 		.4byte	0x5bf
 1561 0669 02       		.byte	0x2
ARM GAS  C:\Users\z80\AppData\Local\Temp\ccgjv1a7.s 			page 29


 1562 066a 23       		.byte	0x23
 1563 066b 18       		.uleb128 0x18
 1564 066c 15       		.uleb128 0x15
 1565 066d AB000000 		.4byte	.LASF80
 1566 0671 0B       		.byte	0xb
 1567 0672 2501     		.2byte	0x125
 1568 0674 E4050000 		.4byte	0x5e4
 1569 0678 02       		.byte	0x2
 1570 0679 23       		.byte	0x23
 1571 067a 1C       		.uleb128 0x1c
 1572 067b 15       		.uleb128 0x15
 1573 067c 93020000 		.4byte	.LASF81
 1574 0680 0B       		.byte	0xb
 1575 0681 2501     		.2byte	0x125
 1576 0683 9B060000 		.4byte	0x69b
 1577 0687 02       		.byte	0x2
 1578 0688 23       		.byte	0x23
 1579 0689 20       		.uleb128 0x20
 1580 068a 00       		.byte	0
 1581 068b 13       		.uleb128 0x13
 1582 068c 01       		.byte	0x1
 1583 068d EA050000 		.4byte	0x5ea
 1584 0691 9B060000 		.4byte	0x69b
 1585 0695 12       		.uleb128 0x12
 1586 0696 80020000 		.4byte	0x280
 1587 069a 00       		.byte	0
 1588 069b 09       		.uleb128 0x9
 1589 069c 04       		.byte	0x4
 1590 069d 8B060000 		.4byte	0x68b
 1591 06a1 16       		.uleb128 0x16
 1592 06a2 0C       		.byte	0xc
 1593 06a3 0B       		.byte	0xb
 1594 06a4 2F01     		.2byte	0x12f
 1595 06a6 D8060000 		.4byte	0x6d8
 1596 06aa 0B       		.uleb128 0xb
 1597 06ab 766D7400 		.ascii	"vmt\000"
 1598 06af 0B       		.byte	0xb
 1599 06b0 3101     		.2byte	0x131
 1600 06b2 D8060000 		.4byte	0x6d8
 1601 06b6 02       		.byte	0x2
 1602 06b7 23       		.byte	0x23
 1603 06b8 00       		.uleb128 0
 1604 06b9 15       		.uleb128 0x15
 1605 06ba E6010000 		.4byte	.LASF82
 1606 06be 0B       		.byte	0xb
 1607 06bf 3201     		.2byte	0x132
 1608 06c1 ED030000 		.4byte	0x3ed
 1609 06c5 02       		.byte	0x2
 1610 06c6 23       		.byte	0x23
 1611 06c7 04       		.uleb128 0x4
 1612 06c8 15       		.uleb128 0x15
 1613 06c9 A8040000 		.4byte	.LASF83
 1614 06cd 0B       		.byte	0xb
 1615 06ce 3201     		.2byte	0x132
 1616 06d0 EA050000 		.4byte	0x5ea
 1617 06d4 02       		.byte	0x2
 1618 06d5 23       		.byte	0x23
ARM GAS  C:\Users\z80\AppData\Local\Temp\ccgjv1a7.s 			page 30


 1619 06d6 08       		.uleb128 0x8
 1620 06d7 00       		.byte	0
 1621 06d8 09       		.uleb128 0x9
 1622 06d9 04       		.byte	0x4
 1623 06da DE060000 		.4byte	0x6de
 1624 06de 10       		.uleb128 0x10
 1625 06df F6050000 		.4byte	0x5f6
 1626 06e3 14       		.uleb128 0x14
 1627 06e4 3D040000 		.4byte	.LASF84
 1628 06e8 0B       		.byte	0xb
 1629 06e9 3301     		.2byte	0x133
 1630 06eb A1060000 		.4byte	0x6a1
 1631 06ef 0D       		.uleb128 0xd
 1632 06f0 62000000 		.4byte	0x62
 1633 06f4 0D       		.uleb128 0xd
 1634 06f5 74000000 		.4byte	0x74
 1635 06f9 16       		.uleb128 0x16
 1636 06fa 1C       		.byte	0x1c
 1637 06fb 0C       		.byte	0xc
 1638 06fc E104     		.2byte	0x4e1
 1639 06fe D3070000 		.4byte	0x7d3
 1640 0702 0B       		.uleb128 0xb
 1641 0703 535200   		.ascii	"SR\000"
 1642 0706 0C       		.byte	0xc
 1643 0707 E304     		.2byte	0x4e3
 1644 0709 EF060000 		.4byte	0x6ef
 1645 070d 02       		.byte	0x2
 1646 070e 23       		.byte	0x23
 1647 070f 00       		.uleb128 0
 1648 0710 15       		.uleb128 0x15
 1649 0711 D7020000 		.4byte	.LASF85
 1650 0715 0C       		.byte	0xc
 1651 0716 E404     		.2byte	0x4e4
 1652 0718 62000000 		.4byte	0x62
 1653 071c 02       		.byte	0x2
 1654 071d 23       		.byte	0x23
 1655 071e 02       		.uleb128 0x2
 1656 071f 0B       		.uleb128 0xb
 1657 0720 445200   		.ascii	"DR\000"
 1658 0723 0C       		.byte	0xc
 1659 0724 E504     		.2byte	0x4e5
 1660 0726 EF060000 		.4byte	0x6ef
 1661 072a 02       		.byte	0x2
 1662 072b 23       		.byte	0x23
 1663 072c 04       		.uleb128 0x4
 1664 072d 15       		.uleb128 0x15
 1665 072e E1020000 		.4byte	.LASF86
 1666 0732 0C       		.byte	0xc
 1667 0733 E604     		.2byte	0x4e6
 1668 0735 62000000 		.4byte	0x62
 1669 0739 02       		.byte	0x2
 1670 073a 23       		.byte	0x23
 1671 073b 06       		.uleb128 0x6
 1672 073c 0B       		.uleb128 0xb
 1673 073d 42525200 		.ascii	"BRR\000"
 1674 0741 0C       		.byte	0xc
 1675 0742 E704     		.2byte	0x4e7
ARM GAS  C:\Users\z80\AppData\Local\Temp\ccgjv1a7.s 			page 31


 1676 0744 EF060000 		.4byte	0x6ef
 1677 0748 02       		.byte	0x2
 1678 0749 23       		.byte	0x23
 1679 074a 08       		.uleb128 0x8
 1680 074b 15       		.uleb128 0x15
 1681 074c EB020000 		.4byte	.LASF87
 1682 0750 0C       		.byte	0xc
 1683 0751 E804     		.2byte	0x4e8
 1684 0753 62000000 		.4byte	0x62
 1685 0757 02       		.byte	0x2
 1686 0758 23       		.byte	0x23
 1687 0759 0A       		.uleb128 0xa
 1688 075a 0B       		.uleb128 0xb
 1689 075b 43523100 		.ascii	"CR1\000"
 1690 075f 0C       		.byte	0xc
 1691 0760 E904     		.2byte	0x4e9
 1692 0762 EF060000 		.4byte	0x6ef
 1693 0766 02       		.byte	0x2
 1694 0767 23       		.byte	0x23
 1695 0768 0C       		.uleb128 0xc
 1696 0769 15       		.uleb128 0x15
 1697 076a F5020000 		.4byte	.LASF88
 1698 076e 0C       		.byte	0xc
 1699 076f EA04     		.2byte	0x4ea
 1700 0771 62000000 		.4byte	0x62
 1701 0775 02       		.byte	0x2
 1702 0776 23       		.byte	0x23
 1703 0777 0E       		.uleb128 0xe
 1704 0778 0B       		.uleb128 0xb
 1705 0779 43523200 		.ascii	"CR2\000"
 1706 077d 0C       		.byte	0xc
 1707 077e EB04     		.2byte	0x4eb
 1708 0780 EF060000 		.4byte	0x6ef
 1709 0784 02       		.byte	0x2
 1710 0785 23       		.byte	0x23
 1711 0786 10       		.uleb128 0x10
 1712 0787 15       		.uleb128 0x15
 1713 0788 FF020000 		.4byte	.LASF89
 1714 078c 0C       		.byte	0xc
 1715 078d EC04     		.2byte	0x4ec
 1716 078f 62000000 		.4byte	0x62
 1717 0793 02       		.byte	0x2
 1718 0794 23       		.byte	0x23
 1719 0795 12       		.uleb128 0x12
 1720 0796 0B       		.uleb128 0xb
 1721 0797 43523300 		.ascii	"CR3\000"
 1722 079b 0C       		.byte	0xc
 1723 079c ED04     		.2byte	0x4ed
 1724 079e EF060000 		.4byte	0x6ef
 1725 07a2 02       		.byte	0x2
 1726 07a3 23       		.byte	0x23
 1727 07a4 14       		.uleb128 0x14
 1728 07a5 15       		.uleb128 0x15
 1729 07a6 B0030000 		.4byte	.LASF90
 1730 07aa 0C       		.byte	0xc
 1731 07ab EE04     		.2byte	0x4ee
 1732 07ad 62000000 		.4byte	0x62
ARM GAS  C:\Users\z80\AppData\Local\Temp\ccgjv1a7.s 			page 32


 1733 07b1 02       		.byte	0x2
 1734 07b2 23       		.byte	0x23
 1735 07b3 16       		.uleb128 0x16
 1736 07b4 15       		.uleb128 0x15
 1737 07b5 D5000000 		.4byte	.LASF91
 1738 07b9 0C       		.byte	0xc
 1739 07ba EF04     		.2byte	0x4ef
 1740 07bc EF060000 		.4byte	0x6ef
 1741 07c0 02       		.byte	0x2
 1742 07c1 23       		.byte	0x23
 1743 07c2 18       		.uleb128 0x18
 1744 07c3 15       		.uleb128 0x15
 1745 07c4 10030000 		.4byte	.LASF92
 1746 07c8 0C       		.byte	0xc
 1747 07c9 F004     		.2byte	0x4f0
 1748 07cb 62000000 		.4byte	0x62
 1749 07cf 02       		.byte	0x2
 1750 07d0 23       		.byte	0x23
 1751 07d1 1A       		.uleb128 0x1a
 1752 07d2 00       		.byte	0
 1753 07d3 14       		.uleb128 0x14
 1754 07d4 40030000 		.4byte	.LASF93
 1755 07d8 0C       		.byte	0xc
 1756 07d9 F104     		.2byte	0x4f1
 1757 07db F9060000 		.4byte	0x6f9
 1758 07df 17       		.uleb128 0x17
 1759 07e0 01       		.byte	0x1
 1760 07e1 0D       		.byte	0xd
 1761 07e2 64       		.byte	0x64
 1762 07e3 FA070000 		.4byte	0x7fa
 1763 07e7 18       		.uleb128 0x18
 1764 07e8 A6030000 		.4byte	.LASF94
 1765 07ec 00       		.sleb128 0
 1766 07ed 18       		.uleb128 0x18
 1767 07ee DA000000 		.4byte	.LASF95
 1768 07f2 01       		.sleb128 1
 1769 07f3 18       		.uleb128 0x18
 1770 07f4 64040000 		.4byte	.LASF96
 1771 07f8 02       		.sleb128 2
 1772 07f9 00       		.byte	0
 1773 07fa 03       		.uleb128 0x3
 1774 07fb C3030000 		.4byte	.LASF97
 1775 07ff 0D       		.byte	0xd
 1776 0800 68       		.byte	0x68
 1777 0801 DF070000 		.4byte	0x7df
 1778 0805 03       		.uleb128 0x3
 1779 0806 CD030000 		.4byte	.LASF98
 1780 080a 0D       		.byte	0xd
 1781 080b 6D       		.byte	0x6d
 1782 080c 10080000 		.4byte	0x810
 1783 0810 19       		.uleb128 0x19
 1784 0811 CD030000 		.4byte	.LASF98
 1785 0815 5404     		.2byte	0x454
 1786 0817 0D       		.byte	0xd
 1787 0818 87       		.byte	0x87
 1788 0819 9C080000 		.4byte	0x89c
 1789 081d 07       		.uleb128 0x7
ARM GAS  C:\Users\z80\AppData\Local\Temp\ccgjv1a7.s 			page 33


 1790 081e 766D7400 		.ascii	"vmt\000"
 1791 0822 0D       		.byte	0xd
 1792 0823 89       		.byte	0x89
 1793 0824 73090000 		.4byte	0x973
 1794 0828 02       		.byte	0x2
 1795 0829 23       		.byte	0x23
 1796 082a 00       		.uleb128 0
 1797 082b 06       		.uleb128 0x6
 1798 082c E6010000 		.4byte	.LASF82
 1799 0830 0D       		.byte	0xd
 1800 0831 8A       		.byte	0x8a
 1801 0832 ED030000 		.4byte	0x3ed
 1802 0836 02       		.byte	0x2
 1803 0837 23       		.byte	0x23
 1804 0838 04       		.uleb128 0x4
 1805 0839 06       		.uleb128 0x6
 1806 083a A8040000 		.4byte	.LASF83
 1807 083e 0D       		.byte	0xd
 1808 083f 8A       		.byte	0x8a
 1809 0840 EA050000 		.4byte	0x5ea
 1810 0844 02       		.byte	0x2
 1811 0845 23       		.byte	0x23
 1812 0846 08       		.uleb128 0x8
 1813 0847 06       		.uleb128 0x6
 1814 0848 1E010000 		.4byte	.LASF99
 1815 084c 0D       		.byte	0xd
 1816 084d 8A       		.byte	0x8a
 1817 084e FA070000 		.4byte	0x7fa
 1818 0852 02       		.byte	0x2
 1819 0853 23       		.byte	0x23
 1820 0854 0C       		.uleb128 0xc
 1821 0855 06       		.uleb128 0x6
 1822 0856 C7010000 		.4byte	.LASF100
 1823 085a 0D       		.byte	0xd
 1824 085b 8A       		.byte	0x8a
 1825 085c EE040000 		.4byte	0x4ee
 1826 0860 02       		.byte	0x2
 1827 0861 23       		.byte	0x23
 1828 0862 10       		.uleb128 0x10
 1829 0863 06       		.uleb128 0x6
 1830 0864 05020000 		.4byte	.LASF101
 1831 0868 0D       		.byte	0xd
 1832 0869 8A       		.byte	0x8a
 1833 086a F9040000 		.4byte	0x4f9
 1834 086e 02       		.byte	0x2
 1835 086f 23       		.byte	0x23
 1836 0870 30       		.uleb128 0x30
 1837 0871 07       		.uleb128 0x7
 1838 0872 696200   		.ascii	"ib\000"
 1839 0875 0D       		.byte	0xd
 1840 0876 8A       		.byte	0x8a
 1841 0877 7E090000 		.4byte	0x97e
 1842 087b 02       		.byte	0x2
 1843 087c 23       		.byte	0x23
 1844 087d 50       		.uleb128 0x50
 1845 087e 07       		.uleb128 0x7
 1846 087f 6F6200   		.ascii	"ob\000"
ARM GAS  C:\Users\z80\AppData\Local\Temp\ccgjv1a7.s 			page 34


 1847 0882 0D       		.byte	0xd
 1848 0883 8A       		.byte	0x8a
 1849 0884 7E090000 		.4byte	0x97e
 1850 0888 03       		.byte	0x3
 1851 0889 23       		.byte	0x23
 1852 088a D004     		.uleb128 0x250
 1853 088c 06       		.uleb128 0x6
 1854 088d 2E020000 		.4byte	.LASF102
 1855 0891 0D       		.byte	0xd
 1856 0892 8A       		.byte	0x8a
 1857 0893 8F090000 		.4byte	0x98f
 1858 0897 03       		.byte	0x3
 1859 0898 23       		.byte	0x23
 1860 0899 D008     		.uleb128 0x450
 1861 089b 00       		.byte	0
 1862 089c 08       		.uleb128 0x8
 1863 089d 0C       		.byte	0xc
 1864 089e 0E       		.byte	0xe
 1865 089f C4       		.byte	0xc4
 1866 08a0 DD080000 		.4byte	0x8dd
 1867 08a4 06       		.uleb128 0x6
 1868 08a5 25000000 		.4byte	.LASF103
 1869 08a9 0E       		.byte	0xe
 1870 08aa C8       		.byte	0xc8
 1871 08ab 86000000 		.4byte	0x86
 1872 08af 02       		.byte	0x2
 1873 08b0 23       		.byte	0x23
 1874 08b1 00       		.uleb128 0
 1875 08b2 06       		.uleb128 0x6
 1876 08b3 D9040000 		.4byte	.LASF104
 1877 08b7 0E       		.byte	0xe
 1878 08b8 CC       		.byte	0xcc
 1879 08b9 62000000 		.4byte	0x62
 1880 08bd 02       		.byte	0x2
 1881 08be 23       		.byte	0x23
 1882 08bf 04       		.uleb128 0x4
 1883 08c0 06       		.uleb128 0x6
 1884 08c1 E0040000 		.4byte	.LASF105
 1885 08c5 0E       		.byte	0xe
 1886 08c6 D0       		.byte	0xd0
 1887 08c7 62000000 		.4byte	0x62
 1888 08cb 02       		.byte	0x2
 1889 08cc 23       		.byte	0x23
 1890 08cd 06       		.uleb128 0x6
 1891 08ce 06       		.uleb128 0x6
 1892 08cf E7040000 		.4byte	.LASF106
 1893 08d3 0E       		.byte	0xe
 1894 08d4 D4       		.byte	0xd4
 1895 08d5 62000000 		.4byte	0x62
 1896 08d9 02       		.byte	0x2
 1897 08da 23       		.byte	0x23
 1898 08db 08       		.uleb128 0x8
 1899 08dc 00       		.byte	0
 1900 08dd 03       		.uleb128 0x3
 1901 08de CA020000 		.4byte	.LASF107
 1902 08e2 0E       		.byte	0xe
 1903 08e3 D5       		.byte	0xd5
ARM GAS  C:\Users\z80\AppData\Local\Temp\ccgjv1a7.s 			page 35


 1904 08e4 9C080000 		.4byte	0x89c
 1905 08e8 05       		.uleb128 0x5
 1906 08e9 A8010000 		.4byte	.LASF108
 1907 08ed 24       		.byte	0x24
 1908 08ee 0D       		.byte	0xd
 1909 08ef 7C       		.byte	0x7c
 1910 08f0 73090000 		.4byte	0x973
 1911 08f4 06       		.uleb128 0x6
 1912 08f5 61020000 		.4byte	.LASF75
 1913 08f9 0D       		.byte	0xd
 1914 08fa 7D       		.byte	0x7d
 1915 08fb 29050000 		.4byte	0x529
 1916 08ff 02       		.byte	0x2
 1917 0900 23       		.byte	0x23
 1918 0901 00       		.uleb128 0
 1919 0902 06       		.uleb128 0x6
 1920 0903 F8030000 		.4byte	.LASF76
 1921 0907 0D       		.byte	0xd
 1922 0908 7D       		.byte	0x7d
 1923 0909 49050000 		.4byte	0x549
 1924 090d 02       		.byte	0x2
 1925 090e 23       		.byte	0x23
 1926 090f 04       		.uleb128 0x4
 1927 0910 06       		.uleb128 0x6
 1928 0911 4F010000 		.4byte	.LASF77
 1929 0915 0D       		.byte	0xd
 1930 0916 7D       		.byte	0x7d
 1931 0917 5F050000 		.4byte	0x55f
 1932 091b 02       		.byte	0x2
 1933 091c 23       		.byte	0x23
 1934 091d 08       		.uleb128 0x8
 1935 091e 06       		.uleb128 0x6
 1936 091f CB040000 		.4byte	.LASF78
 1937 0923 0D       		.byte	0xd
 1938 0924 7D       		.byte	0x7d
 1939 0925 5F050000 		.4byte	0x55f
 1940 0929 02       		.byte	0x2
 1941 092a 23       		.byte	0x23
 1942 092b 0C       		.uleb128 0xc
 1943 092c 07       		.uleb128 0x7
 1944 092d 70757400 		.ascii	"put\000"
 1945 0931 0D       		.byte	0xd
 1946 0932 7D       		.byte	0x7d
 1947 0933 7F050000 		.4byte	0x57f
 1948 0937 02       		.byte	0x2
 1949 0938 23       		.byte	0x23
 1950 0939 10       		.uleb128 0x10
 1951 093a 07       		.uleb128 0x7
 1952 093b 67657400 		.ascii	"get\000"
 1953 093f 0D       		.byte	0xd
 1954 0940 7D       		.byte	0x7d
 1955 0941 9A050000 		.4byte	0x59a
 1956 0945 02       		.byte	0x2
 1957 0946 23       		.byte	0x23
 1958 0947 14       		.uleb128 0x14
 1959 0948 06       		.uleb128 0x6
 1960 0949 13020000 		.4byte	.LASF79
ARM GAS  C:\Users\z80\AppData\Local\Temp\ccgjv1a7.s 			page 36


 1961 094d 0D       		.byte	0xd
 1962 094e 7D       		.byte	0x7d
 1963 094f BF050000 		.4byte	0x5bf
 1964 0953 02       		.byte	0x2
 1965 0954 23       		.byte	0x23
 1966 0955 18       		.uleb128 0x18
 1967 0956 06       		.uleb128 0x6
 1968 0957 AB000000 		.4byte	.LASF80
 1969 095b 0D       		.byte	0xd
 1970 095c 7D       		.byte	0x7d
 1971 095d E4050000 		.4byte	0x5e4
 1972 0961 02       		.byte	0x2
 1973 0962 23       		.byte	0x23
 1974 0963 1C       		.uleb128 0x1c
 1975 0964 06       		.uleb128 0x6
 1976 0965 93020000 		.4byte	.LASF81
 1977 0969 0D       		.byte	0xd
 1978 096a 7D       		.byte	0x7d
 1979 096b 9B060000 		.4byte	0x69b
 1980 096f 02       		.byte	0x2
 1981 0970 23       		.byte	0x23
 1982 0971 20       		.uleb128 0x20
 1983 0972 00       		.byte	0
 1984 0973 09       		.uleb128 0x9
 1985 0974 04       		.byte	0x4
 1986 0975 79090000 		.4byte	0x979
 1987 0979 10       		.uleb128 0x10
 1988 097a E8080000 		.4byte	0x8e8
 1989 097e 1A       		.uleb128 0x1a
 1990 097f 49000000 		.4byte	0x49
 1991 0983 8F090000 		.4byte	0x98f
 1992 0987 1B       		.uleb128 0x1b
 1993 0988 3B000000 		.4byte	0x3b
 1994 098c FF01     		.2byte	0x1ff
 1995 098e 00       		.byte	0
 1996 098f 09       		.uleb128 0x9
 1997 0990 04       		.byte	0x4
 1998 0991 D3070000 		.4byte	0x7d3
 1999 0995 1C       		.uleb128 0x1c
 2000 0996 4F010000 		.4byte	.LASF77
 2001 099a 01       		.byte	0x1
 2002 099b 4A       		.byte	0x4a
 2003 099c 01       		.byte	0x1
 2004 099d BC000000 		.4byte	0xbc
 2005 09a1 00000000 		.4byte	.LFB64
 2006 09a5 0C000000 		.4byte	.LFE64
 2007 09a9 02       		.byte	0x2
 2008 09aa 7D       		.byte	0x7d
 2009 09ab 00       		.sleb128 0
 2010 09ac BF090000 		.4byte	0x9bf
 2011 09b0 1D       		.uleb128 0x1d
 2012 09b1 697000   		.ascii	"ip\000"
 2013 09b4 01       		.byte	0x1
 2014 09b5 4A       		.byte	0x4a
 2015 09b6 80020000 		.4byte	0x280
 2016 09ba 00000000 		.4byte	.LLST0
 2017 09be 00       		.byte	0
ARM GAS  C:\Users\z80\AppData\Local\Temp\ccgjv1a7.s 			page 37


 2018 09bf 1C       		.uleb128 0x1c
 2019 09c0 CB040000 		.4byte	.LASF78
 2020 09c4 01       		.byte	0x1
 2021 09c5 4F       		.byte	0x4f
 2022 09c6 01       		.byte	0x1
 2023 09c7 BC000000 		.4byte	0xbc
 2024 09cb 00000000 		.4byte	.LFB65
 2025 09cf 0C000000 		.4byte	.LFE65
 2026 09d3 02       		.byte	0x2
 2027 09d4 7D       		.byte	0x7d
 2028 09d5 00       		.sleb128 0
 2029 09d6 E9090000 		.4byte	0x9e9
 2030 09da 1D       		.uleb128 0x1d
 2031 09db 697000   		.ascii	"ip\000"
 2032 09de 01       		.byte	0x1
 2033 09df 4F       		.byte	0x4f
 2034 09e0 80020000 		.4byte	0x280
 2035 09e4 13000000 		.4byte	.LLST1
 2036 09e8 00       		.byte	0
 2037 09e9 1E       		.uleb128 0x1e
 2038 09ea 93020000 		.4byte	.LASF81
 2039 09ee 01       		.byte	0x1
 2040 09ef 68       		.byte	0x68
 2041 09f0 01       		.byte	0x1
 2042 09f1 EA050000 		.4byte	0x5ea
 2043 09f5 00000000 		.4byte	.LFB70
 2044 09f9 22000000 		.4byte	.LFE70
 2045 09fd 26000000 		.4byte	.LLST2
 2046 0a01 550A0000 		.4byte	0xa55
 2047 0a05 1D       		.uleb128 0x1d
 2048 0a06 697000   		.ascii	"ip\000"
 2049 0a09 01       		.byte	0x1
 2050 0a0a 68       		.byte	0x68
 2051 0a0b 80020000 		.4byte	0x280
 2052 0a0f 46000000 		.4byte	.LLST3
 2053 0a13 1F       		.uleb128 0x1f
 2054 0a14 5D010000 		.4byte	.LASF109
 2055 0a18 01       		.byte	0x1
 2056 0a19 69       		.byte	0x69
 2057 0a1a EA050000 		.4byte	0x5ea
 2058 0a1e 64000000 		.4byte	.LLST4
 2059 0a22 20       		.uleb128 0x20
 2060 0a23 00000000 		.4byte	.Ldebug_ranges0+0
 2061 0a27 3B0A0000 		.4byte	0xa3b
 2062 0a2b 21       		.uleb128 0x21
 2063 0a2c 746D7000 		.ascii	"tmp\000"
 2064 0a30 01       		.byte	0x1
 2065 0a31 69       		.byte	0x69
 2066 0a32 86000000 		.4byte	0x86
 2067 0a36 83000000 		.4byte	.LLST5
 2068 0a3a 00       		.byte	0
 2069 0a3b 22       		.uleb128 0x22
 2070 0a3c 18000000 		.4byte	.LBB4
 2071 0a40 1E000000 		.4byte	.LBE4
 2072 0a44 21       		.uleb128 0x21
 2073 0a45 746D7000 		.ascii	"tmp\000"
 2074 0a49 01       		.byte	0x1
ARM GAS  C:\Users\z80\AppData\Local\Temp\ccgjv1a7.s 			page 38


 2075 0a4a 69       		.byte	0x69
 2076 0a4b 86000000 		.4byte	0x86
 2077 0a4f 96000000 		.4byte	.LLST6
 2078 0a53 00       		.byte	0
 2079 0a54 00       		.byte	0
 2080 0a55 1C       		.uleb128 0x1c
 2081 0a56 AB000000 		.4byte	.LASF80
 2082 0a5a 01       		.byte	0x1
 2083 0a5b 63       		.byte	0x63
 2084 0a5c 01       		.byte	0x1
 2085 0a5d 30000000 		.4byte	0x30
 2086 0a61 00000000 		.4byte	.LFB69
 2087 0a65 06000000 		.4byte	.LFE69
 2088 0a69 02       		.byte	0x2
 2089 0a6a 7D       		.byte	0x7d
 2090 0a6b 00       		.sleb128 0
 2091 0a6c A90A0000 		.4byte	0xaa9
 2092 0a70 1D       		.uleb128 0x1d
 2093 0a71 697000   		.ascii	"ip\000"
 2094 0a74 01       		.byte	0x1
 2095 0a75 63       		.byte	0x63
 2096 0a76 80020000 		.4byte	0x280
 2097 0a7a A9000000 		.4byte	.LLST7
 2098 0a7e 1D       		.uleb128 0x1d
 2099 0a7f 627000   		.ascii	"bp\000"
 2100 0a82 01       		.byte	0x1
 2101 0a83 63       		.byte	0x63
 2102 0a84 E8040000 		.4byte	0x4e8
 2103 0a88 C9000000 		.4byte	.LLST8
 2104 0a8c 1D       		.uleb128 0x1d
 2105 0a8d 6E00     		.ascii	"n\000"
 2106 0a8f 01       		.byte	0x1
 2107 0a90 63       		.byte	0x63
 2108 0a91 30000000 		.4byte	0x30
 2109 0a95 DC000000 		.4byte	.LLST9
 2110 0a99 23       		.uleb128 0x23
 2111 0a9a C5020000 		.4byte	.LASF110
 2112 0a9e 01       		.byte	0x1
 2113 0a9f 63       		.byte	0x63
 2114 0aa0 FE000000 		.4byte	0xfe
 2115 0aa4 EF000000 		.4byte	.LLST10
 2116 0aa8 00       		.byte	0
 2117 0aa9 1C       		.uleb128 0x1c
 2118 0aaa A5000000 		.4byte	.LASF111
 2119 0aae 01       		.byte	0x1
 2120 0aaf 44       		.byte	0x44
 2121 0ab0 01       		.byte	0x1
 2122 0ab1 30000000 		.4byte	0x30
 2123 0ab5 00000000 		.4byte	.LFB63
 2124 0ab9 0A000000 		.4byte	.LFE63
 2125 0abd 02       		.byte	0x2
 2126 0abe 7D       		.byte	0x7d
 2127 0abf 00       		.sleb128 0
 2128 0ac0 EE0A0000 		.4byte	0xaee
 2129 0ac4 1D       		.uleb128 0x1d
 2130 0ac5 697000   		.ascii	"ip\000"
 2131 0ac8 01       		.byte	0x1
ARM GAS  C:\Users\z80\AppData\Local\Temp\ccgjv1a7.s 			page 39


 2132 0ac9 44       		.byte	0x44
 2133 0aca 80020000 		.4byte	0x280
 2134 0ace 02010000 		.4byte	.LLST11
 2135 0ad2 1D       		.uleb128 0x1d
 2136 0ad3 627000   		.ascii	"bp\000"
 2137 0ad6 01       		.byte	0x1
 2138 0ad7 44       		.byte	0x44
 2139 0ad8 E8040000 		.4byte	0x4e8
 2140 0adc 22010000 		.4byte	.LLST12
 2141 0ae0 1D       		.uleb128 0x1d
 2142 0ae1 6E00     		.ascii	"n\000"
 2143 0ae3 01       		.byte	0x1
 2144 0ae4 44       		.byte	0x44
 2145 0ae5 30000000 		.4byte	0x30
 2146 0ae9 35010000 		.4byte	.LLST13
 2147 0aed 00       		.byte	0
 2148 0aee 1C       		.uleb128 0x1c
 2149 0aef 13020000 		.4byte	.LASF79
 2150 0af3 01       		.byte	0x1
 2151 0af4 5E       		.byte	0x5e
 2152 0af5 01       		.byte	0x1
 2153 0af6 30000000 		.4byte	0x30
 2154 0afa 00000000 		.4byte	.LFB68
 2155 0afe 06000000 		.4byte	.LFE68
 2156 0b02 02       		.byte	0x2
 2157 0b03 7D       		.byte	0x7d
 2158 0b04 00       		.sleb128 0
 2159 0b05 420B0000 		.4byte	0xb42
 2160 0b09 1D       		.uleb128 0x1d
 2161 0b0a 697000   		.ascii	"ip\000"
 2162 0b0d 01       		.byte	0x1
 2163 0b0e 5E       		.byte	0x5e
 2164 0b0f 80020000 		.4byte	0x280
 2165 0b13 48010000 		.4byte	.LLST14
 2166 0b17 1D       		.uleb128 0x1d
 2167 0b18 627000   		.ascii	"bp\000"
 2168 0b1b 01       		.byte	0x1
 2169 0b1c 5E       		.byte	0x5e
 2170 0b1d 1E050000 		.4byte	0x51e
 2171 0b21 68010000 		.4byte	.LLST15
 2172 0b25 1D       		.uleb128 0x1d
 2173 0b26 6E00     		.ascii	"n\000"
 2174 0b28 01       		.byte	0x1
 2175 0b29 5E       		.byte	0x5e
 2176 0b2a 30000000 		.4byte	0x30
 2177 0b2e 7B010000 		.4byte	.LLST16
 2178 0b32 23       		.uleb128 0x23
 2179 0b33 C5020000 		.4byte	.LASF110
 2180 0b37 01       		.byte	0x1
 2181 0b38 5E       		.byte	0x5e
 2182 0b39 FE000000 		.4byte	0xfe
 2183 0b3d 8E010000 		.4byte	.LLST17
 2184 0b41 00       		.byte	0
 2185 0b42 1C       		.uleb128 0x1c
 2186 0b43 0C020000 		.4byte	.LASF112
 2187 0b47 01       		.byte	0x1
 2188 0b48 3E       		.byte	0x3e
ARM GAS  C:\Users\z80\AppData\Local\Temp\ccgjv1a7.s 			page 40


 2189 0b49 01       		.byte	0x1
 2190 0b4a 30000000 		.4byte	0x30
 2191 0b4e 00000000 		.4byte	.LFB62
 2192 0b52 0A000000 		.4byte	.LFE62
 2193 0b56 02       		.byte	0x2
 2194 0b57 7D       		.byte	0x7d
 2195 0b58 00       		.sleb128 0
 2196 0b59 870B0000 		.4byte	0xb87
 2197 0b5d 1D       		.uleb128 0x1d
 2198 0b5e 697000   		.ascii	"ip\000"
 2199 0b61 01       		.byte	0x1
 2200 0b62 3E       		.byte	0x3e
 2201 0b63 80020000 		.4byte	0x280
 2202 0b67 A1010000 		.4byte	.LLST18
 2203 0b6b 1D       		.uleb128 0x1d
 2204 0b6c 627000   		.ascii	"bp\000"
 2205 0b6f 01       		.byte	0x1
 2206 0b70 3E       		.byte	0x3e
 2207 0b71 1E050000 		.4byte	0x51e
 2208 0b75 C1010000 		.4byte	.LLST19
 2209 0b79 1D       		.uleb128 0x1d
 2210 0b7a 6E00     		.ascii	"n\000"
 2211 0b7c 01       		.byte	0x1
 2212 0b7d 3E       		.byte	0x3e
 2213 0b7e 30000000 		.4byte	0x30
 2214 0b82 D4010000 		.4byte	.LLST20
 2215 0b86 00       		.byte	0
 2216 0b87 1C       		.uleb128 0x1c
 2217 0b88 E1010000 		.4byte	.LASF113
 2218 0b8c 01       		.byte	0x1
 2219 0b8d 59       		.byte	0x59
 2220 0b8e 01       		.byte	0x1
 2221 0b8f E8000000 		.4byte	0xe8
 2222 0b93 00000000 		.4byte	.LFB67
 2223 0b97 06000000 		.4byte	.LFE67
 2224 0b9b 02       		.byte	0x2
 2225 0b9c 7D       		.byte	0x7d
 2226 0b9d 00       		.sleb128 0
 2227 0b9e C00B0000 		.4byte	0xbc0
 2228 0ba2 1D       		.uleb128 0x1d
 2229 0ba3 697000   		.ascii	"ip\000"
 2230 0ba6 01       		.byte	0x1
 2231 0ba7 59       		.byte	0x59
 2232 0ba8 80020000 		.4byte	0x280
 2233 0bac E7010000 		.4byte	.LLST21
 2234 0bb0 23       		.uleb128 0x23
 2235 0bb1 D9010000 		.4byte	.LASF114
 2236 0bb5 01       		.byte	0x1
 2237 0bb6 59       		.byte	0x59
 2238 0bb7 FE000000 		.4byte	0xfe
 2239 0bbb 07020000 		.4byte	.LLST22
 2240 0bbf 00       		.byte	0
 2241 0bc0 1C       		.uleb128 0x1c
 2242 0bc1 67020000 		.4byte	.LASF115
 2243 0bc5 01       		.byte	0x1
 2244 0bc6 54       		.byte	0x54
 2245 0bc7 01       		.byte	0x1
ARM GAS  C:\Users\z80\AppData\Local\Temp\ccgjv1a7.s 			page 41


 2246 0bc8 E8000000 		.4byte	0xe8
 2247 0bcc 00000000 		.4byte	.LFB66
 2248 0bd0 06000000 		.4byte	.LFE66
 2249 0bd4 02       		.byte	0x2
 2250 0bd5 7D       		.byte	0x7d
 2251 0bd6 00       		.sleb128 0
 2252 0bd7 060C0000 		.4byte	0xc06
 2253 0bdb 1D       		.uleb128 0x1d
 2254 0bdc 697000   		.ascii	"ip\000"
 2255 0bdf 01       		.byte	0x1
 2256 0be0 54       		.byte	0x54
 2257 0be1 80020000 		.4byte	0x280
 2258 0be5 1A020000 		.4byte	.LLST23
 2259 0be9 1D       		.uleb128 0x1d
 2260 0bea 6200     		.ascii	"b\000"
 2261 0bec 01       		.byte	0x1
 2262 0bed 54       		.byte	0x54
 2263 0bee 49000000 		.4byte	0x49
 2264 0bf2 3A020000 		.4byte	.LLST24
 2265 0bf6 23       		.uleb128 0x23
 2266 0bf7 D9010000 		.4byte	.LASF114
 2267 0bfb 01       		.byte	0x1
 2268 0bfc 54       		.byte	0x54
 2269 0bfd FE000000 		.4byte	0xfe
 2270 0c01 4D020000 		.4byte	.LLST25
 2271 0c05 00       		.byte	0
 2272 0c06 24       		.uleb128 0x24
 2273 0c07 01       		.byte	0x1
 2274 0c08 EE040000 		.4byte	.LASF126
 2275 0c0c 01       		.byte	0x1
 2276 0c0d 7D       		.byte	0x7d
 2277 0c0e 01       		.byte	0x1
 2278 0c0f 00000000 		.4byte	.LFB71
 2279 0c13 04000000 		.4byte	.LFE71
 2280 0c17 02       		.byte	0x2
 2281 0c18 7D       		.byte	0x7d
 2282 0c19 00       		.sleb128 0
 2283 0c1a 25       		.uleb128 0x25
 2284 0c1b 01       		.byte	0x1
 2285 0c1c 98000000 		.4byte	.LASF118
 2286 0c20 01       		.byte	0x1
 2287 0c21 91       		.byte	0x91
 2288 0c22 01       		.byte	0x1
 2289 0c23 00000000 		.4byte	.LFB72
 2290 0c27 46000000 		.4byte	.LFE72
 2291 0c2b 60020000 		.4byte	.LLST26
 2292 0c2f 610C0000 		.4byte	0xc61
 2293 0c33 1D       		.uleb128 0x1d
 2294 0c34 73647000 		.ascii	"sdp\000"
 2295 0c38 01       		.byte	0x1
 2296 0c39 91       		.byte	0x91
 2297 0c3a 610C0000 		.4byte	0xc61
 2298 0c3e 80020000 		.4byte	.LLST27
 2299 0c42 23       		.uleb128 0x23
 2300 0c43 BF010000 		.4byte	.LASF116
 2301 0c47 01       		.byte	0x1
 2302 0c48 91       		.byte	0x91
ARM GAS  C:\Users\z80\AppData\Local\Temp\ccgjv1a7.s 			page 42


 2303 0c49 C5040000 		.4byte	0x4c5
 2304 0c4d 9E020000 		.4byte	.LLST28
 2305 0c51 23       		.uleb128 0x23
 2306 0c52 AE040000 		.4byte	.LASF117
 2307 0c56 01       		.byte	0x1
 2308 0c57 91       		.byte	0x91
 2309 0c58 C5040000 		.4byte	0x4c5
 2310 0c5c BC020000 		.4byte	.LLST29
 2311 0c60 00       		.byte	0
 2312 0c61 09       		.uleb128 0x9
 2313 0c62 04       		.byte	0x4
 2314 0c63 05080000 		.4byte	0x805
 2315 0c67 25       		.uleb128 0x25
 2316 0c68 01       		.byte	0x1
 2317 0c69 19040000 		.4byte	.LASF119
 2318 0c6d 01       		.byte	0x1
 2319 0c6e A5       		.byte	0xa5
 2320 0c6f 01       		.byte	0x1
 2321 0c70 00000000 		.4byte	.LFB73
 2322 0c74 4E000000 		.4byte	.LFE73
 2323 0c78 DA020000 		.4byte	.LLST30
 2324 0c7c D50C0000 		.4byte	0xcd5
 2325 0c80 1D       		.uleb128 0x1d
 2326 0c81 73647000 		.ascii	"sdp\000"
 2327 0c85 01       		.byte	0x1
 2328 0c86 A5       		.byte	0xa5
 2329 0c87 610C0000 		.4byte	0xc61
 2330 0c8b FA020000 		.4byte	.LLST31
 2331 0c8f 23       		.uleb128 0x23
 2332 0c90 12040000 		.4byte	.LASF120
 2333 0c94 01       		.byte	0x1
 2334 0c95 A5       		.byte	0xa5
 2335 0c96 D50C0000 		.4byte	0xcd5
 2336 0c9a 18030000 		.4byte	.LLST32
 2337 0c9e 26       		.uleb128 0x26
 2338 0c9f 08000000 		.4byte	.LBB5
 2339 0ca3 0E000000 		.4byte	.LBE5
 2340 0ca7 BB0C0000 		.4byte	0xcbb
 2341 0cab 21       		.uleb128 0x21
 2342 0cac 746D7000 		.ascii	"tmp\000"
 2343 0cb0 01       		.byte	0x1
 2344 0cb1 A9       		.byte	0xa9
 2345 0cb2 86000000 		.4byte	0x86
 2346 0cb6 36030000 		.4byte	.LLST33
 2347 0cba 00       		.byte	0
 2348 0cbb 22       		.uleb128 0x22
 2349 0cbc 38000000 		.4byte	.LBB6
 2350 0cc0 3E000000 		.4byte	.LBE6
 2351 0cc4 21       		.uleb128 0x21
 2352 0cc5 746D7000 		.ascii	"tmp\000"
 2353 0cc9 01       		.byte	0x1
 2354 0cca AF       		.byte	0xaf
 2355 0ccb 86000000 		.4byte	0x86
 2356 0ccf 49030000 		.4byte	.LLST34
 2357 0cd3 00       		.byte	0
 2358 0cd4 00       		.byte	0
 2359 0cd5 09       		.uleb128 0x9
ARM GAS  C:\Users\z80\AppData\Local\Temp\ccgjv1a7.s 			page 43


 2360 0cd6 04       		.byte	0x4
 2361 0cd7 DB0C0000 		.4byte	0xcdb
 2362 0cdb 10       		.uleb128 0x10
 2363 0cdc DD080000 		.4byte	0x8dd
 2364 0ce0 25       		.uleb128 0x25
 2365 0ce1 01       		.byte	0x1
 2366 0ce2 BE020000 		.4byte	.LASF121
 2367 0ce6 01       		.byte	0x1
 2368 0ce7 BB       		.byte	0xbb
 2369 0ce8 01       		.byte	0x1
 2370 0ce9 00000000 		.4byte	.LFB74
 2371 0ced 5E000000 		.4byte	.LFE74
 2372 0cf1 5C030000 		.4byte	.LLST35
 2373 0cf5 3F0D0000 		.4byte	0xd3f
 2374 0cf9 1D       		.uleb128 0x1d
 2375 0cfa 73647000 		.ascii	"sdp\000"
 2376 0cfe 01       		.byte	0x1
 2377 0cff BB       		.byte	0xbb
 2378 0d00 610C0000 		.4byte	0xc61
 2379 0d04 7C030000 		.4byte	.LLST36
 2380 0d08 26       		.uleb128 0x26
 2381 0d09 06000000 		.4byte	.LBB7
 2382 0d0d 0C000000 		.4byte	.LBE7
 2383 0d11 250D0000 		.4byte	0xd25
 2384 0d15 21       		.uleb128 0x21
 2385 0d16 746D7000 		.ascii	"tmp\000"
 2386 0d1a 01       		.byte	0x1
 2387 0d1b BF       		.byte	0xbf
 2388 0d1c 86000000 		.4byte	0x86
 2389 0d20 9A030000 		.4byte	.LLST37
 2390 0d24 00       		.byte	0
 2391 0d25 22       		.uleb128 0x22
 2392 0d26 48000000 		.4byte	.LBB8
 2393 0d2a 4E000000 		.4byte	.LBE8
 2394 0d2e 21       		.uleb128 0x21
 2395 0d2f 746D7000 		.ascii	"tmp\000"
 2396 0d33 01       		.byte	0x1
 2397 0d34 C8       		.byte	0xc8
 2398 0d35 86000000 		.4byte	0x86
 2399 0d39 AD030000 		.4byte	.LLST38
 2400 0d3d 00       		.byte	0
 2401 0d3e 00       		.byte	0
 2402 0d3f 25       		.uleb128 0x25
 2403 0d40 01       		.byte	0x1
 2404 0d41 02040000 		.4byte	.LASF122
 2405 0d45 01       		.byte	0x1
 2406 0d46 DB       		.byte	0xdb
 2407 0d47 01       		.byte	0x1
 2408 0d48 00000000 		.4byte	.LFB75
 2409 0d4c 60000000 		.4byte	.LFE75
 2410 0d50 C0030000 		.4byte	.LLST39
 2411 0d54 750D0000 		.4byte	0xd75
 2412 0d58 1D       		.uleb128 0x1d
 2413 0d59 73647000 		.ascii	"sdp\000"
 2414 0d5d 01       		.byte	0x1
 2415 0d5e DB       		.byte	0xdb
 2416 0d5f 610C0000 		.4byte	0xc61
ARM GAS  C:\Users\z80\AppData\Local\Temp\ccgjv1a7.s 			page 44


 2417 0d63 E0030000 		.4byte	.LLST40
 2418 0d67 1D       		.uleb128 0x1d
 2419 0d68 6200     		.ascii	"b\000"
 2420 0d6a 01       		.byte	0x1
 2421 0d6b DB       		.byte	0xdb
 2422 0d6c 49000000 		.4byte	0x49
 2423 0d70 FE030000 		.4byte	.LLST41
 2424 0d74 00       		.byte	0
 2425 0d75 27       		.uleb128 0x27
 2426 0d76 01       		.byte	0x1
 2427 0d77 91040000 		.4byte	.LASF127
 2428 0d7b 01       		.byte	0x1
 2429 0d7c F5       		.byte	0xf5
 2430 0d7d 01       		.byte	0x1
 2431 0d7e E8000000 		.4byte	0xe8
 2432 0d82 00000000 		.4byte	.LFB76
 2433 0d86 3C000000 		.4byte	.LFE76
 2434 0d8a 11040000 		.4byte	.LLST42
 2435 0d8e AF0D0000 		.4byte	0xdaf
 2436 0d92 1D       		.uleb128 0x1d
 2437 0d93 73647000 		.ascii	"sdp\000"
 2438 0d97 01       		.byte	0x1
 2439 0d98 F5       		.byte	0xf5
 2440 0d99 610C0000 		.4byte	0xc61
 2441 0d9d 31040000 		.4byte	.LLST43
 2442 0da1 21       		.uleb128 0x21
 2443 0da2 6200     		.ascii	"b\000"
 2444 0da4 01       		.byte	0x1
 2445 0da5 F6       		.byte	0xf6
 2446 0da6 E8000000 		.4byte	0xe8
 2447 0daa 4F040000 		.4byte	.LLST44
 2448 0dae 00       		.byte	0
 2449 0daf 28       		.uleb128 0x28
 2450 0db0 766D7400 		.ascii	"vmt\000"
 2451 0db4 01       		.byte	0x1
 2452 0db5 6C       		.byte	0x6c
 2453 0db6 79090000 		.4byte	0x979
 2454 0dba 05       		.byte	0x5
 2455 0dbb 03       		.byte	0x3
 2456 0dbc 00000000 		.4byte	vmt
 2457 0dc0 29       		.uleb128 0x29
 2458 0dc1 8B000000 		.4byte	.LASF128
 2459 0dc5 0F       		.byte	0xf
 2460 0dc6 9404     		.2byte	0x494
 2461 0dc8 F4060000 		.4byte	0x6f4
 2462 0dcc 01       		.byte	0x1
 2463 0dcd 01       		.byte	0x1
 2464 0dce 00       		.byte	0
 2465              		.section	.debug_abbrev,"",%progbits
 2466              	.Ldebug_abbrev0:
 2467 0000 01       		.uleb128 0x1
 2468 0001 11       		.uleb128 0x11
 2469 0002 01       		.byte	0x1
 2470 0003 25       		.uleb128 0x25
 2471 0004 0E       		.uleb128 0xe
 2472 0005 13       		.uleb128 0x13
 2473 0006 0B       		.uleb128 0xb
ARM GAS  C:\Users\z80\AppData\Local\Temp\ccgjv1a7.s 			page 45


 2474 0007 03       		.uleb128 0x3
 2475 0008 0E       		.uleb128 0xe
 2476 0009 1B       		.uleb128 0x1b
 2477 000a 0E       		.uleb128 0xe
 2478 000b 11       		.uleb128 0x11
 2479 000c 01       		.uleb128 0x1
 2480 000d 52       		.uleb128 0x52
 2481 000e 01       		.uleb128 0x1
 2482 000f 55       		.uleb128 0x55
 2483 0010 06       		.uleb128 0x6
 2484 0011 10       		.uleb128 0x10
 2485 0012 06       		.uleb128 0x6
 2486 0013 00       		.byte	0
 2487 0014 00       		.byte	0
 2488 0015 02       		.uleb128 0x2
 2489 0016 24       		.uleb128 0x24
 2490 0017 00       		.byte	0
 2491 0018 0B       		.uleb128 0xb
 2492 0019 0B       		.uleb128 0xb
 2493 001a 3E       		.uleb128 0x3e
 2494 001b 0B       		.uleb128 0xb
 2495 001c 03       		.uleb128 0x3
 2496 001d 08       		.uleb128 0x8
 2497 001e 00       		.byte	0
 2498 001f 00       		.byte	0
 2499 0020 03       		.uleb128 0x3
 2500 0021 16       		.uleb128 0x16
 2501 0022 00       		.byte	0
 2502 0023 03       		.uleb128 0x3
 2503 0024 0E       		.uleb128 0xe
 2504 0025 3A       		.uleb128 0x3a
 2505 0026 0B       		.uleb128 0xb
 2506 0027 3B       		.uleb128 0x3b
 2507 0028 0B       		.uleb128 0xb
 2508 0029 49       		.uleb128 0x49
 2509 002a 13       		.uleb128 0x13
 2510 002b 00       		.byte	0
 2511 002c 00       		.byte	0
 2512 002d 04       		.uleb128 0x4
 2513 002e 24       		.uleb128 0x24
 2514 002f 00       		.byte	0
 2515 0030 0B       		.uleb128 0xb
 2516 0031 0B       		.uleb128 0xb
 2517 0032 3E       		.uleb128 0x3e
 2518 0033 0B       		.uleb128 0xb
 2519 0034 03       		.uleb128 0x3
 2520 0035 0E       		.uleb128 0xe
 2521 0036 00       		.byte	0
 2522 0037 00       		.byte	0
 2523 0038 05       		.uleb128 0x5
 2524 0039 13       		.uleb128 0x13
 2525 003a 01       		.byte	0x1
 2526 003b 03       		.uleb128 0x3
 2527 003c 0E       		.uleb128 0xe
 2528 003d 0B       		.uleb128 0xb
 2529 003e 0B       		.uleb128 0xb
 2530 003f 3A       		.uleb128 0x3a
ARM GAS  C:\Users\z80\AppData\Local\Temp\ccgjv1a7.s 			page 46


 2531 0040 0B       		.uleb128 0xb
 2532 0041 3B       		.uleb128 0x3b
 2533 0042 0B       		.uleb128 0xb
 2534 0043 01       		.uleb128 0x1
 2535 0044 13       		.uleb128 0x13
 2536 0045 00       		.byte	0
 2537 0046 00       		.byte	0
 2538 0047 06       		.uleb128 0x6
 2539 0048 0D       		.uleb128 0xd
 2540 0049 00       		.byte	0
 2541 004a 03       		.uleb128 0x3
 2542 004b 0E       		.uleb128 0xe
 2543 004c 3A       		.uleb128 0x3a
 2544 004d 0B       		.uleb128 0xb
 2545 004e 3B       		.uleb128 0x3b
 2546 004f 0B       		.uleb128 0xb
 2547 0050 49       		.uleb128 0x49
 2548 0051 13       		.uleb128 0x13
 2549 0052 38       		.uleb128 0x38
 2550 0053 0A       		.uleb128 0xa
 2551 0054 00       		.byte	0
 2552 0055 00       		.byte	0
 2553 0056 07       		.uleb128 0x7
 2554 0057 0D       		.uleb128 0xd
 2555 0058 00       		.byte	0
 2556 0059 03       		.uleb128 0x3
 2557 005a 08       		.uleb128 0x8
 2558 005b 3A       		.uleb128 0x3a
 2559 005c 0B       		.uleb128 0xb
 2560 005d 3B       		.uleb128 0x3b
 2561 005e 0B       		.uleb128 0xb
 2562 005f 49       		.uleb128 0x49
 2563 0060 13       		.uleb128 0x13
 2564 0061 38       		.uleb128 0x38
 2565 0062 0A       		.uleb128 0xa
 2566 0063 00       		.byte	0
 2567 0064 00       		.byte	0
 2568 0065 08       		.uleb128 0x8
 2569 0066 13       		.uleb128 0x13
 2570 0067 01       		.byte	0x1
 2571 0068 0B       		.uleb128 0xb
 2572 0069 0B       		.uleb128 0xb
 2573 006a 3A       		.uleb128 0x3a
 2574 006b 0B       		.uleb128 0xb
 2575 006c 3B       		.uleb128 0x3b
 2576 006d 0B       		.uleb128 0xb
 2577 006e 01       		.uleb128 0x1
 2578 006f 13       		.uleb128 0x13
 2579 0070 00       		.byte	0
 2580 0071 00       		.byte	0
 2581 0072 09       		.uleb128 0x9
 2582 0073 0F       		.uleb128 0xf
 2583 0074 00       		.byte	0
 2584 0075 0B       		.uleb128 0xb
 2585 0076 0B       		.uleb128 0xb
 2586 0077 49       		.uleb128 0x49
 2587 0078 13       		.uleb128 0x13
ARM GAS  C:\Users\z80\AppData\Local\Temp\ccgjv1a7.s 			page 47


 2588 0079 00       		.byte	0
 2589 007a 00       		.byte	0
 2590 007b 0A       		.uleb128 0xa
 2591 007c 0F       		.uleb128 0xf
 2592 007d 00       		.byte	0
 2593 007e 0B       		.uleb128 0xb
 2594 007f 0B       		.uleb128 0xb
 2595 0080 00       		.byte	0
 2596 0081 00       		.byte	0
 2597 0082 0B       		.uleb128 0xb
 2598 0083 0D       		.uleb128 0xd
 2599 0084 00       		.byte	0
 2600 0085 03       		.uleb128 0x3
 2601 0086 08       		.uleb128 0x8
 2602 0087 3A       		.uleb128 0x3a
 2603 0088 0B       		.uleb128 0xb
 2604 0089 3B       		.uleb128 0x3b
 2605 008a 05       		.uleb128 0x5
 2606 008b 49       		.uleb128 0x49
 2607 008c 13       		.uleb128 0x13
 2608 008d 38       		.uleb128 0x38
 2609 008e 0A       		.uleb128 0xa
 2610 008f 00       		.byte	0
 2611 0090 00       		.byte	0
 2612 0091 0C       		.uleb128 0xc
 2613 0092 13       		.uleb128 0x13
 2614 0093 01       		.byte	0x1
 2615 0094 03       		.uleb128 0x3
 2616 0095 0E       		.uleb128 0xe
 2617 0096 0B       		.uleb128 0xb
 2618 0097 0B       		.uleb128 0xb
 2619 0098 3A       		.uleb128 0x3a
 2620 0099 0B       		.uleb128 0xb
 2621 009a 3B       		.uleb128 0x3b
 2622 009b 05       		.uleb128 0x5
 2623 009c 01       		.uleb128 0x1
 2624 009d 13       		.uleb128 0x13
 2625 009e 00       		.byte	0
 2626 009f 00       		.byte	0
 2627 00a0 0D       		.uleb128 0xd
 2628 00a1 35       		.uleb128 0x35
 2629 00a2 00       		.byte	0
 2630 00a3 49       		.uleb128 0x49
 2631 00a4 13       		.uleb128 0x13
 2632 00a5 00       		.byte	0
 2633 00a6 00       		.byte	0
 2634 00a7 0E       		.uleb128 0xe
 2635 00a8 17       		.uleb128 0x17
 2636 00a9 01       		.byte	0x1
 2637 00aa 0B       		.uleb128 0xb
 2638 00ab 0B       		.uleb128 0xb
 2639 00ac 3A       		.uleb128 0x3a
 2640 00ad 0B       		.uleb128 0xb
 2641 00ae 3B       		.uleb128 0x3b
 2642 00af 0B       		.uleb128 0xb
 2643 00b0 01       		.uleb128 0x1
 2644 00b1 13       		.uleb128 0x13
ARM GAS  C:\Users\z80\AppData\Local\Temp\ccgjv1a7.s 			page 48


 2645 00b2 00       		.byte	0
 2646 00b3 00       		.byte	0
 2647 00b4 0F       		.uleb128 0xf
 2648 00b5 0D       		.uleb128 0xd
 2649 00b6 00       		.byte	0
 2650 00b7 03       		.uleb128 0x3
 2651 00b8 0E       		.uleb128 0xe
 2652 00b9 3A       		.uleb128 0x3a
 2653 00ba 0B       		.uleb128 0xb
 2654 00bb 3B       		.uleb128 0x3b
 2655 00bc 0B       		.uleb128 0xb
 2656 00bd 49       		.uleb128 0x49
 2657 00be 13       		.uleb128 0x13
 2658 00bf 00       		.byte	0
 2659 00c0 00       		.byte	0
 2660 00c1 10       		.uleb128 0x10
 2661 00c2 26       		.uleb128 0x26
 2662 00c3 00       		.byte	0
 2663 00c4 49       		.uleb128 0x49
 2664 00c5 13       		.uleb128 0x13
 2665 00c6 00       		.byte	0
 2666 00c7 00       		.byte	0
 2667 00c8 11       		.uleb128 0x11
 2668 00c9 15       		.uleb128 0x15
 2669 00ca 01       		.byte	0x1
 2670 00cb 27       		.uleb128 0x27
 2671 00cc 0C       		.uleb128 0xc
 2672 00cd 01       		.uleb128 0x1
 2673 00ce 13       		.uleb128 0x13
 2674 00cf 00       		.byte	0
 2675 00d0 00       		.byte	0
 2676 00d1 12       		.uleb128 0x12
 2677 00d2 05       		.uleb128 0x5
 2678 00d3 00       		.byte	0
 2679 00d4 49       		.uleb128 0x49
 2680 00d5 13       		.uleb128 0x13
 2681 00d6 00       		.byte	0
 2682 00d7 00       		.byte	0
 2683 00d8 13       		.uleb128 0x13
 2684 00d9 15       		.uleb128 0x15
 2685 00da 01       		.byte	0x1
 2686 00db 27       		.uleb128 0x27
 2687 00dc 0C       		.uleb128 0xc
 2688 00dd 49       		.uleb128 0x49
 2689 00de 13       		.uleb128 0x13
 2690 00df 01       		.uleb128 0x1
 2691 00e0 13       		.uleb128 0x13
 2692 00e1 00       		.byte	0
 2693 00e2 00       		.byte	0
 2694 00e3 14       		.uleb128 0x14
 2695 00e4 16       		.uleb128 0x16
 2696 00e5 00       		.byte	0
 2697 00e6 03       		.uleb128 0x3
 2698 00e7 0E       		.uleb128 0xe
 2699 00e8 3A       		.uleb128 0x3a
 2700 00e9 0B       		.uleb128 0xb
 2701 00ea 3B       		.uleb128 0x3b
ARM GAS  C:\Users\z80\AppData\Local\Temp\ccgjv1a7.s 			page 49


 2702 00eb 05       		.uleb128 0x5
 2703 00ec 49       		.uleb128 0x49
 2704 00ed 13       		.uleb128 0x13
 2705 00ee 00       		.byte	0
 2706 00ef 00       		.byte	0
 2707 00f0 15       		.uleb128 0x15
 2708 00f1 0D       		.uleb128 0xd
 2709 00f2 00       		.byte	0
 2710 00f3 03       		.uleb128 0x3
 2711 00f4 0E       		.uleb128 0xe
 2712 00f5 3A       		.uleb128 0x3a
 2713 00f6 0B       		.uleb128 0xb
 2714 00f7 3B       		.uleb128 0x3b
 2715 00f8 05       		.uleb128 0x5
 2716 00f9 49       		.uleb128 0x49
 2717 00fa 13       		.uleb128 0x13
 2718 00fb 38       		.uleb128 0x38
 2719 00fc 0A       		.uleb128 0xa
 2720 00fd 00       		.byte	0
 2721 00fe 00       		.byte	0
 2722 00ff 16       		.uleb128 0x16
 2723 0100 13       		.uleb128 0x13
 2724 0101 01       		.byte	0x1
 2725 0102 0B       		.uleb128 0xb
 2726 0103 0B       		.uleb128 0xb
 2727 0104 3A       		.uleb128 0x3a
 2728 0105 0B       		.uleb128 0xb
 2729 0106 3B       		.uleb128 0x3b
 2730 0107 05       		.uleb128 0x5
 2731 0108 01       		.uleb128 0x1
 2732 0109 13       		.uleb128 0x13
 2733 010a 00       		.byte	0
 2734 010b 00       		.byte	0
 2735 010c 17       		.uleb128 0x17
 2736 010d 04       		.uleb128 0x4
 2737 010e 01       		.byte	0x1
 2738 010f 0B       		.uleb128 0xb
 2739 0110 0B       		.uleb128 0xb
 2740 0111 3A       		.uleb128 0x3a
 2741 0112 0B       		.uleb128 0xb
 2742 0113 3B       		.uleb128 0x3b
 2743 0114 0B       		.uleb128 0xb
 2744 0115 01       		.uleb128 0x1
 2745 0116 13       		.uleb128 0x13
 2746 0117 00       		.byte	0
 2747 0118 00       		.byte	0
 2748 0119 18       		.uleb128 0x18
 2749 011a 28       		.uleb128 0x28
 2750 011b 00       		.byte	0
 2751 011c 03       		.uleb128 0x3
 2752 011d 0E       		.uleb128 0xe
 2753 011e 1C       		.uleb128 0x1c
 2754 011f 0D       		.uleb128 0xd
 2755 0120 00       		.byte	0
 2756 0121 00       		.byte	0
 2757 0122 19       		.uleb128 0x19
 2758 0123 13       		.uleb128 0x13
ARM GAS  C:\Users\z80\AppData\Local\Temp\ccgjv1a7.s 			page 50


 2759 0124 01       		.byte	0x1
 2760 0125 03       		.uleb128 0x3
 2761 0126 0E       		.uleb128 0xe
 2762 0127 0B       		.uleb128 0xb
 2763 0128 05       		.uleb128 0x5
 2764 0129 3A       		.uleb128 0x3a
 2765 012a 0B       		.uleb128 0xb
 2766 012b 3B       		.uleb128 0x3b
 2767 012c 0B       		.uleb128 0xb
 2768 012d 01       		.uleb128 0x1
 2769 012e 13       		.uleb128 0x13
 2770 012f 00       		.byte	0
 2771 0130 00       		.byte	0
 2772 0131 1A       		.uleb128 0x1a
 2773 0132 01       		.uleb128 0x1
 2774 0133 01       		.byte	0x1
 2775 0134 49       		.uleb128 0x49
 2776 0135 13       		.uleb128 0x13
 2777 0136 01       		.uleb128 0x1
 2778 0137 13       		.uleb128 0x13
 2779 0138 00       		.byte	0
 2780 0139 00       		.byte	0
 2781 013a 1B       		.uleb128 0x1b
 2782 013b 21       		.uleb128 0x21
 2783 013c 00       		.byte	0
 2784 013d 49       		.uleb128 0x49
 2785 013e 13       		.uleb128 0x13
 2786 013f 2F       		.uleb128 0x2f
 2787 0140 05       		.uleb128 0x5
 2788 0141 00       		.byte	0
 2789 0142 00       		.byte	0
 2790 0143 1C       		.uleb128 0x1c
 2791 0144 2E       		.uleb128 0x2e
 2792 0145 01       		.byte	0x1
 2793 0146 03       		.uleb128 0x3
 2794 0147 0E       		.uleb128 0xe
 2795 0148 3A       		.uleb128 0x3a
 2796 0149 0B       		.uleb128 0xb
 2797 014a 3B       		.uleb128 0x3b
 2798 014b 0B       		.uleb128 0xb
 2799 014c 27       		.uleb128 0x27
 2800 014d 0C       		.uleb128 0xc
 2801 014e 49       		.uleb128 0x49
 2802 014f 13       		.uleb128 0x13
 2803 0150 11       		.uleb128 0x11
 2804 0151 01       		.uleb128 0x1
 2805 0152 12       		.uleb128 0x12
 2806 0153 01       		.uleb128 0x1
 2807 0154 40       		.uleb128 0x40
 2808 0155 0A       		.uleb128 0xa
 2809 0156 01       		.uleb128 0x1
 2810 0157 13       		.uleb128 0x13
 2811 0158 00       		.byte	0
 2812 0159 00       		.byte	0
 2813 015a 1D       		.uleb128 0x1d
 2814 015b 05       		.uleb128 0x5
 2815 015c 00       		.byte	0
ARM GAS  C:\Users\z80\AppData\Local\Temp\ccgjv1a7.s 			page 51


 2816 015d 03       		.uleb128 0x3
 2817 015e 08       		.uleb128 0x8
 2818 015f 3A       		.uleb128 0x3a
 2819 0160 0B       		.uleb128 0xb
 2820 0161 3B       		.uleb128 0x3b
 2821 0162 0B       		.uleb128 0xb
 2822 0163 49       		.uleb128 0x49
 2823 0164 13       		.uleb128 0x13
 2824 0165 02       		.uleb128 0x2
 2825 0166 06       		.uleb128 0x6
 2826 0167 00       		.byte	0
 2827 0168 00       		.byte	0
 2828 0169 1E       		.uleb128 0x1e
 2829 016a 2E       		.uleb128 0x2e
 2830 016b 01       		.byte	0x1
 2831 016c 03       		.uleb128 0x3
 2832 016d 0E       		.uleb128 0xe
 2833 016e 3A       		.uleb128 0x3a
 2834 016f 0B       		.uleb128 0xb
 2835 0170 3B       		.uleb128 0x3b
 2836 0171 0B       		.uleb128 0xb
 2837 0172 27       		.uleb128 0x27
 2838 0173 0C       		.uleb128 0xc
 2839 0174 49       		.uleb128 0x49
 2840 0175 13       		.uleb128 0x13
 2841 0176 11       		.uleb128 0x11
 2842 0177 01       		.uleb128 0x1
 2843 0178 12       		.uleb128 0x12
 2844 0179 01       		.uleb128 0x1
 2845 017a 40       		.uleb128 0x40
 2846 017b 06       		.uleb128 0x6
 2847 017c 01       		.uleb128 0x1
 2848 017d 13       		.uleb128 0x13
 2849 017e 00       		.byte	0
 2850 017f 00       		.byte	0
 2851 0180 1F       		.uleb128 0x1f
 2852 0181 34       		.uleb128 0x34
 2853 0182 00       		.byte	0
 2854 0183 03       		.uleb128 0x3
 2855 0184 0E       		.uleb128 0xe
 2856 0185 3A       		.uleb128 0x3a
 2857 0186 0B       		.uleb128 0xb
 2858 0187 3B       		.uleb128 0x3b
 2859 0188 0B       		.uleb128 0xb
 2860 0189 49       		.uleb128 0x49
 2861 018a 13       		.uleb128 0x13
 2862 018b 02       		.uleb128 0x2
 2863 018c 06       		.uleb128 0x6
 2864 018d 00       		.byte	0
 2865 018e 00       		.byte	0
 2866 018f 20       		.uleb128 0x20
 2867 0190 0B       		.uleb128 0xb
 2868 0191 01       		.byte	0x1
 2869 0192 55       		.uleb128 0x55
 2870 0193 06       		.uleb128 0x6
 2871 0194 01       		.uleb128 0x1
 2872 0195 13       		.uleb128 0x13
ARM GAS  C:\Users\z80\AppData\Local\Temp\ccgjv1a7.s 			page 52


 2873 0196 00       		.byte	0
 2874 0197 00       		.byte	0
 2875 0198 21       		.uleb128 0x21
 2876 0199 34       		.uleb128 0x34
 2877 019a 00       		.byte	0
 2878 019b 03       		.uleb128 0x3
 2879 019c 08       		.uleb128 0x8
 2880 019d 3A       		.uleb128 0x3a
 2881 019e 0B       		.uleb128 0xb
 2882 019f 3B       		.uleb128 0x3b
 2883 01a0 0B       		.uleb128 0xb
 2884 01a1 49       		.uleb128 0x49
 2885 01a2 13       		.uleb128 0x13
 2886 01a3 02       		.uleb128 0x2
 2887 01a4 06       		.uleb128 0x6
 2888 01a5 00       		.byte	0
 2889 01a6 00       		.byte	0
 2890 01a7 22       		.uleb128 0x22
 2891 01a8 0B       		.uleb128 0xb
 2892 01a9 01       		.byte	0x1
 2893 01aa 11       		.uleb128 0x11
 2894 01ab 01       		.uleb128 0x1
 2895 01ac 12       		.uleb128 0x12
 2896 01ad 01       		.uleb128 0x1
 2897 01ae 00       		.byte	0
 2898 01af 00       		.byte	0
 2899 01b0 23       		.uleb128 0x23
 2900 01b1 05       		.uleb128 0x5
 2901 01b2 00       		.byte	0
 2902 01b3 03       		.uleb128 0x3
 2903 01b4 0E       		.uleb128 0xe
 2904 01b5 3A       		.uleb128 0x3a
 2905 01b6 0B       		.uleb128 0xb
 2906 01b7 3B       		.uleb128 0x3b
 2907 01b8 0B       		.uleb128 0xb
 2908 01b9 49       		.uleb128 0x49
 2909 01ba 13       		.uleb128 0x13
 2910 01bb 02       		.uleb128 0x2
 2911 01bc 06       		.uleb128 0x6
 2912 01bd 00       		.byte	0
 2913 01be 00       		.byte	0
 2914 01bf 24       		.uleb128 0x24
 2915 01c0 2E       		.uleb128 0x2e
 2916 01c1 00       		.byte	0
 2917 01c2 3F       		.uleb128 0x3f
 2918 01c3 0C       		.uleb128 0xc
 2919 01c4 03       		.uleb128 0x3
 2920 01c5 0E       		.uleb128 0xe
 2921 01c6 3A       		.uleb128 0x3a
 2922 01c7 0B       		.uleb128 0xb
 2923 01c8 3B       		.uleb128 0x3b
 2924 01c9 0B       		.uleb128 0xb
 2925 01ca 27       		.uleb128 0x27
 2926 01cb 0C       		.uleb128 0xc
 2927 01cc 11       		.uleb128 0x11
 2928 01cd 01       		.uleb128 0x1
 2929 01ce 12       		.uleb128 0x12
ARM GAS  C:\Users\z80\AppData\Local\Temp\ccgjv1a7.s 			page 53


 2930 01cf 01       		.uleb128 0x1
 2931 01d0 40       		.uleb128 0x40
 2932 01d1 0A       		.uleb128 0xa
 2933 01d2 00       		.byte	0
 2934 01d3 00       		.byte	0
 2935 01d4 25       		.uleb128 0x25
 2936 01d5 2E       		.uleb128 0x2e
 2937 01d6 01       		.byte	0x1
 2938 01d7 3F       		.uleb128 0x3f
 2939 01d8 0C       		.uleb128 0xc
 2940 01d9 03       		.uleb128 0x3
 2941 01da 0E       		.uleb128 0xe
 2942 01db 3A       		.uleb128 0x3a
 2943 01dc 0B       		.uleb128 0xb
 2944 01dd 3B       		.uleb128 0x3b
 2945 01de 0B       		.uleb128 0xb
 2946 01df 27       		.uleb128 0x27
 2947 01e0 0C       		.uleb128 0xc
 2948 01e1 11       		.uleb128 0x11
 2949 01e2 01       		.uleb128 0x1
 2950 01e3 12       		.uleb128 0x12
 2951 01e4 01       		.uleb128 0x1
 2952 01e5 40       		.uleb128 0x40
 2953 01e6 06       		.uleb128 0x6
 2954 01e7 01       		.uleb128 0x1
 2955 01e8 13       		.uleb128 0x13
 2956 01e9 00       		.byte	0
 2957 01ea 00       		.byte	0
 2958 01eb 26       		.uleb128 0x26
 2959 01ec 0B       		.uleb128 0xb
 2960 01ed 01       		.byte	0x1
 2961 01ee 11       		.uleb128 0x11
 2962 01ef 01       		.uleb128 0x1
 2963 01f0 12       		.uleb128 0x12
 2964 01f1 01       		.uleb128 0x1
 2965 01f2 01       		.uleb128 0x1
 2966 01f3 13       		.uleb128 0x13
 2967 01f4 00       		.byte	0
 2968 01f5 00       		.byte	0
 2969 01f6 27       		.uleb128 0x27
 2970 01f7 2E       		.uleb128 0x2e
 2971 01f8 01       		.byte	0x1
 2972 01f9 3F       		.uleb128 0x3f
 2973 01fa 0C       		.uleb128 0xc
 2974 01fb 03       		.uleb128 0x3
 2975 01fc 0E       		.uleb128 0xe
 2976 01fd 3A       		.uleb128 0x3a
 2977 01fe 0B       		.uleb128 0xb
 2978 01ff 3B       		.uleb128 0x3b
 2979 0200 0B       		.uleb128 0xb
 2980 0201 27       		.uleb128 0x27
 2981 0202 0C       		.uleb128 0xc
 2982 0203 49       		.uleb128 0x49
 2983 0204 13       		.uleb128 0x13
 2984 0205 11       		.uleb128 0x11
 2985 0206 01       		.uleb128 0x1
 2986 0207 12       		.uleb128 0x12
ARM GAS  C:\Users\z80\AppData\Local\Temp\ccgjv1a7.s 			page 54


 2987 0208 01       		.uleb128 0x1
 2988 0209 40       		.uleb128 0x40
 2989 020a 06       		.uleb128 0x6
 2990 020b 01       		.uleb128 0x1
 2991 020c 13       		.uleb128 0x13
 2992 020d 00       		.byte	0
 2993 020e 00       		.byte	0
 2994 020f 28       		.uleb128 0x28
 2995 0210 34       		.uleb128 0x34
 2996 0211 00       		.byte	0
 2997 0212 03       		.uleb128 0x3
 2998 0213 08       		.uleb128 0x8
 2999 0214 3A       		.uleb128 0x3a
 3000 0215 0B       		.uleb128 0xb
 3001 0216 3B       		.uleb128 0x3b
 3002 0217 0B       		.uleb128 0xb
 3003 0218 49       		.uleb128 0x49
 3004 0219 13       		.uleb128 0x13
 3005 021a 02       		.uleb128 0x2
 3006 021b 0A       		.uleb128 0xa
 3007 021c 00       		.byte	0
 3008 021d 00       		.byte	0
 3009 021e 29       		.uleb128 0x29
 3010 021f 34       		.uleb128 0x34
 3011 0220 00       		.byte	0
 3012 0221 03       		.uleb128 0x3
 3013 0222 0E       		.uleb128 0xe
 3014 0223 3A       		.uleb128 0x3a
 3015 0224 0B       		.uleb128 0xb
 3016 0225 3B       		.uleb128 0x3b
 3017 0226 05       		.uleb128 0x5
 3018 0227 49       		.uleb128 0x49
 3019 0228 13       		.uleb128 0x13
 3020 0229 3F       		.uleb128 0x3f
 3021 022a 0C       		.uleb128 0xc
 3022 022b 3C       		.uleb128 0x3c
 3023 022c 0C       		.uleb128 0xc
 3024 022d 00       		.byte	0
 3025 022e 00       		.byte	0
 3026 022f 00       		.byte	0
 3027              		.section	.debug_loc,"",%progbits
 3028              	.Ldebug_loc0:
 3029              	.LLST0:
 3030 0000 00000000 		.4byte	.LVL0
 3031 0004 02000000 		.4byte	.LVL1
 3032 0008 0100     		.2byte	0x1
 3033 000a 50       		.byte	0x50
 3034 000b 00000000 		.4byte	0
 3035 000f 00000000 		.4byte	0
 3036              	.LLST1:
 3037 0013 00000000 		.4byte	.LVL2
 3038 0017 02000000 		.4byte	.LVL3
 3039 001b 0100     		.2byte	0x1
 3040 001d 50       		.byte	0x50
 3041 001e 00000000 		.4byte	0
 3042 0022 00000000 		.4byte	0
 3043              	.LLST2:
ARM GAS  C:\Users\z80\AppData\Local\Temp\ccgjv1a7.s 			page 55


 3044 0026 00000000 		.4byte	.LFB70
 3045 002a 02000000 		.4byte	.LCFI0
 3046 002e 0200     		.2byte	0x2
 3047 0030 7D       		.byte	0x7d
 3048 0031 00       		.sleb128 0
 3049 0032 02000000 		.4byte	.LCFI0
 3050 0036 22000000 		.4byte	.LFE70
 3051 003a 0200     		.2byte	0x2
 3052 003c 7D       		.byte	0x7d
 3053 003d 10       		.sleb128 16
 3054 003e 00000000 		.4byte	0
 3055 0042 00000000 		.4byte	0
 3056              	.LLST3:
 3057 0046 00000000 		.4byte	.LVL4
 3058 004a 0F000000 		.4byte	.LVL7-1
 3059 004e 0100     		.2byte	0x1
 3060 0050 50       		.byte	0x50
 3061 0051 0F000000 		.4byte	.LVL7-1
 3062 0055 22000000 		.4byte	.LFE70
 3063 0059 0100     		.2byte	0x1
 3064 005b 54       		.byte	0x54
 3065 005c 00000000 		.4byte	0
 3066 0060 00000000 		.4byte	0
 3067              	.LLST4:
 3068 0064 12000000 		.4byte	.LVL8
 3069 0068 17000000 		.4byte	.LVL9-1
 3070 006c 0200     		.2byte	0x2
 3071 006e 74       		.byte	0x74
 3072 006f 08       		.sleb128 8
 3073 0070 17000000 		.4byte	.LVL9-1
 3074 0074 22000000 		.4byte	.LFE70
 3075 0078 0100     		.2byte	0x1
 3076 007a 55       		.byte	0x55
 3077 007b 00000000 		.4byte	0
 3078 007f 00000000 		.4byte	0
 3079              	.LLST5:
 3080 0083 0A000000 		.4byte	.LVL6
 3081 0087 0F000000 		.4byte	.LVL7-1
 3082 008b 0100     		.2byte	0x1
 3083 008d 53       		.byte	0x53
 3084 008e 00000000 		.4byte	0
 3085 0092 00000000 		.4byte	0
 3086              	.LLST6:
 3087 0096 1E000000 		.4byte	.LVL11
 3088 009a 22000000 		.4byte	.LFE70
 3089 009e 0100     		.2byte	0x1
 3090 00a0 53       		.byte	0x53
 3091 00a1 00000000 		.4byte	0
 3092 00a5 00000000 		.4byte	0
 3093              	.LLST7:
 3094 00a9 00000000 		.4byte	.LVL12
 3095 00ad 02000000 		.4byte	.LVL13
 3096 00b1 0100     		.2byte	0x1
 3097 00b3 50       		.byte	0x50
 3098 00b4 02000000 		.4byte	.LVL13
 3099 00b8 05000000 		.4byte	.LVL14-1
 3100 00bc 0300     		.2byte	0x3
ARM GAS  C:\Users\z80\AppData\Local\Temp\ccgjv1a7.s 			page 56


 3101 00be 70       		.byte	0x70
 3102 00bf 70       		.sleb128 -16
 3103 00c0 9F       		.byte	0x9f
 3104 00c1 00000000 		.4byte	0
 3105 00c5 00000000 		.4byte	0
 3106              	.LLST8:
 3107 00c9 00000000 		.4byte	.LVL12
 3108 00cd 05000000 		.4byte	.LVL17-1
 3109 00d1 0100     		.2byte	0x1
 3110 00d3 51       		.byte	0x51
 3111 00d4 00000000 		.4byte	0
 3112 00d8 00000000 		.4byte	0
 3113              	.LLST9:
 3114 00dc 00000000 		.4byte	.LVL12
 3115 00e0 05000000 		.4byte	.LVL16-1
 3116 00e4 0100     		.2byte	0x1
 3117 00e6 52       		.byte	0x52
 3118 00e7 00000000 		.4byte	0
 3119 00eb 00000000 		.4byte	0
 3120              	.LLST10:
 3121 00ef 00000000 		.4byte	.LVL12
 3122 00f3 05000000 		.4byte	.LVL15-1
 3123 00f7 0100     		.2byte	0x1
 3124 00f9 53       		.byte	0x53
 3125 00fa 00000000 		.4byte	0
 3126 00fe 00000000 		.4byte	0
 3127              	.LLST11:
 3128 0102 00000000 		.4byte	.LVL18
 3129 0106 02000000 		.4byte	.LVL19
 3130 010a 0100     		.2byte	0x1
 3131 010c 50       		.byte	0x50
 3132 010d 02000000 		.4byte	.LVL19
 3133 0111 09000000 		.4byte	.LVL20-1
 3134 0115 0300     		.2byte	0x3
 3135 0117 70       		.byte	0x70
 3136 0118 70       		.sleb128 -16
 3137 0119 9F       		.byte	0x9f
 3138 011a 00000000 		.4byte	0
 3139 011e 00000000 		.4byte	0
 3140              	.LLST12:
 3141 0122 00000000 		.4byte	.LVL18
 3142 0126 09000000 		.4byte	.LVL22-1
 3143 012a 0100     		.2byte	0x1
 3144 012c 51       		.byte	0x51
 3145 012d 00000000 		.4byte	0
 3146 0131 00000000 		.4byte	0
 3147              	.LLST13:
 3148 0135 00000000 		.4byte	.LVL18
 3149 0139 09000000 		.4byte	.LVL21-1
 3150 013d 0100     		.2byte	0x1
 3151 013f 52       		.byte	0x52
 3152 0140 00000000 		.4byte	0
 3153 0144 00000000 		.4byte	0
 3154              	.LLST14:
 3155 0148 00000000 		.4byte	.LVL23
 3156 014c 02000000 		.4byte	.LVL24
 3157 0150 0100     		.2byte	0x1
ARM GAS  C:\Users\z80\AppData\Local\Temp\ccgjv1a7.s 			page 57


 3158 0152 50       		.byte	0x50
 3159 0153 02000000 		.4byte	.LVL24
 3160 0157 05000000 		.4byte	.LVL25-1
 3161 015b 0300     		.2byte	0x3
 3162 015d 70       		.byte	0x70
 3163 015e 50       		.sleb128 -48
 3164 015f 9F       		.byte	0x9f
 3165 0160 00000000 		.4byte	0
 3166 0164 00000000 		.4byte	0
 3167              	.LLST15:
 3168 0168 00000000 		.4byte	.LVL23
 3169 016c 05000000 		.4byte	.LVL28-1
 3170 0170 0100     		.2byte	0x1
 3171 0172 51       		.byte	0x51
 3172 0173 00000000 		.4byte	0
 3173 0177 00000000 		.4byte	0
 3174              	.LLST16:
 3175 017b 00000000 		.4byte	.LVL23
 3176 017f 05000000 		.4byte	.LVL27-1
 3177 0183 0100     		.2byte	0x1
 3178 0185 52       		.byte	0x52
 3179 0186 00000000 		.4byte	0
 3180 018a 00000000 		.4byte	0
 3181              	.LLST17:
 3182 018e 00000000 		.4byte	.LVL23
 3183 0192 05000000 		.4byte	.LVL26-1
 3184 0196 0100     		.2byte	0x1
 3185 0198 53       		.byte	0x53
 3186 0199 00000000 		.4byte	0
 3187 019d 00000000 		.4byte	0
 3188              	.LLST18:
 3189 01a1 00000000 		.4byte	.LVL29
 3190 01a5 02000000 		.4byte	.LVL30
 3191 01a9 0100     		.2byte	0x1
 3192 01ab 50       		.byte	0x50
 3193 01ac 02000000 		.4byte	.LVL30
 3194 01b0 09000000 		.4byte	.LVL31-1
 3195 01b4 0300     		.2byte	0x3
 3196 01b6 70       		.byte	0x70
 3197 01b7 50       		.sleb128 -48
 3198 01b8 9F       		.byte	0x9f
 3199 01b9 00000000 		.4byte	0
 3200 01bd 00000000 		.4byte	0
 3201              	.LLST19:
 3202 01c1 00000000 		.4byte	.LVL29
 3203 01c5 09000000 		.4byte	.LVL33-1
 3204 01c9 0100     		.2byte	0x1
 3205 01cb 51       		.byte	0x51
 3206 01cc 00000000 		.4byte	0
 3207 01d0 00000000 		.4byte	0
 3208              	.LLST20:
 3209 01d4 00000000 		.4byte	.LVL29
 3210 01d8 09000000 		.4byte	.LVL32-1
 3211 01dc 0100     		.2byte	0x1
 3212 01de 52       		.byte	0x52
 3213 01df 00000000 		.4byte	0
 3214 01e3 00000000 		.4byte	0
ARM GAS  C:\Users\z80\AppData\Local\Temp\ccgjv1a7.s 			page 58


 3215              	.LLST21:
 3216 01e7 00000000 		.4byte	.LVL34
 3217 01eb 02000000 		.4byte	.LVL35
 3218 01ef 0100     		.2byte	0x1
 3219 01f1 50       		.byte	0x50
 3220 01f2 02000000 		.4byte	.LVL35
 3221 01f6 05000000 		.4byte	.LVL36-1
 3222 01fa 0300     		.2byte	0x3
 3223 01fc 70       		.byte	0x70
 3224 01fd 70       		.sleb128 -16
 3225 01fe 9F       		.byte	0x9f
 3226 01ff 00000000 		.4byte	0
 3227 0203 00000000 		.4byte	0
 3228              	.LLST22:
 3229 0207 00000000 		.4byte	.LVL34
 3230 020b 05000000 		.4byte	.LVL37-1
 3231 020f 0100     		.2byte	0x1
 3232 0211 51       		.byte	0x51
 3233 0212 00000000 		.4byte	0
 3234 0216 00000000 		.4byte	0
 3235              	.LLST23:
 3236 021a 00000000 		.4byte	.LVL38
 3237 021e 02000000 		.4byte	.LVL39
 3238 0222 0100     		.2byte	0x1
 3239 0224 50       		.byte	0x50
 3240 0225 02000000 		.4byte	.LVL39
 3241 0229 05000000 		.4byte	.LVL42-1
 3242 022d 0300     		.2byte	0x3
 3243 022f 70       		.byte	0x70
 3244 0230 50       		.sleb128 -48
 3245 0231 9F       		.byte	0x9f
 3246 0232 00000000 		.4byte	0
 3247 0236 00000000 		.4byte	0
 3248              	.LLST24:
 3249 023a 00000000 		.4byte	.LVL38
 3250 023e 05000000 		.4byte	.LVL41-1
 3251 0242 0100     		.2byte	0x1
 3252 0244 51       		.byte	0x51
 3253 0245 00000000 		.4byte	0
 3254 0249 00000000 		.4byte	0
 3255              	.LLST25:
 3256 024d 00000000 		.4byte	.LVL38
 3257 0251 05000000 		.4byte	.LVL40-1
 3258 0255 0100     		.2byte	0x1
 3259 0257 52       		.byte	0x52
 3260 0258 00000000 		.4byte	0
 3261 025c 00000000 		.4byte	0
 3262              	.LLST26:
 3263 0260 00000000 		.4byte	.LFB72
 3264 0264 02000000 		.4byte	.LCFI1
 3265 0268 0200     		.2byte	0x2
 3266 026a 7D       		.byte	0x7d
 3267 026b 00       		.sleb128 0
 3268 026c 02000000 		.4byte	.LCFI1
 3269 0270 46000000 		.4byte	.LFE72
 3270 0274 0200     		.2byte	0x2
 3271 0276 7D       		.byte	0x7d
ARM GAS  C:\Users\z80\AppData\Local\Temp\ccgjv1a7.s 			page 59


 3272 0277 10       		.sleb128 16
 3273 0278 00000000 		.4byte	0
 3274 027c 00000000 		.4byte	0
 3275              	.LLST27:
 3276 0280 00000000 		.4byte	.LVL43
 3277 0284 08000000 		.4byte	.LVL44
 3278 0288 0100     		.2byte	0x1
 3279 028a 50       		.byte	0x50
 3280 028b 08000000 		.4byte	.LVL44
 3281 028f 46000000 		.4byte	.LFE72
 3282 0293 0100     		.2byte	0x1
 3283 0295 54       		.byte	0x54
 3284 0296 00000000 		.4byte	0
 3285 029a 00000000 		.4byte	0
 3286              	.LLST28:
 3287 029e 00000000 		.4byte	.LVL43
 3288 02a2 26000000 		.4byte	.LVL45
 3289 02a6 0100     		.2byte	0x1
 3290 02a8 51       		.byte	0x51
 3291 02a9 26000000 		.4byte	.LVL45
 3292 02ad 2F000000 		.4byte	.LVL47-1
 3293 02b1 0100     		.2byte	0x1
 3294 02b3 53       		.byte	0x53
 3295 02b4 00000000 		.4byte	0
 3296 02b8 00000000 		.4byte	0
 3297              	.LLST29:
 3298 02bc 00000000 		.4byte	.LVL43
 3299 02c0 2A000000 		.4byte	.LVL46
 3300 02c4 0100     		.2byte	0x1
 3301 02c6 52       		.byte	0x52
 3302 02c7 2A000000 		.4byte	.LVL46
 3303 02cb 46000000 		.4byte	.LFE72
 3304 02cf 0100     		.2byte	0x1
 3305 02d1 55       		.byte	0x55
 3306 02d2 00000000 		.4byte	0
 3307 02d6 00000000 		.4byte	0
 3308              	.LLST30:
 3309 02da 00000000 		.4byte	.LFB73
 3310 02de 02000000 		.4byte	.LCFI2
 3311 02e2 0200     		.2byte	0x2
 3312 02e4 7D       		.byte	0x7d
 3313 02e5 00       		.sleb128 0
 3314 02e6 02000000 		.4byte	.LCFI2
 3315 02ea 4E000000 		.4byte	.LFE73
 3316 02ee 0200     		.2byte	0x2
 3317 02f0 7D       		.byte	0x7d
 3318 02f1 10       		.sleb128 16
 3319 02f2 00000000 		.4byte	0
 3320 02f6 00000000 		.4byte	0
 3321              	.LLST31:
 3322 02fa 00000000 		.4byte	.LVL48
 3323 02fe 08000000 		.4byte	.LVL49
 3324 0302 0100     		.2byte	0x1
 3325 0304 50       		.byte	0x50
 3326 0305 08000000 		.4byte	.LVL49
 3327 0309 4E000000 		.4byte	.LFE73
 3328 030d 0100     		.2byte	0x1
ARM GAS  C:\Users\z80\AppData\Local\Temp\ccgjv1a7.s 			page 60


 3329 030f 54       		.byte	0x54
 3330 0310 00000000 		.4byte	0
 3331 0314 00000000 		.4byte	0
 3332              	.LLST32:
 3333 0318 00000000 		.4byte	.LVL48
 3334 031c 08000000 		.4byte	.LVL49
 3335 0320 0100     		.2byte	0x1
 3336 0322 51       		.byte	0x51
 3337 0323 08000000 		.4byte	.LVL49
 3338 0327 4E000000 		.4byte	.LFE73
 3339 032b 0100     		.2byte	0x1
 3340 032d 55       		.byte	0x55
 3341 032e 00000000 		.4byte	0
 3342 0332 00000000 		.4byte	0
 3343              	.LLST33:
 3344 0336 0E000000 		.4byte	.LVL51
 3345 033a 11000000 		.4byte	.LVL52-1
 3346 033e 0100     		.2byte	0x1
 3347 0340 53       		.byte	0x53
 3348 0341 00000000 		.4byte	0
 3349 0345 00000000 		.4byte	0
 3350              	.LLST34:
 3351 0349 3E000000 		.4byte	.LVL54
 3352 034d 40000000 		.4byte	.LVL55
 3353 0351 0100     		.2byte	0x1
 3354 0353 53       		.byte	0x53
 3355 0354 00000000 		.4byte	0
 3356 0358 00000000 		.4byte	0
 3357              	.LLST35:
 3358 035c 00000000 		.4byte	.LFB74
 3359 0360 02000000 		.4byte	.LCFI3
 3360 0364 0200     		.2byte	0x2
 3361 0366 7D       		.byte	0x7d
 3362 0367 00       		.sleb128 0
 3363 0368 02000000 		.4byte	.LCFI3
 3364 036c 5E000000 		.4byte	.LFE74
 3365 0370 0200     		.2byte	0x2
 3366 0372 7D       		.byte	0x7d
 3367 0373 08       		.sleb128 8
 3368 0374 00000000 		.4byte	0
 3369 0378 00000000 		.4byte	0
 3370              	.LLST36:
 3371 037c 00000000 		.4byte	.LVL56
 3372 0380 06000000 		.4byte	.LVL57
 3373 0384 0100     		.2byte	0x1
 3374 0386 50       		.byte	0x50
 3375 0387 06000000 		.4byte	.LVL57
 3376 038b 5E000000 		.4byte	.LFE74
 3377 038f 0100     		.2byte	0x1
 3378 0391 54       		.byte	0x54
 3379 0392 00000000 		.4byte	0
 3380 0396 00000000 		.4byte	0
 3381              	.LLST37:
 3382 039a 0C000000 		.4byte	.LVL59
 3383 039e 0F000000 		.4byte	.LVL60-1
 3384 03a2 0100     		.2byte	0x1
 3385 03a4 53       		.byte	0x53
ARM GAS  C:\Users\z80\AppData\Local\Temp\ccgjv1a7.s 			page 61


 3386 03a5 00000000 		.4byte	0
 3387 03a9 00000000 		.4byte	0
 3388              	.LLST38:
 3389 03ad 4E000000 		.4byte	.LVL62
 3390 03b1 50000000 		.4byte	.LVL63
 3391 03b5 0100     		.2byte	0x1
 3392 03b7 53       		.byte	0x53
 3393 03b8 00000000 		.4byte	0
 3394 03bc 00000000 		.4byte	0
 3395              	.LLST39:
 3396 03c0 00000000 		.4byte	.LFB75
 3397 03c4 02000000 		.4byte	.LCFI4
 3398 03c8 0200     		.2byte	0x2
 3399 03ca 7D       		.byte	0x7d
 3400 03cb 00       		.sleb128 0
 3401 03cc 02000000 		.4byte	.LCFI4
 3402 03d0 60000000 		.4byte	.LFE75
 3403 03d4 0200     		.2byte	0x2
 3404 03d6 7D       		.byte	0x7d
 3405 03d7 10       		.sleb128 16
 3406 03d8 00000000 		.4byte	0
 3407 03dc 00000000 		.4byte	0
 3408              	.LLST40:
 3409 03e0 00000000 		.4byte	.LVL64
 3410 03e4 09000000 		.4byte	.LVL65-1
 3411 03e8 0100     		.2byte	0x1
 3412 03ea 50       		.byte	0x50
 3413 03eb 09000000 		.4byte	.LVL65-1
 3414 03ef 60000000 		.4byte	.LFE75
 3415 03f3 0100     		.2byte	0x1
 3416 03f5 54       		.byte	0x54
 3417 03f6 00000000 		.4byte	0
 3418 03fa 00000000 		.4byte	0
 3419              	.LLST41:
 3420 03fe 00000000 		.4byte	.LVL64
 3421 0402 09000000 		.4byte	.LVL65-1
 3422 0406 0100     		.2byte	0x1
 3423 0408 51       		.byte	0x51
 3424 0409 00000000 		.4byte	0
 3425 040d 00000000 		.4byte	0
 3426              	.LLST42:
 3427 0411 00000000 		.4byte	.LFB76
 3428 0415 02000000 		.4byte	.LCFI5
 3429 0419 0200     		.2byte	0x2
 3430 041b 7D       		.byte	0x7d
 3431 041c 00       		.sleb128 0
 3432 041d 02000000 		.4byte	.LCFI5
 3433 0421 3C000000 		.4byte	.LFE76
 3434 0425 0200     		.2byte	0x2
 3435 0427 7D       		.byte	0x7d
 3436 0428 10       		.sleb128 16
 3437 0429 00000000 		.4byte	0
 3438 042d 00000000 		.4byte	0
 3439              	.LLST43:
 3440 0431 00000000 		.4byte	.LVL66
 3441 0435 07000000 		.4byte	.LVL67-1
 3442 0439 0100     		.2byte	0x1
ARM GAS  C:\Users\z80\AppData\Local\Temp\ccgjv1a7.s 			page 62


 3443 043b 50       		.byte	0x50
 3444 043c 07000000 		.4byte	.LVL67-1
 3445 0440 3C000000 		.4byte	.LFE76
 3446 0444 0100     		.2byte	0x1
 3447 0446 55       		.byte	0x55
 3448 0447 00000000 		.4byte	0
 3449 044b 00000000 		.4byte	0
 3450              	.LLST44:
 3451 044f 12000000 		.4byte	.LVL68
 3452 0453 1E000000 		.4byte	.LVL69
 3453 0457 0100     		.2byte	0x1
 3454 0459 50       		.byte	0x50
 3455 045a 1E000000 		.4byte	.LVL69
 3456 045e 2E000000 		.4byte	.LVL70
 3457 0462 0100     		.2byte	0x1
 3458 0464 54       		.byte	0x54
 3459 0465 00000000 		.4byte	0
 3460 0469 00000000 		.4byte	0
 3461              		.section	.debug_aranges,"",%progbits
 3462 0000 8C000000 		.4byte	0x8c
 3463 0004 0200     		.2byte	0x2
 3464 0006 00000000 		.4byte	.Ldebug_info0
 3465 000a 04       		.byte	0x4
 3466 000b 00       		.byte	0
 3467 000c 0000     		.2byte	0
 3468 000e 0000     		.2byte	0
 3469 0010 00000000 		.4byte	.LFB64
 3470 0014 0C000000 		.4byte	.LFE64-.LFB64
 3471 0018 00000000 		.4byte	.LFB65
 3472 001c 0C000000 		.4byte	.LFE65-.LFB65
 3473 0020 00000000 		.4byte	.LFB70
 3474 0024 22000000 		.4byte	.LFE70-.LFB70
 3475 0028 00000000 		.4byte	.LFB69
 3476 002c 06000000 		.4byte	.LFE69-.LFB69
 3477 0030 00000000 		.4byte	.LFB63
 3478 0034 0A000000 		.4byte	.LFE63-.LFB63
 3479 0038 00000000 		.4byte	.LFB68
 3480 003c 06000000 		.4byte	.LFE68-.LFB68
 3481 0040 00000000 		.4byte	.LFB62
 3482 0044 0A000000 		.4byte	.LFE62-.LFB62
 3483 0048 00000000 		.4byte	.LFB67
 3484 004c 06000000 		.4byte	.LFE67-.LFB67
 3485 0050 00000000 		.4byte	.LFB66
 3486 0054 06000000 		.4byte	.LFE66-.LFB66
 3487 0058 00000000 		.4byte	.LFB71
 3488 005c 04000000 		.4byte	.LFE71-.LFB71
 3489 0060 00000000 		.4byte	.LFB72
 3490 0064 46000000 		.4byte	.LFE72-.LFB72
 3491 0068 00000000 		.4byte	.LFB73
 3492 006c 4E000000 		.4byte	.LFE73-.LFB73
 3493 0070 00000000 		.4byte	.LFB74
 3494 0074 5E000000 		.4byte	.LFE74-.LFB74
 3495 0078 00000000 		.4byte	.LFB75
 3496 007c 60000000 		.4byte	.LFE75-.LFB75
 3497 0080 00000000 		.4byte	.LFB76
 3498 0084 3C000000 		.4byte	.LFE76-.LFB76
 3499 0088 00000000 		.4byte	0
ARM GAS  C:\Users\z80\AppData\Local\Temp\ccgjv1a7.s 			page 63


 3500 008c 00000000 		.4byte	0
 3501              		.section	.debug_ranges,"",%progbits
 3502              	.Ldebug_ranges0:
 3503 0000 02000000 		.4byte	.LBB2
 3504 0004 04000000 		.4byte	.LBE2
 3505 0008 06000000 		.4byte	.LBB3
 3506 000c 0A000000 		.4byte	.LBE3
 3507 0010 00000000 		.4byte	0
 3508 0014 00000000 		.4byte	0
 3509 0018 00000000 		.4byte	.LFB64
 3510 001c 0C000000 		.4byte	.LFE64
 3511 0020 00000000 		.4byte	.LFB65
 3512 0024 0C000000 		.4byte	.LFE65
 3513 0028 00000000 		.4byte	.LFB70
 3514 002c 22000000 		.4byte	.LFE70
 3515 0030 00000000 		.4byte	.LFB69
 3516 0034 06000000 		.4byte	.LFE69
 3517 0038 00000000 		.4byte	.LFB63
 3518 003c 0A000000 		.4byte	.LFE63
 3519 0040 00000000 		.4byte	.LFB68
 3520 0044 06000000 		.4byte	.LFE68
 3521 0048 00000000 		.4byte	.LFB62
 3522 004c 0A000000 		.4byte	.LFE62
 3523 0050 00000000 		.4byte	.LFB67
 3524 0054 06000000 		.4byte	.LFE67
 3525 0058 00000000 		.4byte	.LFB66
 3526 005c 06000000 		.4byte	.LFE66
 3527 0060 00000000 		.4byte	.LFB71
 3528 0064 04000000 		.4byte	.LFE71
 3529 0068 00000000 		.4byte	.LFB72
 3530 006c 46000000 		.4byte	.LFE72
 3531 0070 00000000 		.4byte	.LFB73
 3532 0074 4E000000 		.4byte	.LFE73
 3533 0078 00000000 		.4byte	.LFB74
 3534 007c 5E000000 		.4byte	.LFE74
 3535 0080 00000000 		.4byte	.LFB75
 3536 0084 60000000 		.4byte	.LFE75
 3537 0088 00000000 		.4byte	.LFB76
 3538 008c 3C000000 		.4byte	.LFE76
 3539 0090 00000000 		.4byte	0
 3540 0094 00000000 		.4byte	0
 3541              		.section	.debug_line,"",%progbits
 3542              	.Ldebug_line0:
 3543 0000 0C040000 		.section	.debug_str,"MS",%progbits,1
 3543      0200A202 
 3543      00000201 
 3543      FB0E0D00 
 3543      01010101 
 3544              	.LASF124:
 3545 0000 2E2E2F63 		.ascii	"../chibios_2.4.x/os/hal/src/serial.c\000"
 3545      68696269 
 3545      6F735F32 
 3545      2E342E78 
 3545      2F6F732F 
 3546              	.LASF103:
 3547 0025 73635F73 		.ascii	"sc_speed\000"
 3547      70656564 
ARM GAS  C:\Users\z80\AppData\Local\Temp\ccgjv1a7.s 			page 64


 3547      00
 3548              	.LASF2:
 3549 002e 73697A65 		.ascii	"size_t\000"
 3549      5F7400
 3550              	.LASF57:
 3551 0035 7264796D 		.ascii	"rdymsg\000"
 3551      736700
 3552              	.LASF13:
 3553 003c 75696E74 		.ascii	"uint64_t\000"
 3553      36345F74 
 3553      00
 3554              	.LASF72:
 3555 0045 4F757470 		.ascii	"OutputQueue\000"
 3555      75745175 
 3555      65756500 
 3556              	.LASF21:
 3557 0051 6576656E 		.ascii	"eventmask_t\000"
 3557      746D6173 
 3557      6B5F7400 
 3558              	.LASF15:
 3559 005d 75696E74 		.ascii	"uint_fast16_t\000"
 3559      5F666173 
 3559      7431365F 
 3559      7400
 3560              	.LASF14:
 3561 006b 6C6F6E67 		.ascii	"long long unsigned int\000"
 3561      206C6F6E 
 3561      6720756E 
 3561      7369676E 
 3561      65642069 
 3562              	.LASF58:
 3563 0082 65786974 		.ascii	"exitcode\000"
 3563      636F6465 
 3563      00
 3564              	.LASF128:
 3565 008b 49544D5F 		.ascii	"ITM_RxBuffer\000"
 3565      52784275 
 3565      66666572 
 3565      00
 3566              	.LASF118:
 3567 0098 73644F62 		.ascii	"sdObjectInit\000"
 3567      6A656374 
 3567      496E6974 
 3567      00
 3568              	.LASF111:
 3569 00a5 72656164 		.ascii	"reads\000"
 3569      7300
 3570              	.LASF80:
 3571 00ab 72656164 		.ascii	"readt\000"
 3571      7400
 3572              	.LASF63:
 3573 00b1 715F7761 		.ascii	"q_waiting\000"
 3573      6974696E 
 3573      6700
 3574              	.LASF12:
 3575 00bb 6C6F6E67 		.ascii	"long long int\000"
 3575      206C6F6E 
ARM GAS  C:\Users\z80\AppData\Local\Temp\ccgjv1a7.s 			page 65


 3575      6720696E 
 3575      7400
 3576              	.LASF1:
 3577 00c9 7369676E 		.ascii	"signed char\000"
 3577      65642063 
 3577      68617200 
 3578              	.LASF91:
 3579 00d5 47545052 		.ascii	"GTPR\000"
 3579      00
 3580              	.LASF95:
 3581 00da 53445F53 		.ascii	"SD_STOP\000"
 3581      544F5000 
 3582              	.LASF16:
 3583 00e2 626F6F6C 		.ascii	"bool_t\000"
 3583      5F7400
 3584              	.LASF48:
 3585 00e9 6D5F7175 		.ascii	"m_queue\000"
 3585      65756500 
 3586              	.LASF125:
 3587 00f1 433A5C70 		.ascii	"C:\\projects\\digitizer.git\\firmware\\digitizer\000"
 3587      726F6A65 
 3587      6374735C 
 3587      64696769 
 3587      74697A65 
 3588              	.LASF99:
 3589 011e 73746174 		.ascii	"state\000"
 3589      6500
 3590              	.LASF9:
 3591 0124 6C6F6E67 		.ascii	"long int\000"
 3591      20696E74 
 3591      00
 3592              	.LASF18:
 3593 012d 74737461 		.ascii	"tstate_t\000"
 3593      74655F74 
 3593      00
 3594              	.LASF65:
 3595 0136 715F6275 		.ascii	"q_buffer\000"
 3595      66666572 
 3595      00
 3596              	.LASF67:
 3597 013f 715F7772 		.ascii	"q_wrptr\000"
 3597      70747200 
 3598              	.LASF28:
 3599 0147 705F6E65 		.ascii	"p_newer\000"
 3599      77657200 
 3600              	.LASF77:
 3601 014f 70757477 		.ascii	"putwouldblock\000"
 3601      6F756C64 
 3601      626C6F63 
 3601      6B00
 3602              	.LASF109:
 3603 015d 6D61736B 		.ascii	"mask\000"
 3603      00
 3604              	.LASF43:
 3605 0162 72656761 		.ascii	"regarm_t\000"
 3605      726D5F74 
 3605      00
ARM GAS  C:\Users\z80\AppData\Local\Temp\ccgjv1a7.s 			page 66


 3606              	.LASF55:
 3607 016b 4576656E 		.ascii	"EventSource\000"
 3607      74536F75 
 3607      72636500 
 3608              	.LASF74:
 3609 0177 42617365 		.ascii	"BaseAsynchronousChannelVMT\000"
 3609      4173796E 
 3609      6368726F 
 3609      6E6F7573 
 3609      4368616E 
 3610              	.LASF0:
 3611 0192 756E7369 		.ascii	"unsigned int\000"
 3611      676E6564 
 3611      20696E74 
 3611      00
 3612              	.LASF6:
 3613 019f 75696E74 		.ascii	"uint16_t\000"
 3613      31365F74 
 3613      00
 3614              	.LASF108:
 3615 01a8 53657269 		.ascii	"SerialDriverVMT\000"
 3615      616C4472 
 3615      69766572 
 3615      564D5400 
 3616              	.LASF34:
 3617 01b8 705F7469 		.ascii	"p_time\000"
 3617      6D6500
 3618              	.LASF116:
 3619 01bf 696E6F74 		.ascii	"inotify\000"
 3619      69667900 
 3620              	.LASF100:
 3621 01c7 69717565 		.ascii	"iqueue\000"
 3621      756500
 3622              	.LASF36:
 3623 01ce 705F6D73 		.ascii	"p_msgqueue\000"
 3623      67717565 
 3623      756500
 3624              	.LASF114:
 3625 01d9 74696D65 		.ascii	"timeout\000"
 3625      6F757400 
 3626              	.LASF113:
 3627 01e1 67657474 		.ascii	"gett\000"
 3627      00
 3628              	.LASF82:
 3629 01e6 6576656E 		.ascii	"event\000"
 3629      7400
 3630              	.LASF7:
 3631 01ec 73686F72 		.ascii	"short unsigned int\000"
 3631      7420756E 
 3631      7369676E 
 3631      65642069 
 3631      6E7400
 3632              	.LASF20:
 3633 01ff 6D73675F 		.ascii	"msg_t\000"
 3633      7400
 3634              	.LASF101:
 3635 0205 6F717565 		.ascii	"oqueue\000"
ARM GAS  C:\Users\z80\AppData\Local\Temp\ccgjv1a7.s 			page 67


 3635      756500
 3636              	.LASF112:
 3637 020c 77726974 		.ascii	"writes\000"
 3637      657300
 3638              	.LASF79:
 3639 0213 77726974 		.ascii	"writet\000"
 3639      657400
 3640              	.LASF17:
 3641 021a 746D6F64 		.ascii	"tmode_t\000"
 3641      655F7400 
 3642              	.LASF42:
 3643 0222 54687265 		.ascii	"ThreadsList\000"
 3643      6164734C 
 3643      69737400 
 3644              	.LASF102:
 3645 022e 75736172 		.ascii	"usart\000"
 3645      7400
 3646              	.LASF71:
 3647 0234 496E7075 		.ascii	"InputQueue\000"
 3647      74517565 
 3647      756500
 3648              	.LASF70:
 3649 023f 716E6F74 		.ascii	"qnotify_t\000"
 3649      6966795F 
 3649      7400
 3650              	.LASF62:
 3651 0249 47656E65 		.ascii	"GenericQueue\000"
 3651      72696351 
 3651      75657565 
 3651      00
 3652              	.LASF44:
 3653 0256 73746B61 		.ascii	"stkalign_t\000"
 3653      6C69676E 
 3653      5F7400
 3654              	.LASF75:
 3655 0261 77726974 		.ascii	"write\000"
 3655      6500
 3656              	.LASF115:
 3657 0267 70757474 		.ascii	"putt\000"
 3657      00
 3658              	.LASF64:
 3659 026c 715F636F 		.ascii	"q_counter\000"
 3659      756E7465 
 3659      7200
 3660              	.LASF47:
 3661 0276 4D757465 		.ascii	"Mutex\000"
 3661      7800
 3662              	.LASF26:
 3663 027c 705F7072 		.ascii	"p_prio\000"
 3663      696F00
 3664              	.LASF54:
 3665 0283 656C5F6D 		.ascii	"el_mask\000"
 3665      61736B00 
 3666              	.LASF29:
 3667 028b 705F6F6C 		.ascii	"p_older\000"
 3667      64657200 
 3668              	.LASF81:
ARM GAS  C:\Users\z80\AppData\Local\Temp\ccgjv1a7.s 			page 68


 3669 0293 67657466 		.ascii	"getflags\000"
 3669      6C616773 
 3669      00
 3670              	.LASF73:
 3671 029c 696F666C 		.ascii	"ioflags_t\000"
 3671      6167735F 
 3671      7400
 3672              	.LASF41:
 3673 02a6 54687265 		.ascii	"ThreadsQueue\000"
 3673      61647351 
 3673      75657565 
 3673      00
 3674              	.LASF31:
 3675 02b3 705F7374 		.ascii	"p_stklimit\000"
 3675      6B6C696D 
 3675      697400
 3676              	.LASF121:
 3677 02be 73645374 		.ascii	"sdStop\000"
 3677      6F7000
 3678              	.LASF110:
 3679 02c5 74696D65 		.ascii	"time\000"
 3679      00
 3680              	.LASF107:
 3681 02ca 53657269 		.ascii	"SerialConfig\000"
 3681      616C436F 
 3681      6E666967 
 3681      00
 3682              	.LASF85:
 3683 02d7 52455345 		.ascii	"RESERVED0\000"
 3683      52564544 
 3683      3000
 3684              	.LASF86:
 3685 02e1 52455345 		.ascii	"RESERVED1\000"
 3685      52564544 
 3685      3100
 3686              	.LASF87:
 3687 02eb 52455345 		.ascii	"RESERVED2\000"
 3687      52564544 
 3687      3200
 3688              	.LASF88:
 3689 02f5 52455345 		.ascii	"RESERVED3\000"
 3689      52564544 
 3689      3300
 3690              	.LASF89:
 3691 02ff 52455345 		.ascii	"RESERVED4\000"
 3691      52564544 
 3691      3400
 3692              	.LASF25:
 3693 0309 705F7072 		.ascii	"p_prev\000"
 3693      657600
 3694              	.LASF92:
 3695 0310 52455345 		.ascii	"RESERVED6\000"
 3695      52564544 
 3695      3600
 3696              	.LASF19:
 3697 031a 74707269 		.ascii	"tprio_t\000"
 3697      6F5F7400 
ARM GAS  C:\Users\z80\AppData\Local\Temp\ccgjv1a7.s 			page 69


 3698              	.LASF68:
 3699 0322 715F7264 		.ascii	"q_rdptr\000"
 3699      70747200 
 3700              	.LASF8:
 3701 032a 696E7433 		.ascii	"int32_t\000"
 3701      325F7400 
 3702              	.LASF4:
 3703 0332 756E7369 		.ascii	"unsigned char\000"
 3703      676E6564 
 3703      20636861 
 3703      7200
 3704              	.LASF93:
 3705 0340 55534152 		.ascii	"USART_TypeDef\000"
 3705      545F5479 
 3705      70654465 
 3705      6600
 3706              	.LASF53:
 3707 034e 656C5F6C 		.ascii	"el_listener\000"
 3707      69737465 
 3707      6E657200 
 3708              	.LASF32:
 3709 035a 705F7374 		.ascii	"p_state\000"
 3709      61746500 
 3710              	.LASF39:
 3711 0362 705F6D74 		.ascii	"p_mtxlist\000"
 3711      786C6973 
 3711      7400
 3712              	.LASF5:
 3713 036c 73686F72 		.ascii	"short int\000"
 3713      7420696E 
 3713      7400
 3714              	.LASF60:
 3715 0376 65776D61 		.ascii	"ewmask\000"
 3715      736B00
 3716              	.LASF24:
 3717 037d 705F6E65 		.ascii	"p_next\000"
 3717      787400
 3718              	.LASF33:
 3719 0384 705F666C 		.ascii	"p_flags\000"
 3719      61677300 
 3720              	.LASF52:
 3721 038c 656C5F6E 		.ascii	"el_next\000"
 3721      65787400 
 3722              	.LASF23:
 3723 0394 54687265 		.ascii	"Thread\000"
 3723      616400
 3724              	.LASF38:
 3725 039b 705F6570 		.ascii	"p_epending\000"
 3725      656E6469 
 3725      6E6700
 3726              	.LASF94:
 3727 03a6 53445F55 		.ascii	"SD_UNINIT\000"
 3727      4E494E49 
 3727      5400
 3728              	.LASF90:
 3729 03b0 52455345 		.ascii	"RESERVED5\000"
 3729      52564544 
ARM GAS  C:\Users\z80\AppData\Local\Temp\ccgjv1a7.s 			page 70


 3729      3500
 3730              	.LASF10:
 3731 03ba 75696E74 		.ascii	"uint32_t\000"
 3731      33325F74 
 3731      00
 3732              	.LASF97:
 3733 03c3 73647374 		.ascii	"sdstate_t\000"
 3733      6174655F 
 3733      7400
 3734              	.LASF98:
 3735 03cd 53657269 		.ascii	"SerialDriver\000"
 3735      616C4472 
 3735      69766572 
 3735      00
 3736              	.LASF123:
 3737 03da 474E5520 		.ascii	"GNU C 4.6.3\000"
 3737      4320342E 
 3737      362E3300 
 3738              	.LASF11:
 3739 03e6 6C6F6E67 		.ascii	"long unsigned int\000"
 3739      20756E73 
 3739      69676E65 
 3739      6420696E 
 3739      7400
 3740              	.LASF76:
 3741 03f8 72656164 		.ascii	"read\000"
 3741      00
 3742              	.LASF61:
 3743 03fd 63686172 		.ascii	"char\000"
 3743      00
 3744              	.LASF122:
 3745 0402 7364496E 		.ascii	"sdIncomingDataI\000"
 3745      636F6D69 
 3745      6E674461 
 3745      74614900 
 3746              	.LASF120:
 3747 0412 636F6E66 		.ascii	"config\000"
 3747      696700
 3748              	.LASF119:
 3749 0419 73645374 		.ascii	"sdStart\000"
 3749      61727400 
 3750              	.LASF50:
 3751 0421 6D5F6E65 		.ascii	"m_next\000"
 3751      787400
 3752              	.LASF22:
 3753 0428 73797374 		.ascii	"systime_t\000"
 3753      696D655F 
 3753      7400
 3754              	.LASF40:
 3755 0432 705F7265 		.ascii	"p_realprio\000"
 3755      616C7072 
 3755      696F00
 3756              	.LASF84:
 3757 043d 42617365 		.ascii	"BaseAsynchronousChannel\000"
 3757      4173796E 
 3757      6368726F 
 3757      6E6F7573 
ARM GAS  C:\Users\z80\AppData\Local\Temp\ccgjv1a7.s 			page 71


 3757      4368616E 
 3758              	.LASF46:
 3759 0455 636F6E74 		.ascii	"context\000"
 3759      65787400 
 3760              	.LASF45:
 3761 045d 696E7463 		.ascii	"intctx\000"
 3761      747800
 3762              	.LASF96:
 3763 0464 53445F52 		.ascii	"SD_READY\000"
 3763      45414459 
 3763      00
 3764              	.LASF66:
 3765 046d 715F746F 		.ascii	"q_top\000"
 3765      7000
 3766              	.LASF30:
 3767 0473 705F6E61 		.ascii	"p_name\000"
 3767      6D6500
 3768              	.LASF56:
 3769 047a 65735F6E 		.ascii	"es_next\000"
 3769      65787400 
 3770              	.LASF69:
 3771 0482 715F6E6F 		.ascii	"q_notify\000"
 3771      74696679 
 3771      00
 3772              	.LASF37:
 3773 048b 705F6D73 		.ascii	"p_msg\000"
 3773      6700
 3774              	.LASF127:
 3775 0491 73645265 		.ascii	"sdRequestDataI\000"
 3775      71756573 
 3775      74446174 
 3775      614900
 3776              	.LASF3:
 3777 04a0 75696E74 		.ascii	"uint8_t\000"
 3777      385F7400 
 3778              	.LASF83:
 3779 04a8 666C6167 		.ascii	"flags\000"
 3779      7300
 3780              	.LASF117:
 3781 04ae 6F6E6F74 		.ascii	"onotify\000"
 3781      69667900 
 3782              	.LASF51:
 3783 04b6 4576656E 		.ascii	"EventListener\000"
 3783      744C6973 
 3783      74656E65 
 3783      7200
 3784              	.LASF59:
 3785 04c4 77746F62 		.ascii	"wtobjp\000"
 3785      6A7000
 3786              	.LASF78:
 3787 04cb 67657477 		.ascii	"getwouldblock\000"
 3787      6F756C64 
 3787      626C6F63 
 3787      6B00
 3788              	.LASF104:
 3789 04d9 73635F63 		.ascii	"sc_cr1\000"
 3789      723100
ARM GAS  C:\Users\z80\AppData\Local\Temp\ccgjv1a7.s 			page 72


 3790              	.LASF105:
 3791 04e0 73635F63 		.ascii	"sc_cr2\000"
 3791      723200
 3792              	.LASF106:
 3793 04e7 73635F63 		.ascii	"sc_cr3\000"
 3793      723300
 3794              	.LASF126:
 3795 04ee 7364496E 		.ascii	"sdInit\000"
 3795      697400
 3796              	.LASF49:
 3797 04f5 6D5F6F77 		.ascii	"m_owner\000"
 3797      6E657200 
 3798              	.LASF27:
 3799 04fd 705F6374 		.ascii	"p_ctx\000"
 3799      7800
 3800              	.LASF35:
 3801 0503 705F7761 		.ascii	"p_waiting\000"
 3801      6974696E 
 3801      6700
 3802              		.ident	"GCC: (Sourcery CodeBench Lite 2012.03-56) 4.6.3"
ARM GAS  C:\Users\z80\AppData\Local\Temp\ccgjv1a7.s 			page 73


DEFINED SYMBOLS
                            *ABS*:00000000 serial.c
C:\Users\z80\AppData\Local\Temp\ccgjv1a7.s:19     .text.putwouldblock:00000000 $t
C:\Users\z80\AppData\Local\Temp\ccgjv1a7.s:24     .text.putwouldblock:00000000 putwouldblock
C:\Users\z80\AppData\Local\Temp\ccgjv1a7.s:45     .text.getwouldblock:00000000 $t
C:\Users\z80\AppData\Local\Temp\ccgjv1a7.s:50     .text.getwouldblock:00000000 getwouldblock
C:\Users\z80\AppData\Local\Temp\ccgjv1a7.s:70     .text.getflags:00000000 $t
C:\Users\z80\AppData\Local\Temp\ccgjv1a7.s:75     .text.getflags:00000000 getflags
C:\Users\z80\AppData\Local\Temp\ccgjv1a7.s:128    .text.readt:00000000 $t
C:\Users\z80\AppData\Local\Temp\ccgjv1a7.s:133    .text.readt:00000000 readt
C:\Users\z80\AppData\Local\Temp\ccgjv1a7.s:155    .text.reads:00000000 $t
C:\Users\z80\AppData\Local\Temp\ccgjv1a7.s:160    .text.reads:00000000 reads
C:\Users\z80\AppData\Local\Temp\ccgjv1a7.s:182    .text.writet:00000000 $t
C:\Users\z80\AppData\Local\Temp\ccgjv1a7.s:187    .text.writet:00000000 writet
C:\Users\z80\AppData\Local\Temp\ccgjv1a7.s:209    .text.writes:00000000 $t
C:\Users\z80\AppData\Local\Temp\ccgjv1a7.s:214    .text.writes:00000000 writes
C:\Users\z80\AppData\Local\Temp\ccgjv1a7.s:236    .text.gett:00000000 $t
C:\Users\z80\AppData\Local\Temp\ccgjv1a7.s:241    .text.gett:00000000 gett
C:\Users\z80\AppData\Local\Temp\ccgjv1a7.s:261    .text.putt:00000000 $t
C:\Users\z80\AppData\Local\Temp\ccgjv1a7.s:266    .text.putt:00000000 putt
C:\Users\z80\AppData\Local\Temp\ccgjv1a7.s:287    .text.sdInit:00000000 $t
C:\Users\z80\AppData\Local\Temp\ccgjv1a7.s:293    .text.sdInit:00000000 sdInit
C:\Users\z80\AppData\Local\Temp\ccgjv1a7.s:307    .text.sdObjectInit:00000000 $t
C:\Users\z80\AppData\Local\Temp\ccgjv1a7.s:313    .text.sdObjectInit:00000000 sdObjectInit
C:\Users\z80\AppData\Local\Temp\ccgjv1a7.s:689    .rodata.vmt:00000000 .LANCHOR0
C:\Users\z80\AppData\Local\Temp\ccgjv1a7.s:369    .text.sdStart:00000000 $t
C:\Users\z80\AppData\Local\Temp\ccgjv1a7.s:375    .text.sdStart:00000000 sdStart
C:\Users\z80\AppData\Local\Temp\ccgjv1a7.s:674    .rodata.str1.4:0000000c .LC1
C:\Users\z80\AppData\Local\Temp\ccgjv1a7.s:672    .rodata.str1.4:00000000 .LC0
C:\Users\z80\AppData\Local\Temp\ccgjv1a7.s:451    .text.sdStop:00000000 $t
C:\Users\z80\AppData\Local\Temp\ccgjv1a7.s:457    .text.sdStop:00000000 sdStop
C:\Users\z80\AppData\Local\Temp\ccgjv1a7.s:680    .rodata.str1.4:00000028 .LC3
C:\Users\z80\AppData\Local\Temp\ccgjv1a7.s:677    .rodata.str1.4:0000001c .LC2
C:\Users\z80\AppData\Local\Temp\ccgjv1a7.s:535    .text.sdIncomingDataI:00000000 $t
C:\Users\z80\AppData\Local\Temp\ccgjv1a7.s:541    .text.sdIncomingDataI:00000000 sdIncomingDataI
C:\Users\z80\AppData\Local\Temp\ccgjv1a7.s:683    .rodata.str1.4:00000038 .LC4
C:\Users\z80\AppData\Local\Temp\ccgjv1a7.s:610    .text.sdRequestDataI:00000000 $t
C:\Users\z80\AppData\Local\Temp\ccgjv1a7.s:616    .text.sdRequestDataI:00000000 sdRequestDataI
C:\Users\z80\AppData\Local\Temp\ccgjv1a7.s:685    .rodata.str1.4:0000004c .LC5
C:\Users\z80\AppData\Local\Temp\ccgjv1a7.s:671    .rodata.str1.4:00000000 $d
C:\Users\z80\AppData\Local\Temp\ccgjv1a7.s:688    .rodata.vmt:00000000 $d
C:\Users\z80\AppData\Local\Temp\ccgjv1a7.s:692    .rodata.vmt:00000000 vmt
                     .debug_frame:00000010 $d

UNDEFINED SYMBOLS
dbg_check_lock
dbg_check_unlock
chIQReadTimeout
chOQWriteTimeout
chIQGetTimeout
chOQPutTimeout
sd_lld_init
chIQInit
chOQInit
chDbgPanic
sd_lld_start
sd_lld_stop
ARM GAS  C:\Users\z80\AppData\Local\Temp\ccgjv1a7.s 			page 74


chOQResetI
chIQResetI
chSchRescheduleS
chDbgCheckClassI
chIQPutI
chEvtBroadcastFlagsI
chOQGetI
