ARM GAS  C:\Users\z80\AppData\Local\Temp\ccD8g6EC.s 			page 1


   1              		.syntax unified
   2              		.cpu cortex-m3
   3              		.fpu softvfp
   4              		.eabi_attribute 20, 1
   5              		.eabi_attribute 21, 1
   6              		.eabi_attribute 23, 3
   7              		.eabi_attribute 24, 1
   8              		.eabi_attribute 25, 1
   9              		.eabi_attribute 26, 1
  10              		.eabi_attribute 30, 6
  11              		.eabi_attribute 34, 1
  12              		.eabi_attribute 18, 4
  13              		.thumb
  14              		.file	"serial.c"
  15              		.text
  16              	.Ltext0:
  17              		.cfi_sections	.debug_frame
  18              		.section	.text.writes,"ax",%progbits
  19              		.align	2
  20              		.p2align 4,,15
  21              		.thumb
  22              		.thumb_func
  23              		.type	writes, %function
  24              	writes:
  25              	.LFB62:
  26              		.file 1 "../chibios_2.4.x/os/hal/src/serial.c"
  27              		.loc 1 62 0
  28              		.cfi_startproc
  29              		@ args = 0, pretend = 0, frame = 16
  30              		@ frame_needed = 0, uses_anonymous_args = 0
  31 0000 00B5     		push	{lr}
  32              	.LCFI0:
  33              		.cfi_def_cfa_offset 4
  34              		.cfi_offset 14, -4
  35 0002 85B0     		sub	sp, sp, #20
  36              	.LCFI1:
  37              		.cfi_def_cfa_offset 24
  38 0004 0390     		str	r0, [sp, #12]
  39 0006 0291     		str	r1, [sp, #8]
  40 0008 0192     		str	r2, [sp, #4]
  41              		.loc 1 64 0
  42 000a 039B     		ldr	r3, [sp, #12]
  43 000c 03F13003 		add	r3, r3, #48
  44 0010 1846     		mov	r0, r3
  45 0012 0299     		ldr	r1, [sp, #8]
  46 0014 019A     		ldr	r2, [sp, #4]
  47 0016 4FF0FF33 		mov	r3, #-1
  48 001a FFF7FEFF 		bl	chOQWriteTimeout
  49 001e 0346     		mov	r3, r0
  50              		.loc 1 66 0
  51 0020 1846     		mov	r0, r3
  52 0022 05B0     		add	sp, sp, #20
  53 0024 00BD     		pop	{pc}
  54              		.cfi_endproc
  55              	.LFE62:
  56              		.size	writes, .-writes
  57 0026 00BFAFF3 		.section	.text.reads,"ax",%progbits
ARM GAS  C:\Users\z80\AppData\Local\Temp\ccD8g6EC.s 			page 2


  57      0080AFF3 
  57      0080
  58              		.align	2
  59              		.p2align 4,,15
  60              		.thumb
  61              		.thumb_func
  62              		.type	reads, %function
  63              	reads:
  64              	.LFB63:
  65              		.loc 1 68 0
  66              		.cfi_startproc
  67              		@ args = 0, pretend = 0, frame = 16
  68              		@ frame_needed = 0, uses_anonymous_args = 0
  69 0000 00B5     		push	{lr}
  70              	.LCFI2:
  71              		.cfi_def_cfa_offset 4
  72              		.cfi_offset 14, -4
  73 0002 85B0     		sub	sp, sp, #20
  74              	.LCFI3:
  75              		.cfi_def_cfa_offset 24
  76 0004 0390     		str	r0, [sp, #12]
  77 0006 0291     		str	r1, [sp, #8]
  78 0008 0192     		str	r2, [sp, #4]
  79              		.loc 1 70 0
  80 000a 039B     		ldr	r3, [sp, #12]
  81 000c 03F11003 		add	r3, r3, #16
  82 0010 1846     		mov	r0, r3
  83 0012 0299     		ldr	r1, [sp, #8]
  84 0014 019A     		ldr	r2, [sp, #4]
  85 0016 4FF0FF33 		mov	r3, #-1
  86 001a FFF7FEFF 		bl	chIQReadTimeout
  87 001e 0346     		mov	r3, r0
  88              		.loc 1 72 0
  89 0020 1846     		mov	r0, r3
  90 0022 05B0     		add	sp, sp, #20
  91 0024 00BD     		pop	{pc}
  92              		.cfi_endproc
  93              	.LFE63:
  94              		.size	reads, .-reads
  95 0026 00BFAFF3 		.section	.text.putwouldblock,"ax",%progbits
  95      0080AFF3 
  95      0080
  96              		.align	2
  97              		.p2align 4,,15
  98              		.thumb
  99              		.thumb_func
 100              		.type	putwouldblock, %function
 101              	putwouldblock:
 102              	.LFB64:
 103              		.loc 1 74 0
 104              		.cfi_startproc
 105              		@ args = 0, pretend = 0, frame = 8
 106              		@ frame_needed = 0, uses_anonymous_args = 0
 107              		@ link register save eliminated.
 108 0000 82B0     		sub	sp, sp, #8
 109              	.LCFI4:
 110              		.cfi_def_cfa_offset 8
ARM GAS  C:\Users\z80\AppData\Local\Temp\ccD8g6EC.s 			page 3


 111 0002 0190     		str	r0, [sp, #4]
 112              		.loc 1 76 0
 113 0004 019B     		ldr	r3, [sp, #4]
 114 0006 9B6B     		ldr	r3, [r3, #56]
 115 0008 002B     		cmp	r3, #0
 116 000a 14BF     		ite	ne
 117 000c 0023     		movne	r3, #0
 118 000e 0123     		moveq	r3, #1
 119              		.loc 1 77 0
 120 0010 1846     		mov	r0, r3
 121 0012 02B0     		add	sp, sp, #8
 122 0014 7047     		bx	lr
 123              		.cfi_endproc
 124              	.LFE64:
 125              		.size	putwouldblock, .-putwouldblock
 126 0016 00BFAFF3 		.section	.text.getwouldblock,"ax",%progbits
 126      0080AFF3 
 126      0080
 127              		.align	2
 128              		.p2align 4,,15
 129              		.thumb
 130              		.thumb_func
 131              		.type	getwouldblock, %function
 132              	getwouldblock:
 133              	.LFB65:
 134              		.loc 1 79 0
 135              		.cfi_startproc
 136              		@ args = 0, pretend = 0, frame = 8
 137              		@ frame_needed = 0, uses_anonymous_args = 0
 138              		@ link register save eliminated.
 139 0000 82B0     		sub	sp, sp, #8
 140              	.LCFI5:
 141              		.cfi_def_cfa_offset 8
 142 0002 0190     		str	r0, [sp, #4]
 143              		.loc 1 81 0
 144 0004 019B     		ldr	r3, [sp, #4]
 145 0006 9B69     		ldr	r3, [r3, #24]
 146 0008 002B     		cmp	r3, #0
 147 000a 14BF     		ite	ne
 148 000c 0023     		movne	r3, #0
 149 000e 0123     		moveq	r3, #1
 150              		.loc 1 82 0
 151 0010 1846     		mov	r0, r3
 152 0012 02B0     		add	sp, sp, #8
 153 0014 7047     		bx	lr
 154              		.cfi_endproc
 155              	.LFE65:
 156              		.size	getwouldblock, .-getwouldblock
 157 0016 00BFAFF3 		.section	.text.putt,"ax",%progbits
 157      0080AFF3 
 157      0080
 158              		.align	2
 159              		.p2align 4,,15
 160              		.thumb
 161              		.thumb_func
 162              		.type	putt, %function
 163              	putt:
ARM GAS  C:\Users\z80\AppData\Local\Temp\ccD8g6EC.s 			page 4


 164              	.LFB66:
 165              		.loc 1 84 0
 166              		.cfi_startproc
 167              		@ args = 0, pretend = 0, frame = 16
 168              		@ frame_needed = 0, uses_anonymous_args = 0
 169 0000 00B5     		push	{lr}
 170              	.LCFI6:
 171              		.cfi_def_cfa_offset 4
 172              		.cfi_offset 14, -4
 173 0002 85B0     		sub	sp, sp, #20
 174              	.LCFI7:
 175              		.cfi_def_cfa_offset 24
 176 0004 0390     		str	r0, [sp, #12]
 177 0006 0B46     		mov	r3, r1
 178 0008 0192     		str	r2, [sp, #4]
 179 000a 8DF80B30 		strb	r3, [sp, #11]
 180              		.loc 1 86 0
 181 000e 039B     		ldr	r3, [sp, #12]
 182 0010 03F13002 		add	r2, r3, #48
 183 0014 9DF80B30 		ldrb	r3, [sp, #11]	@ zero_extendqisi2
 184 0018 1046     		mov	r0, r2
 185 001a 1946     		mov	r1, r3
 186 001c 019A     		ldr	r2, [sp, #4]
 187 001e FFF7FEFF 		bl	chOQPutTimeout
 188 0022 0346     		mov	r3, r0
 189              		.loc 1 87 0
 190 0024 1846     		mov	r0, r3
 191 0026 05B0     		add	sp, sp, #20
 192 0028 00BD     		pop	{pc}
 193              		.cfi_endproc
 194              	.LFE66:
 195              		.size	putt, .-putt
 196 002a 00BFAFF3 		.section	.text.gett,"ax",%progbits
 196      0080
 197              		.align	2
 198              		.p2align 4,,15
 199              		.thumb
 200              		.thumb_func
 201              		.type	gett, %function
 202              	gett:
 203              	.LFB67:
 204              		.loc 1 89 0
 205              		.cfi_startproc
 206              		@ args = 0, pretend = 0, frame = 8
 207              		@ frame_needed = 0, uses_anonymous_args = 0
 208 0000 00B5     		push	{lr}
 209              	.LCFI8:
 210              		.cfi_def_cfa_offset 4
 211              		.cfi_offset 14, -4
 212 0002 83B0     		sub	sp, sp, #12
 213              	.LCFI9:
 214              		.cfi_def_cfa_offset 16
 215 0004 0190     		str	r0, [sp, #4]
 216 0006 0091     		str	r1, [sp, #0]
 217              		.loc 1 91 0
 218 0008 019B     		ldr	r3, [sp, #4]
 219 000a 03F11003 		add	r3, r3, #16
ARM GAS  C:\Users\z80\AppData\Local\Temp\ccD8g6EC.s 			page 5


 220 000e 1846     		mov	r0, r3
 221 0010 0099     		ldr	r1, [sp, #0]
 222 0012 FFF7FEFF 		bl	chIQGetTimeout
 223 0016 0346     		mov	r3, r0
 224              		.loc 1 92 0
 225 0018 1846     		mov	r0, r3
 226 001a 03B0     		add	sp, sp, #12
 227 001c 00BD     		pop	{pc}
 228              		.cfi_endproc
 229              	.LFE67:
 230              		.size	gett, .-gett
 231 001e 00BF     		.section	.text.writet,"ax",%progbits
 232              		.align	2
 233              		.p2align 4,,15
 234              		.thumb
 235              		.thumb_func
 236              		.type	writet, %function
 237              	writet:
 238              	.LFB68:
 239              		.loc 1 94 0
 240              		.cfi_startproc
 241              		@ args = 0, pretend = 0, frame = 16
 242              		@ frame_needed = 0, uses_anonymous_args = 0
 243 0000 00B5     		push	{lr}
 244              	.LCFI10:
 245              		.cfi_def_cfa_offset 4
 246              		.cfi_offset 14, -4
 247 0002 85B0     		sub	sp, sp, #20
 248              	.LCFI11:
 249              		.cfi_def_cfa_offset 24
 250 0004 0390     		str	r0, [sp, #12]
 251 0006 0291     		str	r1, [sp, #8]
 252 0008 0192     		str	r2, [sp, #4]
 253 000a 0093     		str	r3, [sp, #0]
 254              		.loc 1 96 0
 255 000c 039B     		ldr	r3, [sp, #12]
 256 000e 03F13003 		add	r3, r3, #48
 257 0012 1846     		mov	r0, r3
 258 0014 0299     		ldr	r1, [sp, #8]
 259 0016 019A     		ldr	r2, [sp, #4]
 260 0018 009B     		ldr	r3, [sp, #0]
 261 001a FFF7FEFF 		bl	chOQWriteTimeout
 262 001e 0346     		mov	r3, r0
 263              		.loc 1 97 0
 264 0020 1846     		mov	r0, r3
 265 0022 05B0     		add	sp, sp, #20
 266 0024 00BD     		pop	{pc}
 267              		.cfi_endproc
 268              	.LFE68:
 269              		.size	writet, .-writet
 270 0026 00BFAFF3 		.section	.text.readt,"ax",%progbits
 270      0080AFF3 
 270      0080
 271              		.align	2
 272              		.p2align 4,,15
 273              		.thumb
 274              		.thumb_func
ARM GAS  C:\Users\z80\AppData\Local\Temp\ccD8g6EC.s 			page 6


 275              		.type	readt, %function
 276              	readt:
 277              	.LFB69:
 278              		.loc 1 99 0
 279              		.cfi_startproc
 280              		@ args = 0, pretend = 0, frame = 16
 281              		@ frame_needed = 0, uses_anonymous_args = 0
 282 0000 00B5     		push	{lr}
 283              	.LCFI12:
 284              		.cfi_def_cfa_offset 4
 285              		.cfi_offset 14, -4
 286 0002 85B0     		sub	sp, sp, #20
 287              	.LCFI13:
 288              		.cfi_def_cfa_offset 24
 289 0004 0390     		str	r0, [sp, #12]
 290 0006 0291     		str	r1, [sp, #8]
 291 0008 0192     		str	r2, [sp, #4]
 292 000a 0093     		str	r3, [sp, #0]
 293              		.loc 1 101 0
 294 000c 039B     		ldr	r3, [sp, #12]
 295 000e 03F11003 		add	r3, r3, #16
 296 0012 1846     		mov	r0, r3
 297 0014 0299     		ldr	r1, [sp, #8]
 298 0016 019A     		ldr	r2, [sp, #4]
 299 0018 009B     		ldr	r3, [sp, #0]
 300 001a FFF7FEFF 		bl	chIQReadTimeout
 301 001e 0346     		mov	r3, r0
 302              		.loc 1 102 0
 303 0020 1846     		mov	r0, r3
 304 0022 05B0     		add	sp, sp, #20
 305 0024 00BD     		pop	{pc}
 306              		.cfi_endproc
 307              	.LFE69:
 308              		.size	readt, .-readt
 309 0026 00BFAFF3 		.section	.text.getflags,"ax",%progbits
 309      0080AFF3 
 309      0080
 310              		.align	2
 311              		.p2align 4,,15
 312              		.thumb
 313              		.thumb_func
 314              		.type	getflags, %function
 315              	getflags:
 316              	.LFB70:
 317              		.loc 1 104 0
 318              		.cfi_startproc
 319              		@ args = 0, pretend = 0, frame = 16
 320              		@ frame_needed = 0, uses_anonymous_args = 0
 321 0000 00B5     		push	{lr}
 322              	.LCFI14:
 323              		.cfi_def_cfa_offset 4
 324              		.cfi_offset 14, -4
 325 0002 85B0     		sub	sp, sp, #20
 326              	.LCFI15:
 327              		.cfi_def_cfa_offset 24
 328 0004 0190     		str	r0, [sp, #4]
 329              	.LBB2:
ARM GAS  C:\Users\z80\AppData\Local\Temp\ccD8g6EC.s 			page 7


 330              		.loc 1 105 0
 331 0006 4FF02003 		mov	r3, #32
 332              	@ 105 "../chibios_2.4.x/os/hal/src/serial.c" 1
 333 000a 83F31188 		msr     BASEPRI, r3
 334              	@ 0 "" 2
 335              		.thumb
 336              	.LBE2:
 337 000e FFF7FEFF 		bl	dbg_check_lock
 338 0012 019B     		ldr	r3, [sp, #4]
 339 0014 9B68     		ldr	r3, [r3, #8]
 340 0016 0393     		str	r3, [sp, #12]
 341 0018 019B     		ldr	r3, [sp, #4]
 342 001a 4FF00002 		mov	r2, #0
 343 001e 9A60     		str	r2, [r3, #8]
 344 0020 FFF7FEFF 		bl	dbg_check_unlock
 345              	.LBB3:
 346 0024 4FF00003 		mov	r3, #0
 347              	@ 105 "../chibios_2.4.x/os/hal/src/serial.c" 1
 348 0028 83F31188 		msr     BASEPRI, r3
 349              	@ 0 "" 2
 350              		.thumb
 351              	.LBE3:
 352 002c 039B     		ldr	r3, [sp, #12]
 353              		.loc 1 106 0
 354 002e 1846     		mov	r0, r3
 355 0030 05B0     		add	sp, sp, #20
 356 0032 00BD     		pop	{pc}
 357              		.cfi_endproc
 358              	.LFE70:
 359              		.size	getflags, .-getflags
 360 0034 AFF30080 		.section	.rodata.vmt,"a",%progbits
 360      AFF30080 
 360      AFF30080 
 361              		.align	2
 362              		.type	vmt, %object
 363              		.size	vmt, 36
 364              	vmt:
 365 0000 00000000 		.word	writes
 366 0004 00000000 		.word	reads
 367 0008 00000000 		.word	putwouldblock
 368 000c 00000000 		.word	getwouldblock
 369 0010 00000000 		.word	putt
 370 0014 00000000 		.word	gett
 371 0018 00000000 		.word	writet
 372 001c 00000000 		.word	readt
 373 0020 00000000 		.word	getflags
 374              		.section	.text.sdInit,"ax",%progbits
 375              		.align	2
 376              		.p2align 4,,15
 377              		.global	sdInit
 378              		.thumb
 379              		.thumb_func
 380              		.type	sdInit, %function
 381              	sdInit:
 382              	.LFB71:
 383              		.loc 1 125 0
 384              		.cfi_startproc
ARM GAS  C:\Users\z80\AppData\Local\Temp\ccD8g6EC.s 			page 8


 385              		@ args = 0, pretend = 0, frame = 0
 386              		@ frame_needed = 0, uses_anonymous_args = 0
 387 0000 08B5     		push	{r3, lr}
 388              	.LCFI16:
 389              		.cfi_def_cfa_offset 8
 390              		.cfi_offset 14, -4
 391              		.cfi_offset 3, -8
 392              		.loc 1 127 0
 393 0002 FFF7FEFF 		bl	sd_lld_init
 394              		.loc 1 128 0
 395 0006 08BD     		pop	{r3, pc}
 396              		.cfi_endproc
 397              	.LFE71:
 398              		.size	sdInit, .-sdInit
 399 0008 AFF30080 		.section	.text.sdObjectInit,"ax",%progbits
 399      AFF30080 
 400              		.align	2
 401              		.p2align 4,,15
 402              		.global	sdObjectInit
 403              		.thumb
 404              		.thumb_func
 405              		.type	sdObjectInit, %function
 406              	sdObjectInit:
 407              	.LFB72:
 408              		.loc 1 145 0
 409              		.cfi_startproc
 410              		@ args = 0, pretend = 0, frame = 16
 411              		@ frame_needed = 0, uses_anonymous_args = 0
 412 0000 00B5     		push	{lr}
 413              	.LCFI17:
 414              		.cfi_def_cfa_offset 4
 415              		.cfi_offset 14, -4
 416 0002 85B0     		sub	sp, sp, #20
 417              	.LCFI18:
 418              		.cfi_def_cfa_offset 24
 419 0004 0390     		str	r0, [sp, #12]
 420 0006 0291     		str	r1, [sp, #8]
 421 0008 0192     		str	r2, [sp, #4]
 422              		.loc 1 147 0
 423 000a 039A     		ldr	r2, [sp, #12]
 424 000c 40F20003 		movw	r3, #:lower16:vmt
 425 0010 C0F20003 		movt	r3, #:upper16:vmt
 426 0014 1360     		str	r3, [r2, #0]
 427              		.loc 1 148 0
 428 0016 039B     		ldr	r3, [sp, #12]
 429 0018 03F10402 		add	r2, r3, #4
 430 001c 039B     		ldr	r3, [sp, #12]
 431 001e 5A60     		str	r2, [r3, #4]
 432              		.loc 1 149 0
 433 0020 039B     		ldr	r3, [sp, #12]
 434 0022 4FF00002 		mov	r2, #0
 435 0026 9A60     		str	r2, [r3, #8]
 436              		.loc 1 150 0
 437 0028 039B     		ldr	r3, [sp, #12]
 438 002a 4FF00102 		mov	r2, #1
 439 002e 1A73     		strb	r2, [r3, #12]
 440              		.loc 1 151 0
ARM GAS  C:\Users\z80\AppData\Local\Temp\ccD8g6EC.s 			page 9


 441 0030 039B     		ldr	r3, [sp, #12]
 442 0032 03F11002 		add	r2, r3, #16
 443 0036 039B     		ldr	r3, [sp, #12]
 444 0038 03F15003 		add	r3, r3, #80
 445 003c 1046     		mov	r0, r2
 446 003e 1946     		mov	r1, r3
 447 0040 4FF40072 		mov	r2, #512
 448 0044 029B     		ldr	r3, [sp, #8]
 449 0046 FFF7FEFF 		bl	chIQInit
 450              		.loc 1 152 0
 451 004a 039B     		ldr	r3, [sp, #12]
 452 004c 03F13002 		add	r2, r3, #48
 453 0050 039B     		ldr	r3, [sp, #12]
 454 0052 03F51473 		add	r3, r3, #592
 455 0056 1046     		mov	r0, r2
 456 0058 1946     		mov	r1, r3
 457 005a 4FF40072 		mov	r2, #512
 458 005e 019B     		ldr	r3, [sp, #4]
 459 0060 FFF7FEFF 		bl	chOQInit
 460              		.loc 1 153 0
 461 0064 05B0     		add	sp, sp, #20
 462 0066 00BD     		pop	{pc}
 463              		.cfi_endproc
 464              	.LFE72:
 465              		.size	sdObjectInit, .-sdObjectInit
 466              		.section	.rodata
 467              		.align	2
 468              	.LC0:
 469 0000 22736453 		.ascii	"\"sdStart\"()\000"
 469      74617274 
 469      22282900 
 470              		.align	2
 471              	.LC1:
 472 000c 73645374 		.ascii	"sdStart(), #1\000"
 472      61727428 
 472      292C2023 
 472      3100
 473              		.section	.text.sdStart,"ax",%progbits
 474              		.align	2
 475              		.p2align 4,,15
 476              		.global	sdStart
 477              		.thumb
 478              		.thumb_func
 479              		.type	sdStart, %function
 480              	sdStart:
 481              	.LFB73:
 482              		.loc 1 165 0
 483              		.cfi_startproc
 484              		@ args = 0, pretend = 0, frame = 8
 485              		@ frame_needed = 0, uses_anonymous_args = 0
 486 0000 00B5     		push	{lr}
 487              	.LCFI19:
 488              		.cfi_def_cfa_offset 4
 489              		.cfi_offset 14, -4
 490 0002 83B0     		sub	sp, sp, #12
 491              	.LCFI20:
 492              		.cfi_def_cfa_offset 16
ARM GAS  C:\Users\z80\AppData\Local\Temp\ccD8g6EC.s 			page 10


 493 0004 0190     		str	r0, [sp, #4]
 494 0006 0091     		str	r1, [sp, #0]
 495              		.loc 1 167 0
 496 0008 019B     		ldr	r3, [sp, #4]
 497 000a 002B     		cmp	r3, #0
 498 000c 05D1     		bne	.L13
 499              		.loc 1 167 0 is_stmt 0 discriminator 1
 500 000e 40F20000 		movw	r0, #:lower16:.LC0
 501 0012 C0F20000 		movt	r0, #:upper16:.LC0
 502 0016 FFF7FEFF 		bl	chDbgPanic
 503              	.L13:
 504              	.LBB4:
 505              		.loc 1 169 0 is_stmt 1
 506 001a 4FF02003 		mov	r3, #32
 507              	@ 169 "../chibios_2.4.x/os/hal/src/serial.c" 1
 508 001e 83F31188 		msr     BASEPRI, r3
 509              	@ 0 "" 2
 510              		.thumb
 511              	.LBE4:
 512 0022 FFF7FEFF 		bl	dbg_check_lock
 513              		.loc 1 170 0
 514 0026 019B     		ldr	r3, [sp, #4]
 515 0028 1B7B     		ldrb	r3, [r3, #12]	@ zero_extendqisi2
 516 002a 012B     		cmp	r3, #1
 517 002c 09D0     		beq	.L14
 518              		.loc 1 170 0 is_stmt 0 discriminator 1
 519 002e 019B     		ldr	r3, [sp, #4]
 520 0030 1B7B     		ldrb	r3, [r3, #12]	@ zero_extendqisi2
 521 0032 022B     		cmp	r3, #2
 522 0034 05D0     		beq	.L14
 523              		.loc 1 170 0 discriminator 2
 524 0036 40F20000 		movw	r0, #:lower16:.LC1
 525 003a C0F20000 		movt	r0, #:upper16:.LC1
 526 003e FFF7FEFF 		bl	chDbgPanic
 527              	.L14:
 528              		.loc 1 173 0 is_stmt 1
 529 0042 0198     		ldr	r0, [sp, #4]
 530 0044 0099     		ldr	r1, [sp, #0]
 531 0046 FFF7FEFF 		bl	sd_lld_start
 532              		.loc 1 174 0
 533 004a 019B     		ldr	r3, [sp, #4]
 534 004c 4FF00202 		mov	r2, #2
 535 0050 1A73     		strb	r2, [r3, #12]
 536              		.loc 1 175 0
 537 0052 FFF7FEFF 		bl	dbg_check_unlock
 538              	.LBB5:
 539 0056 4FF00003 		mov	r3, #0
 540              	@ 175 "../chibios_2.4.x/os/hal/src/serial.c" 1
 541 005a 83F31188 		msr     BASEPRI, r3
 542              	@ 0 "" 2
 543              		.thumb
 544              	.LBE5:
 545              		.loc 1 176 0
 546 005e 03B0     		add	sp, sp, #12
 547 0060 00BD     		pop	{pc}
 548              		.cfi_endproc
 549              	.LFE73:
ARM GAS  C:\Users\z80\AppData\Local\Temp\ccD8g6EC.s 			page 11


 550              		.size	sdStart, .-sdStart
 551 0062 00BFAFF3 		.section	.rodata
 551      0080AFF3 
 551      0080AFF3 
 551      0080
 552 001a 0000     		.align	2
 553              	.LC2:
 554 001c 22736453 		.ascii	"\"sdStop\"()\000"
 554      746F7022 
 554      282900
 555 0027 00       		.align	2
 556              	.LC3:
 557 0028 73645374 		.ascii	"sdStop(), #1\000"
 557      6F702829 
 557      2C202331 
 557      00
 558              		.section	.text.sdStop,"ax",%progbits
 559              		.align	2
 560              		.p2align 4,,15
 561              		.global	sdStop
 562              		.thumb
 563              		.thumb_func
 564              		.type	sdStop, %function
 565              	sdStop:
 566              	.LFB74:
 567              		.loc 1 187 0
 568              		.cfi_startproc
 569              		@ args = 0, pretend = 0, frame = 8
 570              		@ frame_needed = 0, uses_anonymous_args = 0
 571 0000 00B5     		push	{lr}
 572              	.LCFI21:
 573              		.cfi_def_cfa_offset 4
 574              		.cfi_offset 14, -4
 575 0002 83B0     		sub	sp, sp, #12
 576              	.LCFI22:
 577              		.cfi_def_cfa_offset 16
 578 0004 0190     		str	r0, [sp, #4]
 579              		.loc 1 189 0
 580 0006 019B     		ldr	r3, [sp, #4]
 581 0008 002B     		cmp	r3, #0
 582 000a 05D1     		bne	.L16
 583              		.loc 1 189 0 is_stmt 0 discriminator 1
 584 000c 40F20000 		movw	r0, #:lower16:.LC2
 585 0010 C0F20000 		movt	r0, #:upper16:.LC2
 586 0014 FFF7FEFF 		bl	chDbgPanic
 587              	.L16:
 588              	.LBB6:
 589              		.loc 1 191 0 is_stmt 1
 590 0018 4FF02003 		mov	r3, #32
 591              	@ 191 "../chibios_2.4.x/os/hal/src/serial.c" 1
 592 001c 83F31188 		msr     BASEPRI, r3
 593              	@ 0 "" 2
 594              		.thumb
 595              	.LBE6:
 596 0020 FFF7FEFF 		bl	dbg_check_lock
 597              		.loc 1 192 0
 598 0024 019B     		ldr	r3, [sp, #4]
ARM GAS  C:\Users\z80\AppData\Local\Temp\ccD8g6EC.s 			page 12


 599 0026 1B7B     		ldrb	r3, [r3, #12]	@ zero_extendqisi2
 600 0028 012B     		cmp	r3, #1
 601 002a 09D0     		beq	.L17
 602              		.loc 1 192 0 is_stmt 0 discriminator 1
 603 002c 019B     		ldr	r3, [sp, #4]
 604 002e 1B7B     		ldrb	r3, [r3, #12]	@ zero_extendqisi2
 605 0030 022B     		cmp	r3, #2
 606 0032 05D0     		beq	.L17
 607              		.loc 1 192 0 discriminator 2
 608 0034 40F20000 		movw	r0, #:lower16:.LC3
 609 0038 C0F20000 		movt	r0, #:upper16:.LC3
 610 003c FFF7FEFF 		bl	chDbgPanic
 611              	.L17:
 612              		.loc 1 195 0 is_stmt 1
 613 0040 0198     		ldr	r0, [sp, #4]
 614 0042 FFF7FEFF 		bl	sd_lld_stop
 615              		.loc 1 196 0
 616 0046 019B     		ldr	r3, [sp, #4]
 617 0048 4FF00102 		mov	r2, #1
 618 004c 1A73     		strb	r2, [r3, #12]
 619              		.loc 1 197 0
 620 004e 019B     		ldr	r3, [sp, #4]
 621 0050 03F13003 		add	r3, r3, #48
 622 0054 1846     		mov	r0, r3
 623 0056 FFF7FEFF 		bl	chOQResetI
 624              		.loc 1 198 0
 625 005a 019B     		ldr	r3, [sp, #4]
 626 005c 03F11003 		add	r3, r3, #16
 627 0060 1846     		mov	r0, r3
 628 0062 FFF7FEFF 		bl	chIQResetI
 629              		.loc 1 199 0
 630 0066 FFF7FEFF 		bl	chSchRescheduleS
 631              		.loc 1 200 0
 632 006a FFF7FEFF 		bl	dbg_check_unlock
 633              	.LBB7:
 634 006e 4FF00003 		mov	r3, #0
 635              	@ 200 "../chibios_2.4.x/os/hal/src/serial.c" 1
 636 0072 83F31188 		msr     BASEPRI, r3
 637              	@ 0 "" 2
 638              		.thumb
 639              	.LBE7:
 640              		.loc 1 201 0
 641 0076 03B0     		add	sp, sp, #12
 642 0078 00BD     		pop	{pc}
 643              		.cfi_endproc
 644              	.LFE74:
 645              		.size	sdStop, .-sdStop
 646 007a 00BFAFF3 		.section	.rodata
 646      0080
 647 0035 000000   		.align	2
 648              	.LC4:
 649 0038 22736449 		.ascii	"\"sdIncomingDataI\"()\000"
 649      6E636F6D 
 649      696E6744 
 649      61746149 
 649      22282900 
 650              		.section	.text.sdIncomingDataI,"ax",%progbits
ARM GAS  C:\Users\z80\AppData\Local\Temp\ccD8g6EC.s 			page 13


 651              		.align	2
 652              		.p2align 4,,15
 653              		.global	sdIncomingDataI
 654              		.thumb
 655              		.thumb_func
 656              		.type	sdIncomingDataI, %function
 657              	sdIncomingDataI:
 658              	.LFB75:
 659              		.loc 1 219 0
 660              		.cfi_startproc
 661              		@ args = 0, pretend = 0, frame = 8
 662              		@ frame_needed = 0, uses_anonymous_args = 0
 663 0000 00B5     		push	{lr}
 664              	.LCFI23:
 665              		.cfi_def_cfa_offset 4
 666              		.cfi_offset 14, -4
 667 0002 83B0     		sub	sp, sp, #12
 668              	.LCFI24:
 669              		.cfi_def_cfa_offset 16
 670 0004 0190     		str	r0, [sp, #4]
 671 0006 0B46     		mov	r3, r1
 672 0008 8DF80330 		strb	r3, [sp, #3]
 673              		.loc 1 221 0
 674 000c FFF7FEFF 		bl	chDbgCheckClassI
 675              		.loc 1 222 0
 676 0010 019B     		ldr	r3, [sp, #4]
 677 0012 002B     		cmp	r3, #0
 678 0014 05D1     		bne	.L19
 679              		.loc 1 222 0 is_stmt 0 discriminator 1
 680 0016 40F20000 		movw	r0, #:lower16:.LC4
 681 001a C0F20000 		movt	r0, #:upper16:.LC4
 682 001e FFF7FEFF 		bl	chDbgPanic
 683              	.L19:
 684              		.loc 1 224 0 is_stmt 1
 685 0022 019B     		ldr	r3, [sp, #4]
 686 0024 9B69     		ldr	r3, [r3, #24]
 687 0026 002B     		cmp	r3, #0
 688 0028 0DD1     		bne	.L20
 689              		.loc 1 225 0
 690 002a 019B     		ldr	r3, [sp, #4]
 691 002c 9B68     		ldr	r3, [r3, #8]
 692 002e 43F00402 		orr	r2, r3, #4
 693 0032 019B     		ldr	r3, [sp, #4]
 694 0034 9A60     		str	r2, [r3, #8]
 695 0036 019B     		ldr	r3, [sp, #4]
 696 0038 03F10403 		add	r3, r3, #4
 697 003c 1846     		mov	r0, r3
 698 003e 4FF00001 		mov	r1, #0
 699 0042 FFF7FEFF 		bl	chEvtBroadcastFlagsI
 700              	.L20:
 701              		.loc 1 226 0
 702 0046 019B     		ldr	r3, [sp, #4]
 703 0048 03F11002 		add	r2, r3, #16
 704 004c 9DF80330 		ldrb	r3, [sp, #3]	@ zero_extendqisi2
 705 0050 1046     		mov	r0, r2
 706 0052 1946     		mov	r1, r3
 707 0054 FFF7FEFF 		bl	chIQPutI
ARM GAS  C:\Users\z80\AppData\Local\Temp\ccD8g6EC.s 			page 14


 708 0058 0346     		mov	r3, r0
 709 005a 002B     		cmp	r3, #0
 710 005c 0DDA     		bge	.L18
 711              		.loc 1 227 0
 712 005e 019B     		ldr	r3, [sp, #4]
 713 0060 9B68     		ldr	r3, [r3, #8]
 714 0062 43F08002 		orr	r2, r3, #128
 715 0066 019B     		ldr	r3, [sp, #4]
 716 0068 9A60     		str	r2, [r3, #8]
 717 006a 019B     		ldr	r3, [sp, #4]
 718 006c 03F10403 		add	r3, r3, #4
 719 0070 1846     		mov	r0, r3
 720 0072 4FF00001 		mov	r1, #0
 721 0076 FFF7FEFF 		bl	chEvtBroadcastFlagsI
 722              	.L18:
 723              		.loc 1 228 0
 724 007a 03B0     		add	sp, sp, #12
 725 007c 00BD     		pop	{pc}
 726              		.cfi_endproc
 727              	.LFE75:
 728              		.size	sdIncomingDataI, .-sdIncomingDataI
 729 007e 00BF     		.section	.rodata
 730              		.align	2
 731              	.LC5:
 732 004c 22736452 		.ascii	"\"sdRequestDataI\"()\000"
 732      65717565 
 732      73744461 
 732      74614922 
 732      282900
 733 005f 00       		.section	.text.sdRequestDataI,"ax",%progbits
 734              		.align	2
 735              		.p2align 4,,15
 736              		.global	sdRequestDataI
 737              		.thumb
 738              		.thumb_func
 739              		.type	sdRequestDataI, %function
 740              	sdRequestDataI:
 741              	.LFB76:
 742              		.loc 1 245 0
 743              		.cfi_startproc
 744              		@ args = 0, pretend = 0, frame = 16
 745              		@ frame_needed = 0, uses_anonymous_args = 0
 746 0000 00B5     		push	{lr}
 747              	.LCFI25:
 748              		.cfi_def_cfa_offset 4
 749              		.cfi_offset 14, -4
 750 0002 85B0     		sub	sp, sp, #20
 751              	.LCFI26:
 752              		.cfi_def_cfa_offset 24
 753 0004 0190     		str	r0, [sp, #4]
 754              		.loc 1 248 0
 755 0006 FFF7FEFF 		bl	chDbgCheckClassI
 756              		.loc 1 249 0
 757 000a 019B     		ldr	r3, [sp, #4]
 758 000c 002B     		cmp	r3, #0
 759 000e 05D1     		bne	.L23
 760              		.loc 1 249 0 is_stmt 0 discriminator 1
ARM GAS  C:\Users\z80\AppData\Local\Temp\ccD8g6EC.s 			page 15


 761 0010 40F20000 		movw	r0, #:lower16:.LC5
 762 0014 C0F20000 		movt	r0, #:upper16:.LC5
 763 0018 FFF7FEFF 		bl	chDbgPanic
 764              	.L23:
 765              		.loc 1 251 0 is_stmt 1
 766 001c 019B     		ldr	r3, [sp, #4]
 767 001e 03F13003 		add	r3, r3, #48
 768 0022 1846     		mov	r0, r3
 769 0024 FFF7FEFF 		bl	chOQGetI
 770 0028 0390     		str	r0, [sp, #12]
 771              		.loc 1 252 0
 772 002a 039B     		ldr	r3, [sp, #12]
 773 002c 002B     		cmp	r3, #0
 774 002e 0DDA     		bge	.L24
 775              		.loc 1 253 0
 776 0030 019B     		ldr	r3, [sp, #4]
 777 0032 9B68     		ldr	r3, [r3, #8]
 778 0034 43F00802 		orr	r2, r3, #8
 779 0038 019B     		ldr	r3, [sp, #4]
 780 003a 9A60     		str	r2, [r3, #8]
 781 003c 019B     		ldr	r3, [sp, #4]
 782 003e 03F10403 		add	r3, r3, #4
 783 0042 1846     		mov	r0, r3
 784 0044 4FF00001 		mov	r1, #0
 785 0048 FFF7FEFF 		bl	chEvtBroadcastFlagsI
 786              	.L24:
 787              		.loc 1 254 0
 788 004c 039B     		ldr	r3, [sp, #12]
 789              		.loc 1 255 0
 790 004e 1846     		mov	r0, r3
 791 0050 05B0     		add	sp, sp, #20
 792 0052 00BD     		pop	{pc}
 793              		.cfi_endproc
 794              	.LFE76:
 795              		.size	sdRequestDataI, .-sdRequestDataI
 796 0054 AFF30080 		.text
 796      AFF30080 
 796      AFF30080 
 797              	.Letext0:
 798              		.file 2 "c:\\programs\\codesourcery\\2011.03-56\\bin\\../lib/gcc/arm-none-eabi/4.6.3/include/stdde
 799              		.file 3 "c:\\programs\\codesourcery\\2011.03-56\\bin\\../lib/gcc/arm-none-eabi/4.6.3/../../../../a
 800              		.file 4 "../chibios_2.4.x/os/ports/GCC/ARMCMx/chtypes.h"
 801              		.file 5 "../chibios_2.4.x/os/kernel/include/chlists.h"
 802              		.file 6 "../chibios_2.4.x/os/kernel/include/chthreads.h"
 803              		.file 7 "../chibios_2.4.x/os/ports/GCC/ARMCMx/chcore_v7m.h"
 804              		.file 8 "../chibios_2.4.x/os/kernel/include/chmtx.h"
 805              		.file 9 "../chibios_2.4.x/os/kernel/include/chevents.h"
 806              		.file 10 "../chibios_2.4.x/os/kernel/include/chqueues.h"
 807              		.file 11 "../chibios_2.4.x/os/kernel/include/chioch.h"
 808              		.file 12 "../chibios_2.4.x/os/hal/platforms/STM32F1xx/stm32f10x.h"
 809              		.file 13 "../chibios_2.4.x/os/hal/include/serial.h"
 810              		.file 14 "../chibios_2.4.x/os/hal/platforms/STM32/serial_lld.h"
 811              		.file 15 "../chibios_2.4.x/os/ports/common/ARMCMx/CMSIS/include/core_cm3.h"
 812              		.section	.debug_info,"",%progbits
 813              	.Ldebug_info0:
 814 0000 AB0D0000 		.4byte	0xdab
 815 0004 0200     		.2byte	0x2
ARM GAS  C:\Users\z80\AppData\Local\Temp\ccD8g6EC.s 			page 16


 816 0006 00000000 		.4byte	.Ldebug_abbrev0
 817 000a 04       		.byte	0x4
 818 000b 01       		.uleb128 0x1
 819 000c DA030000 		.4byte	.LASF123
 820 0010 01       		.byte	0x1
 821 0011 00000000 		.4byte	.LASF124
 822 0015 F1000000 		.4byte	.LASF125
 823 0019 00000000 		.4byte	0
 824 001d 00000000 		.4byte	0
 825 0021 00000000 		.4byte	.Ldebug_ranges0+0
 826 0025 00000000 		.4byte	.Ldebug_line0
 827 0029 02       		.uleb128 0x2
 828 002a 04       		.byte	0x4
 829 002b 05       		.byte	0x5
 830 002c 696E7400 		.ascii	"int\000"
 831 0030 03       		.uleb128 0x3
 832 0031 2E000000 		.4byte	.LASF2
 833 0035 02       		.byte	0x2
 834 0036 D4       		.byte	0xd4
 835 0037 3B000000 		.4byte	0x3b
 836 003b 04       		.uleb128 0x4
 837 003c 04       		.byte	0x4
 838 003d 07       		.byte	0x7
 839 003e 92010000 		.4byte	.LASF0
 840 0042 04       		.uleb128 0x4
 841 0043 01       		.byte	0x1
 842 0044 06       		.byte	0x6
 843 0045 C9000000 		.4byte	.LASF1
 844 0049 03       		.uleb128 0x3
 845 004a A0040000 		.4byte	.LASF3
 846 004e 03       		.byte	0x3
 847 004f 2A       		.byte	0x2a
 848 0050 54000000 		.4byte	0x54
 849 0054 04       		.uleb128 0x4
 850 0055 01       		.byte	0x1
 851 0056 08       		.byte	0x8
 852 0057 32030000 		.4byte	.LASF4
 853 005b 04       		.uleb128 0x4
 854 005c 02       		.byte	0x2
 855 005d 05       		.byte	0x5
 856 005e 6C030000 		.4byte	.LASF5
 857 0062 03       		.uleb128 0x3
 858 0063 9F010000 		.4byte	.LASF6
 859 0067 03       		.byte	0x3
 860 0068 36       		.byte	0x36
 861 0069 6D000000 		.4byte	0x6d
 862 006d 04       		.uleb128 0x4
 863 006e 02       		.byte	0x2
 864 006f 07       		.byte	0x7
 865 0070 EC010000 		.4byte	.LASF7
 866 0074 03       		.uleb128 0x3
 867 0075 2A030000 		.4byte	.LASF8
 868 0079 03       		.byte	0x3
 869 007a 4F       		.byte	0x4f
 870 007b 7F000000 		.4byte	0x7f
 871 007f 04       		.uleb128 0x4
 872 0080 04       		.byte	0x4
ARM GAS  C:\Users\z80\AppData\Local\Temp\ccD8g6EC.s 			page 17


 873 0081 05       		.byte	0x5
 874 0082 24010000 		.4byte	.LASF9
 875 0086 03       		.uleb128 0x3
 876 0087 BA030000 		.4byte	.LASF10
 877 008b 03       		.byte	0x3
 878 008c 50       		.byte	0x50
 879 008d 91000000 		.4byte	0x91
 880 0091 04       		.uleb128 0x4
 881 0092 04       		.byte	0x4
 882 0093 07       		.byte	0x7
 883 0094 E6030000 		.4byte	.LASF11
 884 0098 04       		.uleb128 0x4
 885 0099 08       		.byte	0x8
 886 009a 05       		.byte	0x5
 887 009b BB000000 		.4byte	.LASF12
 888 009f 03       		.uleb128 0x3
 889 00a0 3C000000 		.4byte	.LASF13
 890 00a4 03       		.byte	0x3
 891 00a5 78       		.byte	0x78
 892 00a6 AA000000 		.4byte	0xaa
 893 00aa 04       		.uleb128 0x4
 894 00ab 08       		.byte	0x8
 895 00ac 07       		.byte	0x7
 896 00ad 6B000000 		.4byte	.LASF14
 897 00b1 03       		.uleb128 0x3
 898 00b2 5D000000 		.4byte	.LASF15
 899 00b6 03       		.byte	0x3
 900 00b7 A6       		.byte	0xa6
 901 00b8 3B000000 		.4byte	0x3b
 902 00bc 03       		.uleb128 0x3
 903 00bd E2000000 		.4byte	.LASF16
 904 00c1 04       		.byte	0x4
 905 00c2 2E       		.byte	0x2e
 906 00c3 74000000 		.4byte	0x74
 907 00c7 03       		.uleb128 0x3
 908 00c8 1A020000 		.4byte	.LASF17
 909 00cc 04       		.byte	0x4
 910 00cd 2F       		.byte	0x2f
 911 00ce 49000000 		.4byte	0x49
 912 00d2 03       		.uleb128 0x3
 913 00d3 2D010000 		.4byte	.LASF18
 914 00d7 04       		.byte	0x4
 915 00d8 30       		.byte	0x30
 916 00d9 49000000 		.4byte	0x49
 917 00dd 03       		.uleb128 0x3
 918 00de 1A030000 		.4byte	.LASF19
 919 00e2 04       		.byte	0x4
 920 00e3 32       		.byte	0x32
 921 00e4 86000000 		.4byte	0x86
 922 00e8 03       		.uleb128 0x3
 923 00e9 FF010000 		.4byte	.LASF20
 924 00ed 04       		.byte	0x4
 925 00ee 33       		.byte	0x33
 926 00ef 74000000 		.4byte	0x74
 927 00f3 03       		.uleb128 0x3
 928 00f4 51000000 		.4byte	.LASF21
 929 00f8 04       		.byte	0x4
ARM GAS  C:\Users\z80\AppData\Local\Temp\ccD8g6EC.s 			page 18


 930 00f9 35       		.byte	0x35
 931 00fa 86000000 		.4byte	0x86
 932 00fe 03       		.uleb128 0x3
 933 00ff 28040000 		.4byte	.LASF22
 934 0103 04       		.byte	0x4
 935 0104 36       		.byte	0x36
 936 0105 86000000 		.4byte	0x86
 937 0109 03       		.uleb128 0x3
 938 010a 94030000 		.4byte	.LASF23
 939 010e 05       		.byte	0x5
 940 010f 2A       		.byte	0x2a
 941 0110 14010000 		.4byte	0x114
 942 0114 05       		.uleb128 0x5
 943 0115 94030000 		.4byte	.LASF23
 944 0119 48       		.byte	0x48
 945 011a 06       		.byte	0x6
 946 011b 5E       		.byte	0x5e
 947 011c 1D020000 		.4byte	0x21d
 948 0120 06       		.uleb128 0x6
 949 0121 7D030000 		.4byte	.LASF24
 950 0125 06       		.byte	0x6
 951 0126 5F       		.byte	0x5f
 952 0127 42020000 		.4byte	0x242
 953 012b 02       		.byte	0x2
 954 012c 23       		.byte	0x23
 955 012d 00       		.uleb128 0
 956 012e 06       		.uleb128 0x6
 957 012f 09030000 		.4byte	.LASF25
 958 0133 06       		.byte	0x6
 959 0134 61       		.byte	0x61
 960 0135 42020000 		.4byte	0x242
 961 0139 02       		.byte	0x2
 962 013a 23       		.byte	0x23
 963 013b 04       		.uleb128 0x4
 964 013c 06       		.uleb128 0x6
 965 013d 7C020000 		.4byte	.LASF26
 966 0141 06       		.byte	0x6
 967 0142 63       		.byte	0x63
 968 0143 DD000000 		.4byte	0xdd
 969 0147 02       		.byte	0x2
 970 0148 23       		.byte	0x23
 971 0149 08       		.uleb128 0x8
 972 014a 06       		.uleb128 0x6
 973 014b FD040000 		.4byte	.LASF27
 974 014f 06       		.byte	0x6
 975 0150 64       		.byte	0x64
 976 0151 1A030000 		.4byte	0x31a
 977 0155 02       		.byte	0x2
 978 0156 23       		.byte	0x23
 979 0157 0C       		.uleb128 0xc
 980 0158 06       		.uleb128 0x6
 981 0159 47010000 		.4byte	.LASF28
 982 015d 06       		.byte	0x6
 983 015e 66       		.byte	0x66
 984 015f 42020000 		.4byte	0x242
 985 0163 02       		.byte	0x2
 986 0164 23       		.byte	0x23
ARM GAS  C:\Users\z80\AppData\Local\Temp\ccD8g6EC.s 			page 19


 987 0165 10       		.uleb128 0x10
 988 0166 06       		.uleb128 0x6
 989 0167 8B020000 		.4byte	.LASF29
 990 016b 06       		.byte	0x6
 991 016c 67       		.byte	0x67
 992 016d 42020000 		.4byte	0x242
 993 0171 02       		.byte	0x2
 994 0172 23       		.byte	0x23
 995 0173 14       		.uleb128 0x14
 996 0174 06       		.uleb128 0x6
 997 0175 73040000 		.4byte	.LASF30
 998 0179 06       		.byte	0x6
 999 017a 6E       		.byte	0x6e
 1000 017b 2D040000 		.4byte	0x42d
 1001 017f 02       		.byte	0x2
 1002 0180 23       		.byte	0x23
 1003 0181 18       		.uleb128 0x18
 1004 0182 06       		.uleb128 0x6
 1005 0183 B3020000 		.4byte	.LASF31
 1006 0187 06       		.byte	0x6
 1007 0188 74       		.byte	0x74
 1008 0189 3F040000 		.4byte	0x43f
 1009 018d 02       		.byte	0x2
 1010 018e 23       		.byte	0x23
 1011 018f 1C       		.uleb128 0x1c
 1012 0190 06       		.uleb128 0x6
 1013 0191 5A030000 		.4byte	.LASF32
 1014 0195 06       		.byte	0x6
 1015 0196 79       		.byte	0x79
 1016 0197 D2000000 		.4byte	0xd2
 1017 019b 02       		.byte	0x2
 1018 019c 23       		.byte	0x23
 1019 019d 20       		.uleb128 0x20
 1020 019e 06       		.uleb128 0x6
 1021 019f 84030000 		.4byte	.LASF33
 1022 01a3 06       		.byte	0x6
 1023 01a4 7D       		.byte	0x7d
 1024 01a5 C7000000 		.4byte	0xc7
 1025 01a9 02       		.byte	0x2
 1026 01aa 23       		.byte	0x23
 1027 01ab 21       		.uleb128 0x21
 1028 01ac 06       		.uleb128 0x6
 1029 01ad B8010000 		.4byte	.LASF34
 1030 01b1 06       		.byte	0x6
 1031 01b2 89       		.byte	0x89
 1032 01b3 3D030000 		.4byte	0x33d
 1033 01b7 02       		.byte	0x2
 1034 01b8 23       		.byte	0x23
 1035 01b9 24       		.uleb128 0x24
 1036 01ba 07       		.uleb128 0x7
 1037 01bb 705F7500 		.ascii	"p_u\000"
 1038 01bf 06       		.byte	0x6
 1039 01c0 AE       		.byte	0xae
 1040 01c1 F8030000 		.4byte	0x3f8
 1041 01c5 02       		.byte	0x2
 1042 01c6 23       		.byte	0x23
 1043 01c7 28       		.uleb128 0x28
ARM GAS  C:\Users\z80\AppData\Local\Temp\ccD8g6EC.s 			page 20


 1044 01c8 06       		.uleb128 0x6
 1045 01c9 03050000 		.4byte	.LASF35
 1046 01cd 06       		.byte	0x6
 1047 01ce B3       		.byte	0xb3
 1048 01cf 6A020000 		.4byte	0x26a
 1049 01d3 02       		.byte	0x2
 1050 01d4 23       		.byte	0x23
 1051 01d5 2C       		.uleb128 0x2c
 1052 01d6 06       		.uleb128 0x6
 1053 01d7 CE010000 		.4byte	.LASF36
 1054 01db 06       		.byte	0x6
 1055 01dc B9       		.byte	0xb9
 1056 01dd 48020000 		.4byte	0x248
 1057 01e1 02       		.byte	0x2
 1058 01e2 23       		.byte	0x23
 1059 01e3 30       		.uleb128 0x30
 1060 01e4 06       		.uleb128 0x6
 1061 01e5 8B040000 		.4byte	.LASF37
 1062 01e9 06       		.byte	0x6
 1063 01ea BD       		.byte	0xbd
 1064 01eb E8000000 		.4byte	0xe8
 1065 01ef 02       		.byte	0x2
 1066 01f0 23       		.byte	0x23
 1067 01f1 38       		.uleb128 0x38
 1068 01f2 06       		.uleb128 0x6
 1069 01f3 9B030000 		.4byte	.LASF38
 1070 01f7 06       		.byte	0x6
 1071 01f8 C3       		.byte	0xc3
 1072 01f9 F3000000 		.4byte	0xf3
 1073 01fd 02       		.byte	0x2
 1074 01fe 23       		.byte	0x23
 1075 01ff 3C       		.uleb128 0x3c
 1076 0200 06       		.uleb128 0x6
 1077 0201 62030000 		.4byte	.LASF39
 1078 0205 06       		.byte	0x6
 1079 0206 CA       		.byte	0xca
 1080 0207 45040000 		.4byte	0x445
 1081 020b 02       		.byte	0x2
 1082 020c 23       		.byte	0x23
 1083 020d 40       		.uleb128 0x40
 1084 020e 06       		.uleb128 0x6
 1085 020f 32040000 		.4byte	.LASF40
 1086 0213 06       		.byte	0x6
 1087 0214 CE       		.byte	0xce
 1088 0215 DD000000 		.4byte	0xdd
 1089 0219 02       		.byte	0x2
 1090 021a 23       		.byte	0x23
 1091 021b 44       		.uleb128 0x44
 1092 021c 00       		.byte	0
 1093 021d 08       		.uleb128 0x8
 1094 021e 08       		.byte	0x8
 1095 021f 05       		.byte	0x5
 1096 0220 61       		.byte	0x61
 1097 0221 42020000 		.4byte	0x242
 1098 0225 06       		.uleb128 0x6
 1099 0226 7D030000 		.4byte	.LASF24
 1100 022a 05       		.byte	0x5
ARM GAS  C:\Users\z80\AppData\Local\Temp\ccD8g6EC.s 			page 21


 1101 022b 62       		.byte	0x62
 1102 022c 42020000 		.4byte	0x242
 1103 0230 02       		.byte	0x2
 1104 0231 23       		.byte	0x23
 1105 0232 00       		.uleb128 0
 1106 0233 06       		.uleb128 0x6
 1107 0234 09030000 		.4byte	.LASF25
 1108 0238 05       		.byte	0x5
 1109 0239 64       		.byte	0x64
 1110 023a 42020000 		.4byte	0x242
 1111 023e 02       		.byte	0x2
 1112 023f 23       		.byte	0x23
 1113 0240 04       		.uleb128 0x4
 1114 0241 00       		.byte	0
 1115 0242 09       		.uleb128 0x9
 1116 0243 04       		.byte	0x4
 1117 0244 09010000 		.4byte	0x109
 1118 0248 03       		.uleb128 0x3
 1119 0249 A6020000 		.4byte	.LASF41
 1120 024d 05       		.byte	0x5
 1121 024e 66       		.byte	0x66
 1122 024f 1D020000 		.4byte	0x21d
 1123 0253 08       		.uleb128 0x8
 1124 0254 04       		.byte	0x4
 1125 0255 05       		.byte	0x5
 1126 0256 6B       		.byte	0x6b
 1127 0257 6A020000 		.4byte	0x26a
 1128 025b 06       		.uleb128 0x6
 1129 025c 7D030000 		.4byte	.LASF24
 1130 0260 05       		.byte	0x5
 1131 0261 6D       		.byte	0x6d
 1132 0262 42020000 		.4byte	0x242
 1133 0266 02       		.byte	0x2
 1134 0267 23       		.byte	0x23
 1135 0268 00       		.uleb128 0
 1136 0269 00       		.byte	0
 1137 026a 03       		.uleb128 0x3
 1138 026b 22020000 		.4byte	.LASF42
 1139 026f 05       		.byte	0x5
 1140 0270 70       		.byte	0x70
 1141 0271 53020000 		.4byte	0x253
 1142 0275 03       		.uleb128 0x3
 1143 0276 62010000 		.4byte	.LASF43
 1144 027a 07       		.byte	0x7
 1145 027b D7       		.byte	0xd7
 1146 027c 80020000 		.4byte	0x280
 1147 0280 0A       		.uleb128 0xa
 1148 0281 04       		.byte	0x4
 1149 0282 03       		.uleb128 0x3
 1150 0283 56020000 		.4byte	.LASF44
 1151 0287 07       		.byte	0x7
 1152 0288 DD       		.byte	0xdd
 1153 0289 9F000000 		.4byte	0x9f
 1154 028d 05       		.uleb128 0x5
 1155 028e 5D040000 		.4byte	.LASF45
 1156 0292 24       		.byte	0x24
 1157 0293 07       		.byte	0x7
ARM GAS  C:\Users\z80\AppData\Local\Temp\ccD8g6EC.s 			page 22


 1158 0294 FE       		.byte	0xfe
 1159 0295 1A030000 		.4byte	0x31a
 1160 0299 0B       		.uleb128 0xb
 1161 029a 723400   		.ascii	"r4\000"
 1162 029d 07       		.byte	0x7
 1163 029e 1101     		.2byte	0x111
 1164 02a0 75020000 		.4byte	0x275
 1165 02a4 02       		.byte	0x2
 1166 02a5 23       		.byte	0x23
 1167 02a6 00       		.uleb128 0
 1168 02a7 0B       		.uleb128 0xb
 1169 02a8 723500   		.ascii	"r5\000"
 1170 02ab 07       		.byte	0x7
 1171 02ac 1201     		.2byte	0x112
 1172 02ae 75020000 		.4byte	0x275
 1173 02b2 02       		.byte	0x2
 1174 02b3 23       		.byte	0x23
 1175 02b4 04       		.uleb128 0x4
 1176 02b5 0B       		.uleb128 0xb
 1177 02b6 723600   		.ascii	"r6\000"
 1178 02b9 07       		.byte	0x7
 1179 02ba 1301     		.2byte	0x113
 1180 02bc 75020000 		.4byte	0x275
 1181 02c0 02       		.byte	0x2
 1182 02c1 23       		.byte	0x23
 1183 02c2 08       		.uleb128 0x8
 1184 02c3 0B       		.uleb128 0xb
 1185 02c4 723700   		.ascii	"r7\000"
 1186 02c7 07       		.byte	0x7
 1187 02c8 1401     		.2byte	0x114
 1188 02ca 75020000 		.4byte	0x275
 1189 02ce 02       		.byte	0x2
 1190 02cf 23       		.byte	0x23
 1191 02d0 0C       		.uleb128 0xc
 1192 02d1 0B       		.uleb128 0xb
 1193 02d2 723800   		.ascii	"r8\000"
 1194 02d5 07       		.byte	0x7
 1195 02d6 1501     		.2byte	0x115
 1196 02d8 75020000 		.4byte	0x275
 1197 02dc 02       		.byte	0x2
 1198 02dd 23       		.byte	0x23
 1199 02de 10       		.uleb128 0x10
 1200 02df 0B       		.uleb128 0xb
 1201 02e0 723900   		.ascii	"r9\000"
 1202 02e3 07       		.byte	0x7
 1203 02e4 1601     		.2byte	0x116
 1204 02e6 75020000 		.4byte	0x275
 1205 02ea 02       		.byte	0x2
 1206 02eb 23       		.byte	0x23
 1207 02ec 14       		.uleb128 0x14
 1208 02ed 0B       		.uleb128 0xb
 1209 02ee 72313000 		.ascii	"r10\000"
 1210 02f2 07       		.byte	0x7
 1211 02f3 1701     		.2byte	0x117
 1212 02f5 75020000 		.4byte	0x275
 1213 02f9 02       		.byte	0x2
 1214 02fa 23       		.byte	0x23
ARM GAS  C:\Users\z80\AppData\Local\Temp\ccD8g6EC.s 			page 23


 1215 02fb 18       		.uleb128 0x18
 1216 02fc 0B       		.uleb128 0xb
 1217 02fd 72313100 		.ascii	"r11\000"
 1218 0301 07       		.byte	0x7
 1219 0302 1801     		.2byte	0x118
 1220 0304 75020000 		.4byte	0x275
 1221 0308 02       		.byte	0x2
 1222 0309 23       		.byte	0x23
 1223 030a 1C       		.uleb128 0x1c
 1224 030b 0B       		.uleb128 0xb
 1225 030c 6C7200   		.ascii	"lr\000"
 1226 030f 07       		.byte	0x7
 1227 0310 1901     		.2byte	0x119
 1228 0312 75020000 		.4byte	0x275
 1229 0316 02       		.byte	0x2
 1230 0317 23       		.byte	0x23
 1231 0318 20       		.uleb128 0x20
 1232 0319 00       		.byte	0
 1233 031a 0C       		.uleb128 0xc
 1234 031b 55040000 		.4byte	.LASF46
 1235 031f 04       		.byte	0x4
 1236 0320 07       		.byte	0x7
 1237 0321 2301     		.2byte	0x123
 1238 0323 37030000 		.4byte	0x337
 1239 0327 0B       		.uleb128 0xb
 1240 0328 72313300 		.ascii	"r13\000"
 1241 032c 07       		.byte	0x7
 1242 032d 2401     		.2byte	0x124
 1243 032f 37030000 		.4byte	0x337
 1244 0333 02       		.byte	0x2
 1245 0334 23       		.byte	0x23
 1246 0335 00       		.uleb128 0
 1247 0336 00       		.byte	0
 1248 0337 09       		.uleb128 0x9
 1249 0338 04       		.byte	0x4
 1250 0339 8D020000 		.4byte	0x28d
 1251 033d 0D       		.uleb128 0xd
 1252 033e FE000000 		.4byte	0xfe
 1253 0342 05       		.uleb128 0x5
 1254 0343 76020000 		.4byte	.LASF47
 1255 0347 10       		.byte	0x10
 1256 0348 08       		.byte	0x8
 1257 0349 2C       		.byte	0x2c
 1258 034a 79030000 		.4byte	0x379
 1259 034e 06       		.uleb128 0x6
 1260 034f E9000000 		.4byte	.LASF48
 1261 0353 08       		.byte	0x8
 1262 0354 2D       		.byte	0x2d
 1263 0355 48020000 		.4byte	0x248
 1264 0359 02       		.byte	0x2
 1265 035a 23       		.byte	0x23
 1266 035b 00       		.uleb128 0
 1267 035c 06       		.uleb128 0x6
 1268 035d F5040000 		.4byte	.LASF49
 1269 0361 08       		.byte	0x8
 1270 0362 2F       		.byte	0x2f
 1271 0363 42020000 		.4byte	0x242
ARM GAS  C:\Users\z80\AppData\Local\Temp\ccD8g6EC.s 			page 24


 1272 0367 02       		.byte	0x2
 1273 0368 23       		.byte	0x23
 1274 0369 08       		.uleb128 0x8
 1275 036a 06       		.uleb128 0x6
 1276 036b 21040000 		.4byte	.LASF50
 1277 036f 08       		.byte	0x8
 1278 0370 31       		.byte	0x31
 1279 0371 79030000 		.4byte	0x379
 1280 0375 02       		.byte	0x2
 1281 0376 23       		.byte	0x23
 1282 0377 0C       		.uleb128 0xc
 1283 0378 00       		.byte	0
 1284 0379 09       		.uleb128 0x9
 1285 037a 04       		.byte	0x4
 1286 037b 42030000 		.4byte	0x342
 1287 037f 03       		.uleb128 0x3
 1288 0380 76020000 		.4byte	.LASF47
 1289 0384 08       		.byte	0x8
 1290 0385 33       		.byte	0x33
 1291 0386 42030000 		.4byte	0x342
 1292 038a 03       		.uleb128 0x3
 1293 038b B6040000 		.4byte	.LASF51
 1294 038f 09       		.byte	0x9
 1295 0390 29       		.byte	0x29
 1296 0391 95030000 		.4byte	0x395
 1297 0395 05       		.uleb128 0x5
 1298 0396 B6040000 		.4byte	.LASF51
 1299 039a 0C       		.byte	0xc
 1300 039b 09       		.byte	0x9
 1301 039c 2E       		.byte	0x2e
 1302 039d CC030000 		.4byte	0x3cc
 1303 03a1 06       		.uleb128 0x6
 1304 03a2 8C030000 		.4byte	.LASF52
 1305 03a6 09       		.byte	0x9
 1306 03a7 2F       		.byte	0x2f
 1307 03a8 CC030000 		.4byte	0x3cc
 1308 03ac 02       		.byte	0x2
 1309 03ad 23       		.byte	0x23
 1310 03ae 00       		.uleb128 0
 1311 03af 06       		.uleb128 0x6
 1312 03b0 4E030000 		.4byte	.LASF53
 1313 03b4 09       		.byte	0x9
 1314 03b5 32       		.byte	0x32
 1315 03b6 42020000 		.4byte	0x242
 1316 03ba 02       		.byte	0x2
 1317 03bb 23       		.byte	0x23
 1318 03bc 04       		.uleb128 0x4
 1319 03bd 06       		.uleb128 0x6
 1320 03be 83020000 		.4byte	.LASF54
 1321 03c2 09       		.byte	0x9
 1322 03c3 34       		.byte	0x34
 1323 03c4 F3000000 		.4byte	0xf3
 1324 03c8 02       		.byte	0x2
 1325 03c9 23       		.byte	0x23
 1326 03ca 08       		.uleb128 0x8
 1327 03cb 00       		.byte	0
 1328 03cc 09       		.uleb128 0x9
ARM GAS  C:\Users\z80\AppData\Local\Temp\ccD8g6EC.s 			page 25


 1329 03cd 04       		.byte	0x4
 1330 03ce 8A030000 		.4byte	0x38a
 1331 03d2 05       		.uleb128 0x5
 1332 03d3 6B010000 		.4byte	.LASF55
 1333 03d7 04       		.byte	0x4
 1334 03d8 09       		.byte	0x9
 1335 03d9 3C       		.byte	0x3c
 1336 03da ED030000 		.4byte	0x3ed
 1337 03de 06       		.uleb128 0x6
 1338 03df 7A040000 		.4byte	.LASF56
 1339 03e3 09       		.byte	0x9
 1340 03e4 3D       		.byte	0x3d
 1341 03e5 CC030000 		.4byte	0x3cc
 1342 03e9 02       		.byte	0x2
 1343 03ea 23       		.byte	0x23
 1344 03eb 00       		.uleb128 0
 1345 03ec 00       		.byte	0
 1346 03ed 03       		.uleb128 0x3
 1347 03ee 6B010000 		.4byte	.LASF55
 1348 03f2 09       		.byte	0x9
 1349 03f3 40       		.byte	0x40
 1350 03f4 D2030000 		.4byte	0x3d2
 1351 03f8 0E       		.uleb128 0xe
 1352 03f9 04       		.byte	0x4
 1353 03fa 06       		.byte	0x6
 1354 03fb 90       		.byte	0x90
 1355 03fc 2D040000 		.4byte	0x42d
 1356 0400 0F       		.uleb128 0xf
 1357 0401 35000000 		.4byte	.LASF57
 1358 0405 06       		.byte	0x6
 1359 0406 97       		.byte	0x97
 1360 0407 E8000000 		.4byte	0xe8
 1361 040b 0F       		.uleb128 0xf
 1362 040c 82000000 		.4byte	.LASF58
 1363 0410 06       		.byte	0x6
 1364 0411 9E       		.byte	0x9e
 1365 0412 E8000000 		.4byte	0xe8
 1366 0416 0F       		.uleb128 0xf
 1367 0417 C4040000 		.4byte	.LASF59
 1368 041b 06       		.byte	0x6
 1369 041c A5       		.byte	0xa5
 1370 041d 80020000 		.4byte	0x280
 1371 0421 0F       		.uleb128 0xf
 1372 0422 76030000 		.4byte	.LASF60
 1373 0426 06       		.byte	0x6
 1374 0427 AC       		.byte	0xac
 1375 0428 F3000000 		.4byte	0xf3
 1376 042c 00       		.byte	0
 1377 042d 09       		.uleb128 0x9
 1378 042e 04       		.byte	0x4
 1379 042f 33040000 		.4byte	0x433
 1380 0433 10       		.uleb128 0x10
 1381 0434 38040000 		.4byte	0x438
 1382 0438 04       		.uleb128 0x4
 1383 0439 01       		.byte	0x1
 1384 043a 08       		.byte	0x8
 1385 043b FD030000 		.4byte	.LASF61
ARM GAS  C:\Users\z80\AppData\Local\Temp\ccD8g6EC.s 			page 26


 1386 043f 09       		.uleb128 0x9
 1387 0440 04       		.byte	0x4
 1388 0441 82020000 		.4byte	0x282
 1389 0445 09       		.uleb128 0x9
 1390 0446 04       		.byte	0x4
 1391 0447 7F030000 		.4byte	0x37f
 1392 044b 03       		.uleb128 0x3
 1393 044c 49020000 		.4byte	.LASF62
 1394 0450 0A       		.byte	0xa
 1395 0451 37       		.byte	0x37
 1396 0452 56040000 		.4byte	0x456
 1397 0456 05       		.uleb128 0x5
 1398 0457 49020000 		.4byte	.LASF62
 1399 045b 20       		.byte	0x20
 1400 045c 0A       		.byte	0xa
 1401 045d 45       		.byte	0x45
 1402 045e C5040000 		.4byte	0x4c5
 1403 0462 06       		.uleb128 0x6
 1404 0463 B1000000 		.4byte	.LASF63
 1405 0467 0A       		.byte	0xa
 1406 0468 46       		.byte	0x46
 1407 0469 48020000 		.4byte	0x248
 1408 046d 02       		.byte	0x2
 1409 046e 23       		.byte	0x23
 1410 046f 00       		.uleb128 0
 1411 0470 06       		.uleb128 0x6
 1412 0471 6C020000 		.4byte	.LASF64
 1413 0475 0A       		.byte	0xa
 1414 0476 47       		.byte	0x47
 1415 0477 30000000 		.4byte	0x30
 1416 047b 02       		.byte	0x2
 1417 047c 23       		.byte	0x23
 1418 047d 08       		.uleb128 0x8
 1419 047e 06       		.uleb128 0x6
 1420 047f 36010000 		.4byte	.LASF65
 1421 0483 0A       		.byte	0xa
 1422 0484 48       		.byte	0x48
 1423 0485 E8040000 		.4byte	0x4e8
 1424 0489 02       		.byte	0x2
 1425 048a 23       		.byte	0x23
 1426 048b 0C       		.uleb128 0xc
 1427 048c 06       		.uleb128 0x6
 1428 048d 6D040000 		.4byte	.LASF66
 1429 0491 0A       		.byte	0xa
 1430 0492 49       		.byte	0x49
 1431 0493 E8040000 		.4byte	0x4e8
 1432 0497 02       		.byte	0x2
 1433 0498 23       		.byte	0x23
 1434 0499 10       		.uleb128 0x10
 1435 049a 06       		.uleb128 0x6
 1436 049b 3F010000 		.4byte	.LASF67
 1437 049f 0A       		.byte	0xa
 1438 04a0 4B       		.byte	0x4b
 1439 04a1 E8040000 		.4byte	0x4e8
 1440 04a5 02       		.byte	0x2
 1441 04a6 23       		.byte	0x23
 1442 04a7 14       		.uleb128 0x14
ARM GAS  C:\Users\z80\AppData\Local\Temp\ccD8g6EC.s 			page 27


 1443 04a8 06       		.uleb128 0x6
 1444 04a9 22030000 		.4byte	.LASF68
 1445 04ad 0A       		.byte	0xa
 1446 04ae 4C       		.byte	0x4c
 1447 04af E8040000 		.4byte	0x4e8
 1448 04b3 02       		.byte	0x2
 1449 04b4 23       		.byte	0x23
 1450 04b5 18       		.uleb128 0x18
 1451 04b6 06       		.uleb128 0x6
 1452 04b7 82040000 		.4byte	.LASF69
 1453 04bb 0A       		.byte	0xa
 1454 04bc 4D       		.byte	0x4d
 1455 04bd C5040000 		.4byte	0x4c5
 1456 04c1 02       		.byte	0x2
 1457 04c2 23       		.byte	0x23
 1458 04c3 1C       		.uleb128 0x1c
 1459 04c4 00       		.byte	0
 1460 04c5 03       		.uleb128 0x3
 1461 04c6 3F020000 		.4byte	.LASF70
 1462 04ca 0A       		.byte	0xa
 1463 04cb 3A       		.byte	0x3a
 1464 04cc D0040000 		.4byte	0x4d0
 1465 04d0 09       		.uleb128 0x9
 1466 04d1 04       		.byte	0x4
 1467 04d2 D6040000 		.4byte	0x4d6
 1468 04d6 11       		.uleb128 0x11
 1469 04d7 01       		.byte	0x1
 1470 04d8 E2040000 		.4byte	0x4e2
 1471 04dc 12       		.uleb128 0x12
 1472 04dd E2040000 		.4byte	0x4e2
 1473 04e1 00       		.byte	0
 1474 04e2 09       		.uleb128 0x9
 1475 04e3 04       		.byte	0x4
 1476 04e4 4B040000 		.4byte	0x44b
 1477 04e8 09       		.uleb128 0x9
 1478 04e9 04       		.byte	0x4
 1479 04ea 49000000 		.4byte	0x49
 1480 04ee 03       		.uleb128 0x3
 1481 04ef 34020000 		.4byte	.LASF71
 1482 04f3 0A       		.byte	0xa
 1483 04f4 76       		.byte	0x76
 1484 04f5 4B040000 		.4byte	0x44b
 1485 04f9 03       		.uleb128 0x3
 1486 04fa 45000000 		.4byte	.LASF72
 1487 04fe 0A       		.byte	0xa
 1488 04ff E6       		.byte	0xe6
 1489 0500 4B040000 		.4byte	0x44b
 1490 0504 13       		.uleb128 0x13
 1491 0505 01       		.byte	0x1
 1492 0506 30000000 		.4byte	0x30
 1493 050a 1E050000 		.4byte	0x51e
 1494 050e 12       		.uleb128 0x12
 1495 050f 80020000 		.4byte	0x280
 1496 0513 12       		.uleb128 0x12
 1497 0514 1E050000 		.4byte	0x51e
 1498 0518 12       		.uleb128 0x12
 1499 0519 30000000 		.4byte	0x30
ARM GAS  C:\Users\z80\AppData\Local\Temp\ccD8g6EC.s 			page 28


 1500 051d 00       		.byte	0
 1501 051e 09       		.uleb128 0x9
 1502 051f 04       		.byte	0x4
 1503 0520 24050000 		.4byte	0x524
 1504 0524 10       		.uleb128 0x10
 1505 0525 49000000 		.4byte	0x49
 1506 0529 09       		.uleb128 0x9
 1507 052a 04       		.byte	0x4
 1508 052b 04050000 		.4byte	0x504
 1509 052f 13       		.uleb128 0x13
 1510 0530 01       		.byte	0x1
 1511 0531 30000000 		.4byte	0x30
 1512 0535 49050000 		.4byte	0x549
 1513 0539 12       		.uleb128 0x12
 1514 053a 80020000 		.4byte	0x280
 1515 053e 12       		.uleb128 0x12
 1516 053f E8040000 		.4byte	0x4e8
 1517 0543 12       		.uleb128 0x12
 1518 0544 30000000 		.4byte	0x30
 1519 0548 00       		.byte	0
 1520 0549 09       		.uleb128 0x9
 1521 054a 04       		.byte	0x4
 1522 054b 2F050000 		.4byte	0x52f
 1523 054f 13       		.uleb128 0x13
 1524 0550 01       		.byte	0x1
 1525 0551 BC000000 		.4byte	0xbc
 1526 0555 5F050000 		.4byte	0x55f
 1527 0559 12       		.uleb128 0x12
 1528 055a 80020000 		.4byte	0x280
 1529 055e 00       		.byte	0
 1530 055f 09       		.uleb128 0x9
 1531 0560 04       		.byte	0x4
 1532 0561 4F050000 		.4byte	0x54f
 1533 0565 13       		.uleb128 0x13
 1534 0566 01       		.byte	0x1
 1535 0567 E8000000 		.4byte	0xe8
 1536 056b 7F050000 		.4byte	0x57f
 1537 056f 12       		.uleb128 0x12
 1538 0570 80020000 		.4byte	0x280
 1539 0574 12       		.uleb128 0x12
 1540 0575 49000000 		.4byte	0x49
 1541 0579 12       		.uleb128 0x12
 1542 057a FE000000 		.4byte	0xfe
 1543 057e 00       		.byte	0
 1544 057f 09       		.uleb128 0x9
 1545 0580 04       		.byte	0x4
 1546 0581 65050000 		.4byte	0x565
 1547 0585 13       		.uleb128 0x13
 1548 0586 01       		.byte	0x1
 1549 0587 E8000000 		.4byte	0xe8
 1550 058b 9A050000 		.4byte	0x59a
 1551 058f 12       		.uleb128 0x12
 1552 0590 80020000 		.4byte	0x280
 1553 0594 12       		.uleb128 0x12
 1554 0595 FE000000 		.4byte	0xfe
 1555 0599 00       		.byte	0
 1556 059a 09       		.uleb128 0x9
ARM GAS  C:\Users\z80\AppData\Local\Temp\ccD8g6EC.s 			page 29


 1557 059b 04       		.byte	0x4
 1558 059c 85050000 		.4byte	0x585
 1559 05a0 13       		.uleb128 0x13
 1560 05a1 01       		.byte	0x1
 1561 05a2 30000000 		.4byte	0x30
 1562 05a6 BF050000 		.4byte	0x5bf
 1563 05aa 12       		.uleb128 0x12
 1564 05ab 80020000 		.4byte	0x280
 1565 05af 12       		.uleb128 0x12
 1566 05b0 1E050000 		.4byte	0x51e
 1567 05b4 12       		.uleb128 0x12
 1568 05b5 30000000 		.4byte	0x30
 1569 05b9 12       		.uleb128 0x12
 1570 05ba FE000000 		.4byte	0xfe
 1571 05be 00       		.byte	0
 1572 05bf 09       		.uleb128 0x9
 1573 05c0 04       		.byte	0x4
 1574 05c1 A0050000 		.4byte	0x5a0
 1575 05c5 13       		.uleb128 0x13
 1576 05c6 01       		.byte	0x1
 1577 05c7 30000000 		.4byte	0x30
 1578 05cb E4050000 		.4byte	0x5e4
 1579 05cf 12       		.uleb128 0x12
 1580 05d0 80020000 		.4byte	0x280
 1581 05d4 12       		.uleb128 0x12
 1582 05d5 E8040000 		.4byte	0x4e8
 1583 05d9 12       		.uleb128 0x12
 1584 05da 30000000 		.4byte	0x30
 1585 05de 12       		.uleb128 0x12
 1586 05df FE000000 		.4byte	0xfe
 1587 05e3 00       		.byte	0
 1588 05e4 09       		.uleb128 0x9
 1589 05e5 04       		.byte	0x4
 1590 05e6 C5050000 		.4byte	0x5c5
 1591 05ea 14       		.uleb128 0x14
 1592 05eb 9C020000 		.4byte	.LASF73
 1593 05ef 0B       		.byte	0xb
 1594 05f0 0B01     		.2byte	0x10b
 1595 05f2 B1000000 		.4byte	0xb1
 1596 05f6 0C       		.uleb128 0xc
 1597 05f7 77010000 		.4byte	.LASF74
 1598 05fb 24       		.byte	0x24
 1599 05fc 0B       		.byte	0xb
 1600 05fd 2401     		.2byte	0x124
 1601 05ff 8B060000 		.4byte	0x68b
 1602 0603 15       		.uleb128 0x15
 1603 0604 61020000 		.4byte	.LASF75
 1604 0608 0B       		.byte	0xb
 1605 0609 2501     		.2byte	0x125
 1606 060b 29050000 		.4byte	0x529
 1607 060f 02       		.byte	0x2
 1608 0610 23       		.byte	0x23
 1609 0611 00       		.uleb128 0
 1610 0612 15       		.uleb128 0x15
 1611 0613 F8030000 		.4byte	.LASF76
 1612 0617 0B       		.byte	0xb
 1613 0618 2501     		.2byte	0x125
ARM GAS  C:\Users\z80\AppData\Local\Temp\ccD8g6EC.s 			page 30


 1614 061a 49050000 		.4byte	0x549
 1615 061e 02       		.byte	0x2
 1616 061f 23       		.byte	0x23
 1617 0620 04       		.uleb128 0x4
 1618 0621 15       		.uleb128 0x15
 1619 0622 4F010000 		.4byte	.LASF77
 1620 0626 0B       		.byte	0xb
 1621 0627 2501     		.2byte	0x125
 1622 0629 5F050000 		.4byte	0x55f
 1623 062d 02       		.byte	0x2
 1624 062e 23       		.byte	0x23
 1625 062f 08       		.uleb128 0x8
 1626 0630 15       		.uleb128 0x15
 1627 0631 CB040000 		.4byte	.LASF78
 1628 0635 0B       		.byte	0xb
 1629 0636 2501     		.2byte	0x125
 1630 0638 5F050000 		.4byte	0x55f
 1631 063c 02       		.byte	0x2
 1632 063d 23       		.byte	0x23
 1633 063e 0C       		.uleb128 0xc
 1634 063f 0B       		.uleb128 0xb
 1635 0640 70757400 		.ascii	"put\000"
 1636 0644 0B       		.byte	0xb
 1637 0645 2501     		.2byte	0x125
 1638 0647 7F050000 		.4byte	0x57f
 1639 064b 02       		.byte	0x2
 1640 064c 23       		.byte	0x23
 1641 064d 10       		.uleb128 0x10
 1642 064e 0B       		.uleb128 0xb
 1643 064f 67657400 		.ascii	"get\000"
 1644 0653 0B       		.byte	0xb
 1645 0654 2501     		.2byte	0x125
 1646 0656 9A050000 		.4byte	0x59a
 1647 065a 02       		.byte	0x2
 1648 065b 23       		.byte	0x23
 1649 065c 14       		.uleb128 0x14
 1650 065d 15       		.uleb128 0x15
 1651 065e 13020000 		.4byte	.LASF79
 1652 0662 0B       		.byte	0xb
 1653 0663 2501     		.2byte	0x125
 1654 0665 BF050000 		.4byte	0x5bf
 1655 0669 02       		.byte	0x2
 1656 066a 23       		.byte	0x23
 1657 066b 18       		.uleb128 0x18
 1658 066c 15       		.uleb128 0x15
 1659 066d AB000000 		.4byte	.LASF80
 1660 0671 0B       		.byte	0xb
 1661 0672 2501     		.2byte	0x125
 1662 0674 E4050000 		.4byte	0x5e4
 1663 0678 02       		.byte	0x2
 1664 0679 23       		.byte	0x23
 1665 067a 1C       		.uleb128 0x1c
 1666 067b 15       		.uleb128 0x15
 1667 067c 93020000 		.4byte	.LASF81
 1668 0680 0B       		.byte	0xb
 1669 0681 2501     		.2byte	0x125
 1670 0683 9B060000 		.4byte	0x69b
ARM GAS  C:\Users\z80\AppData\Local\Temp\ccD8g6EC.s 			page 31


 1671 0687 02       		.byte	0x2
 1672 0688 23       		.byte	0x23
 1673 0689 20       		.uleb128 0x20
 1674 068a 00       		.byte	0
 1675 068b 13       		.uleb128 0x13
 1676 068c 01       		.byte	0x1
 1677 068d EA050000 		.4byte	0x5ea
 1678 0691 9B060000 		.4byte	0x69b
 1679 0695 12       		.uleb128 0x12
 1680 0696 80020000 		.4byte	0x280
 1681 069a 00       		.byte	0
 1682 069b 09       		.uleb128 0x9
 1683 069c 04       		.byte	0x4
 1684 069d 8B060000 		.4byte	0x68b
 1685 06a1 16       		.uleb128 0x16
 1686 06a2 0C       		.byte	0xc
 1687 06a3 0B       		.byte	0xb
 1688 06a4 2F01     		.2byte	0x12f
 1689 06a6 D8060000 		.4byte	0x6d8
 1690 06aa 0B       		.uleb128 0xb
 1691 06ab 766D7400 		.ascii	"vmt\000"
 1692 06af 0B       		.byte	0xb
 1693 06b0 3101     		.2byte	0x131
 1694 06b2 D8060000 		.4byte	0x6d8
 1695 06b6 02       		.byte	0x2
 1696 06b7 23       		.byte	0x23
 1697 06b8 00       		.uleb128 0
 1698 06b9 15       		.uleb128 0x15
 1699 06ba E6010000 		.4byte	.LASF82
 1700 06be 0B       		.byte	0xb
 1701 06bf 3201     		.2byte	0x132
 1702 06c1 ED030000 		.4byte	0x3ed
 1703 06c5 02       		.byte	0x2
 1704 06c6 23       		.byte	0x23
 1705 06c7 04       		.uleb128 0x4
 1706 06c8 15       		.uleb128 0x15
 1707 06c9 A8040000 		.4byte	.LASF83
 1708 06cd 0B       		.byte	0xb
 1709 06ce 3201     		.2byte	0x132
 1710 06d0 EA050000 		.4byte	0x5ea
 1711 06d4 02       		.byte	0x2
 1712 06d5 23       		.byte	0x23
 1713 06d6 08       		.uleb128 0x8
 1714 06d7 00       		.byte	0
 1715 06d8 09       		.uleb128 0x9
 1716 06d9 04       		.byte	0x4
 1717 06da DE060000 		.4byte	0x6de
 1718 06de 10       		.uleb128 0x10
 1719 06df F6050000 		.4byte	0x5f6
 1720 06e3 14       		.uleb128 0x14
 1721 06e4 3D040000 		.4byte	.LASF84
 1722 06e8 0B       		.byte	0xb
 1723 06e9 3301     		.2byte	0x133
 1724 06eb A1060000 		.4byte	0x6a1
 1725 06ef 0D       		.uleb128 0xd
 1726 06f0 62000000 		.4byte	0x62
 1727 06f4 0D       		.uleb128 0xd
ARM GAS  C:\Users\z80\AppData\Local\Temp\ccD8g6EC.s 			page 32


 1728 06f5 74000000 		.4byte	0x74
 1729 06f9 16       		.uleb128 0x16
 1730 06fa 1C       		.byte	0x1c
 1731 06fb 0C       		.byte	0xc
 1732 06fc E104     		.2byte	0x4e1
 1733 06fe D3070000 		.4byte	0x7d3
 1734 0702 0B       		.uleb128 0xb
 1735 0703 535200   		.ascii	"SR\000"
 1736 0706 0C       		.byte	0xc
 1737 0707 E304     		.2byte	0x4e3
 1738 0709 EF060000 		.4byte	0x6ef
 1739 070d 02       		.byte	0x2
 1740 070e 23       		.byte	0x23
 1741 070f 00       		.uleb128 0
 1742 0710 15       		.uleb128 0x15
 1743 0711 D7020000 		.4byte	.LASF85
 1744 0715 0C       		.byte	0xc
 1745 0716 E404     		.2byte	0x4e4
 1746 0718 62000000 		.4byte	0x62
 1747 071c 02       		.byte	0x2
 1748 071d 23       		.byte	0x23
 1749 071e 02       		.uleb128 0x2
 1750 071f 0B       		.uleb128 0xb
 1751 0720 445200   		.ascii	"DR\000"
 1752 0723 0C       		.byte	0xc
 1753 0724 E504     		.2byte	0x4e5
 1754 0726 EF060000 		.4byte	0x6ef
 1755 072a 02       		.byte	0x2
 1756 072b 23       		.byte	0x23
 1757 072c 04       		.uleb128 0x4
 1758 072d 15       		.uleb128 0x15
 1759 072e E1020000 		.4byte	.LASF86
 1760 0732 0C       		.byte	0xc
 1761 0733 E604     		.2byte	0x4e6
 1762 0735 62000000 		.4byte	0x62
 1763 0739 02       		.byte	0x2
 1764 073a 23       		.byte	0x23
 1765 073b 06       		.uleb128 0x6
 1766 073c 0B       		.uleb128 0xb
 1767 073d 42525200 		.ascii	"BRR\000"
 1768 0741 0C       		.byte	0xc
 1769 0742 E704     		.2byte	0x4e7
 1770 0744 EF060000 		.4byte	0x6ef
 1771 0748 02       		.byte	0x2
 1772 0749 23       		.byte	0x23
 1773 074a 08       		.uleb128 0x8
 1774 074b 15       		.uleb128 0x15
 1775 074c EB020000 		.4byte	.LASF87
 1776 0750 0C       		.byte	0xc
 1777 0751 E804     		.2byte	0x4e8
 1778 0753 62000000 		.4byte	0x62
 1779 0757 02       		.byte	0x2
 1780 0758 23       		.byte	0x23
 1781 0759 0A       		.uleb128 0xa
 1782 075a 0B       		.uleb128 0xb
 1783 075b 43523100 		.ascii	"CR1\000"
 1784 075f 0C       		.byte	0xc
ARM GAS  C:\Users\z80\AppData\Local\Temp\ccD8g6EC.s 			page 33


 1785 0760 E904     		.2byte	0x4e9
 1786 0762 EF060000 		.4byte	0x6ef
 1787 0766 02       		.byte	0x2
 1788 0767 23       		.byte	0x23
 1789 0768 0C       		.uleb128 0xc
 1790 0769 15       		.uleb128 0x15
 1791 076a F5020000 		.4byte	.LASF88
 1792 076e 0C       		.byte	0xc
 1793 076f EA04     		.2byte	0x4ea
 1794 0771 62000000 		.4byte	0x62
 1795 0775 02       		.byte	0x2
 1796 0776 23       		.byte	0x23
 1797 0777 0E       		.uleb128 0xe
 1798 0778 0B       		.uleb128 0xb
 1799 0779 43523200 		.ascii	"CR2\000"
 1800 077d 0C       		.byte	0xc
 1801 077e EB04     		.2byte	0x4eb
 1802 0780 EF060000 		.4byte	0x6ef
 1803 0784 02       		.byte	0x2
 1804 0785 23       		.byte	0x23
 1805 0786 10       		.uleb128 0x10
 1806 0787 15       		.uleb128 0x15
 1807 0788 FF020000 		.4byte	.LASF89
 1808 078c 0C       		.byte	0xc
 1809 078d EC04     		.2byte	0x4ec
 1810 078f 62000000 		.4byte	0x62
 1811 0793 02       		.byte	0x2
 1812 0794 23       		.byte	0x23
 1813 0795 12       		.uleb128 0x12
 1814 0796 0B       		.uleb128 0xb
 1815 0797 43523300 		.ascii	"CR3\000"
 1816 079b 0C       		.byte	0xc
 1817 079c ED04     		.2byte	0x4ed
 1818 079e EF060000 		.4byte	0x6ef
 1819 07a2 02       		.byte	0x2
 1820 07a3 23       		.byte	0x23
 1821 07a4 14       		.uleb128 0x14
 1822 07a5 15       		.uleb128 0x15
 1823 07a6 B0030000 		.4byte	.LASF90
 1824 07aa 0C       		.byte	0xc
 1825 07ab EE04     		.2byte	0x4ee
 1826 07ad 62000000 		.4byte	0x62
 1827 07b1 02       		.byte	0x2
 1828 07b2 23       		.byte	0x23
 1829 07b3 16       		.uleb128 0x16
 1830 07b4 15       		.uleb128 0x15
 1831 07b5 D5000000 		.4byte	.LASF91
 1832 07b9 0C       		.byte	0xc
 1833 07ba EF04     		.2byte	0x4ef
 1834 07bc EF060000 		.4byte	0x6ef
 1835 07c0 02       		.byte	0x2
 1836 07c1 23       		.byte	0x23
 1837 07c2 18       		.uleb128 0x18
 1838 07c3 15       		.uleb128 0x15
 1839 07c4 10030000 		.4byte	.LASF92
 1840 07c8 0C       		.byte	0xc
 1841 07c9 F004     		.2byte	0x4f0
ARM GAS  C:\Users\z80\AppData\Local\Temp\ccD8g6EC.s 			page 34


 1842 07cb 62000000 		.4byte	0x62
 1843 07cf 02       		.byte	0x2
 1844 07d0 23       		.byte	0x23
 1845 07d1 1A       		.uleb128 0x1a
 1846 07d2 00       		.byte	0
 1847 07d3 14       		.uleb128 0x14
 1848 07d4 40030000 		.4byte	.LASF93
 1849 07d8 0C       		.byte	0xc
 1850 07d9 F104     		.2byte	0x4f1
 1851 07db F9060000 		.4byte	0x6f9
 1852 07df 17       		.uleb128 0x17
 1853 07e0 01       		.byte	0x1
 1854 07e1 0D       		.byte	0xd
 1855 07e2 64       		.byte	0x64
 1856 07e3 FA070000 		.4byte	0x7fa
 1857 07e7 18       		.uleb128 0x18
 1858 07e8 A6030000 		.4byte	.LASF94
 1859 07ec 00       		.sleb128 0
 1860 07ed 18       		.uleb128 0x18
 1861 07ee DA000000 		.4byte	.LASF95
 1862 07f2 01       		.sleb128 1
 1863 07f3 18       		.uleb128 0x18
 1864 07f4 64040000 		.4byte	.LASF96
 1865 07f8 02       		.sleb128 2
 1866 07f9 00       		.byte	0
 1867 07fa 03       		.uleb128 0x3
 1868 07fb C3030000 		.4byte	.LASF97
 1869 07ff 0D       		.byte	0xd
 1870 0800 68       		.byte	0x68
 1871 0801 DF070000 		.4byte	0x7df
 1872 0805 03       		.uleb128 0x3
 1873 0806 CD030000 		.4byte	.LASF98
 1874 080a 0D       		.byte	0xd
 1875 080b 6D       		.byte	0x6d
 1876 080c 10080000 		.4byte	0x810
 1877 0810 19       		.uleb128 0x19
 1878 0811 CD030000 		.4byte	.LASF98
 1879 0815 5404     		.2byte	0x454
 1880 0817 0D       		.byte	0xd
 1881 0818 87       		.byte	0x87
 1882 0819 9C080000 		.4byte	0x89c
 1883 081d 07       		.uleb128 0x7
 1884 081e 766D7400 		.ascii	"vmt\000"
 1885 0822 0D       		.byte	0xd
 1886 0823 89       		.byte	0x89
 1887 0824 73090000 		.4byte	0x973
 1888 0828 02       		.byte	0x2
 1889 0829 23       		.byte	0x23
 1890 082a 00       		.uleb128 0
 1891 082b 06       		.uleb128 0x6
 1892 082c E6010000 		.4byte	.LASF82
 1893 0830 0D       		.byte	0xd
 1894 0831 8A       		.byte	0x8a
 1895 0832 ED030000 		.4byte	0x3ed
 1896 0836 02       		.byte	0x2
 1897 0837 23       		.byte	0x23
 1898 0838 04       		.uleb128 0x4
ARM GAS  C:\Users\z80\AppData\Local\Temp\ccD8g6EC.s 			page 35


 1899 0839 06       		.uleb128 0x6
 1900 083a A8040000 		.4byte	.LASF83
 1901 083e 0D       		.byte	0xd
 1902 083f 8A       		.byte	0x8a
 1903 0840 EA050000 		.4byte	0x5ea
 1904 0844 02       		.byte	0x2
 1905 0845 23       		.byte	0x23
 1906 0846 08       		.uleb128 0x8
 1907 0847 06       		.uleb128 0x6
 1908 0848 1E010000 		.4byte	.LASF99
 1909 084c 0D       		.byte	0xd
 1910 084d 8A       		.byte	0x8a
 1911 084e FA070000 		.4byte	0x7fa
 1912 0852 02       		.byte	0x2
 1913 0853 23       		.byte	0x23
 1914 0854 0C       		.uleb128 0xc
 1915 0855 06       		.uleb128 0x6
 1916 0856 C7010000 		.4byte	.LASF100
 1917 085a 0D       		.byte	0xd
 1918 085b 8A       		.byte	0x8a
 1919 085c EE040000 		.4byte	0x4ee
 1920 0860 02       		.byte	0x2
 1921 0861 23       		.byte	0x23
 1922 0862 10       		.uleb128 0x10
 1923 0863 06       		.uleb128 0x6
 1924 0864 05020000 		.4byte	.LASF101
 1925 0868 0D       		.byte	0xd
 1926 0869 8A       		.byte	0x8a
 1927 086a F9040000 		.4byte	0x4f9
 1928 086e 02       		.byte	0x2
 1929 086f 23       		.byte	0x23
 1930 0870 30       		.uleb128 0x30
 1931 0871 07       		.uleb128 0x7
 1932 0872 696200   		.ascii	"ib\000"
 1933 0875 0D       		.byte	0xd
 1934 0876 8A       		.byte	0x8a
 1935 0877 7E090000 		.4byte	0x97e
 1936 087b 02       		.byte	0x2
 1937 087c 23       		.byte	0x23
 1938 087d 50       		.uleb128 0x50
 1939 087e 07       		.uleb128 0x7
 1940 087f 6F6200   		.ascii	"ob\000"
 1941 0882 0D       		.byte	0xd
 1942 0883 8A       		.byte	0x8a
 1943 0884 7E090000 		.4byte	0x97e
 1944 0888 03       		.byte	0x3
 1945 0889 23       		.byte	0x23
 1946 088a D004     		.uleb128 0x250
 1947 088c 06       		.uleb128 0x6
 1948 088d 2E020000 		.4byte	.LASF102
 1949 0891 0D       		.byte	0xd
 1950 0892 8A       		.byte	0x8a
 1951 0893 8F090000 		.4byte	0x98f
 1952 0897 03       		.byte	0x3
 1953 0898 23       		.byte	0x23
 1954 0899 D008     		.uleb128 0x450
 1955 089b 00       		.byte	0
ARM GAS  C:\Users\z80\AppData\Local\Temp\ccD8g6EC.s 			page 36


 1956 089c 08       		.uleb128 0x8
 1957 089d 0C       		.byte	0xc
 1958 089e 0E       		.byte	0xe
 1959 089f C4       		.byte	0xc4
 1960 08a0 DD080000 		.4byte	0x8dd
 1961 08a4 06       		.uleb128 0x6
 1962 08a5 25000000 		.4byte	.LASF103
 1963 08a9 0E       		.byte	0xe
 1964 08aa C8       		.byte	0xc8
 1965 08ab 86000000 		.4byte	0x86
 1966 08af 02       		.byte	0x2
 1967 08b0 23       		.byte	0x23
 1968 08b1 00       		.uleb128 0
 1969 08b2 06       		.uleb128 0x6
 1970 08b3 D9040000 		.4byte	.LASF104
 1971 08b7 0E       		.byte	0xe
 1972 08b8 CC       		.byte	0xcc
 1973 08b9 62000000 		.4byte	0x62
 1974 08bd 02       		.byte	0x2
 1975 08be 23       		.byte	0x23
 1976 08bf 04       		.uleb128 0x4
 1977 08c0 06       		.uleb128 0x6
 1978 08c1 E0040000 		.4byte	.LASF105
 1979 08c5 0E       		.byte	0xe
 1980 08c6 D0       		.byte	0xd0
 1981 08c7 62000000 		.4byte	0x62
 1982 08cb 02       		.byte	0x2
 1983 08cc 23       		.byte	0x23
 1984 08cd 06       		.uleb128 0x6
 1985 08ce 06       		.uleb128 0x6
 1986 08cf E7040000 		.4byte	.LASF106
 1987 08d3 0E       		.byte	0xe
 1988 08d4 D4       		.byte	0xd4
 1989 08d5 62000000 		.4byte	0x62
 1990 08d9 02       		.byte	0x2
 1991 08da 23       		.byte	0x23
 1992 08db 08       		.uleb128 0x8
 1993 08dc 00       		.byte	0
 1994 08dd 03       		.uleb128 0x3
 1995 08de CA020000 		.4byte	.LASF107
 1996 08e2 0E       		.byte	0xe
 1997 08e3 D5       		.byte	0xd5
 1998 08e4 9C080000 		.4byte	0x89c
 1999 08e8 05       		.uleb128 0x5
 2000 08e9 A8010000 		.4byte	.LASF108
 2001 08ed 24       		.byte	0x24
 2002 08ee 0D       		.byte	0xd
 2003 08ef 7C       		.byte	0x7c
 2004 08f0 73090000 		.4byte	0x973
 2005 08f4 06       		.uleb128 0x6
 2006 08f5 61020000 		.4byte	.LASF75
 2007 08f9 0D       		.byte	0xd
 2008 08fa 7D       		.byte	0x7d
 2009 08fb 29050000 		.4byte	0x529
 2010 08ff 02       		.byte	0x2
 2011 0900 23       		.byte	0x23
 2012 0901 00       		.uleb128 0
ARM GAS  C:\Users\z80\AppData\Local\Temp\ccD8g6EC.s 			page 37


 2013 0902 06       		.uleb128 0x6
 2014 0903 F8030000 		.4byte	.LASF76
 2015 0907 0D       		.byte	0xd
 2016 0908 7D       		.byte	0x7d
 2017 0909 49050000 		.4byte	0x549
 2018 090d 02       		.byte	0x2
 2019 090e 23       		.byte	0x23
 2020 090f 04       		.uleb128 0x4
 2021 0910 06       		.uleb128 0x6
 2022 0911 4F010000 		.4byte	.LASF77
 2023 0915 0D       		.byte	0xd
 2024 0916 7D       		.byte	0x7d
 2025 0917 5F050000 		.4byte	0x55f
 2026 091b 02       		.byte	0x2
 2027 091c 23       		.byte	0x23
 2028 091d 08       		.uleb128 0x8
 2029 091e 06       		.uleb128 0x6
 2030 091f CB040000 		.4byte	.LASF78
 2031 0923 0D       		.byte	0xd
 2032 0924 7D       		.byte	0x7d
 2033 0925 5F050000 		.4byte	0x55f
 2034 0929 02       		.byte	0x2
 2035 092a 23       		.byte	0x23
 2036 092b 0C       		.uleb128 0xc
 2037 092c 07       		.uleb128 0x7
 2038 092d 70757400 		.ascii	"put\000"
 2039 0931 0D       		.byte	0xd
 2040 0932 7D       		.byte	0x7d
 2041 0933 7F050000 		.4byte	0x57f
 2042 0937 02       		.byte	0x2
 2043 0938 23       		.byte	0x23
 2044 0939 10       		.uleb128 0x10
 2045 093a 07       		.uleb128 0x7
 2046 093b 67657400 		.ascii	"get\000"
 2047 093f 0D       		.byte	0xd
 2048 0940 7D       		.byte	0x7d
 2049 0941 9A050000 		.4byte	0x59a
 2050 0945 02       		.byte	0x2
 2051 0946 23       		.byte	0x23
 2052 0947 14       		.uleb128 0x14
 2053 0948 06       		.uleb128 0x6
 2054 0949 13020000 		.4byte	.LASF79
 2055 094d 0D       		.byte	0xd
 2056 094e 7D       		.byte	0x7d
 2057 094f BF050000 		.4byte	0x5bf
 2058 0953 02       		.byte	0x2
 2059 0954 23       		.byte	0x23
 2060 0955 18       		.uleb128 0x18
 2061 0956 06       		.uleb128 0x6
 2062 0957 AB000000 		.4byte	.LASF80
 2063 095b 0D       		.byte	0xd
 2064 095c 7D       		.byte	0x7d
 2065 095d E4050000 		.4byte	0x5e4
 2066 0961 02       		.byte	0x2
 2067 0962 23       		.byte	0x23
 2068 0963 1C       		.uleb128 0x1c
 2069 0964 06       		.uleb128 0x6
ARM GAS  C:\Users\z80\AppData\Local\Temp\ccD8g6EC.s 			page 38


 2070 0965 93020000 		.4byte	.LASF81
 2071 0969 0D       		.byte	0xd
 2072 096a 7D       		.byte	0x7d
 2073 096b 9B060000 		.4byte	0x69b
 2074 096f 02       		.byte	0x2
 2075 0970 23       		.byte	0x23
 2076 0971 20       		.uleb128 0x20
 2077 0972 00       		.byte	0
 2078 0973 09       		.uleb128 0x9
 2079 0974 04       		.byte	0x4
 2080 0975 79090000 		.4byte	0x979
 2081 0979 10       		.uleb128 0x10
 2082 097a E8080000 		.4byte	0x8e8
 2083 097e 1A       		.uleb128 0x1a
 2084 097f 49000000 		.4byte	0x49
 2085 0983 8F090000 		.4byte	0x98f
 2086 0987 1B       		.uleb128 0x1b
 2087 0988 3B000000 		.4byte	0x3b
 2088 098c FF01     		.2byte	0x1ff
 2089 098e 00       		.byte	0
 2090 098f 09       		.uleb128 0x9
 2091 0990 04       		.byte	0x4
 2092 0991 D3070000 		.4byte	0x7d3
 2093 0995 1C       		.uleb128 0x1c
 2094 0996 0C020000 		.4byte	.LASF109
 2095 099a 01       		.byte	0x1
 2096 099b 3E       		.byte	0x3e
 2097 099c 01       		.byte	0x1
 2098 099d 30000000 		.4byte	0x30
 2099 09a1 00000000 		.4byte	.LFB62
 2100 09a5 26000000 		.4byte	.LFE62
 2101 09a9 00000000 		.4byte	.LLST0
 2102 09ad D8090000 		.4byte	0x9d8
 2103 09b1 1D       		.uleb128 0x1d
 2104 09b2 697000   		.ascii	"ip\000"
 2105 09b5 01       		.byte	0x1
 2106 09b6 3E       		.byte	0x3e
 2107 09b7 80020000 		.4byte	0x280
 2108 09bb 02       		.byte	0x2
 2109 09bc 91       		.byte	0x91
 2110 09bd 74       		.sleb128 -12
 2111 09be 1D       		.uleb128 0x1d
 2112 09bf 627000   		.ascii	"bp\000"
 2113 09c2 01       		.byte	0x1
 2114 09c3 3E       		.byte	0x3e
 2115 09c4 1E050000 		.4byte	0x51e
 2116 09c8 02       		.byte	0x2
 2117 09c9 91       		.byte	0x91
 2118 09ca 70       		.sleb128 -16
 2119 09cb 1D       		.uleb128 0x1d
 2120 09cc 6E00     		.ascii	"n\000"
 2121 09ce 01       		.byte	0x1
 2122 09cf 3E       		.byte	0x3e
 2123 09d0 30000000 		.4byte	0x30
 2124 09d4 02       		.byte	0x2
 2125 09d5 91       		.byte	0x91
 2126 09d6 6C       		.sleb128 -20
ARM GAS  C:\Users\z80\AppData\Local\Temp\ccD8g6EC.s 			page 39


 2127 09d7 00       		.byte	0
 2128 09d8 1C       		.uleb128 0x1c
 2129 09d9 A5000000 		.4byte	.LASF110
 2130 09dd 01       		.byte	0x1
 2131 09de 44       		.byte	0x44
 2132 09df 01       		.byte	0x1
 2133 09e0 30000000 		.4byte	0x30
 2134 09e4 00000000 		.4byte	.LFB63
 2135 09e8 26000000 		.4byte	.LFE63
 2136 09ec 2C000000 		.4byte	.LLST1
 2137 09f0 1B0A0000 		.4byte	0xa1b
 2138 09f4 1D       		.uleb128 0x1d
 2139 09f5 697000   		.ascii	"ip\000"
 2140 09f8 01       		.byte	0x1
 2141 09f9 44       		.byte	0x44
 2142 09fa 80020000 		.4byte	0x280
 2143 09fe 02       		.byte	0x2
 2144 09ff 91       		.byte	0x91
 2145 0a00 74       		.sleb128 -12
 2146 0a01 1D       		.uleb128 0x1d
 2147 0a02 627000   		.ascii	"bp\000"
 2148 0a05 01       		.byte	0x1
 2149 0a06 44       		.byte	0x44
 2150 0a07 E8040000 		.4byte	0x4e8
 2151 0a0b 02       		.byte	0x2
 2152 0a0c 91       		.byte	0x91
 2153 0a0d 70       		.sleb128 -16
 2154 0a0e 1D       		.uleb128 0x1d
 2155 0a0f 6E00     		.ascii	"n\000"
 2156 0a11 01       		.byte	0x1
 2157 0a12 44       		.byte	0x44
 2158 0a13 30000000 		.4byte	0x30
 2159 0a17 02       		.byte	0x2
 2160 0a18 91       		.byte	0x91
 2161 0a19 6C       		.sleb128 -20
 2162 0a1a 00       		.byte	0
 2163 0a1b 1C       		.uleb128 0x1c
 2164 0a1c 4F010000 		.4byte	.LASF77
 2165 0a20 01       		.byte	0x1
 2166 0a21 4A       		.byte	0x4a
 2167 0a22 01       		.byte	0x1
 2168 0a23 BC000000 		.4byte	0xbc
 2169 0a27 00000000 		.4byte	.LFB64
 2170 0a2b 16000000 		.4byte	.LFE64
 2171 0a2f 58000000 		.4byte	.LLST2
 2172 0a33 450A0000 		.4byte	0xa45
 2173 0a37 1D       		.uleb128 0x1d
 2174 0a38 697000   		.ascii	"ip\000"
 2175 0a3b 01       		.byte	0x1
 2176 0a3c 4A       		.byte	0x4a
 2177 0a3d 80020000 		.4byte	0x280
 2178 0a41 02       		.byte	0x2
 2179 0a42 91       		.byte	0x91
 2180 0a43 7C       		.sleb128 -4
 2181 0a44 00       		.byte	0
 2182 0a45 1C       		.uleb128 0x1c
 2183 0a46 CB040000 		.4byte	.LASF78
ARM GAS  C:\Users\z80\AppData\Local\Temp\ccD8g6EC.s 			page 40


 2184 0a4a 01       		.byte	0x1
 2185 0a4b 4F       		.byte	0x4f
 2186 0a4c 01       		.byte	0x1
 2187 0a4d BC000000 		.4byte	0xbc
 2188 0a51 00000000 		.4byte	.LFB65
 2189 0a55 16000000 		.4byte	.LFE65
 2190 0a59 78000000 		.4byte	.LLST3
 2191 0a5d 6F0A0000 		.4byte	0xa6f
 2192 0a61 1D       		.uleb128 0x1d
 2193 0a62 697000   		.ascii	"ip\000"
 2194 0a65 01       		.byte	0x1
 2195 0a66 4F       		.byte	0x4f
 2196 0a67 80020000 		.4byte	0x280
 2197 0a6b 02       		.byte	0x2
 2198 0a6c 91       		.byte	0x91
 2199 0a6d 7C       		.sleb128 -4
 2200 0a6e 00       		.byte	0
 2201 0a6f 1C       		.uleb128 0x1c
 2202 0a70 67020000 		.4byte	.LASF111
 2203 0a74 01       		.byte	0x1
 2204 0a75 54       		.byte	0x54
 2205 0a76 01       		.byte	0x1
 2206 0a77 E8000000 		.4byte	0xe8
 2207 0a7b 00000000 		.4byte	.LFB66
 2208 0a7f 2A000000 		.4byte	.LFE66
 2209 0a83 98000000 		.4byte	.LLST4
 2210 0a87 B30A0000 		.4byte	0xab3
 2211 0a8b 1D       		.uleb128 0x1d
 2212 0a8c 697000   		.ascii	"ip\000"
 2213 0a8f 01       		.byte	0x1
 2214 0a90 54       		.byte	0x54
 2215 0a91 80020000 		.4byte	0x280
 2216 0a95 02       		.byte	0x2
 2217 0a96 91       		.byte	0x91
 2218 0a97 74       		.sleb128 -12
 2219 0a98 1D       		.uleb128 0x1d
 2220 0a99 6200     		.ascii	"b\000"
 2221 0a9b 01       		.byte	0x1
 2222 0a9c 54       		.byte	0x54
 2223 0a9d 49000000 		.4byte	0x49
 2224 0aa1 02       		.byte	0x2
 2225 0aa2 91       		.byte	0x91
 2226 0aa3 73       		.sleb128 -13
 2227 0aa4 1E       		.uleb128 0x1e
 2228 0aa5 D9010000 		.4byte	.LASF112
 2229 0aa9 01       		.byte	0x1
 2230 0aaa 54       		.byte	0x54
 2231 0aab FE000000 		.4byte	0xfe
 2232 0aaf 02       		.byte	0x2
 2233 0ab0 91       		.byte	0x91
 2234 0ab1 6C       		.sleb128 -20
 2235 0ab2 00       		.byte	0
 2236 0ab3 1C       		.uleb128 0x1c
 2237 0ab4 E1010000 		.4byte	.LASF113
 2238 0ab8 01       		.byte	0x1
 2239 0ab9 59       		.byte	0x59
 2240 0aba 01       		.byte	0x1
ARM GAS  C:\Users\z80\AppData\Local\Temp\ccD8g6EC.s 			page 41


 2241 0abb E8000000 		.4byte	0xe8
 2242 0abf 00000000 		.4byte	.LFB67
 2243 0ac3 1E000000 		.4byte	.LFE67
 2244 0ac7 C4000000 		.4byte	.LLST5
 2245 0acb EB0A0000 		.4byte	0xaeb
 2246 0acf 1D       		.uleb128 0x1d
 2247 0ad0 697000   		.ascii	"ip\000"
 2248 0ad3 01       		.byte	0x1
 2249 0ad4 59       		.byte	0x59
 2250 0ad5 80020000 		.4byte	0x280
 2251 0ad9 02       		.byte	0x2
 2252 0ada 91       		.byte	0x91
 2253 0adb 74       		.sleb128 -12
 2254 0adc 1E       		.uleb128 0x1e
 2255 0add D9010000 		.4byte	.LASF112
 2256 0ae1 01       		.byte	0x1
 2257 0ae2 59       		.byte	0x59
 2258 0ae3 FE000000 		.4byte	0xfe
 2259 0ae7 02       		.byte	0x2
 2260 0ae8 91       		.byte	0x91
 2261 0ae9 70       		.sleb128 -16
 2262 0aea 00       		.byte	0
 2263 0aeb 1C       		.uleb128 0x1c
 2264 0aec 13020000 		.4byte	.LASF79
 2265 0af0 01       		.byte	0x1
 2266 0af1 5E       		.byte	0x5e
 2267 0af2 01       		.byte	0x1
 2268 0af3 30000000 		.4byte	0x30
 2269 0af7 00000000 		.4byte	.LFB68
 2270 0afb 26000000 		.4byte	.LFE68
 2271 0aff F0000000 		.4byte	.LLST6
 2272 0b03 3C0B0000 		.4byte	0xb3c
 2273 0b07 1D       		.uleb128 0x1d
 2274 0b08 697000   		.ascii	"ip\000"
 2275 0b0b 01       		.byte	0x1
 2276 0b0c 5E       		.byte	0x5e
 2277 0b0d 80020000 		.4byte	0x280
 2278 0b11 02       		.byte	0x2
 2279 0b12 91       		.byte	0x91
 2280 0b13 74       		.sleb128 -12
 2281 0b14 1D       		.uleb128 0x1d
 2282 0b15 627000   		.ascii	"bp\000"
 2283 0b18 01       		.byte	0x1
 2284 0b19 5E       		.byte	0x5e
 2285 0b1a 1E050000 		.4byte	0x51e
 2286 0b1e 02       		.byte	0x2
 2287 0b1f 91       		.byte	0x91
 2288 0b20 70       		.sleb128 -16
 2289 0b21 1D       		.uleb128 0x1d
 2290 0b22 6E00     		.ascii	"n\000"
 2291 0b24 01       		.byte	0x1
 2292 0b25 5E       		.byte	0x5e
 2293 0b26 30000000 		.4byte	0x30
 2294 0b2a 02       		.byte	0x2
 2295 0b2b 91       		.byte	0x91
 2296 0b2c 6C       		.sleb128 -20
 2297 0b2d 1E       		.uleb128 0x1e
ARM GAS  C:\Users\z80\AppData\Local\Temp\ccD8g6EC.s 			page 42


 2298 0b2e C5020000 		.4byte	.LASF114
 2299 0b32 01       		.byte	0x1
 2300 0b33 5E       		.byte	0x5e
 2301 0b34 FE000000 		.4byte	0xfe
 2302 0b38 02       		.byte	0x2
 2303 0b39 91       		.byte	0x91
 2304 0b3a 68       		.sleb128 -24
 2305 0b3b 00       		.byte	0
 2306 0b3c 1C       		.uleb128 0x1c
 2307 0b3d AB000000 		.4byte	.LASF80
 2308 0b41 01       		.byte	0x1
 2309 0b42 63       		.byte	0x63
 2310 0b43 01       		.byte	0x1
 2311 0b44 30000000 		.4byte	0x30
 2312 0b48 00000000 		.4byte	.LFB69
 2313 0b4c 26000000 		.4byte	.LFE69
 2314 0b50 1C010000 		.4byte	.LLST7
 2315 0b54 8D0B0000 		.4byte	0xb8d
 2316 0b58 1D       		.uleb128 0x1d
 2317 0b59 697000   		.ascii	"ip\000"
 2318 0b5c 01       		.byte	0x1
 2319 0b5d 63       		.byte	0x63
 2320 0b5e 80020000 		.4byte	0x280
 2321 0b62 02       		.byte	0x2
 2322 0b63 91       		.byte	0x91
 2323 0b64 74       		.sleb128 -12
 2324 0b65 1D       		.uleb128 0x1d
 2325 0b66 627000   		.ascii	"bp\000"
 2326 0b69 01       		.byte	0x1
 2327 0b6a 63       		.byte	0x63
 2328 0b6b E8040000 		.4byte	0x4e8
 2329 0b6f 02       		.byte	0x2
 2330 0b70 91       		.byte	0x91
 2331 0b71 70       		.sleb128 -16
 2332 0b72 1D       		.uleb128 0x1d
 2333 0b73 6E00     		.ascii	"n\000"
 2334 0b75 01       		.byte	0x1
 2335 0b76 63       		.byte	0x63
 2336 0b77 30000000 		.4byte	0x30
 2337 0b7b 02       		.byte	0x2
 2338 0b7c 91       		.byte	0x91
 2339 0b7d 6C       		.sleb128 -20
 2340 0b7e 1E       		.uleb128 0x1e
 2341 0b7f C5020000 		.4byte	.LASF114
 2342 0b83 01       		.byte	0x1
 2343 0b84 63       		.byte	0x63
 2344 0b85 FE000000 		.4byte	0xfe
 2345 0b89 02       		.byte	0x2
 2346 0b8a 91       		.byte	0x91
 2347 0b8b 68       		.sleb128 -24
 2348 0b8c 00       		.byte	0
 2349 0b8d 1C       		.uleb128 0x1c
 2350 0b8e 93020000 		.4byte	.LASF81
 2351 0b92 01       		.byte	0x1
 2352 0b93 68       		.byte	0x68
 2353 0b94 01       		.byte	0x1
 2354 0b95 EA050000 		.4byte	0x5ea
ARM GAS  C:\Users\z80\AppData\Local\Temp\ccD8g6EC.s 			page 43


 2355 0b99 00000000 		.4byte	.LFB70
 2356 0b9d 34000000 		.4byte	.LFE70
 2357 0ba1 48010000 		.4byte	.LLST8
 2358 0ba5 F70B0000 		.4byte	0xbf7
 2359 0ba9 1D       		.uleb128 0x1d
 2360 0baa 697000   		.ascii	"ip\000"
 2361 0bad 01       		.byte	0x1
 2362 0bae 68       		.byte	0x68
 2363 0baf 80020000 		.4byte	0x280
 2364 0bb3 02       		.byte	0x2
 2365 0bb4 91       		.byte	0x91
 2366 0bb5 6C       		.sleb128 -20
 2367 0bb6 1F       		.uleb128 0x1f
 2368 0bb7 5D010000 		.4byte	.LASF115
 2369 0bbb 01       		.byte	0x1
 2370 0bbc 69       		.byte	0x69
 2371 0bbd EA050000 		.4byte	0x5ea
 2372 0bc1 02       		.byte	0x2
 2373 0bc2 91       		.byte	0x91
 2374 0bc3 74       		.sleb128 -12
 2375 0bc4 20       		.uleb128 0x20
 2376 0bc5 06000000 		.4byte	.LBB2
 2377 0bc9 0E000000 		.4byte	.LBE2
 2378 0bcd DF0B0000 		.4byte	0xbdf
 2379 0bd1 21       		.uleb128 0x21
 2380 0bd2 746D7000 		.ascii	"tmp\000"
 2381 0bd6 01       		.byte	0x1
 2382 0bd7 69       		.byte	0x69
 2383 0bd8 86000000 		.4byte	0x86
 2384 0bdc 01       		.byte	0x1
 2385 0bdd 53       		.byte	0x53
 2386 0bde 00       		.byte	0
 2387 0bdf 22       		.uleb128 0x22
 2388 0be0 24000000 		.4byte	.LBB3
 2389 0be4 2C000000 		.4byte	.LBE3
 2390 0be8 21       		.uleb128 0x21
 2391 0be9 746D7000 		.ascii	"tmp\000"
 2392 0bed 01       		.byte	0x1
 2393 0bee 69       		.byte	0x69
 2394 0bef 86000000 		.4byte	0x86
 2395 0bf3 01       		.byte	0x1
 2396 0bf4 53       		.byte	0x53
 2397 0bf5 00       		.byte	0
 2398 0bf6 00       		.byte	0
 2399 0bf7 23       		.uleb128 0x23
 2400 0bf8 01       		.byte	0x1
 2401 0bf9 EE040000 		.4byte	.LASF126
 2402 0bfd 01       		.byte	0x1
 2403 0bfe 7D       		.byte	0x7d
 2404 0bff 01       		.byte	0x1
 2405 0c00 00000000 		.4byte	.LFB71
 2406 0c04 08000000 		.4byte	.LFE71
 2407 0c08 74010000 		.4byte	.LLST9
 2408 0c0c 24       		.uleb128 0x24
 2409 0c0d 01       		.byte	0x1
 2410 0c0e 98000000 		.4byte	.LASF118
 2411 0c12 01       		.byte	0x1
ARM GAS  C:\Users\z80\AppData\Local\Temp\ccD8g6EC.s 			page 44


 2412 0c13 91       		.byte	0x91
 2413 0c14 01       		.byte	0x1
 2414 0c15 00000000 		.4byte	.LFB72
 2415 0c19 68000000 		.4byte	.LFE72
 2416 0c1d 94010000 		.4byte	.LLST10
 2417 0c21 500C0000 		.4byte	0xc50
 2418 0c25 1D       		.uleb128 0x1d
 2419 0c26 73647000 		.ascii	"sdp\000"
 2420 0c2a 01       		.byte	0x1
 2421 0c2b 91       		.byte	0x91
 2422 0c2c 500C0000 		.4byte	0xc50
 2423 0c30 02       		.byte	0x2
 2424 0c31 91       		.byte	0x91
 2425 0c32 74       		.sleb128 -12
 2426 0c33 1E       		.uleb128 0x1e
 2427 0c34 BF010000 		.4byte	.LASF116
 2428 0c38 01       		.byte	0x1
 2429 0c39 91       		.byte	0x91
 2430 0c3a C5040000 		.4byte	0x4c5
 2431 0c3e 02       		.byte	0x2
 2432 0c3f 91       		.byte	0x91
 2433 0c40 70       		.sleb128 -16
 2434 0c41 1E       		.uleb128 0x1e
 2435 0c42 AE040000 		.4byte	.LASF117
 2436 0c46 01       		.byte	0x1
 2437 0c47 91       		.byte	0x91
 2438 0c48 C5040000 		.4byte	0x4c5
 2439 0c4c 02       		.byte	0x2
 2440 0c4d 91       		.byte	0x91
 2441 0c4e 6C       		.sleb128 -20
 2442 0c4f 00       		.byte	0
 2443 0c50 09       		.uleb128 0x9
 2444 0c51 04       		.byte	0x4
 2445 0c52 05080000 		.4byte	0x805
 2446 0c56 24       		.uleb128 0x24
 2447 0c57 01       		.byte	0x1
 2448 0c58 19040000 		.4byte	.LASF119
 2449 0c5c 01       		.byte	0x1
 2450 0c5d A5       		.byte	0xa5
 2451 0c5e 01       		.byte	0x1
 2452 0c5f 00000000 		.4byte	.LFB73
 2453 0c63 62000000 		.4byte	.LFE73
 2454 0c67 C0010000 		.4byte	.LLST11
 2455 0c6b BE0C0000 		.4byte	0xcbe
 2456 0c6f 1D       		.uleb128 0x1d
 2457 0c70 73647000 		.ascii	"sdp\000"
 2458 0c74 01       		.byte	0x1
 2459 0c75 A5       		.byte	0xa5
 2460 0c76 500C0000 		.4byte	0xc50
 2461 0c7a 02       		.byte	0x2
 2462 0c7b 91       		.byte	0x91
 2463 0c7c 74       		.sleb128 -12
 2464 0c7d 1E       		.uleb128 0x1e
 2465 0c7e 12040000 		.4byte	.LASF120
 2466 0c82 01       		.byte	0x1
 2467 0c83 A5       		.byte	0xa5
 2468 0c84 BE0C0000 		.4byte	0xcbe
ARM GAS  C:\Users\z80\AppData\Local\Temp\ccD8g6EC.s 			page 45


 2469 0c88 02       		.byte	0x2
 2470 0c89 91       		.byte	0x91
 2471 0c8a 70       		.sleb128 -16
 2472 0c8b 20       		.uleb128 0x20
 2473 0c8c 1A000000 		.4byte	.LBB4
 2474 0c90 22000000 		.4byte	.LBE4
 2475 0c94 A60C0000 		.4byte	0xca6
 2476 0c98 21       		.uleb128 0x21
 2477 0c99 746D7000 		.ascii	"tmp\000"
 2478 0c9d 01       		.byte	0x1
 2479 0c9e A9       		.byte	0xa9
 2480 0c9f 86000000 		.4byte	0x86
 2481 0ca3 01       		.byte	0x1
 2482 0ca4 53       		.byte	0x53
 2483 0ca5 00       		.byte	0
 2484 0ca6 22       		.uleb128 0x22
 2485 0ca7 56000000 		.4byte	.LBB5
 2486 0cab 5E000000 		.4byte	.LBE5
 2487 0caf 21       		.uleb128 0x21
 2488 0cb0 746D7000 		.ascii	"tmp\000"
 2489 0cb4 01       		.byte	0x1
 2490 0cb5 AF       		.byte	0xaf
 2491 0cb6 86000000 		.4byte	0x86
 2492 0cba 01       		.byte	0x1
 2493 0cbb 53       		.byte	0x53
 2494 0cbc 00       		.byte	0
 2495 0cbd 00       		.byte	0
 2496 0cbe 09       		.uleb128 0x9
 2497 0cbf 04       		.byte	0x4
 2498 0cc0 C40C0000 		.4byte	0xcc4
 2499 0cc4 10       		.uleb128 0x10
 2500 0cc5 DD080000 		.4byte	0x8dd
 2501 0cc9 24       		.uleb128 0x24
 2502 0cca 01       		.byte	0x1
 2503 0ccb BE020000 		.4byte	.LASF121
 2504 0ccf 01       		.byte	0x1
 2505 0cd0 BB       		.byte	0xbb
 2506 0cd1 01       		.byte	0x1
 2507 0cd2 00000000 		.4byte	.LFB74
 2508 0cd6 7A000000 		.4byte	.LFE74
 2509 0cda EC010000 		.4byte	.LLST12
 2510 0cde 230D0000 		.4byte	0xd23
 2511 0ce2 1D       		.uleb128 0x1d
 2512 0ce3 73647000 		.ascii	"sdp\000"
 2513 0ce7 01       		.byte	0x1
 2514 0ce8 BB       		.byte	0xbb
 2515 0ce9 500C0000 		.4byte	0xc50
 2516 0ced 02       		.byte	0x2
 2517 0cee 91       		.byte	0x91
 2518 0cef 74       		.sleb128 -12
 2519 0cf0 20       		.uleb128 0x20
 2520 0cf1 18000000 		.4byte	.LBB6
 2521 0cf5 20000000 		.4byte	.LBE6
 2522 0cf9 0B0D0000 		.4byte	0xd0b
 2523 0cfd 21       		.uleb128 0x21
 2524 0cfe 746D7000 		.ascii	"tmp\000"
 2525 0d02 01       		.byte	0x1
ARM GAS  C:\Users\z80\AppData\Local\Temp\ccD8g6EC.s 			page 46


 2526 0d03 BF       		.byte	0xbf
 2527 0d04 86000000 		.4byte	0x86
 2528 0d08 01       		.byte	0x1
 2529 0d09 53       		.byte	0x53
 2530 0d0a 00       		.byte	0
 2531 0d0b 22       		.uleb128 0x22
 2532 0d0c 6E000000 		.4byte	.LBB7
 2533 0d10 76000000 		.4byte	.LBE7
 2534 0d14 21       		.uleb128 0x21
 2535 0d15 746D7000 		.ascii	"tmp\000"
 2536 0d19 01       		.byte	0x1
 2537 0d1a C8       		.byte	0xc8
 2538 0d1b 86000000 		.4byte	0x86
 2539 0d1f 01       		.byte	0x1
 2540 0d20 53       		.byte	0x53
 2541 0d21 00       		.byte	0
 2542 0d22 00       		.byte	0
 2543 0d23 24       		.uleb128 0x24
 2544 0d24 01       		.byte	0x1
 2545 0d25 02040000 		.4byte	.LASF122
 2546 0d29 01       		.byte	0x1
 2547 0d2a DB       		.byte	0xdb
 2548 0d2b 01       		.byte	0x1
 2549 0d2c 00000000 		.4byte	.LFB75
 2550 0d30 7E000000 		.4byte	.LFE75
 2551 0d34 18020000 		.4byte	.LLST13
 2552 0d38 570D0000 		.4byte	0xd57
 2553 0d3c 1D       		.uleb128 0x1d
 2554 0d3d 73647000 		.ascii	"sdp\000"
 2555 0d41 01       		.byte	0x1
 2556 0d42 DB       		.byte	0xdb
 2557 0d43 500C0000 		.4byte	0xc50
 2558 0d47 02       		.byte	0x2
 2559 0d48 91       		.byte	0x91
 2560 0d49 74       		.sleb128 -12
 2561 0d4a 1D       		.uleb128 0x1d
 2562 0d4b 6200     		.ascii	"b\000"
 2563 0d4d 01       		.byte	0x1
 2564 0d4e DB       		.byte	0xdb
 2565 0d4f 49000000 		.4byte	0x49
 2566 0d53 02       		.byte	0x2
 2567 0d54 91       		.byte	0x91
 2568 0d55 73       		.sleb128 -13
 2569 0d56 00       		.byte	0
 2570 0d57 25       		.uleb128 0x25
 2571 0d58 01       		.byte	0x1
 2572 0d59 91040000 		.4byte	.LASF127
 2573 0d5d 01       		.byte	0x1
 2574 0d5e F5       		.byte	0xf5
 2575 0d5f 01       		.byte	0x1
 2576 0d60 E8000000 		.4byte	0xe8
 2577 0d64 00000000 		.4byte	.LFB76
 2578 0d68 54000000 		.4byte	.LFE76
 2579 0d6c 44020000 		.4byte	.LLST14
 2580 0d70 8F0D0000 		.4byte	0xd8f
 2581 0d74 1D       		.uleb128 0x1d
 2582 0d75 73647000 		.ascii	"sdp\000"
ARM GAS  C:\Users\z80\AppData\Local\Temp\ccD8g6EC.s 			page 47


 2583 0d79 01       		.byte	0x1
 2584 0d7a F5       		.byte	0xf5
 2585 0d7b 500C0000 		.4byte	0xc50
 2586 0d7f 02       		.byte	0x2
 2587 0d80 91       		.byte	0x91
 2588 0d81 6C       		.sleb128 -20
 2589 0d82 21       		.uleb128 0x21
 2590 0d83 6200     		.ascii	"b\000"
 2591 0d85 01       		.byte	0x1
 2592 0d86 F6       		.byte	0xf6
 2593 0d87 E8000000 		.4byte	0xe8
 2594 0d8b 02       		.byte	0x2
 2595 0d8c 91       		.byte	0x91
 2596 0d8d 74       		.sleb128 -12
 2597 0d8e 00       		.byte	0
 2598 0d8f 21       		.uleb128 0x21
 2599 0d90 766D7400 		.ascii	"vmt\000"
 2600 0d94 01       		.byte	0x1
 2601 0d95 6C       		.byte	0x6c
 2602 0d96 79090000 		.4byte	0x979
 2603 0d9a 05       		.byte	0x5
 2604 0d9b 03       		.byte	0x3
 2605 0d9c 00000000 		.4byte	vmt
 2606 0da0 26       		.uleb128 0x26
 2607 0da1 8B000000 		.4byte	.LASF128
 2608 0da5 0F       		.byte	0xf
 2609 0da6 9404     		.2byte	0x494
 2610 0da8 F4060000 		.4byte	0x6f4
 2611 0dac 01       		.byte	0x1
 2612 0dad 01       		.byte	0x1
 2613 0dae 00       		.byte	0
 2614              		.section	.debug_abbrev,"",%progbits
 2615              	.Ldebug_abbrev0:
 2616 0000 01       		.uleb128 0x1
 2617 0001 11       		.uleb128 0x11
 2618 0002 01       		.byte	0x1
 2619 0003 25       		.uleb128 0x25
 2620 0004 0E       		.uleb128 0xe
 2621 0005 13       		.uleb128 0x13
 2622 0006 0B       		.uleb128 0xb
 2623 0007 03       		.uleb128 0x3
 2624 0008 0E       		.uleb128 0xe
 2625 0009 1B       		.uleb128 0x1b
 2626 000a 0E       		.uleb128 0xe
 2627 000b 11       		.uleb128 0x11
 2628 000c 01       		.uleb128 0x1
 2629 000d 52       		.uleb128 0x52
 2630 000e 01       		.uleb128 0x1
 2631 000f 55       		.uleb128 0x55
 2632 0010 06       		.uleb128 0x6
 2633 0011 10       		.uleb128 0x10
 2634 0012 06       		.uleb128 0x6
 2635 0013 00       		.byte	0
 2636 0014 00       		.byte	0
 2637 0015 02       		.uleb128 0x2
 2638 0016 24       		.uleb128 0x24
 2639 0017 00       		.byte	0
ARM GAS  C:\Users\z80\AppData\Local\Temp\ccD8g6EC.s 			page 48


 2640 0018 0B       		.uleb128 0xb
 2641 0019 0B       		.uleb128 0xb
 2642 001a 3E       		.uleb128 0x3e
 2643 001b 0B       		.uleb128 0xb
 2644 001c 03       		.uleb128 0x3
 2645 001d 08       		.uleb128 0x8
 2646 001e 00       		.byte	0
 2647 001f 00       		.byte	0
 2648 0020 03       		.uleb128 0x3
 2649 0021 16       		.uleb128 0x16
 2650 0022 00       		.byte	0
 2651 0023 03       		.uleb128 0x3
 2652 0024 0E       		.uleb128 0xe
 2653 0025 3A       		.uleb128 0x3a
 2654 0026 0B       		.uleb128 0xb
 2655 0027 3B       		.uleb128 0x3b
 2656 0028 0B       		.uleb128 0xb
 2657 0029 49       		.uleb128 0x49
 2658 002a 13       		.uleb128 0x13
 2659 002b 00       		.byte	0
 2660 002c 00       		.byte	0
 2661 002d 04       		.uleb128 0x4
 2662 002e 24       		.uleb128 0x24
 2663 002f 00       		.byte	0
 2664 0030 0B       		.uleb128 0xb
 2665 0031 0B       		.uleb128 0xb
 2666 0032 3E       		.uleb128 0x3e
 2667 0033 0B       		.uleb128 0xb
 2668 0034 03       		.uleb128 0x3
 2669 0035 0E       		.uleb128 0xe
 2670 0036 00       		.byte	0
 2671 0037 00       		.byte	0
 2672 0038 05       		.uleb128 0x5
 2673 0039 13       		.uleb128 0x13
 2674 003a 01       		.byte	0x1
 2675 003b 03       		.uleb128 0x3
 2676 003c 0E       		.uleb128 0xe
 2677 003d 0B       		.uleb128 0xb
 2678 003e 0B       		.uleb128 0xb
 2679 003f 3A       		.uleb128 0x3a
 2680 0040 0B       		.uleb128 0xb
 2681 0041 3B       		.uleb128 0x3b
 2682 0042 0B       		.uleb128 0xb
 2683 0043 01       		.uleb128 0x1
 2684 0044 13       		.uleb128 0x13
 2685 0045 00       		.byte	0
 2686 0046 00       		.byte	0
 2687 0047 06       		.uleb128 0x6
 2688 0048 0D       		.uleb128 0xd
 2689 0049 00       		.byte	0
 2690 004a 03       		.uleb128 0x3
 2691 004b 0E       		.uleb128 0xe
 2692 004c 3A       		.uleb128 0x3a
 2693 004d 0B       		.uleb128 0xb
 2694 004e 3B       		.uleb128 0x3b
 2695 004f 0B       		.uleb128 0xb
 2696 0050 49       		.uleb128 0x49
ARM GAS  C:\Users\z80\AppData\Local\Temp\ccD8g6EC.s 			page 49


 2697 0051 13       		.uleb128 0x13
 2698 0052 38       		.uleb128 0x38
 2699 0053 0A       		.uleb128 0xa
 2700 0054 00       		.byte	0
 2701 0055 00       		.byte	0
 2702 0056 07       		.uleb128 0x7
 2703 0057 0D       		.uleb128 0xd
 2704 0058 00       		.byte	0
 2705 0059 03       		.uleb128 0x3
 2706 005a 08       		.uleb128 0x8
 2707 005b 3A       		.uleb128 0x3a
 2708 005c 0B       		.uleb128 0xb
 2709 005d 3B       		.uleb128 0x3b
 2710 005e 0B       		.uleb128 0xb
 2711 005f 49       		.uleb128 0x49
 2712 0060 13       		.uleb128 0x13
 2713 0061 38       		.uleb128 0x38
 2714 0062 0A       		.uleb128 0xa
 2715 0063 00       		.byte	0
 2716 0064 00       		.byte	0
 2717 0065 08       		.uleb128 0x8
 2718 0066 13       		.uleb128 0x13
 2719 0067 01       		.byte	0x1
 2720 0068 0B       		.uleb128 0xb
 2721 0069 0B       		.uleb128 0xb
 2722 006a 3A       		.uleb128 0x3a
 2723 006b 0B       		.uleb128 0xb
 2724 006c 3B       		.uleb128 0x3b
 2725 006d 0B       		.uleb128 0xb
 2726 006e 01       		.uleb128 0x1
 2727 006f 13       		.uleb128 0x13
 2728 0070 00       		.byte	0
 2729 0071 00       		.byte	0
 2730 0072 09       		.uleb128 0x9
 2731 0073 0F       		.uleb128 0xf
 2732 0074 00       		.byte	0
 2733 0075 0B       		.uleb128 0xb
 2734 0076 0B       		.uleb128 0xb
 2735 0077 49       		.uleb128 0x49
 2736 0078 13       		.uleb128 0x13
 2737 0079 00       		.byte	0
 2738 007a 00       		.byte	0
 2739 007b 0A       		.uleb128 0xa
 2740 007c 0F       		.uleb128 0xf
 2741 007d 00       		.byte	0
 2742 007e 0B       		.uleb128 0xb
 2743 007f 0B       		.uleb128 0xb
 2744 0080 00       		.byte	0
 2745 0081 00       		.byte	0
 2746 0082 0B       		.uleb128 0xb
 2747 0083 0D       		.uleb128 0xd
 2748 0084 00       		.byte	0
 2749 0085 03       		.uleb128 0x3
 2750 0086 08       		.uleb128 0x8
 2751 0087 3A       		.uleb128 0x3a
 2752 0088 0B       		.uleb128 0xb
 2753 0089 3B       		.uleb128 0x3b
ARM GAS  C:\Users\z80\AppData\Local\Temp\ccD8g6EC.s 			page 50


 2754 008a 05       		.uleb128 0x5
 2755 008b 49       		.uleb128 0x49
 2756 008c 13       		.uleb128 0x13
 2757 008d 38       		.uleb128 0x38
 2758 008e 0A       		.uleb128 0xa
 2759 008f 00       		.byte	0
 2760 0090 00       		.byte	0
 2761 0091 0C       		.uleb128 0xc
 2762 0092 13       		.uleb128 0x13
 2763 0093 01       		.byte	0x1
 2764 0094 03       		.uleb128 0x3
 2765 0095 0E       		.uleb128 0xe
 2766 0096 0B       		.uleb128 0xb
 2767 0097 0B       		.uleb128 0xb
 2768 0098 3A       		.uleb128 0x3a
 2769 0099 0B       		.uleb128 0xb
 2770 009a 3B       		.uleb128 0x3b
 2771 009b 05       		.uleb128 0x5
 2772 009c 01       		.uleb128 0x1
 2773 009d 13       		.uleb128 0x13
 2774 009e 00       		.byte	0
 2775 009f 00       		.byte	0
 2776 00a0 0D       		.uleb128 0xd
 2777 00a1 35       		.uleb128 0x35
 2778 00a2 00       		.byte	0
 2779 00a3 49       		.uleb128 0x49
 2780 00a4 13       		.uleb128 0x13
 2781 00a5 00       		.byte	0
 2782 00a6 00       		.byte	0
 2783 00a7 0E       		.uleb128 0xe
 2784 00a8 17       		.uleb128 0x17
 2785 00a9 01       		.byte	0x1
 2786 00aa 0B       		.uleb128 0xb
 2787 00ab 0B       		.uleb128 0xb
 2788 00ac 3A       		.uleb128 0x3a
 2789 00ad 0B       		.uleb128 0xb
 2790 00ae 3B       		.uleb128 0x3b
 2791 00af 0B       		.uleb128 0xb
 2792 00b0 01       		.uleb128 0x1
 2793 00b1 13       		.uleb128 0x13
 2794 00b2 00       		.byte	0
 2795 00b3 00       		.byte	0
 2796 00b4 0F       		.uleb128 0xf
 2797 00b5 0D       		.uleb128 0xd
 2798 00b6 00       		.byte	0
 2799 00b7 03       		.uleb128 0x3
 2800 00b8 0E       		.uleb128 0xe
 2801 00b9 3A       		.uleb128 0x3a
 2802 00ba 0B       		.uleb128 0xb
 2803 00bb 3B       		.uleb128 0x3b
 2804 00bc 0B       		.uleb128 0xb
 2805 00bd 49       		.uleb128 0x49
 2806 00be 13       		.uleb128 0x13
 2807 00bf 00       		.byte	0
 2808 00c0 00       		.byte	0
 2809 00c1 10       		.uleb128 0x10
 2810 00c2 26       		.uleb128 0x26
ARM GAS  C:\Users\z80\AppData\Local\Temp\ccD8g6EC.s 			page 51


 2811 00c3 00       		.byte	0
 2812 00c4 49       		.uleb128 0x49
 2813 00c5 13       		.uleb128 0x13
 2814 00c6 00       		.byte	0
 2815 00c7 00       		.byte	0
 2816 00c8 11       		.uleb128 0x11
 2817 00c9 15       		.uleb128 0x15
 2818 00ca 01       		.byte	0x1
 2819 00cb 27       		.uleb128 0x27
 2820 00cc 0C       		.uleb128 0xc
 2821 00cd 01       		.uleb128 0x1
 2822 00ce 13       		.uleb128 0x13
 2823 00cf 00       		.byte	0
 2824 00d0 00       		.byte	0
 2825 00d1 12       		.uleb128 0x12
 2826 00d2 05       		.uleb128 0x5
 2827 00d3 00       		.byte	0
 2828 00d4 49       		.uleb128 0x49
 2829 00d5 13       		.uleb128 0x13
 2830 00d6 00       		.byte	0
 2831 00d7 00       		.byte	0
 2832 00d8 13       		.uleb128 0x13
 2833 00d9 15       		.uleb128 0x15
 2834 00da 01       		.byte	0x1
 2835 00db 27       		.uleb128 0x27
 2836 00dc 0C       		.uleb128 0xc
 2837 00dd 49       		.uleb128 0x49
 2838 00de 13       		.uleb128 0x13
 2839 00df 01       		.uleb128 0x1
 2840 00e0 13       		.uleb128 0x13
 2841 00e1 00       		.byte	0
 2842 00e2 00       		.byte	0
 2843 00e3 14       		.uleb128 0x14
 2844 00e4 16       		.uleb128 0x16
 2845 00e5 00       		.byte	0
 2846 00e6 03       		.uleb128 0x3
 2847 00e7 0E       		.uleb128 0xe
 2848 00e8 3A       		.uleb128 0x3a
 2849 00e9 0B       		.uleb128 0xb
 2850 00ea 3B       		.uleb128 0x3b
 2851 00eb 05       		.uleb128 0x5
 2852 00ec 49       		.uleb128 0x49
 2853 00ed 13       		.uleb128 0x13
 2854 00ee 00       		.byte	0
 2855 00ef 00       		.byte	0
 2856 00f0 15       		.uleb128 0x15
 2857 00f1 0D       		.uleb128 0xd
 2858 00f2 00       		.byte	0
 2859 00f3 03       		.uleb128 0x3
 2860 00f4 0E       		.uleb128 0xe
 2861 00f5 3A       		.uleb128 0x3a
 2862 00f6 0B       		.uleb128 0xb
 2863 00f7 3B       		.uleb128 0x3b
 2864 00f8 05       		.uleb128 0x5
 2865 00f9 49       		.uleb128 0x49
 2866 00fa 13       		.uleb128 0x13
 2867 00fb 38       		.uleb128 0x38
ARM GAS  C:\Users\z80\AppData\Local\Temp\ccD8g6EC.s 			page 52


 2868 00fc 0A       		.uleb128 0xa
 2869 00fd 00       		.byte	0
 2870 00fe 00       		.byte	0
 2871 00ff 16       		.uleb128 0x16
 2872 0100 13       		.uleb128 0x13
 2873 0101 01       		.byte	0x1
 2874 0102 0B       		.uleb128 0xb
 2875 0103 0B       		.uleb128 0xb
 2876 0104 3A       		.uleb128 0x3a
 2877 0105 0B       		.uleb128 0xb
 2878 0106 3B       		.uleb128 0x3b
 2879 0107 05       		.uleb128 0x5
 2880 0108 01       		.uleb128 0x1
 2881 0109 13       		.uleb128 0x13
 2882 010a 00       		.byte	0
 2883 010b 00       		.byte	0
 2884 010c 17       		.uleb128 0x17
 2885 010d 04       		.uleb128 0x4
 2886 010e 01       		.byte	0x1
 2887 010f 0B       		.uleb128 0xb
 2888 0110 0B       		.uleb128 0xb
 2889 0111 3A       		.uleb128 0x3a
 2890 0112 0B       		.uleb128 0xb
 2891 0113 3B       		.uleb128 0x3b
 2892 0114 0B       		.uleb128 0xb
 2893 0115 01       		.uleb128 0x1
 2894 0116 13       		.uleb128 0x13
 2895 0117 00       		.byte	0
 2896 0118 00       		.byte	0
 2897 0119 18       		.uleb128 0x18
 2898 011a 28       		.uleb128 0x28
 2899 011b 00       		.byte	0
 2900 011c 03       		.uleb128 0x3
 2901 011d 0E       		.uleb128 0xe
 2902 011e 1C       		.uleb128 0x1c
 2903 011f 0D       		.uleb128 0xd
 2904 0120 00       		.byte	0
 2905 0121 00       		.byte	0
 2906 0122 19       		.uleb128 0x19
 2907 0123 13       		.uleb128 0x13
 2908 0124 01       		.byte	0x1
 2909 0125 03       		.uleb128 0x3
 2910 0126 0E       		.uleb128 0xe
 2911 0127 0B       		.uleb128 0xb
 2912 0128 05       		.uleb128 0x5
 2913 0129 3A       		.uleb128 0x3a
 2914 012a 0B       		.uleb128 0xb
 2915 012b 3B       		.uleb128 0x3b
 2916 012c 0B       		.uleb128 0xb
 2917 012d 01       		.uleb128 0x1
 2918 012e 13       		.uleb128 0x13
 2919 012f 00       		.byte	0
 2920 0130 00       		.byte	0
 2921 0131 1A       		.uleb128 0x1a
 2922 0132 01       		.uleb128 0x1
 2923 0133 01       		.byte	0x1
 2924 0134 49       		.uleb128 0x49
ARM GAS  C:\Users\z80\AppData\Local\Temp\ccD8g6EC.s 			page 53


 2925 0135 13       		.uleb128 0x13
 2926 0136 01       		.uleb128 0x1
 2927 0137 13       		.uleb128 0x13
 2928 0138 00       		.byte	0
 2929 0139 00       		.byte	0
 2930 013a 1B       		.uleb128 0x1b
 2931 013b 21       		.uleb128 0x21
 2932 013c 00       		.byte	0
 2933 013d 49       		.uleb128 0x49
 2934 013e 13       		.uleb128 0x13
 2935 013f 2F       		.uleb128 0x2f
 2936 0140 05       		.uleb128 0x5
 2937 0141 00       		.byte	0
 2938 0142 00       		.byte	0
 2939 0143 1C       		.uleb128 0x1c
 2940 0144 2E       		.uleb128 0x2e
 2941 0145 01       		.byte	0x1
 2942 0146 03       		.uleb128 0x3
 2943 0147 0E       		.uleb128 0xe
 2944 0148 3A       		.uleb128 0x3a
 2945 0149 0B       		.uleb128 0xb
 2946 014a 3B       		.uleb128 0x3b
 2947 014b 0B       		.uleb128 0xb
 2948 014c 27       		.uleb128 0x27
 2949 014d 0C       		.uleb128 0xc
 2950 014e 49       		.uleb128 0x49
 2951 014f 13       		.uleb128 0x13
 2952 0150 11       		.uleb128 0x11
 2953 0151 01       		.uleb128 0x1
 2954 0152 12       		.uleb128 0x12
 2955 0153 01       		.uleb128 0x1
 2956 0154 40       		.uleb128 0x40
 2957 0155 06       		.uleb128 0x6
 2958 0156 01       		.uleb128 0x1
 2959 0157 13       		.uleb128 0x13
 2960 0158 00       		.byte	0
 2961 0159 00       		.byte	0
 2962 015a 1D       		.uleb128 0x1d
 2963 015b 05       		.uleb128 0x5
 2964 015c 00       		.byte	0
 2965 015d 03       		.uleb128 0x3
 2966 015e 08       		.uleb128 0x8
 2967 015f 3A       		.uleb128 0x3a
 2968 0160 0B       		.uleb128 0xb
 2969 0161 3B       		.uleb128 0x3b
 2970 0162 0B       		.uleb128 0xb
 2971 0163 49       		.uleb128 0x49
 2972 0164 13       		.uleb128 0x13
 2973 0165 02       		.uleb128 0x2
 2974 0166 0A       		.uleb128 0xa
 2975 0167 00       		.byte	0
 2976 0168 00       		.byte	0
 2977 0169 1E       		.uleb128 0x1e
 2978 016a 05       		.uleb128 0x5
 2979 016b 00       		.byte	0
 2980 016c 03       		.uleb128 0x3
 2981 016d 0E       		.uleb128 0xe
ARM GAS  C:\Users\z80\AppData\Local\Temp\ccD8g6EC.s 			page 54


 2982 016e 3A       		.uleb128 0x3a
 2983 016f 0B       		.uleb128 0xb
 2984 0170 3B       		.uleb128 0x3b
 2985 0171 0B       		.uleb128 0xb
 2986 0172 49       		.uleb128 0x49
 2987 0173 13       		.uleb128 0x13
 2988 0174 02       		.uleb128 0x2
 2989 0175 0A       		.uleb128 0xa
 2990 0176 00       		.byte	0
 2991 0177 00       		.byte	0
 2992 0178 1F       		.uleb128 0x1f
 2993 0179 34       		.uleb128 0x34
 2994 017a 00       		.byte	0
 2995 017b 03       		.uleb128 0x3
 2996 017c 0E       		.uleb128 0xe
 2997 017d 3A       		.uleb128 0x3a
 2998 017e 0B       		.uleb128 0xb
 2999 017f 3B       		.uleb128 0x3b
 3000 0180 0B       		.uleb128 0xb
 3001 0181 49       		.uleb128 0x49
 3002 0182 13       		.uleb128 0x13
 3003 0183 02       		.uleb128 0x2
 3004 0184 0A       		.uleb128 0xa
 3005 0185 00       		.byte	0
 3006 0186 00       		.byte	0
 3007 0187 20       		.uleb128 0x20
 3008 0188 0B       		.uleb128 0xb
 3009 0189 01       		.byte	0x1
 3010 018a 11       		.uleb128 0x11
 3011 018b 01       		.uleb128 0x1
 3012 018c 12       		.uleb128 0x12
 3013 018d 01       		.uleb128 0x1
 3014 018e 01       		.uleb128 0x1
 3015 018f 13       		.uleb128 0x13
 3016 0190 00       		.byte	0
 3017 0191 00       		.byte	0
 3018 0192 21       		.uleb128 0x21
 3019 0193 34       		.uleb128 0x34
 3020 0194 00       		.byte	0
 3021 0195 03       		.uleb128 0x3
 3022 0196 08       		.uleb128 0x8
 3023 0197 3A       		.uleb128 0x3a
 3024 0198 0B       		.uleb128 0xb
 3025 0199 3B       		.uleb128 0x3b
 3026 019a 0B       		.uleb128 0xb
 3027 019b 49       		.uleb128 0x49
 3028 019c 13       		.uleb128 0x13
 3029 019d 02       		.uleb128 0x2
 3030 019e 0A       		.uleb128 0xa
 3031 019f 00       		.byte	0
 3032 01a0 00       		.byte	0
 3033 01a1 22       		.uleb128 0x22
 3034 01a2 0B       		.uleb128 0xb
 3035 01a3 01       		.byte	0x1
 3036 01a4 11       		.uleb128 0x11
 3037 01a5 01       		.uleb128 0x1
 3038 01a6 12       		.uleb128 0x12
ARM GAS  C:\Users\z80\AppData\Local\Temp\ccD8g6EC.s 			page 55


 3039 01a7 01       		.uleb128 0x1
 3040 01a8 00       		.byte	0
 3041 01a9 00       		.byte	0
 3042 01aa 23       		.uleb128 0x23
 3043 01ab 2E       		.uleb128 0x2e
 3044 01ac 00       		.byte	0
 3045 01ad 3F       		.uleb128 0x3f
 3046 01ae 0C       		.uleb128 0xc
 3047 01af 03       		.uleb128 0x3
 3048 01b0 0E       		.uleb128 0xe
 3049 01b1 3A       		.uleb128 0x3a
 3050 01b2 0B       		.uleb128 0xb
 3051 01b3 3B       		.uleb128 0x3b
 3052 01b4 0B       		.uleb128 0xb
 3053 01b5 27       		.uleb128 0x27
 3054 01b6 0C       		.uleb128 0xc
 3055 01b7 11       		.uleb128 0x11
 3056 01b8 01       		.uleb128 0x1
 3057 01b9 12       		.uleb128 0x12
 3058 01ba 01       		.uleb128 0x1
 3059 01bb 40       		.uleb128 0x40
 3060 01bc 06       		.uleb128 0x6
 3061 01bd 00       		.byte	0
 3062 01be 00       		.byte	0
 3063 01bf 24       		.uleb128 0x24
 3064 01c0 2E       		.uleb128 0x2e
 3065 01c1 01       		.byte	0x1
 3066 01c2 3F       		.uleb128 0x3f
 3067 01c3 0C       		.uleb128 0xc
 3068 01c4 03       		.uleb128 0x3
 3069 01c5 0E       		.uleb128 0xe
 3070 01c6 3A       		.uleb128 0x3a
 3071 01c7 0B       		.uleb128 0xb
 3072 01c8 3B       		.uleb128 0x3b
 3073 01c9 0B       		.uleb128 0xb
 3074 01ca 27       		.uleb128 0x27
 3075 01cb 0C       		.uleb128 0xc
 3076 01cc 11       		.uleb128 0x11
 3077 01cd 01       		.uleb128 0x1
 3078 01ce 12       		.uleb128 0x12
 3079 01cf 01       		.uleb128 0x1
 3080 01d0 40       		.uleb128 0x40
 3081 01d1 06       		.uleb128 0x6
 3082 01d2 01       		.uleb128 0x1
 3083 01d3 13       		.uleb128 0x13
 3084 01d4 00       		.byte	0
 3085 01d5 00       		.byte	0
 3086 01d6 25       		.uleb128 0x25
 3087 01d7 2E       		.uleb128 0x2e
 3088 01d8 01       		.byte	0x1
 3089 01d9 3F       		.uleb128 0x3f
 3090 01da 0C       		.uleb128 0xc
 3091 01db 03       		.uleb128 0x3
 3092 01dc 0E       		.uleb128 0xe
 3093 01dd 3A       		.uleb128 0x3a
 3094 01de 0B       		.uleb128 0xb
 3095 01df 3B       		.uleb128 0x3b
ARM GAS  C:\Users\z80\AppData\Local\Temp\ccD8g6EC.s 			page 56


 3096 01e0 0B       		.uleb128 0xb
 3097 01e1 27       		.uleb128 0x27
 3098 01e2 0C       		.uleb128 0xc
 3099 01e3 49       		.uleb128 0x49
 3100 01e4 13       		.uleb128 0x13
 3101 01e5 11       		.uleb128 0x11
 3102 01e6 01       		.uleb128 0x1
 3103 01e7 12       		.uleb128 0x12
 3104 01e8 01       		.uleb128 0x1
 3105 01e9 40       		.uleb128 0x40
 3106 01ea 06       		.uleb128 0x6
 3107 01eb 01       		.uleb128 0x1
 3108 01ec 13       		.uleb128 0x13
 3109 01ed 00       		.byte	0
 3110 01ee 00       		.byte	0
 3111 01ef 26       		.uleb128 0x26
 3112 01f0 34       		.uleb128 0x34
 3113 01f1 00       		.byte	0
 3114 01f2 03       		.uleb128 0x3
 3115 01f3 0E       		.uleb128 0xe
 3116 01f4 3A       		.uleb128 0x3a
 3117 01f5 0B       		.uleb128 0xb
 3118 01f6 3B       		.uleb128 0x3b
 3119 01f7 05       		.uleb128 0x5
 3120 01f8 49       		.uleb128 0x49
 3121 01f9 13       		.uleb128 0x13
 3122 01fa 3F       		.uleb128 0x3f
 3123 01fb 0C       		.uleb128 0xc
 3124 01fc 3C       		.uleb128 0x3c
 3125 01fd 0C       		.uleb128 0xc
 3126 01fe 00       		.byte	0
 3127 01ff 00       		.byte	0
 3128 0200 00       		.byte	0
 3129              		.section	.debug_loc,"",%progbits
 3130              	.Ldebug_loc0:
 3131              	.LLST0:
 3132 0000 00000000 		.4byte	.LFB62
 3133 0004 02000000 		.4byte	.LCFI0
 3134 0008 0200     		.2byte	0x2
 3135 000a 7D       		.byte	0x7d
 3136 000b 00       		.sleb128 0
 3137 000c 02000000 		.4byte	.LCFI0
 3138 0010 04000000 		.4byte	.LCFI1
 3139 0014 0200     		.2byte	0x2
 3140 0016 7D       		.byte	0x7d
 3141 0017 04       		.sleb128 4
 3142 0018 04000000 		.4byte	.LCFI1
 3143 001c 26000000 		.4byte	.LFE62
 3144 0020 0200     		.2byte	0x2
 3145 0022 7D       		.byte	0x7d
 3146 0023 18       		.sleb128 24
 3147 0024 00000000 		.4byte	0
 3148 0028 00000000 		.4byte	0
 3149              	.LLST1:
 3150 002c 00000000 		.4byte	.LFB63
 3151 0030 02000000 		.4byte	.LCFI2
 3152 0034 0200     		.2byte	0x2
ARM GAS  C:\Users\z80\AppData\Local\Temp\ccD8g6EC.s 			page 57


 3153 0036 7D       		.byte	0x7d
 3154 0037 00       		.sleb128 0
 3155 0038 02000000 		.4byte	.LCFI2
 3156 003c 04000000 		.4byte	.LCFI3
 3157 0040 0200     		.2byte	0x2
 3158 0042 7D       		.byte	0x7d
 3159 0043 04       		.sleb128 4
 3160 0044 04000000 		.4byte	.LCFI3
 3161 0048 26000000 		.4byte	.LFE63
 3162 004c 0200     		.2byte	0x2
 3163 004e 7D       		.byte	0x7d
 3164 004f 18       		.sleb128 24
 3165 0050 00000000 		.4byte	0
 3166 0054 00000000 		.4byte	0
 3167              	.LLST2:
 3168 0058 00000000 		.4byte	.LFB64
 3169 005c 02000000 		.4byte	.LCFI4
 3170 0060 0200     		.2byte	0x2
 3171 0062 7D       		.byte	0x7d
 3172 0063 00       		.sleb128 0
 3173 0064 02000000 		.4byte	.LCFI4
 3174 0068 16000000 		.4byte	.LFE64
 3175 006c 0200     		.2byte	0x2
 3176 006e 7D       		.byte	0x7d
 3177 006f 08       		.sleb128 8
 3178 0070 00000000 		.4byte	0
 3179 0074 00000000 		.4byte	0
 3180              	.LLST3:
 3181 0078 00000000 		.4byte	.LFB65
 3182 007c 02000000 		.4byte	.LCFI5
 3183 0080 0200     		.2byte	0x2
 3184 0082 7D       		.byte	0x7d
 3185 0083 00       		.sleb128 0
 3186 0084 02000000 		.4byte	.LCFI5
 3187 0088 16000000 		.4byte	.LFE65
 3188 008c 0200     		.2byte	0x2
 3189 008e 7D       		.byte	0x7d
 3190 008f 08       		.sleb128 8
 3191 0090 00000000 		.4byte	0
 3192 0094 00000000 		.4byte	0
 3193              	.LLST4:
 3194 0098 00000000 		.4byte	.LFB66
 3195 009c 02000000 		.4byte	.LCFI6
 3196 00a0 0200     		.2byte	0x2
 3197 00a2 7D       		.byte	0x7d
 3198 00a3 00       		.sleb128 0
 3199 00a4 02000000 		.4byte	.LCFI6
 3200 00a8 04000000 		.4byte	.LCFI7
 3201 00ac 0200     		.2byte	0x2
 3202 00ae 7D       		.byte	0x7d
 3203 00af 04       		.sleb128 4
 3204 00b0 04000000 		.4byte	.LCFI7
 3205 00b4 2A000000 		.4byte	.LFE66
 3206 00b8 0200     		.2byte	0x2
 3207 00ba 7D       		.byte	0x7d
 3208 00bb 18       		.sleb128 24
 3209 00bc 00000000 		.4byte	0
ARM GAS  C:\Users\z80\AppData\Local\Temp\ccD8g6EC.s 			page 58


 3210 00c0 00000000 		.4byte	0
 3211              	.LLST5:
 3212 00c4 00000000 		.4byte	.LFB67
 3213 00c8 02000000 		.4byte	.LCFI8
 3214 00cc 0200     		.2byte	0x2
 3215 00ce 7D       		.byte	0x7d
 3216 00cf 00       		.sleb128 0
 3217 00d0 02000000 		.4byte	.LCFI8
 3218 00d4 04000000 		.4byte	.LCFI9
 3219 00d8 0200     		.2byte	0x2
 3220 00da 7D       		.byte	0x7d
 3221 00db 04       		.sleb128 4
 3222 00dc 04000000 		.4byte	.LCFI9
 3223 00e0 1E000000 		.4byte	.LFE67
 3224 00e4 0200     		.2byte	0x2
 3225 00e6 7D       		.byte	0x7d
 3226 00e7 10       		.sleb128 16
 3227 00e8 00000000 		.4byte	0
 3228 00ec 00000000 		.4byte	0
 3229              	.LLST6:
 3230 00f0 00000000 		.4byte	.LFB68
 3231 00f4 02000000 		.4byte	.LCFI10
 3232 00f8 0200     		.2byte	0x2
 3233 00fa 7D       		.byte	0x7d
 3234 00fb 00       		.sleb128 0
 3235 00fc 02000000 		.4byte	.LCFI10
 3236 0100 04000000 		.4byte	.LCFI11
 3237 0104 0200     		.2byte	0x2
 3238 0106 7D       		.byte	0x7d
 3239 0107 04       		.sleb128 4
 3240 0108 04000000 		.4byte	.LCFI11
 3241 010c 26000000 		.4byte	.LFE68
 3242 0110 0200     		.2byte	0x2
 3243 0112 7D       		.byte	0x7d
 3244 0113 18       		.sleb128 24
 3245 0114 00000000 		.4byte	0
 3246 0118 00000000 		.4byte	0
 3247              	.LLST7:
 3248 011c 00000000 		.4byte	.LFB69
 3249 0120 02000000 		.4byte	.LCFI12
 3250 0124 0200     		.2byte	0x2
 3251 0126 7D       		.byte	0x7d
 3252 0127 00       		.sleb128 0
 3253 0128 02000000 		.4byte	.LCFI12
 3254 012c 04000000 		.4byte	.LCFI13
 3255 0130 0200     		.2byte	0x2
 3256 0132 7D       		.byte	0x7d
 3257 0133 04       		.sleb128 4
 3258 0134 04000000 		.4byte	.LCFI13
 3259 0138 26000000 		.4byte	.LFE69
 3260 013c 0200     		.2byte	0x2
 3261 013e 7D       		.byte	0x7d
 3262 013f 18       		.sleb128 24
 3263 0140 00000000 		.4byte	0
 3264 0144 00000000 		.4byte	0
 3265              	.LLST8:
 3266 0148 00000000 		.4byte	.LFB70
ARM GAS  C:\Users\z80\AppData\Local\Temp\ccD8g6EC.s 			page 59


 3267 014c 02000000 		.4byte	.LCFI14
 3268 0150 0200     		.2byte	0x2
 3269 0152 7D       		.byte	0x7d
 3270 0153 00       		.sleb128 0
 3271 0154 02000000 		.4byte	.LCFI14
 3272 0158 04000000 		.4byte	.LCFI15
 3273 015c 0200     		.2byte	0x2
 3274 015e 7D       		.byte	0x7d
 3275 015f 04       		.sleb128 4
 3276 0160 04000000 		.4byte	.LCFI15
 3277 0164 34000000 		.4byte	.LFE70
 3278 0168 0200     		.2byte	0x2
 3279 016a 7D       		.byte	0x7d
 3280 016b 18       		.sleb128 24
 3281 016c 00000000 		.4byte	0
 3282 0170 00000000 		.4byte	0
 3283              	.LLST9:
 3284 0174 00000000 		.4byte	.LFB71
 3285 0178 02000000 		.4byte	.LCFI16
 3286 017c 0200     		.2byte	0x2
 3287 017e 7D       		.byte	0x7d
 3288 017f 00       		.sleb128 0
 3289 0180 02000000 		.4byte	.LCFI16
 3290 0184 08000000 		.4byte	.LFE71
 3291 0188 0200     		.2byte	0x2
 3292 018a 7D       		.byte	0x7d
 3293 018b 08       		.sleb128 8
 3294 018c 00000000 		.4byte	0
 3295 0190 00000000 		.4byte	0
 3296              	.LLST10:
 3297 0194 00000000 		.4byte	.LFB72
 3298 0198 02000000 		.4byte	.LCFI17
 3299 019c 0200     		.2byte	0x2
 3300 019e 7D       		.byte	0x7d
 3301 019f 00       		.sleb128 0
 3302 01a0 02000000 		.4byte	.LCFI17
 3303 01a4 04000000 		.4byte	.LCFI18
 3304 01a8 0200     		.2byte	0x2
 3305 01aa 7D       		.byte	0x7d
 3306 01ab 04       		.sleb128 4
 3307 01ac 04000000 		.4byte	.LCFI18
 3308 01b0 68000000 		.4byte	.LFE72
 3309 01b4 0200     		.2byte	0x2
 3310 01b6 7D       		.byte	0x7d
 3311 01b7 18       		.sleb128 24
 3312 01b8 00000000 		.4byte	0
 3313 01bc 00000000 		.4byte	0
 3314              	.LLST11:
 3315 01c0 00000000 		.4byte	.LFB73
 3316 01c4 02000000 		.4byte	.LCFI19
 3317 01c8 0200     		.2byte	0x2
 3318 01ca 7D       		.byte	0x7d
 3319 01cb 00       		.sleb128 0
 3320 01cc 02000000 		.4byte	.LCFI19
 3321 01d0 04000000 		.4byte	.LCFI20
 3322 01d4 0200     		.2byte	0x2
 3323 01d6 7D       		.byte	0x7d
ARM GAS  C:\Users\z80\AppData\Local\Temp\ccD8g6EC.s 			page 60


 3324 01d7 04       		.sleb128 4
 3325 01d8 04000000 		.4byte	.LCFI20
 3326 01dc 62000000 		.4byte	.LFE73
 3327 01e0 0200     		.2byte	0x2
 3328 01e2 7D       		.byte	0x7d
 3329 01e3 10       		.sleb128 16
 3330 01e4 00000000 		.4byte	0
 3331 01e8 00000000 		.4byte	0
 3332              	.LLST12:
 3333 01ec 00000000 		.4byte	.LFB74
 3334 01f0 02000000 		.4byte	.LCFI21
 3335 01f4 0200     		.2byte	0x2
 3336 01f6 7D       		.byte	0x7d
 3337 01f7 00       		.sleb128 0
 3338 01f8 02000000 		.4byte	.LCFI21
 3339 01fc 04000000 		.4byte	.LCFI22
 3340 0200 0200     		.2byte	0x2
 3341 0202 7D       		.byte	0x7d
 3342 0203 04       		.sleb128 4
 3343 0204 04000000 		.4byte	.LCFI22
 3344 0208 7A000000 		.4byte	.LFE74
 3345 020c 0200     		.2byte	0x2
 3346 020e 7D       		.byte	0x7d
 3347 020f 10       		.sleb128 16
 3348 0210 00000000 		.4byte	0
 3349 0214 00000000 		.4byte	0
 3350              	.LLST13:
 3351 0218 00000000 		.4byte	.LFB75
 3352 021c 02000000 		.4byte	.LCFI23
 3353 0220 0200     		.2byte	0x2
 3354 0222 7D       		.byte	0x7d
 3355 0223 00       		.sleb128 0
 3356 0224 02000000 		.4byte	.LCFI23
 3357 0228 04000000 		.4byte	.LCFI24
 3358 022c 0200     		.2byte	0x2
 3359 022e 7D       		.byte	0x7d
 3360 022f 04       		.sleb128 4
 3361 0230 04000000 		.4byte	.LCFI24
 3362 0234 7E000000 		.4byte	.LFE75
 3363 0238 0200     		.2byte	0x2
 3364 023a 7D       		.byte	0x7d
 3365 023b 10       		.sleb128 16
 3366 023c 00000000 		.4byte	0
 3367 0240 00000000 		.4byte	0
 3368              	.LLST14:
 3369 0244 00000000 		.4byte	.LFB76
 3370 0248 02000000 		.4byte	.LCFI25
 3371 024c 0200     		.2byte	0x2
 3372 024e 7D       		.byte	0x7d
 3373 024f 00       		.sleb128 0
 3374 0250 02000000 		.4byte	.LCFI25
 3375 0254 04000000 		.4byte	.LCFI26
 3376 0258 0200     		.2byte	0x2
 3377 025a 7D       		.byte	0x7d
 3378 025b 04       		.sleb128 4
 3379 025c 04000000 		.4byte	.LCFI26
 3380 0260 54000000 		.4byte	.LFE76
ARM GAS  C:\Users\z80\AppData\Local\Temp\ccD8g6EC.s 			page 61


 3381 0264 0200     		.2byte	0x2
 3382 0266 7D       		.byte	0x7d
 3383 0267 18       		.sleb128 24
 3384 0268 00000000 		.4byte	0
 3385 026c 00000000 		.4byte	0
 3386              		.section	.debug_aranges,"",%progbits
 3387 0000 8C000000 		.4byte	0x8c
 3388 0004 0200     		.2byte	0x2
 3389 0006 00000000 		.4byte	.Ldebug_info0
 3390 000a 04       		.byte	0x4
 3391 000b 00       		.byte	0
 3392 000c 0000     		.2byte	0
 3393 000e 0000     		.2byte	0
 3394 0010 00000000 		.4byte	.LFB62
 3395 0014 26000000 		.4byte	.LFE62-.LFB62
 3396 0018 00000000 		.4byte	.LFB63
 3397 001c 26000000 		.4byte	.LFE63-.LFB63
 3398 0020 00000000 		.4byte	.LFB64
 3399 0024 16000000 		.4byte	.LFE64-.LFB64
 3400 0028 00000000 		.4byte	.LFB65
 3401 002c 16000000 		.4byte	.LFE65-.LFB65
 3402 0030 00000000 		.4byte	.LFB66
 3403 0034 2A000000 		.4byte	.LFE66-.LFB66
 3404 0038 00000000 		.4byte	.LFB67
 3405 003c 1E000000 		.4byte	.LFE67-.LFB67
 3406 0040 00000000 		.4byte	.LFB68
 3407 0044 26000000 		.4byte	.LFE68-.LFB68
 3408 0048 00000000 		.4byte	.LFB69
 3409 004c 26000000 		.4byte	.LFE69-.LFB69
 3410 0050 00000000 		.4byte	.LFB70
 3411 0054 34000000 		.4byte	.LFE70-.LFB70
 3412 0058 00000000 		.4byte	.LFB71
 3413 005c 08000000 		.4byte	.LFE71-.LFB71
 3414 0060 00000000 		.4byte	.LFB72
 3415 0064 68000000 		.4byte	.LFE72-.LFB72
 3416 0068 00000000 		.4byte	.LFB73
 3417 006c 62000000 		.4byte	.LFE73-.LFB73
 3418 0070 00000000 		.4byte	.LFB74
 3419 0074 7A000000 		.4byte	.LFE74-.LFB74
 3420 0078 00000000 		.4byte	.LFB75
 3421 007c 7E000000 		.4byte	.LFE75-.LFB75
 3422 0080 00000000 		.4byte	.LFB76
 3423 0084 54000000 		.4byte	.LFE76-.LFB76
 3424 0088 00000000 		.4byte	0
 3425 008c 00000000 		.4byte	0
 3426              		.section	.debug_ranges,"",%progbits
 3427              	.Ldebug_ranges0:
 3428 0000 00000000 		.4byte	.LFB62
 3429 0004 26000000 		.4byte	.LFE62
 3430 0008 00000000 		.4byte	.LFB63
 3431 000c 26000000 		.4byte	.LFE63
 3432 0010 00000000 		.4byte	.LFB64
 3433 0014 16000000 		.4byte	.LFE64
 3434 0018 00000000 		.4byte	.LFB65
 3435 001c 16000000 		.4byte	.LFE65
 3436 0020 00000000 		.4byte	.LFB66
 3437 0024 2A000000 		.4byte	.LFE66
ARM GAS  C:\Users\z80\AppData\Local\Temp\ccD8g6EC.s 			page 62


 3438 0028 00000000 		.4byte	.LFB67
 3439 002c 1E000000 		.4byte	.LFE67
 3440 0030 00000000 		.4byte	.LFB68
 3441 0034 26000000 		.4byte	.LFE68
 3442 0038 00000000 		.4byte	.LFB69
 3443 003c 26000000 		.4byte	.LFE69
 3444 0040 00000000 		.4byte	.LFB70
 3445 0044 34000000 		.4byte	.LFE70
 3446 0048 00000000 		.4byte	.LFB71
 3447 004c 08000000 		.4byte	.LFE71
 3448 0050 00000000 		.4byte	.LFB72
 3449 0054 68000000 		.4byte	.LFE72
 3450 0058 00000000 		.4byte	.LFB73
 3451 005c 62000000 		.4byte	.LFE73
 3452 0060 00000000 		.4byte	.LFB74
 3453 0064 7A000000 		.4byte	.LFE74
 3454 0068 00000000 		.4byte	.LFB75
 3455 006c 7E000000 		.4byte	.LFE75
 3456 0070 00000000 		.4byte	.LFB76
 3457 0074 54000000 		.4byte	.LFE76
 3458 0078 00000000 		.4byte	0
 3459 007c 00000000 		.4byte	0
 3460              		.section	.debug_line,"",%progbits
 3461              	.Ldebug_line0:
 3462 0000 06040000 		.section	.debug_str,"MS",%progbits,1
 3462      0200A202 
 3462      00000201 
 3462      FB0E0D00 
 3462      01010101 
 3463              	.LASF124:
 3464 0000 2E2E2F63 		.ascii	"../chibios_2.4.x/os/hal/src/serial.c\000"
 3464      68696269 
 3464      6F735F32 
 3464      2E342E78 
 3464      2F6F732F 
 3465              	.LASF103:
 3466 0025 73635F73 		.ascii	"sc_speed\000"
 3466      70656564 
 3466      00
 3467              	.LASF2:
 3468 002e 73697A65 		.ascii	"size_t\000"
 3468      5F7400
 3469              	.LASF57:
 3470 0035 7264796D 		.ascii	"rdymsg\000"
 3470      736700
 3471              	.LASF13:
 3472 003c 75696E74 		.ascii	"uint64_t\000"
 3472      36345F74 
 3472      00
 3473              	.LASF72:
 3474 0045 4F757470 		.ascii	"OutputQueue\000"
 3474      75745175 
 3474      65756500 
 3475              	.LASF21:
 3476 0051 6576656E 		.ascii	"eventmask_t\000"
 3476      746D6173 
 3476      6B5F7400 
ARM GAS  C:\Users\z80\AppData\Local\Temp\ccD8g6EC.s 			page 63


 3477              	.LASF15:
 3478 005d 75696E74 		.ascii	"uint_fast16_t\000"
 3478      5F666173 
 3478      7431365F 
 3478      7400
 3479              	.LASF14:
 3480 006b 6C6F6E67 		.ascii	"long long unsigned int\000"
 3480      206C6F6E 
 3480      6720756E 
 3480      7369676E 
 3480      65642069 
 3481              	.LASF58:
 3482 0082 65786974 		.ascii	"exitcode\000"
 3482      636F6465 
 3482      00
 3483              	.LASF128:
 3484 008b 49544D5F 		.ascii	"ITM_RxBuffer\000"
 3484      52784275 
 3484      66666572 
 3484      00
 3485              	.LASF118:
 3486 0098 73644F62 		.ascii	"sdObjectInit\000"
 3486      6A656374 
 3486      496E6974 
 3486      00
 3487              	.LASF110:
 3488 00a5 72656164 		.ascii	"reads\000"
 3488      7300
 3489              	.LASF80:
 3490 00ab 72656164 		.ascii	"readt\000"
 3490      7400
 3491              	.LASF63:
 3492 00b1 715F7761 		.ascii	"q_waiting\000"
 3492      6974696E 
 3492      6700
 3493              	.LASF12:
 3494 00bb 6C6F6E67 		.ascii	"long long int\000"
 3494      206C6F6E 
 3494      6720696E 
 3494      7400
 3495              	.LASF1:
 3496 00c9 7369676E 		.ascii	"signed char\000"
 3496      65642063 
 3496      68617200 
 3497              	.LASF91:
 3498 00d5 47545052 		.ascii	"GTPR\000"
 3498      00
 3499              	.LASF95:
 3500 00da 53445F53 		.ascii	"SD_STOP\000"
 3500      544F5000 
 3501              	.LASF16:
 3502 00e2 626F6F6C 		.ascii	"bool_t\000"
 3502      5F7400
 3503              	.LASF48:
 3504 00e9 6D5F7175 		.ascii	"m_queue\000"
 3504      65756500 
 3505              	.LASF125:
ARM GAS  C:\Users\z80\AppData\Local\Temp\ccD8g6EC.s 			page 64


 3506 00f1 433A5C70 		.ascii	"C:\\projects\\digitizer.git\\firmware\\digitizer\000"
 3506      726F6A65 
 3506      6374735C 
 3506      64696769 
 3506      74697A65 
 3507              	.LASF99:
 3508 011e 73746174 		.ascii	"state\000"
 3508      6500
 3509              	.LASF9:
 3510 0124 6C6F6E67 		.ascii	"long int\000"
 3510      20696E74 
 3510      00
 3511              	.LASF18:
 3512 012d 74737461 		.ascii	"tstate_t\000"
 3512      74655F74 
 3512      00
 3513              	.LASF65:
 3514 0136 715F6275 		.ascii	"q_buffer\000"
 3514      66666572 
 3514      00
 3515              	.LASF67:
 3516 013f 715F7772 		.ascii	"q_wrptr\000"
 3516      70747200 
 3517              	.LASF28:
 3518 0147 705F6E65 		.ascii	"p_newer\000"
 3518      77657200 
 3519              	.LASF77:
 3520 014f 70757477 		.ascii	"putwouldblock\000"
 3520      6F756C64 
 3520      626C6F63 
 3520      6B00
 3521              	.LASF115:
 3522 015d 6D61736B 		.ascii	"mask\000"
 3522      00
 3523              	.LASF43:
 3524 0162 72656761 		.ascii	"regarm_t\000"
 3524      726D5F74 
 3524      00
 3525              	.LASF55:
 3526 016b 4576656E 		.ascii	"EventSource\000"
 3526      74536F75 
 3526      72636500 
 3527              	.LASF74:
 3528 0177 42617365 		.ascii	"BaseAsynchronousChannelVMT\000"
 3528      4173796E 
 3528      6368726F 
 3528      6E6F7573 
 3528      4368616E 
 3529              	.LASF0:
 3530 0192 756E7369 		.ascii	"unsigned int\000"
 3530      676E6564 
 3530      20696E74 
 3530      00
 3531              	.LASF6:
 3532 019f 75696E74 		.ascii	"uint16_t\000"
 3532      31365F74 
 3532      00
ARM GAS  C:\Users\z80\AppData\Local\Temp\ccD8g6EC.s 			page 65


 3533              	.LASF108:
 3534 01a8 53657269 		.ascii	"SerialDriverVMT\000"
 3534      616C4472 
 3534      69766572 
 3534      564D5400 
 3535              	.LASF34:
 3536 01b8 705F7469 		.ascii	"p_time\000"
 3536      6D6500
 3537              	.LASF116:
 3538 01bf 696E6F74 		.ascii	"inotify\000"
 3538      69667900 
 3539              	.LASF100:
 3540 01c7 69717565 		.ascii	"iqueue\000"
 3540      756500
 3541              	.LASF36:
 3542 01ce 705F6D73 		.ascii	"p_msgqueue\000"
 3542      67717565 
 3542      756500
 3543              	.LASF112:
 3544 01d9 74696D65 		.ascii	"timeout\000"
 3544      6F757400 
 3545              	.LASF113:
 3546 01e1 67657474 		.ascii	"gett\000"
 3546      00
 3547              	.LASF82:
 3548 01e6 6576656E 		.ascii	"event\000"
 3548      7400
 3549              	.LASF7:
 3550 01ec 73686F72 		.ascii	"short unsigned int\000"
 3550      7420756E 
 3550      7369676E 
 3550      65642069 
 3550      6E7400
 3551              	.LASF20:
 3552 01ff 6D73675F 		.ascii	"msg_t\000"
 3552      7400
 3553              	.LASF101:
 3554 0205 6F717565 		.ascii	"oqueue\000"
 3554      756500
 3555              	.LASF109:
 3556 020c 77726974 		.ascii	"writes\000"
 3556      657300
 3557              	.LASF79:
 3558 0213 77726974 		.ascii	"writet\000"
 3558      657400
 3559              	.LASF17:
 3560 021a 746D6F64 		.ascii	"tmode_t\000"
 3560      655F7400 
 3561              	.LASF42:
 3562 0222 54687265 		.ascii	"ThreadsList\000"
 3562      6164734C 
 3562      69737400 
 3563              	.LASF102:
 3564 022e 75736172 		.ascii	"usart\000"
 3564      7400
 3565              	.LASF71:
 3566 0234 496E7075 		.ascii	"InputQueue\000"
ARM GAS  C:\Users\z80\AppData\Local\Temp\ccD8g6EC.s 			page 66


 3566      74517565 
 3566      756500
 3567              	.LASF70:
 3568 023f 716E6F74 		.ascii	"qnotify_t\000"
 3568      6966795F 
 3568      7400
 3569              	.LASF62:
 3570 0249 47656E65 		.ascii	"GenericQueue\000"
 3570      72696351 
 3570      75657565 
 3570      00
 3571              	.LASF44:
 3572 0256 73746B61 		.ascii	"stkalign_t\000"
 3572      6C69676E 
 3572      5F7400
 3573              	.LASF75:
 3574 0261 77726974 		.ascii	"write\000"
 3574      6500
 3575              	.LASF111:
 3576 0267 70757474 		.ascii	"putt\000"
 3576      00
 3577              	.LASF64:
 3578 026c 715F636F 		.ascii	"q_counter\000"
 3578      756E7465 
 3578      7200
 3579              	.LASF47:
 3580 0276 4D757465 		.ascii	"Mutex\000"
 3580      7800
 3581              	.LASF26:
 3582 027c 705F7072 		.ascii	"p_prio\000"
 3582      696F00
 3583              	.LASF54:
 3584 0283 656C5F6D 		.ascii	"el_mask\000"
 3584      61736B00 
 3585              	.LASF29:
 3586 028b 705F6F6C 		.ascii	"p_older\000"
 3586      64657200 
 3587              	.LASF81:
 3588 0293 67657466 		.ascii	"getflags\000"
 3588      6C616773 
 3588      00
 3589              	.LASF73:
 3590 029c 696F666C 		.ascii	"ioflags_t\000"
 3590      6167735F 
 3590      7400
 3591              	.LASF41:
 3592 02a6 54687265 		.ascii	"ThreadsQueue\000"
 3592      61647351 
 3592      75657565 
 3592      00
 3593              	.LASF31:
 3594 02b3 705F7374 		.ascii	"p_stklimit\000"
 3594      6B6C696D 
 3594      697400
 3595              	.LASF121:
 3596 02be 73645374 		.ascii	"sdStop\000"
 3596      6F7000
ARM GAS  C:\Users\z80\AppData\Local\Temp\ccD8g6EC.s 			page 67


 3597              	.LASF114:
 3598 02c5 74696D65 		.ascii	"time\000"
 3598      00
 3599              	.LASF107:
 3600 02ca 53657269 		.ascii	"SerialConfig\000"
 3600      616C436F 
 3600      6E666967 
 3600      00
 3601              	.LASF85:
 3602 02d7 52455345 		.ascii	"RESERVED0\000"
 3602      52564544 
 3602      3000
 3603              	.LASF86:
 3604 02e1 52455345 		.ascii	"RESERVED1\000"
 3604      52564544 
 3604      3100
 3605              	.LASF87:
 3606 02eb 52455345 		.ascii	"RESERVED2\000"
 3606      52564544 
 3606      3200
 3607              	.LASF88:
 3608 02f5 52455345 		.ascii	"RESERVED3\000"
 3608      52564544 
 3608      3300
 3609              	.LASF89:
 3610 02ff 52455345 		.ascii	"RESERVED4\000"
 3610      52564544 
 3610      3400
 3611              	.LASF25:
 3612 0309 705F7072 		.ascii	"p_prev\000"
 3612      657600
 3613              	.LASF92:
 3614 0310 52455345 		.ascii	"RESERVED6\000"
 3614      52564544 
 3614      3600
 3615              	.LASF19:
 3616 031a 74707269 		.ascii	"tprio_t\000"
 3616      6F5F7400 
 3617              	.LASF68:
 3618 0322 715F7264 		.ascii	"q_rdptr\000"
 3618      70747200 
 3619              	.LASF8:
 3620 032a 696E7433 		.ascii	"int32_t\000"
 3620      325F7400 
 3621              	.LASF4:
 3622 0332 756E7369 		.ascii	"unsigned char\000"
 3622      676E6564 
 3622      20636861 
 3622      7200
 3623              	.LASF93:
 3624 0340 55534152 		.ascii	"USART_TypeDef\000"
 3624      545F5479 
 3624      70654465 
 3624      6600
 3625              	.LASF53:
 3626 034e 656C5F6C 		.ascii	"el_listener\000"
 3626      69737465 
ARM GAS  C:\Users\z80\AppData\Local\Temp\ccD8g6EC.s 			page 68


 3626      6E657200 
 3627              	.LASF32:
 3628 035a 705F7374 		.ascii	"p_state\000"
 3628      61746500 
 3629              	.LASF39:
 3630 0362 705F6D74 		.ascii	"p_mtxlist\000"
 3630      786C6973 
 3630      7400
 3631              	.LASF5:
 3632 036c 73686F72 		.ascii	"short int\000"
 3632      7420696E 
 3632      7400
 3633              	.LASF60:
 3634 0376 65776D61 		.ascii	"ewmask\000"
 3634      736B00
 3635              	.LASF24:
 3636 037d 705F6E65 		.ascii	"p_next\000"
 3636      787400
 3637              	.LASF33:
 3638 0384 705F666C 		.ascii	"p_flags\000"
 3638      61677300 
 3639              	.LASF52:
 3640 038c 656C5F6E 		.ascii	"el_next\000"
 3640      65787400 
 3641              	.LASF23:
 3642 0394 54687265 		.ascii	"Thread\000"
 3642      616400
 3643              	.LASF38:
 3644 039b 705F6570 		.ascii	"p_epending\000"
 3644      656E6469 
 3644      6E6700
 3645              	.LASF94:
 3646 03a6 53445F55 		.ascii	"SD_UNINIT\000"
 3646      4E494E49 
 3646      5400
 3647              	.LASF90:
 3648 03b0 52455345 		.ascii	"RESERVED5\000"
 3648      52564544 
 3648      3500
 3649              	.LASF10:
 3650 03ba 75696E74 		.ascii	"uint32_t\000"
 3650      33325F74 
 3650      00
 3651              	.LASF97:
 3652 03c3 73647374 		.ascii	"sdstate_t\000"
 3652      6174655F 
 3652      7400
 3653              	.LASF98:
 3654 03cd 53657269 		.ascii	"SerialDriver\000"
 3654      616C4472 
 3654      69766572 
 3654      00
 3655              	.LASF123:
 3656 03da 474E5520 		.ascii	"GNU C 4.6.3\000"
 3656      4320342E 
 3656      362E3300 
 3657              	.LASF11:
ARM GAS  C:\Users\z80\AppData\Local\Temp\ccD8g6EC.s 			page 69


 3658 03e6 6C6F6E67 		.ascii	"long unsigned int\000"
 3658      20756E73 
 3658      69676E65 
 3658      6420696E 
 3658      7400
 3659              	.LASF76:
 3660 03f8 72656164 		.ascii	"read\000"
 3660      00
 3661              	.LASF61:
 3662 03fd 63686172 		.ascii	"char\000"
 3662      00
 3663              	.LASF122:
 3664 0402 7364496E 		.ascii	"sdIncomingDataI\000"
 3664      636F6D69 
 3664      6E674461 
 3664      74614900 
 3665              	.LASF120:
 3666 0412 636F6E66 		.ascii	"config\000"
 3666      696700
 3667              	.LASF119:
 3668 0419 73645374 		.ascii	"sdStart\000"
 3668      61727400 
 3669              	.LASF50:
 3670 0421 6D5F6E65 		.ascii	"m_next\000"
 3670      787400
 3671              	.LASF22:
 3672 0428 73797374 		.ascii	"systime_t\000"
 3672      696D655F 
 3672      7400
 3673              	.LASF40:
 3674 0432 705F7265 		.ascii	"p_realprio\000"
 3674      616C7072 
 3674      696F00
 3675              	.LASF84:
 3676 043d 42617365 		.ascii	"BaseAsynchronousChannel\000"
 3676      4173796E 
 3676      6368726F 
 3676      6E6F7573 
 3676      4368616E 
 3677              	.LASF46:
 3678 0455 636F6E74 		.ascii	"context\000"
 3678      65787400 
 3679              	.LASF45:
 3680 045d 696E7463 		.ascii	"intctx\000"
 3680      747800
 3681              	.LASF96:
 3682 0464 53445F52 		.ascii	"SD_READY\000"
 3682      45414459 
 3682      00
 3683              	.LASF66:
 3684 046d 715F746F 		.ascii	"q_top\000"
 3684      7000
 3685              	.LASF30:
 3686 0473 705F6E61 		.ascii	"p_name\000"
 3686      6D6500
 3687              	.LASF56:
 3688 047a 65735F6E 		.ascii	"es_next\000"
ARM GAS  C:\Users\z80\AppData\Local\Temp\ccD8g6EC.s 			page 70


 3688      65787400 
 3689              	.LASF69:
 3690 0482 715F6E6F 		.ascii	"q_notify\000"
 3690      74696679 
 3690      00
 3691              	.LASF37:
 3692 048b 705F6D73 		.ascii	"p_msg\000"
 3692      6700
 3693              	.LASF127:
 3694 0491 73645265 		.ascii	"sdRequestDataI\000"
 3694      71756573 
 3694      74446174 
 3694      614900
 3695              	.LASF3:
 3696 04a0 75696E74 		.ascii	"uint8_t\000"
 3696      385F7400 
 3697              	.LASF83:
 3698 04a8 666C6167 		.ascii	"flags\000"
 3698      7300
 3699              	.LASF117:
 3700 04ae 6F6E6F74 		.ascii	"onotify\000"
 3700      69667900 
 3701              	.LASF51:
 3702 04b6 4576656E 		.ascii	"EventListener\000"
 3702      744C6973 
 3702      74656E65 
 3702      7200
 3703              	.LASF59:
 3704 04c4 77746F62 		.ascii	"wtobjp\000"
 3704      6A7000
 3705              	.LASF78:
 3706 04cb 67657477 		.ascii	"getwouldblock\000"
 3706      6F756C64 
 3706      626C6F63 
 3706      6B00
 3707              	.LASF104:
 3708 04d9 73635F63 		.ascii	"sc_cr1\000"
 3708      723100
 3709              	.LASF105:
 3710 04e0 73635F63 		.ascii	"sc_cr2\000"
 3710      723200
 3711              	.LASF106:
 3712 04e7 73635F63 		.ascii	"sc_cr3\000"
 3712      723300
 3713              	.LASF126:
 3714 04ee 7364496E 		.ascii	"sdInit\000"
 3714      697400
 3715              	.LASF49:
 3716 04f5 6D5F6F77 		.ascii	"m_owner\000"
 3716      6E657200 
 3717              	.LASF27:
 3718 04fd 705F6374 		.ascii	"p_ctx\000"
 3718      7800
 3719              	.LASF35:
 3720 0503 705F7761 		.ascii	"p_waiting\000"
 3720      6974696E 
 3720      6700
ARM GAS  C:\Users\z80\AppData\Local\Temp\ccD8g6EC.s 			page 71


 3721              		.ident	"GCC: (Sourcery CodeBench Lite 2012.03-56) 4.6.3"
ARM GAS  C:\Users\z80\AppData\Local\Temp\ccD8g6EC.s 			page 72


DEFINED SYMBOLS
                            *ABS*:00000000 serial.c
C:\Users\z80\AppData\Local\Temp\ccD8g6EC.s:19     .text.writes:00000000 $t
C:\Users\z80\AppData\Local\Temp\ccD8g6EC.s:24     .text.writes:00000000 writes
C:\Users\z80\AppData\Local\Temp\ccD8g6EC.s:58     .text.reads:00000000 $t
C:\Users\z80\AppData\Local\Temp\ccD8g6EC.s:63     .text.reads:00000000 reads
C:\Users\z80\AppData\Local\Temp\ccD8g6EC.s:96     .text.putwouldblock:00000000 $t
C:\Users\z80\AppData\Local\Temp\ccD8g6EC.s:101    .text.putwouldblock:00000000 putwouldblock
C:\Users\z80\AppData\Local\Temp\ccD8g6EC.s:127    .text.getwouldblock:00000000 $t
C:\Users\z80\AppData\Local\Temp\ccD8g6EC.s:132    .text.getwouldblock:00000000 getwouldblock
C:\Users\z80\AppData\Local\Temp\ccD8g6EC.s:158    .text.putt:00000000 $t
C:\Users\z80\AppData\Local\Temp\ccD8g6EC.s:163    .text.putt:00000000 putt
C:\Users\z80\AppData\Local\Temp\ccD8g6EC.s:197    .text.gett:00000000 $t
C:\Users\z80\AppData\Local\Temp\ccD8g6EC.s:202    .text.gett:00000000 gett
C:\Users\z80\AppData\Local\Temp\ccD8g6EC.s:232    .text.writet:00000000 $t
C:\Users\z80\AppData\Local\Temp\ccD8g6EC.s:237    .text.writet:00000000 writet
C:\Users\z80\AppData\Local\Temp\ccD8g6EC.s:271    .text.readt:00000000 $t
C:\Users\z80\AppData\Local\Temp\ccD8g6EC.s:276    .text.readt:00000000 readt
C:\Users\z80\AppData\Local\Temp\ccD8g6EC.s:310    .text.getflags:00000000 $t
C:\Users\z80\AppData\Local\Temp\ccD8g6EC.s:315    .text.getflags:00000000 getflags
C:\Users\z80\AppData\Local\Temp\ccD8g6EC.s:361    .rodata.vmt:00000000 $d
C:\Users\z80\AppData\Local\Temp\ccD8g6EC.s:364    .rodata.vmt:00000000 vmt
C:\Users\z80\AppData\Local\Temp\ccD8g6EC.s:375    .text.sdInit:00000000 $t
C:\Users\z80\AppData\Local\Temp\ccD8g6EC.s:381    .text.sdInit:00000000 sdInit
C:\Users\z80\AppData\Local\Temp\ccD8g6EC.s:400    .text.sdObjectInit:00000000 $t
C:\Users\z80\AppData\Local\Temp\ccD8g6EC.s:406    .text.sdObjectInit:00000000 sdObjectInit
C:\Users\z80\AppData\Local\Temp\ccD8g6EC.s:467    .rodata:00000000 $d
C:\Users\z80\AppData\Local\Temp\ccD8g6EC.s:468    .rodata:00000000 .LC0
C:\Users\z80\AppData\Local\Temp\ccD8g6EC.s:471    .rodata:0000000c .LC1
C:\Users\z80\AppData\Local\Temp\ccD8g6EC.s:474    .text.sdStart:00000000 $t
C:\Users\z80\AppData\Local\Temp\ccD8g6EC.s:480    .text.sdStart:00000000 sdStart
C:\Users\z80\AppData\Local\Temp\ccD8g6EC.s:553    .rodata:0000001c .LC2
C:\Users\z80\AppData\Local\Temp\ccD8g6EC.s:556    .rodata:00000028 .LC3
C:\Users\z80\AppData\Local\Temp\ccD8g6EC.s:559    .text.sdStop:00000000 $t
C:\Users\z80\AppData\Local\Temp\ccD8g6EC.s:565    .text.sdStop:00000000 sdStop
C:\Users\z80\AppData\Local\Temp\ccD8g6EC.s:648    .rodata:00000038 .LC4
C:\Users\z80\AppData\Local\Temp\ccD8g6EC.s:651    .text.sdIncomingDataI:00000000 $t
C:\Users\z80\AppData\Local\Temp\ccD8g6EC.s:657    .text.sdIncomingDataI:00000000 sdIncomingDataI
C:\Users\z80\AppData\Local\Temp\ccD8g6EC.s:731    .rodata:0000004c .LC5
C:\Users\z80\AppData\Local\Temp\ccD8g6EC.s:734    .text.sdRequestDataI:00000000 $t
C:\Users\z80\AppData\Local\Temp\ccD8g6EC.s:740    .text.sdRequestDataI:00000000 sdRequestDataI
                     .debug_frame:00000010 $d

UNDEFINED SYMBOLS
chOQWriteTimeout
chIQReadTimeout
chOQPutTimeout
chIQGetTimeout
dbg_check_lock
dbg_check_unlock
sd_lld_init
chIQInit
chOQInit
chDbgPanic
sd_lld_start
sd_lld_stop
chOQResetI
ARM GAS  C:\Users\z80\AppData\Local\Temp\ccD8g6EC.s 			page 73


chIQResetI
chSchRescheduleS
chDbgCheckClassI
chEvtBroadcastFlagsI
chIQPutI
chOQGetI
