ARM GAS  C:\Users\z80\AppData\Local\Temp\ccgjv1a7.s 			page 1


   1              		.syntax unified
   2              		.cpu cortex-m3
   3              		.fpu softvfp
   4              		.eabi_attribute 20, 1
   5              		.eabi_attribute 21, 1
   6              		.eabi_attribute 23, 3
   7              		.eabi_attribute 24, 1
   8              		.eabi_attribute 25, 1
   9              		.eabi_attribute 26, 1
  10              		.eabi_attribute 30, 2
  11              		.eabi_attribute 34, 1
  12              		.eabi_attribute 18, 4
  13              		.thumb
  14              		.file	"serial.c"
  15              		.text
  16              	.Ltext0:
  17              		.cfi_sections	.debug_frame
  18              		.section	.text.putwouldblock,"ax",%progbits
  19              		.align	2
  20              		.p2align 4,,15
  21              		.thumb
  22              		.thumb_func
  23              		.type	putwouldblock, %function
  24              	putwouldblock:
  25              	.LFB64:
  26              		.file 1 "../chibios_2.4.x/os/hal/src/serial.c"
  27              		.loc 1 74 0
  28              		.cfi_startproc
  29              		@ args = 0, pretend = 0, frame = 0
  30              		@ frame_needed = 0, uses_anonymous_args = 0
  31              		@ link register save eliminated.
  32              	.LVL0:
  33              		.loc 1 76 0
  34 0000 806B     		ldr	r0, [r0, #56]
  35              	.LVL1:
  36              		.loc 1 77 0
  37 0002 D0F10100 		rsbs	r0, r0, #1
  38 0006 38BF     		it	cc
  39 0008 0020     		movcc	r0, #0
  40 000a 7047     		bx	lr
  41              		.cfi_endproc
  42              	.LFE64:
  43              		.size	putwouldblock, .-putwouldblock
  44 000c AFF30080 		.section	.text.getwouldblock,"ax",%progbits
  45              		.align	2
  46              		.p2align 4,,15
  47              		.thumb
  48              		.thumb_func
  49              		.type	getwouldblock, %function
  50              	getwouldblock:
  51              	.LFB65:
  52              		.loc 1 79 0
  53              		.cfi_startproc
  54              		@ args = 0, pretend = 0, frame = 0
  55              		@ frame_needed = 0, uses_anonymous_args = 0
  56              		@ link register save eliminated.
  57              	.LVL2:
ARM GAS  C:\Users\z80\AppData\Local\Temp\ccgjv1a7.s 			page 2


  58              		.loc 1 81 0
  59 0000 8069     		ldr	r0, [r0, #24]
  60              	.LVL3:
  61              		.loc 1 82 0
  62 0002 D0F10100 		rsbs	r0, r0, #1
  63 0006 38BF     		it	cc
  64 0008 0020     		movcc	r0, #0
  65 000a 7047     		bx	lr
  66              		.cfi_endproc
  67              	.LFE65:
  68              		.size	getwouldblock, .-getwouldblock
  69 000c AFF30080 		.section	.text.getflags,"ax",%progbits
  70              		.align	2
  71              		.p2align 4,,15
  72              		.thumb
  73              		.thumb_func
  74              		.type	getflags, %function
  75              	getflags:
  76              	.LFB70:
  77              		.loc 1 104 0
  78              		.cfi_startproc
  79              		@ args = 0, pretend = 0, frame = 0
  80              		@ frame_needed = 0, uses_anonymous_args = 0
  81              	.LVL4:
  82 0000 70B5     		push	{r4, r5, r6, lr}
  83              	.LCFI0:
  84              		.cfi_def_cfa_offset 16
  85              		.cfi_offset 14, -4
  86              		.cfi_offset 6, -8
  87              		.cfi_offset 5, -12
  88              		.cfi_offset 4, -16
  89              	.LBB2:
  90              		.loc 1 105 0
  91 0002 2023     		movs	r3, #32
  92              	.LVL5:
  93              	.LBE2:
  94              		.loc 1 104 0
  95 0004 0446     		mov	r4, r0
  96              	.LBB3:
  97              		.loc 1 105 0
  98              	@ 105 "../chibios_2.4.x/os/hal/src/serial.c" 1
  99 0006 83F31188 		msr     BASEPRI, r3
 100              	@ 0 "" 2
 101              	.LVL6:
 102              		.thumb
 103              	.LBE3:
 104 000a 0026     		movs	r6, #0
 105 000c FFF7FEFF 		bl	dbg_check_lock
 106              	.LVL7:
 107 0010 A568     		ldr	r5, [r4, #8]
 108              	.LVL8:
 109 0012 A660     		str	r6, [r4, #8]
 110 0014 FFF7FEFF 		bl	dbg_check_unlock
 111              	.LVL9:
 112              	.LBB4:
 113 0018 3346     		mov	r3, r6
 114              	.LVL10:
ARM GAS  C:\Users\z80\AppData\Local\Temp\ccgjv1a7.s 			page 3


 115              	@ 105 "../chibios_2.4.x/os/hal/src/serial.c" 1
 116 001a 83F31188 		msr     BASEPRI, r3
 117              	@ 0 "" 2
 118              	.LVL11:
 119              		.thumb
 120              	.LBE4:
 121              		.loc 1 106 0
 122 001e 2846     		mov	r0, r5
 123 0020 70BD     		pop	{r4, r5, r6, pc}
 124              		.cfi_endproc
 125              	.LFE70:
 126              		.size	getflags, .-getflags
 127 0022 00BFAFF3 		.section	.text.readt,"ax",%progbits
 127      0080AFF3 
 127      0080AFF3 
 127      0080
 128              		.align	2
 129              		.p2align 4,,15
 130              		.thumb
 131              		.thumb_func
 132              		.type	readt, %function
 133              	readt:
 134              	.LFB69:
 135              		.loc 1 99 0
 136              		.cfi_startproc
 137              		@ args = 0, pretend = 0, frame = 0
 138              		@ frame_needed = 0, uses_anonymous_args = 0
 139              		@ link register save eliminated.
 140              	.LVL12:
 141              		.loc 1 101 0
 142 0000 1030     		adds	r0, r0, #16
 143              	.LVL13:
 144              		.loc 1 102 0
 145              		.loc 1 101 0
 146 0002 FFF7FEBF 		b	chIQReadTimeout
 147              	.LVL14:
 148              	.LVL15:
 149              	.LVL16:
 150              	.LVL17:
 151              		.cfi_endproc
 152              	.LFE69:
 153              		.size	readt, .-readt
 154 0006 00BFAFF3 		.section	.text.reads,"ax",%progbits
 154      0080AFF3 
 154      0080
 155              		.align	2
 156              		.p2align 4,,15
 157              		.thumb
 158              		.thumb_func
 159              		.type	reads, %function
 160              	reads:
 161              	.LFB63:
 162              		.loc 1 68 0
 163              		.cfi_startproc
 164              		@ args = 0, pretend = 0, frame = 0
 165              		@ frame_needed = 0, uses_anonymous_args = 0
 166              		@ link register save eliminated.
ARM GAS  C:\Users\z80\AppData\Local\Temp\ccgjv1a7.s 			page 4


 167              	.LVL18:
 168              		.loc 1 70 0
 169 0000 1030     		adds	r0, r0, #16
 170              	.LVL19:
 171 0002 4FF0FF33 		mov	r3, #-1
 172              		.loc 1 72 0
 173              		.loc 1 70 0
 174 0006 FFF7FEBF 		b	chIQReadTimeout
 175              	.LVL20:
 176              	.LVL21:
 177              	.LVL22:
 178              		.cfi_endproc
 179              	.LFE63:
 180              		.size	reads, .-reads
 181 000a 00BFAFF3 		.section	.text.writet,"ax",%progbits
 181      0080
 182              		.align	2
 183              		.p2align 4,,15
 184              		.thumb
 185              		.thumb_func
 186              		.type	writet, %function
 187              	writet:
 188              	.LFB68:
 189              		.loc 1 94 0
 190              		.cfi_startproc
 191              		@ args = 0, pretend = 0, frame = 0
 192              		@ frame_needed = 0, uses_anonymous_args = 0
 193              		@ link register save eliminated.
 194              	.LVL23:
 195              		.loc 1 96 0
 196 0000 3030     		adds	r0, r0, #48
 197              	.LVL24:
 198              		.loc 1 97 0
 199              		.loc 1 96 0
 200 0002 FFF7FEBF 		b	chOQWriteTimeout
 201              	.LVL25:
 202              	.LVL26:
 203              	.LVL27:
 204              	.LVL28:
 205              		.cfi_endproc
 206              	.LFE68:
 207              		.size	writet, .-writet
 208 0006 00BFAFF3 		.section	.text.writes,"ax",%progbits
 208      0080AFF3 
 208      0080
 209              		.align	2
 210              		.p2align 4,,15
 211              		.thumb
 212              		.thumb_func
 213              		.type	writes, %function
 214              	writes:
 215              	.LFB62:
 216              		.loc 1 62 0
 217              		.cfi_startproc
 218              		@ args = 0, pretend = 0, frame = 0
 219              		@ frame_needed = 0, uses_anonymous_args = 0
 220              		@ link register save eliminated.
ARM GAS  C:\Users\z80\AppData\Local\Temp\ccgjv1a7.s 			page 5


 221              	.LVL29:
 222              		.loc 1 64 0
 223 0000 3030     		adds	r0, r0, #48
 224              	.LVL30:
 225 0002 4FF0FF33 		mov	r3, #-1
 226              		.loc 1 66 0
 227              		.loc 1 64 0
 228 0006 FFF7FEBF 		b	chOQWriteTimeout
 229              	.LVL31:
 230              	.LVL32:
 231              	.LVL33:
 232              		.cfi_endproc
 233              	.LFE62:
 234              		.size	writes, .-writes
 235 000a 00BFAFF3 		.section	.text.gett,"ax",%progbits
 235      0080
 236              		.align	2
 237              		.p2align 4,,15
 238              		.thumb
 239              		.thumb_func
 240              		.type	gett, %function
 241              	gett:
 242              	.LFB67:
 243              		.loc 1 89 0
 244              		.cfi_startproc
 245              		@ args = 0, pretend = 0, frame = 0
 246              		@ frame_needed = 0, uses_anonymous_args = 0
 247              		@ link register save eliminated.
 248              	.LVL34:
 249              		.loc 1 91 0
 250 0000 1030     		adds	r0, r0, #16
 251              	.LVL35:
 252              		.loc 1 92 0
 253              		.loc 1 91 0
 254 0002 FFF7FEBF 		b	chIQGetTimeout
 255              	.LVL36:
 256              	.LVL37:
 257              		.cfi_endproc
 258              	.LFE67:
 259              		.size	gett, .-gett
 260 0006 00BFAFF3 		.section	.text.putt,"ax",%progbits
 260      0080AFF3 
 260      0080
 261              		.align	2
 262              		.p2align 4,,15
 263              		.thumb
 264              		.thumb_func
 265              		.type	putt, %function
 266              	putt:
 267              	.LFB66:
 268              		.loc 1 84 0
 269              		.cfi_startproc
 270              		@ args = 0, pretend = 0, frame = 0
 271              		@ frame_needed = 0, uses_anonymous_args = 0
 272              		@ link register save eliminated.
 273              	.LVL38:
 274              		.loc 1 86 0
ARM GAS  C:\Users\z80\AppData\Local\Temp\ccgjv1a7.s 			page 6


 275 0000 3030     		adds	r0, r0, #48
 276              	.LVL39:
 277              		.loc 1 87 0
 278              		.loc 1 86 0
 279 0002 FFF7FEBF 		b	chOQPutTimeout
 280              	.LVL40:
 281              	.LVL41:
 282              	.LVL42:
 283              		.cfi_endproc
 284              	.LFE66:
 285              		.size	putt, .-putt
 286 0006 00BFAFF3 		.section	.text.sdInit,"ax",%progbits
 286      0080AFF3 
 286      0080
 287              		.align	2
 288              		.p2align 4,,15
 289              		.global	sdInit
 290              		.thumb
 291              		.thumb_func
 292              		.type	sdInit, %function
 293              	sdInit:
 294              	.LFB71:
 295              		.loc 1 125 0
 296              		.cfi_startproc
 297              		@ args = 0, pretend = 0, frame = 0
 298              		@ frame_needed = 0, uses_anonymous_args = 0
 299              		@ link register save eliminated.
 300              		.loc 1 128 0
 301              		.loc 1 127 0
 302 0000 FFF7FEBF 		b	sd_lld_init
 303              		.cfi_endproc
 304              	.LFE71:
 305              		.size	sdInit, .-sdInit
 306 0004 AFF30080 		.section	.text.sdObjectInit,"ax",%progbits
 306      AFF30080 
 306      AFF30080 
 307              		.align	2
 308              		.p2align 4,,15
 309              		.global	sdObjectInit
 310              		.thumb
 311              		.thumb_func
 312              		.type	sdObjectInit, %function
 313              	sdObjectInit:
 314              	.LFB72:
 315              		.loc 1 145 0
 316              		.cfi_startproc
 317              		@ args = 0, pretend = 0, frame = 0
 318              		@ frame_needed = 0, uses_anonymous_args = 0
 319              	.LVL43:
 320 0000 70B5     		push	{r4, r5, r6, lr}
 321              	.LCFI1:
 322              		.cfi_def_cfa_offset 16
 323              		.cfi_offset 14, -4
 324              		.cfi_offset 6, -8
 325              		.cfi_offset 5, -12
 326              		.cfi_offset 4, -16
 327              		.loc 1 145 0
ARM GAS  C:\Users\z80\AppData\Local\Temp\ccgjv1a7.s 			page 7


 328 0002 0446     		mov	r4, r0
 329              		.loc 1 147 0
 330 0004 40F20000 		movw	r0, #:lower16:.LANCHOR0
 331              	.LVL44:
 332 0008 2646     		mov	r6, r4
 333 000a C0F20000 		movt	r0, #:upper16:.LANCHOR0
 334 000e 46F8040B 		str	r0, [r6], #4
 335              		.loc 1 148 0
 336 0012 6660     		str	r6, [r4, #4]
 337              		.loc 1 149 0
 338 0014 0026     		movs	r6, #0
 339 0016 A660     		str	r6, [r4, #8]
 340              		.loc 1 150 0
 341 0018 0126     		movs	r6, #1
 342              		.loc 1 145 0
 343 001a 0B46     		mov	r3, r1
 344 001c 1546     		mov	r5, r2
 345              		.loc 1 151 0
 346 001e 04F11000 		add	r0, r4, #16
 347 0022 04F15001 		add	r1, r4, #80
 348              	.LVL45:
 349 0026 4FF40072 		mov	r2, #512
 350              	.LVL46:
 351              		.loc 1 150 0
 352 002a 2673     		strb	r6, [r4, #12]
 353              		.loc 1 151 0
 354 002c FFF7FEFF 		bl	chIQInit
 355              	.LVL47:
 356              		.loc 1 152 0
 357 0030 04F13000 		add	r0, r4, #48
 358 0034 04F51471 		add	r1, r4, #592
 359 0038 4FF40072 		mov	r2, #512
 360 003c 2B46     		mov	r3, r5
 361              		.loc 1 153 0
 362 003e BDE87040 		pop	{r4, r5, r6, lr}
 363              		.loc 1 152 0
 364 0042 FFF7FEBF 		b	chOQInit
 365              		.cfi_endproc
 366              	.LFE72:
 367              		.size	sdObjectInit, .-sdObjectInit
 368 0046 00BFAFF3 		.section	.text.sdStart,"ax",%progbits
 368      0080AFF3 
 368      0080
 369              		.align	2
 370              		.p2align 4,,15
 371              		.global	sdStart
 372              		.thumb
 373              		.thumb_func
 374              		.type	sdStart, %function
 375              	sdStart:
 376              	.LFB73:
 377              		.loc 1 165 0
 378              		.cfi_startproc
 379              		@ args = 0, pretend = 0, frame = 0
 380              		@ frame_needed = 0, uses_anonymous_args = 0
 381              	.LVL48:
 382 0000 38B5     		push	{r3, r4, r5, lr}
ARM GAS  C:\Users\z80\AppData\Local\Temp\ccgjv1a7.s 			page 8


 383              	.LCFI2:
 384              		.cfi_def_cfa_offset 16
 385              		.cfi_offset 14, -4
 386              		.cfi_offset 5, -8
 387              		.cfi_offset 4, -12
 388              		.cfi_offset 3, -16
 389              		.loc 1 167 0
 390 0002 0446     		mov	r4, r0
 391              		.loc 1 165 0
 392 0004 0D46     		mov	r5, r1
 393              		.loc 1 167 0
 394 0006 D8B1     		cbz	r0, .L16
 395              	.LVL49:
 396              	.L13:
 397              	.LBB5:
 398              		.loc 1 169 0
 399 0008 2023     		movs	r3, #32
 400              	.LVL50:
 401              	@ 169 "../chibios_2.4.x/os/hal/src/serial.c" 1
 402 000a 83F31188 		msr     BASEPRI, r3
 403              	@ 0 "" 2
 404              	.LVL51:
 405              		.thumb
 406              	.LBE5:
 407 000e FFF7FEFF 		bl	dbg_check_lock
 408              	.LVL52:
 409              		.loc 1 170 0
 410 0012 217B     		ldrb	r1, [r4, #12]	@ zero_extendqisi2
 411 0014 481E     		subs	r0, r1, #1
 412 0016 C3B2     		uxtb	r3, r0
 413 0018 012B     		cmp	r3, #1
 414 001a 05D9     		bls	.L14
 415              		.loc 1 170 0 is_stmt 0 discriminator 1
 416 001c 40F20000 		movw	r0, #:lower16:.LC1
 417 0020 C0F20000 		movt	r0, #:upper16:.LC1
 418 0024 FFF7FEFF 		bl	chDbgPanic
 419              	.L14:
 420              		.loc 1 173 0 is_stmt 1
 421 0028 2046     		mov	r0, r4
 422 002a 2946     		mov	r1, r5
 423 002c FFF7FEFF 		bl	sd_lld_start
 424              		.loc 1 174 0
 425 0030 0222     		movs	r2, #2
 426 0032 2273     		strb	r2, [r4, #12]
 427              		.loc 1 175 0
 428 0034 FFF7FEFF 		bl	dbg_check_unlock
 429              	.LBB6:
 430 0038 0023     		movs	r3, #0
 431              	.LVL53:
 432              	@ 175 "../chibios_2.4.x/os/hal/src/serial.c" 1
 433 003a 83F31188 		msr     BASEPRI, r3
 434              	@ 0 "" 2
 435              	.LVL54:
 436              		.thumb
 437              	.LBE6:
 438              		.loc 1 176 0
 439 003e 38BD     		pop	{r3, r4, r5, pc}
ARM GAS  C:\Users\z80\AppData\Local\Temp\ccgjv1a7.s 			page 9


 440              	.LVL55:
 441              	.L16:
 442              		.loc 1 167 0 discriminator 1
 443 0040 40F20000 		movw	r0, #:lower16:.LC0
 444 0044 C0F20000 		movt	r0, #:upper16:.LC0
 445 0048 FFF7FEFF 		bl	chDbgPanic
 446 004c DCE7     		b	.L13
 447              		.cfi_endproc
 448              	.LFE73:
 449              		.size	sdStart, .-sdStart
 450 004e 00BF     		.section	.text.sdStop,"ax",%progbits
 451              		.align	2
 452              		.p2align 4,,15
 453              		.global	sdStop
 454              		.thumb
 455              		.thumb_func
 456              		.type	sdStop, %function
 457              	sdStop:
 458              	.LFB74:
 459              		.loc 1 187 0
 460              		.cfi_startproc
 461              		@ args = 0, pretend = 0, frame = 0
 462              		@ frame_needed = 0, uses_anonymous_args = 0
 463              	.LVL56:
 464 0000 10B5     		push	{r4, lr}
 465              	.LCFI3:
 466              		.cfi_def_cfa_offset 8
 467              		.cfi_offset 14, -4
 468              		.cfi_offset 4, -8
 469              		.loc 1 189 0
 470 0002 0446     		mov	r4, r0
 471 0004 20B3     		cbz	r0, .L20
 472              	.LVL57:
 473              	.L18:
 474              	.LBB7:
 475              		.loc 1 191 0
 476 0006 2023     		movs	r3, #32
 477              	.LVL58:
 478              	@ 191 "../chibios_2.4.x/os/hal/src/serial.c" 1
 479 0008 83F31188 		msr     BASEPRI, r3
 480              	@ 0 "" 2
 481              	.LVL59:
 482              		.thumb
 483              	.LBE7:
 484 000c FFF7FEFF 		bl	dbg_check_lock
 485              	.LVL60:
 486              		.loc 1 192 0
 487 0010 217B     		ldrb	r1, [r4, #12]	@ zero_extendqisi2
 488 0012 481E     		subs	r0, r1, #1
 489 0014 C3B2     		uxtb	r3, r0
 490 0016 012B     		cmp	r3, #1
 491 0018 05D9     		bls	.L19
 492              		.loc 1 192 0 is_stmt 0 discriminator 1
 493 001a 40F20000 		movw	r0, #:lower16:.LC3
 494 001e C0F20000 		movt	r0, #:upper16:.LC3
 495 0022 FFF7FEFF 		bl	chDbgPanic
 496              	.L19:
ARM GAS  C:\Users\z80\AppData\Local\Temp\ccgjv1a7.s 			page 10


 497              		.loc 1 195 0 is_stmt 1
 498 0026 2046     		mov	r0, r4
 499 0028 FFF7FEFF 		bl	sd_lld_stop
 500              		.loc 1 196 0
 501 002c 0122     		movs	r2, #1
 502 002e 2273     		strb	r2, [r4, #12]
 503              		.loc 1 197 0
 504 0030 04F13000 		add	r0, r4, #48
 505 0034 FFF7FEFF 		bl	chOQResetI
 506              		.loc 1 198 0
 507 0038 04F11000 		add	r0, r4, #16
 508 003c FFF7FEFF 		bl	chIQResetI
 509              		.loc 1 199 0
 510 0040 FFF7FEFF 		bl	chSchRescheduleS
 511              		.loc 1 200 0
 512 0044 FFF7FEFF 		bl	dbg_check_unlock
 513              	.LBB8:
 514 0048 0023     		movs	r3, #0
 515              	.LVL61:
 516              	@ 200 "../chibios_2.4.x/os/hal/src/serial.c" 1
 517 004a 83F31188 		msr     BASEPRI, r3
 518              	@ 0 "" 2
 519              	.LVL62:
 520              		.thumb
 521              	.LBE8:
 522              		.loc 1 201 0
 523 004e 10BD     		pop	{r4, pc}
 524              	.LVL63:
 525              	.L20:
 526              		.loc 1 189 0 discriminator 1
 527 0050 40F20000 		movw	r0, #:lower16:.LC2
 528 0054 C0F20000 		movt	r0, #:upper16:.LC2
 529 0058 FFF7FEFF 		bl	chDbgPanic
 530 005c D3E7     		b	.L18
 531              		.cfi_endproc
 532              	.LFE74:
 533              		.size	sdStop, .-sdStop
 534 005e 00BF     		.section	.text.sdIncomingDataI,"ax",%progbits
 535              		.align	2
 536              		.p2align 4,,15
 537              		.global	sdIncomingDataI
 538              		.thumb
 539              		.thumb_func
 540              		.type	sdIncomingDataI, %function
 541              	sdIncomingDataI:
 542              	.LFB75:
 543              		.loc 1 219 0
 544              		.cfi_startproc
 545              		@ args = 0, pretend = 0, frame = 0
 546              		@ frame_needed = 0, uses_anonymous_args = 0
 547              	.LVL64:
 548 0000 38B5     		push	{r3, r4, r5, lr}
 549              	.LCFI4:
 550              		.cfi_def_cfa_offset 16
 551              		.cfi_offset 14, -4
 552              		.cfi_offset 5, -8
 553              		.cfi_offset 4, -12
ARM GAS  C:\Users\z80\AppData\Local\Temp\ccgjv1a7.s 			page 11


 554              		.cfi_offset 3, -16
 555              		.loc 1 219 0
 556 0002 0446     		mov	r4, r0
 557 0004 0D46     		mov	r5, r1
 558              		.loc 1 221 0
 559 0006 FFF7FEFF 		bl	chDbgCheckClassI
 560              	.LVL65:
 561              		.loc 1 222 0
 562 000a 002C     		cmp	r4, #0
 563 000c 21D0     		beq	.L25
 564              	.L22:
 565              		.loc 1 224 0
 566 000e A169     		ldr	r1, [r4, #24]
 567 0010 39B1     		cbz	r1, .L26
 568              		.loc 1 226 0
 569 0012 04F11000 		add	r0, r4, #16
 570 0016 2946     		mov	r1, r5
 571 0018 FFF7FEFF 		bl	chIQPutI
 572 001c 0028     		cmp	r0, #0
 573 001e 0EDB     		blt	.L27
 574              	.L21:
 575 0020 38BD     		pop	{r3, r4, r5, pc}
 576              	.L26:
 577              		.loc 1 225 0
 578 0022 A268     		ldr	r2, [r4, #8]
 579 0024 201D     		adds	r0, r4, #4
 580 0026 42F00403 		orr	r3, r2, #4
 581 002a A360     		str	r3, [r4, #8]
 582 002c FFF7FEFF 		bl	chEvtBroadcastFlagsI
 583              		.loc 1 226 0
 584 0030 04F11000 		add	r0, r4, #16
 585 0034 2946     		mov	r1, r5
 586 0036 FFF7FEFF 		bl	chIQPutI
 587 003a 0028     		cmp	r0, #0
 588 003c F0DA     		bge	.L21
 589              	.L27:
 590              		.loc 1 227 0
 591 003e A368     		ldr	r3, [r4, #8]
 592 0040 201D     		adds	r0, r4, #4
 593 0042 43F08001 		orr	r1, r3, #128
 594 0046 A160     		str	r1, [r4, #8]
 595 0048 0021     		movs	r1, #0
 596              		.loc 1 228 0
 597 004a BDE83840 		pop	{r3, r4, r5, lr}
 598              		.loc 1 227 0
 599 004e FFF7FEBF 		b	chEvtBroadcastFlagsI
 600              	.L25:
 601              		.loc 1 222 0 discriminator 1
 602 0052 40F20000 		movw	r0, #:lower16:.LC4
 603 0056 C0F20000 		movt	r0, #:upper16:.LC4
 604 005a FFF7FEFF 		bl	chDbgPanic
 605 005e D6E7     		b	.L22
 606              		.cfi_endproc
 607              	.LFE75:
 608              		.size	sdIncomingDataI, .-sdIncomingDataI
 609              		.section	.text.sdRequestDataI,"ax",%progbits
 610              		.align	2
ARM GAS  C:\Users\z80\AppData\Local\Temp\ccgjv1a7.s 			page 12


 611              		.p2align 4,,15
 612              		.global	sdRequestDataI
 613              		.thumb
 614              		.thumb_func
 615              		.type	sdRequestDataI, %function
 616              	sdRequestDataI:
 617              	.LFB76:
 618              		.loc 1 245 0
 619              		.cfi_startproc
 620              		@ args = 0, pretend = 0, frame = 0
 621              		@ frame_needed = 0, uses_anonymous_args = 0
 622              	.LVL66:
 623 0000 38B5     		push	{r3, r4, r5, lr}
 624              	.LCFI5:
 625              		.cfi_def_cfa_offset 16
 626              		.cfi_offset 14, -4
 627              		.cfi_offset 5, -8
 628              		.cfi_offset 4, -12
 629              		.cfi_offset 3, -16
 630              		.loc 1 245 0
 631 0002 0546     		mov	r5, r0
 632              		.loc 1 248 0
 633 0004 FFF7FEFF 		bl	chDbgCheckClassI
 634              	.LVL67:
 635              		.loc 1 249 0
 636 0008 8DB1     		cbz	r5, .L31
 637              	.L29:
 638              		.loc 1 251 0
 639 000a 05F13000 		add	r0, r5, #48
 640 000e FFF7FEFF 		bl	chOQGetI
 641              	.LVL68:
 642              		.loc 1 252 0
 643 0012 041E     		subs	r4, r0, #0
 644 0014 01DB     		blt	.L32
 645              		.loc 1 255 0
 646 0016 2046     		mov	r0, r4
 647 0018 38BD     		pop	{r3, r4, r5, pc}
 648              	.L32:
 649              		.loc 1 253 0
 650 001a A968     		ldr	r1, [r5, #8]
 651 001c 281D     		adds	r0, r5, #4
 652              	.LVL69:
 653 001e 41F00803 		orr	r3, r1, #8
 654 0022 AB60     		str	r3, [r5, #8]
 655 0024 0021     		movs	r1, #0
 656 0026 FFF7FEFF 		bl	chEvtBroadcastFlagsI
 657              		.loc 1 255 0
 658 002a 2046     		mov	r0, r4
 659 002c 38BD     		pop	{r3, r4, r5, pc}
 660              	.LVL70:
 661              	.L31:
 662              		.loc 1 249 0 discriminator 1
 663 002e 40F20000 		movw	r0, #:lower16:.LC5
 664 0032 C0F20000 		movt	r0, #:upper16:.LC5
 665 0036 FFF7FEFF 		bl	chDbgPanic
 666 003a E6E7     		b	.L29
 667              		.cfi_endproc
ARM GAS  C:\Users\z80\AppData\Local\Temp\ccgjv1a7.s 			page 13


 668              	.LFE76:
 669              		.size	sdRequestDataI, .-sdRequestDataI
 670 003c AFF30080 		.section	.rodata.str1.4,"aMS",%progbits,1
 671              		.align	2
 672              	.LC0:
 673 0000 22736453 		.ascii	"\"sdStart\"()\000"
 673      74617274 
 673      22282900 
 674              	.LC1:
 675 000c 73645374 		.ascii	"sdStart(), #1\000"
 675      61727428 
 675      292C2023 
 675      3100
 676 001a 0000     		.space	2
 677              	.LC2:
 678 001c 22736453 		.ascii	"\"sdStop\"()\000"
 678      746F7022 
 678      282900
 679 0027 00       		.space	1
 680              	.LC3:
 681 0028 73645374 		.ascii	"sdStop(), #1\000"
 681      6F702829 
 681      2C202331 
 681      00
 682 0035 000000   		.space	3
 683              	.LC4:
 684 0038 22736449 		.ascii	"\"sdIncomingDataI\"()\000"
 684      6E636F6D 
 684      696E6744 
 684      61746149 
 684      22282900 
 685              	.LC5:
 686 004c 22736452 		.ascii	"\"sdRequestDataI\"()\000"
 686      65717565 
 686      73744461 
 686      74614922 
 686      282900
 687 005f 00       		.section	.rodata.vmt,"a",%progbits
 688              		.align	2
 689              		.set	.LANCHOR0,. + 0
 690              		.type	vmt, %object
 691              		.size	vmt, 36
 692              	vmt:
 693 0000 00000000 		.word	writes
 694 0004 00000000 		.word	reads
 695 0008 00000000 		.word	putwouldblock
 696 000c 00000000 		.word	getwouldblock
 697 0010 00000000 		.word	putt
 698 0014 00000000 		.word	gett
 699 0018 00000000 		.word	writet
 700 001c 00000000 		.word	readt
 701 0020 00000000 		.word	getflags
 702              		.text
 703              	.Letext0:
 704              		.file 2 "c:\\programs\\codesourcery\\2011.03-56\\bin\\../lib/gcc/arm-none-eabi/4.6.3/include/stdde
 705              		.file 3 "c:\\programs\\codesourcery\\2011.03-56\\bin\\../lib/gcc/arm-none-eabi/4.6.3/../../../../a
 706              		.file 4 "../chibios_2.4.x/os/ports/GCC/ARMCMx/chtypes.h"
ARM GAS  C:\Users\z80\AppData\Local\Temp\ccgjv1a7.s 			page 14


 707              		.file 5 "../chibios_2.4.x/os/kernel/include/chlists.h"
 708              		.file 6 "../chibios_2.4.x/os/kernel/include/chthreads.h"
 709              		.file 7 "../chibios_2.4.x/os/ports/GCC/ARMCMx/chcore_v7m.h"
 710              		.file 8 "../chibios_2.4.x/os/kernel/include/chmtx.h"
 711              		.file 9 "../chibios_2.4.x/os/kernel/include/chevents.h"
 712              		.file 10 "../chibios_2.4.x/os/kernel/include/chqueues.h"
 713              		.file 11 "../chibios_2.4.x/os/kernel/include/chioch.h"
 714              		.file 12 "../chibios_2.4.x/os/hal/platforms/STM32F1xx/stm32f10x.h"
 715              		.file 13 "../chibios_2.4.x/os/hal/include/serial.h"
 716              		.file 14 "../chibios_2.4.x/os/hal/platforms/STM32/serial_lld.h"
 717              		.file 15 "../chibios_2.4.x/os/ports/common/ARMCMx/CMSIS/include/core_cm3.h"