ARM GAS  C:\Users\z80\AppData\Local\Temp\cc7vCSVh.s 			page 1


   1              		.syntax unified
   2              		.cpu cortex-m3
   3              		.fpu softvfp
   4              		.eabi_attribute 20, 1
   5              		.eabi_attribute 21, 1
   6              		.eabi_attribute 23, 3
   7              		.eabi_attribute 24, 1
   8              		.eabi_attribute 25, 1
   9              		.eabi_attribute 26, 1
  10              		.eabi_attribute 30, 2
  11              		.eabi_attribute 34, 1
  12              		.eabi_attribute 18, 4
  13              		.thumb
  14              		.file	"shell.c"
  15              		.text
  16              	.Ltext0:
  17              		.cfi_sections	.debug_frame
  18              		.section	.text.cmd_systime,"ax",%progbits
  19              		.align	2
  20              		.p2align 4,,15
  21              		.thumb
  22              		.thumb_func
  23              		.type	cmd_systime, %function
  24              	cmd_systime:
  25              	.LFB66:
  26              		.file 1 "../chibios_2.4.x/os/various/shell.c"
  27              		.loc 1 110 0
  28              		.cfi_startproc
  29              		@ args = 0, pretend = 0, frame = 0
  30              		@ frame_needed = 0, uses_anonymous_args = 0
  31              		@ link register save eliminated.
  32              	.LVL0:
  33              		.loc 1 113 0
  34 0000 0029     		cmp	r1, #0
  35 0002 09DD     		ble	.L2
  36              	.LVL1:
  37              	.LBB29:
  38              	.LBB30:
  39              		.loc 1 67 0
  40 0004 40F20001 		movw	r1, #:lower16:.LC0
  41              	.LVL2:
  42 0008 40F20002 		movw	r2, #:lower16:.LC1
  43              	.LVL3:
  44 000c C0F20001 		movt	r1, #:upper16:.LC0
  45 0010 C0F20002 		movt	r2, #:upper16:.LC1
  46              	.LBE30:
  47              	.LBE29:
  48              		.loc 1 118 0
  49              	.LBB32:
  50              	.LBB31:
  51              		.loc 1 67 0
  52 0014 FFF7FEBF 		b	chprintf
  53              	.LVL4:
  54              	.L2:
  55              	.LBE31:
  56              	.LBE32:
  57              	.LBB33:
ARM GAS  C:\Users\z80\AppData\Local\Temp\cc7vCSVh.s 			page 2


  58              	.LBB34:
  59              		.loc 1 117 0
  60 0018 40F20003 		movw	r3, #:lower16:vtlist
  61 001c C0F20003 		movt	r3, #:upper16:vtlist
  62 0020 DA68     		ldr	r2, [r3, #12]
  63              	.LVL5:
  64 0022 40F20001 		movw	r1, #:lower16:.LC2
  65              	.LVL6:
  66 0026 C0F20001 		movt	r1, #:upper16:.LC2
  67              	.LBE34:
  68              	.LBE33:
  69              		.loc 1 118 0
  70              	.LBB36:
  71              	.LBB35:
  72              		.loc 1 117 0
  73 002a FFF7FEBF 		b	chprintf
  74              	.LVL7:
  75              	.LBE35:
  76              	.LBE36:
  77              		.cfi_endproc
  78              	.LFE66:
  79              		.size	cmd_systime, .-cmd_systime
  80 002e 00BF     		.section	.text.cmd_info,"ax",%progbits
  81              		.align	2
  82              		.p2align 4,,15
  83              		.thumb
  84              		.thumb_func
  85              		.type	cmd_info, %function
  86              	cmd_info:
  87              	.LFB65:
  88              		.loc 1 78 0
  89              		.cfi_startproc
  90              		@ args = 0, pretend = 0, frame = 0
  91              		@ frame_needed = 0, uses_anonymous_args = 0
  92              	.LVL8:
  93 0000 30B5     		push	{r4, r5, lr}
  94              	.LCFI0:
  95              		.cfi_def_cfa_offset 12
  96              		.cfi_offset 14, -4
  97              		.cfi_offset 5, -8
  98              		.cfi_offset 4, -12
  99              		.loc 1 81 0
 100 0002 0029     		cmp	r1, #0
 101              		.loc 1 78 0
 102 0004 83B0     		sub	sp, sp, #12
 103              	.LCFI1:
 104              		.cfi_def_cfa_offset 24
 105              		.loc 1 78 0
 106 0006 0446     		mov	r4, r0
 107              		.loc 1 81 0
 108 0008 0CDD     		ble	.L5
 109              	.LVL9:
 110              	.LBB43:
 111              	.LBB44:
 112              		.loc 1 67 0
 113 000a 40F20001 		movw	r1, #:lower16:.LC0
 114              	.LVL10:
ARM GAS  C:\Users\z80\AppData\Local\Temp\cc7vCSVh.s 			page 3


 115 000e 40F20002 		movw	r2, #:lower16:.LC3
 116              	.LVL11:
 117 0012 C0F20001 		movt	r1, #:upper16:.LC0
 118 0016 C0F20002 		movt	r2, #:upper16:.LC3
 119              	.LBE44:
 120              	.LBE43:
 121              		.loc 1 108 0
 122 001a 03B0     		add	sp, sp, #12
 123 001c BDE83040 		pop	{r4, r5, lr}
 124              	.LBB46:
 125              	.LBB45:
 126              		.loc 1 67 0
 127 0020 FFF7FEBF 		b	chprintf
 128              	.LVL12:
 129              	.L5:
 130              	.LBE45:
 131              	.LBE46:
 132              	.LBB47:
 133              	.LBB48:
 134              		.loc 1 86 0
 135 0024 40F20001 		movw	r1, #:lower16:.LC4
 136              	.LVL13:
 137 0028 40F20002 		movw	r2, #:lower16:.LC5
 138              	.LVL14:
 139 002c C0F20001 		movt	r1, #:upper16:.LC4
 140 0030 C0F20002 		movt	r2, #:upper16:.LC5
 141 0034 FFF7FEFF 		bl	chprintf
 142              		.loc 1 88 0
 143 0038 40F20001 		movw	r1, #:lower16:.LC6
 144 003c 40F20002 		movw	r2, #:lower16:.LC7
 145 0040 2046     		mov	r0, r4
 146 0042 C0F20001 		movt	r1, #:upper16:.LC6
 147 0046 C0F20002 		movt	r2, #:upper16:.LC7
 148 004a FFF7FEFF 		bl	chprintf
 149              		.loc 1 90 0
 150 004e 40F20001 		movw	r1, #:lower16:.LC8
 151 0052 40F20002 		movw	r2, #:lower16:.LC9
 152 0056 2046     		mov	r0, r4
 153 0058 C0F20001 		movt	r1, #:upper16:.LC8
 154 005c C0F20002 		movt	r2, #:upper16:.LC9
 155 0060 FFF7FEFF 		bl	chprintf
 156              		.loc 1 92 0
 157 0064 40F20001 		movw	r1, #:lower16:.LC10
 158 0068 40F20002 		movw	r2, #:lower16:.LC11
 159 006c 2046     		mov	r0, r4
 160 006e C0F20001 		movt	r1, #:upper16:.LC10
 161 0072 C0F20002 		movt	r2, #:upper16:.LC11
 162 0076 FFF7FEFF 		bl	chprintf
 163              		.loc 1 95 0
 164 007a 40F20001 		movw	r1, #:lower16:.LC12
 165 007e 40F20002 		movw	r2, #:lower16:.LC13
 166 0082 2046     		mov	r0, r4
 167 0084 C0F20001 		movt	r1, #:upper16:.LC12
 168 0088 C0F20002 		movt	r2, #:upper16:.LC13
 169 008c FFF7FEFF 		bl	chprintf
 170              		.loc 1 98 0
 171 0090 40F20001 		movw	r1, #:lower16:.LC14
ARM GAS  C:\Users\z80\AppData\Local\Temp\cc7vCSVh.s 			page 4


 172 0094 40F20002 		movw	r2, #:lower16:.LC15
 173 0098 2046     		mov	r0, r4
 174 009a C0F20001 		movt	r1, #:upper16:.LC14
 175 009e C0F20002 		movt	r2, #:upper16:.LC15
 176 00a2 FFF7FEFF 		bl	chprintf
 177              		.loc 1 101 0
 178 00a6 40F20001 		movw	r1, #:lower16:.LC16
 179 00aa 40F20002 		movw	r2, #:lower16:.LC17
 180 00ae 2046     		mov	r0, r4
 181 00b0 C0F20001 		movt	r1, #:upper16:.LC16
 182 00b4 C0F20002 		movt	r2, #:upper16:.LC17
 183 00b8 FFF7FEFF 		bl	chprintf
 184              		.loc 1 105 0
 185 00bc 40F20005 		movw	r5, #:lower16:.LC21
 186 00c0 40F20001 		movw	r1, #:lower16:.LC18
 187 00c4 40F20002 		movw	r2, #:lower16:.LC19
 188 00c8 40F20003 		movw	r3, #:lower16:.LC20
 189 00cc C0F20005 		movt	r5, #:upper16:.LC21
 190 00d0 2046     		mov	r0, r4
 191 00d2 C0F20001 		movt	r1, #:upper16:.LC18
 192 00d6 C0F20002 		movt	r2, #:upper16:.LC19
 193 00da C0F20003 		movt	r3, #:upper16:.LC20
 194 00de 0095     		str	r5, [sp, #0]
 195 00e0 FFF7FEFF 		bl	chprintf
 196              	.LBE48:
 197              	.LBE47:
 198              		.loc 1 108 0
 199 00e4 03B0     		add	sp, sp, #12
 200 00e6 30BD     		pop	{r4, r5, pc}
 201              		.cfi_endproc
 202              	.LFE65:
 203              		.size	cmd_info, .-cmd_info
 204 00e8 AFF30080 		.section	.text._strtok.constprop.2,"ax",%progbits
 204      AFF30080 
 205              		.align	2
 206              		.p2align 4,,15
 207              		.thumb
 208              		.thumb_func
 209              		.type	_strtok.constprop.2, %function
 210              	_strtok.constprop.2:
 211              	.LFB74:
 212              		.loc 1 48 0
 213              		.cfi_startproc
 214              		@ args = 0, pretend = 0, frame = 0
 215              		@ frame_needed = 0, uses_anonymous_args = 0
 216              	.LVL15:
 217 0000 38B5     		push	{r3, r4, r5, lr}
 218              	.LCFI2:
 219              		.cfi_def_cfa_offset 16
 220              		.cfi_offset 14, -4
 221              		.cfi_offset 5, -8
 222              		.cfi_offset 4, -12
 223              		.cfi_offset 3, -16
 224              		.loc 1 50 0
 225 0002 0446     		mov	r4, r0
 226              		.loc 1 48 0
 227 0004 0D46     		mov	r5, r1
ARM GAS  C:\Users\z80\AppData\Local\Temp\cc7vCSVh.s 			page 5


 228              		.loc 1 50 0
 229 0006 C0B1     		cbz	r0, .L7
 230              		.loc 1 51 0
 231 0008 0860     		str	r0, [r1, #0]
 232              	.LVL16:
 233              	.L8:
 234              		.loc 1 57 0
 235 000a 40F20001 		movw	r1, #:lower16:.LANCHOR0
 236              	.LVL17:
 237 000e C0F20001 		movt	r1, #:upper16:.LANCHOR0
 238 0012 2046     		mov	r0, r4
 239              	.LVL18:
 240 0014 FFF7FEFF 		bl	strspn
 241 0018 2418     		adds	r4, r4, r0
 242              	.LVL19:
 243              		.loc 1 58 0
 244 001a 2046     		mov	r0, r4
 245 001c 2021     		movs	r1, #32
 246 001e FFF7FEFF 		bl	strchr
 247 0022 2860     		str	r0, [r5, #0]
 248              		.loc 1 59 0
 249 0024 18B1     		cbz	r0, .L10
 250              		.loc 1 60 0
 251 0026 0023     		movs	r3, #0
 252 0028 00F8013B 		strb	r3, [r0], #1
 253 002c 2860     		str	r0, [r5, #0]
 254              	.L10:
 255              		.loc 1 62 0
 256 002e 2078     		ldrb	r0, [r4, #0]	@ zero_extendqisi2
 257 0030 0028     		cmp	r0, #0
 258 0032 14BF     		ite	ne
 259 0034 2046     		movne	r0, r4
 260 0036 0020     		moveq	r0, #0
 261 0038 38BD     		pop	{r3, r4, r5, pc}
 262              	.LVL20:
 263              	.L7:
 264              		.loc 1 52 0
 265 003a 0C68     		ldr	r4, [r1, #0]
 266              	.LVL21:
 267              		.loc 1 54 0
 268 003c 002C     		cmp	r4, #0
 269 003e E4D1     		bne	.L8
 270              		.loc 1 55 0
 271 0040 2046     		mov	r0, r4
 272              	.LVL22:
 273              		.loc 1 63 0
 274 0042 38BD     		pop	{r3, r4, r5, pc}
 275              		.cfi_endproc
 276              	.LFE74:
 277              		.size	_strtok.constprop.2, .-_strtok.constprop.2
 278 0044 AFF30080 		.section	.text.shellInit,"ax",%progbits
 278      AFF30080 
 278      AFF30080 
 279              		.align	2
 280              		.p2align 4,,15
 281              		.global	shellInit
 282              		.thumb
ARM GAS  C:\Users\z80\AppData\Local\Temp\cc7vCSVh.s 			page 6


 283              		.thumb_func
 284              		.type	shellInit, %function
 285              	shellInit:
 286              	.LFB69:
 287              		.loc 1 215 0
 288              		.cfi_startproc
 289              		@ args = 0, pretend = 0, frame = 0
 290              		@ frame_needed = 0, uses_anonymous_args = 0
 291              		@ link register save eliminated.
 292              		.loc 1 217 0
 293 0000 40F20003 		movw	r3, #:lower16:.LANCHOR1
 294 0004 C0F20003 		movt	r3, #:upper16:.LANCHOR1
 295 0008 1B60     		str	r3, [r3, #0]
 296              		.loc 1 218 0
 297 000a 7047     		bx	lr
 298              		.cfi_endproc
 299              	.LFE69:
 300              		.size	shellInit, .-shellInit
 301 000c AFF30080 		.section	.text.shellCreateStatic,"ax",%progbits
 302              		.align	2
 303              		.p2align 4,,15
 304              		.global	shellCreateStatic
 305              		.thumb
 306              		.thumb_func
 307              		.type	shellCreateStatic, %function
 308              	shellCreateStatic:
 309              	.LFB70:
 310              		.loc 1 247 0
 311              		.cfi_startproc
 312              		@ args = 0, pretend = 0, frame = 0
 313              		@ frame_needed = 0, uses_anonymous_args = 0
 314              	.LVL23:
 315 0000 00B5     		push	{lr}
 316              	.LCFI3:
 317              		.cfi_def_cfa_offset 4
 318              		.cfi_offset 14, -4
 319 0002 83B0     		sub	sp, sp, #12
 320              	.LCFI4:
 321              		.cfi_def_cfa_offset 16
 322              		.loc 1 249 0
 323 0004 0090     		str	r0, [sp, #0]
 324 0006 0846     		mov	r0, r1
 325              	.LVL24:
 326 0008 1146     		mov	r1, r2
 327              	.LVL25:
 328 000a 1A46     		mov	r2, r3
 329              	.LVL26:
 330 000c 40F20003 		movw	r3, #:lower16:shell_thread
 331              	.LVL27:
 332 0010 C0F20003 		movt	r3, #:upper16:shell_thread
 333 0014 FFF7FEFF 		bl	chThdCreateStatic
 334              	.LVL28:
 335              		.loc 1 250 0
 336 0018 03B0     		add	sp, sp, #12
 337 001a 00BD     		pop	{pc}
 338              		.cfi_endproc
 339              	.LFE70:
ARM GAS  C:\Users\z80\AppData\Local\Temp\cc7vCSVh.s 			page 7


 340              		.size	shellCreateStatic, .-shellCreateStatic
 341 001c AFF30080 		.section	.text.shellGetLine,"ax",%progbits
 342              		.align	2
 343              		.p2align 4,,15
 344              		.global	shellGetLine
 345              		.thumb
 346              		.thumb_func
 347              		.type	shellGetLine, %function
 348              	shellGetLine:
 349              	.LFB71:
 350              		.loc 1 262 0
 351              		.cfi_startproc
 352              		@ args = 0, pretend = 0, frame = 0
 353              		@ frame_needed = 0, uses_anonymous_args = 0
 354              	.LVL29:
 355              	.LBB49:
 356              		.loc 1 289 0
 357 0000 013A     		subs	r2, r2, #1
 358              	.LVL30:
 359              	.LBE49:
 360              		.loc 1 262 0
 361 0002 2DE9F843 		push	{r3, r4, r5, r6, r7, r8, r9, lr}
 362              	.LCFI5:
 363              		.cfi_def_cfa_offset 32
 364              		.cfi_offset 14, -4
 365              		.cfi_offset 9, -8
 366              		.cfi_offset 8, -12
 367              		.cfi_offset 7, -16
 368              		.cfi_offset 6, -20
 369              		.cfi_offset 5, -24
 370              		.cfi_offset 4, -28
 371              		.cfi_offset 3, -32
 372              		.loc 1 262 0
 373 0006 8846     		mov	r8, r1
 374              	.LVL31:
 375 0008 0546     		mov	r5, r0
 376              		.loc 1 263 0
 377 000a 0F46     		mov	r7, r1
 378              	.LBB50:
 379              		.loc 1 289 0
 380 000c 01EB0209 		add	r9, r1, r2
 381              	.LVL32:
 382              	.L24:
 383              		.loc 1 266 0
 384 0010 2968     		ldr	r1, [r5, #0]
 385 0012 2846     		mov	r0, r5
 386 0014 4B69     		ldr	r3, [r1, #20]
 387 0016 4FF0FF31 		mov	r1, #-1
 388 001a 9847     		blx	r3
 389              		.loc 1 267 0
 390 001c 04B2     		sxth	r4, r0
 391 001e 002C     		cmp	r4, #0
 392              		.loc 1 266 0
 393 0020 0646     		mov	r6, r0	@ movhi
 394              	.LVL33:
 395              		.loc 1 267 0
 396 0022 2CDB     		blt	.L21
ARM GAS  C:\Users\z80\AppData\Local\Temp\cc7vCSVh.s 			page 8


 397              		.loc 1 269 0
 398 0024 042C     		cmp	r4, #4
 399 0026 2DD0     		beq	.L25
 400              		.loc 1 273 0
 401 0028 082C     		cmp	r4, #8
 402 002a 0FD0     		beq	.L26
 403              		.loc 1 282 0
 404 002c 0D2C     		cmp	r4, #13
 405 002e 33D0     		beq	.L27
 406              		.loc 1 287 0
 407 0030 1F2C     		cmp	r4, #31
 408 0032 EDDD     		ble	.L24
 409              		.loc 1 289 0
 410 0034 4F45     		cmp	r7, r9
 411 0036 EBD2     		bcs	.L24
 412              		.loc 1 290 0
 413 0038 2968     		ldr	r1, [r5, #0]
 414 003a 2846     		mov	r0, r5
 415 003c 0C69     		ldr	r4, [r1, #16]
 416 003e 4FF0FF32 		mov	r2, #-1
 417 0042 F1B2     		uxtb	r1, r6
 418 0044 A047     		blx	r4
 419              		.loc 1 291 0
 420 0046 07F8016B 		strb	r6, [r7], #1
 421              	.LVL34:
 422 004a E1E7     		b	.L24
 423              	.L26:
 424              		.loc 1 274 0
 425 004c 4745     		cmp	r7, r8
 426 004e DFD0     		beq	.L24
 427              		.loc 1 275 0
 428 0050 2B68     		ldr	r3, [r5, #0]
 429 0052 2146     		mov	r1, r4
 430 0054 1E69     		ldr	r6, [r3, #16]
 431              	.LVL35:
 432 0056 4FF0FF32 		mov	r2, #-1
 433 005a 2846     		mov	r0, r5
 434 005c B047     		blx	r6
 435              		.loc 1 276 0
 436 005e 2868     		ldr	r0, [r5, #0]
 437 0060 2021     		movs	r1, #32
 438 0062 0369     		ldr	r3, [r0, #16]
 439 0064 4FF0FF32 		mov	r2, #-1
 440 0068 2846     		mov	r0, r5
 441 006a 9847     		blx	r3
 442              		.loc 1 277 0
 443 006c 2A68     		ldr	r2, [r5, #0]
 444 006e 2846     		mov	r0, r5
 445 0070 1669     		ldr	r6, [r2, #16]
 446 0072 2146     		mov	r1, r4
 447 0074 4FF0FF32 		mov	r2, #-1
 448 0078 B047     		blx	r6
 449              		.loc 1 278 0
 450 007a 013F     		subs	r7, r7, #1
 451              	.LVL36:
 452 007c C8E7     		b	.L24
 453              	.LVL37:
ARM GAS  C:\Users\z80\AppData\Local\Temp\cc7vCSVh.s 			page 9


 454              	.L21:
 455              		.loc 1 268 0
 456 007e 0120     		movs	r0, #1
 457              	.LBE50:
 458              		.loc 1 294 0
 459 0080 BDE8F883 		pop	{r3, r4, r5, r6, r7, r8, r9, pc}
 460              	.L25:
 461              	.LBB51:
 462              		.loc 1 270 0
 463 0084 40F20001 		movw	r1, #:lower16:.LC23
 464 0088 2846     		mov	r0, r5
 465 008a C0F20001 		movt	r1, #:upper16:.LC23
 466 008e FFF7FEFF 		bl	chprintf
 467              		.loc 1 271 0
 468 0092 0120     		movs	r0, #1
 469 0094 BDE8F883 		pop	{r3, r4, r5, r6, r7, r8, r9, pc}
 470              	.L27:
 471              		.loc 1 283 0
 472 0098 40F20001 		movw	r1, #:lower16:.LC24
 473 009c 2846     		mov	r0, r5
 474 009e C0F20001 		movt	r1, #:upper16:.LC24
 475 00a2 FFF7FEFF 		bl	chprintf
 476              		.loc 1 284 0
 477 00a6 0020     		movs	r0, #0
 478 00a8 3870     		strb	r0, [r7, #0]
 479              		.loc 1 285 0
 480 00aa BDE8F883 		pop	{r3, r4, r5, r6, r7, r8, r9, pc}
 481              	.LBE51:
 482              		.cfi_endproc
 483              	.LFE71:
 484              		.size	shellGetLine, .-shellGetLine
 485 00ae 00BF     		.section	.text.shell_thread,"ax",%progbits
 486              		.align	2
 487              		.p2align 4,,15
 488              		.thumb
 489              		.thumb_func
 490              		.type	shell_thread, %function
 491              	shell_thread:
 492              	.LFB68:
 493              		.loc 1 150 0
 494              		.cfi_startproc
 495              		@ args = 0, pretend = 0, frame = 96
 496              		@ frame_needed = 0, uses_anonymous_args = 0
 497              	.LVL38:
 498 0000 2DE9F04F 		push	{r4, r5, r6, r7, r8, r9, sl, fp, lr}
 499              	.LCFI6:
 500              		.cfi_def_cfa_offset 36
 501              		.cfi_offset 14, -4
 502              		.cfi_offset 11, -8
 503              		.cfi_offset 10, -12
 504              		.cfi_offset 9, -16
 505              		.cfi_offset 8, -20
 506              		.cfi_offset 7, -24
 507              		.cfi_offset 6, -28
 508              		.cfi_offset 5, -32
 509              		.cfi_offset 4, -36
 510              		.loc 1 158 0
ARM GAS  C:\Users\z80\AppData\Local\Temp\cc7vCSVh.s 			page 10


 511 0004 40F20001 		movw	r1, #:lower16:rlist
 512 0008 C0F20001 		movt	r1, #:upper16:rlist
 513              		.loc 1 153 0
 514 000c 0468     		ldr	r4, [r0, #0]
 515              	.LVL39:
 516              		.loc 1 158 0
 517 000e CA69     		ldr	r2, [r1, #28]
 518 0010 40F20003 		movw	r3, #:lower16:.LC25
 519 0014 C0F20003 		movt	r3, #:upper16:.LC25
 520              		.loc 1 159 0
 521 0018 40F20001 		movw	r1, #:lower16:.LC26
 522              		.loc 1 154 0
 523 001c 4768     		ldr	r7, [r0, #4]
 524              	.LVL40:
 525              		.loc 1 150 0
 526 001e 99B0     		sub	sp, sp, #100
 527              	.LCFI7:
 528              		.cfi_def_cfa_offset 136
 529              		.loc 1 159 0
 530 0020 2046     		mov	r0, r4
 531              	.LVL41:
 532              		.loc 1 158 0
 533 0022 9361     		str	r3, [r2, #24]
 534              		.loc 1 159 0
 535 0024 C0F20001 		movt	r1, #:upper16:.LC26
 536 0028 FFF7FEFF 		bl	chprintf
 537              	.LVL42:
 538              	.LBB52:
 539              	.LBB53:
 540              		.loc 1 72 0
 541 002c 40F20005 		movw	r5, #:lower16:.LANCHOR2
 542 0030 C0F20005 		movt	r5, #:upper16:.LANCHOR2
 543 0034 05F10808 		add	r8, r5, #8
 544              	.LBE53:
 545              	.LBE52:
 546              	.LBB55:
 547              	.LBB56:
 548              		.loc 1 150 0
 549 0038 4646     		mov	r6, r8
 550              	.L61:
 551              	.LBE56:
 552              	.LBE55:
 553              		.loc 1 161 0
 554 003a 40F20001 		movw	r1, #:lower16:.LC27
 555 003e 2046     		mov	r0, r4
 556 0040 C0F20001 		movt	r1, #:upper16:.LC27
 557 0044 FFF7FEFF 		bl	chprintf
 558              		.loc 1 162 0
 559 0048 2046     		mov	r0, r4
 560 004a 02A9     		add	r1, sp, #8
 561 004c 4022     		movs	r2, #64
 562 004e FFF7FEFF 		bl	shellGetLine
 563 0052 8346     		mov	fp, r0
 564 0054 0028     		cmp	r0, #0
 565 0056 34D1     		bne	.L63
 566              		.loc 1 166 0
 567 0058 17A9     		add	r1, sp, #92
ARM GAS  C:\Users\z80\AppData\Local\Temp\cc7vCSVh.s 			page 11


 568 005a 02A8     		add	r0, sp, #8
 569 005c FFF7FEFF 		bl	_strtok.constprop.2
 570              		.loc 1 169 0
 571 0060 17A9     		add	r1, sp, #92
 572              		.loc 1 166 0
 573 0062 8246     		mov	sl, r0
 574              	.LVL43:
 575              		.loc 1 169 0
 576 0064 5846     		mov	r0, fp
 577              	.LVL44:
 578 0066 FFF7FEFF 		bl	_strtok.constprop.2
 579              	.LVL45:
 580 006a 0346     		mov	r3, r0
 581 006c 0028     		cmp	r0, #0
 582 006e 42D0     		beq	.L50
 583 0070 5846     		mov	r0, fp
 584              	.LVL46:
 585 0072 17A9     		add	r1, sp, #92
 586              		.loc 1 175 0
 587 0074 1293     		str	r3, [sp, #72]
 588              	.LVL47:
 589              		.loc 1 169 0
 590 0076 FFF7FEFF 		bl	_strtok.constprop.2
 591              	.LVL48:
 592 007a 0346     		mov	r3, r0
 593 007c 0028     		cmp	r0, #0
 594 007e 7FD0     		beq	.L51
 595 0080 5846     		mov	r0, fp
 596              	.LVL49:
 597 0082 17A9     		add	r1, sp, #92
 598              		.loc 1 175 0
 599 0084 1393     		str	r3, [sp, #76]
 600              	.LVL50:
 601              		.loc 1 169 0
 602 0086 FFF7FEFF 		bl	_strtok.constprop.2
 603              	.LVL51:
 604 008a 0346     		mov	r3, r0
 605 008c 0028     		cmp	r0, #0
 606 008e 7AD0     		beq	.L52
 607 0090 5846     		mov	r0, fp
 608              	.LVL52:
 609 0092 17A9     		add	r1, sp, #92
 610              		.loc 1 175 0
 611 0094 1493     		str	r3, [sp, #80]
 612              	.LVL53:
 613              		.loc 1 169 0
 614 0096 FFF7FEFF 		bl	_strtok.constprop.2
 615              	.LVL54:
 616 009a 0346     		mov	r3, r0
 617 009c 0028     		cmp	r0, #0
 618 009e 75D0     		beq	.L53
 619 00a0 5846     		mov	r0, fp
 620              	.LVL55:
 621 00a2 17A9     		add	r1, sp, #92
 622              		.loc 1 175 0
 623 00a4 1593     		str	r3, [sp, #84]
 624              	.LVL56:
ARM GAS  C:\Users\z80\AppData\Local\Temp\cc7vCSVh.s 			page 12


 625              		.loc 1 169 0
 626 00a6 FFF7FEFF 		bl	_strtok.constprop.2
 627              	.LVL57:
 628 00aa 0028     		cmp	r0, #0
 629 00ac 71D0     		beq	.L54
 630              		.loc 1 171 0
 631 00ae 40F20001 		movw	r1, #:lower16:.LC29
 632 00b2 2046     		mov	r0, r4
 633              	.LVL58:
 634 00b4 C0F20001 		movt	r1, #:upper16:.LC29
 635 00b8 FFF7FEFF 		bl	chprintf
 636              	.LVL59:
 637              		.loc 1 177 0
 638 00bc CDF858B0 		str	fp, [sp, #88]
 639 00c0 BBE7     		b	.L61
 640              	.LVL60:
 641              	.L63:
 642              		.loc 1 163 0
 643 00c2 40F20001 		movw	r1, #:lower16:.LC28
 644 00c6 2046     		mov	r0, r4
 645 00c8 C0F20001 		movt	r1, #:upper16:.LC28
 646 00cc FFF7FEFF 		bl	chprintf
 647              	.L32:
 648              	.LBB58:
 649              		.loc 1 206 0
 650 00d0 2023     		movs	r3, #32
 651              	.LVL61:
 652              	@ 206 "../chibios_2.4.x/os/various/shell.c" 1
 653 00d2 83F31188 		msr     BASEPRI, r3
 654              	@ 0 "" 2
 655              	.LVL62:
 656              		.thumb
 657              	.LBE58:
 658 00d6 FFF7FEFF 		bl	dbg_check_lock
 659              	.LVL63:
 660              		.loc 1 207 0
 661 00da 40F20000 		movw	r0, #:lower16:.LANCHOR1
 662 00de 0021     		movs	r1, #0
 663 00e0 C0F20000 		movt	r0, #:upper16:.LANCHOR1
 664 00e4 FFF7FEFF 		bl	chEvtBroadcastFlagsI
 665              		.loc 1 208 0
 666 00e8 0020     		movs	r0, #0
 667 00ea FFF7FEFF 		bl	chThdExitS
 668              		.loc 1 210 0
 669 00ee 0020     		movs	r0, #0
 670 00f0 19B0     		add	sp, sp, #100
 671 00f2 BDE8F08F 		pop	{r4, r5, r6, r7, r8, r9, sl, fp, pc}
 672              	.LVL64:
 673              	.L50:
 674              		.loc 1 168 0
 675 00f6 8146     		mov	r9, r0
 676              	.LVL65:
 677              	.L33:
 678              		.loc 1 177 0
 679 00f8 0DF1600E 		add	lr, sp, #96
 680 00fc 0020     		movs	r0, #0
 681              	.LVL66:
ARM GAS  C:\Users\z80\AppData\Local\Temp\cc7vCSVh.s 			page 13


 682 00fe 0EEB890C 		add	ip, lr, r9, lsl #2
 683 0102 4CF8180C 		str	r0, [ip, #-24]
 684              		.loc 1 178 0
 685 0106 BAF1000F 		cmp	sl, #0
 686 010a 96D0     		beq	.L61
 687              		.loc 1 179 0
 688 010c 40F20001 		movw	r1, #:lower16:.LC30
 689 0110 5046     		mov	r0, sl
 690 0112 C0F20001 		movt	r1, #:upper16:.LC30
 691 0116 FFF7FEFF 		bl	strcasecmp
 692 011a 70B9     		cbnz	r0, .L35
 693              		.loc 1 180 0
 694 011c B9F1000F 		cmp	r9, #0
 695 0120 D6D0     		beq	.L32
 696              	.LVL67:
 697              	.LBB59:
 698              	.LBB60:
 699              		.loc 1 67 0
 700 0122 40F20001 		movw	r1, #:lower16:.LC0
 701 0126 40F20002 		movw	r2, #:lower16:.LC30
 702 012a 2046     		mov	r0, r4
 703 012c C0F20001 		movt	r1, #:upper16:.LC0
 704 0130 C0F20002 		movt	r2, #:upper16:.LC30
 705 0134 FFF7FEFF 		bl	chprintf
 706              	.LBE60:
 707              	.LBE59:
 708              		.loc 1 182 0
 709 0138 7FE7     		b	.L61
 710              	.LVL68:
 711              	.L35:
 712              		.loc 1 186 0
 713 013a 40F20001 		movw	r1, #:lower16:.LC31
 714 013e 5046     		mov	r0, sl
 715 0140 C0F20001 		movt	r1, #:upper16:.LC31
 716 0144 FFF7FEFF 		bl	strcasecmp
 717 0148 30B3     		cbz	r0, .L37
 718              	.LVL69:
 719              	.LBB61:
 720              	.LBB57:
 721              		.loc 1 132 0
 722 014a 2868     		ldr	r0, [r5, #0]
 723 014c 40F2000B 		movw	fp, #:lower16:.LANCHOR2
 724 0150 C0F2000B 		movt	fp, #:upper16:.LANCHOR2
 725 0154 40B9     		cbnz	r0, .L46
 726 0156 2EE0     		b	.L39
 727              	.LVL70:
 728              	.L45:
 729              		.loc 1 134 0
 730 0158 0BF1080B 		add	fp, fp, #8
 731              	.LVL71:
 732              		.loc 1 150 0
 733 015c C5EB0B02 		rsb	r2, r5, fp
 734 0160 B018     		adds	r0, r6, r2
 735              		.loc 1 132 0
 736 0162 50F8080C 		ldr	r0, [r0, #-8]
 737 0166 30B3     		cbz	r0, .L39
 738              	.LVL72:
ARM GAS  C:\Users\z80\AppData\Local\Temp\cc7vCSVh.s 			page 14


 739              	.L46:
 740              		.loc 1 133 0
 741 0168 5146     		mov	r1, sl
 742 016a FFF7FEFF 		bl	strcasecmp
 743              	.LVL73:
 744 016e 0028     		cmp	r0, #0
 745 0170 F2D1     		bne	.L45
 746              	.LVL74:
 747              	.L62:
 748              	.LBE57:
 749              	.LBE61:
 750              	.LBB62:
 751              	.LBB63:
 752              		.loc 1 134 0
 753 0172 DBF80430 		ldr	r3, [fp, #4]
 754 0176 2046     		mov	r0, r4
 755 0178 4946     		mov	r1, r9
 756 017a 12AA     		add	r2, sp, #72
 757 017c 9847     		blx	r3
 758 017e 5CE7     		b	.L61
 759              	.LVL75:
 760              	.L51:
 761              	.LBE63:
 762              	.LBE62:
 763              		.loc 1 175 0
 764 0180 4FF00109 		mov	r9, #1
 765 0184 B8E7     		b	.L33
 766              	.LVL76:
 767              	.L52:
 768 0186 4FF00209 		mov	r9, #2
 769 018a B5E7     		b	.L33
 770              	.LVL77:
 771              	.L53:
 772 018c 4FF00309 		mov	r9, #3
 773 0190 B2E7     		b	.L33
 774              	.LVL78:
 775              	.L54:
 776              		.loc 1 169 0
 777 0192 4FF00409 		mov	r9, #4
 778 0196 AFE7     		b	.L33
 779              	.LVL79:
 780              	.L37:
 781              		.loc 1 187 0
 782 0198 B9F1000F 		cmp	r9, #0
 783 019c 26D0     		beq	.L40
 784              	.LVL80:
 785              	.LBB65:
 786              	.LBB66:
 787              		.loc 1 67 0
 788 019e 40F20001 		movw	r1, #:lower16:.LC0
 789 01a2 40F20002 		movw	r2, #:lower16:.LC31
 790 01a6 2046     		mov	r0, r4
 791 01a8 C0F20001 		movt	r1, #:upper16:.LC0
 792 01ac C0F20002 		movt	r2, #:upper16:.LC31
 793 01b0 FFF7FEFF 		bl	chprintf
 794              	.LBE66:
 795              	.LBE65:
ARM GAS  C:\Users\z80\AppData\Local\Temp\cc7vCSVh.s 			page 15


 796              		.loc 1 189 0
 797 01b4 41E7     		b	.L61
 798              	.LVL81:
 799              	.L39:
 800              		.loc 1 197 0
 801 01b6 002F     		cmp	r7, #0
 802 01b8 55D0     		beq	.L49
 803              	.LVL82:
 804              	.LBB67:
 805              	.LBB64:
 806              		.loc 1 132 0
 807 01ba 3868     		ldr	r0, [r7, #0]
 808 01bc 0028     		cmp	r0, #0
 809 01be 52D0     		beq	.L49
 810              		.loc 1 150 0
 811 01c0 07F10802 		add	r2, r7, #8
 812              		.loc 1 132 0
 813 01c4 BB46     		mov	fp, r7
 814              		.loc 1 150 0
 815 01c6 0192     		str	r2, [sp, #4]
 816 01c8 0AE0     		b	.L48
 817              	.LVL83:
 818              	.L47:
 819 01ca 0198     		ldr	r0, [sp, #4]
 820              		.loc 1 134 0
 821 01cc 0BF1080B 		add	fp, fp, #8
 822              	.LVL84:
 823              		.loc 1 150 0
 824 01d0 C7EB0B01 		rsb	r1, r7, fp
 825 01d4 00EB010C 		add	ip, r0, r1
 826              		.loc 1 132 0
 827 01d8 5CF8080C 		ldr	r0, [ip, #-8]
 828 01dc 0028     		cmp	r0, #0
 829 01de 42D0     		beq	.L49
 830              	.LVL85:
 831              	.L48:
 832              		.loc 1 133 0
 833 01e0 5146     		mov	r1, sl
 834 01e2 FFF7FEFF 		bl	strcasecmp
 835              	.LVL86:
 836 01e6 0028     		cmp	r0, #0
 837 01e8 EFD1     		bne	.L47
 838 01ea C2E7     		b	.L62
 839              	.LVL87:
 840              	.L40:
 841              	.LBE64:
 842              	.LBE67:
 843              		.loc 1 191 0
 844 01ec 40F20001 		movw	r1, #:lower16:.LC32
 845 01f0 2046     		mov	r0, r4
 846 01f2 C0F20001 		movt	r1, #:upper16:.LC32
 847 01f6 FFF7FEFF 		bl	chprintf
 848              	.LVL88:
 849              	.LBB68:
 850              	.LBB54:
 851              		.loc 1 72 0
 852 01fa 2A68     		ldr	r2, [r5, #0]
ARM GAS  C:\Users\z80\AppData\Local\Temp\cc7vCSVh.s 			page 16


 853 01fc A2B1     		cbz	r2, .L41
 854 01fe 40F20009 		movw	r9, #:lower16:.LANCHOR2
 855 0202 C0F20009 		movt	r9, #:upper16:.LANCHOR2
 856              	.LVL89:
 857              	.L42:
 858              		.loc 1 73 0
 859 0206 40F20001 		movw	r1, #:lower16:.LC33
 860 020a 2046     		mov	r0, r4
 861 020c C0F20001 		movt	r1, #:upper16:.LC33
 862 0210 09F10809 		add	r9, r9, #8
 863 0214 FFF7FEFF 		bl	chprintf
 864              		.loc 1 150 0
 865 0218 C5EB0902 		rsb	r2, r5, r9
 866 021c 08EB020B 		add	fp, r8, r2
 867              		.loc 1 72 0
 868 0220 5BF8082C 		ldr	r2, [fp, #-8]
 869 0224 002A     		cmp	r2, #0
 870 0226 EED1     		bne	.L42
 871              	.L41:
 872              	.LBE54:
 873              	.LBE68:
 874              		.loc 1 193 0
 875 0228 AFB1     		cbz	r7, .L43
 876              	.LVL90:
 877              	.LBB69:
 878              	.LBB70:
 879              		.loc 1 72 0
 880 022a 3A68     		ldr	r2, [r7, #0]
 881 022c 9AB1     		cbz	r2, .L43
 882 022e B946     		mov	r9, r7
 883 0230 07F1080A 		add	sl, r7, #8
 884              	.LVL91:
 885              	.L44:
 886              		.loc 1 73 0
 887 0234 40F20001 		movw	r1, #:lower16:.LC33
 888 0238 C0F20001 		movt	r1, #:upper16:.LC33
 889 023c 2046     		mov	r0, r4
 890 023e 09F10809 		add	r9, r9, #8
 891 0242 FFF7FEFF 		bl	chprintf
 892              		.loc 1 150 0
 893 0246 C7EB0901 		rsb	r1, r7, r9
 894 024a 0AEB0103 		add	r3, sl, r1
 895              		.loc 1 72 0
 896 024e 53F8082C 		ldr	r2, [r3, #-8]
 897 0252 002A     		cmp	r2, #0
 898 0254 EED1     		bne	.L44
 899              	.L43:
 900              	.LBE70:
 901              	.LBE69:
 902              		.loc 1 195 0
 903 0256 40F20001 		movw	r1, #:lower16:.LC24
 904 025a 2046     		mov	r0, r4
 905 025c C0F20001 		movt	r1, #:upper16:.LC24
 906 0260 FFF7FEFF 		bl	chprintf
 907 0264 E9E6     		b	.L61
 908              	.LVL92:
 909              	.L49:
ARM GAS  C:\Users\z80\AppData\Local\Temp\cc7vCSVh.s 			page 17


 910              		.loc 1 199 0
 911 0266 40F20001 		movw	r1, #:lower16:.LC34
 912 026a 2046     		mov	r0, r4
 913 026c C0F20001 		movt	r1, #:upper16:.LC34
 914 0270 5246     		mov	r2, sl
 915 0272 FFF7FEFF 		bl	chprintf
 916              		.loc 1 200 0
 917 0276 40F20001 		movw	r1, #:lower16:.LC35
 918 027a 2046     		mov	r0, r4
 919 027c C0F20001 		movt	r1, #:upper16:.LC35
 920 0280 FFF7FEFF 		bl	chprintf
 921 0284 D9E6     		b	.L61
 922              		.cfi_endproc
 923              	.LFE68:
 924              		.size	shell_thread, .-shell_thread
 925              		.global	shell_terminated
 926 0286 00BFAFF3 		.section	.rodata
 926      0080AFF3 
 926      0080
 927              		.align	2
 928              		.set	.LANCHOR0,. + 0
 929              	.LC22:
 930 0000 20003900 		.ascii	" \0009\000"
 931              		.section	.data.local_commands,"aw",%progbits
 932              		.align	2
 933              		.set	.LANCHOR2,. + 0
 934              		.type	local_commands, %object
 935              		.size	local_commands, 24
 936              	local_commands:
 937 0000 1C000000 		.word	.LC3
 938 0004 00000000 		.word	cmd_info
 939 0008 0C000000 		.word	.LC1
 940 000c 00000000 		.word	cmd_systime
 941 0010 00000000 		.word	0
 942 0014 00000000 		.word	0
 943              		.section	.rodata.str1.4,"aMS",%progbits,1
 944              		.align	2
 945              	.LC0:
 946 0000 55736167 		.ascii	"Usage: %s\015\012\000"
 946      653A2025 
 946      730D0A00 
 947              	.LC1:
 948 000c 73797374 		.ascii	"systime\000"
 948      696D6500 
 949              	.LC2:
 950 0014 256C750D 		.ascii	"%lu\015\012\000"
 950      0A00
 951 001a 0000     		.space	2
 952              	.LC3:
 953 001c 696E666F 		.ascii	"info\000"
 953      00
 954 0021 000000   		.space	3
 955              	.LC4:
 956 0024 4B65726E 		.ascii	"Kernel:       %s\015\012\000"
 956      656C3A20 
 956      20202020 
 956      20202573 
ARM GAS  C:\Users\z80\AppData\Local\Temp\cc7vCSVh.s 			page 18


 956      0D0A00
 957 0037 00       		.space	1
 958              	.LC5:
 959 0038 322E342E 		.ascii	"2.4.3\000"
 959      3300
 960 003e 0000     		.space	2
 961              	.LC6:
 962 0040 436F6D70 		.ascii	"Compiler:     %s\015\012\000"
 962      696C6572 
 962      3A202020 
 962      20202573 
 962      0D0A00
 963 0053 00       		.space	1
 964              	.LC7:
 965 0054 47434320 		.ascii	"GCC 4.6.3\000"
 965      342E362E 
 965      3300
 966 005e 0000     		.space	2
 967              	.LC8:
 968 0060 41726368 		.ascii	"Architecture: %s\015\012\000"
 968      69746563 
 968      74757265 
 968      3A202573 
 968      0D0A00
 969 0073 00       		.space	1
 970              	.LC9:
 971 0074 41524D76 		.ascii	"ARMv7-M\000"
 971      372D4D00 
 972              	.LC10:
 973 007c 436F7265 		.ascii	"Core Variant: %s\015\012\000"
 973      20566172 
 973      69616E74 
 973      3A202573 
 973      0D0A00
 974 008f 00       		.space	1
 975              	.LC11:
 976 0090 436F7274 		.ascii	"Cortex-M3\000"
 976      65782D4D 
 976      3300
 977 009a 0000     		.space	2
 978              	.LC12:
 979 009c 506F7274 		.ascii	"Port Info:    %s\015\012\000"
 979      20496E66 
 979      6F3A2020 
 979      20202573 
 979      0D0A00
 980 00af 00       		.space	1
 981              	.LC13:
 982 00b0 41647661 		.ascii	"Advanced kernel mode\000"
 982      6E636564 
 982      206B6572 
 982      6E656C20 
 982      6D6F6465 
 983 00c5 000000   		.space	3
 984              	.LC14:
 985 00c8 506C6174 		.ascii	"Platform:     %s\015\012\000"
 985      666F726D 
ARM GAS  C:\Users\z80\AppData\Local\Temp\cc7vCSVh.s 			page 19


 985      3A202020 
 985      20202573 
 985      0D0A00
 986 00db 00       		.space	1
 987              	.LC15:
 988 00dc 53544D33 		.ascii	"STM32F1 Performance Line Medium Density\000"
 988      32463120 
 988      50657266 
 988      6F726D61 
 988      6E636520 
 989              	.LC16:
 990 0104 426F6172 		.ascii	"Board:        %s\015\012\000"
 990      643A2020 
 990      20202020 
 990      20202573 
 990      0D0A00
 991 0117 00       		.space	1
 992              	.LC17:
 993 0118 6D792063 		.ascii	"my ctrl-board\000"
 993      74726C2D 
 993      626F6172 
 993      6400
 994 0126 0000     		.space	2
 995              	.LC18:
 996 0128 4275696C 		.ascii	"Build time:   %s%s%s\015\012\000"
 996      64207469 
 996      6D653A20 
 996      20202573 
 996      25732573 
 997 013f 00       		.space	1
 998              	.LC19:
 999 0140 41756720 		.ascii	"Aug 19 2015\000"
 999      31392032 
 999      30313500 
 1000              	.LC20:
 1001 014c 202D2000 		.ascii	" - \000"
 1002              	.LC21:
 1003 0150 31363A31 		.ascii	"16:10:30\000"
 1003      303A3330 
 1003      00
 1004 0159 000000   		.space	3
 1005              	.LC23:
 1006 015c 5E4400   		.ascii	"^D\000"
 1007 015f 00       		.space	1
 1008              	.LC24:
 1009 0160 0D0A00   		.ascii	"\015\012\000"
 1010 0163 00       		.space	1
 1011              	.LC25:
 1012 0164 7368656C 		.ascii	"shell\000"
 1012      6C00
 1013 016a 0000     		.space	2
 1014              	.LC26:
 1015 016c 0D0A4368 		.ascii	"\015\012ChibiOS/RT Shell\015\012\000"
 1015      6962694F 
 1015      532F5254 
 1015      20536865 
 1015      6C6C0D0A 
ARM GAS  C:\Users\z80\AppData\Local\Temp\cc7vCSVh.s 			page 20


 1016 0181 000000   		.space	3
 1017              	.LC27:
 1018 0184 63683E20 		.ascii	"ch> \000"
 1018      00
 1019 0189 000000   		.space	3
 1020              	.LC28:
 1021 018c 0D0A6C6F 		.ascii	"\015\012logout\000"
 1021      676F7574 
 1021      00
 1022 0195 000000   		.space	3
 1023              	.LC29:
 1024 0198 746F6F20 		.ascii	"too many arguments\015\012\000"
 1024      6D616E79 
 1024      20617267 
 1024      756D656E 
 1024      74730D0A 
 1025 01ad 000000   		.space	3
 1026              	.LC30:
 1027 01b0 65786974 		.ascii	"exit\000"
 1027      00
 1028 01b5 000000   		.space	3
 1029              	.LC31:
 1030 01b8 68656C70 		.ascii	"help\000"
 1030      00
 1031 01bd 000000   		.space	3
 1032              	.LC32:
 1033 01c0 436F6D6D 		.ascii	"Commands: help exit \000"
 1033      616E6473 
 1033      3A206865 
 1033      6C702065 
 1033      78697420 
 1034 01d5 000000   		.space	3
 1035              	.LC33:
 1036 01d8 25732000 		.ascii	"%s \000"
 1037              	.LC34:
 1038 01dc 257300   		.ascii	"%s\000"
 1039 01df 00       		.space	1
 1040              	.LC35:
 1041 01e0 203F0D0A 		.ascii	" ?\015\012\000"
 1041      00
 1042 01e5 000000   		.section	.bss.shell_terminated,"aw",%nobits
 1043              		.align	2
 1044              		.set	.LANCHOR1,. + 0
 1045              		.type	shell_terminated, %object
 1046              		.size	shell_terminated, 4
 1047              	shell_terminated:
 1048 0000 00000000 		.space	4
 1049              		.text
 1050              	.Letext0:
 1051              		.file 2 "c:\\programs\\codesourcery\\2011.03-56\\bin\\../lib/gcc/arm-none-eabi/4.6.3/include/stdde
 1052              		.file 3 "c:\\programs\\codesourcery\\2011.03-56\\bin\\../lib/gcc/arm-none-eabi/4.6.3/../../../../a
 1053              		.file 4 "../chibios_2.4.x/os/ports/GCC/ARMCMx/chtypes.h"
 1054              		.file 5 "../chibios_2.4.x/os/kernel/include/chlists.h"
 1055              		.file 6 "../chibios_2.4.x/os/kernel/include/chthreads.h"
 1056              		.file 7 "../chibios_2.4.x/os/ports/GCC/ARMCMx/chcore_v7m.h"
 1057              		.file 8 "../chibios_2.4.x/os/kernel/include/chvt.h"
 1058              		.file 9 "../chibios_2.4.x/os/kernel/include/chschd.h"
ARM GAS  C:\Users\z80\AppData\Local\Temp\cc7vCSVh.s 			page 21


 1059              		.file 10 "../chibios_2.4.x/os/kernel/include/chmtx.h"
 1060              		.file 11 "../chibios_2.4.x/os/kernel/include/chevents.h"
 1061              		.file 12 "../chibios_2.4.x/os/kernel/include/chioch.h"
 1062              		.file 13 "../chibios_2.4.x/os/various/shell.h"
 1063              		.file 14 "../chibios_2.4.x/os/ports/common/ARMCMx/CMSIS/include/core_cm3.h"
 1064              		.section	.debug_info,"",%progbits
 1065              	.Ldebug_info0:
 1066 0000 390D0000 		.4byte	0xd39
 1067 0004 0200     		.2byte	0x2
 1068 0006 00000000 		.4byte	.Ldebug_abbrev0
 1069 000a 04       		.byte	0x4
 1070 000b 01       		.uleb128 0x1
 1071 000c 55030000 		.4byte	.LASF116
 1072 0010 01       		.byte	0x1
 1073 0011 D0010000 		.4byte	.LASF117
 1074 0015 A7000000 		.4byte	.LASF118
 1075 0019 00000000 		.4byte	0
 1076 001d 00000000 		.4byte	0
 1077 0021 C8000000 		.4byte	.Ldebug_ranges0+0xc8
 1078 0025 00000000 		.4byte	.Ldebug_line0
 1079 0029 02       		.uleb128 0x2
 1080 002a 01       		.byte	0x1
 1081 002b 06       		.byte	0x6
 1082 002c 81000000 		.4byte	.LASF0
 1083 0030 02       		.uleb128 0x2
 1084 0031 01       		.byte	0x1
 1085 0032 08       		.byte	0x8
 1086 0033 C6020000 		.4byte	.LASF1
 1087 0037 02       		.uleb128 0x2
 1088 0038 02       		.byte	0x2
 1089 0039 05       		.byte	0x5
 1090 003a EA020000 		.4byte	.LASF2
 1091 003e 02       		.uleb128 0x2
 1092 003f 02       		.byte	0x2
 1093 0040 07       		.byte	0x7
 1094 0041 A8010000 		.4byte	.LASF3
 1095 0045 03       		.uleb128 0x3
 1096 0046 04       		.byte	0x4
 1097 0047 05       		.byte	0x5
 1098 0048 696E7400 		.ascii	"int\000"
 1099 004c 02       		.uleb128 0x2
 1100 004d 04       		.byte	0x4
 1101 004e 07       		.byte	0x7
 1102 004f 65010000 		.4byte	.LASF4
 1103 0053 02       		.uleb128 0x2
 1104 0054 08       		.byte	0x8
 1105 0055 05       		.byte	0x5
 1106 0056 73000000 		.4byte	.LASF5
 1107 005a 02       		.uleb128 0x2
 1108 005b 08       		.byte	0x8
 1109 005c 07       		.byte	0x7
 1110 005d 21000000 		.4byte	.LASF6
 1111 0061 02       		.uleb128 0x2
 1112 0062 04       		.byte	0x4
 1113 0063 05       		.byte	0x5
 1114 0064 D4000000 		.4byte	.LASF7
 1115 0068 04       		.uleb128 0x4
ARM GAS  C:\Users\z80\AppData\Local\Temp\cc7vCSVh.s 			page 22


 1116 0069 04       		.byte	0x4
 1117 006a 02       		.uleb128 0x2
 1118 006b 04       		.byte	0x4
 1119 006c 07       		.byte	0x7
 1120 006d 61030000 		.4byte	.LASF8
 1121 0071 05       		.uleb128 0x5
 1122 0072 04       		.byte	0x4
 1123 0073 77000000 		.4byte	0x77
 1124 0077 02       		.uleb128 0x2
 1125 0078 01       		.byte	0x1
 1126 0079 08       		.byte	0x8
 1127 007a 82030000 		.4byte	.LASF9
 1128 007e 05       		.uleb128 0x5
 1129 007f 04       		.byte	0x4
 1130 0080 84000000 		.4byte	0x84
 1131 0084 06       		.uleb128 0x6
 1132 0085 77000000 		.4byte	0x77
 1133 0089 07       		.uleb128 0x7
 1134 008a 00000000 		.4byte	.LASF10
 1135 008e 02       		.byte	0x2
 1136 008f D4       		.byte	0xd4
 1137 0090 4C000000 		.4byte	0x4c
 1138 0094 07       		.uleb128 0x7
 1139 0095 34040000 		.4byte	.LASF11
 1140 0099 03       		.byte	0x3
 1141 009a 2A       		.byte	0x2a
 1142 009b 30000000 		.4byte	0x30
 1143 009f 07       		.uleb128 0x7
 1144 00a0 BE020000 		.4byte	.LASF12
 1145 00a4 03       		.byte	0x3
 1146 00a5 4F       		.byte	0x4f
 1147 00a6 61000000 		.4byte	0x61
 1148 00aa 07       		.uleb128 0x7
 1149 00ab 39030000 		.4byte	.LASF13
 1150 00af 03       		.byte	0x3
 1151 00b0 50       		.byte	0x50
 1152 00b1 6A000000 		.4byte	0x6a
 1153 00b5 07       		.uleb128 0x7
 1154 00b6 07000000 		.4byte	.LASF14
 1155 00ba 03       		.byte	0x3
 1156 00bb 78       		.byte	0x78
 1157 00bc 5A000000 		.4byte	0x5a
 1158 00c0 07       		.uleb128 0x7
 1159 00c1 8D000000 		.4byte	.LASF15
 1160 00c5 04       		.byte	0x4
 1161 00c6 2E       		.byte	0x2e
 1162 00c7 9F000000 		.4byte	0x9f
 1163 00cb 07       		.uleb128 0x7
 1164 00cc F4010000 		.4byte	.LASF16
 1165 00d0 04       		.byte	0x4
 1166 00d1 2F       		.byte	0x2f
 1167 00d2 94000000 		.4byte	0x94
 1168 00d6 07       		.uleb128 0x7
 1169 00d7 EA000000 		.4byte	.LASF17
 1170 00db 04       		.byte	0x4
 1171 00dc 30       		.byte	0x30
 1172 00dd 94000000 		.4byte	0x94
ARM GAS  C:\Users\z80\AppData\Local\Temp\cc7vCSVh.s 			page 23


 1173 00e1 07       		.uleb128 0x7
 1174 00e2 AE020000 		.4byte	.LASF18
 1175 00e6 04       		.byte	0x4
 1176 00e7 32       		.byte	0x32
 1177 00e8 AA000000 		.4byte	0xaa
 1178 00ec 07       		.uleb128 0x7
 1179 00ed BB010000 		.4byte	.LASF19
 1180 00f1 04       		.byte	0x4
 1181 00f2 33       		.byte	0x33
 1182 00f3 9F000000 		.4byte	0x9f
 1183 00f7 07       		.uleb128 0x7
 1184 00f8 08020000 		.4byte	.LASF20
 1185 00fc 04       		.byte	0x4
 1186 00fd 35       		.byte	0x35
 1187 00fe AA000000 		.4byte	0xaa
 1188 0102 07       		.uleb128 0x7
 1189 0103 A9030000 		.4byte	.LASF21
 1190 0107 04       		.byte	0x4
 1191 0108 36       		.byte	0x36
 1192 0109 AA000000 		.4byte	0xaa
 1193 010d 07       		.uleb128 0x7
 1194 010e 54010000 		.4byte	.LASF22
 1195 0112 04       		.byte	0x4
 1196 0113 37       		.byte	0x37
 1197 0114 9F000000 		.4byte	0x9f
 1198 0118 07       		.uleb128 0x7
 1199 0119 27030000 		.4byte	.LASF23
 1200 011d 05       		.byte	0x5
 1201 011e 2A       		.byte	0x2a
 1202 011f 23010000 		.4byte	0x123
 1203 0123 08       		.uleb128 0x8
 1204 0124 27030000 		.4byte	.LASF23
 1205 0128 48       		.byte	0x48
 1206 0129 06       		.byte	0x6
 1207 012a 5E       		.byte	0x5e
 1208 012b 2C020000 		.4byte	0x22c
 1209 012f 09       		.uleb128 0x9
 1210 0130 12030000 		.4byte	.LASF24
 1211 0134 06       		.byte	0x6
 1212 0135 5F       		.byte	0x5f
 1213 0136 51020000 		.4byte	0x251
 1214 013a 02       		.byte	0x2
 1215 013b 23       		.byte	0x23
 1216 013c 00       		.uleb128 0
 1217 013d 09       		.uleb128 0x9
 1218 013e A7020000 		.4byte	.LASF25
 1219 0142 06       		.byte	0x6
 1220 0143 61       		.byte	0x61
 1221 0144 51020000 		.4byte	0x251
 1222 0148 02       		.byte	0x2
 1223 0149 23       		.byte	0x23
 1224 014a 04       		.uleb128 0x4
 1225 014b 09       		.uleb128 0x9
 1226 014c 66000000 		.4byte	.LASF26
 1227 0150 06       		.byte	0x6
 1228 0151 63       		.byte	0x63
 1229 0152 E1000000 		.4byte	0xe1
ARM GAS  C:\Users\z80\AppData\Local\Temp\cc7vCSVh.s 			page 24


 1230 0156 02       		.byte	0x2
 1231 0157 23       		.byte	0x23
 1232 0158 08       		.uleb128 0x8
 1233 0159 09       		.uleb128 0x9
 1234 015a A3040000 		.4byte	.LASF27
 1235 015e 06       		.byte	0x6
 1236 015f 64       		.byte	0x64
 1237 0160 27030000 		.4byte	0x327
 1238 0164 02       		.byte	0x2
 1239 0165 23       		.byte	0x23
 1240 0166 0C       		.uleb128 0xc
 1241 0167 09       		.uleb128 0x9
 1242 0168 FF000000 		.4byte	.LASF28
 1243 016c 06       		.byte	0x6
 1244 016d 66       		.byte	0x66
 1245 016e 51020000 		.4byte	0x251
 1246 0172 02       		.byte	0x2
 1247 0173 23       		.byte	0x23
 1248 0174 10       		.uleb128 0x10
 1249 0175 09       		.uleb128 0x9
 1250 0176 50020000 		.4byte	.LASF29
 1251 017a 06       		.byte	0x6
 1252 017b 67       		.byte	0x67
 1253 017c 51020000 		.4byte	0x251
 1254 0180 02       		.byte	0x2
 1255 0181 23       		.byte	0x23
 1256 0182 14       		.uleb128 0x14
 1257 0183 09       		.uleb128 0x9
 1258 0184 DD030000 		.4byte	.LASF30
 1259 0188 06       		.byte	0x6
 1260 0189 6E       		.byte	0x6e
 1261 018a 7E000000 		.4byte	0x7e
 1262 018e 02       		.byte	0x2
 1263 018f 23       		.byte	0x23
 1264 0190 18       		.uleb128 0x18
 1265 0191 09       		.uleb128 0x9
 1266 0192 5A010000 		.4byte	.LASF31
 1267 0196 06       		.byte	0x6
 1268 0197 74       		.byte	0x74
 1269 0198 7D050000 		.4byte	0x57d
 1270 019c 02       		.byte	0x2
 1271 019d 23       		.byte	0x23
 1272 019e 1C       		.uleb128 0x1c
 1273 019f 09       		.uleb128 0x9
 1274 01a0 F4020000 		.4byte	.LASF32
 1275 01a4 06       		.byte	0x6
 1276 01a5 79       		.byte	0x79
 1277 01a6 D6000000 		.4byte	0xd6
 1278 01aa 02       		.byte	0x2
 1279 01ab 23       		.byte	0x23
 1280 01ac 20       		.uleb128 0x20
 1281 01ad 09       		.uleb128 0x9
 1282 01ae 1F030000 		.4byte	.LASF33
 1283 01b2 06       		.byte	0x6
 1284 01b3 7D       		.byte	0x7d
 1285 01b4 CB000000 		.4byte	0xcb
 1286 01b8 02       		.byte	0x2
ARM GAS  C:\Users\z80\AppData\Local\Temp\cc7vCSVh.s 			page 25


 1287 01b9 23       		.byte	0x23
 1288 01ba 21       		.uleb128 0x21
 1289 01bb 09       		.uleb128 0x9
 1290 01bc F3000000 		.4byte	.LASF34
 1291 01c0 06       		.byte	0x6
 1292 01c1 89       		.byte	0x89
 1293 01c2 0C040000 		.4byte	0x40c
 1294 01c6 02       		.byte	0x2
 1295 01c7 23       		.byte	0x23
 1296 01c8 24       		.uleb128 0x24
 1297 01c9 0A       		.uleb128 0xa
 1298 01ca 705F7500 		.ascii	"p_u\000"
 1299 01ce 06       		.byte	0x6
 1300 01cf AE       		.byte	0xae
 1301 01d0 48050000 		.4byte	0x548
 1302 01d4 02       		.byte	0x2
 1303 01d5 23       		.byte	0x23
 1304 01d6 28       		.uleb128 0x28
 1305 01d7 09       		.uleb128 0x9
 1306 01d8 2D020000 		.4byte	.LASF35
 1307 01dc 06       		.byte	0x6
 1308 01dd B3       		.byte	0xb3
 1309 01de 79020000 		.4byte	0x279
 1310 01e2 02       		.byte	0x2
 1311 01e3 23       		.byte	0x23
 1312 01e4 2C       		.uleb128 0x2c
 1313 01e5 09       		.uleb128 0x9
 1314 01e6 86010000 		.4byte	.LASF36
 1315 01ea 06       		.byte	0x6
 1316 01eb B9       		.byte	0xb9
 1317 01ec 57020000 		.4byte	0x257
 1318 01f0 02       		.byte	0x2
 1319 01f1 23       		.byte	0x23
 1320 01f2 30       		.uleb128 0x30
 1321 01f3 09       		.uleb128 0x9
 1322 01f4 EC030000 		.4byte	.LASF37
 1323 01f8 06       		.byte	0x6
 1324 01f9 BD       		.byte	0xbd
 1325 01fa EC000000 		.4byte	0xec
 1326 01fe 02       		.byte	0x2
 1327 01ff 23       		.byte	0x23
 1328 0200 38       		.uleb128 0x38
 1329 0201 09       		.uleb128 0x9
 1330 0202 2E030000 		.4byte	.LASF38
 1331 0206 06       		.byte	0x6
 1332 0207 C3       		.byte	0xc3
 1333 0208 F7000000 		.4byte	0xf7
 1334 020c 02       		.byte	0x2
 1335 020d 23       		.byte	0x23
 1336 020e 3C       		.uleb128 0x3c
 1337 020f 09       		.uleb128 0x9
 1338 0210 E0020000 		.4byte	.LASF39
 1339 0214 06       		.byte	0x6
 1340 0215 CA       		.byte	0xca
 1341 0216 83050000 		.4byte	0x583
 1342 021a 02       		.byte	0x2
 1343 021b 23       		.byte	0x23
ARM GAS  C:\Users\z80\AppData\Local\Temp\cc7vCSVh.s 			page 26


 1344 021c 40       		.uleb128 0x40
 1345 021d 09       		.uleb128 0x9
 1346 021e B3030000 		.4byte	.LASF40
 1347 0222 06       		.byte	0x6
 1348 0223 CE       		.byte	0xce
 1349 0224 E1000000 		.4byte	0xe1
 1350 0228 02       		.byte	0x2
 1351 0229 23       		.byte	0x23
 1352 022a 44       		.uleb128 0x44
 1353 022b 00       		.byte	0
 1354 022c 0B       		.uleb128 0xb
 1355 022d 08       		.byte	0x8
 1356 022e 05       		.byte	0x5
 1357 022f 61       		.byte	0x61
 1358 0230 51020000 		.4byte	0x251
 1359 0234 09       		.uleb128 0x9
 1360 0235 12030000 		.4byte	.LASF24
 1361 0239 05       		.byte	0x5
 1362 023a 62       		.byte	0x62
 1363 023b 51020000 		.4byte	0x251
 1364 023f 02       		.byte	0x2
 1365 0240 23       		.byte	0x23
 1366 0241 00       		.uleb128 0
 1367 0242 09       		.uleb128 0x9
 1368 0243 A7020000 		.4byte	.LASF25
 1369 0247 05       		.byte	0x5
 1370 0248 64       		.byte	0x64
 1371 0249 51020000 		.4byte	0x251
 1372 024d 02       		.byte	0x2
 1373 024e 23       		.byte	0x23
 1374 024f 04       		.uleb128 0x4
 1375 0250 00       		.byte	0
 1376 0251 05       		.uleb128 0x5
 1377 0252 04       		.byte	0x4
 1378 0253 18010000 		.4byte	0x118
 1379 0257 07       		.uleb128 0x7
 1380 0258 70020000 		.4byte	.LASF41
 1381 025c 05       		.byte	0x5
 1382 025d 66       		.byte	0x66
 1383 025e 2C020000 		.4byte	0x22c
 1384 0262 0B       		.uleb128 0xb
 1385 0263 04       		.byte	0x4
 1386 0264 05       		.byte	0x5
 1387 0265 6B       		.byte	0x6b
 1388 0266 79020000 		.4byte	0x279
 1389 026a 09       		.uleb128 0x9
 1390 026b 12030000 		.4byte	.LASF24
 1391 026f 05       		.byte	0x5
 1392 0270 6D       		.byte	0x6d
 1393 0271 51020000 		.4byte	0x251
 1394 0275 02       		.byte	0x2
 1395 0276 23       		.byte	0x23
 1396 0277 00       		.uleb128 0
 1397 0278 00       		.byte	0
 1398 0279 07       		.uleb128 0x7
 1399 027a FC010000 		.4byte	.LASF42
 1400 027e 05       		.byte	0x5
ARM GAS  C:\Users\z80\AppData\Local\Temp\cc7vCSVh.s 			page 27


 1401 027f 70       		.byte	0x70
 1402 0280 62020000 		.4byte	0x262
 1403 0284 07       		.uleb128 0x7
 1404 0285 22010000 		.4byte	.LASF43
 1405 0289 07       		.byte	0x7
 1406 028a D7       		.byte	0xd7
 1407 028b 68000000 		.4byte	0x68
 1408 028f 07       		.uleb128 0x7
 1409 0290 14020000 		.4byte	.LASF44
 1410 0294 07       		.byte	0x7
 1411 0295 DD       		.byte	0xdd
 1412 0296 B5000000 		.4byte	0xb5
 1413 029a 08       		.uleb128 0x8
 1414 029b FE030000 		.4byte	.LASF45
 1415 029f 24       		.byte	0x24
 1416 02a0 07       		.byte	0x7
 1417 02a1 FE       		.byte	0xfe
 1418 02a2 27030000 		.4byte	0x327
 1419 02a6 0C       		.uleb128 0xc
 1420 02a7 723400   		.ascii	"r4\000"
 1421 02aa 07       		.byte	0x7
 1422 02ab 1101     		.2byte	0x111
 1423 02ad 84020000 		.4byte	0x284
 1424 02b1 02       		.byte	0x2
 1425 02b2 23       		.byte	0x23
 1426 02b3 00       		.uleb128 0
 1427 02b4 0C       		.uleb128 0xc
 1428 02b5 723500   		.ascii	"r5\000"
 1429 02b8 07       		.byte	0x7
 1430 02b9 1201     		.2byte	0x112
 1431 02bb 84020000 		.4byte	0x284
 1432 02bf 02       		.byte	0x2
 1433 02c0 23       		.byte	0x23
 1434 02c1 04       		.uleb128 0x4
 1435 02c2 0C       		.uleb128 0xc
 1436 02c3 723600   		.ascii	"r6\000"
 1437 02c6 07       		.byte	0x7
 1438 02c7 1301     		.2byte	0x113
 1439 02c9 84020000 		.4byte	0x284
 1440 02cd 02       		.byte	0x2
 1441 02ce 23       		.byte	0x23
 1442 02cf 08       		.uleb128 0x8
 1443 02d0 0C       		.uleb128 0xc
 1444 02d1 723700   		.ascii	"r7\000"
 1445 02d4 07       		.byte	0x7
 1446 02d5 1401     		.2byte	0x114
 1447 02d7 84020000 		.4byte	0x284
 1448 02db 02       		.byte	0x2
 1449 02dc 23       		.byte	0x23
 1450 02dd 0C       		.uleb128 0xc
 1451 02de 0C       		.uleb128 0xc
 1452 02df 723800   		.ascii	"r8\000"
 1453 02e2 07       		.byte	0x7
 1454 02e3 1501     		.2byte	0x115
 1455 02e5 84020000 		.4byte	0x284
 1456 02e9 02       		.byte	0x2
 1457 02ea 23       		.byte	0x23
ARM GAS  C:\Users\z80\AppData\Local\Temp\cc7vCSVh.s 			page 28


 1458 02eb 10       		.uleb128 0x10
 1459 02ec 0C       		.uleb128 0xc
 1460 02ed 723900   		.ascii	"r9\000"
 1461 02f0 07       		.byte	0x7
 1462 02f1 1601     		.2byte	0x116
 1463 02f3 84020000 		.4byte	0x284
 1464 02f7 02       		.byte	0x2
 1465 02f8 23       		.byte	0x23
 1466 02f9 14       		.uleb128 0x14
 1467 02fa 0C       		.uleb128 0xc
 1468 02fb 72313000 		.ascii	"r10\000"
 1469 02ff 07       		.byte	0x7
 1470 0300 1701     		.2byte	0x117
 1471 0302 84020000 		.4byte	0x284
 1472 0306 02       		.byte	0x2
 1473 0307 23       		.byte	0x23
 1474 0308 18       		.uleb128 0x18
 1475 0309 0C       		.uleb128 0xc
 1476 030a 72313100 		.ascii	"r11\000"
 1477 030e 07       		.byte	0x7
 1478 030f 1801     		.2byte	0x118
 1479 0311 84020000 		.4byte	0x284
 1480 0315 02       		.byte	0x2
 1481 0316 23       		.byte	0x23
 1482 0317 1C       		.uleb128 0x1c
 1483 0318 0C       		.uleb128 0xc
 1484 0319 6C7200   		.ascii	"lr\000"
 1485 031c 07       		.byte	0x7
 1486 031d 1901     		.2byte	0x119
 1487 031f 84020000 		.4byte	0x284
 1488 0323 02       		.byte	0x2
 1489 0324 23       		.byte	0x23
 1490 0325 20       		.uleb128 0x20
 1491 0326 00       		.byte	0
 1492 0327 0D       		.uleb128 0xd
 1493 0328 E4030000 		.4byte	.LASF46
 1494 032c 04       		.byte	0x4
 1495 032d 07       		.byte	0x7
 1496 032e 2301     		.2byte	0x123
 1497 0330 44030000 		.4byte	0x344
 1498 0334 0C       		.uleb128 0xc
 1499 0335 72313300 		.ascii	"r13\000"
 1500 0339 07       		.byte	0x7
 1501 033a 2401     		.2byte	0x124
 1502 033c 44030000 		.4byte	0x344
 1503 0340 02       		.byte	0x2
 1504 0341 23       		.byte	0x23
 1505 0342 00       		.uleb128 0
 1506 0343 00       		.byte	0
 1507 0344 05       		.uleb128 0x5
 1508 0345 04       		.byte	0x4
 1509 0346 9A020000 		.4byte	0x29a
 1510 034a 07       		.uleb128 0x7
 1511 034b BE030000 		.4byte	.LASF47
 1512 034f 08       		.byte	0x8
 1513 0350 53       		.byte	0x53
 1514 0351 55030000 		.4byte	0x355
ARM GAS  C:\Users\z80\AppData\Local\Temp\cc7vCSVh.s 			page 29


 1515 0355 05       		.uleb128 0x5
 1516 0356 04       		.byte	0x4
 1517 0357 5B030000 		.4byte	0x35b
 1518 035b 0E       		.uleb128 0xe
 1519 035c 01       		.byte	0x1
 1520 035d 67030000 		.4byte	0x367
 1521 0361 0F       		.uleb128 0xf
 1522 0362 68000000 		.4byte	0x68
 1523 0366 00       		.byte	0
 1524 0367 07       		.uleb128 0x7
 1525 0368 96010000 		.4byte	.LASF48
 1526 036c 08       		.byte	0x8
 1527 036d 58       		.byte	0x58
 1528 036e 72030000 		.4byte	0x372
 1529 0372 08       		.uleb128 0x8
 1530 0373 96010000 		.4byte	.LASF48
 1531 0377 14       		.byte	0x14
 1532 0378 08       		.byte	0x8
 1533 0379 5F       		.byte	0x5f
 1534 037a C5030000 		.4byte	0x3c5
 1535 037e 09       		.uleb128 0x9
 1536 037f 72010000 		.4byte	.LASF49
 1537 0383 08       		.byte	0x8
 1538 0384 60       		.byte	0x60
 1539 0385 C5030000 		.4byte	0x3c5
 1540 0389 02       		.byte	0x2
 1541 038a 23       		.byte	0x23
 1542 038b 00       		.uleb128 0
 1543 038c 09       		.uleb128 0x9
 1544 038d 2B010000 		.4byte	.LASF50
 1545 0391 08       		.byte	0x8
 1546 0392 62       		.byte	0x62
 1547 0393 C5030000 		.4byte	0x3c5
 1548 0397 02       		.byte	0x2
 1549 0398 23       		.byte	0x23
 1550 0399 04       		.uleb128 0x4
 1551 039a 09       		.uleb128 0x9
 1552 039b 25020000 		.4byte	.LASF51
 1553 039f 08       		.byte	0x8
 1554 03a0 64       		.byte	0x64
 1555 03a1 02010000 		.4byte	0x102
 1556 03a5 02       		.byte	0x2
 1557 03a6 23       		.byte	0x23
 1558 03a7 08       		.uleb128 0x8
 1559 03a8 09       		.uleb128 0x9
 1560 03a9 A9040000 		.4byte	.LASF52
 1561 03ad 08       		.byte	0x8
 1562 03ae 65       		.byte	0x65
 1563 03af 4A030000 		.4byte	0x34a
 1564 03b3 02       		.byte	0x2
 1565 03b4 23       		.byte	0x23
 1566 03b5 0C       		.uleb128 0xc
 1567 03b6 09       		.uleb128 0x9
 1568 03b7 0B040000 		.4byte	.LASF53
 1569 03bb 08       		.byte	0x8
 1570 03bc 67       		.byte	0x67
 1571 03bd 68000000 		.4byte	0x68
ARM GAS  C:\Users\z80\AppData\Local\Temp\cc7vCSVh.s 			page 30


 1572 03c1 02       		.byte	0x2
 1573 03c2 23       		.byte	0x23
 1574 03c3 10       		.uleb128 0x10
 1575 03c4 00       		.byte	0
 1576 03c5 05       		.uleb128 0x5
 1577 03c6 04       		.byte	0x4
 1578 03c7 67030000 		.4byte	0x367
 1579 03cb 0B       		.uleb128 0xb
 1580 03cc 10       		.byte	0x10
 1581 03cd 08       		.byte	0x8
 1582 03ce 71       		.byte	0x71
 1583 03cf 0C040000 		.4byte	0x40c
 1584 03d3 09       		.uleb128 0x9
 1585 03d4 72010000 		.4byte	.LASF49
 1586 03d8 08       		.byte	0x8
 1587 03d9 72       		.byte	0x72
 1588 03da C5030000 		.4byte	0x3c5
 1589 03de 02       		.byte	0x2
 1590 03df 23       		.byte	0x23
 1591 03e0 00       		.uleb128 0
 1592 03e1 09       		.uleb128 0x9
 1593 03e2 2B010000 		.4byte	.LASF50
 1594 03e6 08       		.byte	0x8
 1595 03e7 74       		.byte	0x74
 1596 03e8 C5030000 		.4byte	0x3c5
 1597 03ec 02       		.byte	0x2
 1598 03ed 23       		.byte	0x23
 1599 03ee 04       		.uleb128 0x4
 1600 03ef 09       		.uleb128 0x9
 1601 03f0 25020000 		.4byte	.LASF51
 1602 03f4 08       		.byte	0x8
 1603 03f5 76       		.byte	0x76
 1604 03f6 02010000 		.4byte	0x102
 1605 03fa 02       		.byte	0x2
 1606 03fb 23       		.byte	0x23
 1607 03fc 08       		.uleb128 0x8
 1608 03fd 09       		.uleb128 0x9
 1609 03fe 4A030000 		.4byte	.LASF54
 1610 0402 08       		.byte	0x8
 1611 0403 77       		.byte	0x77
 1612 0404 0C040000 		.4byte	0x40c
 1613 0408 02       		.byte	0x2
 1614 0409 23       		.byte	0x23
 1615 040a 0C       		.uleb128 0xc
 1616 040b 00       		.byte	0
 1617 040c 10       		.uleb128 0x10
 1618 040d 02010000 		.4byte	0x102
 1619 0411 07       		.uleb128 0x7
 1620 0412 8A040000 		.4byte	.LASF55
 1621 0416 08       		.byte	0x8
 1622 0417 78       		.byte	0x78
 1623 0418 CB030000 		.4byte	0x3cb
 1624 041c 0B       		.uleb128 0xb
 1625 041d 20       		.byte	0x20
 1626 041e 09       		.byte	0x9
 1627 041f 5E       		.byte	0x5e
 1628 0420 87040000 		.4byte	0x487
ARM GAS  C:\Users\z80\AppData\Local\Temp\cc7vCSVh.s 			page 31


 1629 0424 09       		.uleb128 0x9
 1630 0425 42030000 		.4byte	.LASF56
 1631 0429 09       		.byte	0x9
 1632 042a 5F       		.byte	0x5f
 1633 042b 57020000 		.4byte	0x257
 1634 042f 02       		.byte	0x2
 1635 0430 23       		.byte	0x23
 1636 0431 00       		.uleb128 0
 1637 0432 09       		.uleb128 0x9
 1638 0433 04030000 		.4byte	.LASF57
 1639 0437 09       		.byte	0x9
 1640 0438 60       		.byte	0x60
 1641 0439 E1000000 		.4byte	0xe1
 1642 043d 02       		.byte	0x2
 1643 043e 23       		.byte	0x23
 1644 043f 08       		.uleb128 0x8
 1645 0440 09       		.uleb128 0x9
 1646 0441 58020000 		.4byte	.LASF58
 1647 0445 09       		.byte	0x9
 1648 0446 62       		.byte	0x62
 1649 0447 27030000 		.4byte	0x327
 1650 044b 02       		.byte	0x2
 1651 044c 23       		.byte	0x23
 1652 044d 0C       		.uleb128 0xc
 1653 044e 09       		.uleb128 0x9
 1654 044f 1A010000 		.4byte	.LASF59
 1655 0453 09       		.byte	0x9
 1656 0454 65       		.byte	0x65
 1657 0455 51020000 		.4byte	0x251
 1658 0459 02       		.byte	0x2
 1659 045a 23       		.byte	0x23
 1660 045b 10       		.uleb128 0x10
 1661 045c 09       		.uleb128 0x9
 1662 045d 91020000 		.4byte	.LASF60
 1663 0461 09       		.byte	0x9
 1664 0462 66       		.byte	0x66
 1665 0463 51020000 		.4byte	0x251
 1666 0467 02       		.byte	0x2
 1667 0468 23       		.byte	0x23
 1668 0469 14       		.uleb128 0x14
 1669 046a 09       		.uleb128 0x9
 1670 046b D3030000 		.4byte	.LASF61
 1671 046f 09       		.byte	0x9
 1672 0470 6A       		.byte	0x6a
 1673 0471 0D010000 		.4byte	0x10d
 1674 0475 02       		.byte	0x2
 1675 0476 23       		.byte	0x23
 1676 0477 18       		.uleb128 0x18
 1677 0478 09       		.uleb128 0x9
 1678 0479 73030000 		.4byte	.LASF62
 1679 047d 09       		.byte	0x9
 1680 047e 6C       		.byte	0x6c
 1681 047f 51020000 		.4byte	0x251
 1682 0483 02       		.byte	0x2
 1683 0484 23       		.byte	0x23
 1684 0485 1C       		.uleb128 0x1c
 1685 0486 00       		.byte	0
ARM GAS  C:\Users\z80\AppData\Local\Temp\cc7vCSVh.s 			page 32


 1686 0487 07       		.uleb128 0x7
 1687 0488 17000000 		.4byte	.LASF63
 1688 048c 09       		.byte	0x9
 1689 048d 6E       		.byte	0x6e
 1690 048e 1C040000 		.4byte	0x41c
 1691 0492 08       		.uleb128 0x8
 1692 0493 37020000 		.4byte	.LASF64
 1693 0497 10       		.byte	0x10
 1694 0498 0A       		.byte	0xa
 1695 0499 2C       		.byte	0x2c
 1696 049a C9040000 		.4byte	0x4c9
 1697 049e 09       		.uleb128 0x9
 1698 049f 94000000 		.4byte	.LASF65
 1699 04a3 0A       		.byte	0xa
 1700 04a4 2D       		.byte	0x2d
 1701 04a5 57020000 		.4byte	0x257
 1702 04a9 02       		.byte	0x2
 1703 04aa 23       		.byte	0x23
 1704 04ab 00       		.uleb128 0
 1705 04ac 09       		.uleb128 0x9
 1706 04ad 9B040000 		.4byte	.LASF66
 1707 04b1 0A       		.byte	0xa
 1708 04b2 2F       		.byte	0x2f
 1709 04b3 51020000 		.4byte	0x251
 1710 04b7 02       		.byte	0x2
 1711 04b8 23       		.byte	0x23
 1712 04b9 08       		.uleb128 0x8
 1713 04ba 09       		.uleb128 0x9
 1714 04bb A2030000 		.4byte	.LASF67
 1715 04bf 0A       		.byte	0xa
 1716 04c0 31       		.byte	0x31
 1717 04c1 C9040000 		.4byte	0x4c9
 1718 04c5 02       		.byte	0x2
 1719 04c6 23       		.byte	0x23
 1720 04c7 0C       		.uleb128 0xc
 1721 04c8 00       		.byte	0
 1722 04c9 05       		.uleb128 0x5
 1723 04ca 04       		.byte	0x4
 1724 04cb 92040000 		.4byte	0x492
 1725 04cf 07       		.uleb128 0x7
 1726 04d0 37020000 		.4byte	.LASF64
 1727 04d4 0A       		.byte	0xa
 1728 04d5 33       		.byte	0x33
 1729 04d6 92040000 		.4byte	0x492
 1730 04da 07       		.uleb128 0x7
 1731 04db 54040000 		.4byte	.LASF68
 1732 04df 0B       		.byte	0xb
 1733 04e0 29       		.byte	0x29
 1734 04e1 E5040000 		.4byte	0x4e5
 1735 04e5 08       		.uleb128 0x8
 1736 04e6 54040000 		.4byte	.LASF68
 1737 04ea 0C       		.byte	0xc
 1738 04eb 0B       		.byte	0xb
 1739 04ec 2E       		.byte	0x2e
 1740 04ed 1C050000 		.4byte	0x51c
 1741 04f1 09       		.uleb128 0x9
 1742 04f2 C1010000 		.4byte	.LASF69
ARM GAS  C:\Users\z80\AppData\Local\Temp\cc7vCSVh.s 			page 33


 1743 04f6 0B       		.byte	0xb
 1744 04f7 2F       		.byte	0x2f
 1745 04f8 1C050000 		.4byte	0x51c
 1746 04fc 02       		.byte	0x2
 1747 04fd 23       		.byte	0x23
 1748 04fe 00       		.uleb128 0
 1749 04ff 09       		.uleb128 0x9
 1750 0500 D4020000 		.4byte	.LASF70
 1751 0504 0B       		.byte	0xb
 1752 0505 32       		.byte	0x32
 1753 0506 51020000 		.4byte	0x251
 1754 050a 02       		.byte	0x2
 1755 050b 23       		.byte	0x23
 1756 050c 04       		.uleb128 0x4
 1757 050d 09       		.uleb128 0x9
 1758 050e 48020000 		.4byte	.LASF71
 1759 0512 0B       		.byte	0xb
 1760 0513 34       		.byte	0x34
 1761 0514 F7000000 		.4byte	0xf7
 1762 0518 02       		.byte	0x2
 1763 0519 23       		.byte	0x23
 1764 051a 08       		.uleb128 0x8
 1765 051b 00       		.byte	0
 1766 051c 05       		.uleb128 0x5
 1767 051d 04       		.byte	0x4
 1768 051e DA040000 		.4byte	0x4da
 1769 0522 08       		.uleb128 0x8
 1770 0523 48010000 		.4byte	.LASF72
 1771 0527 04       		.byte	0x4
 1772 0528 0B       		.byte	0xb
 1773 0529 3C       		.byte	0x3c
 1774 052a 3D050000 		.4byte	0x53d
 1775 052e 09       		.uleb128 0x9
 1776 052f 19040000 		.4byte	.LASF73
 1777 0533 0B       		.byte	0xb
 1778 0534 3D       		.byte	0x3d
 1779 0535 1C050000 		.4byte	0x51c
 1780 0539 02       		.byte	0x2
 1781 053a 23       		.byte	0x23
 1782 053b 00       		.uleb128 0
 1783 053c 00       		.byte	0
 1784 053d 07       		.uleb128 0x7
 1785 053e 48010000 		.4byte	.LASF72
 1786 0542 0B       		.byte	0xb
 1787 0543 40       		.byte	0x40
 1788 0544 22050000 		.4byte	0x522
 1789 0548 11       		.uleb128 0x11
 1790 0549 04       		.byte	0x4
 1791 054a 06       		.byte	0x6
 1792 054b 90       		.byte	0x90
 1793 054c 7D050000 		.4byte	0x57d
 1794 0550 12       		.uleb128 0x12
 1795 0551 12040000 		.4byte	.LASF74
 1796 0555 06       		.byte	0x6
 1797 0556 97       		.byte	0x97
 1798 0557 EC000000 		.4byte	0xec
 1799 055b 12       		.uleb128 0x12
ARM GAS  C:\Users\z80\AppData\Local\Temp\cc7vCSVh.s 			page 34


 1800 055c 47000000 		.4byte	.LASF75
 1801 0560 06       		.byte	0x6
 1802 0561 9E       		.byte	0x9e
 1803 0562 EC000000 		.4byte	0xec
 1804 0566 12       		.uleb128 0x12
 1805 0567 62040000 		.4byte	.LASF76
 1806 056b 06       		.byte	0x6
 1807 056c A5       		.byte	0xa5
 1808 056d 68000000 		.4byte	0x68
 1809 0571 12       		.uleb128 0x12
 1810 0572 0B030000 		.4byte	.LASF77
 1811 0576 06       		.byte	0x6
 1812 0577 AC       		.byte	0xac
 1813 0578 F7000000 		.4byte	0xf7
 1814 057c 00       		.byte	0
 1815 057d 05       		.uleb128 0x5
 1816 057e 04       		.byte	0x4
 1817 057f 8F020000 		.4byte	0x28f
 1818 0583 05       		.uleb128 0x5
 1819 0584 04       		.byte	0x4
 1820 0585 CF040000 		.4byte	0x4cf
 1821 0589 05       		.uleb128 0x5
 1822 058a 04       		.byte	0x4
 1823 058b 94000000 		.4byte	0x94
 1824 058f 13       		.uleb128 0x13
 1825 0590 01       		.byte	0x1
 1826 0591 89000000 		.4byte	0x89
 1827 0595 A9050000 		.4byte	0x5a9
 1828 0599 0F       		.uleb128 0xf
 1829 059a 68000000 		.4byte	0x68
 1830 059e 0F       		.uleb128 0xf
 1831 059f A9050000 		.4byte	0x5a9
 1832 05a3 0F       		.uleb128 0xf
 1833 05a4 89000000 		.4byte	0x89
 1834 05a8 00       		.byte	0
 1835 05a9 05       		.uleb128 0x5
 1836 05aa 04       		.byte	0x4
 1837 05ab AF050000 		.4byte	0x5af
 1838 05af 06       		.uleb128 0x6
 1839 05b0 94000000 		.4byte	0x94
 1840 05b4 05       		.uleb128 0x5
 1841 05b5 04       		.byte	0x4
 1842 05b6 8F050000 		.4byte	0x58f
 1843 05ba 13       		.uleb128 0x13
 1844 05bb 01       		.byte	0x1
 1845 05bc 89000000 		.4byte	0x89
 1846 05c0 D4050000 		.4byte	0x5d4
 1847 05c4 0F       		.uleb128 0xf
 1848 05c5 68000000 		.4byte	0x68
 1849 05c9 0F       		.uleb128 0xf
 1850 05ca 89050000 		.4byte	0x589
 1851 05ce 0F       		.uleb128 0xf
 1852 05cf 89000000 		.4byte	0x89
 1853 05d3 00       		.byte	0
 1854 05d4 05       		.uleb128 0x5
 1855 05d5 04       		.byte	0x4
 1856 05d6 BA050000 		.4byte	0x5ba
ARM GAS  C:\Users\z80\AppData\Local\Temp\cc7vCSVh.s 			page 35


 1857 05da 08       		.uleb128 0x8
 1858 05db 38000000 		.4byte	.LASF78
 1859 05df 20       		.byte	0x20
 1860 05e0 0C       		.byte	0xc
 1861 05e1 51       		.byte	0x51
 1862 05e2 57060000 		.4byte	0x657
 1863 05e6 09       		.uleb128 0x9
 1864 05e7 1F020000 		.4byte	.LASF79
 1865 05eb 0C       		.byte	0xc
 1866 05ec 52       		.byte	0x52
 1867 05ed B4050000 		.4byte	0x5b4
 1868 05f1 02       		.byte	0x2
 1869 05f2 23       		.byte	0x23
 1870 05f3 00       		.uleb128 0
 1871 05f4 09       		.uleb128 0x9
 1872 05f5 7D030000 		.4byte	.LASF80
 1873 05f9 0C       		.byte	0xc
 1874 05fa 52       		.byte	0x52
 1875 05fb D4050000 		.4byte	0x5d4
 1876 05ff 02       		.byte	0x2
 1877 0600 23       		.byte	0x23
 1878 0601 04       		.uleb128 0x4
 1879 0602 09       		.uleb128 0x9
 1880 0603 07010000 		.4byte	.LASF81
 1881 0607 0C       		.byte	0xc
 1882 0608 52       		.byte	0x52
 1883 0609 67060000 		.4byte	0x667
 1884 060d 02       		.byte	0x2
 1885 060e 23       		.byte	0x23
 1886 060f 08       		.uleb128 0x8
 1887 0610 09       		.uleb128 0x9
 1888 0611 7C040000 		.4byte	.LASF82
 1889 0615 0C       		.byte	0xc
 1890 0616 52       		.byte	0x52
 1891 0617 67060000 		.4byte	0x667
 1892 061b 02       		.byte	0x2
 1893 061c 23       		.byte	0x23
 1894 061d 0C       		.uleb128 0xc
 1895 061e 0A       		.uleb128 0xa
 1896 061f 70757400 		.ascii	"put\000"
 1897 0623 0C       		.byte	0xc
 1898 0624 52       		.byte	0x52
 1899 0625 87060000 		.4byte	0x687
 1900 0629 02       		.byte	0x2
 1901 062a 23       		.byte	0x23
 1902 062b 10       		.uleb128 0x10
 1903 062c 0A       		.uleb128 0xa
 1904 062d 67657400 		.ascii	"get\000"
 1905 0631 0C       		.byte	0xc
 1906 0632 52       		.byte	0x52
 1907 0633 A2060000 		.4byte	0x6a2
 1908 0637 02       		.byte	0x2
 1909 0638 23       		.byte	0x23
 1910 0639 14       		.uleb128 0x14
 1911 063a 09       		.uleb128 0x9
 1912 063b C9010000 		.4byte	.LASF83
 1913 063f 0C       		.byte	0xc
ARM GAS  C:\Users\z80\AppData\Local\Temp\cc7vCSVh.s 			page 36


 1914 0640 52       		.byte	0x52
 1915 0641 C7060000 		.4byte	0x6c7
 1916 0645 02       		.byte	0x2
 1917 0646 23       		.byte	0x23
 1918 0647 18       		.uleb128 0x18
 1919 0648 09       		.uleb128 0x9
 1920 0649 6D000000 		.4byte	.LASF84
 1921 064d 0C       		.byte	0xc
 1922 064e 52       		.byte	0x52
 1923 064f EC060000 		.4byte	0x6ec
 1924 0653 02       		.byte	0x2
 1925 0654 23       		.byte	0x23
 1926 0655 1C       		.uleb128 0x1c
 1927 0656 00       		.byte	0
 1928 0657 13       		.uleb128 0x13
 1929 0658 01       		.byte	0x1
 1930 0659 C0000000 		.4byte	0xc0
 1931 065d 67060000 		.4byte	0x667
 1932 0661 0F       		.uleb128 0xf
 1933 0662 68000000 		.4byte	0x68
 1934 0666 00       		.byte	0
 1935 0667 05       		.uleb128 0x5
 1936 0668 04       		.byte	0x4
 1937 0669 57060000 		.4byte	0x657
 1938 066d 13       		.uleb128 0x13
 1939 066e 01       		.byte	0x1
 1940 066f EC000000 		.4byte	0xec
 1941 0673 87060000 		.4byte	0x687
 1942 0677 0F       		.uleb128 0xf
 1943 0678 68000000 		.4byte	0x68
 1944 067c 0F       		.uleb128 0xf
 1945 067d 94000000 		.4byte	0x94
 1946 0681 0F       		.uleb128 0xf
 1947 0682 02010000 		.4byte	0x102
 1948 0686 00       		.byte	0
 1949 0687 05       		.uleb128 0x5
 1950 0688 04       		.byte	0x4
 1951 0689 6D060000 		.4byte	0x66d
 1952 068d 13       		.uleb128 0x13
 1953 068e 01       		.byte	0x1
 1954 068f EC000000 		.4byte	0xec
 1955 0693 A2060000 		.4byte	0x6a2
 1956 0697 0F       		.uleb128 0xf
 1957 0698 68000000 		.4byte	0x68
 1958 069c 0F       		.uleb128 0xf
 1959 069d 02010000 		.4byte	0x102
 1960 06a1 00       		.byte	0
 1961 06a2 05       		.uleb128 0x5
 1962 06a3 04       		.byte	0x4
 1963 06a4 8D060000 		.4byte	0x68d
 1964 06a8 13       		.uleb128 0x13
 1965 06a9 01       		.byte	0x1
 1966 06aa 89000000 		.4byte	0x89
 1967 06ae C7060000 		.4byte	0x6c7
 1968 06b2 0F       		.uleb128 0xf
 1969 06b3 68000000 		.4byte	0x68
 1970 06b7 0F       		.uleb128 0xf
ARM GAS  C:\Users\z80\AppData\Local\Temp\cc7vCSVh.s 			page 37


 1971 06b8 A9050000 		.4byte	0x5a9
 1972 06bc 0F       		.uleb128 0xf
 1973 06bd 89000000 		.4byte	0x89
 1974 06c1 0F       		.uleb128 0xf
 1975 06c2 02010000 		.4byte	0x102
 1976 06c6 00       		.byte	0
 1977 06c7 05       		.uleb128 0x5
 1978 06c8 04       		.byte	0x4
 1979 06c9 A8060000 		.4byte	0x6a8
 1980 06cd 13       		.uleb128 0x13
 1981 06ce 01       		.byte	0x1
 1982 06cf 89000000 		.4byte	0x89
 1983 06d3 EC060000 		.4byte	0x6ec
 1984 06d7 0F       		.uleb128 0xf
 1985 06d8 68000000 		.4byte	0x68
 1986 06dc 0F       		.uleb128 0xf
 1987 06dd 89050000 		.4byte	0x589
 1988 06e1 0F       		.uleb128 0xf
 1989 06e2 89000000 		.4byte	0x89
 1990 06e6 0F       		.uleb128 0xf
 1991 06e7 02010000 		.4byte	0x102
 1992 06eb 00       		.byte	0
 1993 06ec 05       		.uleb128 0x5
 1994 06ed 04       		.byte	0x4
 1995 06ee CD060000 		.4byte	0x6cd
 1996 06f2 0B       		.uleb128 0xb
 1997 06f3 04       		.byte	0x4
 1998 06f4 0C       		.byte	0xc
 1999 06f5 5C       		.byte	0x5c
 2000 06f6 09070000 		.4byte	0x709
 2001 06fa 0A       		.uleb128 0xa
 2002 06fb 766D7400 		.ascii	"vmt\000"
 2003 06ff 0C       		.byte	0xc
 2004 0700 5E       		.byte	0x5e
 2005 0701 09070000 		.4byte	0x709
 2006 0705 02       		.byte	0x2
 2007 0706 23       		.byte	0x23
 2008 0707 00       		.uleb128 0
 2009 0708 00       		.byte	0
 2010 0709 05       		.uleb128 0x5
 2011 070a 04       		.byte	0x4
 2012 070b 0F070000 		.4byte	0x70f
 2013 070f 06       		.uleb128 0x6
 2014 0710 DA050000 		.4byte	0x5da
 2015 0714 07       		.uleb128 0x7
 2016 0715 3C040000 		.4byte	.LASF85
 2017 0719 0C       		.byte	0xc
 2018 071a 60       		.byte	0x60
 2019 071b F2060000 		.4byte	0x6f2
 2020 071f 10       		.uleb128 0x10
 2021 0720 9F000000 		.4byte	0x9f
 2022 0724 07       		.uleb128 0x7
 2023 0725 3D020000 		.4byte	.LASF86
 2024 0729 0D       		.byte	0xd
 2025 072a 38       		.byte	0x38
 2026 072b 2F070000 		.4byte	0x72f
 2027 072f 05       		.uleb128 0x5
ARM GAS  C:\Users\z80\AppData\Local\Temp\cc7vCSVh.s 			page 38


 2028 0730 04       		.byte	0x4
 2029 0731 35070000 		.4byte	0x735
 2030 0735 0E       		.uleb128 0xe
 2031 0736 01       		.byte	0x1
 2032 0737 4B070000 		.4byte	0x74b
 2033 073b 0F       		.uleb128 0xf
 2034 073c 4B070000 		.4byte	0x74b
 2035 0740 0F       		.uleb128 0xf
 2036 0741 45000000 		.4byte	0x45
 2037 0745 0F       		.uleb128 0xf
 2038 0746 51070000 		.4byte	0x751
 2039 074a 00       		.byte	0
 2040 074b 05       		.uleb128 0x5
 2041 074c 04       		.byte	0x4
 2042 074d 14070000 		.4byte	0x714
 2043 0751 05       		.uleb128 0x5
 2044 0752 04       		.byte	0x4
 2045 0753 71000000 		.4byte	0x71
 2046 0757 0B       		.uleb128 0xb
 2047 0758 08       		.byte	0x8
 2048 0759 0D       		.byte	0xd
 2049 075a 3D       		.byte	0x3d
 2050 075b 7C070000 		.4byte	0x77c
 2051 075f 09       		.uleb128 0x9
 2052 0760 40010000 		.4byte	.LASF87
 2053 0764 0D       		.byte	0xd
 2054 0765 3E       		.byte	0x3e
 2055 0766 7E000000 		.4byte	0x7e
 2056 076a 02       		.byte	0x2
 2057 076b 23       		.byte	0x23
 2058 076c 00       		.uleb128 0
 2059 076d 09       		.uleb128 0x9
 2060 076e 48040000 		.4byte	.LASF88
 2061 0772 0D       		.byte	0xd
 2062 0773 3F       		.byte	0x3f
 2063 0774 24070000 		.4byte	0x724
 2064 0778 02       		.byte	0x2
 2065 0779 23       		.byte	0x23
 2066 077a 04       		.uleb128 0x4
 2067 077b 00       		.byte	0
 2068 077c 07       		.uleb128 0x7
 2069 077d DD000000 		.4byte	.LASF89
 2070 0781 0D       		.byte	0xd
 2071 0782 40       		.byte	0x40
 2072 0783 57070000 		.4byte	0x757
 2073 0787 0B       		.uleb128 0xb
 2074 0788 08       		.byte	0x8
 2075 0789 0D       		.byte	0xd
 2076 078a 45       		.byte	0x45
 2077 078b AC070000 		.4byte	0x7ac
 2078 078f 09       		.uleb128 0x9
 2079 0790 9C000000 		.4byte	.LASF90
 2080 0794 0D       		.byte	0xd
 2081 0795 46       		.byte	0x46
 2082 0796 4B070000 		.4byte	0x74b
 2083 079a 02       		.byte	0x2
 2084 079b 23       		.byte	0x23
ARM GAS  C:\Users\z80\AppData\Local\Temp\cc7vCSVh.s 			page 39


 2085 079c 00       		.uleb128 0
 2086 079d 09       		.uleb128 0x9
 2087 079e 7A010000 		.4byte	.LASF91
 2088 07a2 0D       		.byte	0xd
 2089 07a3 48       		.byte	0x48
 2090 07a4 AC070000 		.4byte	0x7ac
 2091 07a8 02       		.byte	0x2
 2092 07a9 23       		.byte	0x23
 2093 07aa 04       		.uleb128 0x4
 2094 07ab 00       		.byte	0
 2095 07ac 05       		.uleb128 0x5
 2096 07ad 04       		.byte	0x4
 2097 07ae B2070000 		.4byte	0x7b2
 2098 07b2 06       		.uleb128 0x6
 2099 07b3 7C070000 		.4byte	0x77c
 2100 07b7 07       		.uleb128 0x7
 2101 07b8 C7030000 		.4byte	.LASF92
 2102 07bc 0D       		.byte	0xd
 2103 07bd 4A       		.byte	0x4a
 2104 07be 87070000 		.4byte	0x787
 2105 07c2 14       		.uleb128 0x14
 2106 07c3 05040000 		.4byte	.LASF93
 2107 07c7 01       		.byte	0x1
 2108 07c8 41       		.byte	0x41
 2109 07c9 01       		.byte	0x1
 2110 07ca 01       		.byte	0x1
 2111 07cb E4070000 		.4byte	0x7e4
 2112 07cf 15       		.uleb128 0x15
 2113 07d0 63687000 		.ascii	"chp\000"
 2114 07d4 01       		.byte	0x1
 2115 07d5 41       		.byte	0x41
 2116 07d6 4B070000 		.4byte	0x74b
 2117 07da 15       		.uleb128 0x15
 2118 07db 7000     		.ascii	"p\000"
 2119 07dd 01       		.byte	0x1
 2120 07de 41       		.byte	0x41
 2121 07df 71000000 		.4byte	0x71
 2122 07e3 00       		.byte	0
 2123 07e4 14       		.uleb128 0x14
 2124 07e5 F2030000 		.4byte	.LASF94
 2125 07e9 01       		.byte	0x1
 2126 07ea 6E       		.byte	0x6e
 2127 07eb 01       		.byte	0x1
 2128 07ec 01       		.byte	0x1
 2129 07ed 13080000 		.4byte	0x813
 2130 07f1 15       		.uleb128 0x15
 2131 07f2 63687000 		.ascii	"chp\000"
 2132 07f6 01       		.byte	0x1
 2133 07f7 6E       		.byte	0x6e
 2134 07f8 4B070000 		.4byte	0x74b
 2135 07fc 16       		.uleb128 0x16
 2136 07fd 69040000 		.4byte	.LASF95
 2137 0801 01       		.byte	0x1
 2138 0802 6E       		.byte	0x6e
 2139 0803 45000000 		.4byte	0x45
 2140 0807 16       		.uleb128 0x16
 2141 0808 96040000 		.4byte	.LASF96
ARM GAS  C:\Users\z80\AppData\Local\Temp\cc7vCSVh.s 			page 40


 2142 080c 01       		.byte	0x1
 2143 080d 6E       		.byte	0x6e
 2144 080e 51070000 		.4byte	0x751
 2145 0812 00       		.byte	0
 2146 0813 14       		.uleb128 0x14
 2147 0814 5D000000 		.4byte	.LASF97
 2148 0818 01       		.byte	0x1
 2149 0819 4E       		.byte	0x4e
 2150 081a 01       		.byte	0x1
 2151 081b 01       		.byte	0x1
 2152 081c 42080000 		.4byte	0x842
 2153 0820 15       		.uleb128 0x15
 2154 0821 63687000 		.ascii	"chp\000"
 2155 0825 01       		.byte	0x1
 2156 0826 4E       		.byte	0x4e
 2157 0827 4B070000 		.4byte	0x74b
 2158 082b 16       		.uleb128 0x16
 2159 082c 69040000 		.4byte	.LASF95
 2160 0830 01       		.byte	0x1
 2161 0831 4E       		.byte	0x4e
 2162 0832 45000000 		.4byte	0x45
 2163 0836 16       		.uleb128 0x16
 2164 0837 96040000 		.4byte	.LASF96
 2165 083b 01       		.byte	0x1
 2166 083c 4E       		.byte	0x4e
 2167 083d 51070000 		.4byte	0x751
 2168 0841 00       		.byte	0
 2169 0842 14       		.uleb128 0x14
 2170 0843 6E040000 		.4byte	.LASF98
 2171 0847 01       		.byte	0x1
 2172 0848 46       		.byte	0x46
 2173 0849 01       		.byte	0x1
 2174 084a 01       		.byte	0x1
 2175 084b 66080000 		.4byte	0x866
 2176 084f 15       		.uleb128 0x15
 2177 0850 63687000 		.ascii	"chp\000"
 2178 0854 01       		.byte	0x1
 2179 0855 46       		.byte	0x46
 2180 0856 4B070000 		.4byte	0x74b
 2181 085a 15       		.uleb128 0x15
 2182 085b 73637000 		.ascii	"scp\000"
 2183 085f 01       		.byte	0x1
 2184 0860 46       		.byte	0x46
 2185 0861 AC070000 		.4byte	0x7ac
 2186 0865 00       		.byte	0
 2187 0866 17       		.uleb128 0x17
 2188 0867 FC020000 		.4byte	.LASF100
 2189 086b 01       		.byte	0x1
 2190 086c 81       		.byte	0x81
 2191 086d 01       		.byte	0x1
 2192 086e C0000000 		.4byte	0xc0
 2193 0872 01       		.byte	0x1
 2194 0873 AF080000 		.4byte	0x8af
 2195 0877 15       		.uleb128 0x15
 2196 0878 73637000 		.ascii	"scp\000"
 2197 087c 01       		.byte	0x1
 2198 087d 81       		.byte	0x81
ARM GAS  C:\Users\z80\AppData\Local\Temp\cc7vCSVh.s 			page 41


 2199 087e AC070000 		.4byte	0x7ac
 2200 0882 15       		.uleb128 0x15
 2201 0883 63687000 		.ascii	"chp\000"
 2202 0887 01       		.byte	0x1
 2203 0888 81       		.byte	0x81
 2204 0889 4B070000 		.4byte	0x74b
 2205 088d 16       		.uleb128 0x16
 2206 088e 91010000 		.4byte	.LASF99
 2207 0892 01       		.byte	0x1
 2208 0893 82       		.byte	0x82
 2209 0894 71000000 		.4byte	0x71
 2210 0898 16       		.uleb128 0x16
 2211 0899 69040000 		.4byte	.LASF95
 2212 089d 01       		.byte	0x1
 2213 089e 82       		.byte	0x82
 2214 089f 45000000 		.4byte	0x45
 2215 08a3 16       		.uleb128 0x16
 2216 08a4 96040000 		.4byte	.LASF96
 2217 08a8 01       		.byte	0x1
 2218 08a9 82       		.byte	0x82
 2219 08aa 51070000 		.4byte	0x751
 2220 08ae 00       		.byte	0
 2221 08af 17       		.uleb128 0x17
 2222 08b0 B6020000 		.4byte	.LASF101
 2223 08b4 01       		.byte	0x1
 2224 08b5 30       		.byte	0x30
 2225 08b6 01       		.byte	0x1
 2226 08b7 71000000 		.4byte	0x71
 2227 08bb 01       		.byte	0x1
 2228 08bc ED080000 		.4byte	0x8ed
 2229 08c0 15       		.uleb128 0x15
 2230 08c1 73747200 		.ascii	"str\000"
 2231 08c5 01       		.byte	0x1
 2232 08c6 30       		.byte	0x30
 2233 08c7 71000000 		.4byte	0x71
 2234 08cb 16       		.uleb128 0x16
 2235 08cc 19030000 		.4byte	.LASF102
 2236 08d0 01       		.byte	0x1
 2237 08d1 30       		.byte	0x30
 2238 08d2 7E000000 		.4byte	0x7e
 2239 08d6 16       		.uleb128 0x16
 2240 08d7 9F020000 		.4byte	.LASF103
 2241 08db 01       		.byte	0x1
 2242 08dc 30       		.byte	0x30
 2243 08dd 51070000 		.4byte	0x751
 2244 08e1 18       		.uleb128 0x18
 2245 08e2 99020000 		.4byte	.LASF119
 2246 08e6 01       		.byte	0x1
 2247 08e7 31       		.byte	0x31
 2248 08e8 71000000 		.4byte	0x71
 2249 08ec 00       		.byte	0
 2250 08ed 19       		.uleb128 0x19
 2251 08ee E4070000 		.4byte	0x7e4
 2252 08f2 00000000 		.4byte	.LFB66
 2253 08f6 2E000000 		.4byte	.LFE66
 2254 08fa 02       		.byte	0x2
 2255 08fb 7D       		.byte	0x7d
ARM GAS  C:\Users\z80\AppData\Local\Temp\cc7vCSVh.s 			page 42


 2256 08fc 00       		.sleb128 0
 2257 08fd 64090000 		.4byte	0x964
 2258 0901 1A       		.uleb128 0x1a
 2259 0902 F1070000 		.4byte	0x7f1
 2260 0906 00000000 		.4byte	.LLST0
 2261 090a 1A       		.uleb128 0x1a
 2262 090b FC070000 		.4byte	0x7fc
 2263 090f 1E000000 		.4byte	.LLST1
 2264 0913 1A       		.uleb128 0x1a
 2265 0914 07080000 		.4byte	0x807
 2266 0918 3C000000 		.4byte	.LLST2
 2267 091c 1B       		.uleb128 0x1b
 2268 091d C2070000 		.4byte	0x7c2
 2269 0921 04000000 		.4byte	.LBB29
 2270 0925 00000000 		.4byte	.Ldebug_ranges0+0
 2271 0929 01       		.byte	0x1
 2272 092a 72       		.byte	0x72
 2273 092b 3E090000 		.4byte	0x93e
 2274 092f 1A       		.uleb128 0x1a
 2275 0930 DA070000 		.4byte	0x7da
 2276 0934 5A000000 		.4byte	.LLST3
 2277 0938 1C       		.uleb128 0x1c
 2278 0939 CF070000 		.4byte	0x7cf
 2279 093d 00       		.byte	0
 2280 093e 1D       		.uleb128 0x1d
 2281 093f E4070000 		.4byte	0x7e4
 2282 0943 18000000 		.4byte	.LBB33
 2283 0947 18000000 		.4byte	.Ldebug_ranges0+0x18
 2284 094b 01       		.byte	0x1
 2285 094c 6E       		.byte	0x6e
 2286 094d 1C       		.uleb128 0x1c
 2287 094e F1070000 		.4byte	0x7f1
 2288 0952 1E       		.uleb128 0x1e
 2289 0953 30000000 		.4byte	.Ldebug_ranges0+0x30
 2290 0957 1C       		.uleb128 0x1c
 2291 0958 07080000 		.4byte	0x807
 2292 095c 1C       		.uleb128 0x1c
 2293 095d FC070000 		.4byte	0x7fc
 2294 0961 00       		.byte	0
 2295 0962 00       		.byte	0
 2296 0963 00       		.byte	0
 2297 0964 1F       		.uleb128 0x1f
 2298 0965 13080000 		.4byte	0x813
 2299 0969 00000000 		.4byte	.LFB65
 2300 096d E8000000 		.4byte	.LFE65
 2301 0971 72000000 		.4byte	.LLST4
 2302 0975 E2090000 		.4byte	0x9e2
 2303 0979 1A       		.uleb128 0x1a
 2304 097a 20080000 		.4byte	0x820
 2305 097e 9E000000 		.4byte	.LLST5
 2306 0982 1A       		.uleb128 0x1a
 2307 0983 2B080000 		.4byte	0x82b
 2308 0987 BC000000 		.4byte	.LLST6
 2309 098b 1A       		.uleb128 0x1a
 2310 098c 36080000 		.4byte	0x836
 2311 0990 DA000000 		.4byte	.LLST7
 2312 0994 1B       		.uleb128 0x1b
ARM GAS  C:\Users\z80\AppData\Local\Temp\cc7vCSVh.s 			page 43


 2313 0995 C2070000 		.4byte	0x7c2
 2314 0999 0A000000 		.4byte	.LBB43
 2315 099d 48000000 		.4byte	.Ldebug_ranges0+0x48
 2316 09a1 01       		.byte	0x1
 2317 09a2 52       		.byte	0x52
 2318 09a3 B6090000 		.4byte	0x9b6
 2319 09a7 1A       		.uleb128 0x1a
 2320 09a8 DA070000 		.4byte	0x7da
 2321 09ac F8000000 		.4byte	.LLST8
 2322 09b0 1C       		.uleb128 0x1c
 2323 09b1 CF070000 		.4byte	0x7cf
 2324 09b5 00       		.byte	0
 2325 09b6 20       		.uleb128 0x20
 2326 09b7 13080000 		.4byte	0x813
 2327 09bb 24000000 		.4byte	.LBB47
 2328 09bf E4000000 		.4byte	.LBE47
 2329 09c3 01       		.byte	0x1
 2330 09c4 4E       		.byte	0x4e
 2331 09c5 21       		.uleb128 0x21
 2332 09c6 20080000 		.4byte	0x820
 2333 09ca 01       		.byte	0x1
 2334 09cb 54       		.byte	0x54
 2335 09cc 22       		.uleb128 0x22
 2336 09cd 24000000 		.4byte	.LBB48
 2337 09d1 E4000000 		.4byte	.LBE48
 2338 09d5 1C       		.uleb128 0x1c
 2339 09d6 36080000 		.4byte	0x836
 2340 09da 1C       		.uleb128 0x1c
 2341 09db 2B080000 		.4byte	0x82b
 2342 09df 00       		.byte	0
 2343 09e0 00       		.byte	0
 2344 09e1 00       		.byte	0
 2345 09e2 1F       		.uleb128 0x1f
 2346 09e3 AF080000 		.4byte	0x8af
 2347 09e7 00000000 		.4byte	.LFB74
 2348 09eb 44000000 		.4byte	.LFE74
 2349 09ef 10010000 		.4byte	.LLST9
 2350 09f3 1F0A0000 		.4byte	0xa1f
 2351 09f7 1A       		.uleb128 0x1a
 2352 09f8 C0080000 		.4byte	0x8c0
 2353 09fc 30010000 		.4byte	.LLST10
 2354 0a00 1A       		.uleb128 0x1a
 2355 0a01 D6080000 		.4byte	0x8d6
 2356 0a05 4E010000 		.4byte	.LLST11
 2357 0a09 23       		.uleb128 0x23
 2358 0a0a E1080000 		.4byte	0x8e1
 2359 0a0e 6C010000 		.4byte	.LLST12
 2360 0a12 21       		.uleb128 0x21
 2361 0a13 CB080000 		.4byte	0x8cb
 2362 0a17 06       		.byte	0x6
 2363 0a18 03       		.byte	0x3
 2364 0a19 00000000 		.4byte	.LC22
 2365 0a1d 9F       		.byte	0x9f
 2366 0a1e 00       		.byte	0
 2367 0a1f 24       		.uleb128 0x24
 2368 0a20 01       		.byte	0x1
 2369 0a21 98030000 		.4byte	.LASF120
ARM GAS  C:\Users\z80\AppData\Local\Temp\cc7vCSVh.s 			page 44


 2370 0a25 01       		.byte	0x1
 2371 0a26 D7       		.byte	0xd7
 2372 0a27 01       		.byte	0x1
 2373 0a28 00000000 		.4byte	.LFB69
 2374 0a2c 0C000000 		.4byte	.LFE69
 2375 0a30 02       		.byte	0x2
 2376 0a31 7D       		.byte	0x7d
 2377 0a32 00       		.sleb128 0
 2378 0a33 25       		.uleb128 0x25
 2379 0a34 01       		.byte	0x1
 2380 0a35 5E020000 		.4byte	.LASF106
 2381 0a39 01       		.byte	0x1
 2382 0a3a F6       		.byte	0xf6
 2383 0a3b 01       		.byte	0x1
 2384 0a3c 51020000 		.4byte	0x251
 2385 0a40 00000000 		.4byte	.LFB70
 2386 0a44 1C000000 		.4byte	.LFE70
 2387 0a48 8B010000 		.4byte	.LLST13
 2388 0a4c 8D0A0000 		.4byte	0xa8d
 2389 0a50 26       		.uleb128 0x26
 2390 0a51 73637000 		.ascii	"scp\000"
 2391 0a55 01       		.byte	0x1
 2392 0a56 F6       		.byte	0xf6
 2393 0a57 8D0A0000 		.4byte	0xa8d
 2394 0a5b B7010000 		.4byte	.LLST14
 2395 0a5f 26       		.uleb128 0x26
 2396 0a60 77737000 		.ascii	"wsp\000"
 2397 0a64 01       		.byte	0x1
 2398 0a65 F6       		.byte	0xf6
 2399 0a66 68000000 		.4byte	0x68
 2400 0a6a D6010000 		.4byte	.LLST15
 2401 0a6e 27       		.uleb128 0x27
 2402 0a6f A3010000 		.4byte	.LASF104
 2403 0a73 01       		.byte	0x1
 2404 0a74 F7       		.byte	0xf7
 2405 0a75 89000000 		.4byte	0x89
 2406 0a79 F4010000 		.4byte	.LLST16
 2407 0a7d 27       		.uleb128 0x27
 2408 0a7e 8C020000 		.4byte	.LASF105
 2409 0a82 01       		.byte	0x1
 2410 0a83 F7       		.byte	0xf7
 2411 0a84 E1000000 		.4byte	0xe1
 2412 0a88 12020000 		.4byte	.LLST17
 2413 0a8c 00       		.byte	0
 2414 0a8d 05       		.uleb128 0x5
 2415 0a8e 04       		.byte	0x4
 2416 0a8f 930A0000 		.4byte	0xa93
 2417 0a93 06       		.uleb128 0x6
 2418 0a94 B7070000 		.4byte	0x7b7
 2419 0a98 28       		.uleb128 0x28
 2420 0a99 01       		.byte	0x1
 2421 0a9a 33010000 		.4byte	.LASF107
 2422 0a9e 01       		.byte	0x1
 2423 0a9f 0601     		.2byte	0x106
 2424 0aa1 01       		.byte	0x1
 2425 0aa2 C0000000 		.4byte	0xc0
 2426 0aa6 00000000 		.4byte	.LFB71
ARM GAS  C:\Users\z80\AppData\Local\Temp\cc7vCSVh.s 			page 45


 2427 0aaa AE000000 		.4byte	.LFE71
 2428 0aae 30020000 		.4byte	.LLST18
 2429 0ab2 090B0000 		.4byte	0xb09
 2430 0ab6 29       		.uleb128 0x29
 2431 0ab7 63687000 		.ascii	"chp\000"
 2432 0abb 01       		.byte	0x1
 2433 0abc 0601     		.2byte	0x106
 2434 0abe 4B070000 		.4byte	0x74b
 2435 0ac2 50020000 		.4byte	.LLST19
 2436 0ac6 2A       		.uleb128 0x2a
 2437 0ac7 15010000 		.4byte	.LASF108
 2438 0acb 01       		.byte	0x1
 2439 0acc 0601     		.2byte	0x106
 2440 0ace 71000000 		.4byte	0x71
 2441 0ad2 6E020000 		.4byte	.LLST20
 2442 0ad6 2A       		.uleb128 0x2a
 2443 0ad7 A3010000 		.4byte	.LASF104
 2444 0adb 01       		.byte	0x1
 2445 0adc 0601     		.2byte	0x106
 2446 0ade 4C000000 		.4byte	0x4c
 2447 0ae2 8C020000 		.4byte	.LLST21
 2448 0ae6 2B       		.uleb128 0x2b
 2449 0ae7 7000     		.ascii	"p\000"
 2450 0ae9 01       		.byte	0x1
 2451 0aea 0701     		.2byte	0x107
 2452 0aec 71000000 		.4byte	0x71
 2453 0af0 AC020000 		.4byte	.LLST22
 2454 0af4 1E       		.uleb128 0x1e
 2455 0af5 60000000 		.4byte	.Ldebug_ranges0+0x60
 2456 0af9 2B       		.uleb128 0x2b
 2457 0afa 6300     		.ascii	"c\000"
 2458 0afc 01       		.byte	0x1
 2459 0afd 0A01     		.2byte	0x10a
 2460 0aff 37000000 		.4byte	0x37
 2461 0b03 CA020000 		.4byte	.LLST23
 2462 0b07 00       		.byte	0
 2463 0b08 00       		.byte	0
 2464 0b09 2C       		.uleb128 0x2c
 2465 0b0a 21040000 		.4byte	.LASF121
 2466 0b0e 01       		.byte	0x1
 2467 0b0f 96       		.byte	0x96
 2468 0b10 01       		.byte	0x1
 2469 0b11 EC000000 		.4byte	0xec
 2470 0b15 00000000 		.4byte	.LFB68
 2471 0b19 86020000 		.4byte	.LFE68
 2472 0b1d E8020000 		.4byte	.LLST24
 2473 0b21 C10C0000 		.4byte	0xcc1
 2474 0b25 26       		.uleb128 0x26
 2475 0b26 7000     		.ascii	"p\000"
 2476 0b28 01       		.byte	0x1
 2477 0b29 96       		.byte	0x96
 2478 0b2a 68000000 		.4byte	0x68
 2479 0b2e 15030000 		.4byte	.LLST25
 2480 0b32 2D       		.uleb128 0x2d
 2481 0b33 6E00     		.ascii	"n\000"
 2482 0b35 01       		.byte	0x1
 2483 0b36 97       		.byte	0x97
ARM GAS  C:\Users\z80\AppData\Local\Temp\cc7vCSVh.s 			page 46


 2484 0b37 45000000 		.4byte	0x45
 2485 0b3b 28030000 		.4byte	.LLST26
 2486 0b3f 2E       		.uleb128 0x2e
 2487 0b40 6D736700 		.ascii	"msg\000"
 2488 0b44 01       		.byte	0x1
 2489 0b45 98       		.byte	0x98
 2490 0b46 EC000000 		.4byte	0xec
 2491 0b4a 00       		.byte	0
 2492 0b4b 2D       		.uleb128 0x2d
 2493 0b4c 63687000 		.ascii	"chp\000"
 2494 0b50 01       		.byte	0x1
 2495 0b51 99       		.byte	0x99
 2496 0b52 4B070000 		.4byte	0x74b
 2497 0b56 A8030000 		.4byte	.LLST27
 2498 0b5a 2D       		.uleb128 0x2d
 2499 0b5b 73637000 		.ascii	"scp\000"
 2500 0b5f 01       		.byte	0x1
 2501 0b60 9A       		.byte	0x9a
 2502 0b61 AC070000 		.4byte	0x7ac
 2503 0b65 D2030000 		.4byte	.LLST28
 2504 0b69 2D       		.uleb128 0x2d
 2505 0b6a 6C7000   		.ascii	"lp\000"
 2506 0b6d 01       		.byte	0x1
 2507 0b6e 9B       		.byte	0x9b
 2508 0b6f 71000000 		.4byte	0x71
 2509 0b73 F1030000 		.4byte	.LLST29
 2510 0b77 2D       		.uleb128 0x2d
 2511 0b78 636D6400 		.ascii	"cmd\000"
 2512 0b7c 01       		.byte	0x1
 2513 0b7d 9B       		.byte	0x9b
 2514 0b7e 71000000 		.4byte	0x71
 2515 0b82 88040000 		.4byte	.LLST30
 2516 0b86 2F       		.uleb128 0x2f
 2517 0b87 FA000000 		.4byte	.LASF109
 2518 0b8b 01       		.byte	0x1
 2519 0b8c 9B       		.byte	0x9b
 2520 0b8d 71000000 		.4byte	0x71
 2521 0b91 02       		.byte	0x2
 2522 0b92 91       		.byte	0x91
 2523 0b93 54       		.sleb128 -44
 2524 0b94 2F       		.uleb128 0x2f
 2525 0b95 15010000 		.4byte	.LASF108
 2526 0b99 01       		.byte	0x1
 2527 0b9a 9B       		.byte	0x9b
 2528 0b9b C10C0000 		.4byte	0xcc1
 2529 0b9f 03       		.byte	0x3
 2530 0ba0 91       		.byte	0x91
 2531 0ba1 807F     		.sleb128 -128
 2532 0ba3 2F       		.uleb128 0x2f
 2533 0ba4 91040000 		.4byte	.LASF110
 2534 0ba8 01       		.byte	0x1
 2535 0ba9 9C       		.byte	0x9c
 2536 0baa D10C0000 		.4byte	0xcd1
 2537 0bae 02       		.byte	0x2
 2538 0baf 91       		.byte	0x91
 2539 0bb0 40       		.sleb128 -64
 2540 0bb1 1B       		.uleb128 0x1b
ARM GAS  C:\Users\z80\AppData\Local\Temp\cc7vCSVh.s 			page 47


 2541 0bb2 42080000 		.4byte	0x842
 2542 0bb6 2C000000 		.4byte	.LBB52
 2543 0bba 80000000 		.4byte	.Ldebug_ranges0+0x80
 2544 0bbe 01       		.byte	0x1
 2545 0bbf C0       		.byte	0xc0
 2546 0bc0 D70B0000 		.4byte	0xbd7
 2547 0bc4 1A       		.uleb128 0x1a
 2548 0bc5 5A080000 		.4byte	0x85a
 2549 0bc9 C8040000 		.4byte	.LLST31
 2550 0bcd 1A       		.uleb128 0x1a
 2551 0bce 4F080000 		.4byte	0x84f
 2552 0bd2 E0040000 		.4byte	.LLST32
 2553 0bd6 00       		.byte	0
 2554 0bd7 1B       		.uleb128 0x1b
 2555 0bd8 66080000 		.4byte	0x866
 2556 0bdc 38000000 		.4byte	.LBB55
 2557 0be0 98000000 		.4byte	.Ldebug_ranges0+0x98
 2558 0be4 01       		.byte	0x1
 2559 0be5 C5       		.byte	0xc5
 2560 0be6 080C0000 		.4byte	0xc08
 2561 0bea 1C       		.uleb128 0x1c
 2562 0beb A3080000 		.4byte	0x8a3
 2563 0bef 1C       		.uleb128 0x1c
 2564 0bf0 98080000 		.4byte	0x898
 2565 0bf4 1C       		.uleb128 0x1c
 2566 0bf5 8D080000 		.4byte	0x88d
 2567 0bf9 1C       		.uleb128 0x1c
 2568 0bfa 82080000 		.4byte	0x882
 2569 0bfe 1A       		.uleb128 0x1a
 2570 0bff 77080000 		.4byte	0x877
 2571 0c03 F3040000 		.4byte	.LLST33
 2572 0c07 00       		.byte	0
 2573 0c08 30       		.uleb128 0x30
 2574 0c09 D0000000 		.4byte	.LBB58
 2575 0c0d D6000000 		.4byte	.LBE58
 2576 0c11 250C0000 		.4byte	0xc25
 2577 0c15 2D       		.uleb128 0x2d
 2578 0c16 746D7000 		.ascii	"tmp\000"
 2579 0c1a 01       		.byte	0x1
 2580 0c1b CE       		.byte	0xce
 2581 0c1c AA000000 		.4byte	0xaa
 2582 0c20 30050000 		.4byte	.LLST34
 2583 0c24 00       		.byte	0
 2584 0c25 31       		.uleb128 0x31
 2585 0c26 C2070000 		.4byte	0x7c2
 2586 0c2a 22010000 		.4byte	.LBB59
 2587 0c2e 38010000 		.4byte	.LBE59
 2588 0c32 01       		.byte	0x1
 2589 0c33 B5       		.byte	0xb5
 2590 0c34 4B0C0000 		.4byte	0xc4b
 2591 0c38 1A       		.uleb128 0x1a
 2592 0c39 DA070000 		.4byte	0x7da
 2593 0c3d 43050000 		.4byte	.LLST35
 2594 0c41 1A       		.uleb128 0x1a
 2595 0c42 CF070000 		.4byte	0x7cf
 2596 0c46 5B050000 		.4byte	.LLST36
 2597 0c4a 00       		.byte	0
ARM GAS  C:\Users\z80\AppData\Local\Temp\cc7vCSVh.s 			page 48


 2598 0c4b 1B       		.uleb128 0x1b
 2599 0c4c 66080000 		.4byte	0x866
 2600 0c50 72010000 		.4byte	.LBB62
 2601 0c54 B0000000 		.4byte	.Ldebug_ranges0+0xb0
 2602 0c58 01       		.byte	0x1
 2603 0c59 C6       		.byte	0xc6
 2604 0c5a 7C0C0000 		.4byte	0xc7c
 2605 0c5e 1C       		.uleb128 0x1c
 2606 0c5f A3080000 		.4byte	0x8a3
 2607 0c63 1C       		.uleb128 0x1c
 2608 0c64 98080000 		.4byte	0x898
 2609 0c68 1C       		.uleb128 0x1c
 2610 0c69 8D080000 		.4byte	0x88d
 2611 0c6d 1C       		.uleb128 0x1c
 2612 0c6e 82080000 		.4byte	0x882
 2613 0c72 1A       		.uleb128 0x1a
 2614 0c73 77080000 		.4byte	0x877
 2615 0c77 6E050000 		.4byte	.LLST37
 2616 0c7b 00       		.byte	0
 2617 0c7c 31       		.uleb128 0x31
 2618 0c7d C2070000 		.4byte	0x7c2
 2619 0c81 9E010000 		.4byte	.LBB65
 2620 0c85 B4010000 		.4byte	.LBE65
 2621 0c89 01       		.byte	0x1
 2622 0c8a BC       		.byte	0xbc
 2623 0c8b A20C0000 		.4byte	0xca2
 2624 0c8f 1A       		.uleb128 0x1a
 2625 0c90 DA070000 		.4byte	0x7da
 2626 0c94 A6050000 		.4byte	.LLST38
 2627 0c98 1A       		.uleb128 0x1a
 2628 0c99 CF070000 		.4byte	0x7cf
 2629 0c9d BE050000 		.4byte	.LLST39
 2630 0ca1 00       		.byte	0
 2631 0ca2 20       		.uleb128 0x20
 2632 0ca3 42080000 		.4byte	0x842
 2633 0ca7 2A020000 		.4byte	.LBB69
 2634 0cab 56020000 		.4byte	.LBE69
 2635 0caf 01       		.byte	0x1
 2636 0cb0 C2       		.byte	0xc2
 2637 0cb1 1A       		.uleb128 0x1a
 2638 0cb2 5A080000 		.4byte	0x85a
 2639 0cb6 D1050000 		.4byte	.LLST40
 2640 0cba 1C       		.uleb128 0x1c
 2641 0cbb 4F080000 		.4byte	0x84f
 2642 0cbf 00       		.byte	0
 2643 0cc0 00       		.byte	0
 2644 0cc1 32       		.uleb128 0x32
 2645 0cc2 77000000 		.4byte	0x77
 2646 0cc6 D10C0000 		.4byte	0xcd1
 2647 0cca 33       		.uleb128 0x33
 2648 0ccb 4C000000 		.4byte	0x4c
 2649 0ccf 3F       		.byte	0x3f
 2650 0cd0 00       		.byte	0
 2651 0cd1 32       		.uleb128 0x32
 2652 0cd2 71000000 		.4byte	0x71
 2653 0cd6 E10C0000 		.4byte	0xce1
 2654 0cda 33       		.uleb128 0x33
ARM GAS  C:\Users\z80\AppData\Local\Temp\cc7vCSVh.s 			page 49


 2655 0cdb 4C000000 		.4byte	0x4c
 2656 0cdf 04       		.byte	0x4
 2657 0ce0 00       		.byte	0
 2658 0ce1 32       		.uleb128 0x32
 2659 0ce2 7C070000 		.4byte	0x77c
 2660 0ce6 F10C0000 		.4byte	0xcf1
 2661 0cea 33       		.uleb128 0x33
 2662 0ceb 4C000000 		.4byte	0x4c
 2663 0cef 02       		.byte	0x2
 2664 0cf0 00       		.byte	0
 2665 0cf1 2F       		.uleb128 0x2f
 2666 0cf2 7D020000 		.4byte	.LASF111
 2667 0cf6 01       		.byte	0x1
 2668 0cf7 7B       		.byte	0x7b
 2669 0cf8 E10C0000 		.4byte	0xce1
 2670 0cfc 05       		.byte	0x5
 2671 0cfd 03       		.byte	0x3
 2672 0cfe 00000000 		.4byte	local_commands
 2673 0d02 34       		.uleb128 0x34
 2674 0d03 10000000 		.4byte	.LASF112
 2675 0d07 08       		.byte	0x8
 2676 0d08 7A       		.byte	0x7a
 2677 0d09 11040000 		.4byte	0x411
 2678 0d0d 01       		.byte	0x1
 2679 0d0e 01       		.byte	0x1
 2680 0d0f 34       		.uleb128 0x34
 2681 0d10 2E040000 		.4byte	.LASF113
 2682 0d14 09       		.byte	0x9
 2683 0d15 72       		.byte	0x72
 2684 0d16 87040000 		.4byte	0x487
 2685 0d1a 01       		.byte	0x1
 2686 0d1b 01       		.byte	0x1
 2687 0d1c 35       		.uleb128 0x35
 2688 0d1d 50000000 		.4byte	.LASF114
 2689 0d21 0E       		.byte	0xe
 2690 0d22 9404     		.2byte	0x494
 2691 0d24 1F070000 		.4byte	0x71f
 2692 0d28 01       		.byte	0x1
 2693 0d29 01       		.byte	0x1
 2694 0d2a 36       		.uleb128 0x36
 2695 0d2b 87030000 		.4byte	.LASF115
 2696 0d2f 01       		.byte	0x1
 2697 0d30 2E       		.byte	0x2e
 2698 0d31 3D050000 		.4byte	0x53d
 2699 0d35 01       		.byte	0x1
 2700 0d36 05       		.byte	0x5
 2701 0d37 03       		.byte	0x3
 2702 0d38 00000000 		.4byte	shell_terminated
 2703 0d3c 00       		.byte	0
 2704              		.section	.debug_abbrev,"",%progbits
 2705              	.Ldebug_abbrev0:
 2706 0000 01       		.uleb128 0x1
 2707 0001 11       		.uleb128 0x11
 2708 0002 01       		.byte	0x1
 2709 0003 25       		.uleb128 0x25
 2710 0004 0E       		.uleb128 0xe
 2711 0005 13       		.uleb128 0x13
ARM GAS  C:\Users\z80\AppData\Local\Temp\cc7vCSVh.s 			page 50


 2712 0006 0B       		.uleb128 0xb
 2713 0007 03       		.uleb128 0x3
 2714 0008 0E       		.uleb128 0xe
 2715 0009 1B       		.uleb128 0x1b
 2716 000a 0E       		.uleb128 0xe
 2717 000b 11       		.uleb128 0x11
 2718 000c 01       		.uleb128 0x1
 2719 000d 52       		.uleb128 0x52
 2720 000e 01       		.uleb128 0x1
 2721 000f 55       		.uleb128 0x55
 2722 0010 06       		.uleb128 0x6
 2723 0011 10       		.uleb128 0x10
 2724 0012 06       		.uleb128 0x6
 2725 0013 00       		.byte	0
 2726 0014 00       		.byte	0
 2727 0015 02       		.uleb128 0x2
 2728 0016 24       		.uleb128 0x24
 2729 0017 00       		.byte	0
 2730 0018 0B       		.uleb128 0xb
 2731 0019 0B       		.uleb128 0xb
 2732 001a 3E       		.uleb128 0x3e
 2733 001b 0B       		.uleb128 0xb
 2734 001c 03       		.uleb128 0x3
 2735 001d 0E       		.uleb128 0xe
 2736 001e 00       		.byte	0
 2737 001f 00       		.byte	0
 2738 0020 03       		.uleb128 0x3
 2739 0021 24       		.uleb128 0x24
 2740 0022 00       		.byte	0
 2741 0023 0B       		.uleb128 0xb
 2742 0024 0B       		.uleb128 0xb
 2743 0025 3E       		.uleb128 0x3e
 2744 0026 0B       		.uleb128 0xb
 2745 0027 03       		.uleb128 0x3
 2746 0028 08       		.uleb128 0x8
 2747 0029 00       		.byte	0
 2748 002a 00       		.byte	0
 2749 002b 04       		.uleb128 0x4
 2750 002c 0F       		.uleb128 0xf
 2751 002d 00       		.byte	0
 2752 002e 0B       		.uleb128 0xb
 2753 002f 0B       		.uleb128 0xb
 2754 0030 00       		.byte	0
 2755 0031 00       		.byte	0
 2756 0032 05       		.uleb128 0x5
 2757 0033 0F       		.uleb128 0xf
 2758 0034 00       		.byte	0
 2759 0035 0B       		.uleb128 0xb
 2760 0036 0B       		.uleb128 0xb
 2761 0037 49       		.uleb128 0x49
 2762 0038 13       		.uleb128 0x13
 2763 0039 00       		.byte	0
 2764 003a 00       		.byte	0
 2765 003b 06       		.uleb128 0x6
 2766 003c 26       		.uleb128 0x26
 2767 003d 00       		.byte	0
 2768 003e 49       		.uleb128 0x49
ARM GAS  C:\Users\z80\AppData\Local\Temp\cc7vCSVh.s 			page 51


 2769 003f 13       		.uleb128 0x13
 2770 0040 00       		.byte	0
 2771 0041 00       		.byte	0
 2772 0042 07       		.uleb128 0x7
 2773 0043 16       		.uleb128 0x16
 2774 0044 00       		.byte	0
 2775 0045 03       		.uleb128 0x3
 2776 0046 0E       		.uleb128 0xe
 2777 0047 3A       		.uleb128 0x3a
 2778 0048 0B       		.uleb128 0xb
 2779 0049 3B       		.uleb128 0x3b
 2780 004a 0B       		.uleb128 0xb
 2781 004b 49       		.uleb128 0x49
 2782 004c 13       		.uleb128 0x13
 2783 004d 00       		.byte	0
 2784 004e 00       		.byte	0
 2785 004f 08       		.uleb128 0x8
 2786 0050 13       		.uleb128 0x13
 2787 0051 01       		.byte	0x1
 2788 0052 03       		.uleb128 0x3
 2789 0053 0E       		.uleb128 0xe
 2790 0054 0B       		.uleb128 0xb
 2791 0055 0B       		.uleb128 0xb
 2792 0056 3A       		.uleb128 0x3a
 2793 0057 0B       		.uleb128 0xb
 2794 0058 3B       		.uleb128 0x3b
 2795 0059 0B       		.uleb128 0xb
 2796 005a 01       		.uleb128 0x1
 2797 005b 13       		.uleb128 0x13
 2798 005c 00       		.byte	0
 2799 005d 00       		.byte	0
 2800 005e 09       		.uleb128 0x9
 2801 005f 0D       		.uleb128 0xd
 2802 0060 00       		.byte	0
 2803 0061 03       		.uleb128 0x3
 2804 0062 0E       		.uleb128 0xe
 2805 0063 3A       		.uleb128 0x3a
 2806 0064 0B       		.uleb128 0xb
 2807 0065 3B       		.uleb128 0x3b
 2808 0066 0B       		.uleb128 0xb
 2809 0067 49       		.uleb128 0x49
 2810 0068 13       		.uleb128 0x13
 2811 0069 38       		.uleb128 0x38
 2812 006a 0A       		.uleb128 0xa
 2813 006b 00       		.byte	0
 2814 006c 00       		.byte	0
 2815 006d 0A       		.uleb128 0xa
 2816 006e 0D       		.uleb128 0xd
 2817 006f 00       		.byte	0
 2818 0070 03       		.uleb128 0x3
 2819 0071 08       		.uleb128 0x8
 2820 0072 3A       		.uleb128 0x3a
 2821 0073 0B       		.uleb128 0xb
 2822 0074 3B       		.uleb128 0x3b
 2823 0075 0B       		.uleb128 0xb
 2824 0076 49       		.uleb128 0x49
 2825 0077 13       		.uleb128 0x13
ARM GAS  C:\Users\z80\AppData\Local\Temp\cc7vCSVh.s 			page 52


 2826 0078 38       		.uleb128 0x38
 2827 0079 0A       		.uleb128 0xa
 2828 007a 00       		.byte	0
 2829 007b 00       		.byte	0
 2830 007c 0B       		.uleb128 0xb
 2831 007d 13       		.uleb128 0x13
 2832 007e 01       		.byte	0x1
 2833 007f 0B       		.uleb128 0xb
 2834 0080 0B       		.uleb128 0xb
 2835 0081 3A       		.uleb128 0x3a
 2836 0082 0B       		.uleb128 0xb
 2837 0083 3B       		.uleb128 0x3b
 2838 0084 0B       		.uleb128 0xb
 2839 0085 01       		.uleb128 0x1
 2840 0086 13       		.uleb128 0x13
 2841 0087 00       		.byte	0
 2842 0088 00       		.byte	0
 2843 0089 0C       		.uleb128 0xc
 2844 008a 0D       		.uleb128 0xd
 2845 008b 00       		.byte	0
 2846 008c 03       		.uleb128 0x3
 2847 008d 08       		.uleb128 0x8
 2848 008e 3A       		.uleb128 0x3a
 2849 008f 0B       		.uleb128 0xb
 2850 0090 3B       		.uleb128 0x3b
 2851 0091 05       		.uleb128 0x5
 2852 0092 49       		.uleb128 0x49
 2853 0093 13       		.uleb128 0x13
 2854 0094 38       		.uleb128 0x38
 2855 0095 0A       		.uleb128 0xa
 2856 0096 00       		.byte	0
 2857 0097 00       		.byte	0
 2858 0098 0D       		.uleb128 0xd
 2859 0099 13       		.uleb128 0x13
 2860 009a 01       		.byte	0x1
 2861 009b 03       		.uleb128 0x3
 2862 009c 0E       		.uleb128 0xe
 2863 009d 0B       		.uleb128 0xb
 2864 009e 0B       		.uleb128 0xb
 2865 009f 3A       		.uleb128 0x3a
 2866 00a0 0B       		.uleb128 0xb
 2867 00a1 3B       		.uleb128 0x3b
 2868 00a2 05       		.uleb128 0x5
 2869 00a3 01       		.uleb128 0x1
 2870 00a4 13       		.uleb128 0x13
 2871 00a5 00       		.byte	0
 2872 00a6 00       		.byte	0
 2873 00a7 0E       		.uleb128 0xe
 2874 00a8 15       		.uleb128 0x15
 2875 00a9 01       		.byte	0x1
 2876 00aa 27       		.uleb128 0x27
 2877 00ab 0C       		.uleb128 0xc
 2878 00ac 01       		.uleb128 0x1
 2879 00ad 13       		.uleb128 0x13
 2880 00ae 00       		.byte	0
 2881 00af 00       		.byte	0
 2882 00b0 0F       		.uleb128 0xf
ARM GAS  C:\Users\z80\AppData\Local\Temp\cc7vCSVh.s 			page 53


 2883 00b1 05       		.uleb128 0x5
 2884 00b2 00       		.byte	0
 2885 00b3 49       		.uleb128 0x49
 2886 00b4 13       		.uleb128 0x13
 2887 00b5 00       		.byte	0
 2888 00b6 00       		.byte	0
 2889 00b7 10       		.uleb128 0x10
 2890 00b8 35       		.uleb128 0x35
 2891 00b9 00       		.byte	0
 2892 00ba 49       		.uleb128 0x49
 2893 00bb 13       		.uleb128 0x13
 2894 00bc 00       		.byte	0
 2895 00bd 00       		.byte	0
 2896 00be 11       		.uleb128 0x11
 2897 00bf 17       		.uleb128 0x17
 2898 00c0 01       		.byte	0x1
 2899 00c1 0B       		.uleb128 0xb
 2900 00c2 0B       		.uleb128 0xb
 2901 00c3 3A       		.uleb128 0x3a
 2902 00c4 0B       		.uleb128 0xb
 2903 00c5 3B       		.uleb128 0x3b
 2904 00c6 0B       		.uleb128 0xb
 2905 00c7 01       		.uleb128 0x1
 2906 00c8 13       		.uleb128 0x13
 2907 00c9 00       		.byte	0
 2908 00ca 00       		.byte	0
 2909 00cb 12       		.uleb128 0x12
 2910 00cc 0D       		.uleb128 0xd
 2911 00cd 00       		.byte	0
 2912 00ce 03       		.uleb128 0x3
 2913 00cf 0E       		.uleb128 0xe
 2914 00d0 3A       		.uleb128 0x3a
 2915 00d1 0B       		.uleb128 0xb
 2916 00d2 3B       		.uleb128 0x3b
 2917 00d3 0B       		.uleb128 0xb
 2918 00d4 49       		.uleb128 0x49
 2919 00d5 13       		.uleb128 0x13
 2920 00d6 00       		.byte	0
 2921 00d7 00       		.byte	0
 2922 00d8 13       		.uleb128 0x13
 2923 00d9 15       		.uleb128 0x15
 2924 00da 01       		.byte	0x1
 2925 00db 27       		.uleb128 0x27
 2926 00dc 0C       		.uleb128 0xc
 2927 00dd 49       		.uleb128 0x49
 2928 00de 13       		.uleb128 0x13
 2929 00df 01       		.uleb128 0x1
 2930 00e0 13       		.uleb128 0x13
 2931 00e1 00       		.byte	0
 2932 00e2 00       		.byte	0
 2933 00e3 14       		.uleb128 0x14
 2934 00e4 2E       		.uleb128 0x2e
 2935 00e5 01       		.byte	0x1
 2936 00e6 03       		.uleb128 0x3
 2937 00e7 0E       		.uleb128 0xe
 2938 00e8 3A       		.uleb128 0x3a
 2939 00e9 0B       		.uleb128 0xb
ARM GAS  C:\Users\z80\AppData\Local\Temp\cc7vCSVh.s 			page 54


 2940 00ea 3B       		.uleb128 0x3b
 2941 00eb 0B       		.uleb128 0xb
 2942 00ec 27       		.uleb128 0x27
 2943 00ed 0C       		.uleb128 0xc
 2944 00ee 20       		.uleb128 0x20
 2945 00ef 0B       		.uleb128 0xb
 2946 00f0 01       		.uleb128 0x1
 2947 00f1 13       		.uleb128 0x13
 2948 00f2 00       		.byte	0
 2949 00f3 00       		.byte	0
 2950 00f4 15       		.uleb128 0x15
 2951 00f5 05       		.uleb128 0x5
 2952 00f6 00       		.byte	0
 2953 00f7 03       		.uleb128 0x3
 2954 00f8 08       		.uleb128 0x8
 2955 00f9 3A       		.uleb128 0x3a
 2956 00fa 0B       		.uleb128 0xb
 2957 00fb 3B       		.uleb128 0x3b
 2958 00fc 0B       		.uleb128 0xb
 2959 00fd 49       		.uleb128 0x49
 2960 00fe 13       		.uleb128 0x13
 2961 00ff 00       		.byte	0
 2962 0100 00       		.byte	0
 2963 0101 16       		.uleb128 0x16
 2964 0102 05       		.uleb128 0x5
 2965 0103 00       		.byte	0
 2966 0104 03       		.uleb128 0x3
 2967 0105 0E       		.uleb128 0xe
 2968 0106 3A       		.uleb128 0x3a
 2969 0107 0B       		.uleb128 0xb
 2970 0108 3B       		.uleb128 0x3b
 2971 0109 0B       		.uleb128 0xb
 2972 010a 49       		.uleb128 0x49
 2973 010b 13       		.uleb128 0x13
 2974 010c 00       		.byte	0
 2975 010d 00       		.byte	0
 2976 010e 17       		.uleb128 0x17
 2977 010f 2E       		.uleb128 0x2e
 2978 0110 01       		.byte	0x1
 2979 0111 03       		.uleb128 0x3
 2980 0112 0E       		.uleb128 0xe
 2981 0113 3A       		.uleb128 0x3a
 2982 0114 0B       		.uleb128 0xb
 2983 0115 3B       		.uleb128 0x3b
 2984 0116 0B       		.uleb128 0xb
 2985 0117 27       		.uleb128 0x27
 2986 0118 0C       		.uleb128 0xc
 2987 0119 49       		.uleb128 0x49
 2988 011a 13       		.uleb128 0x13
 2989 011b 20       		.uleb128 0x20
 2990 011c 0B       		.uleb128 0xb
 2991 011d 01       		.uleb128 0x1
 2992 011e 13       		.uleb128 0x13
 2993 011f 00       		.byte	0
 2994 0120 00       		.byte	0
 2995 0121 18       		.uleb128 0x18
 2996 0122 34       		.uleb128 0x34
ARM GAS  C:\Users\z80\AppData\Local\Temp\cc7vCSVh.s 			page 55


 2997 0123 00       		.byte	0
 2998 0124 03       		.uleb128 0x3
 2999 0125 0E       		.uleb128 0xe
 3000 0126 3A       		.uleb128 0x3a
 3001 0127 0B       		.uleb128 0xb
 3002 0128 3B       		.uleb128 0x3b
 3003 0129 0B       		.uleb128 0xb
 3004 012a 49       		.uleb128 0x49
 3005 012b 13       		.uleb128 0x13
 3006 012c 00       		.byte	0
 3007 012d 00       		.byte	0
 3008 012e 19       		.uleb128 0x19
 3009 012f 2E       		.uleb128 0x2e
 3010 0130 01       		.byte	0x1
 3011 0131 31       		.uleb128 0x31
 3012 0132 13       		.uleb128 0x13
 3013 0133 11       		.uleb128 0x11
 3014 0134 01       		.uleb128 0x1
 3015 0135 12       		.uleb128 0x12
 3016 0136 01       		.uleb128 0x1
 3017 0137 40       		.uleb128 0x40
 3018 0138 0A       		.uleb128 0xa
 3019 0139 01       		.uleb128 0x1
 3020 013a 13       		.uleb128 0x13
 3021 013b 00       		.byte	0
 3022 013c 00       		.byte	0
 3023 013d 1A       		.uleb128 0x1a
 3024 013e 05       		.uleb128 0x5
 3025 013f 00       		.byte	0
 3026 0140 31       		.uleb128 0x31
 3027 0141 13       		.uleb128 0x13
 3028 0142 02       		.uleb128 0x2
 3029 0143 06       		.uleb128 0x6
 3030 0144 00       		.byte	0
 3031 0145 00       		.byte	0
 3032 0146 1B       		.uleb128 0x1b
 3033 0147 1D       		.uleb128 0x1d
 3034 0148 01       		.byte	0x1
 3035 0149 31       		.uleb128 0x31
 3036 014a 13       		.uleb128 0x13
 3037 014b 52       		.uleb128 0x52
 3038 014c 01       		.uleb128 0x1
 3039 014d 55       		.uleb128 0x55
 3040 014e 06       		.uleb128 0x6
 3041 014f 58       		.uleb128 0x58
 3042 0150 0B       		.uleb128 0xb
 3043 0151 59       		.uleb128 0x59
 3044 0152 0B       		.uleb128 0xb
 3045 0153 01       		.uleb128 0x1
 3046 0154 13       		.uleb128 0x13
 3047 0155 00       		.byte	0
 3048 0156 00       		.byte	0
 3049 0157 1C       		.uleb128 0x1c
 3050 0158 05       		.uleb128 0x5
 3051 0159 00       		.byte	0
 3052 015a 31       		.uleb128 0x31
 3053 015b 13       		.uleb128 0x13
ARM GAS  C:\Users\z80\AppData\Local\Temp\cc7vCSVh.s 			page 56


 3054 015c 00       		.byte	0
 3055 015d 00       		.byte	0
 3056 015e 1D       		.uleb128 0x1d
 3057 015f 1D       		.uleb128 0x1d
 3058 0160 01       		.byte	0x1
 3059 0161 31       		.uleb128 0x31
 3060 0162 13       		.uleb128 0x13
 3061 0163 52       		.uleb128 0x52
 3062 0164 01       		.uleb128 0x1
 3063 0165 55       		.uleb128 0x55
 3064 0166 06       		.uleb128 0x6
 3065 0167 58       		.uleb128 0x58
 3066 0168 0B       		.uleb128 0xb
 3067 0169 59       		.uleb128 0x59
 3068 016a 0B       		.uleb128 0xb
 3069 016b 00       		.byte	0
 3070 016c 00       		.byte	0
 3071 016d 1E       		.uleb128 0x1e
 3072 016e 0B       		.uleb128 0xb
 3073 016f 01       		.byte	0x1
 3074 0170 55       		.uleb128 0x55
 3075 0171 06       		.uleb128 0x6
 3076 0172 00       		.byte	0
 3077 0173 00       		.byte	0
 3078 0174 1F       		.uleb128 0x1f
 3079 0175 2E       		.uleb128 0x2e
 3080 0176 01       		.byte	0x1
 3081 0177 31       		.uleb128 0x31
 3082 0178 13       		.uleb128 0x13
 3083 0179 11       		.uleb128 0x11
 3084 017a 01       		.uleb128 0x1
 3085 017b 12       		.uleb128 0x12
 3086 017c 01       		.uleb128 0x1
 3087 017d 40       		.uleb128 0x40
 3088 017e 06       		.uleb128 0x6
 3089 017f 01       		.uleb128 0x1
 3090 0180 13       		.uleb128 0x13
 3091 0181 00       		.byte	0
 3092 0182 00       		.byte	0
 3093 0183 20       		.uleb128 0x20
 3094 0184 1D       		.uleb128 0x1d
 3095 0185 01       		.byte	0x1
 3096 0186 31       		.uleb128 0x31
 3097 0187 13       		.uleb128 0x13
 3098 0188 11       		.uleb128 0x11
 3099 0189 01       		.uleb128 0x1
 3100 018a 12       		.uleb128 0x12
 3101 018b 01       		.uleb128 0x1
 3102 018c 58       		.uleb128 0x58
 3103 018d 0B       		.uleb128 0xb
 3104 018e 59       		.uleb128 0x59
 3105 018f 0B       		.uleb128 0xb
 3106 0190 00       		.byte	0
 3107 0191 00       		.byte	0
 3108 0192 21       		.uleb128 0x21
 3109 0193 05       		.uleb128 0x5
 3110 0194 00       		.byte	0
ARM GAS  C:\Users\z80\AppData\Local\Temp\cc7vCSVh.s 			page 57


 3111 0195 31       		.uleb128 0x31
 3112 0196 13       		.uleb128 0x13
 3113 0197 02       		.uleb128 0x2
 3114 0198 0A       		.uleb128 0xa
 3115 0199 00       		.byte	0
 3116 019a 00       		.byte	0
 3117 019b 22       		.uleb128 0x22
 3118 019c 0B       		.uleb128 0xb
 3119 019d 01       		.byte	0x1
 3120 019e 11       		.uleb128 0x11
 3121 019f 01       		.uleb128 0x1
 3122 01a0 12       		.uleb128 0x12
 3123 01a1 01       		.uleb128 0x1
 3124 01a2 00       		.byte	0
 3125 01a3 00       		.byte	0
 3126 01a4 23       		.uleb128 0x23
 3127 01a5 34       		.uleb128 0x34
 3128 01a6 00       		.byte	0
 3129 01a7 31       		.uleb128 0x31
 3130 01a8 13       		.uleb128 0x13
 3131 01a9 02       		.uleb128 0x2
 3132 01aa 06       		.uleb128 0x6
 3133 01ab 00       		.byte	0
 3134 01ac 00       		.byte	0
 3135 01ad 24       		.uleb128 0x24
 3136 01ae 2E       		.uleb128 0x2e
 3137 01af 00       		.byte	0
 3138 01b0 3F       		.uleb128 0x3f
 3139 01b1 0C       		.uleb128 0xc
 3140 01b2 03       		.uleb128 0x3
 3141 01b3 0E       		.uleb128 0xe
 3142 01b4 3A       		.uleb128 0x3a
 3143 01b5 0B       		.uleb128 0xb
 3144 01b6 3B       		.uleb128 0x3b
 3145 01b7 0B       		.uleb128 0xb
 3146 01b8 27       		.uleb128 0x27
 3147 01b9 0C       		.uleb128 0xc
 3148 01ba 11       		.uleb128 0x11
 3149 01bb 01       		.uleb128 0x1
 3150 01bc 12       		.uleb128 0x12
 3151 01bd 01       		.uleb128 0x1
 3152 01be 40       		.uleb128 0x40
 3153 01bf 0A       		.uleb128 0xa
 3154 01c0 00       		.byte	0
 3155 01c1 00       		.byte	0
 3156 01c2 25       		.uleb128 0x25
 3157 01c3 2E       		.uleb128 0x2e
 3158 01c4 01       		.byte	0x1
 3159 01c5 3F       		.uleb128 0x3f
 3160 01c6 0C       		.uleb128 0xc
 3161 01c7 03       		.uleb128 0x3
 3162 01c8 0E       		.uleb128 0xe
 3163 01c9 3A       		.uleb128 0x3a
 3164 01ca 0B       		.uleb128 0xb
 3165 01cb 3B       		.uleb128 0x3b
 3166 01cc 0B       		.uleb128 0xb
 3167 01cd 27       		.uleb128 0x27
ARM GAS  C:\Users\z80\AppData\Local\Temp\cc7vCSVh.s 			page 58


 3168 01ce 0C       		.uleb128 0xc
 3169 01cf 49       		.uleb128 0x49
 3170 01d0 13       		.uleb128 0x13
 3171 01d1 11       		.uleb128 0x11
 3172 01d2 01       		.uleb128 0x1
 3173 01d3 12       		.uleb128 0x12
 3174 01d4 01       		.uleb128 0x1
 3175 01d5 40       		.uleb128 0x40
 3176 01d6 06       		.uleb128 0x6
 3177 01d7 01       		.uleb128 0x1
 3178 01d8 13       		.uleb128 0x13
 3179 01d9 00       		.byte	0
 3180 01da 00       		.byte	0
 3181 01db 26       		.uleb128 0x26
 3182 01dc 05       		.uleb128 0x5
 3183 01dd 00       		.byte	0
 3184 01de 03       		.uleb128 0x3
 3185 01df 08       		.uleb128 0x8
 3186 01e0 3A       		.uleb128 0x3a
 3187 01e1 0B       		.uleb128 0xb
 3188 01e2 3B       		.uleb128 0x3b
 3189 01e3 0B       		.uleb128 0xb
 3190 01e4 49       		.uleb128 0x49
 3191 01e5 13       		.uleb128 0x13
 3192 01e6 02       		.uleb128 0x2
 3193 01e7 06       		.uleb128 0x6
 3194 01e8 00       		.byte	0
 3195 01e9 00       		.byte	0
 3196 01ea 27       		.uleb128 0x27
 3197 01eb 05       		.uleb128 0x5
 3198 01ec 00       		.byte	0
 3199 01ed 03       		.uleb128 0x3
 3200 01ee 0E       		.uleb128 0xe
 3201 01ef 3A       		.uleb128 0x3a
 3202 01f0 0B       		.uleb128 0xb
 3203 01f1 3B       		.uleb128 0x3b
 3204 01f2 0B       		.uleb128 0xb
 3205 01f3 49       		.uleb128 0x49
 3206 01f4 13       		.uleb128 0x13
 3207 01f5 02       		.uleb128 0x2
 3208 01f6 06       		.uleb128 0x6
 3209 01f7 00       		.byte	0
 3210 01f8 00       		.byte	0
 3211 01f9 28       		.uleb128 0x28
 3212 01fa 2E       		.uleb128 0x2e
 3213 01fb 01       		.byte	0x1
 3214 01fc 3F       		.uleb128 0x3f
 3215 01fd 0C       		.uleb128 0xc
 3216 01fe 03       		.uleb128 0x3
 3217 01ff 0E       		.uleb128 0xe
 3218 0200 3A       		.uleb128 0x3a
 3219 0201 0B       		.uleb128 0xb
 3220 0202 3B       		.uleb128 0x3b
 3221 0203 05       		.uleb128 0x5
 3222 0204 27       		.uleb128 0x27
 3223 0205 0C       		.uleb128 0xc
 3224 0206 49       		.uleb128 0x49
ARM GAS  C:\Users\z80\AppData\Local\Temp\cc7vCSVh.s 			page 59


 3225 0207 13       		.uleb128 0x13
 3226 0208 11       		.uleb128 0x11
 3227 0209 01       		.uleb128 0x1
 3228 020a 12       		.uleb128 0x12
 3229 020b 01       		.uleb128 0x1
 3230 020c 40       		.uleb128 0x40
 3231 020d 06       		.uleb128 0x6
 3232 020e 01       		.uleb128 0x1
 3233 020f 13       		.uleb128 0x13
 3234 0210 00       		.byte	0
 3235 0211 00       		.byte	0
 3236 0212 29       		.uleb128 0x29
 3237 0213 05       		.uleb128 0x5
 3238 0214 00       		.byte	0
 3239 0215 03       		.uleb128 0x3
 3240 0216 08       		.uleb128 0x8
 3241 0217 3A       		.uleb128 0x3a
 3242 0218 0B       		.uleb128 0xb
 3243 0219 3B       		.uleb128 0x3b
 3244 021a 05       		.uleb128 0x5
 3245 021b 49       		.uleb128 0x49
 3246 021c 13       		.uleb128 0x13
 3247 021d 02       		.uleb128 0x2
 3248 021e 06       		.uleb128 0x6
 3249 021f 00       		.byte	0
 3250 0220 00       		.byte	0
 3251 0221 2A       		.uleb128 0x2a
 3252 0222 05       		.uleb128 0x5
 3253 0223 00       		.byte	0
 3254 0224 03       		.uleb128 0x3
 3255 0225 0E       		.uleb128 0xe
 3256 0226 3A       		.uleb128 0x3a
 3257 0227 0B       		.uleb128 0xb
 3258 0228 3B       		.uleb128 0x3b
 3259 0229 05       		.uleb128 0x5
 3260 022a 49       		.uleb128 0x49
 3261 022b 13       		.uleb128 0x13
 3262 022c 02       		.uleb128 0x2
 3263 022d 06       		.uleb128 0x6
 3264 022e 00       		.byte	0
 3265 022f 00       		.byte	0
 3266 0230 2B       		.uleb128 0x2b
 3267 0231 34       		.uleb128 0x34
 3268 0232 00       		.byte	0
 3269 0233 03       		.uleb128 0x3
 3270 0234 08       		.uleb128 0x8
 3271 0235 3A       		.uleb128 0x3a
 3272 0236 0B       		.uleb128 0xb
 3273 0237 3B       		.uleb128 0x3b
 3274 0238 05       		.uleb128 0x5
 3275 0239 49       		.uleb128 0x49
 3276 023a 13       		.uleb128 0x13
 3277 023b 02       		.uleb128 0x2
 3278 023c 06       		.uleb128 0x6
 3279 023d 00       		.byte	0
 3280 023e 00       		.byte	0
 3281 023f 2C       		.uleb128 0x2c
ARM GAS  C:\Users\z80\AppData\Local\Temp\cc7vCSVh.s 			page 60


 3282 0240 2E       		.uleb128 0x2e
 3283 0241 01       		.byte	0x1
 3284 0242 03       		.uleb128 0x3
 3285 0243 0E       		.uleb128 0xe
 3286 0244 3A       		.uleb128 0x3a
 3287 0245 0B       		.uleb128 0xb
 3288 0246 3B       		.uleb128 0x3b
 3289 0247 0B       		.uleb128 0xb
 3290 0248 27       		.uleb128 0x27
 3291 0249 0C       		.uleb128 0xc
 3292 024a 49       		.uleb128 0x49
 3293 024b 13       		.uleb128 0x13
 3294 024c 11       		.uleb128 0x11
 3295 024d 01       		.uleb128 0x1
 3296 024e 12       		.uleb128 0x12
 3297 024f 01       		.uleb128 0x1
 3298 0250 40       		.uleb128 0x40
 3299 0251 06       		.uleb128 0x6
 3300 0252 01       		.uleb128 0x1
 3301 0253 13       		.uleb128 0x13
 3302 0254 00       		.byte	0
 3303 0255 00       		.byte	0
 3304 0256 2D       		.uleb128 0x2d
 3305 0257 34       		.uleb128 0x34
 3306 0258 00       		.byte	0
 3307 0259 03       		.uleb128 0x3
 3308 025a 08       		.uleb128 0x8
 3309 025b 3A       		.uleb128 0x3a
 3310 025c 0B       		.uleb128 0xb
 3311 025d 3B       		.uleb128 0x3b
 3312 025e 0B       		.uleb128 0xb
 3313 025f 49       		.uleb128 0x49
 3314 0260 13       		.uleb128 0x13
 3315 0261 02       		.uleb128 0x2
 3316 0262 06       		.uleb128 0x6
 3317 0263 00       		.byte	0
 3318 0264 00       		.byte	0
 3319 0265 2E       		.uleb128 0x2e
 3320 0266 34       		.uleb128 0x34
 3321 0267 00       		.byte	0
 3322 0268 03       		.uleb128 0x3
 3323 0269 08       		.uleb128 0x8
 3324 026a 3A       		.uleb128 0x3a
 3325 026b 0B       		.uleb128 0xb
 3326 026c 3B       		.uleb128 0x3b
 3327 026d 0B       		.uleb128 0xb
 3328 026e 49       		.uleb128 0x49
 3329 026f 13       		.uleb128 0x13
 3330 0270 1C       		.uleb128 0x1c
 3331 0271 0B       		.uleb128 0xb
 3332 0272 00       		.byte	0
 3333 0273 00       		.byte	0
 3334 0274 2F       		.uleb128 0x2f
 3335 0275 34       		.uleb128 0x34
 3336 0276 00       		.byte	0
 3337 0277 03       		.uleb128 0x3
 3338 0278 0E       		.uleb128 0xe
ARM GAS  C:\Users\z80\AppData\Local\Temp\cc7vCSVh.s 			page 61


 3339 0279 3A       		.uleb128 0x3a
 3340 027a 0B       		.uleb128 0xb
 3341 027b 3B       		.uleb128 0x3b
 3342 027c 0B       		.uleb128 0xb
 3343 027d 49       		.uleb128 0x49
 3344 027e 13       		.uleb128 0x13
 3345 027f 02       		.uleb128 0x2
 3346 0280 0A       		.uleb128 0xa
 3347 0281 00       		.byte	0
 3348 0282 00       		.byte	0
 3349 0283 30       		.uleb128 0x30
 3350 0284 0B       		.uleb128 0xb
 3351 0285 01       		.byte	0x1
 3352 0286 11       		.uleb128 0x11
 3353 0287 01       		.uleb128 0x1
 3354 0288 12       		.uleb128 0x12
 3355 0289 01       		.uleb128 0x1
 3356 028a 01       		.uleb128 0x1
 3357 028b 13       		.uleb128 0x13
 3358 028c 00       		.byte	0
 3359 028d 00       		.byte	0
 3360 028e 31       		.uleb128 0x31
 3361 028f 1D       		.uleb128 0x1d
 3362 0290 01       		.byte	0x1
 3363 0291 31       		.uleb128 0x31
 3364 0292 13       		.uleb128 0x13
 3365 0293 11       		.uleb128 0x11
 3366 0294 01       		.uleb128 0x1
 3367 0295 12       		.uleb128 0x12
 3368 0296 01       		.uleb128 0x1
 3369 0297 58       		.uleb128 0x58
 3370 0298 0B       		.uleb128 0xb
 3371 0299 59       		.uleb128 0x59
 3372 029a 0B       		.uleb128 0xb
 3373 029b 01       		.uleb128 0x1
 3374 029c 13       		.uleb128 0x13
 3375 029d 00       		.byte	0
 3376 029e 00       		.byte	0
 3377 029f 32       		.uleb128 0x32
 3378 02a0 01       		.uleb128 0x1
 3379 02a1 01       		.byte	0x1
 3380 02a2 49       		.uleb128 0x49
 3381 02a3 13       		.uleb128 0x13
 3382 02a4 01       		.uleb128 0x1
 3383 02a5 13       		.uleb128 0x13
 3384 02a6 00       		.byte	0
 3385 02a7 00       		.byte	0
 3386 02a8 33       		.uleb128 0x33
 3387 02a9 21       		.uleb128 0x21
 3388 02aa 00       		.byte	0
 3389 02ab 49       		.uleb128 0x49
 3390 02ac 13       		.uleb128 0x13
 3391 02ad 2F       		.uleb128 0x2f
 3392 02ae 0B       		.uleb128 0xb
 3393 02af 00       		.byte	0
 3394 02b0 00       		.byte	0
 3395 02b1 34       		.uleb128 0x34
ARM GAS  C:\Users\z80\AppData\Local\Temp\cc7vCSVh.s 			page 62


 3396 02b2 34       		.uleb128 0x34
 3397 02b3 00       		.byte	0
 3398 02b4 03       		.uleb128 0x3
 3399 02b5 0E       		.uleb128 0xe
 3400 02b6 3A       		.uleb128 0x3a
 3401 02b7 0B       		.uleb128 0xb
 3402 02b8 3B       		.uleb128 0x3b
 3403 02b9 0B       		.uleb128 0xb
 3404 02ba 49       		.uleb128 0x49
 3405 02bb 13       		.uleb128 0x13
 3406 02bc 3F       		.uleb128 0x3f
 3407 02bd 0C       		.uleb128 0xc
 3408 02be 3C       		.uleb128 0x3c
 3409 02bf 0C       		.uleb128 0xc
 3410 02c0 00       		.byte	0
 3411 02c1 00       		.byte	0
 3412 02c2 35       		.uleb128 0x35
 3413 02c3 34       		.uleb128 0x34
 3414 02c4 00       		.byte	0
 3415 02c5 03       		.uleb128 0x3
 3416 02c6 0E       		.uleb128 0xe
 3417 02c7 3A       		.uleb128 0x3a
 3418 02c8 0B       		.uleb128 0xb
 3419 02c9 3B       		.uleb128 0x3b
 3420 02ca 05       		.uleb128 0x5
 3421 02cb 49       		.uleb128 0x49
 3422 02cc 13       		.uleb128 0x13
 3423 02cd 3F       		.uleb128 0x3f
 3424 02ce 0C       		.uleb128 0xc
 3425 02cf 3C       		.uleb128 0x3c
 3426 02d0 0C       		.uleb128 0xc
 3427 02d1 00       		.byte	0
 3428 02d2 00       		.byte	0
 3429 02d3 36       		.uleb128 0x36
 3430 02d4 34       		.uleb128 0x34
 3431 02d5 00       		.byte	0
 3432 02d6 03       		.uleb128 0x3
 3433 02d7 0E       		.uleb128 0xe
 3434 02d8 3A       		.uleb128 0x3a
 3435 02d9 0B       		.uleb128 0xb
 3436 02da 3B       		.uleb128 0x3b
 3437 02db 0B       		.uleb128 0xb
 3438 02dc 49       		.uleb128 0x49
 3439 02dd 13       		.uleb128 0x13
 3440 02de 3F       		.uleb128 0x3f
 3441 02df 0C       		.uleb128 0xc
 3442 02e0 02       		.uleb128 0x2
 3443 02e1 0A       		.uleb128 0xa
 3444 02e2 00       		.byte	0
 3445 02e3 00       		.byte	0
 3446 02e4 00       		.byte	0
 3447              		.section	.debug_loc,"",%progbits
 3448              	.Ldebug_loc0:
 3449              	.LLST0:
 3450 0000 00000000 		.4byte	.LVL0
 3451 0004 17000000 		.4byte	.LVL4-1
 3452 0008 0100     		.2byte	0x1
ARM GAS  C:\Users\z80\AppData\Local\Temp\cc7vCSVh.s 			page 63


 3453 000a 50       		.byte	0x50
 3454 000b 18000000 		.4byte	.LVL4
 3455 000f 2D000000 		.4byte	.LVL7-1
 3456 0013 0100     		.2byte	0x1
 3457 0015 50       		.byte	0x50
 3458 0016 00000000 		.4byte	0
 3459 001a 00000000 		.4byte	0
 3460              	.LLST1:
 3461 001e 00000000 		.4byte	.LVL0
 3462 0022 08000000 		.4byte	.LVL2
 3463 0026 0100     		.2byte	0x1
 3464 0028 51       		.byte	0x51
 3465 0029 18000000 		.4byte	.LVL4
 3466 002d 26000000 		.4byte	.LVL6
 3467 0031 0100     		.2byte	0x1
 3468 0033 51       		.byte	0x51
 3469 0034 00000000 		.4byte	0
 3470 0038 00000000 		.4byte	0
 3471              	.LLST2:
 3472 003c 00000000 		.4byte	.LVL0
 3473 0040 0C000000 		.4byte	.LVL3
 3474 0044 0100     		.2byte	0x1
 3475 0046 52       		.byte	0x52
 3476 0047 18000000 		.4byte	.LVL4
 3477 004b 22000000 		.4byte	.LVL5
 3478 004f 0100     		.2byte	0x1
 3479 0051 52       		.byte	0x52
 3480 0052 00000000 		.4byte	0
 3481 0056 00000000 		.4byte	0
 3482              	.LLST3:
 3483 005a 04000000 		.4byte	.LVL1
 3484 005e 18000000 		.4byte	.LVL4
 3485 0062 0600     		.2byte	0x6
 3486 0064 03       		.byte	0x3
 3487 0065 0C000000 		.4byte	.LC1
 3488 0069 9F       		.byte	0x9f
 3489 006a 00000000 		.4byte	0
 3490 006e 00000000 		.4byte	0
 3491              	.LLST4:
 3492 0072 00000000 		.4byte	.LFB65
 3493 0076 02000000 		.4byte	.LCFI0
 3494 007a 0200     		.2byte	0x2
 3495 007c 7D       		.byte	0x7d
 3496 007d 00       		.sleb128 0
 3497 007e 02000000 		.4byte	.LCFI0
 3498 0082 06000000 		.4byte	.LCFI1
 3499 0086 0200     		.2byte	0x2
 3500 0088 7D       		.byte	0x7d
 3501 0089 0C       		.sleb128 12
 3502 008a 06000000 		.4byte	.LCFI1
 3503 008e E8000000 		.4byte	.LFE65
 3504 0092 0200     		.2byte	0x2
 3505 0094 7D       		.byte	0x7d
 3506 0095 18       		.sleb128 24
 3507 0096 00000000 		.4byte	0
 3508 009a 00000000 		.4byte	0
 3509              	.LLST5:
ARM GAS  C:\Users\z80\AppData\Local\Temp\cc7vCSVh.s 			page 64


 3510 009e 00000000 		.4byte	.LVL8
 3511 00a2 23000000 		.4byte	.LVL12-1
 3512 00a6 0100     		.2byte	0x1
 3513 00a8 50       		.byte	0x50
 3514 00a9 23000000 		.4byte	.LVL12-1
 3515 00ad E8000000 		.4byte	.LFE65
 3516 00b1 0100     		.2byte	0x1
 3517 00b3 54       		.byte	0x54
 3518 00b4 00000000 		.4byte	0
 3519 00b8 00000000 		.4byte	0
 3520              	.LLST6:
 3521 00bc 00000000 		.4byte	.LVL8
 3522 00c0 0E000000 		.4byte	.LVL10
 3523 00c4 0100     		.2byte	0x1
 3524 00c6 51       		.byte	0x51
 3525 00c7 24000000 		.4byte	.LVL12
 3526 00cb 28000000 		.4byte	.LVL13
 3527 00cf 0100     		.2byte	0x1
 3528 00d1 51       		.byte	0x51
 3529 00d2 00000000 		.4byte	0
 3530 00d6 00000000 		.4byte	0
 3531              	.LLST7:
 3532 00da 00000000 		.4byte	.LVL8
 3533 00de 12000000 		.4byte	.LVL11
 3534 00e2 0100     		.2byte	0x1
 3535 00e4 52       		.byte	0x52
 3536 00e5 24000000 		.4byte	.LVL12
 3537 00e9 2C000000 		.4byte	.LVL14
 3538 00ed 0100     		.2byte	0x1
 3539 00ef 52       		.byte	0x52
 3540 00f0 00000000 		.4byte	0
 3541 00f4 00000000 		.4byte	0
 3542              	.LLST8:
 3543 00f8 0A000000 		.4byte	.LVL9
 3544 00fc 24000000 		.4byte	.LVL12
 3545 0100 0600     		.2byte	0x6
 3546 0102 03       		.byte	0x3
 3547 0103 1C000000 		.4byte	.LC3
 3548 0107 9F       		.byte	0x9f
 3549 0108 00000000 		.4byte	0
 3550 010c 00000000 		.4byte	0
 3551              	.LLST9:
 3552 0110 00000000 		.4byte	.LFB74
 3553 0114 02000000 		.4byte	.LCFI2
 3554 0118 0200     		.2byte	0x2
 3555 011a 7D       		.byte	0x7d
 3556 011b 00       		.sleb128 0
 3557 011c 02000000 		.4byte	.LCFI2
 3558 0120 44000000 		.4byte	.LFE74
 3559 0124 0200     		.2byte	0x2
 3560 0126 7D       		.byte	0x7d
 3561 0127 10       		.sleb128 16
 3562 0128 00000000 		.4byte	0
 3563 012c 00000000 		.4byte	0
 3564              	.LLST10:
 3565 0130 00000000 		.4byte	.LVL15
 3566 0134 14000000 		.4byte	.LVL18
ARM GAS  C:\Users\z80\AppData\Local\Temp\cc7vCSVh.s 			page 65


 3567 0138 0100     		.2byte	0x1
 3568 013a 50       		.byte	0x50
 3569 013b 3A000000 		.4byte	.LVL20
 3570 013f 42000000 		.4byte	.LVL22
 3571 0143 0100     		.2byte	0x1
 3572 0145 50       		.byte	0x50
 3573 0146 00000000 		.4byte	0
 3574 014a 00000000 		.4byte	0
 3575              	.LLST11:
 3576 014e 00000000 		.4byte	.LVL15
 3577 0152 0E000000 		.4byte	.LVL17
 3578 0156 0100     		.2byte	0x1
 3579 0158 51       		.byte	0x51
 3580 0159 0E000000 		.4byte	.LVL17
 3581 015d 44000000 		.4byte	.LFE74
 3582 0161 0100     		.2byte	0x1
 3583 0163 55       		.byte	0x55
 3584 0164 00000000 		.4byte	0
 3585 0168 00000000 		.4byte	0
 3586              	.LLST12:
 3587 016c 0A000000 		.4byte	.LVL16
 3588 0170 3A000000 		.4byte	.LVL20
 3589 0174 0100     		.2byte	0x1
 3590 0176 54       		.byte	0x54
 3591 0177 3C000000 		.4byte	.LVL21
 3592 017b 44000000 		.4byte	.LFE74
 3593 017f 0200     		.2byte	0x2
 3594 0181 75       		.byte	0x75
 3595 0182 00       		.sleb128 0
 3596 0183 00000000 		.4byte	0
 3597 0187 00000000 		.4byte	0
 3598              	.LLST13:
 3599 018b 00000000 		.4byte	.LFB70
 3600 018f 02000000 		.4byte	.LCFI3
 3601 0193 0200     		.2byte	0x2
 3602 0195 7D       		.byte	0x7d
 3603 0196 00       		.sleb128 0
 3604 0197 02000000 		.4byte	.LCFI3
 3605 019b 04000000 		.4byte	.LCFI4
 3606 019f 0200     		.2byte	0x2
 3607 01a1 7D       		.byte	0x7d
 3608 01a2 04       		.sleb128 4
 3609 01a3 04000000 		.4byte	.LCFI4
 3610 01a7 1C000000 		.4byte	.LFE70
 3611 01ab 0200     		.2byte	0x2
 3612 01ad 7D       		.byte	0x7d
 3613 01ae 10       		.sleb128 16
 3614 01af 00000000 		.4byte	0
 3615 01b3 00000000 		.4byte	0
 3616              	.LLST14:
 3617 01b7 00000000 		.4byte	.LVL23
 3618 01bb 08000000 		.4byte	.LVL24
 3619 01bf 0100     		.2byte	0x1
 3620 01c1 50       		.byte	0x50
 3621 01c2 08000000 		.4byte	.LVL24
 3622 01c6 17000000 		.4byte	.LVL28-1
 3623 01ca 0200     		.2byte	0x2
ARM GAS  C:\Users\z80\AppData\Local\Temp\cc7vCSVh.s 			page 66


 3624 01cc 7D       		.byte	0x7d
 3625 01cd 00       		.sleb128 0
 3626 01ce 00000000 		.4byte	0
 3627 01d2 00000000 		.4byte	0
 3628              	.LLST15:
 3629 01d6 00000000 		.4byte	.LVL23
 3630 01da 0A000000 		.4byte	.LVL25
 3631 01de 0100     		.2byte	0x1
 3632 01e0 51       		.byte	0x51
 3633 01e1 0A000000 		.4byte	.LVL25
 3634 01e5 17000000 		.4byte	.LVL28-1
 3635 01e9 0100     		.2byte	0x1
 3636 01eb 50       		.byte	0x50
 3637 01ec 00000000 		.4byte	0
 3638 01f0 00000000 		.4byte	0
 3639              	.LLST16:
 3640 01f4 00000000 		.4byte	.LVL23
 3641 01f8 0C000000 		.4byte	.LVL26
 3642 01fc 0100     		.2byte	0x1
 3643 01fe 52       		.byte	0x52
 3644 01ff 0C000000 		.4byte	.LVL26
 3645 0203 17000000 		.4byte	.LVL28-1
 3646 0207 0100     		.2byte	0x1
 3647 0209 51       		.byte	0x51
 3648 020a 00000000 		.4byte	0
 3649 020e 00000000 		.4byte	0
 3650              	.LLST17:
 3651 0212 00000000 		.4byte	.LVL23
 3652 0216 10000000 		.4byte	.LVL27
 3653 021a 0100     		.2byte	0x1
 3654 021c 53       		.byte	0x53
 3655 021d 10000000 		.4byte	.LVL27
 3656 0221 17000000 		.4byte	.LVL28-1
 3657 0225 0100     		.2byte	0x1
 3658 0227 52       		.byte	0x52
 3659 0228 00000000 		.4byte	0
 3660 022c 00000000 		.4byte	0
 3661              	.LLST18:
 3662 0230 00000000 		.4byte	.LFB71
 3663 0234 06000000 		.4byte	.LCFI5
 3664 0238 0200     		.2byte	0x2
 3665 023a 7D       		.byte	0x7d
 3666 023b 00       		.sleb128 0
 3667 023c 06000000 		.4byte	.LCFI5
 3668 0240 AE000000 		.4byte	.LFE71
 3669 0244 0200     		.2byte	0x2
 3670 0246 7D       		.byte	0x7d
 3671 0247 20       		.sleb128 32
 3672 0248 00000000 		.4byte	0
 3673 024c 00000000 		.4byte	0
 3674              	.LLST19:
 3675 0250 00000000 		.4byte	.LVL29
 3676 0254 10000000 		.4byte	.LVL32
 3677 0258 0100     		.2byte	0x1
 3678 025a 50       		.byte	0x50
 3679 025b 10000000 		.4byte	.LVL32
 3680 025f AE000000 		.4byte	.LFE71
ARM GAS  C:\Users\z80\AppData\Local\Temp\cc7vCSVh.s 			page 67


 3681 0263 0100     		.2byte	0x1
 3682 0265 55       		.byte	0x55
 3683 0266 00000000 		.4byte	0
 3684 026a 00000000 		.4byte	0
 3685              	.LLST20:
 3686 026e 00000000 		.4byte	.LVL29
 3687 0272 10000000 		.4byte	.LVL32
 3688 0276 0100     		.2byte	0x1
 3689 0278 51       		.byte	0x51
 3690 0279 10000000 		.4byte	.LVL32
 3691 027d AE000000 		.4byte	.LFE71
 3692 0281 0100     		.2byte	0x1
 3693 0283 58       		.byte	0x58
 3694 0284 00000000 		.4byte	0
 3695 0288 00000000 		.4byte	0
 3696              	.LLST21:
 3697 028c 00000000 		.4byte	.LVL29
 3698 0290 02000000 		.4byte	.LVL30
 3699 0294 0100     		.2byte	0x1
 3700 0296 52       		.byte	0x52
 3701 0297 02000000 		.4byte	.LVL30
 3702 029b 10000000 		.4byte	.LVL32
 3703 029f 0300     		.2byte	0x3
 3704 02a1 72       		.byte	0x72
 3705 02a2 01       		.sleb128 1
 3706 02a3 9F       		.byte	0x9f
 3707 02a4 00000000 		.4byte	0
 3708 02a8 00000000 		.4byte	0
 3709              	.LLST22:
 3710 02ac 08000000 		.4byte	.LVL31
 3711 02b0 10000000 		.4byte	.LVL32
 3712 02b4 0100     		.2byte	0x1
 3713 02b6 51       		.byte	0x51
 3714 02b7 10000000 		.4byte	.LVL32
 3715 02bb AE000000 		.4byte	.LFE71
 3716 02bf 0100     		.2byte	0x1
 3717 02c1 57       		.byte	0x57
 3718 02c2 00000000 		.4byte	0
 3719 02c6 00000000 		.4byte	0
 3720              	.LLST23:
 3721 02ca 22000000 		.4byte	.LVL33
 3722 02ce 56000000 		.4byte	.LVL35
 3723 02d2 0100     		.2byte	0x1
 3724 02d4 56       		.byte	0x56
 3725 02d5 7E000000 		.4byte	.LVL37
 3726 02d9 AE000000 		.4byte	.LFE71
 3727 02dd 0100     		.2byte	0x1
 3728 02df 56       		.byte	0x56
 3729 02e0 00000000 		.4byte	0
 3730 02e4 00000000 		.4byte	0
 3731              	.LLST24:
 3732 02e8 00000000 		.4byte	.LFB68
 3733 02ec 04000000 		.4byte	.LCFI6
 3734 02f0 0200     		.2byte	0x2
 3735 02f2 7D       		.byte	0x7d
 3736 02f3 00       		.sleb128 0
 3737 02f4 04000000 		.4byte	.LCFI6
ARM GAS  C:\Users\z80\AppData\Local\Temp\cc7vCSVh.s 			page 68


 3738 02f8 20000000 		.4byte	.LCFI7
 3739 02fc 0200     		.2byte	0x2
 3740 02fe 7D       		.byte	0x7d
 3741 02ff 24       		.sleb128 36
 3742 0300 20000000 		.4byte	.LCFI7
 3743 0304 86020000 		.4byte	.LFE68
 3744 0308 0300     		.2byte	0x3
 3745 030a 7D       		.byte	0x7d
 3746 030b 8801     		.sleb128 136
 3747 030d 00000000 		.4byte	0
 3748 0311 00000000 		.4byte	0
 3749              	.LLST25:
 3750 0315 00000000 		.4byte	.LVL38
 3751 0319 22000000 		.4byte	.LVL41
 3752 031d 0100     		.2byte	0x1
 3753 031f 50       		.byte	0x50
 3754 0320 00000000 		.4byte	0
 3755 0324 00000000 		.4byte	0
 3756              	.LLST26:
 3757 0328 64000000 		.4byte	.LVL43
 3758 032c 76000000 		.4byte	.LVL47
 3759 0330 0200     		.2byte	0x2
 3760 0332 30       		.byte	0x30
 3761 0333 9F       		.byte	0x9f
 3762 0334 76000000 		.4byte	.LVL47
 3763 0338 86000000 		.4byte	.LVL50
 3764 033c 0200     		.2byte	0x2
 3765 033e 31       		.byte	0x31
 3766 033f 9F       		.byte	0x9f
 3767 0340 86000000 		.4byte	.LVL50
 3768 0344 96000000 		.4byte	.LVL53
 3769 0348 0200     		.2byte	0x2
 3770 034a 32       		.byte	0x32
 3771 034b 9F       		.byte	0x9f
 3772 034c 96000000 		.4byte	.LVL53
 3773 0350 A6000000 		.4byte	.LVL56
 3774 0354 0200     		.2byte	0x2
 3775 0356 33       		.byte	0x33
 3776 0357 9F       		.byte	0x9f
 3777 0358 A6000000 		.4byte	.LVL56
 3778 035c C2000000 		.4byte	.LVL60
 3779 0360 0200     		.2byte	0x2
 3780 0362 34       		.byte	0x34
 3781 0363 9F       		.byte	0x9f
 3782 0364 F6000000 		.4byte	.LVL64
 3783 0368 F8000000 		.4byte	.LVL65
 3784 036c 0200     		.2byte	0x2
 3785 036e 30       		.byte	0x30
 3786 036f 9F       		.byte	0x9f
 3787 0370 80010000 		.4byte	.LVL75
 3788 0374 86010000 		.4byte	.LVL76
 3789 0378 0200     		.2byte	0x2
 3790 037a 31       		.byte	0x31
 3791 037b 9F       		.byte	0x9f
 3792 037c 86010000 		.4byte	.LVL76
 3793 0380 8C010000 		.4byte	.LVL77
 3794 0384 0200     		.2byte	0x2
ARM GAS  C:\Users\z80\AppData\Local\Temp\cc7vCSVh.s 			page 69


 3795 0386 32       		.byte	0x32
 3796 0387 9F       		.byte	0x9f
 3797 0388 8C010000 		.4byte	.LVL77
 3798 038c 92010000 		.4byte	.LVL78
 3799 0390 0200     		.2byte	0x2
 3800 0392 33       		.byte	0x33
 3801 0393 9F       		.byte	0x9f
 3802 0394 92010000 		.4byte	.LVL78
 3803 0398 98010000 		.4byte	.LVL79
 3804 039c 0200     		.2byte	0x2
 3805 039e 34       		.byte	0x34
 3806 039f 9F       		.byte	0x9f
 3807 03a0 00000000 		.4byte	0
 3808 03a4 00000000 		.4byte	0
 3809              	.LLST27:
 3810 03a8 0E000000 		.4byte	.LVL39
 3811 03ac 22000000 		.4byte	.LVL41
 3812 03b0 0200     		.2byte	0x2
 3813 03b2 70       		.byte	0x70
 3814 03b3 00       		.sleb128 0
 3815 03b4 22000000 		.4byte	.LVL41
 3816 03b8 2B000000 		.4byte	.LVL42-1
 3817 03bc 0100     		.2byte	0x1
 3818 03be 50       		.byte	0x50
 3819 03bf 2B000000 		.4byte	.LVL42-1
 3820 03c3 86020000 		.4byte	.LFE68
 3821 03c7 0100     		.2byte	0x1
 3822 03c9 54       		.byte	0x54
 3823 03ca 00000000 		.4byte	0
 3824 03ce 00000000 		.4byte	0
 3825              	.LLST28:
 3826 03d2 1E000000 		.4byte	.LVL40
 3827 03d6 22000000 		.4byte	.LVL41
 3828 03da 0200     		.2byte	0x2
 3829 03dc 70       		.byte	0x70
 3830 03dd 04       		.sleb128 4
 3831 03de 22000000 		.4byte	.LVL41
 3832 03e2 86020000 		.4byte	.LFE68
 3833 03e6 0100     		.2byte	0x1
 3834 03e8 57       		.byte	0x57
 3835 03e9 00000000 		.4byte	0
 3836 03ed 00000000 		.4byte	0
 3837              	.LLST29:
 3838 03f1 64000000 		.4byte	.LVL43
 3839 03f5 66000000 		.4byte	.LVL44
 3840 03f9 0100     		.2byte	0x1
 3841 03fb 50       		.byte	0x50
 3842 03fc 66000000 		.4byte	.LVL44
 3843 0400 6A000000 		.4byte	.LVL45
 3844 0404 0100     		.2byte	0x1
 3845 0406 5A       		.byte	0x5a
 3846 0407 6A000000 		.4byte	.LVL45
 3847 040b 72000000 		.4byte	.LVL46
 3848 040f 0100     		.2byte	0x1
 3849 0411 50       		.byte	0x50
 3850 0412 72000000 		.4byte	.LVL46
 3851 0416 79000000 		.4byte	.LVL48-1
ARM GAS  C:\Users\z80\AppData\Local\Temp\cc7vCSVh.s 			page 70


 3852 041a 0100     		.2byte	0x1
 3853 041c 53       		.byte	0x53
 3854 041d 7A000000 		.4byte	.LVL48
 3855 0421 82000000 		.4byte	.LVL49
 3856 0425 0100     		.2byte	0x1
 3857 0427 50       		.byte	0x50
 3858 0428 82000000 		.4byte	.LVL49
 3859 042c 89000000 		.4byte	.LVL51-1
 3860 0430 0100     		.2byte	0x1
 3861 0432 53       		.byte	0x53
 3862 0433 8A000000 		.4byte	.LVL51
 3863 0437 92000000 		.4byte	.LVL52
 3864 043b 0100     		.2byte	0x1
 3865 043d 50       		.byte	0x50
 3866 043e 92000000 		.4byte	.LVL52
 3867 0442 99000000 		.4byte	.LVL54-1
 3868 0446 0100     		.2byte	0x1
 3869 0448 53       		.byte	0x53
 3870 0449 9A000000 		.4byte	.LVL54
 3871 044d A2000000 		.4byte	.LVL55
 3872 0451 0100     		.2byte	0x1
 3873 0453 50       		.byte	0x50
 3874 0454 A2000000 		.4byte	.LVL55
 3875 0458 A9000000 		.4byte	.LVL57-1
 3876 045c 0100     		.2byte	0x1
 3877 045e 53       		.byte	0x53
 3878 045f AA000000 		.4byte	.LVL57
 3879 0463 B4000000 		.4byte	.LVL58
 3880 0467 0100     		.2byte	0x1
 3881 0469 50       		.byte	0x50
 3882 046a F6000000 		.4byte	.LVL64
 3883 046e FE000000 		.4byte	.LVL66
 3884 0472 0100     		.2byte	0x1
 3885 0474 50       		.byte	0x50
 3886 0475 80010000 		.4byte	.LVL75
 3887 0479 98010000 		.4byte	.LVL79
 3888 047d 0100     		.2byte	0x1
 3889 047f 50       		.byte	0x50
 3890 0480 00000000 		.4byte	0
 3891 0484 00000000 		.4byte	0
 3892              	.LLST30:
 3893 0488 64000000 		.4byte	.LVL43
 3894 048c 66000000 		.4byte	.LVL44
 3895 0490 0100     		.2byte	0x1
 3896 0492 50       		.byte	0x50
 3897 0493 66000000 		.4byte	.LVL44
 3898 0497 BC000000 		.4byte	.LVL59
 3899 049b 0100     		.2byte	0x1
 3900 049d 5A       		.byte	0x5a
 3901 049e BC000000 		.4byte	.LVL59
 3902 04a2 C2000000 		.4byte	.LVL60
 3903 04a6 0200     		.2byte	0x2
 3904 04a8 30       		.byte	0x30
 3905 04a9 9F       		.byte	0x9f
 3906 04aa F6000000 		.4byte	.LVL64
 3907 04ae 34020000 		.4byte	.LVL91
 3908 04b2 0100     		.2byte	0x1
ARM GAS  C:\Users\z80\AppData\Local\Temp\cc7vCSVh.s 			page 71


 3909 04b4 5A       		.byte	0x5a
 3910 04b5 66020000 		.4byte	.LVL92
 3911 04b9 86020000 		.4byte	.LFE68
 3912 04bd 0100     		.2byte	0x1
 3913 04bf 5A       		.byte	0x5a
 3914 04c0 00000000 		.4byte	0
 3915 04c4 00000000 		.4byte	0
 3916              	.LLST31:
 3917 04c8 FA010000 		.4byte	.LVL88
 3918 04cc 06020000 		.4byte	.LVL89
 3919 04d0 0600     		.2byte	0x6
 3920 04d2 03       		.byte	0x3
 3921 04d3 00000000 		.4byte	local_commands
 3922 04d7 9F       		.byte	0x9f
 3923 04d8 00000000 		.4byte	0
 3924 04dc 00000000 		.4byte	0
 3925              	.LLST32:
 3926 04e0 FA010000 		.4byte	.LVL88
 3927 04e4 66020000 		.4byte	.LVL92
 3928 04e8 0100     		.2byte	0x1
 3929 04ea 54       		.byte	0x54
 3930 04eb 00000000 		.4byte	0
 3931 04ef 00000000 		.4byte	0
 3932              	.LLST33:
 3933 04f3 4A010000 		.4byte	.LVL69
 3934 04f7 58010000 		.4byte	.LVL70
 3935 04fb 0600     		.2byte	0x6
 3936 04fd 03       		.byte	0x3
 3937 04fe 00000000 		.4byte	local_commands
 3938 0502 9F       		.byte	0x9f
 3939 0503 58010000 		.4byte	.LVL70
 3940 0507 5C010000 		.4byte	.LVL71
 3941 050b 0300     		.2byte	0x3
 3942 050d 7B       		.byte	0x7b
 3943 050e 08       		.sleb128 8
 3944 050f 9F       		.byte	0x9f
 3945 0510 5C010000 		.4byte	.LVL71
 3946 0514 68010000 		.4byte	.LVL72
 3947 0518 0100     		.2byte	0x1
 3948 051a 5B       		.byte	0x5b
 3949 051b 6E010000 		.4byte	.LVL73
 3950 051f 72010000 		.4byte	.LVL74
 3951 0523 0300     		.2byte	0x3
 3952 0525 7B       		.byte	0x7b
 3953 0526 08       		.sleb128 8
 3954 0527 9F       		.byte	0x9f
 3955 0528 00000000 		.4byte	0
 3956 052c 00000000 		.4byte	0
 3957              	.LLST34:
 3958 0530 D6000000 		.4byte	.LVL62
 3959 0534 D9000000 		.4byte	.LVL63-1
 3960 0538 0100     		.2byte	0x1
 3961 053a 53       		.byte	0x53
 3962 053b 00000000 		.4byte	0
 3963 053f 00000000 		.4byte	0
 3964              	.LLST35:
 3965 0543 22010000 		.4byte	.LVL67
ARM GAS  C:\Users\z80\AppData\Local\Temp\cc7vCSVh.s 			page 72


 3966 0547 3A010000 		.4byte	.LVL68
 3967 054b 0600     		.2byte	0x6
 3968 054d 03       		.byte	0x3
 3969 054e B0010000 		.4byte	.LC30
 3970 0552 9F       		.byte	0x9f
 3971 0553 00000000 		.4byte	0
 3972 0557 00000000 		.4byte	0
 3973              	.LLST36:
 3974 055b 22010000 		.4byte	.LVL67
 3975 055f 3A010000 		.4byte	.LVL68
 3976 0563 0100     		.2byte	0x1
 3977 0565 54       		.byte	0x54
 3978 0566 00000000 		.4byte	0
 3979 056a 00000000 		.4byte	0
 3980              	.LLST37:
 3981 056e BA010000 		.4byte	.LVL82
 3982 0572 CA010000 		.4byte	.LVL83
 3983 0576 0100     		.2byte	0x1
 3984 0578 57       		.byte	0x57
 3985 0579 CA010000 		.4byte	.LVL83
 3986 057d D0010000 		.4byte	.LVL84
 3987 0581 0300     		.2byte	0x3
 3988 0583 7B       		.byte	0x7b
 3989 0584 08       		.sleb128 8
 3990 0585 9F       		.byte	0x9f
 3991 0586 D0010000 		.4byte	.LVL84
 3992 058a E0010000 		.4byte	.LVL85
 3993 058e 0100     		.2byte	0x1
 3994 0590 5B       		.byte	0x5b
 3995 0591 E6010000 		.4byte	.LVL86
 3996 0595 EC010000 		.4byte	.LVL87
 3997 0599 0300     		.2byte	0x3
 3998 059b 7B       		.byte	0x7b
 3999 059c 08       		.sleb128 8
 4000 059d 9F       		.byte	0x9f
 4001 059e 00000000 		.4byte	0
 4002 05a2 00000000 		.4byte	0
 4003              	.LLST38:
 4004 05a6 9E010000 		.4byte	.LVL80
 4005 05aa B6010000 		.4byte	.LVL81
 4006 05ae 0600     		.2byte	0x6
 4007 05b0 03       		.byte	0x3
 4008 05b1 B8010000 		.4byte	.LC31
 4009 05b5 9F       		.byte	0x9f
 4010 05b6 00000000 		.4byte	0
 4011 05ba 00000000 		.4byte	0
 4012              	.LLST39:
 4013 05be 9E010000 		.4byte	.LVL80
 4014 05c2 B6010000 		.4byte	.LVL81
 4015 05c6 0100     		.2byte	0x1
 4016 05c8 54       		.byte	0x54
 4017 05c9 00000000 		.4byte	0
 4018 05cd 00000000 		.4byte	0
 4019              	.LLST40:
 4020 05d1 2A020000 		.4byte	.LVL90
 4021 05d5 34020000 		.4byte	.LVL91
 4022 05d9 0100     		.2byte	0x1
ARM GAS  C:\Users\z80\AppData\Local\Temp\cc7vCSVh.s 			page 73


 4023 05db 57       		.byte	0x57
 4024 05dc 00000000 		.4byte	0
 4025 05e0 00000000 		.4byte	0
 4026              		.section	.debug_aranges,"",%progbits
 4027 0000 4C000000 		.4byte	0x4c
 4028 0004 0200     		.2byte	0x2
 4029 0006 00000000 		.4byte	.Ldebug_info0
 4030 000a 04       		.byte	0x4
 4031 000b 00       		.byte	0
 4032 000c 0000     		.2byte	0
 4033 000e 0000     		.2byte	0
 4034 0010 00000000 		.4byte	.LFB66
 4035 0014 2E000000 		.4byte	.LFE66-.LFB66
 4036 0018 00000000 		.4byte	.LFB65
 4037 001c E8000000 		.4byte	.LFE65-.LFB65
 4038 0020 00000000 		.4byte	.LFB74
 4039 0024 44000000 		.4byte	.LFE74-.LFB74
 4040 0028 00000000 		.4byte	.LFB69
 4041 002c 0C000000 		.4byte	.LFE69-.LFB69
 4042 0030 00000000 		.4byte	.LFB70
 4043 0034 1C000000 		.4byte	.LFE70-.LFB70
 4044 0038 00000000 		.4byte	.LFB71
 4045 003c AE000000 		.4byte	.LFE71-.LFB71
 4046 0040 00000000 		.4byte	.LFB68
 4047 0044 86020000 		.4byte	.LFE68-.LFB68
 4048 0048 00000000 		.4byte	0
 4049 004c 00000000 		.4byte	0
 4050              		.section	.debug_ranges,"",%progbits
 4051              	.Ldebug_ranges0:
 4052 0000 04000000 		.4byte	.LBB29
 4053 0004 14000000 		.4byte	.LBE29
 4054 0008 14000000 		.4byte	.LBB32
 4055 000c 18000000 		.4byte	.LBE32
 4056 0010 00000000 		.4byte	0
 4057 0014 00000000 		.4byte	0
 4058 0018 18000000 		.4byte	.LBB33
 4059 001c 2A000000 		.4byte	.LBE33
 4060 0020 2A000000 		.4byte	.LBB36
 4061 0024 2E000000 		.4byte	.LBE36
 4062 0028 00000000 		.4byte	0
 4063 002c 00000000 		.4byte	0
 4064 0030 18000000 		.4byte	.LBB34
 4065 0034 2A000000 		.4byte	.LBE34
 4066 0038 2A000000 		.4byte	.LBB35
 4067 003c 2E000000 		.4byte	.LBE35
 4068 0040 00000000 		.4byte	0
 4069 0044 00000000 		.4byte	0
 4070 0048 0A000000 		.4byte	.LBB43
 4071 004c 1A000000 		.4byte	.LBE43
 4072 0050 20000000 		.4byte	.LBB46
 4073 0054 24000000 		.4byte	.LBE46
 4074 0058 00000000 		.4byte	0
 4075 005c 00000000 		.4byte	0
 4076 0060 00000000 		.4byte	.LBB49
 4077 0064 02000000 		.4byte	.LBE49
 4078 0068 0C000000 		.4byte	.LBB50
 4079 006c 80000000 		.4byte	.LBE50
ARM GAS  C:\Users\z80\AppData\Local\Temp\cc7vCSVh.s 			page 74


 4080 0070 84000000 		.4byte	.LBB51
 4081 0074 AE000000 		.4byte	.LBE51
 4082 0078 00000000 		.4byte	0
 4083 007c 00000000 		.4byte	0
 4084 0080 2C000000 		.4byte	.LBB52
 4085 0084 38000000 		.4byte	.LBE52
 4086 0088 FA010000 		.4byte	.LBB68
 4087 008c 28020000 		.4byte	.LBE68
 4088 0090 00000000 		.4byte	0
 4089 0094 00000000 		.4byte	0
 4090 0098 38000000 		.4byte	.LBB55
 4091 009c 3A000000 		.4byte	.LBE55
 4092 00a0 4A010000 		.4byte	.LBB61
 4093 00a4 72010000 		.4byte	.LBE61
 4094 00a8 00000000 		.4byte	0
 4095 00ac 00000000 		.4byte	0
 4096 00b0 72010000 		.4byte	.LBB62
 4097 00b4 80010000 		.4byte	.LBE62
 4098 00b8 BA010000 		.4byte	.LBB67
 4099 00bc EC010000 		.4byte	.LBE67
 4100 00c0 00000000 		.4byte	0
 4101 00c4 00000000 		.4byte	0
 4102 00c8 00000000 		.4byte	.LFB66
 4103 00cc 2E000000 		.4byte	.LFE66
 4104 00d0 00000000 		.4byte	.LFB65
 4105 00d4 E8000000 		.4byte	.LFE65
 4106 00d8 00000000 		.4byte	.LFB74
 4107 00dc 44000000 		.4byte	.LFE74
 4108 00e0 00000000 		.4byte	.LFB69
 4109 00e4 0C000000 		.4byte	.LFE69
 4110 00e8 00000000 		.4byte	.LFB70
 4111 00ec 1C000000 		.4byte	.LFE70
 4112 00f0 00000000 		.4byte	.LFB71
 4113 00f4 AE000000 		.4byte	.LFE71
 4114 00f8 00000000 		.4byte	.LFB68
 4115 00fc 86020000 		.4byte	.LFE68
 4116 0100 00000000 		.4byte	0
 4117 0104 00000000 		.4byte	0
 4118              		.section	.debug_line,"",%progbits
 4119              	.Ldebug_line0:
 4120 0000 99030000 		.section	.debug_str,"MS",%progbits,1
 4120      02001502 
 4120      00000201 
 4120      FB0E0D00 
 4120      01010101 
 4121              	.LASF10:
 4122 0000 73697A65 		.ascii	"size_t\000"
 4122      5F7400
 4123              	.LASF14:
 4124 0007 75696E74 		.ascii	"uint64_t\000"
 4124      36345F74 
 4124      00
 4125              	.LASF112:
 4126 0010 76746C69 		.ascii	"vtlist\000"
 4126      737400
 4127              	.LASF63:
 4128 0017 52656164 		.ascii	"ReadyList\000"
ARM GAS  C:\Users\z80\AppData\Local\Temp\cc7vCSVh.s 			page 75


 4128      794C6973 
 4128      7400
 4129              	.LASF6:
 4130 0021 6C6F6E67 		.ascii	"long long unsigned int\000"
 4130      206C6F6E 
 4130      6720756E 
 4130      7369676E 
 4130      65642069 
 4131              	.LASF78:
 4132 0038 42617365 		.ascii	"BaseChannelVMT\000"
 4132      4368616E 
 4132      6E656C56 
 4132      4D5400
 4133              	.LASF75:
 4134 0047 65786974 		.ascii	"exitcode\000"
 4134      636F6465 
 4134      00
 4135              	.LASF114:
 4136 0050 49544D5F 		.ascii	"ITM_RxBuffer\000"
 4136      52784275 
 4136      66666572 
 4136      00
 4137              	.LASF97:
 4138 005d 636D645F 		.ascii	"cmd_info\000"
 4138      696E666F 
 4138      00
 4139              	.LASF26:
 4140 0066 705F7072 		.ascii	"p_prio\000"
 4140      696F00
 4141              	.LASF84:
 4142 006d 72656164 		.ascii	"readt\000"
 4142      7400
 4143              	.LASF5:
 4144 0073 6C6F6E67 		.ascii	"long long int\000"
 4144      206C6F6E 
 4144      6720696E 
 4144      7400
 4145              	.LASF0:
 4146 0081 7369676E 		.ascii	"signed char\000"
 4146      65642063 
 4146      68617200 
 4147              	.LASF15:
 4148 008d 626F6F6C 		.ascii	"bool_t\000"
 4148      5F7400
 4149              	.LASF65:
 4150 0094 6D5F7175 		.ascii	"m_queue\000"
 4150      65756500 
 4151              	.LASF90:
 4152 009c 73635F63 		.ascii	"sc_channel\000"
 4152      68616E6E 
 4152      656C00
 4153              	.LASF118:
 4154 00a7 433A5C70 		.ascii	"C:\\projects\\digitizer.git\\firmware\\digitizer\000"
 4154      726F6A65 
 4154      6374735C 
 4154      64696769 
 4154      74697A65 
ARM GAS  C:\Users\z80\AppData\Local\Temp\cc7vCSVh.s 			page 76


 4155              	.LASF7:
 4156 00d4 6C6F6E67 		.ascii	"long int\000"
 4156      20696E74 
 4156      00
 4157              	.LASF89:
 4158 00dd 5368656C 		.ascii	"ShellCommand\000"
 4158      6C436F6D 
 4158      6D616E64 
 4158      00
 4159              	.LASF17:
 4160 00ea 74737461 		.ascii	"tstate_t\000"
 4160      74655F74 
 4160      00
 4161              	.LASF34:
 4162 00f3 705F7469 		.ascii	"p_time\000"
 4162      6D6500
 4163              	.LASF109:
 4164 00fa 746F6B70 		.ascii	"tokp\000"
 4164      00
 4165              	.LASF28:
 4166 00ff 705F6E65 		.ascii	"p_newer\000"
 4166      77657200 
 4167              	.LASF81:
 4168 0107 70757477 		.ascii	"putwouldblock\000"
 4168      6F756C64 
 4168      626C6F63 
 4168      6B00
 4169              	.LASF108:
 4170 0115 6C696E65 		.ascii	"line\000"
 4170      00
 4171              	.LASF59:
 4172 011a 725F6E65 		.ascii	"r_newer\000"
 4172      77657200 
 4173              	.LASF43:
 4174 0122 72656761 		.ascii	"regarm_t\000"
 4174      726D5F74 
 4174      00
 4175              	.LASF50:
 4176 012b 76745F70 		.ascii	"vt_prev\000"
 4176      72657600 
 4177              	.LASF107:
 4178 0133 7368656C 		.ascii	"shellGetLine\000"
 4178      6C476574 
 4178      4C696E65 
 4178      00
 4179              	.LASF87:
 4180 0140 73635F6E 		.ascii	"sc_name\000"
 4180      616D6500 
 4181              	.LASF72:
 4182 0148 4576656E 		.ascii	"EventSource\000"
 4182      74536F75 
 4182      72636500 
 4183              	.LASF22:
 4184 0154 636E745F 		.ascii	"cnt_t\000"
 4184      7400
 4185              	.LASF31:
 4186 015a 705F7374 		.ascii	"p_stklimit\000"
ARM GAS  C:\Users\z80\AppData\Local\Temp\cc7vCSVh.s 			page 77


 4186      6B6C696D 
 4186      697400
 4187              	.LASF4:
 4188 0165 756E7369 		.ascii	"unsigned int\000"
 4188      676E6564 
 4188      20696E74 
 4188      00
 4189              	.LASF49:
 4190 0172 76745F6E 		.ascii	"vt_next\000"
 4190      65787400 
 4191              	.LASF91:
 4192 017a 73635F63 		.ascii	"sc_commands\000"
 4192      6F6D6D61 
 4192      6E647300 
 4193              	.LASF36:
 4194 0186 705F6D73 		.ascii	"p_msgqueue\000"
 4194      67717565 
 4194      756500
 4195              	.LASF99:
 4196 0191 6E616D65 		.ascii	"name\000"
 4196      00
 4197              	.LASF48:
 4198 0196 56697274 		.ascii	"VirtualTimer\000"
 4198      75616C54 
 4198      696D6572 
 4198      00
 4199              	.LASF104:
 4200 01a3 73697A65 		.ascii	"size\000"
 4200      00
 4201              	.LASF3:
 4202 01a8 73686F72 		.ascii	"short unsigned int\000"
 4202      7420756E 
 4202      7369676E 
 4202      65642069 
 4202      6E7400
 4203              	.LASF19:
 4204 01bb 6D73675F 		.ascii	"msg_t\000"
 4204      7400
 4205              	.LASF69:
 4206 01c1 656C5F6E 		.ascii	"el_next\000"
 4206      65787400 
 4207              	.LASF83:
 4208 01c9 77726974 		.ascii	"writet\000"
 4208      657400
 4209              	.LASF117:
 4210 01d0 2E2E2F63 		.ascii	"../chibios_2.4.x/os/various/shell.c\000"
 4210      68696269 
 4210      6F735F32 
 4210      2E342E78 
 4210      2F6F732F 
 4211              	.LASF16:
 4212 01f4 746D6F64 		.ascii	"tmode_t\000"
 4212      655F7400 
 4213              	.LASF42:
 4214 01fc 54687265 		.ascii	"ThreadsList\000"
 4214      6164734C 
 4214      69737400 
ARM GAS  C:\Users\z80\AppData\Local\Temp\cc7vCSVh.s 			page 78


 4215              	.LASF20:
 4216 0208 6576656E 		.ascii	"eventmask_t\000"
 4216      746D6173 
 4216      6B5F7400 
 4217              	.LASF44:
 4218 0214 73746B61 		.ascii	"stkalign_t\000"
 4218      6C69676E 
 4218      5F7400
 4219              	.LASF79:
 4220 021f 77726974 		.ascii	"write\000"
 4220      6500
 4221              	.LASF51:
 4222 0225 76745F74 		.ascii	"vt_time\000"
 4222      696D6500 
 4223              	.LASF35:
 4224 022d 705F7761 		.ascii	"p_waiting\000"
 4224      6974696E 
 4224      6700
 4225              	.LASF64:
 4226 0237 4D757465 		.ascii	"Mutex\000"
 4226      7800
 4227              	.LASF86:
 4228 023d 7368656C 		.ascii	"shellcmd_t\000"
 4228      6C636D64 
 4228      5F7400
 4229              	.LASF71:
 4230 0248 656C5F6D 		.ascii	"el_mask\000"
 4230      61736B00 
 4231              	.LASF29:
 4232 0250 705F6F6C 		.ascii	"p_older\000"
 4232      64657200 
 4233              	.LASF58:
 4234 0258 725F6374 		.ascii	"r_ctx\000"
 4234      7800
 4235              	.LASF106:
 4236 025e 7368656C 		.ascii	"shellCreateStatic\000"
 4236      6C437265 
 4236      61746553 
 4236      74617469 
 4236      6300
 4237              	.LASF41:
 4238 0270 54687265 		.ascii	"ThreadsQueue\000"
 4238      61647351 
 4238      75657565 
 4238      00
 4239              	.LASF111:
 4240 027d 6C6F6361 		.ascii	"local_commands\000"
 4240      6C5F636F 
 4240      6D6D616E 
 4240      647300
 4241              	.LASF105:
 4242 028c 7072696F 		.ascii	"prio\000"
 4242      00
 4243              	.LASF60:
 4244 0291 725F6F6C 		.ascii	"r_older\000"
 4244      64657200 
 4245              	.LASF119:
ARM GAS  C:\Users\z80\AppData\Local\Temp\cc7vCSVh.s 			page 79


 4246 0299 746F6B65 		.ascii	"token\000"
 4246      6E00
 4247              	.LASF103:
 4248 029f 73617665 		.ascii	"saveptr\000"
 4248      70747200 
 4249              	.LASF25:
 4250 02a7 705F7072 		.ascii	"p_prev\000"
 4250      657600
 4251              	.LASF18:
 4252 02ae 74707269 		.ascii	"tprio_t\000"
 4252      6F5F7400 
 4253              	.LASF101:
 4254 02b6 5F737472 		.ascii	"_strtok\000"
 4254      746F6B00 
 4255              	.LASF12:
 4256 02be 696E7433 		.ascii	"int32_t\000"
 4256      325F7400 
 4257              	.LASF1:
 4258 02c6 756E7369 		.ascii	"unsigned char\000"
 4258      676E6564 
 4258      20636861 
 4258      7200
 4259              	.LASF70:
 4260 02d4 656C5F6C 		.ascii	"el_listener\000"
 4260      69737465 
 4260      6E657200 
 4261              	.LASF39:
 4262 02e0 705F6D74 		.ascii	"p_mtxlist\000"
 4262      786C6973 
 4262      7400
 4263              	.LASF2:
 4264 02ea 73686F72 		.ascii	"short int\000"
 4264      7420696E 
 4264      7400
 4265              	.LASF32:
 4266 02f4 705F7374 		.ascii	"p_state\000"
 4266      61746500 
 4267              	.LASF100:
 4268 02fc 636D6465 		.ascii	"cmdexec\000"
 4268      78656300 
 4269              	.LASF57:
 4270 0304 725F7072 		.ascii	"r_prio\000"
 4270      696F00
 4271              	.LASF77:
 4272 030b 65776D61 		.ascii	"ewmask\000"
 4272      736B00
 4273              	.LASF24:
 4274 0312 705F6E65 		.ascii	"p_next\000"
 4274      787400
 4275              	.LASF102:
 4276 0319 64656C69 		.ascii	"delim\000"
 4276      6D00
 4277              	.LASF33:
 4278 031f 705F666C 		.ascii	"p_flags\000"
 4278      61677300 
 4279              	.LASF23:
 4280 0327 54687265 		.ascii	"Thread\000"
ARM GAS  C:\Users\z80\AppData\Local\Temp\cc7vCSVh.s 			page 80


 4280      616400
 4281              	.LASF38:
 4282 032e 705F6570 		.ascii	"p_epending\000"
 4282      656E6469 
 4282      6E6700
 4283              	.LASF13:
 4284 0339 75696E74 		.ascii	"uint32_t\000"
 4284      33325F74 
 4284      00
 4285              	.LASF56:
 4286 0342 725F7175 		.ascii	"r_queue\000"
 4286      65756500 
 4287              	.LASF54:
 4288 034a 76745F73 		.ascii	"vt_systime\000"
 4288      79737469 
 4288      6D6500
 4289              	.LASF116:
 4290 0355 474E5520 		.ascii	"GNU C 4.6.3\000"
 4290      4320342E 
 4290      362E3300 
 4291              	.LASF8:
 4292 0361 6C6F6E67 		.ascii	"long unsigned int\000"
 4292      20756E73 
 4292      69676E65 
 4292      6420696E 
 4292      7400
 4293              	.LASF62:
 4294 0373 725F6375 		.ascii	"r_current\000"
 4294      7272656E 
 4294      7400
 4295              	.LASF80:
 4296 037d 72656164 		.ascii	"read\000"
 4296      00
 4297              	.LASF9:
 4298 0382 63686172 		.ascii	"char\000"
 4298      00
 4299              	.LASF115:
 4300 0387 7368656C 		.ascii	"shell_terminated\000"
 4300      6C5F7465 
 4300      726D696E 
 4300      61746564 
 4300      00
 4301              	.LASF120:
 4302 0398 7368656C 		.ascii	"shellInit\000"
 4302      6C496E69 
 4302      7400
 4303              	.LASF67:
 4304 03a2 6D5F6E65 		.ascii	"m_next\000"
 4304      787400
 4305              	.LASF21:
 4306 03a9 73797374 		.ascii	"systime_t\000"
 4306      696D655F 
 4306      7400
 4307              	.LASF40:
 4308 03b3 705F7265 		.ascii	"p_realprio\000"
 4308      616C7072 
 4308      696F00
ARM GAS  C:\Users\z80\AppData\Local\Temp\cc7vCSVh.s 			page 81


 4309              	.LASF47:
 4310 03be 76746675 		.ascii	"vtfunc_t\000"
 4310      6E635F74 
 4310      00
 4311              	.LASF92:
 4312 03c7 5368656C 		.ascii	"ShellConfig\000"
 4312      6C436F6E 
 4312      66696700 
 4313              	.LASF61:
 4314 03d3 725F7072 		.ascii	"r_preempt\000"
 4314      65656D70 
 4314      7400
 4315              	.LASF30:
 4316 03dd 705F6E61 		.ascii	"p_name\000"
 4316      6D6500
 4317              	.LASF46:
 4318 03e4 636F6E74 		.ascii	"context\000"
 4318      65787400 
 4319              	.LASF37:
 4320 03ec 705F6D73 		.ascii	"p_msg\000"
 4320      6700
 4321              	.LASF94:
 4322 03f2 636D645F 		.ascii	"cmd_systime\000"
 4322      73797374 
 4322      696D6500 
 4323              	.LASF45:
 4324 03fe 696E7463 		.ascii	"intctx\000"
 4324      747800
 4325              	.LASF93:
 4326 0405 75736167 		.ascii	"usage\000"
 4326      6500
 4327              	.LASF53:
 4328 040b 76745F70 		.ascii	"vt_par\000"
 4328      617200
 4329              	.LASF74:
 4330 0412 7264796D 		.ascii	"rdymsg\000"
 4330      736700
 4331              	.LASF73:
 4332 0419 65735F6E 		.ascii	"es_next\000"
 4332      65787400 
 4333              	.LASF121:
 4334 0421 7368656C 		.ascii	"shell_thread\000"
 4334      6C5F7468 
 4334      72656164 
 4334      00
 4335              	.LASF113:
 4336 042e 726C6973 		.ascii	"rlist\000"
 4336      7400
 4337              	.LASF11:
 4338 0434 75696E74 		.ascii	"uint8_t\000"
 4338      385F7400 
 4339              	.LASF85:
 4340 043c 42617365 		.ascii	"BaseChannel\000"
 4340      4368616E 
 4340      6E656C00 
 4341              	.LASF88:
 4342 0448 73635F66 		.ascii	"sc_function\000"
ARM GAS  C:\Users\z80\AppData\Local\Temp\cc7vCSVh.s 			page 82


 4342      756E6374 
 4342      696F6E00 
 4343              	.LASF68:
 4344 0454 4576656E 		.ascii	"EventListener\000"
 4344      744C6973 
 4344      74656E65 
 4344      7200
 4345              	.LASF76:
 4346 0462 77746F62 		.ascii	"wtobjp\000"
 4346      6A7000
 4347              	.LASF95:
 4348 0469 61726763 		.ascii	"argc\000"
 4348      00
 4349              	.LASF98:
 4350 046e 6C697374 		.ascii	"list_commands\000"
 4350      5F636F6D 
 4350      6D616E64 
 4350      7300
 4351              	.LASF82:
 4352 047c 67657477 		.ascii	"getwouldblock\000"
 4352      6F756C64 
 4352      626C6F63 
 4352      6B00
 4353              	.LASF55:
 4354 048a 56544C69 		.ascii	"VTList\000"
 4354      737400
 4355              	.LASF110:
 4356 0491 61726773 		.ascii	"args\000"
 4356      00
 4357              	.LASF96:
 4358 0496 61726776 		.ascii	"argv\000"
 4358      00
 4359              	.LASF66:
 4360 049b 6D5F6F77 		.ascii	"m_owner\000"
 4360      6E657200 
 4361              	.LASF27:
 4362 04a3 705F6374 		.ascii	"p_ctx\000"
 4362      7800
 4363              	.LASF52:
 4364 04a9 76745F66 		.ascii	"vt_func\000"
 4364      756E6300 
 4365              		.ident	"GCC: (Sourcery CodeBench Lite 2012.03-56) 4.6.3"
ARM GAS  C:\Users\z80\AppData\Local\Temp\cc7vCSVh.s 			page 83


DEFINED SYMBOLS
                            *ABS*:00000000 shell.c
C:\Users\z80\AppData\Local\Temp\cc7vCSVh.s:19     .text.cmd_systime:00000000 $t
C:\Users\z80\AppData\Local\Temp\cc7vCSVh.s:24     .text.cmd_systime:00000000 cmd_systime
C:\Users\z80\AppData\Local\Temp\cc7vCSVh.s:945    .rodata.str1.4:00000000 .LC0
C:\Users\z80\AppData\Local\Temp\cc7vCSVh.s:947    .rodata.str1.4:0000000c .LC1
C:\Users\z80\AppData\Local\Temp\cc7vCSVh.s:949    .rodata.str1.4:00000014 .LC2
C:\Users\z80\AppData\Local\Temp\cc7vCSVh.s:81     .text.cmd_info:00000000 $t
C:\Users\z80\AppData\Local\Temp\cc7vCSVh.s:86     .text.cmd_info:00000000 cmd_info
C:\Users\z80\AppData\Local\Temp\cc7vCSVh.s:952    .rodata.str1.4:0000001c .LC3
C:\Users\z80\AppData\Local\Temp\cc7vCSVh.s:955    .rodata.str1.4:00000024 .LC4
C:\Users\z80\AppData\Local\Temp\cc7vCSVh.s:958    .rodata.str1.4:00000038 .LC5
C:\Users\z80\AppData\Local\Temp\cc7vCSVh.s:961    .rodata.str1.4:00000040 .LC6
C:\Users\z80\AppData\Local\Temp\cc7vCSVh.s:964    .rodata.str1.4:00000054 .LC7
C:\Users\z80\AppData\Local\Temp\cc7vCSVh.s:967    .rodata.str1.4:00000060 .LC8
C:\Users\z80\AppData\Local\Temp\cc7vCSVh.s:970    .rodata.str1.4:00000074 .LC9
C:\Users\z80\AppData\Local\Temp\cc7vCSVh.s:972    .rodata.str1.4:0000007c .LC10
C:\Users\z80\AppData\Local\Temp\cc7vCSVh.s:975    .rodata.str1.4:00000090 .LC11
C:\Users\z80\AppData\Local\Temp\cc7vCSVh.s:978    .rodata.str1.4:0000009c .LC12
C:\Users\z80\AppData\Local\Temp\cc7vCSVh.s:981    .rodata.str1.4:000000b0 .LC13
C:\Users\z80\AppData\Local\Temp\cc7vCSVh.s:984    .rodata.str1.4:000000c8 .LC14
C:\Users\z80\AppData\Local\Temp\cc7vCSVh.s:987    .rodata.str1.4:000000dc .LC15
C:\Users\z80\AppData\Local\Temp\cc7vCSVh.s:989    .rodata.str1.4:00000104 .LC16
C:\Users\z80\AppData\Local\Temp\cc7vCSVh.s:992    .rodata.str1.4:00000118 .LC17
C:\Users\z80\AppData\Local\Temp\cc7vCSVh.s:1002   .rodata.str1.4:00000150 .LC21
C:\Users\z80\AppData\Local\Temp\cc7vCSVh.s:995    .rodata.str1.4:00000128 .LC18
C:\Users\z80\AppData\Local\Temp\cc7vCSVh.s:998    .rodata.str1.4:00000140 .LC19
C:\Users\z80\AppData\Local\Temp\cc7vCSVh.s:1000   .rodata.str1.4:0000014c .LC20
C:\Users\z80\AppData\Local\Temp\cc7vCSVh.s:205    .text._strtok.constprop.2:00000000 $t
C:\Users\z80\AppData\Local\Temp\cc7vCSVh.s:210    .text._strtok.constprop.2:00000000 _strtok.constprop.2
C:\Users\z80\AppData\Local\Temp\cc7vCSVh.s:928    .rodata:00000000 .LANCHOR0
C:\Users\z80\AppData\Local\Temp\cc7vCSVh.s:279    .text.shellInit:00000000 $t
C:\Users\z80\AppData\Local\Temp\cc7vCSVh.s:285    .text.shellInit:00000000 shellInit
C:\Users\z80\AppData\Local\Temp\cc7vCSVh.s:1044   .bss.shell_terminated:00000000 .LANCHOR1
C:\Users\z80\AppData\Local\Temp\cc7vCSVh.s:302    .text.shellCreateStatic:00000000 $t
C:\Users\z80\AppData\Local\Temp\cc7vCSVh.s:308    .text.shellCreateStatic:00000000 shellCreateStatic
C:\Users\z80\AppData\Local\Temp\cc7vCSVh.s:491    .text.shell_thread:00000000 shell_thread
C:\Users\z80\AppData\Local\Temp\cc7vCSVh.s:342    .text.shellGetLine:00000000 $t
C:\Users\z80\AppData\Local\Temp\cc7vCSVh.s:348    .text.shellGetLine:00000000 shellGetLine
C:\Users\z80\AppData\Local\Temp\cc7vCSVh.s:1005   .rodata.str1.4:0000015c .LC23
C:\Users\z80\AppData\Local\Temp\cc7vCSVh.s:1008   .rodata.str1.4:00000160 .LC24
C:\Users\z80\AppData\Local\Temp\cc7vCSVh.s:486    .text.shell_thread:00000000 $t
C:\Users\z80\AppData\Local\Temp\cc7vCSVh.s:1011   .rodata.str1.4:00000164 .LC25
C:\Users\z80\AppData\Local\Temp\cc7vCSVh.s:1014   .rodata.str1.4:0000016c .LC26
C:\Users\z80\AppData\Local\Temp\cc7vCSVh.s:933    .data.local_commands:00000000 .LANCHOR2
C:\Users\z80\AppData\Local\Temp\cc7vCSVh.s:1017   .rodata.str1.4:00000184 .LC27
C:\Users\z80\AppData\Local\Temp\cc7vCSVh.s:1023   .rodata.str1.4:00000198 .LC29
C:\Users\z80\AppData\Local\Temp\cc7vCSVh.s:1020   .rodata.str1.4:0000018c .LC28
C:\Users\z80\AppData\Local\Temp\cc7vCSVh.s:1026   .rodata.str1.4:000001b0 .LC30
C:\Users\z80\AppData\Local\Temp\cc7vCSVh.s:1029   .rodata.str1.4:000001b8 .LC31
C:\Users\z80\AppData\Local\Temp\cc7vCSVh.s:1032   .rodata.str1.4:000001c0 .LC32
C:\Users\z80\AppData\Local\Temp\cc7vCSVh.s:1035   .rodata.str1.4:000001d8 .LC33
C:\Users\z80\AppData\Local\Temp\cc7vCSVh.s:1037   .rodata.str1.4:000001dc .LC34
C:\Users\z80\AppData\Local\Temp\cc7vCSVh.s:1040   .rodata.str1.4:000001e0 .LC35
C:\Users\z80\AppData\Local\Temp\cc7vCSVh.s:1047   .bss.shell_terminated:00000000 shell_terminated
C:\Users\z80\AppData\Local\Temp\cc7vCSVh.s:927    .rodata:00000000 $d
C:\Users\z80\AppData\Local\Temp\cc7vCSVh.s:932    .data.local_commands:00000000 $d
ARM GAS  C:\Users\z80\AppData\Local\Temp\cc7vCSVh.s 			page 84


C:\Users\z80\AppData\Local\Temp\cc7vCSVh.s:936    .data.local_commands:00000000 local_commands
C:\Users\z80\AppData\Local\Temp\cc7vCSVh.s:944    .rodata.str1.4:00000000 $d
C:\Users\z80\AppData\Local\Temp\cc7vCSVh.s:1043   .bss.shell_terminated:00000000 $d
                     .debug_frame:00000010 $d

UNDEFINED SYMBOLS
chprintf
vtlist
strspn
strchr
chThdCreateStatic
rlist
dbg_check_lock
chEvtBroadcastFlagsI
chThdExitS
strcasecmp
