ARM GAS  C:\Users\z80\AppData\Local\Temp\ccYnvvge.s 			page 1


   1              		.syntax unified
   2              		.cpu cortex-m3
   3              		.fpu softvfp
   4              		.eabi_attribute 20, 1
   5              		.eabi_attribute 21, 1
   6              		.eabi_attribute 23, 3
   7              		.eabi_attribute 24, 1
   8              		.eabi_attribute 25, 1
   9              		.eabi_attribute 26, 1
  10              		.eabi_attribute 30, 6
  11              		.eabi_attribute 34, 1
  12              		.eabi_attribute 18, 4
  13              		.thumb
  14              		.file	"shell.c"
  15              		.text
  16              	.Ltext0:
  17              		.cfi_sections	.debug_frame
  18              		.global	shell_terminated
  19              		.section	.bss.shell_terminated,"aw",%nobits
  20              		.align	2
  21              		.type	shell_terminated, %object
  22              		.size	shell_terminated, 4
  23              	shell_terminated:
  24 0000 00000000 		.space	4
  25              		.section	.text._strtok,"ax",%progbits
  26              		.align	2
  27              		.p2align 4,,15
  28              		.thumb
  29              		.thumb_func
  30              		.type	_strtok, %function
  31              	_strtok:
  32              	.LFB62:
  33              		.file 1 "../chibios_2.4.x/os/various/shell.c"
  34              		.loc 1 48 0
  35              		.cfi_startproc
  36              		@ args = 0, pretend = 0, frame = 24
  37              		@ frame_needed = 0, uses_anonymous_args = 0
  38 0000 00B5     		push	{lr}
  39              	.LCFI0:
  40              		.cfi_def_cfa_offset 4
  41              		.cfi_offset 14, -4
  42 0002 87B0     		sub	sp, sp, #28
  43              	.LCFI1:
  44              		.cfi_def_cfa_offset 32
  45 0004 0390     		str	r0, [sp, #12]
  46 0006 0291     		str	r1, [sp, #8]
  47 0008 0192     		str	r2, [sp, #4]
  48              		.loc 1 50 0
  49 000a 039B     		ldr	r3, [sp, #12]
  50 000c 002B     		cmp	r3, #0
  51 000e 02D0     		beq	.L2
  52              		.loc 1 51 0
  53 0010 019B     		ldr	r3, [sp, #4]
  54 0012 039A     		ldr	r2, [sp, #12]
  55 0014 1A60     		str	r2, [r3, #0]
  56              	.L2:
  57              		.loc 1 52 0
ARM GAS  C:\Users\z80\AppData\Local\Temp\ccYnvvge.s 			page 2


  58 0016 019B     		ldr	r3, [sp, #4]
  59 0018 1B68     		ldr	r3, [r3, #0]
  60 001a 0593     		str	r3, [sp, #20]
  61              		.loc 1 54 0
  62 001c 059B     		ldr	r3, [sp, #20]
  63 001e 002B     		cmp	r3, #0
  64 0020 02D1     		bne	.L3
  65              		.loc 1 55 0
  66 0022 4FF00003 		mov	r3, #0
  67 0026 23E0     		b	.L4
  68              	.L3:
  69              		.loc 1 57 0
  70 0028 0598     		ldr	r0, [sp, #20]
  71 002a 0299     		ldr	r1, [sp, #8]
  72 002c FFF7FEFF 		bl	strspn
  73 0030 0346     		mov	r3, r0
  74 0032 059A     		ldr	r2, [sp, #20]
  75 0034 D318     		adds	r3, r2, r3
  76 0036 0593     		str	r3, [sp, #20]
  77              		.loc 1 58 0
  78 0038 0598     		ldr	r0, [sp, #20]
  79 003a 0299     		ldr	r1, [sp, #8]
  80 003c FFF7FEFF 		bl	strpbrk
  81 0040 0246     		mov	r2, r0
  82 0042 019B     		ldr	r3, [sp, #4]
  83 0044 1A60     		str	r2, [r3, #0]
  84              		.loc 1 59 0
  85 0046 019B     		ldr	r3, [sp, #4]
  86 0048 1B68     		ldr	r3, [r3, #0]
  87 004a 002B     		cmp	r3, #0
  88 004c 08D0     		beq	.L5
  89              		.loc 1 60 0
  90 004e 019B     		ldr	r3, [sp, #4]
  91 0050 1B68     		ldr	r3, [r3, #0]
  92 0052 4FF00002 		mov	r2, #0
  93 0056 1A70     		strb	r2, [r3, #0]
  94 0058 03F10102 		add	r2, r3, #1
  95 005c 019B     		ldr	r3, [sp, #4]
  96 005e 1A60     		str	r2, [r3, #0]
  97              	.L5:
  98              		.loc 1 62 0
  99 0060 059B     		ldr	r3, [sp, #20]
 100 0062 1B78     		ldrb	r3, [r3, #0]	@ zero_extendqisi2
 101 0064 002B     		cmp	r3, #0
 102 0066 01D0     		beq	.L6
 103              		.loc 1 62 0 is_stmt 0 discriminator 1
 104 0068 059B     		ldr	r3, [sp, #20]
 105 006a 01E0     		b	.L7
 106              	.L6:
 107              		.loc 1 62 0 discriminator 2
 108 006c 4FF00003 		mov	r3, #0
 109              	.L7:
 110              	.L4:
 111              		.loc 1 63 0 is_stmt 1
 112 0070 1846     		mov	r0, r3
 113 0072 07B0     		add	sp, sp, #28
 114 0074 00BD     		pop	{pc}
ARM GAS  C:\Users\z80\AppData\Local\Temp\ccYnvvge.s 			page 3


 115              		.cfi_endproc
 116              	.LFE62:
 117              		.size	_strtok, .-_strtok
 118 0076 00BFAFF3 		.section	.rodata
 118      0080AFF3 
 118      0080
 119              		.align	2
 120              	.LC0:
 121 0000 55736167 		.ascii	"Usage: %s\015\012\000"
 121      653A2025 
 121      730D0A00 
 122              		.section	.text.usage,"ax",%progbits
 123              		.align	2
 124              		.p2align 4,,15
 125              		.thumb
 126              		.thumb_func
 127              		.type	usage, %function
 128              	usage:
 129              	.LFB63:
 130              		.loc 1 65 0
 131              		.cfi_startproc
 132              		@ args = 0, pretend = 0, frame = 8
 133              		@ frame_needed = 0, uses_anonymous_args = 0
 134 0000 00B5     		push	{lr}
 135              	.LCFI2:
 136              		.cfi_def_cfa_offset 4
 137              		.cfi_offset 14, -4
 138 0002 83B0     		sub	sp, sp, #12
 139              	.LCFI3:
 140              		.cfi_def_cfa_offset 16
 141 0004 0190     		str	r0, [sp, #4]
 142 0006 0091     		str	r1, [sp, #0]
 143              		.loc 1 67 0
 144 0008 0198     		ldr	r0, [sp, #4]
 145 000a 40F20001 		movw	r1, #:lower16:.LC0
 146 000e C0F20001 		movt	r1, #:upper16:.LC0
 147 0012 009A     		ldr	r2, [sp, #0]
 148 0014 FFF7FEFF 		bl	chprintf
 149              		.loc 1 68 0
 150 0018 03B0     		add	sp, sp, #12
 151 001a 00BD     		pop	{pc}
 152              		.cfi_endproc
 153              	.LFE63:
 154              		.size	usage, .-usage
 155 001c AFF30080 		.section	.rodata
 156              		.align	2
 157              	.LC1:
 158 000c 25732000 		.ascii	"%s \000"
 159              		.section	.text.list_commands,"ax",%progbits
 160              		.align	2
 161              		.p2align 4,,15
 162              		.thumb
 163              		.thumb_func
 164              		.type	list_commands, %function
 165              	list_commands:
 166              	.LFB64:
 167              		.loc 1 70 0
ARM GAS  C:\Users\z80\AppData\Local\Temp\ccYnvvge.s 			page 4


 168              		.cfi_startproc
 169              		@ args = 0, pretend = 0, frame = 8
 170              		@ frame_needed = 0, uses_anonymous_args = 0
 171 0000 00B5     		push	{lr}
 172              	.LCFI4:
 173              		.cfi_def_cfa_offset 4
 174              		.cfi_offset 14, -4
 175 0002 83B0     		sub	sp, sp, #12
 176              	.LCFI5:
 177              		.cfi_def_cfa_offset 16
 178 0004 0190     		str	r0, [sp, #4]
 179 0006 0091     		str	r1, [sp, #0]
 180              		.loc 1 72 0
 181 0008 0DE0     		b	.L10
 182              	.L11:
 183              		.loc 1 73 0
 184 000a 009B     		ldr	r3, [sp, #0]
 185 000c 1B68     		ldr	r3, [r3, #0]
 186 000e 0198     		ldr	r0, [sp, #4]
 187 0010 40F20001 		movw	r1, #:lower16:.LC1
 188 0014 C0F20001 		movt	r1, #:upper16:.LC1
 189 0018 1A46     		mov	r2, r3
 190 001a FFF7FEFF 		bl	chprintf
 191              		.loc 1 74 0
 192 001e 009B     		ldr	r3, [sp, #0]
 193 0020 03F10803 		add	r3, r3, #8
 194 0024 0093     		str	r3, [sp, #0]
 195              	.L10:
 196              		.loc 1 72 0 discriminator 1
 197 0026 009B     		ldr	r3, [sp, #0]
 198 0028 1B68     		ldr	r3, [r3, #0]
 199 002a 002B     		cmp	r3, #0
 200 002c EDD1     		bne	.L11
 201              		.loc 1 76 0
 202 002e 03B0     		add	sp, sp, #12
 203 0030 00BD     		pop	{pc}
 204              		.cfi_endproc
 205              	.LFE64:
 206              		.size	list_commands, .-list_commands
 207 0032 00BFAFF3 		.section	.rodata
 207      0080AFF3 
 207      0080AFF3 
 207      0080
 208              		.align	2
 209              	.LC2:
 210 0010 696E666F 		.ascii	"info\000"
 210      00
 211 0015 000000   		.align	2
 212              	.LC3:
 213 0018 4B65726E 		.ascii	"Kernel:       %s\015\012\000"
 213      656C3A20 
 213      20202020 
 213      20202573 
 213      0D0A00
 214 002b 00       		.align	2
 215              	.LC4:
 216 002c 322E342E 		.ascii	"2.4.3\000"
ARM GAS  C:\Users\z80\AppData\Local\Temp\ccYnvvge.s 			page 5


 216      3300
 217 0032 0000     		.align	2
 218              	.LC5:
 219 0034 436F6D70 		.ascii	"Compiler:     %s\015\012\000"
 219      696C6572 
 219      3A202020 
 219      20202573 
 219      0D0A00
 220 0047 00       		.align	2
 221              	.LC6:
 222 0048 47434320 		.ascii	"GCC 4.6.3\000"
 222      342E362E 
 222      3300
 223 0052 0000     		.align	2
 224              	.LC7:
 225 0054 41726368 		.ascii	"Architecture: %s\015\012\000"
 225      69746563 
 225      74757265 
 225      3A202573 
 225      0D0A00
 226 0067 00       		.align	2
 227              	.LC8:
 228 0068 41524D76 		.ascii	"ARMv7-M\000"
 228      372D4D00 
 229              		.align	2
 230              	.LC9:
 231 0070 436F7265 		.ascii	"Core Variant: %s\015\012\000"
 231      20566172 
 231      69616E74 
 231      3A202573 
 231      0D0A00
 232 0083 00       		.align	2
 233              	.LC10:
 234 0084 436F7274 		.ascii	"Cortex-M3\000"
 234      65782D4D 
 234      3300
 235 008e 0000     		.align	2
 236              	.LC11:
 237 0090 506F7274 		.ascii	"Port Info:    %s\015\012\000"
 237      20496E66 
 237      6F3A2020 
 237      20202573 
 237      0D0A00
 238 00a3 00       		.align	2
 239              	.LC12:
 240 00a4 41647661 		.ascii	"Advanced kernel mode\000"
 240      6E636564 
 240      206B6572 
 240      6E656C20 
 240      6D6F6465 
 241 00b9 000000   		.align	2
 242              	.LC13:
 243 00bc 506C6174 		.ascii	"Platform:     %s\015\012\000"
 243      666F726D 
 243      3A202020 
 243      20202573 
 243      0D0A00
ARM GAS  C:\Users\z80\AppData\Local\Temp\ccYnvvge.s 			page 6


 244 00cf 00       		.align	2
 245              	.LC14:
 246 00d0 53544D33 		.ascii	"STM32F1 Performance Line Medium Density\000"
 246      32463120 
 246      50657266 
 246      6F726D61 
 246      6E636520 
 247              		.align	2
 248              	.LC15:
 249 00f8 426F6172 		.ascii	"Board:        %s\015\012\000"
 249      643A2020 
 249      20202020 
 249      20202573 
 249      0D0A00
 250 010b 00       		.align	2
 251              	.LC16:
 252 010c 6D792063 		.ascii	"my ctrl-board\000"
 252      74726C2D 
 252      626F6172 
 252      6400
 253 011a 0000     		.align	2
 254              	.LC17:
 255 011c 4275696C 		.ascii	"Build time:   %s%s%s\015\012\000"
 255      64207469 
 255      6D653A20 
 255      20202573 
 255      25732573 
 256 0133 00       		.align	2
 257              	.LC18:
 258 0134 41756720 		.ascii	"Aug 19 2015\000"
 258      31392032 
 258      30313500 
 259              		.align	2
 260              	.LC19:
 261 0140 202D2000 		.ascii	" - \000"
 262              		.align	2
 263              	.LC20:
 264 0144 30393A34 		.ascii	"09:40:25\000"
 264      303A3235 
 264      00
 265              		.section	.text.cmd_info,"ax",%progbits
 266              		.align	2
 267              		.p2align 4,,15
 268              		.thumb
 269              		.thumb_func
 270              		.type	cmd_info, %function
 271              	cmd_info:
 272              	.LFB65:
 273              		.loc 1 78 0
 274              		.cfi_startproc
 275              		@ args = 0, pretend = 0, frame = 16
 276              		@ frame_needed = 0, uses_anonymous_args = 0
 277 0000 00B5     		push	{lr}
 278              	.LCFI6:
 279              		.cfi_def_cfa_offset 4
 280              		.cfi_offset 14, -4
 281 0002 87B0     		sub	sp, sp, #28
ARM GAS  C:\Users\z80\AppData\Local\Temp\ccYnvvge.s 			page 7


 282              	.LCFI7:
 283              		.cfi_def_cfa_offset 32
 284 0004 0590     		str	r0, [sp, #20]
 285 0006 0491     		str	r1, [sp, #16]
 286 0008 0392     		str	r2, [sp, #12]
 287              		.loc 1 81 0
 288 000a 049B     		ldr	r3, [sp, #16]
 289 000c 002B     		cmp	r3, #0
 290 000e 07DD     		ble	.L13
 291              		.loc 1 82 0
 292 0010 0598     		ldr	r0, [sp, #20]
 293 0012 40F20001 		movw	r1, #:lower16:.LC2
 294 0016 C0F20001 		movt	r1, #:upper16:.LC2
 295 001a FFF7FEFF 		bl	usage
 296              		.loc 1 83 0
 297 001e 60E0     		b	.L12
 298              	.L13:
 299              		.loc 1 86 0
 300 0020 0598     		ldr	r0, [sp, #20]
 301 0022 40F20001 		movw	r1, #:lower16:.LC3
 302 0026 C0F20001 		movt	r1, #:upper16:.LC3
 303 002a 40F20002 		movw	r2, #:lower16:.LC4
 304 002e C0F20002 		movt	r2, #:upper16:.LC4
 305 0032 FFF7FEFF 		bl	chprintf
 306              		.loc 1 88 0
 307 0036 0598     		ldr	r0, [sp, #20]
 308 0038 40F20001 		movw	r1, #:lower16:.LC5
 309 003c C0F20001 		movt	r1, #:upper16:.LC5
 310 0040 40F20002 		movw	r2, #:lower16:.LC6
 311 0044 C0F20002 		movt	r2, #:upper16:.LC6
 312 0048 FFF7FEFF 		bl	chprintf
 313              		.loc 1 90 0
 314 004c 0598     		ldr	r0, [sp, #20]
 315 004e 40F20001 		movw	r1, #:lower16:.LC7
 316 0052 C0F20001 		movt	r1, #:upper16:.LC7
 317 0056 40F20002 		movw	r2, #:lower16:.LC8
 318 005a C0F20002 		movt	r2, #:upper16:.LC8
 319 005e FFF7FEFF 		bl	chprintf
 320              		.loc 1 92 0
 321 0062 0598     		ldr	r0, [sp, #20]
 322 0064 40F20001 		movw	r1, #:lower16:.LC9
 323 0068 C0F20001 		movt	r1, #:upper16:.LC9
 324 006c 40F20002 		movw	r2, #:lower16:.LC10
 325 0070 C0F20002 		movt	r2, #:upper16:.LC10
 326 0074 FFF7FEFF 		bl	chprintf
 327              		.loc 1 95 0
 328 0078 0598     		ldr	r0, [sp, #20]
 329 007a 40F20001 		movw	r1, #:lower16:.LC11
 330 007e C0F20001 		movt	r1, #:upper16:.LC11
 331 0082 40F20002 		movw	r2, #:lower16:.LC12
 332 0086 C0F20002 		movt	r2, #:upper16:.LC12
 333 008a FFF7FEFF 		bl	chprintf
 334              		.loc 1 98 0
 335 008e 0598     		ldr	r0, [sp, #20]
 336 0090 40F20001 		movw	r1, #:lower16:.LC13
 337 0094 C0F20001 		movt	r1, #:upper16:.LC13
 338 0098 40F20002 		movw	r2, #:lower16:.LC14
ARM GAS  C:\Users\z80\AppData\Local\Temp\ccYnvvge.s 			page 8


 339 009c C0F20002 		movt	r2, #:upper16:.LC14
 340 00a0 FFF7FEFF 		bl	chprintf
 341              		.loc 1 101 0
 342 00a4 0598     		ldr	r0, [sp, #20]
 343 00a6 40F20001 		movw	r1, #:lower16:.LC15
 344 00aa C0F20001 		movt	r1, #:upper16:.LC15
 345 00ae 40F20002 		movw	r2, #:lower16:.LC16
 346 00b2 C0F20002 		movt	r2, #:upper16:.LC16
 347 00b6 FFF7FEFF 		bl	chprintf
 348              		.loc 1 105 0
 349 00ba 40F20003 		movw	r3, #:lower16:.LC20
 350 00be C0F20003 		movt	r3, #:upper16:.LC20
 351 00c2 0093     		str	r3, [sp, #0]
 352 00c4 0598     		ldr	r0, [sp, #20]
 353 00c6 40F20001 		movw	r1, #:lower16:.LC17
 354 00ca C0F20001 		movt	r1, #:upper16:.LC17
 355 00ce 40F20002 		movw	r2, #:lower16:.LC18
 356 00d2 C0F20002 		movt	r2, #:upper16:.LC18
 357 00d6 40F20003 		movw	r3, #:lower16:.LC19
 358 00da C0F20003 		movt	r3, #:upper16:.LC19
 359 00de FFF7FEFF 		bl	chprintf
 360              	.L12:
 361              		.loc 1 108 0
 362 00e2 07B0     		add	sp, sp, #28
 363 00e4 00BD     		pop	{pc}
 364              		.cfi_endproc
 365              	.LFE65:
 366              		.size	cmd_info, .-cmd_info
 367 00e6 00BFAFF3 		.section	.rodata
 367      0080AFF3 
 367      0080
 368 014d 000000   		.align	2
 369              	.LC21:
 370 0150 73797374 		.ascii	"systime\000"
 370      696D6500 
 371              		.align	2
 372              	.LC22:
 373 0158 256C750D 		.ascii	"%lu\015\012\000"
 373      0A00
 374              		.section	.text.cmd_systime,"ax",%progbits
 375              		.align	2
 376              		.p2align 4,,15
 377              		.thumb
 378              		.thumb_func
 379              		.type	cmd_systime, %function
 380              	cmd_systime:
 381              	.LFB66:
 382              		.loc 1 110 0
 383              		.cfi_startproc
 384              		@ args = 0, pretend = 0, frame = 16
 385              		@ frame_needed = 0, uses_anonymous_args = 0
 386 0000 00B5     		push	{lr}
 387              	.LCFI8:
 388              		.cfi_def_cfa_offset 4
 389              		.cfi_offset 14, -4
 390 0002 85B0     		sub	sp, sp, #20
 391              	.LCFI9:
ARM GAS  C:\Users\z80\AppData\Local\Temp\ccYnvvge.s 			page 9


 392              		.cfi_def_cfa_offset 24
 393 0004 0390     		str	r0, [sp, #12]
 394 0006 0291     		str	r1, [sp, #8]
 395 0008 0192     		str	r2, [sp, #4]
 396              		.loc 1 113 0
 397 000a 029B     		ldr	r3, [sp, #8]
 398 000c 002B     		cmp	r3, #0
 399 000e 07DD     		ble	.L16
 400              		.loc 1 114 0
 401 0010 0398     		ldr	r0, [sp, #12]
 402 0012 40F20001 		movw	r1, #:lower16:.LC21
 403 0016 C0F20001 		movt	r1, #:upper16:.LC21
 404 001a FFF7FEFF 		bl	usage
 405              		.loc 1 115 0
 406 001e 0CE0     		b	.L15
 407              	.L16:
 408              		.loc 1 117 0
 409 0020 40F20003 		movw	r3, #:lower16:vtlist
 410 0024 C0F20003 		movt	r3, #:upper16:vtlist
 411 0028 DB68     		ldr	r3, [r3, #12]
 412 002a 0398     		ldr	r0, [sp, #12]
 413 002c 40F20001 		movw	r1, #:lower16:.LC22
 414 0030 C0F20001 		movt	r1, #:upper16:.LC22
 415 0034 1A46     		mov	r2, r3
 416 0036 FFF7FEFF 		bl	chprintf
 417              	.L15:
 418              		.loc 1 118 0
 419 003a 05B0     		add	sp, sp, #20
 420 003c 00BD     		pop	{pc}
 421              		.cfi_endproc
 422              	.LFE66:
 423              		.size	cmd_systime, .-cmd_systime
 424 003e 00BF     		.section	.data.local_commands,"aw",%progbits
 425              		.align	2
 426              		.type	local_commands, %object
 427              		.size	local_commands, 24
 428              	local_commands:
 429 0000 10000000 		.word	.LC2
 430 0004 00000000 		.word	cmd_info
 431 0008 50010000 		.word	.LC21
 432 000c 00000000 		.word	cmd_systime
 433 0010 00000000 		.word	0
 434 0014 00000000 		.word	0
 435              		.section	.text.cmdexec,"ax",%progbits
 436              		.align	2
 437              		.p2align 4,,15
 438              		.thumb
 439              		.thumb_func
 440              		.type	cmdexec, %function
 441              	cmdexec:
 442              	.LFB67:
 443              		.loc 1 130 0
 444              		.cfi_startproc
 445              		@ args = 4, pretend = 0, frame = 16
 446              		@ frame_needed = 0, uses_anonymous_args = 0
 447 0000 00B5     		push	{lr}
 448              	.LCFI10:
ARM GAS  C:\Users\z80\AppData\Local\Temp\ccYnvvge.s 			page 10


 449              		.cfi_def_cfa_offset 4
 450              		.cfi_offset 14, -4
 451 0002 85B0     		sub	sp, sp, #20
 452              	.LCFI11:
 453              		.cfi_def_cfa_offset 24
 454 0004 0390     		str	r0, [sp, #12]
 455 0006 0291     		str	r1, [sp, #8]
 456 0008 0192     		str	r2, [sp, #4]
 457 000a 0093     		str	r3, [sp, #0]
 458              		.loc 1 132 0
 459 000c 15E0     		b	.L19
 460              	.L22:
 461              		.loc 1 133 0
 462 000e 039B     		ldr	r3, [sp, #12]
 463 0010 1B68     		ldr	r3, [r3, #0]
 464 0012 1846     		mov	r0, r3
 465 0014 0199     		ldr	r1, [sp, #4]
 466 0016 FFF7FEFF 		bl	strcasecmp
 467 001a 0346     		mov	r3, r0
 468 001c 002B     		cmp	r3, #0
 469 001e 08D1     		bne	.L20
 470              		.loc 1 134 0
 471 0020 039B     		ldr	r3, [sp, #12]
 472 0022 5B68     		ldr	r3, [r3, #4]
 473 0024 0298     		ldr	r0, [sp, #8]
 474 0026 0099     		ldr	r1, [sp, #0]
 475 0028 069A     		ldr	r2, [sp, #24]
 476 002a 9847     		blx	r3
 477              		.loc 1 135 0
 478 002c 4FF00003 		mov	r3, #0
 479 0030 09E0     		b	.L21
 480              	.L20:
 481              		.loc 1 137 0
 482 0032 039B     		ldr	r3, [sp, #12]
 483 0034 03F10803 		add	r3, r3, #8
 484 0038 0393     		str	r3, [sp, #12]
 485              	.L19:
 486              		.loc 1 132 0 discriminator 1
 487 003a 039B     		ldr	r3, [sp, #12]
 488 003c 1B68     		ldr	r3, [r3, #0]
 489 003e 002B     		cmp	r3, #0
 490 0040 E5D1     		bne	.L22
 491              		.loc 1 139 0
 492 0042 4FF00103 		mov	r3, #1
 493              	.L21:
 494              		.loc 1 140 0
 495 0046 1846     		mov	r0, r3
 496 0048 05B0     		add	sp, sp, #20
 497 004a 00BD     		pop	{pc}
 498              		.cfi_endproc
 499              	.LFE67:
 500              		.size	cmdexec, .-cmdexec
 501 004c AFF30080 		.section	.rodata
 502 015e 0000     		.align	2
 503              	.LC23:
 504 0160 7368656C 		.ascii	"shell\000"
 504      6C00
ARM GAS  C:\Users\z80\AppData\Local\Temp\ccYnvvge.s 			page 11


 505 0166 0000     		.align	2
 506              	.LC24:
 507 0168 0D0A4368 		.ascii	"\015\012ChibiOS/RT Shell\015\012\000"
 507      6962694F 
 507      532F5254 
 507      20536865 
 507      6C6C0D0A 
 508 017d 000000   		.align	2
 509              	.LC25:
 510 0180 63683E20 		.ascii	"ch> \000"
 510      00
 511 0185 000000   		.align	2
 512              	.LC26:
 513 0188 0D0A6C6F 		.ascii	"\015\012logout\000"
 513      676F7574 
 513      00
 514 0191 000000   		.align	2
 515              	.LC27:
 516 0194 20003900 		.ascii	" \0009\000"
 517              		.align	2
 518              	.LC28:
 519 0198 746F6F20 		.ascii	"too many arguments\015\012\000"
 519      6D616E79 
 519      20617267 
 519      756D656E 
 519      74730D0A 
 520 01ad 000000   		.align	2
 521              	.LC29:
 522 01b0 65786974 		.ascii	"exit\000"
 522      00
 523 01b5 000000   		.align	2
 524              	.LC30:
 525 01b8 68656C70 		.ascii	"help\000"
 525      00
 526 01bd 000000   		.align	2
 527              	.LC31:
 528 01c0 436F6D6D 		.ascii	"Commands: help exit \000"
 528      616E6473 
 528      3A206865 
 528      6C702065 
 528      78697420 
 529 01d5 000000   		.align	2
 530              	.LC32:
 531 01d8 0D0A00   		.ascii	"\015\012\000"
 532 01db 00       		.align	2
 533              	.LC33:
 534 01dc 257300   		.ascii	"%s\000"
 535 01df 00       		.align	2
 536              	.LC34:
 537 01e0 203F0D0A 		.ascii	" ?\015\012\000"
 537      00
 538              		.section	.text.shell_thread,"ax",%progbits
 539              		.align	2
 540              		.p2align 4,,15
 541              		.thumb
 542              		.thumb_func
 543              		.type	shell_thread, %function
ARM GAS  C:\Users\z80\AppData\Local\Temp\ccYnvvge.s 			page 12


 544              	shell_thread:
 545              	.LFB68:
 546              		.loc 1 150 0
 547              		.cfi_startproc
 548              		@ args = 0, pretend = 0, frame = 120
 549              		@ frame_needed = 0, uses_anonymous_args = 0
 550 0000 00B5     		push	{lr}
 551              	.LCFI12:
 552              		.cfi_def_cfa_offset 4
 553              		.cfi_offset 14, -4
 554 0002 A1B0     		sub	sp, sp, #132
 555              	.LCFI13:
 556              		.cfi_def_cfa_offset 136
 557 0004 0390     		str	r0, [sp, #12]
 558              		.loc 1 152 0
 559 0006 4FF00003 		mov	r3, #0
 560 000a 1D93     		str	r3, [sp, #116]
 561              		.loc 1 153 0
 562 000c 039B     		ldr	r3, [sp, #12]
 563 000e 1B68     		ldr	r3, [r3, #0]
 564 0010 1C93     		str	r3, [sp, #112]
 565              		.loc 1 154 0
 566 0012 039B     		ldr	r3, [sp, #12]
 567 0014 5B68     		ldr	r3, [r3, #4]
 568 0016 1B93     		str	r3, [sp, #108]
 569              		.loc 1 158 0
 570 0018 40F20003 		movw	r3, #:lower16:rlist
 571 001c C0F20003 		movt	r3, #:upper16:rlist
 572 0020 DA69     		ldr	r2, [r3, #28]
 573 0022 40F20003 		movw	r3, #:lower16:.LC23
 574 0026 C0F20003 		movt	r3, #:upper16:.LC23
 575 002a 9361     		str	r3, [r2, #24]
 576              		.loc 1 159 0
 577 002c 1C98     		ldr	r0, [sp, #112]
 578 002e 40F20001 		movw	r1, #:lower16:.LC24
 579 0032 C0F20001 		movt	r1, #:upper16:.LC24
 580 0036 FFF7FEFF 		bl	chprintf
 581 003a 00E0     		b	.L37
 582              	.L38:
 583              		.loc 1 203 0
 584 003c 00BF     		nop
 585              	.L37:
 586              		.loc 1 161 0
 587 003e 1C98     		ldr	r0, [sp, #112]
 588 0040 40F20001 		movw	r1, #:lower16:.LC25
 589 0044 C0F20001 		movt	r1, #:upper16:.LC25
 590 0048 FFF7FEFF 		bl	chprintf
 591              		.loc 1 162 0
 592 004c 1C98     		ldr	r0, [sp, #112]
 593 004e 09AB     		add	r3, sp, #36
 594 0050 1946     		mov	r1, r3
 595 0052 4FF04002 		mov	r2, #64
 596 0056 FFF7FEFF 		bl	shellGetLine
 597 005a 0346     		mov	r3, r0
 598 005c 002B     		cmp	r3, #0
 599 005e 07D0     		beq	.L24
 600              		.loc 1 163 0
ARM GAS  C:\Users\z80\AppData\Local\Temp\ccYnvvge.s 			page 13


 601 0060 1C98     		ldr	r0, [sp, #112]
 602 0062 40F20001 		movw	r1, #:lower16:.LC26
 603 0066 C0F20001 		movt	r1, #:upper16:.LC26
 604 006a FFF7FEFF 		bl	chprintf
 605              		.loc 1 164 0
 606 006e BBE0     		b	.L25
 607              	.L24:
 608              		.loc 1 166 0
 609 0070 09AB     		add	r3, sp, #36
 610 0072 1846     		mov	r0, r3
 611 0074 40F20001 		movw	r1, #:lower16:.LC27
 612 0078 C0F20001 		movt	r1, #:upper16:.LC27
 613 007c 19AB     		add	r3, sp, #100
 614 007e 1A46     		mov	r2, r3
 615 0080 FFF7FEFF 		bl	_strtok
 616 0084 1A90     		str	r0, [sp, #104]
 617              		.loc 1 167 0
 618 0086 1A9B     		ldr	r3, [sp, #104]
 619 0088 1E93     		str	r3, [sp, #120]
 620              		.loc 1 168 0
 621 008a 4FF00003 		mov	r3, #0
 622 008e 1F93     		str	r3, [sp, #124]
 623              		.loc 1 169 0
 624 0090 19E0     		b	.L26
 625              	.L29:
 626              		.loc 1 170 0
 627 0092 1F9B     		ldr	r3, [sp, #124]
 628 0094 032B     		cmp	r3, #3
 629 0096 0ADD     		ble	.L27
 630              		.loc 1 171 0
 631 0098 1C98     		ldr	r0, [sp, #112]
 632 009a 40F20001 		movw	r1, #:lower16:.LC28
 633 009e C0F20001 		movt	r1, #:upper16:.LC28
 634 00a2 FFF7FEFF 		bl	chprintf
 635              		.loc 1 172 0
 636 00a6 4FF00003 		mov	r3, #0
 637 00aa 1E93     		str	r3, [sp, #120]
 638              		.loc 1 173 0
 639 00ac 19E0     		b	.L28
 640              	.L27:
 641              		.loc 1 175 0
 642 00ae 1F9B     		ldr	r3, [sp, #124]
 643 00b0 4FEA8303 		lsl	r3, r3, #2
 644 00b4 20AA     		add	r2, sp, #128
 645 00b6 D318     		adds	r3, r2, r3
 646 00b8 1A9A     		ldr	r2, [sp, #104]
 647 00ba 43F8702C 		str	r2, [r3, #-112]
 648 00be 1F9B     		ldr	r3, [sp, #124]
 649 00c0 03F10103 		add	r3, r3, #1
 650 00c4 1F93     		str	r3, [sp, #124]
 651              	.L26:
 652              		.loc 1 169 0 discriminator 1
 653 00c6 4FF00000 		mov	r0, #0
 654 00ca 40F20001 		movw	r1, #:lower16:.LC27
 655 00ce C0F20001 		movt	r1, #:upper16:.LC27
 656 00d2 19AB     		add	r3, sp, #100
 657 00d4 1A46     		mov	r2, r3
ARM GAS  C:\Users\z80\AppData\Local\Temp\ccYnvvge.s 			page 14


 658 00d6 FFF7FEFF 		bl	_strtok
 659 00da 1A90     		str	r0, [sp, #104]
 660 00dc 1A9B     		ldr	r3, [sp, #104]
 661 00de 002B     		cmp	r3, #0
 662 00e0 D7D1     		bne	.L29
 663              	.L28:
 664              		.loc 1 177 0
 665 00e2 1F9B     		ldr	r3, [sp, #124]
 666 00e4 4FEA8303 		lsl	r3, r3, #2
 667 00e8 20AA     		add	r2, sp, #128
 668 00ea D318     		adds	r3, r2, r3
 669 00ec 4FF00002 		mov	r2, #0
 670 00f0 43F8702C 		str	r2, [r3, #-112]
 671              		.loc 1 178 0
 672 00f4 1E9B     		ldr	r3, [sp, #120]
 673 00f6 002B     		cmp	r3, #0
 674 00f8 A0D0     		beq	.L38
 675              		.loc 1 179 0
 676 00fa 1E98     		ldr	r0, [sp, #120]
 677 00fc 40F20001 		movw	r1, #:lower16:.LC29
 678 0100 C0F20001 		movt	r1, #:upper16:.LC29
 679 0104 FFF7FEFF 		bl	strcasecmp
 680 0108 0346     		mov	r3, r0
 681 010a 002B     		cmp	r3, #0
 682 010c 0AD1     		bne	.L31
 683              		.loc 1 180 0
 684 010e 1F9B     		ldr	r3, [sp, #124]
 685 0110 002B     		cmp	r3, #0
 686 0112 68DD     		ble	.L39
 687              		.loc 1 181 0
 688 0114 1C98     		ldr	r0, [sp, #112]
 689 0116 40F20001 		movw	r1, #:lower16:.LC29
 690 011a C0F20001 		movt	r1, #:upper16:.LC29
 691 011e FFF7FEFF 		bl	usage
 692              		.loc 1 182 0
 693 0122 5FE0     		b	.L30
 694              	.L31:
 695              		.loc 1 186 0
 696 0124 1E98     		ldr	r0, [sp, #120]
 697 0126 40F20001 		movw	r1, #:lower16:.LC30
 698 012a C0F20001 		movt	r1, #:upper16:.LC30
 699 012e FFF7FEFF 		bl	strcasecmp
 700 0132 0346     		mov	r3, r0
 701 0134 002B     		cmp	r3, #0
 702 0136 27D1     		bne	.L33
 703              		.loc 1 187 0
 704 0138 1F9B     		ldr	r3, [sp, #124]
 705 013a 002B     		cmp	r3, #0
 706 013c 07DD     		ble	.L34
 707              		.loc 1 188 0
 708 013e 1C98     		ldr	r0, [sp, #112]
 709 0140 40F20001 		movw	r1, #:lower16:.LC30
 710 0144 C0F20001 		movt	r1, #:upper16:.LC30
 711 0148 FFF7FEFF 		bl	usage
 712              		.loc 1 189 0
 713 014c 4AE0     		b	.L30
 714              	.L34:
ARM GAS  C:\Users\z80\AppData\Local\Temp\ccYnvvge.s 			page 15


 715              		.loc 1 191 0
 716 014e 1C98     		ldr	r0, [sp, #112]
 717 0150 40F20001 		movw	r1, #:lower16:.LC31
 718 0154 C0F20001 		movt	r1, #:upper16:.LC31
 719 0158 FFF7FEFF 		bl	chprintf
 720              		.loc 1 192 0
 721 015c 1C98     		ldr	r0, [sp, #112]
 722 015e 40F20001 		movw	r1, #:lower16:local_commands
 723 0162 C0F20001 		movt	r1, #:upper16:local_commands
 724 0166 FFF7FEFF 		bl	list_commands
 725              		.loc 1 193 0
 726 016a 1B9B     		ldr	r3, [sp, #108]
 727 016c 002B     		cmp	r3, #0
 728 016e 03D0     		beq	.L35
 729              		.loc 1 194 0
 730 0170 1C98     		ldr	r0, [sp, #112]
 731 0172 1B99     		ldr	r1, [sp, #108]
 732 0174 FFF7FEFF 		bl	list_commands
 733              	.L35:
 734              		.loc 1 195 0
 735 0178 1C98     		ldr	r0, [sp, #112]
 736 017a 40F20001 		movw	r1, #:lower16:.LC32
 737 017e C0F20001 		movt	r1, #:upper16:.LC32
 738 0182 FFF7FEFF 		bl	chprintf
 739              		.loc 1 203 0
 740 0186 59E7     		b	.L38
 741              	.L33:
 742              		.loc 1 197 0
 743 0188 04AB     		add	r3, sp, #16
 744 018a 0093     		str	r3, [sp, #0]
 745 018c 40F20000 		movw	r0, #:lower16:local_commands
 746 0190 C0F20000 		movt	r0, #:upper16:local_commands
 747 0194 1C99     		ldr	r1, [sp, #112]
 748 0196 1E9A     		ldr	r2, [sp, #120]
 749 0198 1F9B     		ldr	r3, [sp, #124]
 750 019a FFF7FEFF 		bl	cmdexec
 751 019e 0346     		mov	r3, r0
 752 01a0 002B     		cmp	r3, #0
 753 01a2 3FF44BAF 		beq	.L38
 754              		.loc 1 197 0 is_stmt 0 discriminator 1
 755 01a6 1B9B     		ldr	r3, [sp, #108]
 756 01a8 002B     		cmp	r3, #0
 757 01aa 0BD0     		beq	.L36
 758              		.loc 1 198 0 is_stmt 1
 759 01ac 04AB     		add	r3, sp, #16
 760 01ae 0093     		str	r3, [sp, #0]
 761 01b0 1B98     		ldr	r0, [sp, #108]
 762 01b2 1C99     		ldr	r1, [sp, #112]
 763 01b4 1E9A     		ldr	r2, [sp, #120]
 764 01b6 1F9B     		ldr	r3, [sp, #124]
 765 01b8 FFF7FEFF 		bl	cmdexec
 766 01bc 0346     		mov	r3, r0
 767 01be 002B     		cmp	r3, #0
 768 01c0 3FF43CAF 		beq	.L38
 769              	.L36:
 770              		.loc 1 199 0
 771 01c4 1C98     		ldr	r0, [sp, #112]
ARM GAS  C:\Users\z80\AppData\Local\Temp\ccYnvvge.s 			page 16


 772 01c6 40F20001 		movw	r1, #:lower16:.LC33
 773 01ca C0F20001 		movt	r1, #:upper16:.LC33
 774 01ce 1E9A     		ldr	r2, [sp, #120]
 775 01d0 FFF7FEFF 		bl	chprintf
 776              		.loc 1 200 0
 777 01d4 1C98     		ldr	r0, [sp, #112]
 778 01d6 40F20001 		movw	r1, #:lower16:.LC34
 779 01da C0F20001 		movt	r1, #:upper16:.LC34
 780 01de FFF7FEFF 		bl	chprintf
 781              		.loc 1 203 0
 782 01e2 2BE7     		b	.L38
 783              	.L30:
 784 01e4 2AE7     		b	.L38
 785              	.L39:
 786              		.loc 1 184 0
 787 01e6 00BF     		nop
 788              	.L25:
 789              	.LBB2:
 790              		.loc 1 206 0
 791 01e8 4FF02003 		mov	r3, #32
 792              	@ 206 "../chibios_2.4.x/os/various/shell.c" 1
 793 01ec 83F31188 		msr     BASEPRI, r3
 794              	@ 0 "" 2
 795              		.thumb
 796              	.LBE2:
 797 01f0 FFF7FEFF 		bl	dbg_check_lock
 798              		.loc 1 207 0
 799 01f4 40F20000 		movw	r0, #:lower16:shell_terminated
 800 01f8 C0F20000 		movt	r0, #:upper16:shell_terminated
 801 01fc 4FF00001 		mov	r1, #0
 802 0200 FFF7FEFF 		bl	chEvtBroadcastFlagsI
 803              		.loc 1 208 0
 804 0204 1D98     		ldr	r0, [sp, #116]
 805 0206 FFF7FEFF 		bl	chThdExitS
 806              		.loc 1 209 0
 807 020a 4FF00003 		mov	r3, #0
 808              		.loc 1 210 0
 809 020e 1846     		mov	r0, r3
 810 0210 21B0     		add	sp, sp, #132
 811 0212 00BD     		pop	{pc}
 812              		.cfi_endproc
 813              	.LFE68:
 814              		.size	shell_thread, .-shell_thread
 815 0214 AFF30080 		.section	.text.shellInit,"ax",%progbits
 815      AFF30080 
 815      AFF30080 
 816              		.align	2
 817              		.p2align 4,,15
 818              		.global	shellInit
 819              		.thumb
 820              		.thumb_func
 821              		.type	shellInit, %function
 822              	shellInit:
 823              	.LFB69:
 824              		.loc 1 215 0
 825              		.cfi_startproc
 826              		@ args = 0, pretend = 0, frame = 0
ARM GAS  C:\Users\z80\AppData\Local\Temp\ccYnvvge.s 			page 17


 827              		@ frame_needed = 0, uses_anonymous_args = 0
 828              		@ link register save eliminated.
 829              		.loc 1 217 0
 830 0000 40F20003 		movw	r3, #:lower16:shell_terminated
 831 0004 C0F20003 		movt	r3, #:upper16:shell_terminated
 832 0008 40F20002 		movw	r2, #:lower16:shell_terminated
 833 000c C0F20002 		movt	r2, #:upper16:shell_terminated
 834 0010 1A60     		str	r2, [r3, #0]
 835              		.loc 1 218 0
 836 0012 7047     		bx	lr
 837              		.cfi_endproc
 838              	.LFE69:
 839              		.size	shellInit, .-shellInit
 840 0014 AFF30080 		.section	.text.shellCreateStatic,"ax",%progbits
 840      AFF30080 
 840      AFF30080 
 841              		.align	2
 842              		.p2align 4,,15
 843              		.global	shellCreateStatic
 844              		.thumb
 845              		.thumb_func
 846              		.type	shellCreateStatic, %function
 847              	shellCreateStatic:
 848              	.LFB70:
 849              		.loc 1 247 0
 850              		.cfi_startproc
 851              		@ args = 0, pretend = 0, frame = 16
 852              		@ frame_needed = 0, uses_anonymous_args = 0
 853 0000 00B5     		push	{lr}
 854              	.LCFI14:
 855              		.cfi_def_cfa_offset 4
 856              		.cfi_offset 14, -4
 857 0002 87B0     		sub	sp, sp, #28
 858              	.LCFI15:
 859              		.cfi_def_cfa_offset 32
 860 0004 0590     		str	r0, [sp, #20]
 861 0006 0491     		str	r1, [sp, #16]
 862 0008 0392     		str	r2, [sp, #12]
 863 000a 0293     		str	r3, [sp, #8]
 864              		.loc 1 249 0
 865 000c 059B     		ldr	r3, [sp, #20]
 866 000e 0093     		str	r3, [sp, #0]
 867 0010 0498     		ldr	r0, [sp, #16]
 868 0012 0399     		ldr	r1, [sp, #12]
 869 0014 029A     		ldr	r2, [sp, #8]
 870 0016 40F20003 		movw	r3, #:lower16:shell_thread
 871 001a C0F20003 		movt	r3, #:upper16:shell_thread
 872 001e FFF7FEFF 		bl	chThdCreateStatic
 873 0022 0346     		mov	r3, r0
 874              		.loc 1 250 0
 875 0024 1846     		mov	r0, r3
 876 0026 07B0     		add	sp, sp, #28
 877 0028 00BD     		pop	{pc}
 878              		.cfi_endproc
 879              	.LFE70:
 880              		.size	shellCreateStatic, .-shellCreateStatic
 881 002a 00BFAFF3 		.section	.rodata
ARM GAS  C:\Users\z80\AppData\Local\Temp\ccYnvvge.s 			page 18


 881      0080
 882 01e5 000000   		.align	2
 883              	.LC35:
 884 01e8 5E4400   		.ascii	"^D\000"
 885 01eb 00       		.section	.text.shellGetLine,"ax",%progbits
 886              		.align	2
 887              		.p2align 4,,15
 888              		.global	shellGetLine
 889              		.thumb
 890              		.thumb_func
 891              		.type	shellGetLine, %function
 892              	shellGetLine:
 893              	.LFB71:
 894              		.loc 1 262 0
 895              		.cfi_startproc
 896              		@ args = 0, pretend = 0, frame = 24
 897              		@ frame_needed = 0, uses_anonymous_args = 0
 898 0000 00B5     		push	{lr}
 899              	.LCFI16:
 900              		.cfi_def_cfa_offset 4
 901              		.cfi_offset 14, -4
 902 0002 87B0     		sub	sp, sp, #28
 903              	.LCFI17:
 904              		.cfi_def_cfa_offset 32
 905 0004 0390     		str	r0, [sp, #12]
 906 0006 0291     		str	r1, [sp, #8]
 907 0008 0192     		str	r2, [sp, #4]
 908              		.loc 1 263 0
 909 000a 029B     		ldr	r3, [sp, #8]
 910 000c 0593     		str	r3, [sp, #20]
 911 000e 00E0     		b	.L51
 912              	.L54:
 913              		.loc 1 293 0
 914 0010 00BF     		nop
 915              	.L51:
 916              	.LBB3:
 917              		.loc 1 266 0
 918 0012 039B     		ldr	r3, [sp, #12]
 919 0014 1B68     		ldr	r3, [r3, #0]
 920 0016 5B69     		ldr	r3, [r3, #20]
 921 0018 0398     		ldr	r0, [sp, #12]
 922 001a 4FF0FF31 		mov	r1, #-1
 923 001e 9847     		blx	r3
 924 0020 0346     		mov	r3, r0
 925 0022 ADF81230 		strh	r3, [sp, #18]	@ movhi
 926              		.loc 1 267 0
 927 0026 BDF91230 		ldrsh	r3, [sp, #18]
 928 002a 002B     		cmp	r3, #0
 929 002c 02DA     		bge	.L43
 930              		.loc 1 268 0
 931 002e 4FF00103 		mov	r3, #1
 932 0032 70E0     		b	.L44
 933              	.L43:
 934              		.loc 1 269 0
 935 0034 BDF91230 		ldrsh	r3, [sp, #18]
 936 0038 042B     		cmp	r3, #4
 937 003a 09D1     		bne	.L45
ARM GAS  C:\Users\z80\AppData\Local\Temp\ccYnvvge.s 			page 19


 938              		.loc 1 270 0
 939 003c 0398     		ldr	r0, [sp, #12]
 940 003e 40F20001 		movw	r1, #:lower16:.LC35
 941 0042 C0F20001 		movt	r1, #:upper16:.LC35
 942 0046 FFF7FEFF 		bl	chprintf
 943              		.loc 1 271 0
 944 004a 4FF00103 		mov	r3, #1
 945 004e 62E0     		b	.L44
 946              	.L45:
 947              		.loc 1 273 0
 948 0050 BDF91230 		ldrsh	r3, [sp, #18]
 949 0054 082B     		cmp	r3, #8
 950 0056 27D1     		bne	.L46
 951              		.loc 1 274 0
 952 0058 059A     		ldr	r2, [sp, #20]
 953 005a 029B     		ldr	r3, [sp, #8]
 954 005c 9A42     		cmp	r2, r3
 955 005e 56D0     		beq	.L52
 956              		.loc 1 275 0
 957 0060 039B     		ldr	r3, [sp, #12]
 958 0062 1B68     		ldr	r3, [r3, #0]
 959 0064 1B69     		ldr	r3, [r3, #16]
 960 0066 BDF81220 		ldrh	r2, [sp, #18]	@ movhi
 961 006a D2B2     		uxtb	r2, r2
 962 006c 0398     		ldr	r0, [sp, #12]
 963 006e 1146     		mov	r1, r2
 964 0070 4FF0FF32 		mov	r2, #-1
 965 0074 9847     		blx	r3
 966              		.loc 1 276 0
 967 0076 039B     		ldr	r3, [sp, #12]
 968 0078 1B68     		ldr	r3, [r3, #0]
 969 007a 1B69     		ldr	r3, [r3, #16]
 970 007c 0398     		ldr	r0, [sp, #12]
 971 007e 4FF02001 		mov	r1, #32
 972 0082 4FF0FF32 		mov	r2, #-1
 973 0086 9847     		blx	r3
 974              		.loc 1 277 0
 975 0088 039B     		ldr	r3, [sp, #12]
 976 008a 1B68     		ldr	r3, [r3, #0]
 977 008c 1B69     		ldr	r3, [r3, #16]
 978 008e BDF81220 		ldrh	r2, [sp, #18]	@ movhi
 979 0092 D2B2     		uxtb	r2, r2
 980 0094 0398     		ldr	r0, [sp, #12]
 981 0096 1146     		mov	r1, r2
 982 0098 4FF0FF32 		mov	r2, #-1
 983 009c 9847     		blx	r3
 984              		.loc 1 278 0
 985 009e 059B     		ldr	r3, [sp, #20]
 986 00a0 03F1FF33 		add	r3, r3, #-1
 987 00a4 0593     		str	r3, [sp, #20]
 988              		.loc 1 280 0
 989 00a6 32E0     		b	.L52
 990              	.L46:
 991              		.loc 1 282 0
 992 00a8 BDF91230 		ldrsh	r3, [sp, #18]
 993 00ac 0D2B     		cmp	r3, #13
 994 00ae 0DD1     		bne	.L49
ARM GAS  C:\Users\z80\AppData\Local\Temp\ccYnvvge.s 			page 20


 995              		.loc 1 283 0
 996 00b0 0398     		ldr	r0, [sp, #12]
 997 00b2 40F20001 		movw	r1, #:lower16:.LC32
 998 00b6 C0F20001 		movt	r1, #:upper16:.LC32
 999 00ba FFF7FEFF 		bl	chprintf
 1000              		.loc 1 284 0
 1001 00be 059B     		ldr	r3, [sp, #20]
 1002 00c0 4FF00002 		mov	r2, #0
 1003 00c4 1A70     		strb	r2, [r3, #0]
 1004              		.loc 1 285 0
 1005 00c6 4FF00003 		mov	r3, #0
 1006 00ca 24E0     		b	.L44
 1007              	.L49:
 1008              		.loc 1 287 0
 1009 00cc BDF91230 		ldrsh	r3, [sp, #18]
 1010 00d0 1F2B     		cmp	r3, #31
 1011 00d2 1EDD     		ble	.L53
 1012              	.L50:
 1013              		.loc 1 289 0
 1014 00d4 019B     		ldr	r3, [sp, #4]
 1015 00d6 03F1FF33 		add	r3, r3, #-1
 1016 00da 029A     		ldr	r2, [sp, #8]
 1017 00dc D218     		adds	r2, r2, r3
 1018 00de 059B     		ldr	r3, [sp, #20]
 1019 00e0 9A42     		cmp	r2, r3
 1020 00e2 95D9     		bls	.L54
 1021              		.loc 1 290 0
 1022 00e4 039B     		ldr	r3, [sp, #12]
 1023 00e6 1B68     		ldr	r3, [r3, #0]
 1024 00e8 1B69     		ldr	r3, [r3, #16]
 1025 00ea BDF81220 		ldrh	r2, [sp, #18]	@ movhi
 1026 00ee D2B2     		uxtb	r2, r2
 1027 00f0 0398     		ldr	r0, [sp, #12]
 1028 00f2 1146     		mov	r1, r2
 1029 00f4 4FF0FF32 		mov	r2, #-1
 1030 00f8 9847     		blx	r3
 1031              		.loc 1 291 0
 1032 00fa BDF81230 		ldrh	r3, [sp, #18]	@ movhi
 1033 00fe DAB2     		uxtb	r2, r3
 1034 0100 059B     		ldr	r3, [sp, #20]
 1035 0102 1A70     		strb	r2, [r3, #0]
 1036 0104 059B     		ldr	r3, [sp, #20]
 1037 0106 03F10103 		add	r3, r3, #1
 1038 010a 0593     		str	r3, [sp, #20]
 1039              	.LBE3:
 1040              		.loc 1 293 0
 1041 010c 80E7     		b	.L54
 1042              	.L52:
 1043              	.LBB4:
 1044              		.loc 1 280 0
 1045 010e 00BF     		nop
 1046 0110 00E0     		b	.L48
 1047              	.L53:
 1048              		.loc 1 288 0
 1049 0112 00BF     		nop
 1050              	.L48:
 1051              	.LBE4:
ARM GAS  C:\Users\z80\AppData\Local\Temp\ccYnvvge.s 			page 21


 1052              		.loc 1 293 0
 1053 0114 7CE7     		b	.L54
 1054              	.L44:
 1055              		.loc 1 294 0
 1056 0116 1846     		mov	r0, r3
 1057 0118 07B0     		add	sp, sp, #28
 1058 011a 00BD     		pop	{pc}
 1059              		.cfi_endproc
 1060              	.LFE71:
 1061              		.size	shellGetLine, .-shellGetLine
 1062 011c AFF30080 		.text
 1063              	.Letext0:
 1064              		.file 2 "c:\\programs\\codesourcery\\2011.03-56\\bin\\../lib/gcc/arm-none-eabi/4.6.3/include/stdde
 1065              		.file 3 "c:\\programs\\codesourcery\\2011.03-56\\bin\\../lib/gcc/arm-none-eabi/4.6.3/../../../../a
 1066              		.file 4 "../chibios_2.4.x/os/ports/GCC/ARMCMx/chtypes.h"
 1067              		.file 5 "../chibios_2.4.x/os/kernel/include/chlists.h"
 1068              		.file 6 "../chibios_2.4.x/os/kernel/include/chthreads.h"
 1069              		.file 7 "../chibios_2.4.x/os/ports/GCC/ARMCMx/chcore_v7m.h"
 1070              		.file 8 "../chibios_2.4.x/os/kernel/include/chvt.h"
 1071              		.file 9 "../chibios_2.4.x/os/kernel/include/chschd.h"
 1072              		.file 10 "../chibios_2.4.x/os/kernel/include/chmtx.h"
 1073              		.file 11 "../chibios_2.4.x/os/kernel/include/chevents.h"
 1074              		.file 12 "../chibios_2.4.x/os/kernel/include/chioch.h"
 1075              		.file 13 "../chibios_2.4.x/os/various/shell.h"
 1076              		.file 14 "../chibios_2.4.x/os/ports/common/ARMCMx/CMSIS/include/core_cm3.h"
 1077              		.section	.debug_info,"",%progbits
 1078              	.Ldebug_info0:
 1079 0000 7F0B0000 		.4byte	0xb7f
 1080 0004 0200     		.2byte	0x2
 1081 0006 00000000 		.4byte	.Ldebug_abbrev0
 1082 000a 04       		.byte	0x4
 1083 000b 01       		.uleb128 0x1
 1084 000c 55030000 		.4byte	.LASF118
 1085 0010 01       		.byte	0x1
 1086 0011 D0010000 		.4byte	.LASF119
 1087 0015 A7000000 		.4byte	.LASF120
 1088 0019 00000000 		.4byte	0
 1089 001d 00000000 		.4byte	0
 1090 0021 18000000 		.4byte	.Ldebug_ranges0+0x18
 1091 0025 00000000 		.4byte	.Ldebug_line0
 1092 0029 02       		.uleb128 0x2
 1093 002a 01       		.byte	0x1
 1094 002b 06       		.byte	0x6
 1095 002c 81000000 		.4byte	.LASF0
 1096 0030 02       		.uleb128 0x2
 1097 0031 01       		.byte	0x1
 1098 0032 08       		.byte	0x8
 1099 0033 C6020000 		.4byte	.LASF1
 1100 0037 02       		.uleb128 0x2
 1101 0038 02       		.byte	0x2
 1102 0039 05       		.byte	0x5
 1103 003a EA020000 		.4byte	.LASF2
 1104 003e 02       		.uleb128 0x2
 1105 003f 02       		.byte	0x2
 1106 0040 07       		.byte	0x7
 1107 0041 A8010000 		.4byte	.LASF3
 1108 0045 03       		.uleb128 0x3
ARM GAS  C:\Users\z80\AppData\Local\Temp\ccYnvvge.s 			page 22


 1109 0046 04       		.byte	0x4
 1110 0047 05       		.byte	0x5
 1111 0048 696E7400 		.ascii	"int\000"
 1112 004c 02       		.uleb128 0x2
 1113 004d 04       		.byte	0x4
 1114 004e 07       		.byte	0x7
 1115 004f 65010000 		.4byte	.LASF4
 1116 0053 02       		.uleb128 0x2
 1117 0054 08       		.byte	0x8
 1118 0055 05       		.byte	0x5
 1119 0056 73000000 		.4byte	.LASF5
 1120 005a 02       		.uleb128 0x2
 1121 005b 08       		.byte	0x8
 1122 005c 07       		.byte	0x7
 1123 005d 21000000 		.4byte	.LASF6
 1124 0061 02       		.uleb128 0x2
 1125 0062 04       		.byte	0x4
 1126 0063 05       		.byte	0x5
 1127 0064 D4000000 		.4byte	.LASF7
 1128 0068 04       		.uleb128 0x4
 1129 0069 04       		.byte	0x4
 1130 006a 02       		.uleb128 0x2
 1131 006b 04       		.byte	0x4
 1132 006c 07       		.byte	0x7
 1133 006d 61030000 		.4byte	.LASF8
 1134 0071 05       		.uleb128 0x5
 1135 0072 04       		.byte	0x4
 1136 0073 77000000 		.4byte	0x77
 1137 0077 02       		.uleb128 0x2
 1138 0078 01       		.byte	0x1
 1139 0079 08       		.byte	0x8
 1140 007a 82030000 		.4byte	.LASF9
 1141 007e 05       		.uleb128 0x5
 1142 007f 04       		.byte	0x4
 1143 0080 84000000 		.4byte	0x84
 1144 0084 06       		.uleb128 0x6
 1145 0085 77000000 		.4byte	0x77
 1146 0089 07       		.uleb128 0x7
 1147 008a 00000000 		.4byte	.LASF10
 1148 008e 02       		.byte	0x2
 1149 008f D4       		.byte	0xd4
 1150 0090 4C000000 		.4byte	0x4c
 1151 0094 07       		.uleb128 0x7
 1152 0095 34040000 		.4byte	.LASF11
 1153 0099 03       		.byte	0x3
 1154 009a 2A       		.byte	0x2a
 1155 009b 30000000 		.4byte	0x30
 1156 009f 07       		.uleb128 0x7
 1157 00a0 BE020000 		.4byte	.LASF12
 1158 00a4 03       		.byte	0x3
 1159 00a5 4F       		.byte	0x4f
 1160 00a6 61000000 		.4byte	0x61
 1161 00aa 07       		.uleb128 0x7
 1162 00ab 39030000 		.4byte	.LASF13
 1163 00af 03       		.byte	0x3
 1164 00b0 50       		.byte	0x50
 1165 00b1 6A000000 		.4byte	0x6a
ARM GAS  C:\Users\z80\AppData\Local\Temp\ccYnvvge.s 			page 23


 1166 00b5 07       		.uleb128 0x7
 1167 00b6 07000000 		.4byte	.LASF14
 1168 00ba 03       		.byte	0x3
 1169 00bb 78       		.byte	0x78
 1170 00bc 5A000000 		.4byte	0x5a
 1171 00c0 07       		.uleb128 0x7
 1172 00c1 8D000000 		.4byte	.LASF15
 1173 00c5 04       		.byte	0x4
 1174 00c6 2E       		.byte	0x2e
 1175 00c7 9F000000 		.4byte	0x9f
 1176 00cb 07       		.uleb128 0x7
 1177 00cc F4010000 		.4byte	.LASF16
 1178 00d0 04       		.byte	0x4
 1179 00d1 2F       		.byte	0x2f
 1180 00d2 94000000 		.4byte	0x94
 1181 00d6 07       		.uleb128 0x7
 1182 00d7 EA000000 		.4byte	.LASF17
 1183 00db 04       		.byte	0x4
 1184 00dc 30       		.byte	0x30
 1185 00dd 94000000 		.4byte	0x94
 1186 00e1 07       		.uleb128 0x7
 1187 00e2 AE020000 		.4byte	.LASF18
 1188 00e6 04       		.byte	0x4
 1189 00e7 32       		.byte	0x32
 1190 00e8 AA000000 		.4byte	0xaa
 1191 00ec 07       		.uleb128 0x7
 1192 00ed BB010000 		.4byte	.LASF19
 1193 00f1 04       		.byte	0x4
 1194 00f2 33       		.byte	0x33
 1195 00f3 9F000000 		.4byte	0x9f
 1196 00f7 07       		.uleb128 0x7
 1197 00f8 08020000 		.4byte	.LASF20
 1198 00fc 04       		.byte	0x4
 1199 00fd 35       		.byte	0x35
 1200 00fe AA000000 		.4byte	0xaa
 1201 0102 07       		.uleb128 0x7
 1202 0103 A9030000 		.4byte	.LASF21
 1203 0107 04       		.byte	0x4
 1204 0108 36       		.byte	0x36
 1205 0109 AA000000 		.4byte	0xaa
 1206 010d 07       		.uleb128 0x7
 1207 010e 54010000 		.4byte	.LASF22
 1208 0112 04       		.byte	0x4
 1209 0113 37       		.byte	0x37
 1210 0114 9F000000 		.4byte	0x9f
 1211 0118 07       		.uleb128 0x7
 1212 0119 27030000 		.4byte	.LASF23
 1213 011d 05       		.byte	0x5
 1214 011e 2A       		.byte	0x2a
 1215 011f 23010000 		.4byte	0x123
 1216 0123 08       		.uleb128 0x8
 1217 0124 27030000 		.4byte	.LASF23
 1218 0128 48       		.byte	0x48
 1219 0129 06       		.byte	0x6
 1220 012a 5E       		.byte	0x5e
 1221 012b 2C020000 		.4byte	0x22c
 1222 012f 09       		.uleb128 0x9
ARM GAS  C:\Users\z80\AppData\Local\Temp\ccYnvvge.s 			page 24


 1223 0130 12030000 		.4byte	.LASF24
 1224 0134 06       		.byte	0x6
 1225 0135 5F       		.byte	0x5f
 1226 0136 51020000 		.4byte	0x251
 1227 013a 02       		.byte	0x2
 1228 013b 23       		.byte	0x23
 1229 013c 00       		.uleb128 0
 1230 013d 09       		.uleb128 0x9
 1231 013e A7020000 		.4byte	.LASF25
 1232 0142 06       		.byte	0x6
 1233 0143 61       		.byte	0x61
 1234 0144 51020000 		.4byte	0x251
 1235 0148 02       		.byte	0x2
 1236 0149 23       		.byte	0x23
 1237 014a 04       		.uleb128 0x4
 1238 014b 09       		.uleb128 0x9
 1239 014c 66000000 		.4byte	.LASF26
 1240 0150 06       		.byte	0x6
 1241 0151 63       		.byte	0x63
 1242 0152 E1000000 		.4byte	0xe1
 1243 0156 02       		.byte	0x2
 1244 0157 23       		.byte	0x23
 1245 0158 08       		.uleb128 0x8
 1246 0159 09       		.uleb128 0x9
 1247 015a A3040000 		.4byte	.LASF27
 1248 015e 06       		.byte	0x6
 1249 015f 64       		.byte	0x64
 1250 0160 27030000 		.4byte	0x327
 1251 0164 02       		.byte	0x2
 1252 0165 23       		.byte	0x23
 1253 0166 0C       		.uleb128 0xc
 1254 0167 09       		.uleb128 0x9
 1255 0168 FF000000 		.4byte	.LASF28
 1256 016c 06       		.byte	0x6
 1257 016d 66       		.byte	0x66
 1258 016e 51020000 		.4byte	0x251
 1259 0172 02       		.byte	0x2
 1260 0173 23       		.byte	0x23
 1261 0174 10       		.uleb128 0x10
 1262 0175 09       		.uleb128 0x9
 1263 0176 50020000 		.4byte	.LASF29
 1264 017a 06       		.byte	0x6
 1265 017b 67       		.byte	0x67
 1266 017c 51020000 		.4byte	0x251
 1267 0180 02       		.byte	0x2
 1268 0181 23       		.byte	0x23
 1269 0182 14       		.uleb128 0x14
 1270 0183 09       		.uleb128 0x9
 1271 0184 DD030000 		.4byte	.LASF30
 1272 0188 06       		.byte	0x6
 1273 0189 6E       		.byte	0x6e
 1274 018a 7E000000 		.4byte	0x7e
 1275 018e 02       		.byte	0x2
 1276 018f 23       		.byte	0x23
 1277 0190 18       		.uleb128 0x18
 1278 0191 09       		.uleb128 0x9
 1279 0192 5A010000 		.4byte	.LASF31
ARM GAS  C:\Users\z80\AppData\Local\Temp\ccYnvvge.s 			page 25


 1280 0196 06       		.byte	0x6
 1281 0197 74       		.byte	0x74
 1282 0198 7D050000 		.4byte	0x57d
 1283 019c 02       		.byte	0x2
 1284 019d 23       		.byte	0x23
 1285 019e 1C       		.uleb128 0x1c
 1286 019f 09       		.uleb128 0x9
 1287 01a0 F4020000 		.4byte	.LASF32
 1288 01a4 06       		.byte	0x6
 1289 01a5 79       		.byte	0x79
 1290 01a6 D6000000 		.4byte	0xd6
 1291 01aa 02       		.byte	0x2
 1292 01ab 23       		.byte	0x23
 1293 01ac 20       		.uleb128 0x20
 1294 01ad 09       		.uleb128 0x9
 1295 01ae 1F030000 		.4byte	.LASF33
 1296 01b2 06       		.byte	0x6
 1297 01b3 7D       		.byte	0x7d
 1298 01b4 CB000000 		.4byte	0xcb
 1299 01b8 02       		.byte	0x2
 1300 01b9 23       		.byte	0x23
 1301 01ba 21       		.uleb128 0x21
 1302 01bb 09       		.uleb128 0x9
 1303 01bc F3000000 		.4byte	.LASF34
 1304 01c0 06       		.byte	0x6
 1305 01c1 89       		.byte	0x89
 1306 01c2 0C040000 		.4byte	0x40c
 1307 01c6 02       		.byte	0x2
 1308 01c7 23       		.byte	0x23
 1309 01c8 24       		.uleb128 0x24
 1310 01c9 0A       		.uleb128 0xa
 1311 01ca 705F7500 		.ascii	"p_u\000"
 1312 01ce 06       		.byte	0x6
 1313 01cf AE       		.byte	0xae
 1314 01d0 48050000 		.4byte	0x548
 1315 01d4 02       		.byte	0x2
 1316 01d5 23       		.byte	0x23
 1317 01d6 28       		.uleb128 0x28
 1318 01d7 09       		.uleb128 0x9
 1319 01d8 2D020000 		.4byte	.LASF35
 1320 01dc 06       		.byte	0x6
 1321 01dd B3       		.byte	0xb3
 1322 01de 79020000 		.4byte	0x279
 1323 01e2 02       		.byte	0x2
 1324 01e3 23       		.byte	0x23
 1325 01e4 2C       		.uleb128 0x2c
 1326 01e5 09       		.uleb128 0x9
 1327 01e6 86010000 		.4byte	.LASF36
 1328 01ea 06       		.byte	0x6
 1329 01eb B9       		.byte	0xb9
 1330 01ec 57020000 		.4byte	0x257
 1331 01f0 02       		.byte	0x2
 1332 01f1 23       		.byte	0x23
 1333 01f2 30       		.uleb128 0x30
 1334 01f3 09       		.uleb128 0x9
 1335 01f4 EC030000 		.4byte	.LASF37
 1336 01f8 06       		.byte	0x6
ARM GAS  C:\Users\z80\AppData\Local\Temp\ccYnvvge.s 			page 26


 1337 01f9 BD       		.byte	0xbd
 1338 01fa EC000000 		.4byte	0xec
 1339 01fe 02       		.byte	0x2
 1340 01ff 23       		.byte	0x23
 1341 0200 38       		.uleb128 0x38
 1342 0201 09       		.uleb128 0x9
 1343 0202 2E030000 		.4byte	.LASF38
 1344 0206 06       		.byte	0x6
 1345 0207 C3       		.byte	0xc3
 1346 0208 F7000000 		.4byte	0xf7
 1347 020c 02       		.byte	0x2
 1348 020d 23       		.byte	0x23
 1349 020e 3C       		.uleb128 0x3c
 1350 020f 09       		.uleb128 0x9
 1351 0210 E0020000 		.4byte	.LASF39
 1352 0214 06       		.byte	0x6
 1353 0215 CA       		.byte	0xca
 1354 0216 83050000 		.4byte	0x583
 1355 021a 02       		.byte	0x2
 1356 021b 23       		.byte	0x23
 1357 021c 40       		.uleb128 0x40
 1358 021d 09       		.uleb128 0x9
 1359 021e B3030000 		.4byte	.LASF40
 1360 0222 06       		.byte	0x6
 1361 0223 CE       		.byte	0xce
 1362 0224 E1000000 		.4byte	0xe1
 1363 0228 02       		.byte	0x2
 1364 0229 23       		.byte	0x23
 1365 022a 44       		.uleb128 0x44
 1366 022b 00       		.byte	0
 1367 022c 0B       		.uleb128 0xb
 1368 022d 08       		.byte	0x8
 1369 022e 05       		.byte	0x5
 1370 022f 61       		.byte	0x61
 1371 0230 51020000 		.4byte	0x251
 1372 0234 09       		.uleb128 0x9
 1373 0235 12030000 		.4byte	.LASF24
 1374 0239 05       		.byte	0x5
 1375 023a 62       		.byte	0x62
 1376 023b 51020000 		.4byte	0x251
 1377 023f 02       		.byte	0x2
 1378 0240 23       		.byte	0x23
 1379 0241 00       		.uleb128 0
 1380 0242 09       		.uleb128 0x9
 1381 0243 A7020000 		.4byte	.LASF25
 1382 0247 05       		.byte	0x5
 1383 0248 64       		.byte	0x64
 1384 0249 51020000 		.4byte	0x251
 1385 024d 02       		.byte	0x2
 1386 024e 23       		.byte	0x23
 1387 024f 04       		.uleb128 0x4
 1388 0250 00       		.byte	0
 1389 0251 05       		.uleb128 0x5
 1390 0252 04       		.byte	0x4
 1391 0253 18010000 		.4byte	0x118
 1392 0257 07       		.uleb128 0x7
 1393 0258 70020000 		.4byte	.LASF41
ARM GAS  C:\Users\z80\AppData\Local\Temp\ccYnvvge.s 			page 27


 1394 025c 05       		.byte	0x5
 1395 025d 66       		.byte	0x66
 1396 025e 2C020000 		.4byte	0x22c
 1397 0262 0B       		.uleb128 0xb
 1398 0263 04       		.byte	0x4
 1399 0264 05       		.byte	0x5
 1400 0265 6B       		.byte	0x6b
 1401 0266 79020000 		.4byte	0x279
 1402 026a 09       		.uleb128 0x9
 1403 026b 12030000 		.4byte	.LASF24
 1404 026f 05       		.byte	0x5
 1405 0270 6D       		.byte	0x6d
 1406 0271 51020000 		.4byte	0x251
 1407 0275 02       		.byte	0x2
 1408 0276 23       		.byte	0x23
 1409 0277 00       		.uleb128 0
 1410 0278 00       		.byte	0
 1411 0279 07       		.uleb128 0x7
 1412 027a FC010000 		.4byte	.LASF42
 1413 027e 05       		.byte	0x5
 1414 027f 70       		.byte	0x70
 1415 0280 62020000 		.4byte	0x262
 1416 0284 07       		.uleb128 0x7
 1417 0285 22010000 		.4byte	.LASF43
 1418 0289 07       		.byte	0x7
 1419 028a D7       		.byte	0xd7
 1420 028b 68000000 		.4byte	0x68
 1421 028f 07       		.uleb128 0x7
 1422 0290 14020000 		.4byte	.LASF44
 1423 0294 07       		.byte	0x7
 1424 0295 DD       		.byte	0xdd
 1425 0296 B5000000 		.4byte	0xb5
 1426 029a 08       		.uleb128 0x8
 1427 029b FE030000 		.4byte	.LASF45
 1428 029f 24       		.byte	0x24
 1429 02a0 07       		.byte	0x7
 1430 02a1 FE       		.byte	0xfe
 1431 02a2 27030000 		.4byte	0x327
 1432 02a6 0C       		.uleb128 0xc
 1433 02a7 723400   		.ascii	"r4\000"
 1434 02aa 07       		.byte	0x7
 1435 02ab 1101     		.2byte	0x111
 1436 02ad 84020000 		.4byte	0x284
 1437 02b1 02       		.byte	0x2
 1438 02b2 23       		.byte	0x23
 1439 02b3 00       		.uleb128 0
 1440 02b4 0C       		.uleb128 0xc
 1441 02b5 723500   		.ascii	"r5\000"
 1442 02b8 07       		.byte	0x7
 1443 02b9 1201     		.2byte	0x112
 1444 02bb 84020000 		.4byte	0x284
 1445 02bf 02       		.byte	0x2
 1446 02c0 23       		.byte	0x23
 1447 02c1 04       		.uleb128 0x4
 1448 02c2 0C       		.uleb128 0xc
 1449 02c3 723600   		.ascii	"r6\000"
 1450 02c6 07       		.byte	0x7
ARM GAS  C:\Users\z80\AppData\Local\Temp\ccYnvvge.s 			page 28


 1451 02c7 1301     		.2byte	0x113
 1452 02c9 84020000 		.4byte	0x284
 1453 02cd 02       		.byte	0x2
 1454 02ce 23       		.byte	0x23
 1455 02cf 08       		.uleb128 0x8
 1456 02d0 0C       		.uleb128 0xc
 1457 02d1 723700   		.ascii	"r7\000"
 1458 02d4 07       		.byte	0x7
 1459 02d5 1401     		.2byte	0x114
 1460 02d7 84020000 		.4byte	0x284
 1461 02db 02       		.byte	0x2
 1462 02dc 23       		.byte	0x23
 1463 02dd 0C       		.uleb128 0xc
 1464 02de 0C       		.uleb128 0xc
 1465 02df 723800   		.ascii	"r8\000"
 1466 02e2 07       		.byte	0x7
 1467 02e3 1501     		.2byte	0x115
 1468 02e5 84020000 		.4byte	0x284
 1469 02e9 02       		.byte	0x2
 1470 02ea 23       		.byte	0x23
 1471 02eb 10       		.uleb128 0x10
 1472 02ec 0C       		.uleb128 0xc
 1473 02ed 723900   		.ascii	"r9\000"
 1474 02f0 07       		.byte	0x7
 1475 02f1 1601     		.2byte	0x116
 1476 02f3 84020000 		.4byte	0x284
 1477 02f7 02       		.byte	0x2
 1478 02f8 23       		.byte	0x23
 1479 02f9 14       		.uleb128 0x14
 1480 02fa 0C       		.uleb128 0xc
 1481 02fb 72313000 		.ascii	"r10\000"
 1482 02ff 07       		.byte	0x7
 1483 0300 1701     		.2byte	0x117
 1484 0302 84020000 		.4byte	0x284
 1485 0306 02       		.byte	0x2
 1486 0307 23       		.byte	0x23
 1487 0308 18       		.uleb128 0x18
 1488 0309 0C       		.uleb128 0xc
 1489 030a 72313100 		.ascii	"r11\000"
 1490 030e 07       		.byte	0x7
 1491 030f 1801     		.2byte	0x118
 1492 0311 84020000 		.4byte	0x284
 1493 0315 02       		.byte	0x2
 1494 0316 23       		.byte	0x23
 1495 0317 1C       		.uleb128 0x1c
 1496 0318 0C       		.uleb128 0xc
 1497 0319 6C7200   		.ascii	"lr\000"
 1498 031c 07       		.byte	0x7
 1499 031d 1901     		.2byte	0x119
 1500 031f 84020000 		.4byte	0x284
 1501 0323 02       		.byte	0x2
 1502 0324 23       		.byte	0x23
 1503 0325 20       		.uleb128 0x20
 1504 0326 00       		.byte	0
 1505 0327 0D       		.uleb128 0xd
 1506 0328 E4030000 		.4byte	.LASF46
 1507 032c 04       		.byte	0x4
ARM GAS  C:\Users\z80\AppData\Local\Temp\ccYnvvge.s 			page 29


 1508 032d 07       		.byte	0x7
 1509 032e 2301     		.2byte	0x123
 1510 0330 44030000 		.4byte	0x344
 1511 0334 0C       		.uleb128 0xc
 1512 0335 72313300 		.ascii	"r13\000"
 1513 0339 07       		.byte	0x7
 1514 033a 2401     		.2byte	0x124
 1515 033c 44030000 		.4byte	0x344
 1516 0340 02       		.byte	0x2
 1517 0341 23       		.byte	0x23
 1518 0342 00       		.uleb128 0
 1519 0343 00       		.byte	0
 1520 0344 05       		.uleb128 0x5
 1521 0345 04       		.byte	0x4
 1522 0346 9A020000 		.4byte	0x29a
 1523 034a 07       		.uleb128 0x7
 1524 034b BE030000 		.4byte	.LASF47
 1525 034f 08       		.byte	0x8
 1526 0350 53       		.byte	0x53
 1527 0351 55030000 		.4byte	0x355
 1528 0355 05       		.uleb128 0x5
 1529 0356 04       		.byte	0x4
 1530 0357 5B030000 		.4byte	0x35b
 1531 035b 0E       		.uleb128 0xe
 1532 035c 01       		.byte	0x1
 1533 035d 67030000 		.4byte	0x367
 1534 0361 0F       		.uleb128 0xf
 1535 0362 68000000 		.4byte	0x68
 1536 0366 00       		.byte	0
 1537 0367 07       		.uleb128 0x7
 1538 0368 96010000 		.4byte	.LASF48
 1539 036c 08       		.byte	0x8
 1540 036d 58       		.byte	0x58
 1541 036e 72030000 		.4byte	0x372
 1542 0372 08       		.uleb128 0x8
 1543 0373 96010000 		.4byte	.LASF48
 1544 0377 14       		.byte	0x14
 1545 0378 08       		.byte	0x8
 1546 0379 5F       		.byte	0x5f
 1547 037a C5030000 		.4byte	0x3c5
 1548 037e 09       		.uleb128 0x9
 1549 037f 72010000 		.4byte	.LASF49
 1550 0383 08       		.byte	0x8
 1551 0384 60       		.byte	0x60
 1552 0385 C5030000 		.4byte	0x3c5
 1553 0389 02       		.byte	0x2
 1554 038a 23       		.byte	0x23
 1555 038b 00       		.uleb128 0
 1556 038c 09       		.uleb128 0x9
 1557 038d 2B010000 		.4byte	.LASF50
 1558 0391 08       		.byte	0x8
 1559 0392 62       		.byte	0x62
 1560 0393 C5030000 		.4byte	0x3c5
 1561 0397 02       		.byte	0x2
 1562 0398 23       		.byte	0x23
 1563 0399 04       		.uleb128 0x4
 1564 039a 09       		.uleb128 0x9
ARM GAS  C:\Users\z80\AppData\Local\Temp\ccYnvvge.s 			page 30


 1565 039b 25020000 		.4byte	.LASF51
 1566 039f 08       		.byte	0x8
 1567 03a0 64       		.byte	0x64
 1568 03a1 02010000 		.4byte	0x102
 1569 03a5 02       		.byte	0x2
 1570 03a6 23       		.byte	0x23
 1571 03a7 08       		.uleb128 0x8
 1572 03a8 09       		.uleb128 0x9
 1573 03a9 A9040000 		.4byte	.LASF52
 1574 03ad 08       		.byte	0x8
 1575 03ae 65       		.byte	0x65
 1576 03af 4A030000 		.4byte	0x34a
 1577 03b3 02       		.byte	0x2
 1578 03b4 23       		.byte	0x23
 1579 03b5 0C       		.uleb128 0xc
 1580 03b6 09       		.uleb128 0x9
 1581 03b7 0B040000 		.4byte	.LASF53
 1582 03bb 08       		.byte	0x8
 1583 03bc 67       		.byte	0x67
 1584 03bd 68000000 		.4byte	0x68
 1585 03c1 02       		.byte	0x2
 1586 03c2 23       		.byte	0x23
 1587 03c3 10       		.uleb128 0x10
 1588 03c4 00       		.byte	0
 1589 03c5 05       		.uleb128 0x5
 1590 03c6 04       		.byte	0x4
 1591 03c7 67030000 		.4byte	0x367
 1592 03cb 0B       		.uleb128 0xb
 1593 03cc 10       		.byte	0x10
 1594 03cd 08       		.byte	0x8
 1595 03ce 71       		.byte	0x71
 1596 03cf 0C040000 		.4byte	0x40c
 1597 03d3 09       		.uleb128 0x9
 1598 03d4 72010000 		.4byte	.LASF49
 1599 03d8 08       		.byte	0x8
 1600 03d9 72       		.byte	0x72
 1601 03da C5030000 		.4byte	0x3c5
 1602 03de 02       		.byte	0x2
 1603 03df 23       		.byte	0x23
 1604 03e0 00       		.uleb128 0
 1605 03e1 09       		.uleb128 0x9
 1606 03e2 2B010000 		.4byte	.LASF50
 1607 03e6 08       		.byte	0x8
 1608 03e7 74       		.byte	0x74
 1609 03e8 C5030000 		.4byte	0x3c5
 1610 03ec 02       		.byte	0x2
 1611 03ed 23       		.byte	0x23
 1612 03ee 04       		.uleb128 0x4
 1613 03ef 09       		.uleb128 0x9
 1614 03f0 25020000 		.4byte	.LASF51
 1615 03f4 08       		.byte	0x8
 1616 03f5 76       		.byte	0x76
 1617 03f6 02010000 		.4byte	0x102
 1618 03fa 02       		.byte	0x2
 1619 03fb 23       		.byte	0x23
 1620 03fc 08       		.uleb128 0x8
 1621 03fd 09       		.uleb128 0x9
ARM GAS  C:\Users\z80\AppData\Local\Temp\ccYnvvge.s 			page 31


 1622 03fe 4A030000 		.4byte	.LASF54
 1623 0402 08       		.byte	0x8
 1624 0403 77       		.byte	0x77
 1625 0404 0C040000 		.4byte	0x40c
 1626 0408 02       		.byte	0x2
 1627 0409 23       		.byte	0x23
 1628 040a 0C       		.uleb128 0xc
 1629 040b 00       		.byte	0
 1630 040c 10       		.uleb128 0x10
 1631 040d 02010000 		.4byte	0x102
 1632 0411 07       		.uleb128 0x7
 1633 0412 8A040000 		.4byte	.LASF55
 1634 0416 08       		.byte	0x8
 1635 0417 78       		.byte	0x78
 1636 0418 CB030000 		.4byte	0x3cb
 1637 041c 0B       		.uleb128 0xb
 1638 041d 20       		.byte	0x20
 1639 041e 09       		.byte	0x9
 1640 041f 5E       		.byte	0x5e
 1641 0420 87040000 		.4byte	0x487
 1642 0424 09       		.uleb128 0x9
 1643 0425 42030000 		.4byte	.LASF56
 1644 0429 09       		.byte	0x9
 1645 042a 5F       		.byte	0x5f
 1646 042b 57020000 		.4byte	0x257
 1647 042f 02       		.byte	0x2
 1648 0430 23       		.byte	0x23
 1649 0431 00       		.uleb128 0
 1650 0432 09       		.uleb128 0x9
 1651 0433 04030000 		.4byte	.LASF57
 1652 0437 09       		.byte	0x9
 1653 0438 60       		.byte	0x60
 1654 0439 E1000000 		.4byte	0xe1
 1655 043d 02       		.byte	0x2
 1656 043e 23       		.byte	0x23
 1657 043f 08       		.uleb128 0x8
 1658 0440 09       		.uleb128 0x9
 1659 0441 58020000 		.4byte	.LASF58
 1660 0445 09       		.byte	0x9
 1661 0446 62       		.byte	0x62
 1662 0447 27030000 		.4byte	0x327
 1663 044b 02       		.byte	0x2
 1664 044c 23       		.byte	0x23
 1665 044d 0C       		.uleb128 0xc
 1666 044e 09       		.uleb128 0x9
 1667 044f 1A010000 		.4byte	.LASF59
 1668 0453 09       		.byte	0x9
 1669 0454 65       		.byte	0x65
 1670 0455 51020000 		.4byte	0x251
 1671 0459 02       		.byte	0x2
 1672 045a 23       		.byte	0x23
 1673 045b 10       		.uleb128 0x10
 1674 045c 09       		.uleb128 0x9
 1675 045d 91020000 		.4byte	.LASF60
 1676 0461 09       		.byte	0x9
 1677 0462 66       		.byte	0x66
 1678 0463 51020000 		.4byte	0x251
ARM GAS  C:\Users\z80\AppData\Local\Temp\ccYnvvge.s 			page 32


 1679 0467 02       		.byte	0x2
 1680 0468 23       		.byte	0x23
 1681 0469 14       		.uleb128 0x14
 1682 046a 09       		.uleb128 0x9
 1683 046b D3030000 		.4byte	.LASF61
 1684 046f 09       		.byte	0x9
 1685 0470 6A       		.byte	0x6a
 1686 0471 0D010000 		.4byte	0x10d
 1687 0475 02       		.byte	0x2
 1688 0476 23       		.byte	0x23
 1689 0477 18       		.uleb128 0x18
 1690 0478 09       		.uleb128 0x9
 1691 0479 73030000 		.4byte	.LASF62
 1692 047d 09       		.byte	0x9
 1693 047e 6C       		.byte	0x6c
 1694 047f 51020000 		.4byte	0x251
 1695 0483 02       		.byte	0x2
 1696 0484 23       		.byte	0x23
 1697 0485 1C       		.uleb128 0x1c
 1698 0486 00       		.byte	0
 1699 0487 07       		.uleb128 0x7
 1700 0488 17000000 		.4byte	.LASF63
 1701 048c 09       		.byte	0x9
 1702 048d 6E       		.byte	0x6e
 1703 048e 1C040000 		.4byte	0x41c
 1704 0492 08       		.uleb128 0x8
 1705 0493 37020000 		.4byte	.LASF64
 1706 0497 10       		.byte	0x10
 1707 0498 0A       		.byte	0xa
 1708 0499 2C       		.byte	0x2c
 1709 049a C9040000 		.4byte	0x4c9
 1710 049e 09       		.uleb128 0x9
 1711 049f 94000000 		.4byte	.LASF65
 1712 04a3 0A       		.byte	0xa
 1713 04a4 2D       		.byte	0x2d
 1714 04a5 57020000 		.4byte	0x257
 1715 04a9 02       		.byte	0x2
 1716 04aa 23       		.byte	0x23
 1717 04ab 00       		.uleb128 0
 1718 04ac 09       		.uleb128 0x9
 1719 04ad 9B040000 		.4byte	.LASF66
 1720 04b1 0A       		.byte	0xa
 1721 04b2 2F       		.byte	0x2f
 1722 04b3 51020000 		.4byte	0x251
 1723 04b7 02       		.byte	0x2
 1724 04b8 23       		.byte	0x23
 1725 04b9 08       		.uleb128 0x8
 1726 04ba 09       		.uleb128 0x9
 1727 04bb A2030000 		.4byte	.LASF67
 1728 04bf 0A       		.byte	0xa
 1729 04c0 31       		.byte	0x31
 1730 04c1 C9040000 		.4byte	0x4c9
 1731 04c5 02       		.byte	0x2
 1732 04c6 23       		.byte	0x23
 1733 04c7 0C       		.uleb128 0xc
 1734 04c8 00       		.byte	0
 1735 04c9 05       		.uleb128 0x5
ARM GAS  C:\Users\z80\AppData\Local\Temp\ccYnvvge.s 			page 33


 1736 04ca 04       		.byte	0x4
 1737 04cb 92040000 		.4byte	0x492
 1738 04cf 07       		.uleb128 0x7
 1739 04d0 37020000 		.4byte	.LASF64
 1740 04d4 0A       		.byte	0xa
 1741 04d5 33       		.byte	0x33
 1742 04d6 92040000 		.4byte	0x492
 1743 04da 07       		.uleb128 0x7
 1744 04db 54040000 		.4byte	.LASF68
 1745 04df 0B       		.byte	0xb
 1746 04e0 29       		.byte	0x29
 1747 04e1 E5040000 		.4byte	0x4e5
 1748 04e5 08       		.uleb128 0x8
 1749 04e6 54040000 		.4byte	.LASF68
 1750 04ea 0C       		.byte	0xc
 1751 04eb 0B       		.byte	0xb
 1752 04ec 2E       		.byte	0x2e
 1753 04ed 1C050000 		.4byte	0x51c
 1754 04f1 09       		.uleb128 0x9
 1755 04f2 C1010000 		.4byte	.LASF69
 1756 04f6 0B       		.byte	0xb
 1757 04f7 2F       		.byte	0x2f
 1758 04f8 1C050000 		.4byte	0x51c
 1759 04fc 02       		.byte	0x2
 1760 04fd 23       		.byte	0x23
 1761 04fe 00       		.uleb128 0
 1762 04ff 09       		.uleb128 0x9
 1763 0500 D4020000 		.4byte	.LASF70
 1764 0504 0B       		.byte	0xb
 1765 0505 32       		.byte	0x32
 1766 0506 51020000 		.4byte	0x251
 1767 050a 02       		.byte	0x2
 1768 050b 23       		.byte	0x23
 1769 050c 04       		.uleb128 0x4
 1770 050d 09       		.uleb128 0x9
 1771 050e 48020000 		.4byte	.LASF71
 1772 0512 0B       		.byte	0xb
 1773 0513 34       		.byte	0x34
 1774 0514 F7000000 		.4byte	0xf7
 1775 0518 02       		.byte	0x2
 1776 0519 23       		.byte	0x23
 1777 051a 08       		.uleb128 0x8
 1778 051b 00       		.byte	0
 1779 051c 05       		.uleb128 0x5
 1780 051d 04       		.byte	0x4
 1781 051e DA040000 		.4byte	0x4da
 1782 0522 08       		.uleb128 0x8
 1783 0523 48010000 		.4byte	.LASF72
 1784 0527 04       		.byte	0x4
 1785 0528 0B       		.byte	0xb
 1786 0529 3C       		.byte	0x3c
 1787 052a 3D050000 		.4byte	0x53d
 1788 052e 09       		.uleb128 0x9
 1789 052f 19040000 		.4byte	.LASF73
 1790 0533 0B       		.byte	0xb
 1791 0534 3D       		.byte	0x3d
 1792 0535 1C050000 		.4byte	0x51c
ARM GAS  C:\Users\z80\AppData\Local\Temp\ccYnvvge.s 			page 34


 1793 0539 02       		.byte	0x2
 1794 053a 23       		.byte	0x23
 1795 053b 00       		.uleb128 0
 1796 053c 00       		.byte	0
 1797 053d 07       		.uleb128 0x7
 1798 053e 48010000 		.4byte	.LASF72
 1799 0542 0B       		.byte	0xb
 1800 0543 40       		.byte	0x40
 1801 0544 22050000 		.4byte	0x522
 1802 0548 11       		.uleb128 0x11
 1803 0549 04       		.byte	0x4
 1804 054a 06       		.byte	0x6
 1805 054b 90       		.byte	0x90
 1806 054c 7D050000 		.4byte	0x57d
 1807 0550 12       		.uleb128 0x12
 1808 0551 12040000 		.4byte	.LASF74
 1809 0555 06       		.byte	0x6
 1810 0556 97       		.byte	0x97
 1811 0557 EC000000 		.4byte	0xec
 1812 055b 12       		.uleb128 0x12
 1813 055c 47000000 		.4byte	.LASF75
 1814 0560 06       		.byte	0x6
 1815 0561 9E       		.byte	0x9e
 1816 0562 EC000000 		.4byte	0xec
 1817 0566 12       		.uleb128 0x12
 1818 0567 62040000 		.4byte	.LASF76
 1819 056b 06       		.byte	0x6
 1820 056c A5       		.byte	0xa5
 1821 056d 68000000 		.4byte	0x68
 1822 0571 12       		.uleb128 0x12
 1823 0572 0B030000 		.4byte	.LASF77
 1824 0576 06       		.byte	0x6
 1825 0577 AC       		.byte	0xac
 1826 0578 F7000000 		.4byte	0xf7
 1827 057c 00       		.byte	0
 1828 057d 05       		.uleb128 0x5
 1829 057e 04       		.byte	0x4
 1830 057f 8F020000 		.4byte	0x28f
 1831 0583 05       		.uleb128 0x5
 1832 0584 04       		.byte	0x4
 1833 0585 CF040000 		.4byte	0x4cf
 1834 0589 05       		.uleb128 0x5
 1835 058a 04       		.byte	0x4
 1836 058b 94000000 		.4byte	0x94
 1837 058f 13       		.uleb128 0x13
 1838 0590 01       		.byte	0x1
 1839 0591 89000000 		.4byte	0x89
 1840 0595 A9050000 		.4byte	0x5a9
 1841 0599 0F       		.uleb128 0xf
 1842 059a 68000000 		.4byte	0x68
 1843 059e 0F       		.uleb128 0xf
 1844 059f A9050000 		.4byte	0x5a9
 1845 05a3 0F       		.uleb128 0xf
 1846 05a4 89000000 		.4byte	0x89
 1847 05a8 00       		.byte	0
 1848 05a9 05       		.uleb128 0x5
 1849 05aa 04       		.byte	0x4
ARM GAS  C:\Users\z80\AppData\Local\Temp\ccYnvvge.s 			page 35


 1850 05ab AF050000 		.4byte	0x5af
 1851 05af 06       		.uleb128 0x6
 1852 05b0 94000000 		.4byte	0x94
 1853 05b4 05       		.uleb128 0x5
 1854 05b5 04       		.byte	0x4
 1855 05b6 8F050000 		.4byte	0x58f
 1856 05ba 13       		.uleb128 0x13
 1857 05bb 01       		.byte	0x1
 1858 05bc 89000000 		.4byte	0x89
 1859 05c0 D4050000 		.4byte	0x5d4
 1860 05c4 0F       		.uleb128 0xf
 1861 05c5 68000000 		.4byte	0x68
 1862 05c9 0F       		.uleb128 0xf
 1863 05ca 89050000 		.4byte	0x589
 1864 05ce 0F       		.uleb128 0xf
 1865 05cf 89000000 		.4byte	0x89
 1866 05d3 00       		.byte	0
 1867 05d4 05       		.uleb128 0x5
 1868 05d5 04       		.byte	0x4
 1869 05d6 BA050000 		.4byte	0x5ba
 1870 05da 08       		.uleb128 0x8
 1871 05db 38000000 		.4byte	.LASF78
 1872 05df 20       		.byte	0x20
 1873 05e0 0C       		.byte	0xc
 1874 05e1 51       		.byte	0x51
 1875 05e2 57060000 		.4byte	0x657
 1876 05e6 09       		.uleb128 0x9
 1877 05e7 1F020000 		.4byte	.LASF79
 1878 05eb 0C       		.byte	0xc
 1879 05ec 52       		.byte	0x52
 1880 05ed B4050000 		.4byte	0x5b4
 1881 05f1 02       		.byte	0x2
 1882 05f2 23       		.byte	0x23
 1883 05f3 00       		.uleb128 0
 1884 05f4 09       		.uleb128 0x9
 1885 05f5 7D030000 		.4byte	.LASF80
 1886 05f9 0C       		.byte	0xc
 1887 05fa 52       		.byte	0x52
 1888 05fb D4050000 		.4byte	0x5d4
 1889 05ff 02       		.byte	0x2
 1890 0600 23       		.byte	0x23
 1891 0601 04       		.uleb128 0x4
 1892 0602 09       		.uleb128 0x9
 1893 0603 07010000 		.4byte	.LASF81
 1894 0607 0C       		.byte	0xc
 1895 0608 52       		.byte	0x52
 1896 0609 67060000 		.4byte	0x667
 1897 060d 02       		.byte	0x2
 1898 060e 23       		.byte	0x23
 1899 060f 08       		.uleb128 0x8
 1900 0610 09       		.uleb128 0x9
 1901 0611 7C040000 		.4byte	.LASF82
 1902 0615 0C       		.byte	0xc
 1903 0616 52       		.byte	0x52
 1904 0617 67060000 		.4byte	0x667
 1905 061b 02       		.byte	0x2
 1906 061c 23       		.byte	0x23
ARM GAS  C:\Users\z80\AppData\Local\Temp\ccYnvvge.s 			page 36


 1907 061d 0C       		.uleb128 0xc
 1908 061e 0A       		.uleb128 0xa
 1909 061f 70757400 		.ascii	"put\000"
 1910 0623 0C       		.byte	0xc
 1911 0624 52       		.byte	0x52
 1912 0625 87060000 		.4byte	0x687
 1913 0629 02       		.byte	0x2
 1914 062a 23       		.byte	0x23
 1915 062b 10       		.uleb128 0x10
 1916 062c 0A       		.uleb128 0xa
 1917 062d 67657400 		.ascii	"get\000"
 1918 0631 0C       		.byte	0xc
 1919 0632 52       		.byte	0x52
 1920 0633 A2060000 		.4byte	0x6a2
 1921 0637 02       		.byte	0x2
 1922 0638 23       		.byte	0x23
 1923 0639 14       		.uleb128 0x14
 1924 063a 09       		.uleb128 0x9
 1925 063b C9010000 		.4byte	.LASF83
 1926 063f 0C       		.byte	0xc
 1927 0640 52       		.byte	0x52
 1928 0641 C7060000 		.4byte	0x6c7
 1929 0645 02       		.byte	0x2
 1930 0646 23       		.byte	0x23
 1931 0647 18       		.uleb128 0x18
 1932 0648 09       		.uleb128 0x9
 1933 0649 6D000000 		.4byte	.LASF84
 1934 064d 0C       		.byte	0xc
 1935 064e 52       		.byte	0x52
 1936 064f EC060000 		.4byte	0x6ec
 1937 0653 02       		.byte	0x2
 1938 0654 23       		.byte	0x23
 1939 0655 1C       		.uleb128 0x1c
 1940 0656 00       		.byte	0
 1941 0657 13       		.uleb128 0x13
 1942 0658 01       		.byte	0x1
 1943 0659 C0000000 		.4byte	0xc0
 1944 065d 67060000 		.4byte	0x667
 1945 0661 0F       		.uleb128 0xf
 1946 0662 68000000 		.4byte	0x68
 1947 0666 00       		.byte	0
 1948 0667 05       		.uleb128 0x5
 1949 0668 04       		.byte	0x4
 1950 0669 57060000 		.4byte	0x657
 1951 066d 13       		.uleb128 0x13
 1952 066e 01       		.byte	0x1
 1953 066f EC000000 		.4byte	0xec
 1954 0673 87060000 		.4byte	0x687
 1955 0677 0F       		.uleb128 0xf
 1956 0678 68000000 		.4byte	0x68
 1957 067c 0F       		.uleb128 0xf
 1958 067d 94000000 		.4byte	0x94
 1959 0681 0F       		.uleb128 0xf
 1960 0682 02010000 		.4byte	0x102
 1961 0686 00       		.byte	0
 1962 0687 05       		.uleb128 0x5
 1963 0688 04       		.byte	0x4
ARM GAS  C:\Users\z80\AppData\Local\Temp\ccYnvvge.s 			page 37


 1964 0689 6D060000 		.4byte	0x66d
 1965 068d 13       		.uleb128 0x13
 1966 068e 01       		.byte	0x1
 1967 068f EC000000 		.4byte	0xec
 1968 0693 A2060000 		.4byte	0x6a2
 1969 0697 0F       		.uleb128 0xf
 1970 0698 68000000 		.4byte	0x68
 1971 069c 0F       		.uleb128 0xf
 1972 069d 02010000 		.4byte	0x102
 1973 06a1 00       		.byte	0
 1974 06a2 05       		.uleb128 0x5
 1975 06a3 04       		.byte	0x4
 1976 06a4 8D060000 		.4byte	0x68d
 1977 06a8 13       		.uleb128 0x13
 1978 06a9 01       		.byte	0x1
 1979 06aa 89000000 		.4byte	0x89
 1980 06ae C7060000 		.4byte	0x6c7
 1981 06b2 0F       		.uleb128 0xf
 1982 06b3 68000000 		.4byte	0x68
 1983 06b7 0F       		.uleb128 0xf
 1984 06b8 A9050000 		.4byte	0x5a9
 1985 06bc 0F       		.uleb128 0xf
 1986 06bd 89000000 		.4byte	0x89
 1987 06c1 0F       		.uleb128 0xf
 1988 06c2 02010000 		.4byte	0x102
 1989 06c6 00       		.byte	0
 1990 06c7 05       		.uleb128 0x5
 1991 06c8 04       		.byte	0x4
 1992 06c9 A8060000 		.4byte	0x6a8
 1993 06cd 13       		.uleb128 0x13
 1994 06ce 01       		.byte	0x1
 1995 06cf 89000000 		.4byte	0x89
 1996 06d3 EC060000 		.4byte	0x6ec
 1997 06d7 0F       		.uleb128 0xf
 1998 06d8 68000000 		.4byte	0x68
 1999 06dc 0F       		.uleb128 0xf
 2000 06dd 89050000 		.4byte	0x589
 2001 06e1 0F       		.uleb128 0xf
 2002 06e2 89000000 		.4byte	0x89
 2003 06e6 0F       		.uleb128 0xf
 2004 06e7 02010000 		.4byte	0x102
 2005 06eb 00       		.byte	0
 2006 06ec 05       		.uleb128 0x5
 2007 06ed 04       		.byte	0x4
 2008 06ee CD060000 		.4byte	0x6cd
 2009 06f2 0B       		.uleb128 0xb
 2010 06f3 04       		.byte	0x4
 2011 06f4 0C       		.byte	0xc
 2012 06f5 5C       		.byte	0x5c
 2013 06f6 09070000 		.4byte	0x709
 2014 06fa 0A       		.uleb128 0xa
 2015 06fb 766D7400 		.ascii	"vmt\000"
 2016 06ff 0C       		.byte	0xc
 2017 0700 5E       		.byte	0x5e
 2018 0701 09070000 		.4byte	0x709
 2019 0705 02       		.byte	0x2
 2020 0706 23       		.byte	0x23
ARM GAS  C:\Users\z80\AppData\Local\Temp\ccYnvvge.s 			page 38


 2021 0707 00       		.uleb128 0
 2022 0708 00       		.byte	0
 2023 0709 05       		.uleb128 0x5
 2024 070a 04       		.byte	0x4
 2025 070b 0F070000 		.4byte	0x70f
 2026 070f 06       		.uleb128 0x6
 2027 0710 DA050000 		.4byte	0x5da
 2028 0714 07       		.uleb128 0x7
 2029 0715 3C040000 		.4byte	.LASF85
 2030 0719 0C       		.byte	0xc
 2031 071a 60       		.byte	0x60
 2032 071b F2060000 		.4byte	0x6f2
 2033 071f 10       		.uleb128 0x10
 2034 0720 9F000000 		.4byte	0x9f
 2035 0724 07       		.uleb128 0x7
 2036 0725 3D020000 		.4byte	.LASF86
 2037 0729 0D       		.byte	0xd
 2038 072a 38       		.byte	0x38
 2039 072b 2F070000 		.4byte	0x72f
 2040 072f 05       		.uleb128 0x5
 2041 0730 04       		.byte	0x4
 2042 0731 35070000 		.4byte	0x735
 2043 0735 0E       		.uleb128 0xe
 2044 0736 01       		.byte	0x1
 2045 0737 4B070000 		.4byte	0x74b
 2046 073b 0F       		.uleb128 0xf
 2047 073c 4B070000 		.4byte	0x74b
 2048 0740 0F       		.uleb128 0xf
 2049 0741 45000000 		.4byte	0x45
 2050 0745 0F       		.uleb128 0xf
 2051 0746 51070000 		.4byte	0x751
 2052 074a 00       		.byte	0
 2053 074b 05       		.uleb128 0x5
 2054 074c 04       		.byte	0x4
 2055 074d 14070000 		.4byte	0x714
 2056 0751 05       		.uleb128 0x5
 2057 0752 04       		.byte	0x4
 2058 0753 71000000 		.4byte	0x71
 2059 0757 0B       		.uleb128 0xb
 2060 0758 08       		.byte	0x8
 2061 0759 0D       		.byte	0xd
 2062 075a 3D       		.byte	0x3d
 2063 075b 7C070000 		.4byte	0x77c
 2064 075f 09       		.uleb128 0x9
 2065 0760 40010000 		.4byte	.LASF87
 2066 0764 0D       		.byte	0xd
 2067 0765 3E       		.byte	0x3e
 2068 0766 7E000000 		.4byte	0x7e
 2069 076a 02       		.byte	0x2
 2070 076b 23       		.byte	0x23
 2071 076c 00       		.uleb128 0
 2072 076d 09       		.uleb128 0x9
 2073 076e 48040000 		.4byte	.LASF88
 2074 0772 0D       		.byte	0xd
 2075 0773 3F       		.byte	0x3f
 2076 0774 24070000 		.4byte	0x724
 2077 0778 02       		.byte	0x2
ARM GAS  C:\Users\z80\AppData\Local\Temp\ccYnvvge.s 			page 39


 2078 0779 23       		.byte	0x23
 2079 077a 04       		.uleb128 0x4
 2080 077b 00       		.byte	0
 2081 077c 07       		.uleb128 0x7
 2082 077d DD000000 		.4byte	.LASF89
 2083 0781 0D       		.byte	0xd
 2084 0782 40       		.byte	0x40
 2085 0783 57070000 		.4byte	0x757
 2086 0787 0B       		.uleb128 0xb
 2087 0788 08       		.byte	0x8
 2088 0789 0D       		.byte	0xd
 2089 078a 45       		.byte	0x45
 2090 078b AC070000 		.4byte	0x7ac
 2091 078f 09       		.uleb128 0x9
 2092 0790 9C000000 		.4byte	.LASF90
 2093 0794 0D       		.byte	0xd
 2094 0795 46       		.byte	0x46
 2095 0796 4B070000 		.4byte	0x74b
 2096 079a 02       		.byte	0x2
 2097 079b 23       		.byte	0x23
 2098 079c 00       		.uleb128 0
 2099 079d 09       		.uleb128 0x9
 2100 079e 7A010000 		.4byte	.LASF91
 2101 07a2 0D       		.byte	0xd
 2102 07a3 48       		.byte	0x48
 2103 07a4 AC070000 		.4byte	0x7ac
 2104 07a8 02       		.byte	0x2
 2105 07a9 23       		.byte	0x23
 2106 07aa 04       		.uleb128 0x4
 2107 07ab 00       		.byte	0
 2108 07ac 05       		.uleb128 0x5
 2109 07ad 04       		.byte	0x4
 2110 07ae B2070000 		.4byte	0x7b2
 2111 07b2 06       		.uleb128 0x6
 2112 07b3 7C070000 		.4byte	0x77c
 2113 07b7 07       		.uleb128 0x7
 2114 07b8 C7030000 		.4byte	.LASF92
 2115 07bc 0D       		.byte	0xd
 2116 07bd 4A       		.byte	0x4a
 2117 07be 87070000 		.4byte	0x787
 2118 07c2 14       		.uleb128 0x14
 2119 07c3 B6020000 		.4byte	.LASF101
 2120 07c7 01       		.byte	0x1
 2121 07c8 30       		.byte	0x30
 2122 07c9 01       		.byte	0x1
 2123 07ca 71000000 		.4byte	0x71
 2124 07ce 00000000 		.4byte	.LFB62
 2125 07d2 76000000 		.4byte	.LFE62
 2126 07d6 00000000 		.4byte	.LLST0
 2127 07da 17080000 		.4byte	0x817
 2128 07de 15       		.uleb128 0x15
 2129 07df 73747200 		.ascii	"str\000"
 2130 07e3 01       		.byte	0x1
 2131 07e4 30       		.byte	0x30
 2132 07e5 71000000 		.4byte	0x71
 2133 07e9 02       		.byte	0x2
 2134 07ea 91       		.byte	0x91
ARM GAS  C:\Users\z80\AppData\Local\Temp\ccYnvvge.s 			page 40


 2135 07eb 6C       		.sleb128 -20
 2136 07ec 16       		.uleb128 0x16
 2137 07ed 19030000 		.4byte	.LASF93
 2138 07f1 01       		.byte	0x1
 2139 07f2 30       		.byte	0x30
 2140 07f3 7E000000 		.4byte	0x7e
 2141 07f7 02       		.byte	0x2
 2142 07f8 91       		.byte	0x91
 2143 07f9 68       		.sleb128 -24
 2144 07fa 16       		.uleb128 0x16
 2145 07fb 9F020000 		.4byte	.LASF94
 2146 07ff 01       		.byte	0x1
 2147 0800 30       		.byte	0x30
 2148 0801 51070000 		.4byte	0x751
 2149 0805 02       		.byte	0x2
 2150 0806 91       		.byte	0x91
 2151 0807 64       		.sleb128 -28
 2152 0808 17       		.uleb128 0x17
 2153 0809 99020000 		.4byte	.LASF105
 2154 080d 01       		.byte	0x1
 2155 080e 31       		.byte	0x31
 2156 080f 71000000 		.4byte	0x71
 2157 0813 02       		.byte	0x2
 2158 0814 91       		.byte	0x91
 2159 0815 74       		.sleb128 -12
 2160 0816 00       		.byte	0
 2161 0817 18       		.uleb128 0x18
 2162 0818 05040000 		.4byte	.LASF95
 2163 081c 01       		.byte	0x1
 2164 081d 41       		.byte	0x41
 2165 081e 01       		.byte	0x1
 2166 081f 00000000 		.4byte	.LFB63
 2167 0823 1C000000 		.4byte	.LFE63
 2168 0827 2C000000 		.4byte	.LLST1
 2169 082b 4A080000 		.4byte	0x84a
 2170 082f 15       		.uleb128 0x15
 2171 0830 63687000 		.ascii	"chp\000"
 2172 0834 01       		.byte	0x1
 2173 0835 41       		.byte	0x41
 2174 0836 4B070000 		.4byte	0x74b
 2175 083a 02       		.byte	0x2
 2176 083b 91       		.byte	0x91
 2177 083c 74       		.sleb128 -12
 2178 083d 15       		.uleb128 0x15
 2179 083e 7000     		.ascii	"p\000"
 2180 0840 01       		.byte	0x1
 2181 0841 41       		.byte	0x41
 2182 0842 71000000 		.4byte	0x71
 2183 0846 02       		.byte	0x2
 2184 0847 91       		.byte	0x91
 2185 0848 70       		.sleb128 -16
 2186 0849 00       		.byte	0
 2187 084a 18       		.uleb128 0x18
 2188 084b 6E040000 		.4byte	.LASF96
 2189 084f 01       		.byte	0x1
 2190 0850 46       		.byte	0x46
 2191 0851 01       		.byte	0x1
ARM GAS  C:\Users\z80\AppData\Local\Temp\ccYnvvge.s 			page 41


 2192 0852 00000000 		.4byte	.LFB64
 2193 0856 32000000 		.4byte	.LFE64
 2194 085a 58000000 		.4byte	.LLST2
 2195 085e 7F080000 		.4byte	0x87f
 2196 0862 15       		.uleb128 0x15
 2197 0863 63687000 		.ascii	"chp\000"
 2198 0867 01       		.byte	0x1
 2199 0868 46       		.byte	0x46
 2200 0869 4B070000 		.4byte	0x74b
 2201 086d 02       		.byte	0x2
 2202 086e 91       		.byte	0x91
 2203 086f 74       		.sleb128 -12
 2204 0870 15       		.uleb128 0x15
 2205 0871 73637000 		.ascii	"scp\000"
 2206 0875 01       		.byte	0x1
 2207 0876 46       		.byte	0x46
 2208 0877 AC070000 		.4byte	0x7ac
 2209 087b 02       		.byte	0x2
 2210 087c 91       		.byte	0x91
 2211 087d 70       		.sleb128 -16
 2212 087e 00       		.byte	0
 2213 087f 18       		.uleb128 0x18
 2214 0880 5D000000 		.4byte	.LASF97
 2215 0884 01       		.byte	0x1
 2216 0885 4E       		.byte	0x4e
 2217 0886 01       		.byte	0x1
 2218 0887 00000000 		.4byte	.LFB65
 2219 088b E6000000 		.4byte	.LFE65
 2220 088f 84000000 		.4byte	.LLST3
 2221 0893 C2080000 		.4byte	0x8c2
 2222 0897 15       		.uleb128 0x15
 2223 0898 63687000 		.ascii	"chp\000"
 2224 089c 01       		.byte	0x1
 2225 089d 4E       		.byte	0x4e
 2226 089e 4B070000 		.4byte	0x74b
 2227 08a2 02       		.byte	0x2
 2228 08a3 91       		.byte	0x91
 2229 08a4 74       		.sleb128 -12
 2230 08a5 16       		.uleb128 0x16
 2231 08a6 69040000 		.4byte	.LASF98
 2232 08aa 01       		.byte	0x1
 2233 08ab 4E       		.byte	0x4e
 2234 08ac 45000000 		.4byte	0x45
 2235 08b0 02       		.byte	0x2
 2236 08b1 91       		.byte	0x91
 2237 08b2 70       		.sleb128 -16
 2238 08b3 16       		.uleb128 0x16
 2239 08b4 96040000 		.4byte	.LASF99
 2240 08b8 01       		.byte	0x1
 2241 08b9 4E       		.byte	0x4e
 2242 08ba 51070000 		.4byte	0x751
 2243 08be 02       		.byte	0x2
 2244 08bf 91       		.byte	0x91
 2245 08c0 6C       		.sleb128 -20
 2246 08c1 00       		.byte	0
 2247 08c2 18       		.uleb128 0x18
 2248 08c3 F2030000 		.4byte	.LASF100
ARM GAS  C:\Users\z80\AppData\Local\Temp\ccYnvvge.s 			page 42


 2249 08c7 01       		.byte	0x1
 2250 08c8 6E       		.byte	0x6e
 2251 08c9 01       		.byte	0x1
 2252 08ca 00000000 		.4byte	.LFB66
 2253 08ce 3E000000 		.4byte	.LFE66
 2254 08d2 B0000000 		.4byte	.LLST4
 2255 08d6 05090000 		.4byte	0x905
 2256 08da 15       		.uleb128 0x15
 2257 08db 63687000 		.ascii	"chp\000"
 2258 08df 01       		.byte	0x1
 2259 08e0 6E       		.byte	0x6e
 2260 08e1 4B070000 		.4byte	0x74b
 2261 08e5 02       		.byte	0x2
 2262 08e6 91       		.byte	0x91
 2263 08e7 74       		.sleb128 -12
 2264 08e8 16       		.uleb128 0x16
 2265 08e9 69040000 		.4byte	.LASF98
 2266 08ed 01       		.byte	0x1
 2267 08ee 6E       		.byte	0x6e
 2268 08ef 45000000 		.4byte	0x45
 2269 08f3 02       		.byte	0x2
 2270 08f4 91       		.byte	0x91
 2271 08f5 70       		.sleb128 -16
 2272 08f6 16       		.uleb128 0x16
 2273 08f7 96040000 		.4byte	.LASF99
 2274 08fb 01       		.byte	0x1
 2275 08fc 6E       		.byte	0x6e
 2276 08fd 51070000 		.4byte	0x751
 2277 0901 02       		.byte	0x2
 2278 0902 91       		.byte	0x91
 2279 0903 6C       		.sleb128 -20
 2280 0904 00       		.byte	0
 2281 0905 14       		.uleb128 0x14
 2282 0906 FC020000 		.4byte	.LASF102
 2283 090a 01       		.byte	0x1
 2284 090b 81       		.byte	0x81
 2285 090c 01       		.byte	0x1
 2286 090d C0000000 		.4byte	0xc0
 2287 0911 00000000 		.4byte	.LFB67
 2288 0915 4C000000 		.4byte	.LFE67
 2289 0919 DC000000 		.4byte	.LLST5
 2290 091d 68090000 		.4byte	0x968
 2291 0921 15       		.uleb128 0x15
 2292 0922 73637000 		.ascii	"scp\000"
 2293 0926 01       		.byte	0x1
 2294 0927 81       		.byte	0x81
 2295 0928 AC070000 		.4byte	0x7ac
 2296 092c 02       		.byte	0x2
 2297 092d 91       		.byte	0x91
 2298 092e 74       		.sleb128 -12
 2299 092f 15       		.uleb128 0x15
 2300 0930 63687000 		.ascii	"chp\000"
 2301 0934 01       		.byte	0x1
 2302 0935 81       		.byte	0x81
 2303 0936 4B070000 		.4byte	0x74b
 2304 093a 02       		.byte	0x2
 2305 093b 91       		.byte	0x91
ARM GAS  C:\Users\z80\AppData\Local\Temp\ccYnvvge.s 			page 43


 2306 093c 70       		.sleb128 -16
 2307 093d 16       		.uleb128 0x16
 2308 093e 91010000 		.4byte	.LASF103
 2309 0942 01       		.byte	0x1
 2310 0943 82       		.byte	0x82
 2311 0944 71000000 		.4byte	0x71
 2312 0948 02       		.byte	0x2
 2313 0949 91       		.byte	0x91
 2314 094a 6C       		.sleb128 -20
 2315 094b 16       		.uleb128 0x16
 2316 094c 69040000 		.4byte	.LASF98
 2317 0950 01       		.byte	0x1
 2318 0951 82       		.byte	0x82
 2319 0952 45000000 		.4byte	0x45
 2320 0956 02       		.byte	0x2
 2321 0957 91       		.byte	0x91
 2322 0958 68       		.sleb128 -24
 2323 0959 16       		.uleb128 0x16
 2324 095a 96040000 		.4byte	.LASF99
 2325 095e 01       		.byte	0x1
 2326 095f 82       		.byte	0x82
 2327 0960 51070000 		.4byte	0x751
 2328 0964 02       		.byte	0x2
 2329 0965 91       		.byte	0x91
 2330 0966 00       		.sleb128 0
 2331 0967 00       		.byte	0
 2332 0968 14       		.uleb128 0x14
 2333 0969 21040000 		.4byte	.LASF104
 2334 096d 01       		.byte	0x1
 2335 096e 96       		.byte	0x96
 2336 096f 01       		.byte	0x1
 2337 0970 EC000000 		.4byte	0xec
 2338 0974 00000000 		.4byte	.LFB68
 2339 0978 14020000 		.4byte	.LFE68
 2340 097c 08010000 		.4byte	.LLST6
 2341 0980 260A0000 		.4byte	0xa26
 2342 0984 15       		.uleb128 0x15
 2343 0985 7000     		.ascii	"p\000"
 2344 0987 01       		.byte	0x1
 2345 0988 96       		.byte	0x96
 2346 0989 68000000 		.4byte	0x68
 2347 098d 03       		.byte	0x3
 2348 098e 91       		.byte	0x91
 2349 098f 847F     		.sleb128 -124
 2350 0991 19       		.uleb128 0x19
 2351 0992 6E00     		.ascii	"n\000"
 2352 0994 01       		.byte	0x1
 2353 0995 97       		.byte	0x97
 2354 0996 45000000 		.4byte	0x45
 2355 099a 02       		.byte	0x2
 2356 099b 91       		.byte	0x91
 2357 099c 74       		.sleb128 -12
 2358 099d 19       		.uleb128 0x19
 2359 099e 6D736700 		.ascii	"msg\000"
 2360 09a2 01       		.byte	0x1
 2361 09a3 98       		.byte	0x98
 2362 09a4 EC000000 		.4byte	0xec
ARM GAS  C:\Users\z80\AppData\Local\Temp\ccYnvvge.s 			page 44


 2363 09a8 02       		.byte	0x2
 2364 09a9 91       		.byte	0x91
 2365 09aa 6C       		.sleb128 -20
 2366 09ab 19       		.uleb128 0x19
 2367 09ac 63687000 		.ascii	"chp\000"
 2368 09b0 01       		.byte	0x1
 2369 09b1 99       		.byte	0x99
 2370 09b2 4B070000 		.4byte	0x74b
 2371 09b6 02       		.byte	0x2
 2372 09b7 91       		.byte	0x91
 2373 09b8 68       		.sleb128 -24
 2374 09b9 19       		.uleb128 0x19
 2375 09ba 73637000 		.ascii	"scp\000"
 2376 09be 01       		.byte	0x1
 2377 09bf 9A       		.byte	0x9a
 2378 09c0 AC070000 		.4byte	0x7ac
 2379 09c4 02       		.byte	0x2
 2380 09c5 91       		.byte	0x91
 2381 09c6 64       		.sleb128 -28
 2382 09c7 19       		.uleb128 0x19
 2383 09c8 6C7000   		.ascii	"lp\000"
 2384 09cb 01       		.byte	0x1
 2385 09cc 9B       		.byte	0x9b
 2386 09cd 71000000 		.4byte	0x71
 2387 09d1 02       		.byte	0x2
 2388 09d2 91       		.byte	0x91
 2389 09d3 60       		.sleb128 -32
 2390 09d4 19       		.uleb128 0x19
 2391 09d5 636D6400 		.ascii	"cmd\000"
 2392 09d9 01       		.byte	0x1
 2393 09da 9B       		.byte	0x9b
 2394 09db 71000000 		.4byte	0x71
 2395 09df 02       		.byte	0x2
 2396 09e0 91       		.byte	0x91
 2397 09e1 70       		.sleb128 -16
 2398 09e2 17       		.uleb128 0x17
 2399 09e3 FA000000 		.4byte	.LASF106
 2400 09e7 01       		.byte	0x1
 2401 09e8 9B       		.byte	0x9b
 2402 09e9 71000000 		.4byte	0x71
 2403 09ed 02       		.byte	0x2
 2404 09ee 91       		.byte	0x91
 2405 09ef 5C       		.sleb128 -36
 2406 09f0 17       		.uleb128 0x17
 2407 09f1 15010000 		.4byte	.LASF107
 2408 09f5 01       		.byte	0x1
 2409 09f6 9B       		.byte	0x9b
 2410 09f7 260A0000 		.4byte	0xa26
 2411 09fb 03       		.byte	0x3
 2412 09fc 91       		.byte	0x91
 2413 09fd 9C7F     		.sleb128 -100
 2414 09ff 17       		.uleb128 0x17
 2415 0a00 91040000 		.4byte	.LASF108
 2416 0a04 01       		.byte	0x1
 2417 0a05 9C       		.byte	0x9c
 2418 0a06 360A0000 		.4byte	0xa36
 2419 0a0a 03       		.byte	0x3
ARM GAS  C:\Users\z80\AppData\Local\Temp\ccYnvvge.s 			page 45


 2420 0a0b 91       		.byte	0x91
 2421 0a0c 887F     		.sleb128 -120
 2422 0a0e 1A       		.uleb128 0x1a
 2423 0a0f E8010000 		.4byte	.LBB2
 2424 0a13 F0010000 		.4byte	.LBE2
 2425 0a17 19       		.uleb128 0x19
 2426 0a18 746D7000 		.ascii	"tmp\000"
 2427 0a1c 01       		.byte	0x1
 2428 0a1d CE       		.byte	0xce
 2429 0a1e AA000000 		.4byte	0xaa
 2430 0a22 01       		.byte	0x1
 2431 0a23 53       		.byte	0x53
 2432 0a24 00       		.byte	0
 2433 0a25 00       		.byte	0
 2434 0a26 1B       		.uleb128 0x1b
 2435 0a27 77000000 		.4byte	0x77
 2436 0a2b 360A0000 		.4byte	0xa36
 2437 0a2f 1C       		.uleb128 0x1c
 2438 0a30 4C000000 		.4byte	0x4c
 2439 0a34 3F       		.byte	0x3f
 2440 0a35 00       		.byte	0
 2441 0a36 1B       		.uleb128 0x1b
 2442 0a37 71000000 		.4byte	0x71
 2443 0a3b 460A0000 		.4byte	0xa46
 2444 0a3f 1C       		.uleb128 0x1c
 2445 0a40 4C000000 		.4byte	0x4c
 2446 0a44 04       		.byte	0x4
 2447 0a45 00       		.byte	0
 2448 0a46 1D       		.uleb128 0x1d
 2449 0a47 01       		.byte	0x1
 2450 0a48 98030000 		.4byte	.LASF121
 2451 0a4c 01       		.byte	0x1
 2452 0a4d D7       		.byte	0xd7
 2453 0a4e 01       		.byte	0x1
 2454 0a4f 00000000 		.4byte	.LFB69
 2455 0a53 14000000 		.4byte	.LFE69
 2456 0a57 02       		.byte	0x2
 2457 0a58 7D       		.byte	0x7d
 2458 0a59 00       		.sleb128 0
 2459 0a5a 1E       		.uleb128 0x1e
 2460 0a5b 01       		.byte	0x1
 2461 0a5c 5E020000 		.4byte	.LASF111
 2462 0a60 01       		.byte	0x1
 2463 0a61 F6       		.byte	0xf6
 2464 0a62 01       		.byte	0x1
 2465 0a63 51020000 		.4byte	0x251
 2466 0a67 00000000 		.4byte	.LFB70
 2467 0a6b 2A000000 		.4byte	.LFE70
 2468 0a6f 35010000 		.4byte	.LLST7
 2469 0a73 B00A0000 		.4byte	0xab0
 2470 0a77 15       		.uleb128 0x15
 2471 0a78 73637000 		.ascii	"scp\000"
 2472 0a7c 01       		.byte	0x1
 2473 0a7d F6       		.byte	0xf6
 2474 0a7e B00A0000 		.4byte	0xab0
 2475 0a82 02       		.byte	0x2
 2476 0a83 91       		.byte	0x91
ARM GAS  C:\Users\z80\AppData\Local\Temp\ccYnvvge.s 			page 46


 2477 0a84 74       		.sleb128 -12
 2478 0a85 15       		.uleb128 0x15
 2479 0a86 77737000 		.ascii	"wsp\000"
 2480 0a8a 01       		.byte	0x1
 2481 0a8b F6       		.byte	0xf6
 2482 0a8c 68000000 		.4byte	0x68
 2483 0a90 02       		.byte	0x2
 2484 0a91 91       		.byte	0x91
 2485 0a92 70       		.sleb128 -16
 2486 0a93 16       		.uleb128 0x16
 2487 0a94 A3010000 		.4byte	.LASF109
 2488 0a98 01       		.byte	0x1
 2489 0a99 F7       		.byte	0xf7
 2490 0a9a 89000000 		.4byte	0x89
 2491 0a9e 02       		.byte	0x2
 2492 0a9f 91       		.byte	0x91
 2493 0aa0 6C       		.sleb128 -20
 2494 0aa1 16       		.uleb128 0x16
 2495 0aa2 8C020000 		.4byte	.LASF110
 2496 0aa6 01       		.byte	0x1
 2497 0aa7 F7       		.byte	0xf7
 2498 0aa8 E1000000 		.4byte	0xe1
 2499 0aac 02       		.byte	0x2
 2500 0aad 91       		.byte	0x91
 2501 0aae 68       		.sleb128 -24
 2502 0aaf 00       		.byte	0
 2503 0ab0 05       		.uleb128 0x5
 2504 0ab1 04       		.byte	0x4
 2505 0ab2 B60A0000 		.4byte	0xab6
 2506 0ab6 06       		.uleb128 0x6
 2507 0ab7 B7070000 		.4byte	0x7b7
 2508 0abb 1F       		.uleb128 0x1f
 2509 0abc 01       		.byte	0x1
 2510 0abd 33010000 		.4byte	.LASF112
 2511 0ac1 01       		.byte	0x1
 2512 0ac2 0601     		.2byte	0x106
 2513 0ac4 01       		.byte	0x1
 2514 0ac5 C0000000 		.4byte	0xc0
 2515 0ac9 00000000 		.4byte	.LFB71
 2516 0acd 1C010000 		.4byte	.LFE71
 2517 0ad1 61010000 		.4byte	.LLST8
 2518 0ad5 270B0000 		.4byte	0xb27
 2519 0ad9 20       		.uleb128 0x20
 2520 0ada 63687000 		.ascii	"chp\000"
 2521 0ade 01       		.byte	0x1
 2522 0adf 0601     		.2byte	0x106
 2523 0ae1 4B070000 		.4byte	0x74b
 2524 0ae5 02       		.byte	0x2
 2525 0ae6 91       		.byte	0x91
 2526 0ae7 6C       		.sleb128 -20
 2527 0ae8 21       		.uleb128 0x21
 2528 0ae9 15010000 		.4byte	.LASF107
 2529 0aed 01       		.byte	0x1
 2530 0aee 0601     		.2byte	0x106
 2531 0af0 71000000 		.4byte	0x71
 2532 0af4 02       		.byte	0x2
 2533 0af5 91       		.byte	0x91
ARM GAS  C:\Users\z80\AppData\Local\Temp\ccYnvvge.s 			page 47


 2534 0af6 68       		.sleb128 -24
 2535 0af7 21       		.uleb128 0x21
 2536 0af8 A3010000 		.4byte	.LASF109
 2537 0afc 01       		.byte	0x1
 2538 0afd 0601     		.2byte	0x106
 2539 0aff 4C000000 		.4byte	0x4c
 2540 0b03 02       		.byte	0x2
 2541 0b04 91       		.byte	0x91
 2542 0b05 64       		.sleb128 -28
 2543 0b06 22       		.uleb128 0x22
 2544 0b07 7000     		.ascii	"p\000"
 2545 0b09 01       		.byte	0x1
 2546 0b0a 0701     		.2byte	0x107
 2547 0b0c 71000000 		.4byte	0x71
 2548 0b10 02       		.byte	0x2
 2549 0b11 91       		.byte	0x91
 2550 0b12 74       		.sleb128 -12
 2551 0b13 23       		.uleb128 0x23
 2552 0b14 00000000 		.4byte	.Ldebug_ranges0+0
 2553 0b18 22       		.uleb128 0x22
 2554 0b19 6300     		.ascii	"c\000"
 2555 0b1b 01       		.byte	0x1
 2556 0b1c 0A01     		.2byte	0x10a
 2557 0b1e 37000000 		.4byte	0x37
 2558 0b22 02       		.byte	0x2
 2559 0b23 91       		.byte	0x91
 2560 0b24 72       		.sleb128 -14
 2561 0b25 00       		.byte	0
 2562 0b26 00       		.byte	0
 2563 0b27 1B       		.uleb128 0x1b
 2564 0b28 7C070000 		.4byte	0x77c
 2565 0b2c 370B0000 		.4byte	0xb37
 2566 0b30 1C       		.uleb128 0x1c
 2567 0b31 4C000000 		.4byte	0x4c
 2568 0b35 02       		.byte	0x2
 2569 0b36 00       		.byte	0
 2570 0b37 17       		.uleb128 0x17
 2571 0b38 7D020000 		.4byte	.LASF113
 2572 0b3c 01       		.byte	0x1
 2573 0b3d 7B       		.byte	0x7b
 2574 0b3e 270B0000 		.4byte	0xb27
 2575 0b42 05       		.byte	0x5
 2576 0b43 03       		.byte	0x3
 2577 0b44 00000000 		.4byte	local_commands
 2578 0b48 24       		.uleb128 0x24
 2579 0b49 10000000 		.4byte	.LASF114
 2580 0b4d 08       		.byte	0x8
 2581 0b4e 7A       		.byte	0x7a
 2582 0b4f 11040000 		.4byte	0x411
 2583 0b53 01       		.byte	0x1
 2584 0b54 01       		.byte	0x1
 2585 0b55 24       		.uleb128 0x24
 2586 0b56 2E040000 		.4byte	.LASF115
 2587 0b5a 09       		.byte	0x9
 2588 0b5b 72       		.byte	0x72
 2589 0b5c 87040000 		.4byte	0x487
 2590 0b60 01       		.byte	0x1
ARM GAS  C:\Users\z80\AppData\Local\Temp\ccYnvvge.s 			page 48


 2591 0b61 01       		.byte	0x1
 2592 0b62 25       		.uleb128 0x25
 2593 0b63 50000000 		.4byte	.LASF116
 2594 0b67 0E       		.byte	0xe
 2595 0b68 9404     		.2byte	0x494
 2596 0b6a 1F070000 		.4byte	0x71f
 2597 0b6e 01       		.byte	0x1
 2598 0b6f 01       		.byte	0x1
 2599 0b70 26       		.uleb128 0x26
 2600 0b71 87030000 		.4byte	.LASF117
 2601 0b75 01       		.byte	0x1
 2602 0b76 2E       		.byte	0x2e
 2603 0b77 3D050000 		.4byte	0x53d
 2604 0b7b 01       		.byte	0x1
 2605 0b7c 05       		.byte	0x5
 2606 0b7d 03       		.byte	0x3
 2607 0b7e 00000000 		.4byte	shell_terminated
 2608 0b82 00       		.byte	0
 2609              		.section	.debug_abbrev,"",%progbits
 2610              	.Ldebug_abbrev0:
 2611 0000 01       		.uleb128 0x1
 2612 0001 11       		.uleb128 0x11
 2613 0002 01       		.byte	0x1
 2614 0003 25       		.uleb128 0x25
 2615 0004 0E       		.uleb128 0xe
 2616 0005 13       		.uleb128 0x13
 2617 0006 0B       		.uleb128 0xb
 2618 0007 03       		.uleb128 0x3
 2619 0008 0E       		.uleb128 0xe
 2620 0009 1B       		.uleb128 0x1b
 2621 000a 0E       		.uleb128 0xe
 2622 000b 11       		.uleb128 0x11
 2623 000c 01       		.uleb128 0x1
 2624 000d 52       		.uleb128 0x52
 2625 000e 01       		.uleb128 0x1
 2626 000f 55       		.uleb128 0x55
 2627 0010 06       		.uleb128 0x6
 2628 0011 10       		.uleb128 0x10
 2629 0012 06       		.uleb128 0x6
 2630 0013 00       		.byte	0
 2631 0014 00       		.byte	0
 2632 0015 02       		.uleb128 0x2
 2633 0016 24       		.uleb128 0x24
 2634 0017 00       		.byte	0
 2635 0018 0B       		.uleb128 0xb
 2636 0019 0B       		.uleb128 0xb
 2637 001a 3E       		.uleb128 0x3e
 2638 001b 0B       		.uleb128 0xb
 2639 001c 03       		.uleb128 0x3
 2640 001d 0E       		.uleb128 0xe
 2641 001e 00       		.byte	0
 2642 001f 00       		.byte	0
 2643 0020 03       		.uleb128 0x3
 2644 0021 24       		.uleb128 0x24
 2645 0022 00       		.byte	0
 2646 0023 0B       		.uleb128 0xb
 2647 0024 0B       		.uleb128 0xb
ARM GAS  C:\Users\z80\AppData\Local\Temp\ccYnvvge.s 			page 49


 2648 0025 3E       		.uleb128 0x3e
 2649 0026 0B       		.uleb128 0xb
 2650 0027 03       		.uleb128 0x3
 2651 0028 08       		.uleb128 0x8
 2652 0029 00       		.byte	0
 2653 002a 00       		.byte	0
 2654 002b 04       		.uleb128 0x4
 2655 002c 0F       		.uleb128 0xf
 2656 002d 00       		.byte	0
 2657 002e 0B       		.uleb128 0xb
 2658 002f 0B       		.uleb128 0xb
 2659 0030 00       		.byte	0
 2660 0031 00       		.byte	0
 2661 0032 05       		.uleb128 0x5
 2662 0033 0F       		.uleb128 0xf
 2663 0034 00       		.byte	0
 2664 0035 0B       		.uleb128 0xb
 2665 0036 0B       		.uleb128 0xb
 2666 0037 49       		.uleb128 0x49
 2667 0038 13       		.uleb128 0x13
 2668 0039 00       		.byte	0
 2669 003a 00       		.byte	0
 2670 003b 06       		.uleb128 0x6
 2671 003c 26       		.uleb128 0x26
 2672 003d 00       		.byte	0
 2673 003e 49       		.uleb128 0x49
 2674 003f 13       		.uleb128 0x13
 2675 0040 00       		.byte	0
 2676 0041 00       		.byte	0
 2677 0042 07       		.uleb128 0x7
 2678 0043 16       		.uleb128 0x16
 2679 0044 00       		.byte	0
 2680 0045 03       		.uleb128 0x3
 2681 0046 0E       		.uleb128 0xe
 2682 0047 3A       		.uleb128 0x3a
 2683 0048 0B       		.uleb128 0xb
 2684 0049 3B       		.uleb128 0x3b
 2685 004a 0B       		.uleb128 0xb
 2686 004b 49       		.uleb128 0x49
 2687 004c 13       		.uleb128 0x13
 2688 004d 00       		.byte	0
 2689 004e 00       		.byte	0
 2690 004f 08       		.uleb128 0x8
 2691 0050 13       		.uleb128 0x13
 2692 0051 01       		.byte	0x1
 2693 0052 03       		.uleb128 0x3
 2694 0053 0E       		.uleb128 0xe
 2695 0054 0B       		.uleb128 0xb
 2696 0055 0B       		.uleb128 0xb
 2697 0056 3A       		.uleb128 0x3a
 2698 0057 0B       		.uleb128 0xb
 2699 0058 3B       		.uleb128 0x3b
 2700 0059 0B       		.uleb128 0xb
 2701 005a 01       		.uleb128 0x1
 2702 005b 13       		.uleb128 0x13
 2703 005c 00       		.byte	0
 2704 005d 00       		.byte	0
ARM GAS  C:\Users\z80\AppData\Local\Temp\ccYnvvge.s 			page 50


 2705 005e 09       		.uleb128 0x9
 2706 005f 0D       		.uleb128 0xd
 2707 0060 00       		.byte	0
 2708 0061 03       		.uleb128 0x3
 2709 0062 0E       		.uleb128 0xe
 2710 0063 3A       		.uleb128 0x3a
 2711 0064 0B       		.uleb128 0xb
 2712 0065 3B       		.uleb128 0x3b
 2713 0066 0B       		.uleb128 0xb
 2714 0067 49       		.uleb128 0x49
 2715 0068 13       		.uleb128 0x13
 2716 0069 38       		.uleb128 0x38
 2717 006a 0A       		.uleb128 0xa
 2718 006b 00       		.byte	0
 2719 006c 00       		.byte	0
 2720 006d 0A       		.uleb128 0xa
 2721 006e 0D       		.uleb128 0xd
 2722 006f 00       		.byte	0
 2723 0070 03       		.uleb128 0x3
 2724 0071 08       		.uleb128 0x8
 2725 0072 3A       		.uleb128 0x3a
 2726 0073 0B       		.uleb128 0xb
 2727 0074 3B       		.uleb128 0x3b
 2728 0075 0B       		.uleb128 0xb
 2729 0076 49       		.uleb128 0x49
 2730 0077 13       		.uleb128 0x13
 2731 0078 38       		.uleb128 0x38
 2732 0079 0A       		.uleb128 0xa
 2733 007a 00       		.byte	0
 2734 007b 00       		.byte	0
 2735 007c 0B       		.uleb128 0xb
 2736 007d 13       		.uleb128 0x13
 2737 007e 01       		.byte	0x1
 2738 007f 0B       		.uleb128 0xb
 2739 0080 0B       		.uleb128 0xb
 2740 0081 3A       		.uleb128 0x3a
 2741 0082 0B       		.uleb128 0xb
 2742 0083 3B       		.uleb128 0x3b
 2743 0084 0B       		.uleb128 0xb
 2744 0085 01       		.uleb128 0x1
 2745 0086 13       		.uleb128 0x13
 2746 0087 00       		.byte	0
 2747 0088 00       		.byte	0
 2748 0089 0C       		.uleb128 0xc
 2749 008a 0D       		.uleb128 0xd
 2750 008b 00       		.byte	0
 2751 008c 03       		.uleb128 0x3
 2752 008d 08       		.uleb128 0x8
 2753 008e 3A       		.uleb128 0x3a
 2754 008f 0B       		.uleb128 0xb
 2755 0090 3B       		.uleb128 0x3b
 2756 0091 05       		.uleb128 0x5
 2757 0092 49       		.uleb128 0x49
 2758 0093 13       		.uleb128 0x13
 2759 0094 38       		.uleb128 0x38
 2760 0095 0A       		.uleb128 0xa
 2761 0096 00       		.byte	0
ARM GAS  C:\Users\z80\AppData\Local\Temp\ccYnvvge.s 			page 51


 2762 0097 00       		.byte	0
 2763 0098 0D       		.uleb128 0xd
 2764 0099 13       		.uleb128 0x13
 2765 009a 01       		.byte	0x1
 2766 009b 03       		.uleb128 0x3
 2767 009c 0E       		.uleb128 0xe
 2768 009d 0B       		.uleb128 0xb
 2769 009e 0B       		.uleb128 0xb
 2770 009f 3A       		.uleb128 0x3a
 2771 00a0 0B       		.uleb128 0xb
 2772 00a1 3B       		.uleb128 0x3b
 2773 00a2 05       		.uleb128 0x5
 2774 00a3 01       		.uleb128 0x1
 2775 00a4 13       		.uleb128 0x13
 2776 00a5 00       		.byte	0
 2777 00a6 00       		.byte	0
 2778 00a7 0E       		.uleb128 0xe
 2779 00a8 15       		.uleb128 0x15
 2780 00a9 01       		.byte	0x1
 2781 00aa 27       		.uleb128 0x27
 2782 00ab 0C       		.uleb128 0xc
 2783 00ac 01       		.uleb128 0x1
 2784 00ad 13       		.uleb128 0x13
 2785 00ae 00       		.byte	0
 2786 00af 00       		.byte	0
 2787 00b0 0F       		.uleb128 0xf
 2788 00b1 05       		.uleb128 0x5
 2789 00b2 00       		.byte	0
 2790 00b3 49       		.uleb128 0x49
 2791 00b4 13       		.uleb128 0x13
 2792 00b5 00       		.byte	0
 2793 00b6 00       		.byte	0
 2794 00b7 10       		.uleb128 0x10
 2795 00b8 35       		.uleb128 0x35
 2796 00b9 00       		.byte	0
 2797 00ba 49       		.uleb128 0x49
 2798 00bb 13       		.uleb128 0x13
 2799 00bc 00       		.byte	0
 2800 00bd 00       		.byte	0
 2801 00be 11       		.uleb128 0x11
 2802 00bf 17       		.uleb128 0x17
 2803 00c0 01       		.byte	0x1
 2804 00c1 0B       		.uleb128 0xb
 2805 00c2 0B       		.uleb128 0xb
 2806 00c3 3A       		.uleb128 0x3a
 2807 00c4 0B       		.uleb128 0xb
 2808 00c5 3B       		.uleb128 0x3b
 2809 00c6 0B       		.uleb128 0xb
 2810 00c7 01       		.uleb128 0x1
 2811 00c8 13       		.uleb128 0x13
 2812 00c9 00       		.byte	0
 2813 00ca 00       		.byte	0
 2814 00cb 12       		.uleb128 0x12
 2815 00cc 0D       		.uleb128 0xd
 2816 00cd 00       		.byte	0
 2817 00ce 03       		.uleb128 0x3
 2818 00cf 0E       		.uleb128 0xe
ARM GAS  C:\Users\z80\AppData\Local\Temp\ccYnvvge.s 			page 52


 2819 00d0 3A       		.uleb128 0x3a
 2820 00d1 0B       		.uleb128 0xb
 2821 00d2 3B       		.uleb128 0x3b
 2822 00d3 0B       		.uleb128 0xb
 2823 00d4 49       		.uleb128 0x49
 2824 00d5 13       		.uleb128 0x13
 2825 00d6 00       		.byte	0
 2826 00d7 00       		.byte	0
 2827 00d8 13       		.uleb128 0x13
 2828 00d9 15       		.uleb128 0x15
 2829 00da 01       		.byte	0x1
 2830 00db 27       		.uleb128 0x27
 2831 00dc 0C       		.uleb128 0xc
 2832 00dd 49       		.uleb128 0x49
 2833 00de 13       		.uleb128 0x13
 2834 00df 01       		.uleb128 0x1
 2835 00e0 13       		.uleb128 0x13
 2836 00e1 00       		.byte	0
 2837 00e2 00       		.byte	0
 2838 00e3 14       		.uleb128 0x14
 2839 00e4 2E       		.uleb128 0x2e
 2840 00e5 01       		.byte	0x1
 2841 00e6 03       		.uleb128 0x3
 2842 00e7 0E       		.uleb128 0xe
 2843 00e8 3A       		.uleb128 0x3a
 2844 00e9 0B       		.uleb128 0xb
 2845 00ea 3B       		.uleb128 0x3b
 2846 00eb 0B       		.uleb128 0xb
 2847 00ec 27       		.uleb128 0x27
 2848 00ed 0C       		.uleb128 0xc
 2849 00ee 49       		.uleb128 0x49
 2850 00ef 13       		.uleb128 0x13
 2851 00f0 11       		.uleb128 0x11
 2852 00f1 01       		.uleb128 0x1
 2853 00f2 12       		.uleb128 0x12
 2854 00f3 01       		.uleb128 0x1
 2855 00f4 40       		.uleb128 0x40
 2856 00f5 06       		.uleb128 0x6
 2857 00f6 01       		.uleb128 0x1
 2858 00f7 13       		.uleb128 0x13
 2859 00f8 00       		.byte	0
 2860 00f9 00       		.byte	0
 2861 00fa 15       		.uleb128 0x15
 2862 00fb 05       		.uleb128 0x5
 2863 00fc 00       		.byte	0
 2864 00fd 03       		.uleb128 0x3
 2865 00fe 08       		.uleb128 0x8
 2866 00ff 3A       		.uleb128 0x3a
 2867 0100 0B       		.uleb128 0xb
 2868 0101 3B       		.uleb128 0x3b
 2869 0102 0B       		.uleb128 0xb
 2870 0103 49       		.uleb128 0x49
 2871 0104 13       		.uleb128 0x13
 2872 0105 02       		.uleb128 0x2
 2873 0106 0A       		.uleb128 0xa
 2874 0107 00       		.byte	0
 2875 0108 00       		.byte	0
ARM GAS  C:\Users\z80\AppData\Local\Temp\ccYnvvge.s 			page 53


 2876 0109 16       		.uleb128 0x16
 2877 010a 05       		.uleb128 0x5
 2878 010b 00       		.byte	0
 2879 010c 03       		.uleb128 0x3
 2880 010d 0E       		.uleb128 0xe
 2881 010e 3A       		.uleb128 0x3a
 2882 010f 0B       		.uleb128 0xb
 2883 0110 3B       		.uleb128 0x3b
 2884 0111 0B       		.uleb128 0xb
 2885 0112 49       		.uleb128 0x49
 2886 0113 13       		.uleb128 0x13
 2887 0114 02       		.uleb128 0x2
 2888 0115 0A       		.uleb128 0xa
 2889 0116 00       		.byte	0
 2890 0117 00       		.byte	0
 2891 0118 17       		.uleb128 0x17
 2892 0119 34       		.uleb128 0x34
 2893 011a 00       		.byte	0
 2894 011b 03       		.uleb128 0x3
 2895 011c 0E       		.uleb128 0xe
 2896 011d 3A       		.uleb128 0x3a
 2897 011e 0B       		.uleb128 0xb
 2898 011f 3B       		.uleb128 0x3b
 2899 0120 0B       		.uleb128 0xb
 2900 0121 49       		.uleb128 0x49
 2901 0122 13       		.uleb128 0x13
 2902 0123 02       		.uleb128 0x2
 2903 0124 0A       		.uleb128 0xa
 2904 0125 00       		.byte	0
 2905 0126 00       		.byte	0
 2906 0127 18       		.uleb128 0x18
 2907 0128 2E       		.uleb128 0x2e
 2908 0129 01       		.byte	0x1
 2909 012a 03       		.uleb128 0x3
 2910 012b 0E       		.uleb128 0xe
 2911 012c 3A       		.uleb128 0x3a
 2912 012d 0B       		.uleb128 0xb
 2913 012e 3B       		.uleb128 0x3b
 2914 012f 0B       		.uleb128 0xb
 2915 0130 27       		.uleb128 0x27
 2916 0131 0C       		.uleb128 0xc
 2917 0132 11       		.uleb128 0x11
 2918 0133 01       		.uleb128 0x1
 2919 0134 12       		.uleb128 0x12
 2920 0135 01       		.uleb128 0x1
 2921 0136 40       		.uleb128 0x40
 2922 0137 06       		.uleb128 0x6
 2923 0138 01       		.uleb128 0x1
 2924 0139 13       		.uleb128 0x13
 2925 013a 00       		.byte	0
 2926 013b 00       		.byte	0
 2927 013c 19       		.uleb128 0x19
 2928 013d 34       		.uleb128 0x34
 2929 013e 00       		.byte	0
 2930 013f 03       		.uleb128 0x3
 2931 0140 08       		.uleb128 0x8
 2932 0141 3A       		.uleb128 0x3a
ARM GAS  C:\Users\z80\AppData\Local\Temp\ccYnvvge.s 			page 54


 2933 0142 0B       		.uleb128 0xb
 2934 0143 3B       		.uleb128 0x3b
 2935 0144 0B       		.uleb128 0xb
 2936 0145 49       		.uleb128 0x49
 2937 0146 13       		.uleb128 0x13
 2938 0147 02       		.uleb128 0x2
 2939 0148 0A       		.uleb128 0xa
 2940 0149 00       		.byte	0
 2941 014a 00       		.byte	0
 2942 014b 1A       		.uleb128 0x1a
 2943 014c 0B       		.uleb128 0xb
 2944 014d 01       		.byte	0x1
 2945 014e 11       		.uleb128 0x11
 2946 014f 01       		.uleb128 0x1
 2947 0150 12       		.uleb128 0x12
 2948 0151 01       		.uleb128 0x1
 2949 0152 00       		.byte	0
 2950 0153 00       		.byte	0
 2951 0154 1B       		.uleb128 0x1b
 2952 0155 01       		.uleb128 0x1
 2953 0156 01       		.byte	0x1
 2954 0157 49       		.uleb128 0x49
 2955 0158 13       		.uleb128 0x13
 2956 0159 01       		.uleb128 0x1
 2957 015a 13       		.uleb128 0x13
 2958 015b 00       		.byte	0
 2959 015c 00       		.byte	0
 2960 015d 1C       		.uleb128 0x1c
 2961 015e 21       		.uleb128 0x21
 2962 015f 00       		.byte	0
 2963 0160 49       		.uleb128 0x49
 2964 0161 13       		.uleb128 0x13
 2965 0162 2F       		.uleb128 0x2f
 2966 0163 0B       		.uleb128 0xb
 2967 0164 00       		.byte	0
 2968 0165 00       		.byte	0
 2969 0166 1D       		.uleb128 0x1d
 2970 0167 2E       		.uleb128 0x2e
 2971 0168 00       		.byte	0
 2972 0169 3F       		.uleb128 0x3f
 2973 016a 0C       		.uleb128 0xc
 2974 016b 03       		.uleb128 0x3
 2975 016c 0E       		.uleb128 0xe
 2976 016d 3A       		.uleb128 0x3a
 2977 016e 0B       		.uleb128 0xb
 2978 016f 3B       		.uleb128 0x3b
 2979 0170 0B       		.uleb128 0xb
 2980 0171 27       		.uleb128 0x27
 2981 0172 0C       		.uleb128 0xc
 2982 0173 11       		.uleb128 0x11
 2983 0174 01       		.uleb128 0x1
 2984 0175 12       		.uleb128 0x12
 2985 0176 01       		.uleb128 0x1
 2986 0177 40       		.uleb128 0x40
 2987 0178 0A       		.uleb128 0xa
 2988 0179 00       		.byte	0
 2989 017a 00       		.byte	0
ARM GAS  C:\Users\z80\AppData\Local\Temp\ccYnvvge.s 			page 55


 2990 017b 1E       		.uleb128 0x1e
 2991 017c 2E       		.uleb128 0x2e
 2992 017d 01       		.byte	0x1
 2993 017e 3F       		.uleb128 0x3f
 2994 017f 0C       		.uleb128 0xc
 2995 0180 03       		.uleb128 0x3
 2996 0181 0E       		.uleb128 0xe
 2997 0182 3A       		.uleb128 0x3a
 2998 0183 0B       		.uleb128 0xb
 2999 0184 3B       		.uleb128 0x3b
 3000 0185 0B       		.uleb128 0xb
 3001 0186 27       		.uleb128 0x27
 3002 0187 0C       		.uleb128 0xc
 3003 0188 49       		.uleb128 0x49
 3004 0189 13       		.uleb128 0x13
 3005 018a 11       		.uleb128 0x11
 3006 018b 01       		.uleb128 0x1
 3007 018c 12       		.uleb128 0x12
 3008 018d 01       		.uleb128 0x1
 3009 018e 40       		.uleb128 0x40
 3010 018f 06       		.uleb128 0x6
 3011 0190 01       		.uleb128 0x1
 3012 0191 13       		.uleb128 0x13
 3013 0192 00       		.byte	0
 3014 0193 00       		.byte	0
 3015 0194 1F       		.uleb128 0x1f
 3016 0195 2E       		.uleb128 0x2e
 3017 0196 01       		.byte	0x1
 3018 0197 3F       		.uleb128 0x3f
 3019 0198 0C       		.uleb128 0xc
 3020 0199 03       		.uleb128 0x3
 3021 019a 0E       		.uleb128 0xe
 3022 019b 3A       		.uleb128 0x3a
 3023 019c 0B       		.uleb128 0xb
 3024 019d 3B       		.uleb128 0x3b
 3025 019e 05       		.uleb128 0x5
 3026 019f 27       		.uleb128 0x27
 3027 01a0 0C       		.uleb128 0xc
 3028 01a1 49       		.uleb128 0x49
 3029 01a2 13       		.uleb128 0x13
 3030 01a3 11       		.uleb128 0x11
 3031 01a4 01       		.uleb128 0x1
 3032 01a5 12       		.uleb128 0x12
 3033 01a6 01       		.uleb128 0x1
 3034 01a7 40       		.uleb128 0x40
 3035 01a8 06       		.uleb128 0x6
 3036 01a9 01       		.uleb128 0x1
 3037 01aa 13       		.uleb128 0x13
 3038 01ab 00       		.byte	0
 3039 01ac 00       		.byte	0
 3040 01ad 20       		.uleb128 0x20
 3041 01ae 05       		.uleb128 0x5
 3042 01af 00       		.byte	0
 3043 01b0 03       		.uleb128 0x3
 3044 01b1 08       		.uleb128 0x8
 3045 01b2 3A       		.uleb128 0x3a
 3046 01b3 0B       		.uleb128 0xb
ARM GAS  C:\Users\z80\AppData\Local\Temp\ccYnvvge.s 			page 56


 3047 01b4 3B       		.uleb128 0x3b
 3048 01b5 05       		.uleb128 0x5
 3049 01b6 49       		.uleb128 0x49
 3050 01b7 13       		.uleb128 0x13
 3051 01b8 02       		.uleb128 0x2
 3052 01b9 0A       		.uleb128 0xa
 3053 01ba 00       		.byte	0
 3054 01bb 00       		.byte	0
 3055 01bc 21       		.uleb128 0x21
 3056 01bd 05       		.uleb128 0x5
 3057 01be 00       		.byte	0
 3058 01bf 03       		.uleb128 0x3
 3059 01c0 0E       		.uleb128 0xe
 3060 01c1 3A       		.uleb128 0x3a
 3061 01c2 0B       		.uleb128 0xb
 3062 01c3 3B       		.uleb128 0x3b
 3063 01c4 05       		.uleb128 0x5
 3064 01c5 49       		.uleb128 0x49
 3065 01c6 13       		.uleb128 0x13
 3066 01c7 02       		.uleb128 0x2
 3067 01c8 0A       		.uleb128 0xa
 3068 01c9 00       		.byte	0
 3069 01ca 00       		.byte	0
 3070 01cb 22       		.uleb128 0x22
 3071 01cc 34       		.uleb128 0x34
 3072 01cd 00       		.byte	0
 3073 01ce 03       		.uleb128 0x3
 3074 01cf 08       		.uleb128 0x8
 3075 01d0 3A       		.uleb128 0x3a
 3076 01d1 0B       		.uleb128 0xb
 3077 01d2 3B       		.uleb128 0x3b
 3078 01d3 05       		.uleb128 0x5
 3079 01d4 49       		.uleb128 0x49
 3080 01d5 13       		.uleb128 0x13
 3081 01d6 02       		.uleb128 0x2
 3082 01d7 0A       		.uleb128 0xa
 3083 01d8 00       		.byte	0
 3084 01d9 00       		.byte	0
 3085 01da 23       		.uleb128 0x23
 3086 01db 0B       		.uleb128 0xb
 3087 01dc 01       		.byte	0x1
 3088 01dd 55       		.uleb128 0x55
 3089 01de 06       		.uleb128 0x6
 3090 01df 00       		.byte	0
 3091 01e0 00       		.byte	0
 3092 01e1 24       		.uleb128 0x24
 3093 01e2 34       		.uleb128 0x34
 3094 01e3 00       		.byte	0
 3095 01e4 03       		.uleb128 0x3
 3096 01e5 0E       		.uleb128 0xe
 3097 01e6 3A       		.uleb128 0x3a
 3098 01e7 0B       		.uleb128 0xb
 3099 01e8 3B       		.uleb128 0x3b
 3100 01e9 0B       		.uleb128 0xb
 3101 01ea 49       		.uleb128 0x49
 3102 01eb 13       		.uleb128 0x13
 3103 01ec 3F       		.uleb128 0x3f
ARM GAS  C:\Users\z80\AppData\Local\Temp\ccYnvvge.s 			page 57


 3104 01ed 0C       		.uleb128 0xc
 3105 01ee 3C       		.uleb128 0x3c
 3106 01ef 0C       		.uleb128 0xc
 3107 01f0 00       		.byte	0
 3108 01f1 00       		.byte	0
 3109 01f2 25       		.uleb128 0x25
 3110 01f3 34       		.uleb128 0x34
 3111 01f4 00       		.byte	0
 3112 01f5 03       		.uleb128 0x3
 3113 01f6 0E       		.uleb128 0xe
 3114 01f7 3A       		.uleb128 0x3a
 3115 01f8 0B       		.uleb128 0xb
 3116 01f9 3B       		.uleb128 0x3b
 3117 01fa 05       		.uleb128 0x5
 3118 01fb 49       		.uleb128 0x49
 3119 01fc 13       		.uleb128 0x13
 3120 01fd 3F       		.uleb128 0x3f
 3121 01fe 0C       		.uleb128 0xc
 3122 01ff 3C       		.uleb128 0x3c
 3123 0200 0C       		.uleb128 0xc
 3124 0201 00       		.byte	0
 3125 0202 00       		.byte	0
 3126 0203 26       		.uleb128 0x26
 3127 0204 34       		.uleb128 0x34
 3128 0205 00       		.byte	0
 3129 0206 03       		.uleb128 0x3
 3130 0207 0E       		.uleb128 0xe
 3131 0208 3A       		.uleb128 0x3a
 3132 0209 0B       		.uleb128 0xb
 3133 020a 3B       		.uleb128 0x3b
 3134 020b 0B       		.uleb128 0xb
 3135 020c 49       		.uleb128 0x49
 3136 020d 13       		.uleb128 0x13
 3137 020e 3F       		.uleb128 0x3f
 3138 020f 0C       		.uleb128 0xc
 3139 0210 02       		.uleb128 0x2
 3140 0211 0A       		.uleb128 0xa
 3141 0212 00       		.byte	0
 3142 0213 00       		.byte	0
 3143 0214 00       		.byte	0
 3144              		.section	.debug_loc,"",%progbits
 3145              	.Ldebug_loc0:
 3146              	.LLST0:
 3147 0000 00000000 		.4byte	.LFB62
 3148 0004 02000000 		.4byte	.LCFI0
 3149 0008 0200     		.2byte	0x2
 3150 000a 7D       		.byte	0x7d
 3151 000b 00       		.sleb128 0
 3152 000c 02000000 		.4byte	.LCFI0
 3153 0010 04000000 		.4byte	.LCFI1
 3154 0014 0200     		.2byte	0x2
 3155 0016 7D       		.byte	0x7d
 3156 0017 04       		.sleb128 4
 3157 0018 04000000 		.4byte	.LCFI1
 3158 001c 76000000 		.4byte	.LFE62
 3159 0020 0200     		.2byte	0x2
 3160 0022 7D       		.byte	0x7d
ARM GAS  C:\Users\z80\AppData\Local\Temp\ccYnvvge.s 			page 58


 3161 0023 20       		.sleb128 32
 3162 0024 00000000 		.4byte	0
 3163 0028 00000000 		.4byte	0
 3164              	.LLST1:
 3165 002c 00000000 		.4byte	.LFB63
 3166 0030 02000000 		.4byte	.LCFI2
 3167 0034 0200     		.2byte	0x2
 3168 0036 7D       		.byte	0x7d
 3169 0037 00       		.sleb128 0
 3170 0038 02000000 		.4byte	.LCFI2
 3171 003c 04000000 		.4byte	.LCFI3
 3172 0040 0200     		.2byte	0x2
 3173 0042 7D       		.byte	0x7d
 3174 0043 04       		.sleb128 4
 3175 0044 04000000 		.4byte	.LCFI3
 3176 0048 1C000000 		.4byte	.LFE63
 3177 004c 0200     		.2byte	0x2
 3178 004e 7D       		.byte	0x7d
 3179 004f 10       		.sleb128 16
 3180 0050 00000000 		.4byte	0
 3181 0054 00000000 		.4byte	0
 3182              	.LLST2:
 3183 0058 00000000 		.4byte	.LFB64
 3184 005c 02000000 		.4byte	.LCFI4
 3185 0060 0200     		.2byte	0x2
 3186 0062 7D       		.byte	0x7d
 3187 0063 00       		.sleb128 0
 3188 0064 02000000 		.4byte	.LCFI4
 3189 0068 04000000 		.4byte	.LCFI5
 3190 006c 0200     		.2byte	0x2
 3191 006e 7D       		.byte	0x7d
 3192 006f 04       		.sleb128 4
 3193 0070 04000000 		.4byte	.LCFI5
 3194 0074 32000000 		.4byte	.LFE64
 3195 0078 0200     		.2byte	0x2
 3196 007a 7D       		.byte	0x7d
 3197 007b 10       		.sleb128 16
 3198 007c 00000000 		.4byte	0
 3199 0080 00000000 		.4byte	0
 3200              	.LLST3:
 3201 0084 00000000 		.4byte	.LFB65
 3202 0088 02000000 		.4byte	.LCFI6
 3203 008c 0200     		.2byte	0x2
 3204 008e 7D       		.byte	0x7d
 3205 008f 00       		.sleb128 0
 3206 0090 02000000 		.4byte	.LCFI6
 3207 0094 04000000 		.4byte	.LCFI7
 3208 0098 0200     		.2byte	0x2
 3209 009a 7D       		.byte	0x7d
 3210 009b 04       		.sleb128 4
 3211 009c 04000000 		.4byte	.LCFI7
 3212 00a0 E6000000 		.4byte	.LFE65
 3213 00a4 0200     		.2byte	0x2
 3214 00a6 7D       		.byte	0x7d
 3215 00a7 20       		.sleb128 32
 3216 00a8 00000000 		.4byte	0
 3217 00ac 00000000 		.4byte	0
ARM GAS  C:\Users\z80\AppData\Local\Temp\ccYnvvge.s 			page 59


 3218              	.LLST4:
 3219 00b0 00000000 		.4byte	.LFB66
 3220 00b4 02000000 		.4byte	.LCFI8
 3221 00b8 0200     		.2byte	0x2
 3222 00ba 7D       		.byte	0x7d
 3223 00bb 00       		.sleb128 0
 3224 00bc 02000000 		.4byte	.LCFI8
 3225 00c0 04000000 		.4byte	.LCFI9
 3226 00c4 0200     		.2byte	0x2
 3227 00c6 7D       		.byte	0x7d
 3228 00c7 04       		.sleb128 4
 3229 00c8 04000000 		.4byte	.LCFI9
 3230 00cc 3E000000 		.4byte	.LFE66
 3231 00d0 0200     		.2byte	0x2
 3232 00d2 7D       		.byte	0x7d
 3233 00d3 18       		.sleb128 24
 3234 00d4 00000000 		.4byte	0
 3235 00d8 00000000 		.4byte	0
 3236              	.LLST5:
 3237 00dc 00000000 		.4byte	.LFB67
 3238 00e0 02000000 		.4byte	.LCFI10
 3239 00e4 0200     		.2byte	0x2
 3240 00e6 7D       		.byte	0x7d
 3241 00e7 00       		.sleb128 0
 3242 00e8 02000000 		.4byte	.LCFI10
 3243 00ec 04000000 		.4byte	.LCFI11
 3244 00f0 0200     		.2byte	0x2
 3245 00f2 7D       		.byte	0x7d
 3246 00f3 04       		.sleb128 4
 3247 00f4 04000000 		.4byte	.LCFI11
 3248 00f8 4C000000 		.4byte	.LFE67
 3249 00fc 0200     		.2byte	0x2
 3250 00fe 7D       		.byte	0x7d
 3251 00ff 18       		.sleb128 24
 3252 0100 00000000 		.4byte	0
 3253 0104 00000000 		.4byte	0
 3254              	.LLST6:
 3255 0108 00000000 		.4byte	.LFB68
 3256 010c 02000000 		.4byte	.LCFI12
 3257 0110 0200     		.2byte	0x2
 3258 0112 7D       		.byte	0x7d
 3259 0113 00       		.sleb128 0
 3260 0114 02000000 		.4byte	.LCFI12
 3261 0118 04000000 		.4byte	.LCFI13
 3262 011c 0200     		.2byte	0x2
 3263 011e 7D       		.byte	0x7d
 3264 011f 04       		.sleb128 4
 3265 0120 04000000 		.4byte	.LCFI13
 3266 0124 14020000 		.4byte	.LFE68
 3267 0128 0300     		.2byte	0x3
 3268 012a 7D       		.byte	0x7d
 3269 012b 8801     		.sleb128 136
 3270 012d 00000000 		.4byte	0
 3271 0131 00000000 		.4byte	0
 3272              	.LLST7:
 3273 0135 00000000 		.4byte	.LFB70
 3274 0139 02000000 		.4byte	.LCFI14
ARM GAS  C:\Users\z80\AppData\Local\Temp\ccYnvvge.s 			page 60


 3275 013d 0200     		.2byte	0x2
 3276 013f 7D       		.byte	0x7d
 3277 0140 00       		.sleb128 0
 3278 0141 02000000 		.4byte	.LCFI14
 3279 0145 04000000 		.4byte	.LCFI15
 3280 0149 0200     		.2byte	0x2
 3281 014b 7D       		.byte	0x7d
 3282 014c 04       		.sleb128 4
 3283 014d 04000000 		.4byte	.LCFI15
 3284 0151 2A000000 		.4byte	.LFE70
 3285 0155 0200     		.2byte	0x2
 3286 0157 7D       		.byte	0x7d
 3287 0158 20       		.sleb128 32
 3288 0159 00000000 		.4byte	0
 3289 015d 00000000 		.4byte	0
 3290              	.LLST8:
 3291 0161 00000000 		.4byte	.LFB71
 3292 0165 02000000 		.4byte	.LCFI16
 3293 0169 0200     		.2byte	0x2
 3294 016b 7D       		.byte	0x7d
 3295 016c 00       		.sleb128 0
 3296 016d 02000000 		.4byte	.LCFI16
 3297 0171 04000000 		.4byte	.LCFI17
 3298 0175 0200     		.2byte	0x2
 3299 0177 7D       		.byte	0x7d
 3300 0178 04       		.sleb128 4
 3301 0179 04000000 		.4byte	.LCFI17
 3302 017d 1C010000 		.4byte	.LFE71
 3303 0181 0200     		.2byte	0x2
 3304 0183 7D       		.byte	0x7d
 3305 0184 20       		.sleb128 32
 3306 0185 00000000 		.4byte	0
 3307 0189 00000000 		.4byte	0
 3308              		.section	.debug_aranges,"",%progbits
 3309 0000 64000000 		.4byte	0x64
 3310 0004 0200     		.2byte	0x2
 3311 0006 00000000 		.4byte	.Ldebug_info0
 3312 000a 04       		.byte	0x4
 3313 000b 00       		.byte	0
 3314 000c 0000     		.2byte	0
 3315 000e 0000     		.2byte	0
 3316 0010 00000000 		.4byte	.LFB62
 3317 0014 76000000 		.4byte	.LFE62-.LFB62
 3318 0018 00000000 		.4byte	.LFB63
 3319 001c 1C000000 		.4byte	.LFE63-.LFB63
 3320 0020 00000000 		.4byte	.LFB64
 3321 0024 32000000 		.4byte	.LFE64-.LFB64
 3322 0028 00000000 		.4byte	.LFB65
 3323 002c E6000000 		.4byte	.LFE65-.LFB65
 3324 0030 00000000 		.4byte	.LFB66
 3325 0034 3E000000 		.4byte	.LFE66-.LFB66
 3326 0038 00000000 		.4byte	.LFB67
 3327 003c 4C000000 		.4byte	.LFE67-.LFB67
 3328 0040 00000000 		.4byte	.LFB68
 3329 0044 14020000 		.4byte	.LFE68-.LFB68
 3330 0048 00000000 		.4byte	.LFB69
 3331 004c 14000000 		.4byte	.LFE69-.LFB69
ARM GAS  C:\Users\z80\AppData\Local\Temp\ccYnvvge.s 			page 61


 3332 0050 00000000 		.4byte	.LFB70
 3333 0054 2A000000 		.4byte	.LFE70-.LFB70
 3334 0058 00000000 		.4byte	.LFB71
 3335 005c 1C010000 		.4byte	.LFE71-.LFB71
 3336 0060 00000000 		.4byte	0
 3337 0064 00000000 		.4byte	0
 3338              		.section	.debug_ranges,"",%progbits
 3339              	.Ldebug_ranges0:
 3340 0000 12000000 		.4byte	.LBB3
 3341 0004 0C010000 		.4byte	.LBE3
 3342 0008 0E010000 		.4byte	.LBB4
 3343 000c 14010000 		.4byte	.LBE4
 3344 0010 00000000 		.4byte	0
 3345 0014 00000000 		.4byte	0
 3346 0018 00000000 		.4byte	.LFB62
 3347 001c 76000000 		.4byte	.LFE62
 3348 0020 00000000 		.4byte	.LFB63
 3349 0024 1C000000 		.4byte	.LFE63
 3350 0028 00000000 		.4byte	.LFB64
 3351 002c 32000000 		.4byte	.LFE64
 3352 0030 00000000 		.4byte	.LFB65
 3353 0034 E6000000 		.4byte	.LFE65
 3354 0038 00000000 		.4byte	.LFB66
 3355 003c 3E000000 		.4byte	.LFE66
 3356 0040 00000000 		.4byte	.LFB67
 3357 0044 4C000000 		.4byte	.LFE67
 3358 0048 00000000 		.4byte	.LFB68
 3359 004c 14020000 		.4byte	.LFE68
 3360 0050 00000000 		.4byte	.LFB69
 3361 0054 14000000 		.4byte	.LFE69
 3362 0058 00000000 		.4byte	.LFB70
 3363 005c 2A000000 		.4byte	.LFE70
 3364 0060 00000000 		.4byte	.LFB71
 3365 0064 1C010000 		.4byte	.LFE71
 3366 0068 00000000 		.4byte	0
 3367 006c 00000000 		.4byte	0
 3368              		.section	.debug_line,"",%progbits
 3369              	.Ldebug_line0:
 3370 0000 66030000 		.section	.debug_str,"MS",%progbits,1
 3370      02001502 
 3370      00000201 
 3370      FB0E0D00 
 3370      01010101 
 3371              	.LASF10:
 3372 0000 73697A65 		.ascii	"size_t\000"
 3372      5F7400
 3373              	.LASF14:
 3374 0007 75696E74 		.ascii	"uint64_t\000"
 3374      36345F74 
 3374      00
 3375              	.LASF114:
 3376 0010 76746C69 		.ascii	"vtlist\000"
 3376      737400
 3377              	.LASF63:
 3378 0017 52656164 		.ascii	"ReadyList\000"
 3378      794C6973 
 3378      7400
ARM GAS  C:\Users\z80\AppData\Local\Temp\ccYnvvge.s 			page 62


 3379              	.LASF6:
 3380 0021 6C6F6E67 		.ascii	"long long unsigned int\000"
 3380      206C6F6E 
 3380      6720756E 
 3380      7369676E 
 3380      65642069 
 3381              	.LASF78:
 3382 0038 42617365 		.ascii	"BaseChannelVMT\000"
 3382      4368616E 
 3382      6E656C56 
 3382      4D5400
 3383              	.LASF75:
 3384 0047 65786974 		.ascii	"exitcode\000"
 3384      636F6465 
 3384      00
 3385              	.LASF116:
 3386 0050 49544D5F 		.ascii	"ITM_RxBuffer\000"
 3386      52784275 
 3386      66666572 
 3386      00
 3387              	.LASF97:
 3388 005d 636D645F 		.ascii	"cmd_info\000"
 3388      696E666F 
 3388      00
 3389              	.LASF26:
 3390 0066 705F7072 		.ascii	"p_prio\000"
 3390      696F00
 3391              	.LASF84:
 3392 006d 72656164 		.ascii	"readt\000"
 3392      7400
 3393              	.LASF5:
 3394 0073 6C6F6E67 		.ascii	"long long int\000"
 3394      206C6F6E 
 3394      6720696E 
 3394      7400
 3395              	.LASF0:
 3396 0081 7369676E 		.ascii	"signed char\000"
 3396      65642063 
 3396      68617200 
 3397              	.LASF15:
 3398 008d 626F6F6C 		.ascii	"bool_t\000"
 3398      5F7400
 3399              	.LASF65:
 3400 0094 6D5F7175 		.ascii	"m_queue\000"
 3400      65756500 
 3401              	.LASF90:
 3402 009c 73635F63 		.ascii	"sc_channel\000"
 3402      68616E6E 
 3402      656C00
 3403              	.LASF120:
 3404 00a7 433A5C70 		.ascii	"C:\\projects\\digitizer.git\\firmware\\digitizer\000"
 3404      726F6A65 
 3404      6374735C 
 3404      64696769 
 3404      74697A65 
 3405              	.LASF7:
 3406 00d4 6C6F6E67 		.ascii	"long int\000"
ARM GAS  C:\Users\z80\AppData\Local\Temp\ccYnvvge.s 			page 63


 3406      20696E74 
 3406      00
 3407              	.LASF89:
 3408 00dd 5368656C 		.ascii	"ShellCommand\000"
 3408      6C436F6D 
 3408      6D616E64 
 3408      00
 3409              	.LASF17:
 3410 00ea 74737461 		.ascii	"tstate_t\000"
 3410      74655F74 
 3410      00
 3411              	.LASF34:
 3412 00f3 705F7469 		.ascii	"p_time\000"
 3412      6D6500
 3413              	.LASF106:
 3414 00fa 746F6B70 		.ascii	"tokp\000"
 3414      00
 3415              	.LASF28:
 3416 00ff 705F6E65 		.ascii	"p_newer\000"
 3416      77657200 
 3417              	.LASF81:
 3418 0107 70757477 		.ascii	"putwouldblock\000"
 3418      6F756C64 
 3418      626C6F63 
 3418      6B00
 3419              	.LASF107:
 3420 0115 6C696E65 		.ascii	"line\000"
 3420      00
 3421              	.LASF59:
 3422 011a 725F6E65 		.ascii	"r_newer\000"
 3422      77657200 
 3423              	.LASF43:
 3424 0122 72656761 		.ascii	"regarm_t\000"
 3424      726D5F74 
 3424      00
 3425              	.LASF50:
 3426 012b 76745F70 		.ascii	"vt_prev\000"
 3426      72657600 
 3427              	.LASF112:
 3428 0133 7368656C 		.ascii	"shellGetLine\000"
 3428      6C476574 
 3428      4C696E65 
 3428      00
 3429              	.LASF87:
 3430 0140 73635F6E 		.ascii	"sc_name\000"
 3430      616D6500 
 3431              	.LASF72:
 3432 0148 4576656E 		.ascii	"EventSource\000"
 3432      74536F75 
 3432      72636500 
 3433              	.LASF22:
 3434 0154 636E745F 		.ascii	"cnt_t\000"
 3434      7400
 3435              	.LASF31:
 3436 015a 705F7374 		.ascii	"p_stklimit\000"
 3436      6B6C696D 
 3436      697400
ARM GAS  C:\Users\z80\AppData\Local\Temp\ccYnvvge.s 			page 64


 3437              	.LASF4:
 3438 0165 756E7369 		.ascii	"unsigned int\000"
 3438      676E6564 
 3438      20696E74 
 3438      00
 3439              	.LASF49:
 3440 0172 76745F6E 		.ascii	"vt_next\000"
 3440      65787400 
 3441              	.LASF91:
 3442 017a 73635F63 		.ascii	"sc_commands\000"
 3442      6F6D6D61 
 3442      6E647300 
 3443              	.LASF36:
 3444 0186 705F6D73 		.ascii	"p_msgqueue\000"
 3444      67717565 
 3444      756500
 3445              	.LASF103:
 3446 0191 6E616D65 		.ascii	"name\000"
 3446      00
 3447              	.LASF48:
 3448 0196 56697274 		.ascii	"VirtualTimer\000"
 3448      75616C54 
 3448      696D6572 
 3448      00
 3449              	.LASF109:
 3450 01a3 73697A65 		.ascii	"size\000"
 3450      00
 3451              	.LASF3:
 3452 01a8 73686F72 		.ascii	"short unsigned int\000"
 3452      7420756E 
 3452      7369676E 
 3452      65642069 
 3452      6E7400
 3453              	.LASF19:
 3454 01bb 6D73675F 		.ascii	"msg_t\000"
 3454      7400
 3455              	.LASF69:
 3456 01c1 656C5F6E 		.ascii	"el_next\000"
 3456      65787400 
 3457              	.LASF83:
 3458 01c9 77726974 		.ascii	"writet\000"
 3458      657400
 3459              	.LASF119:
 3460 01d0 2E2E2F63 		.ascii	"../chibios_2.4.x/os/various/shell.c\000"
 3460      68696269 
 3460      6F735F32 
 3460      2E342E78 
 3460      2F6F732F 
 3461              	.LASF16:
 3462 01f4 746D6F64 		.ascii	"tmode_t\000"
 3462      655F7400 
 3463              	.LASF42:
 3464 01fc 54687265 		.ascii	"ThreadsList\000"
 3464      6164734C 
 3464      69737400 
 3465              	.LASF20:
 3466 0208 6576656E 		.ascii	"eventmask_t\000"
ARM GAS  C:\Users\z80\AppData\Local\Temp\ccYnvvge.s 			page 65


 3466      746D6173 
 3466      6B5F7400 
 3467              	.LASF44:
 3468 0214 73746B61 		.ascii	"stkalign_t\000"
 3468      6C69676E 
 3468      5F7400
 3469              	.LASF79:
 3470 021f 77726974 		.ascii	"write\000"
 3470      6500
 3471              	.LASF51:
 3472 0225 76745F74 		.ascii	"vt_time\000"
 3472      696D6500 
 3473              	.LASF35:
 3474 022d 705F7761 		.ascii	"p_waiting\000"
 3474      6974696E 
 3474      6700
 3475              	.LASF64:
 3476 0237 4D757465 		.ascii	"Mutex\000"
 3476      7800
 3477              	.LASF86:
 3478 023d 7368656C 		.ascii	"shellcmd_t\000"
 3478      6C636D64 
 3478      5F7400
 3479              	.LASF71:
 3480 0248 656C5F6D 		.ascii	"el_mask\000"
 3480      61736B00 
 3481              	.LASF29:
 3482 0250 705F6F6C 		.ascii	"p_older\000"
 3482      64657200 
 3483              	.LASF58:
 3484 0258 725F6374 		.ascii	"r_ctx\000"
 3484      7800
 3485              	.LASF111:
 3486 025e 7368656C 		.ascii	"shellCreateStatic\000"
 3486      6C437265 
 3486      61746553 
 3486      74617469 
 3486      6300
 3487              	.LASF41:
 3488 0270 54687265 		.ascii	"ThreadsQueue\000"
 3488      61647351 
 3488      75657565 
 3488      00
 3489              	.LASF113:
 3490 027d 6C6F6361 		.ascii	"local_commands\000"
 3490      6C5F636F 
 3490      6D6D616E 
 3490      647300
 3491              	.LASF110:
 3492 028c 7072696F 		.ascii	"prio\000"
 3492      00
 3493              	.LASF60:
 3494 0291 725F6F6C 		.ascii	"r_older\000"
 3494      64657200 
 3495              	.LASF105:
 3496 0299 746F6B65 		.ascii	"token\000"
 3496      6E00
ARM GAS  C:\Users\z80\AppData\Local\Temp\ccYnvvge.s 			page 66


 3497              	.LASF94:
 3498 029f 73617665 		.ascii	"saveptr\000"
 3498      70747200 
 3499              	.LASF25:
 3500 02a7 705F7072 		.ascii	"p_prev\000"
 3500      657600
 3501              	.LASF18:
 3502 02ae 74707269 		.ascii	"tprio_t\000"
 3502      6F5F7400 
 3503              	.LASF101:
 3504 02b6 5F737472 		.ascii	"_strtok\000"
 3504      746F6B00 
 3505              	.LASF12:
 3506 02be 696E7433 		.ascii	"int32_t\000"
 3506      325F7400 
 3507              	.LASF1:
 3508 02c6 756E7369 		.ascii	"unsigned char\000"
 3508      676E6564 
 3508      20636861 
 3508      7200
 3509              	.LASF70:
 3510 02d4 656C5F6C 		.ascii	"el_listener\000"
 3510      69737465 
 3510      6E657200 
 3511              	.LASF39:
 3512 02e0 705F6D74 		.ascii	"p_mtxlist\000"
 3512      786C6973 
 3512      7400
 3513              	.LASF2:
 3514 02ea 73686F72 		.ascii	"short int\000"
 3514      7420696E 
 3514      7400
 3515              	.LASF32:
 3516 02f4 705F7374 		.ascii	"p_state\000"
 3516      61746500 
 3517              	.LASF102:
 3518 02fc 636D6465 		.ascii	"cmdexec\000"
 3518      78656300 
 3519              	.LASF57:
 3520 0304 725F7072 		.ascii	"r_prio\000"
 3520      696F00
 3521              	.LASF77:
 3522 030b 65776D61 		.ascii	"ewmask\000"
 3522      736B00
 3523              	.LASF24:
 3524 0312 705F6E65 		.ascii	"p_next\000"
 3524      787400
 3525              	.LASF93:
 3526 0319 64656C69 		.ascii	"delim\000"
 3526      6D00
 3527              	.LASF33:
 3528 031f 705F666C 		.ascii	"p_flags\000"
 3528      61677300 
 3529              	.LASF23:
 3530 0327 54687265 		.ascii	"Thread\000"
 3530      616400
 3531              	.LASF38:
ARM GAS  C:\Users\z80\AppData\Local\Temp\ccYnvvge.s 			page 67


 3532 032e 705F6570 		.ascii	"p_epending\000"
 3532      656E6469 
 3532      6E6700
 3533              	.LASF13:
 3534 0339 75696E74 		.ascii	"uint32_t\000"
 3534      33325F74 
 3534      00
 3535              	.LASF56:
 3536 0342 725F7175 		.ascii	"r_queue\000"
 3536      65756500 
 3537              	.LASF54:
 3538 034a 76745F73 		.ascii	"vt_systime\000"
 3538      79737469 
 3538      6D6500
 3539              	.LASF118:
 3540 0355 474E5520 		.ascii	"GNU C 4.6.3\000"
 3540      4320342E 
 3540      362E3300 
 3541              	.LASF8:
 3542 0361 6C6F6E67 		.ascii	"long unsigned int\000"
 3542      20756E73 
 3542      69676E65 
 3542      6420696E 
 3542      7400
 3543              	.LASF62:
 3544 0373 725F6375 		.ascii	"r_current\000"
 3544      7272656E 
 3544      7400
 3545              	.LASF80:
 3546 037d 72656164 		.ascii	"read\000"
 3546      00
 3547              	.LASF9:
 3548 0382 63686172 		.ascii	"char\000"
 3548      00
 3549              	.LASF117:
 3550 0387 7368656C 		.ascii	"shell_terminated\000"
 3550      6C5F7465 
 3550      726D696E 
 3550      61746564 
 3550      00
 3551              	.LASF121:
 3552 0398 7368656C 		.ascii	"shellInit\000"
 3552      6C496E69 
 3552      7400
 3553              	.LASF67:
 3554 03a2 6D5F6E65 		.ascii	"m_next\000"
 3554      787400
 3555              	.LASF21:
 3556 03a9 73797374 		.ascii	"systime_t\000"
 3556      696D655F 
 3556      7400
 3557              	.LASF40:
 3558 03b3 705F7265 		.ascii	"p_realprio\000"
 3558      616C7072 
 3558      696F00
 3559              	.LASF47:
 3560 03be 76746675 		.ascii	"vtfunc_t\000"
ARM GAS  C:\Users\z80\AppData\Local\Temp\ccYnvvge.s 			page 68


 3560      6E635F74 
 3560      00
 3561              	.LASF92:
 3562 03c7 5368656C 		.ascii	"ShellConfig\000"
 3562      6C436F6E 
 3562      66696700 
 3563              	.LASF61:
 3564 03d3 725F7072 		.ascii	"r_preempt\000"
 3564      65656D70 
 3564      7400
 3565              	.LASF30:
 3566 03dd 705F6E61 		.ascii	"p_name\000"
 3566      6D6500
 3567              	.LASF46:
 3568 03e4 636F6E74 		.ascii	"context\000"
 3568      65787400 
 3569              	.LASF37:
 3570 03ec 705F6D73 		.ascii	"p_msg\000"
 3570      6700
 3571              	.LASF100:
 3572 03f2 636D645F 		.ascii	"cmd_systime\000"
 3572      73797374 
 3572      696D6500 
 3573              	.LASF45:
 3574 03fe 696E7463 		.ascii	"intctx\000"
 3574      747800
 3575              	.LASF95:
 3576 0405 75736167 		.ascii	"usage\000"
 3576      6500
 3577              	.LASF53:
 3578 040b 76745F70 		.ascii	"vt_par\000"
 3578      617200
 3579              	.LASF74:
 3580 0412 7264796D 		.ascii	"rdymsg\000"
 3580      736700
 3581              	.LASF73:
 3582 0419 65735F6E 		.ascii	"es_next\000"
 3582      65787400 
 3583              	.LASF104:
 3584 0421 7368656C 		.ascii	"shell_thread\000"
 3584      6C5F7468 
 3584      72656164 
 3584      00
 3585              	.LASF115:
 3586 042e 726C6973 		.ascii	"rlist\000"
 3586      7400
 3587              	.LASF11:
 3588 0434 75696E74 		.ascii	"uint8_t\000"
 3588      385F7400 
 3589              	.LASF85:
 3590 043c 42617365 		.ascii	"BaseChannel\000"
 3590      4368616E 
 3590      6E656C00 
 3591              	.LASF88:
 3592 0448 73635F66 		.ascii	"sc_function\000"
 3592      756E6374 
 3592      696F6E00 
ARM GAS  C:\Users\z80\AppData\Local\Temp\ccYnvvge.s 			page 69


 3593              	.LASF68:
 3594 0454 4576656E 		.ascii	"EventListener\000"
 3594      744C6973 
 3594      74656E65 
 3594      7200
 3595              	.LASF76:
 3596 0462 77746F62 		.ascii	"wtobjp\000"
 3596      6A7000
 3597              	.LASF98:
 3598 0469 61726763 		.ascii	"argc\000"
 3598      00
 3599              	.LASF96:
 3600 046e 6C697374 		.ascii	"list_commands\000"
 3600      5F636F6D 
 3600      6D616E64 
 3600      7300
 3601              	.LASF82:
 3602 047c 67657477 		.ascii	"getwouldblock\000"
 3602      6F756C64 
 3602      626C6F63 
 3602      6B00
 3603              	.LASF55:
 3604 048a 56544C69 		.ascii	"VTList\000"
 3604      737400
 3605              	.LASF108:
 3606 0491 61726773 		.ascii	"args\000"
 3606      00
 3607              	.LASF99:
 3608 0496 61726776 		.ascii	"argv\000"
 3608      00
 3609              	.LASF66:
 3610 049b 6D5F6F77 		.ascii	"m_owner\000"
 3610      6E657200 
 3611              	.LASF27:
 3612 04a3 705F6374 		.ascii	"p_ctx\000"
 3612      7800
 3613              	.LASF52:
 3614 04a9 76745F66 		.ascii	"vt_func\000"
 3614      756E6300 
 3615              		.ident	"GCC: (Sourcery CodeBench Lite 2012.03-56) 4.6.3"
ARM GAS  C:\Users\z80\AppData\Local\Temp\ccYnvvge.s 			page 70


DEFINED SYMBOLS
                            *ABS*:00000000 shell.c
C:\Users\z80\AppData\Local\Temp\ccYnvvge.s:23     .bss.shell_terminated:00000000 shell_terminated
C:\Users\z80\AppData\Local\Temp\ccYnvvge.s:20     .bss.shell_terminated:00000000 $d
C:\Users\z80\AppData\Local\Temp\ccYnvvge.s:26     .text._strtok:00000000 $t
C:\Users\z80\AppData\Local\Temp\ccYnvvge.s:31     .text._strtok:00000000 _strtok
C:\Users\z80\AppData\Local\Temp\ccYnvvge.s:119    .rodata:00000000 $d
C:\Users\z80\AppData\Local\Temp\ccYnvvge.s:120    .rodata:00000000 .LC0
C:\Users\z80\AppData\Local\Temp\ccYnvvge.s:123    .text.usage:00000000 $t
C:\Users\z80\AppData\Local\Temp\ccYnvvge.s:128    .text.usage:00000000 usage
C:\Users\z80\AppData\Local\Temp\ccYnvvge.s:157    .rodata:0000000c .LC1
C:\Users\z80\AppData\Local\Temp\ccYnvvge.s:160    .text.list_commands:00000000 $t
C:\Users\z80\AppData\Local\Temp\ccYnvvge.s:165    .text.list_commands:00000000 list_commands
C:\Users\z80\AppData\Local\Temp\ccYnvvge.s:209    .rodata:00000010 .LC2
C:\Users\z80\AppData\Local\Temp\ccYnvvge.s:212    .rodata:00000018 .LC3
C:\Users\z80\AppData\Local\Temp\ccYnvvge.s:215    .rodata:0000002c .LC4
C:\Users\z80\AppData\Local\Temp\ccYnvvge.s:218    .rodata:00000034 .LC5
C:\Users\z80\AppData\Local\Temp\ccYnvvge.s:221    .rodata:00000048 .LC6
C:\Users\z80\AppData\Local\Temp\ccYnvvge.s:224    .rodata:00000054 .LC7
C:\Users\z80\AppData\Local\Temp\ccYnvvge.s:227    .rodata:00000068 .LC8
C:\Users\z80\AppData\Local\Temp\ccYnvvge.s:230    .rodata:00000070 .LC9
C:\Users\z80\AppData\Local\Temp\ccYnvvge.s:233    .rodata:00000084 .LC10
C:\Users\z80\AppData\Local\Temp\ccYnvvge.s:236    .rodata:00000090 .LC11
C:\Users\z80\AppData\Local\Temp\ccYnvvge.s:239    .rodata:000000a4 .LC12
C:\Users\z80\AppData\Local\Temp\ccYnvvge.s:242    .rodata:000000bc .LC13
C:\Users\z80\AppData\Local\Temp\ccYnvvge.s:245    .rodata:000000d0 .LC14
C:\Users\z80\AppData\Local\Temp\ccYnvvge.s:248    .rodata:000000f8 .LC15
C:\Users\z80\AppData\Local\Temp\ccYnvvge.s:251    .rodata:0000010c .LC16
C:\Users\z80\AppData\Local\Temp\ccYnvvge.s:254    .rodata:0000011c .LC17
C:\Users\z80\AppData\Local\Temp\ccYnvvge.s:257    .rodata:00000134 .LC18
C:\Users\z80\AppData\Local\Temp\ccYnvvge.s:260    .rodata:00000140 .LC19
C:\Users\z80\AppData\Local\Temp\ccYnvvge.s:263    .rodata:00000144 .LC20
C:\Users\z80\AppData\Local\Temp\ccYnvvge.s:266    .text.cmd_info:00000000 $t
C:\Users\z80\AppData\Local\Temp\ccYnvvge.s:271    .text.cmd_info:00000000 cmd_info
C:\Users\z80\AppData\Local\Temp\ccYnvvge.s:369    .rodata:00000150 .LC21
C:\Users\z80\AppData\Local\Temp\ccYnvvge.s:372    .rodata:00000158 .LC22
C:\Users\z80\AppData\Local\Temp\ccYnvvge.s:375    .text.cmd_systime:00000000 $t
C:\Users\z80\AppData\Local\Temp\ccYnvvge.s:380    .text.cmd_systime:00000000 cmd_systime
C:\Users\z80\AppData\Local\Temp\ccYnvvge.s:425    .data.local_commands:00000000 $d
C:\Users\z80\AppData\Local\Temp\ccYnvvge.s:428    .data.local_commands:00000000 local_commands
C:\Users\z80\AppData\Local\Temp\ccYnvvge.s:436    .text.cmdexec:00000000 $t
C:\Users\z80\AppData\Local\Temp\ccYnvvge.s:441    .text.cmdexec:00000000 cmdexec
C:\Users\z80\AppData\Local\Temp\ccYnvvge.s:503    .rodata:00000160 .LC23
C:\Users\z80\AppData\Local\Temp\ccYnvvge.s:506    .rodata:00000168 .LC24
C:\Users\z80\AppData\Local\Temp\ccYnvvge.s:509    .rodata:00000180 .LC25
C:\Users\z80\AppData\Local\Temp\ccYnvvge.s:512    .rodata:00000188 .LC26
C:\Users\z80\AppData\Local\Temp\ccYnvvge.s:515    .rodata:00000194 .LC27
C:\Users\z80\AppData\Local\Temp\ccYnvvge.s:518    .rodata:00000198 .LC28
C:\Users\z80\AppData\Local\Temp\ccYnvvge.s:521    .rodata:000001b0 .LC29
C:\Users\z80\AppData\Local\Temp\ccYnvvge.s:524    .rodata:000001b8 .LC30
C:\Users\z80\AppData\Local\Temp\ccYnvvge.s:527    .rodata:000001c0 .LC31
C:\Users\z80\AppData\Local\Temp\ccYnvvge.s:530    .rodata:000001d8 .LC32
C:\Users\z80\AppData\Local\Temp\ccYnvvge.s:533    .rodata:000001dc .LC33
C:\Users\z80\AppData\Local\Temp\ccYnvvge.s:536    .rodata:000001e0 .LC34
C:\Users\z80\AppData\Local\Temp\ccYnvvge.s:539    .text.shell_thread:00000000 $t
C:\Users\z80\AppData\Local\Temp\ccYnvvge.s:544    .text.shell_thread:00000000 shell_thread
C:\Users\z80\AppData\Local\Temp\ccYnvvge.s:892    .text.shellGetLine:00000000 shellGetLine
ARM GAS  C:\Users\z80\AppData\Local\Temp\ccYnvvge.s 			page 71


C:\Users\z80\AppData\Local\Temp\ccYnvvge.s:816    .text.shellInit:00000000 $t
C:\Users\z80\AppData\Local\Temp\ccYnvvge.s:822    .text.shellInit:00000000 shellInit
C:\Users\z80\AppData\Local\Temp\ccYnvvge.s:841    .text.shellCreateStatic:00000000 $t
C:\Users\z80\AppData\Local\Temp\ccYnvvge.s:847    .text.shellCreateStatic:00000000 shellCreateStatic
C:\Users\z80\AppData\Local\Temp\ccYnvvge.s:883    .rodata:000001e8 .LC35
C:\Users\z80\AppData\Local\Temp\ccYnvvge.s:886    .text.shellGetLine:00000000 $t
                     .debug_frame:00000010 $d

UNDEFINED SYMBOLS
strspn
strpbrk
chprintf
vtlist
strcasecmp
rlist
dbg_check_lock
chEvtBroadcastFlagsI
chThdExitS
chThdCreateStatic
