ARM GAS  C:\Users\z80\AppData\Local\Temp\ccYnvvge.s 			page 1


   1              		.syntax unified
   2              		.cpu cortex-m3
   3              		.fpu softvfp
   4              		.eabi_attribute 20, 1
   5              		.eabi_attribute 21, 1
   6              		.eabi_attribute 23, 3
   7              		.eabi_attribute 24, 1
   8              		.eabi_attribute 25, 1
   9              		.eabi_attribute 26, 1
  10              		.eabi_attribute 30, 6
  11              		.eabi_attribute 34, 1
  12              		.eabi_attribute 18, 4
  13              		.thumb
  14              		.file	"shell.c"
  15              		.text
  16              	.Ltext0:
  17              		.cfi_sections	.debug_frame
  18              		.global	shell_terminated
  19              		.section	.bss.shell_terminated,"aw",%nobits
  20              		.align	2
  21              		.type	shell_terminated, %object
  22              		.size	shell_terminated, 4
  23              	shell_terminated:
  24 0000 00000000 		.space	4
  25              		.section	.text._strtok,"ax",%progbits
  26              		.align	2
  27              		.p2align 4,,15
  28              		.thumb
  29              		.thumb_func
  30              		.type	_strtok, %function
  31              	_strtok:
  32              	.LFB62:
  33              		.file 1 "../chibios_2.4.x/os/various/shell.c"
  34              		.loc 1 48 0
  35              		.cfi_startproc
  36              		@ args = 0, pretend = 0, frame = 24
  37              		@ frame_needed = 0, uses_anonymous_args = 0
  38 0000 00B5     		push	{lr}
  39              	.LCFI0:
  40              		.cfi_def_cfa_offset 4
  41              		.cfi_offset 14, -4
  42 0002 87B0     		sub	sp, sp, #28
  43              	.LCFI1:
  44              		.cfi_def_cfa_offset 32
  45 0004 0390     		str	r0, [sp, #12]
  46 0006 0291     		str	r1, [sp, #8]
  47 0008 0192     		str	r2, [sp, #4]
  48              		.loc 1 50 0
  49 000a 039B     		ldr	r3, [sp, #12]
  50 000c 002B     		cmp	r3, #0
  51 000e 02D0     		beq	.L2
  52              		.loc 1 51 0
  53 0010 019B     		ldr	r3, [sp, #4]
  54 0012 039A     		ldr	r2, [sp, #12]
  55 0014 1A60     		str	r2, [r3, #0]
  56              	.L2:
  57              		.loc 1 52 0
ARM GAS  C:\Users\z80\AppData\Local\Temp\ccYnvvge.s 			page 2


  58 0016 019B     		ldr	r3, [sp, #4]
  59 0018 1B68     		ldr	r3, [r3, #0]
  60 001a 0593     		str	r3, [sp, #20]
  61              		.loc 1 54 0
  62 001c 059B     		ldr	r3, [sp, #20]
  63 001e 002B     		cmp	r3, #0
  64 0020 02D1     		bne	.L3
  65              		.loc 1 55 0
  66 0022 4FF00003 		mov	r3, #0
  67 0026 23E0     		b	.L4
  68              	.L3:
  69              		.loc 1 57 0
  70 0028 0598     		ldr	r0, [sp, #20]
  71 002a 0299     		ldr	r1, [sp, #8]
  72 002c FFF7FEFF 		bl	strspn
  73 0030 0346     		mov	r3, r0
  74 0032 059A     		ldr	r2, [sp, #20]
  75 0034 D318     		adds	r3, r2, r3
  76 0036 0593     		str	r3, [sp, #20]
  77              		.loc 1 58 0
  78 0038 0598     		ldr	r0, [sp, #20]
  79 003a 0299     		ldr	r1, [sp, #8]
  80 003c FFF7FEFF 		bl	strpbrk
  81 0040 0246     		mov	r2, r0
  82 0042 019B     		ldr	r3, [sp, #4]
  83 0044 1A60     		str	r2, [r3, #0]
  84              		.loc 1 59 0
  85 0046 019B     		ldr	r3, [sp, #4]
  86 0048 1B68     		ldr	r3, [r3, #0]
  87 004a 002B     		cmp	r3, #0
  88 004c 08D0     		beq	.L5
  89              		.loc 1 60 0
  90 004e 019B     		ldr	r3, [sp, #4]
  91 0050 1B68     		ldr	r3, [r3, #0]
  92 0052 4FF00002 		mov	r2, #0
  93 0056 1A70     		strb	r2, [r3, #0]
  94 0058 03F10102 		add	r2, r3, #1
  95 005c 019B     		ldr	r3, [sp, #4]
  96 005e 1A60     		str	r2, [r3, #0]
  97              	.L5:
  98              		.loc 1 62 0
  99 0060 059B     		ldr	r3, [sp, #20]
 100 0062 1B78     		ldrb	r3, [r3, #0]	@ zero_extendqisi2
 101 0064 002B     		cmp	r3, #0
 102 0066 01D0     		beq	.L6
 103              		.loc 1 62 0 is_stmt 0 discriminator 1
 104 0068 059B     		ldr	r3, [sp, #20]
 105 006a 01E0     		b	.L7
 106              	.L6:
 107              		.loc 1 62 0 discriminator 2
 108 006c 4FF00003 		mov	r3, #0
 109              	.L7:
 110              	.L4:
 111              		.loc 1 63 0 is_stmt 1
 112 0070 1846     		mov	r0, r3
 113 0072 07B0     		add	sp, sp, #28
 114 0074 00BD     		pop	{pc}
ARM GAS  C:\Users\z80\AppData\Local\Temp\ccYnvvge.s 			page 3


 115              		.cfi_endproc
 116              	.LFE62:
 117              		.size	_strtok, .-_strtok
 118 0076 00BFAFF3 		.section	.rodata
 118      0080AFF3 
 118      0080
 119              		.align	2
 120              	.LC0:
 121 0000 55736167 		.ascii	"Usage: %s\015\012\000"
 121      653A2025 
 121      730D0A00 
 122              		.section	.text.usage,"ax",%progbits
 123              		.align	2
 124              		.p2align 4,,15
 125              		.thumb
 126              		.thumb_func
 127              		.type	usage, %function
 128              	usage:
 129              	.LFB63:
 130              		.loc 1 65 0
 131              		.cfi_startproc
 132              		@ args = 0, pretend = 0, frame = 8
 133              		@ frame_needed = 0, uses_anonymous_args = 0
 134 0000 00B5     		push	{lr}
 135              	.LCFI2:
 136              		.cfi_def_cfa_offset 4
 137              		.cfi_offset 14, -4
 138 0002 83B0     		sub	sp, sp, #12
 139              	.LCFI3:
 140              		.cfi_def_cfa_offset 16
 141 0004 0190     		str	r0, [sp, #4]
 142 0006 0091     		str	r1, [sp, #0]
 143              		.loc 1 67 0
 144 0008 0198     		ldr	r0, [sp, #4]
 145 000a 40F20001 		movw	r1, #:lower16:.LC0
 146 000e C0F20001 		movt	r1, #:upper16:.LC0
 147 0012 009A     		ldr	r2, [sp, #0]
 148 0014 FFF7FEFF 		bl	chprintf
 149              		.loc 1 68 0
 150 0018 03B0     		add	sp, sp, #12
 151 001a 00BD     		pop	{pc}
 152              		.cfi_endproc
 153              	.LFE63:
 154              		.size	usage, .-usage
 155 001c AFF30080 		.section	.rodata
 156              		.align	2
 157              	.LC1:
 158 000c 25732000 		.ascii	"%s \000"
 159              		.section	.text.list_commands,"ax",%progbits
 160              		.align	2
 161              		.p2align 4,,15
 162              		.thumb
 163              		.thumb_func
 164              		.type	list_commands, %function
 165              	list_commands:
 166              	.LFB64:
 167              		.loc 1 70 0
ARM GAS  C:\Users\z80\AppData\Local\Temp\ccYnvvge.s 			page 4


 168              		.cfi_startproc
 169              		@ args = 0, pretend = 0, frame = 8
 170              		@ frame_needed = 0, uses_anonymous_args = 0
 171 0000 00B5     		push	{lr}
 172              	.LCFI4:
 173              		.cfi_def_cfa_offset 4
 174              		.cfi_offset 14, -4
 175 0002 83B0     		sub	sp, sp, #12
 176              	.LCFI5:
 177              		.cfi_def_cfa_offset 16
 178 0004 0190     		str	r0, [sp, #4]
 179 0006 0091     		str	r1, [sp, #0]
 180              		.loc 1 72 0
 181 0008 0DE0     		b	.L10
 182              	.L11:
 183              		.loc 1 73 0
 184 000a 009B     		ldr	r3, [sp, #0]
 185 000c 1B68     		ldr	r3, [r3, #0]
 186 000e 0198     		ldr	r0, [sp, #4]
 187 0010 40F20001 		movw	r1, #:lower16:.LC1
 188 0014 C0F20001 		movt	r1, #:upper16:.LC1
 189 0018 1A46     		mov	r2, r3
 190 001a FFF7FEFF 		bl	chprintf
 191              		.loc 1 74 0
 192 001e 009B     		ldr	r3, [sp, #0]
 193 0020 03F10803 		add	r3, r3, #8
 194 0024 0093     		str	r3, [sp, #0]
 195              	.L10:
 196              		.loc 1 72 0 discriminator 1
 197 0026 009B     		ldr	r3, [sp, #0]
 198 0028 1B68     		ldr	r3, [r3, #0]
 199 002a 002B     		cmp	r3, #0
 200 002c EDD1     		bne	.L11
 201              		.loc 1 76 0
 202 002e 03B0     		add	sp, sp, #12
 203 0030 00BD     		pop	{pc}
 204              		.cfi_endproc
 205              	.LFE64:
 206              		.size	list_commands, .-list_commands
 207 0032 00BFAFF3 		.section	.rodata
 207      0080AFF3 
 207      0080AFF3 
 207      0080
 208              		.align	2
 209              	.LC2:
 210 0010 696E666F 		.ascii	"info\000"
 210      00
 211 0015 000000   		.align	2
 212              	.LC3:
 213 0018 4B65726E 		.ascii	"Kernel:       %s\015\012\000"
 213      656C3A20 
 213      20202020 
 213      20202573 
 213      0D0A00
 214 002b 00       		.align	2
 215              	.LC4:
 216 002c 322E342E 		.ascii	"2.4.3\000"
ARM GAS  C:\Users\z80\AppData\Local\Temp\ccYnvvge.s 			page 5


 216      3300
 217 0032 0000     		.align	2
 218              	.LC5:
 219 0034 436F6D70 		.ascii	"Compiler:     %s\015\012\000"
 219      696C6572 
 219      3A202020 
 219      20202573 
 219      0D0A00
 220 0047 00       		.align	2
 221              	.LC6:
 222 0048 47434320 		.ascii	"GCC 4.6.3\000"
 222      342E362E 
 222      3300
 223 0052 0000     		.align	2
 224              	.LC7:
 225 0054 41726368 		.ascii	"Architecture: %s\015\012\000"
 225      69746563 
 225      74757265 
 225      3A202573 
 225      0D0A00
 226 0067 00       		.align	2
 227              	.LC8:
 228 0068 41524D76 		.ascii	"ARMv7-M\000"
 228      372D4D00 
 229              		.align	2
 230              	.LC9:
 231 0070 436F7265 		.ascii	"Core Variant: %s\015\012\000"
 231      20566172 
 231      69616E74 
 231      3A202573 
 231      0D0A00
 232 0083 00       		.align	2
 233              	.LC10:
 234 0084 436F7274 		.ascii	"Cortex-M3\000"
 234      65782D4D 
 234      3300
 235 008e 0000     		.align	2
 236              	.LC11:
 237 0090 506F7274 		.ascii	"Port Info:    %s\015\012\000"
 237      20496E66 
 237      6F3A2020 
 237      20202573 
 237      0D0A00
 238 00a3 00       		.align	2
 239              	.LC12:
 240 00a4 41647661 		.ascii	"Advanced kernel mode\000"
 240      6E636564 
 240      206B6572 
 240      6E656C20 
 240      6D6F6465 
 241 00b9 000000   		.align	2
 242              	.LC13:
 243 00bc 506C6174 		.ascii	"Platform:     %s\015\012\000"
 243      666F726D 
 243      3A202020 
 243      20202573 
 243      0D0A00
ARM GAS  C:\Users\z80\AppData\Local\Temp\ccYnvvge.s 			page 6


 244 00cf 00       		.align	2
 245              	.LC14:
 246 00d0 53544D33 		.ascii	"STM32F1 Performance Line Medium Density\000"
 246      32463120 
 246      50657266 
 246      6F726D61 
 246      6E636520 
 247              		.align	2
 248              	.LC15:
 249 00f8 426F6172 		.ascii	"Board:        %s\015\012\000"
 249      643A2020 
 249      20202020 
 249      20202573 
 249      0D0A00
 250 010b 00       		.align	2
 251              	.LC16:
 252 010c 6D792063 		.ascii	"my ctrl-board\000"
 252      74726C2D 
 252      626F6172 
 252      6400
 253 011a 0000     		.align	2
 254              	.LC17:
 255 011c 4275696C 		.ascii	"Build time:   %s%s%s\015\012\000"
 255      64207469 
 255      6D653A20 
 255      20202573 
 255      25732573 
 256 0133 00       		.align	2
 257              	.LC18:
 258 0134 41756720 		.ascii	"Aug 19 2015\000"
 258      31392032 
 258      30313500 
 259              		.align	2
 260              	.LC19:
 261 0140 202D2000 		.ascii	" - \000"
 262              		.align	2
 263              	.LC20:
 264 0144 30393A34 		.ascii	"09:40:25\000"
 264      303A3235 
 264      00
 265              		.section	.text.cmd_info,"ax",%progbits
 266              		.align	2
 267              		.p2align 4,,15
 268              		.thumb
 269              		.thumb_func
 270              		.type	cmd_info, %function
 271              	cmd_info:
 272              	.LFB65:
 273              		.loc 1 78 0
 274              		.cfi_startproc
 275              		@ args = 0, pretend = 0, frame = 16
 276              		@ frame_needed = 0, uses_anonymous_args = 0
 277 0000 00B5     		push	{lr}
 278              	.LCFI6:
 279              		.cfi_def_cfa_offset 4
 280              		.cfi_offset 14, -4
 281 0002 87B0     		sub	sp, sp, #28
ARM GAS  C:\Users\z80\AppData\Local\Temp\ccYnvvge.s 			page 7


 282              	.LCFI7:
 283              		.cfi_def_cfa_offset 32
 284 0004 0590     		str	r0, [sp, #20]
 285 0006 0491     		str	r1, [sp, #16]
 286 0008 0392     		str	r2, [sp, #12]
 287              		.loc 1 81 0
 288 000a 049B     		ldr	r3, [sp, #16]
 289 000c 002B     		cmp	r3, #0
 290 000e 07DD     		ble	.L13
 291              		.loc 1 82 0
 292 0010 0598     		ldr	r0, [sp, #20]
 293 0012 40F20001 		movw	r1, #:lower16:.LC2
 294 0016 C0F20001 		movt	r1, #:upper16:.LC2
 295 001a FFF7FEFF 		bl	usage
 296              		.loc 1 83 0
 297 001e 60E0     		b	.L12
 298              	.L13:
 299              		.loc 1 86 0
 300 0020 0598     		ldr	r0, [sp, #20]
 301 0022 40F20001 		movw	r1, #:lower16:.LC3
 302 0026 C0F20001 		movt	r1, #:upper16:.LC3
 303 002a 40F20002 		movw	r2, #:lower16:.LC4
 304 002e C0F20002 		movt	r2, #:upper16:.LC4
 305 0032 FFF7FEFF 		bl	chprintf
 306              		.loc 1 88 0
 307 0036 0598     		ldr	r0, [sp, #20]
 308 0038 40F20001 		movw	r1, #:lower16:.LC5
 309 003c C0F20001 		movt	r1, #:upper16:.LC5
 310 0040 40F20002 		movw	r2, #:lower16:.LC6
 311 0044 C0F20002 		movt	r2, #:upper16:.LC6
 312 0048 FFF7FEFF 		bl	chprintf
 313              		.loc 1 90 0
 314 004c 0598     		ldr	r0, [sp, #20]
 315 004e 40F20001 		movw	r1, #:lower16:.LC7
 316 0052 C0F20001 		movt	r1, #:upper16:.LC7
 317 0056 40F20002 		movw	r2, #:lower16:.LC8
 318 005a C0F20002 		movt	r2, #:upper16:.LC8
 319 005e FFF7FEFF 		bl	chprintf
 320              		.loc 1 92 0
 321 0062 0598     		ldr	r0, [sp, #20]
 322 0064 40F20001 		movw	r1, #:lower16:.LC9
 323 0068 C0F20001 		movt	r1, #:upper16:.LC9
 324 006c 40F20002 		movw	r2, #:lower16:.LC10
 325 0070 C0F20002 		movt	r2, #:upper16:.LC10
 326 0074 FFF7FEFF 		bl	chprintf
 327              		.loc 1 95 0
 328 0078 0598     		ldr	r0, [sp, #20]
 329 007a 40F20001 		movw	r1, #:lower16:.LC11
 330 007e C0F20001 		movt	r1, #:upper16:.LC11
 331 0082 40F20002 		movw	r2, #:lower16:.LC12
 332 0086 C0F20002 		movt	r2, #:upper16:.LC12
 333 008a FFF7FEFF 		bl	chprintf
 334              		.loc 1 98 0
 335 008e 0598     		ldr	r0, [sp, #20]
 336 0090 40F20001 		movw	r1, #:lower16:.LC13
 337 0094 C0F20001 		movt	r1, #:upper16:.LC13
 338 0098 40F20002 		movw	r2, #:lower16:.LC14
ARM GAS  C:\Users\z80\AppData\Local\Temp\ccYnvvge.s 			page 8


 339 009c C0F20002 		movt	r2, #:upper16:.LC14
 340 00a0 FFF7FEFF 		bl	chprintf
 341              		.loc 1 101 0
 342 00a4 0598     		ldr	r0, [sp, #20]
 343 00a6 40F20001 		movw	r1, #:lower16:.LC15
 344 00aa C0F20001 		movt	r1, #:upper16:.LC15
 345 00ae 40F20002 		movw	r2, #:lower16:.LC16
 346 00b2 C0F20002 		movt	r2, #:upper16:.LC16
 347 00b6 FFF7FEFF 		bl	chprintf
 348              		.loc 1 105 0
 349 00ba 40F20003 		movw	r3, #:lower16:.LC20
 350 00be C0F20003 		movt	r3, #:upper16:.LC20
 351 00c2 0093     		str	r3, [sp, #0]
 352 00c4 0598     		ldr	r0, [sp, #20]
 353 00c6 40F20001 		movw	r1, #:lower16:.LC17
 354 00ca C0F20001 		movt	r1, #:upper16:.LC17
 355 00ce 40F20002 		movw	r2, #:lower16:.LC18
 356 00d2 C0F20002 		movt	r2, #:upper16:.LC18
 357 00d6 40F20003 		movw	r3, #:lower16:.LC19
 358 00da C0F20003 		movt	r3, #:upper16:.LC19
 359 00de FFF7FEFF 		bl	chprintf
 360              	.L12:
 361              		.loc 1 108 0
 362 00e2 07B0     		add	sp, sp, #28
 363 00e4 00BD     		pop	{pc}
 364              		.cfi_endproc
 365              	.LFE65:
 366              		.size	cmd_info, .-cmd_info
 367 00e6 00BFAFF3 		.section	.rodata
 367      0080AFF3 
 367      0080
 368 014d 000000   		.align	2
 369              	.LC21:
 370 0150 73797374 		.ascii	"systime\000"
 370      696D6500 
 371              		.align	2
 372              	.LC22:
 373 0158 256C750D 		.ascii	"%lu\015\012\000"
 373      0A00
 374              		.section	.text.cmd_systime,"ax",%progbits
 375              		.align	2
 376              		.p2align 4,,15
 377              		.thumb
 378              		.thumb_func
 379              		.type	cmd_systime, %function
 380              	cmd_systime:
 381              	.LFB66:
 382              		.loc 1 110 0
 383              		.cfi_startproc
 384              		@ args = 0, pretend = 0, frame = 16
 385              		@ frame_needed = 0, uses_anonymous_args = 0
 386 0000 00B5     		push	{lr}
 387              	.LCFI8:
 388              		.cfi_def_cfa_offset 4
 389              		.cfi_offset 14, -4
 390 0002 85B0     		sub	sp, sp, #20
 391              	.LCFI9:
ARM GAS  C:\Users\z80\AppData\Local\Temp\ccYnvvge.s 			page 9


 392              		.cfi_def_cfa_offset 24
 393 0004 0390     		str	r0, [sp, #12]
 394 0006 0291     		str	r1, [sp, #8]
 395 0008 0192     		str	r2, [sp, #4]
 396              		.loc 1 113 0
 397 000a 029B     		ldr	r3, [sp, #8]
 398 000c 002B     		cmp	r3, #0
 399 000e 07DD     		ble	.L16
 400              		.loc 1 114 0
 401 0010 0398     		ldr	r0, [sp, #12]
 402 0012 40F20001 		movw	r1, #:lower16:.LC21
 403 0016 C0F20001 		movt	r1, #:upper16:.LC21
 404 001a FFF7FEFF 		bl	usage
 405              		.loc 1 115 0
 406 001e 0CE0     		b	.L15
 407              	.L16:
 408              		.loc 1 117 0
 409 0020 40F20003 		movw	r3, #:lower16:vtlist
 410 0024 C0F20003 		movt	r3, #:upper16:vtlist
 411 0028 DB68     		ldr	r3, [r3, #12]
 412 002a 0398     		ldr	r0, [sp, #12]
 413 002c 40F20001 		movw	r1, #:lower16:.LC22
 414 0030 C0F20001 		movt	r1, #:upper16:.LC22
 415 0034 1A46     		mov	r2, r3
 416 0036 FFF7FEFF 		bl	chprintf
 417              	.L15:
 418              		.loc 1 118 0
 419 003a 05B0     		add	sp, sp, #20
 420 003c 00BD     		pop	{pc}
 421              		.cfi_endproc
 422              	.LFE66:
 423              		.size	cmd_systime, .-cmd_systime
 424 003e 00BF     		.section	.data.local_commands,"aw",%progbits
 425              		.align	2
 426              		.type	local_commands, %object
 427              		.size	local_commands, 24
 428              	local_commands:
 429 0000 10000000 		.word	.LC2
 430 0004 00000000 		.word	cmd_info
 431 0008 50010000 		.word	.LC21
 432 000c 00000000 		.word	cmd_systime
 433 0010 00000000 		.word	0
 434 0014 00000000 		.word	0
 435              		.section	.text.cmdexec,"ax",%progbits
 436              		.align	2
 437              		.p2align 4,,15
 438              		.thumb
 439              		.thumb_func
 440              		.type	cmdexec, %function
 441              	cmdexec:
 442              	.LFB67:
 443              		.loc 1 130 0
 444              		.cfi_startproc
 445              		@ args = 4, pretend = 0, frame = 16
 446              		@ frame_needed = 0, uses_anonymous_args = 0
 447 0000 00B5     		push	{lr}
 448              	.LCFI10:
ARM GAS  C:\Users\z80\AppData\Local\Temp\ccYnvvge.s 			page 10


 449              		.cfi_def_cfa_offset 4
 450              		.cfi_offset 14, -4
 451 0002 85B0     		sub	sp, sp, #20
 452              	.LCFI11:
 453              		.cfi_def_cfa_offset 24
 454 0004 0390     		str	r0, [sp, #12]
 455 0006 0291     		str	r1, [sp, #8]
 456 0008 0192     		str	r2, [sp, #4]
 457 000a 0093     		str	r3, [sp, #0]
 458              		.loc 1 132 0
 459 000c 15E0     		b	.L19
 460              	.L22:
 461              		.loc 1 133 0
 462 000e 039B     		ldr	r3, [sp, #12]
 463 0010 1B68     		ldr	r3, [r3, #0]
 464 0012 1846     		mov	r0, r3
 465 0014 0199     		ldr	r1, [sp, #4]
 466 0016 FFF7FEFF 		bl	strcasecmp
 467 001a 0346     		mov	r3, r0
 468 001c 002B     		cmp	r3, #0
 469 001e 08D1     		bne	.L20
 470              		.loc 1 134 0
 471 0020 039B     		ldr	r3, [sp, #12]
 472 0022 5B68     		ldr	r3, [r3, #4]
 473 0024 0298     		ldr	r0, [sp, #8]
 474 0026 0099     		ldr	r1, [sp, #0]
 475 0028 069A     		ldr	r2, [sp, #24]
 476 002a 9847     		blx	r3
 477              		.loc 1 135 0
 478 002c 4FF00003 		mov	r3, #0
 479 0030 09E0     		b	.L21
 480              	.L20:
 481              		.loc 1 137 0
 482 0032 039B     		ldr	r3, [sp, #12]
 483 0034 03F10803 		add	r3, r3, #8
 484 0038 0393     		str	r3, [sp, #12]
 485              	.L19:
 486              		.loc 1 132 0 discriminator 1
 487 003a 039B     		ldr	r3, [sp, #12]
 488 003c 1B68     		ldr	r3, [r3, #0]
 489 003e 002B     		cmp	r3, #0
 490 0040 E5D1     		bne	.L22
 491              		.loc 1 139 0
 492 0042 4FF00103 		mov	r3, #1
 493              	.L21:
 494              		.loc 1 140 0
 495 0046 1846     		mov	r0, r3
 496 0048 05B0     		add	sp, sp, #20
 497 004a 00BD     		pop	{pc}
 498              		.cfi_endproc
 499              	.LFE67:
 500              		.size	cmdexec, .-cmdexec
 501 004c AFF30080 		.section	.rodata
 502 015e 0000     		.align	2
 503              	.LC23:
 504 0160 7368656C 		.ascii	"shell\000"
 504      6C00
ARM GAS  C:\Users\z80\AppData\Local\Temp\ccYnvvge.s 			page 11


 505 0166 0000     		.align	2
 506              	.LC24:
 507 0168 0D0A4368 		.ascii	"\015\012ChibiOS/RT Shell\015\012\000"
 507      6962694F 
 507      532F5254 
 507      20536865 
 507      6C6C0D0A 
 508 017d 000000   		.align	2
 509              	.LC25:
 510 0180 63683E20 		.ascii	"ch> \000"
 510      00
 511 0185 000000   		.align	2
 512              	.LC26:
 513 0188 0D0A6C6F 		.ascii	"\015\012logout\000"
 513      676F7574 
 513      00
 514 0191 000000   		.align	2
 515              	.LC27:
 516 0194 20003900 		.ascii	" \0009\000"
 517              		.align	2
 518              	.LC28:
 519 0198 746F6F20 		.ascii	"too many arguments\015\012\000"
 519      6D616E79 
 519      20617267 
 519      756D656E 
 519      74730D0A 
 520 01ad 000000   		.align	2
 521              	.LC29:
 522 01b0 65786974 		.ascii	"exit\000"
 522      00
 523 01b5 000000   		.align	2
 524              	.LC30:
 525 01b8 68656C70 		.ascii	"help\000"
 525      00
 526 01bd 000000   		.align	2
 527              	.LC31:
 528 01c0 436F6D6D 		.ascii	"Commands: help exit \000"
 528      616E6473 
 528      3A206865 
 528      6C702065 
 528      78697420 
 529 01d5 000000   		.align	2
 530              	.LC32:
 531 01d8 0D0A00   		.ascii	"\015\012\000"
 532 01db 00       		.align	2
 533              	.LC33:
 534 01dc 257300   		.ascii	"%s\000"
 535 01df 00       		.align	2
 536              	.LC34:
 537 01e0 203F0D0A 		.ascii	" ?\015\012\000"
 537      00
 538              		.section	.text.shell_thread,"ax",%progbits
 539              		.align	2
 540              		.p2align 4,,15
 541              		.thumb
 542              		.thumb_func
 543              		.type	shell_thread, %function
ARM GAS  C:\Users\z80\AppData\Local\Temp\ccYnvvge.s 			page 12


 544              	shell_thread:
 545              	.LFB68:
 546              		.loc 1 150 0
 547              		.cfi_startproc
 548              		@ args = 0, pretend = 0, frame = 120
 549              		@ frame_needed = 0, uses_anonymous_args = 0
 550 0000 00B5     		push	{lr}
 551              	.LCFI12:
 552              		.cfi_def_cfa_offset 4
 553              		.cfi_offset 14, -4
 554 0002 A1B0     		sub	sp, sp, #132
 555              	.LCFI13:
 556              		.cfi_def_cfa_offset 136
 557 0004 0390     		str	r0, [sp, #12]
 558              		.loc 1 152 0
 559 0006 4FF00003 		mov	r3, #0
 560 000a 1D93     		str	r3, [sp, #116]
 561              		.loc 1 153 0
 562 000c 039B     		ldr	r3, [sp, #12]
 563 000e 1B68     		ldr	r3, [r3, #0]
 564 0010 1C93     		str	r3, [sp, #112]
 565              		.loc 1 154 0
 566 0012 039B     		ldr	r3, [sp, #12]
 567 0014 5B68     		ldr	r3, [r3, #4]
 568 0016 1B93     		str	r3, [sp, #108]
 569              		.loc 1 158 0
 570 0018 40F20003 		movw	r3, #:lower16:rlist
 571 001c C0F20003 		movt	r3, #:upper16:rlist
 572 0020 DA69     		ldr	r2, [r3, #28]
 573 0022 40F20003 		movw	r3, #:lower16:.LC23
 574 0026 C0F20003 		movt	r3, #:upper16:.LC23
 575 002a 9361     		str	r3, [r2, #24]
 576              		.loc 1 159 0
 577 002c 1C98     		ldr	r0, [sp, #112]
 578 002e 40F20001 		movw	r1, #:lower16:.LC24
 579 0032 C0F20001 		movt	r1, #:upper16:.LC24
 580 0036 FFF7FEFF 		bl	chprintf
 581 003a 00E0     		b	.L37
 582              	.L38:
 583              		.loc 1 203 0
 584 003c 00BF     		nop
 585              	.L37:
 586              		.loc 1 161 0
 587 003e 1C98     		ldr	r0, [sp, #112]
 588 0040 40F20001 		movw	r1, #:lower16:.LC25
 589 0044 C0F20001 		movt	r1, #:upper16:.LC25
 590 0048 FFF7FEFF 		bl	chprintf
 591              		.loc 1 162 0
 592 004c 1C98     		ldr	r0, [sp, #112]
 593 004e 09AB     		add	r3, sp, #36
 594 0050 1946     		mov	r1, r3
 595 0052 4FF04002 		mov	r2, #64
 596 0056 FFF7FEFF 		bl	shellGetLine
 597 005a 0346     		mov	r3, r0
 598 005c 002B     		cmp	r3, #0
 599 005e 07D0     		beq	.L24
 600              		.loc 1 163 0
ARM GAS  C:\Users\z80\AppData\Local\Temp\ccYnvvge.s 			page 13


 601 0060 1C98     		ldr	r0, [sp, #112]
 602 0062 40F20001 		movw	r1, #:lower16:.LC26
 603 0066 C0F20001 		movt	r1, #:upper16:.LC26
 604 006a FFF7FEFF 		bl	chprintf
 605              		.loc 1 164 0
 606 006e BBE0     		b	.L25
 607              	.L24:
 608              		.loc 1 166 0
 609 0070 09AB     		add	r3, sp, #36
 610 0072 1846     		mov	r0, r3
 611 0074 40F20001 		movw	r1, #:lower16:.LC27
 612 0078 C0F20001 		movt	r1, #:upper16:.LC27
 613 007c 19AB     		add	r3, sp, #100
 614 007e 1A46     		mov	r2, r3
 615 0080 FFF7FEFF 		bl	_strtok
 616 0084 1A90     		str	r0, [sp, #104]
 617              		.loc 1 167 0
 618 0086 1A9B     		ldr	r3, [sp, #104]
 619 0088 1E93     		str	r3, [sp, #120]
 620              		.loc 1 168 0
 621 008a 4FF00003 		mov	r3, #0
 622 008e 1F93     		str	r3, [sp, #124]
 623              		.loc 1 169 0
 624 0090 19E0     		b	.L26
 625              	.L29:
 626              		.loc 1 170 0
 627 0092 1F9B     		ldr	r3, [sp, #124]
 628 0094 032B     		cmp	r3, #3
 629 0096 0ADD     		ble	.L27
 630              		.loc 1 171 0
 631 0098 1C98     		ldr	r0, [sp, #112]
 632 009a 40F20001 		movw	r1, #:lower16:.LC28
 633 009e C0F20001 		movt	r1, #:upper16:.LC28
 634 00a2 FFF7FEFF 		bl	chprintf
 635              		.loc 1 172 0
 636 00a6 4FF00003 		mov	r3, #0
 637 00aa 1E93     		str	r3, [sp, #120]
 638              		.loc 1 173 0
 639 00ac 19E0     		b	.L28
 640              	.L27:
 641              		.loc 1 175 0
 642 00ae 1F9B     		ldr	r3, [sp, #124]
 643 00b0 4FEA8303 		lsl	r3, r3, #2
 644 00b4 20AA     		add	r2, sp, #128
 645 00b6 D318     		adds	r3, r2, r3
 646 00b8 1A9A     		ldr	r2, [sp, #104]
 647 00ba 43F8702C 		str	r2, [r3, #-112]
 648 00be 1F9B     		ldr	r3, [sp, #124]
 649 00c0 03F10103 		add	r3, r3, #1
 650 00c4 1F93     		str	r3, [sp, #124]
 651              	.L26:
 652              		.loc 1 169 0 discriminator 1
 653 00c6 4FF00000 		mov	r0, #0
 654 00ca 40F20001 		movw	r1, #:lower16:.LC27
 655 00ce C0F20001 		movt	r1, #:upper16:.LC27
 656 00d2 19AB     		add	r3, sp, #100
 657 00d4 1A46     		mov	r2, r3
ARM GAS  C:\Users\z80\AppData\Local\Temp\ccYnvvge.s 			page 14


 658 00d6 FFF7FEFF 		bl	_strtok
 659 00da 1A90     		str	r0, [sp, #104]
 660 00dc 1A9B     		ldr	r3, [sp, #104]
 661 00de 002B     		cmp	r3, #0
 662 00e0 D7D1     		bne	.L29
 663              	.L28:
 664              		.loc 1 177 0
 665 00e2 1F9B     		ldr	r3, [sp, #124]
 666 00e4 4FEA8303 		lsl	r3, r3, #2
 667 00e8 20AA     		add	r2, sp, #128
 668 00ea D318     		adds	r3, r2, r3
 669 00ec 4FF00002 		mov	r2, #0
 670 00f0 43F8702C 		str	r2, [r3, #-112]
 671              		.loc 1 178 0
 672 00f4 1E9B     		ldr	r3, [sp, #120]
 673 00f6 002B     		cmp	r3, #0
 674 00f8 A0D0     		beq	.L38
 675              		.loc 1 179 0
 676 00fa 1E98     		ldr	r0, [sp, #120]
 677 00fc 40F20001 		movw	r1, #:lower16:.LC29
 678 0100 C0F20001 		movt	r1, #:upper16:.LC29
 679 0104 FFF7FEFF 		bl	strcasecmp
 680 0108 0346     		mov	r3, r0
 681 010a 002B     		cmp	r3, #0
 682 010c 0AD1     		bne	.L31
 683              		.loc 1 180 0
 684 010e 1F9B     		ldr	r3, [sp, #124]
 685 0110 002B     		cmp	r3, #0
 686 0112 68DD     		ble	.L39
 687              		.loc 1 181 0
 688 0114 1C98     		ldr	r0, [sp, #112]
 689 0116 40F20001 		movw	r1, #:lower16:.LC29
 690 011a C0F20001 		movt	r1, #:upper16:.LC29
 691 011e FFF7FEFF 		bl	usage
 692              		.loc 1 182 0
 693 0122 5FE0     		b	.L30
 694              	.L31:
 695              		.loc 1 186 0
 696 0124 1E98     		ldr	r0, [sp, #120]
 697 0126 40F20001 		movw	r1, #:lower16:.LC30
 698 012a C0F20001 		movt	r1, #:upper16:.LC30
 699 012e FFF7FEFF 		bl	strcasecmp
 700 0132 0346     		mov	r3, r0
 701 0134 002B     		cmp	r3, #0
 702 0136 27D1     		bne	.L33
 703              		.loc 1 187 0
 704 0138 1F9B     		ldr	r3, [sp, #124]
 705 013a 002B     		cmp	r3, #0
 706 013c 07DD     		ble	.L34
 707              		.loc 1 188 0
 708 013e 1C98     		ldr	r0, [sp, #112]
 709 0140 40F20001 		movw	r1, #:lower16:.LC30
 710 0144 C0F20001 		movt	r1, #:upper16:.LC30
 711 0148 FFF7FEFF 		bl	usage
 712              		.loc 1 189 0
 713 014c 4AE0     		b	.L30
 714              	.L34:
ARM GAS  C:\Users\z80\AppData\Local\Temp\ccYnvvge.s 			page 15


 715              		.loc 1 191 0
 716 014e 1C98     		ldr	r0, [sp, #112]
 717 0150 40F20001 		movw	r1, #:lower16:.LC31
 718 0154 C0F20001 		movt	r1, #:upper16:.LC31
 719 0158 FFF7FEFF 		bl	chprintf
 720              		.loc 1 192 0
 721 015c 1C98     		ldr	r0, [sp, #112]
 722 015e 40F20001 		movw	r1, #:lower16:local_commands
 723 0162 C0F20001 		movt	r1, #:upper16:local_commands
 724 0166 FFF7FEFF 		bl	list_commands
 725              		.loc 1 193 0
 726 016a 1B9B     		ldr	r3, [sp, #108]
 727 016c 002B     		cmp	r3, #0
 728 016e 03D0     		beq	.L35
 729              		.loc 1 194 0
 730 0170 1C98     		ldr	r0, [sp, #112]
 731 0172 1B99     		ldr	r1, [sp, #108]
 732 0174 FFF7FEFF 		bl	list_commands
 733              	.L35:
 734              		.loc 1 195 0
 735 0178 1C98     		ldr	r0, [sp, #112]
 736 017a 40F20001 		movw	r1, #:lower16:.LC32
 737 017e C0F20001 		movt	r1, #:upper16:.LC32
 738 0182 FFF7FEFF 		bl	chprintf
 739              		.loc 1 203 0
 740 0186 59E7     		b	.L38
 741              	.L33:
 742              		.loc 1 197 0
 743 0188 04AB     		add	r3, sp, #16
 744 018a 0093     		str	r3, [sp, #0]
 745 018c 40F20000 		movw	r0, #:lower16:local_commands
 746 0190 C0F20000 		movt	r0, #:upper16:local_commands
 747 0194 1C99     		ldr	r1, [sp, #112]
 748 0196 1E9A     		ldr	r2, [sp, #120]
 749 0198 1F9B     		ldr	r3, [sp, #124]
 750 019a FFF7FEFF 		bl	cmdexec
 751 019e 0346     		mov	r3, r0
 752 01a0 002B     		cmp	r3, #0
 753 01a2 3FF44BAF 		beq	.L38
 754              		.loc 1 197 0 is_stmt 0 discriminator 1
 755 01a6 1B9B     		ldr	r3, [sp, #108]
 756 01a8 002B     		cmp	r3, #0
 757 01aa 0BD0     		beq	.L36
 758              		.loc 1 198 0 is_stmt 1
 759 01ac 04AB     		add	r3, sp, #16
 760 01ae 0093     		str	r3, [sp, #0]
 761 01b0 1B98     		ldr	r0, [sp, #108]
 762 01b2 1C99     		ldr	r1, [sp, #112]
 763 01b4 1E9A     		ldr	r2, [sp, #120]
 764 01b6 1F9B     		ldr	r3, [sp, #124]
 765 01b8 FFF7FEFF 		bl	cmdexec
 766 01bc 0346     		mov	r3, r0
 767 01be 002B     		cmp	r3, #0
 768 01c0 3FF43CAF 		beq	.L38
 769              	.L36:
 770              		.loc 1 199 0
 771 01c4 1C98     		ldr	r0, [sp, #112]
ARM GAS  C:\Users\z80\AppData\Local\Temp\ccYnvvge.s 			page 16


 772 01c6 40F20001 		movw	r1, #:lower16:.LC33
 773 01ca C0F20001 		movt	r1, #:upper16:.LC33
 774 01ce 1E9A     		ldr	r2, [sp, #120]
 775 01d0 FFF7FEFF 		bl	chprintf
 776              		.loc 1 200 0
 777 01d4 1C98     		ldr	r0, [sp, #112]
 778 01d6 40F20001 		movw	r1, #:lower16:.LC34
 779 01da C0F20001 		movt	r1, #:upper16:.LC34
 780 01de FFF7FEFF 		bl	chprintf
 781              		.loc 1 203 0
 782 01e2 2BE7     		b	.L38
 783              	.L30:
 784 01e4 2AE7     		b	.L38
 785              	.L39:
 786              		.loc 1 184 0
 787 01e6 00BF     		nop
 788              	.L25:
 789              	.LBB2:
 790              		.loc 1 206 0
 791 01e8 4FF02003 		mov	r3, #32
 792              	@ 206 "../chibios_2.4.x/os/various/shell.c" 1
 793 01ec 83F31188 		msr     BASEPRI, r3
 794              	@ 0 "" 2
 795              		.thumb
 796              	.LBE2:
 797 01f0 FFF7FEFF 		bl	dbg_check_lock
 798              		.loc 1 207 0
 799 01f4 40F20000 		movw	r0, #:lower16:shell_terminated
 800 01f8 C0F20000 		movt	r0, #:upper16:shell_terminated
 801 01fc 4FF00001 		mov	r1, #0
 802 0200 FFF7FEFF 		bl	chEvtBroadcastFlagsI
 803              		.loc 1 208 0
 804 0204 1D98     		ldr	r0, [sp, #116]
 805 0206 FFF7FEFF 		bl	chThdExitS
 806              		.loc 1 209 0
 807 020a 4FF00003 		mov	r3, #0
 808              		.loc 1 210 0
 809 020e 1846     		mov	r0, r3
 810 0210 21B0     		add	sp, sp, #132
 811 0212 00BD     		pop	{pc}
 812              		.cfi_endproc
 813              	.LFE68:
 814              		.size	shell_thread, .-shell_thread
 815 0214 AFF30080 		.section	.text.shellInit,"ax",%progbits
 815      AFF30080 
 815      AFF30080 
 816              		.align	2
 817              		.p2align 4,,15
 818              		.global	shellInit
 819              		.thumb
 820              		.thumb_func
 821              		.type	shellInit, %function
 822              	shellInit:
 823              	.LFB69:
 824              		.loc 1 215 0
 825              		.cfi_startproc
 826              		@ args = 0, pretend = 0, frame = 0
ARM GAS  C:\Users\z80\AppData\Local\Temp\ccYnvvge.s 			page 17


 827              		@ frame_needed = 0, uses_anonymous_args = 0
 828              		@ link register save eliminated.
 829              		.loc 1 217 0
 830 0000 40F20003 		movw	r3, #:lower16:shell_terminated
 831 0004 C0F20003 		movt	r3, #:upper16:shell_terminated
 832 0008 40F20002 		movw	r2, #:lower16:shell_terminated
 833 000c C0F20002 		movt	r2, #:upper16:shell_terminated
 834 0010 1A60     		str	r2, [r3, #0]
 835              		.loc 1 218 0
 836 0012 7047     		bx	lr
 837              		.cfi_endproc
 838              	.LFE69:
 839              		.size	shellInit, .-shellInit
 840 0014 AFF30080 		.section	.text.shellCreateStatic,"ax",%progbits
 840      AFF30080 
 840      AFF30080 
 841              		.align	2
 842              		.p2align 4,,15
 843              		.global	shellCreateStatic
 844              		.thumb
 845              		.thumb_func
 846              		.type	shellCreateStatic, %function
 847              	shellCreateStatic:
 848              	.LFB70:
 849              		.loc 1 247 0
 850              		.cfi_startproc
 851              		@ args = 0, pretend = 0, frame = 16
 852              		@ frame_needed = 0, uses_anonymous_args = 0
 853 0000 00B5     		push	{lr}
 854              	.LCFI14:
 855              		.cfi_def_cfa_offset 4
 856              		.cfi_offset 14, -4
 857 0002 87B0     		sub	sp, sp, #28
 858              	.LCFI15:
 859              		.cfi_def_cfa_offset 32
 860 0004 0590     		str	r0, [sp, #20]
 861 0006 0491     		str	r1, [sp, #16]
 862 0008 0392     		str	r2, [sp, #12]
 863 000a 0293     		str	r3, [sp, #8]
 864              		.loc 1 249 0
 865 000c 059B     		ldr	r3, [sp, #20]
 866 000e 0093     		str	r3, [sp, #0]
 867 0010 0498     		ldr	r0, [sp, #16]
 868 0012 0399     		ldr	r1, [sp, #12]
 869 0014 029A     		ldr	r2, [sp, #8]
 870 0016 40F20003 		movw	r3, #:lower16:shell_thread
 871 001a C0F20003 		movt	r3, #:upper16:shell_thread
 872 001e FFF7FEFF 		bl	chThdCreateStatic
 873 0022 0346     		mov	r3, r0
 874              		.loc 1 250 0
 875 0024 1846     		mov	r0, r3
 876 0026 07B0     		add	sp, sp, #28
 877 0028 00BD     		pop	{pc}
 878              		.cfi_endproc
 879              	.LFE70:
 880              		.size	shellCreateStatic, .-shellCreateStatic
 881 002a 00BFAFF3 		.section	.rodata
ARM GAS  C:\Users\z80\AppData\Local\Temp\ccYnvvge.s 			page 18


 881      0080
 882 01e5 000000   		.align	2
 883              	.LC35:
 884 01e8 5E4400   		.ascii	"^D\000"
 885 01eb 00       		.section	.text.shellGetLine,"ax",%progbits
 886              		.align	2
 887              		.p2align 4,,15
 888              		.global	shellGetLine
 889              		.thumb
 890              		.thumb_func
 891              		.type	shellGetLine, %function
 892              	shellGetLine:
 893              	.LFB71:
 894              		.loc 1 262 0
 895              		.cfi_startproc
 896              		@ args = 0, pretend = 0, frame = 24
 897              		@ frame_needed = 0, uses_anonymous_args = 0
 898 0000 00B5     		push	{lr}
 899              	.LCFI16:
 900              		.cfi_def_cfa_offset 4
 901              		.cfi_offset 14, -4
 902 0002 87B0     		sub	sp, sp, #28
 903              	.LCFI17:
 904              		.cfi_def_cfa_offset 32
 905 0004 0390     		str	r0, [sp, #12]
 906 0006 0291     		str	r1, [sp, #8]
 907 0008 0192     		str	r2, [sp, #4]
 908              		.loc 1 263 0
 909 000a 029B     		ldr	r3, [sp, #8]
 910 000c 0593     		str	r3, [sp, #20]
 911 000e 00E0     		b	.L51
 912              	.L54:
 913              		.loc 1 293 0
 914 0010 00BF     		nop
 915              	.L51:
 916              	.LBB3:
 917              		.loc 1 266 0
 918 0012 039B     		ldr	r3, [sp, #12]
 919 0014 1B68     		ldr	r3, [r3, #0]
 920 0016 5B69     		ldr	r3, [r3, #20]
 921 0018 0398     		ldr	r0, [sp, #12]
 922 001a 4FF0FF31 		mov	r1, #-1
 923 001e 9847     		blx	r3
 924 0020 0346     		mov	r3, r0
 925 0022 ADF81230 		strh	r3, [sp, #18]	@ movhi
 926              		.loc 1 267 0
 927 0026 BDF91230 		ldrsh	r3, [sp, #18]
 928 002a 002B     		cmp	r3, #0
 929 002c 02DA     		bge	.L43
 930              		.loc 1 268 0
 931 002e 4FF00103 		mov	r3, #1
 932 0032 70E0     		b	.L44
 933              	.L43:
 934              		.loc 1 269 0
 935 0034 BDF91230 		ldrsh	r3, [sp, #18]
 936 0038 042B     		cmp	r3, #4
 937 003a 09D1     		bne	.L45
ARM GAS  C:\Users\z80\AppData\Local\Temp\ccYnvvge.s 			page 19


 938              		.loc 1 270 0
 939 003c 0398     		ldr	r0, [sp, #12]
 940 003e 40F20001 		movw	r1, #:lower16:.LC35
 941 0042 C0F20001 		movt	r1, #:upper16:.LC35
 942 0046 FFF7FEFF 		bl	chprintf
 943              		.loc 1 271 0
 944 004a 4FF00103 		mov	r3, #1
 945 004e 62E0     		b	.L44
 946              	.L45:
 947              		.loc 1 273 0
 948 0050 BDF91230 		ldrsh	r3, [sp, #18]
 949 0054 082B     		cmp	r3, #8
 950 0056 27D1     		bne	.L46
 951              		.loc 1 274 0
 952 0058 059A     		ldr	r2, [sp, #20]
 953 005a 029B     		ldr	r3, [sp, #8]
 954 005c 9A42     		cmp	r2, r3
 955 005e 56D0     		beq	.L52
 956              		.loc 1 275 0
 957 0060 039B     		ldr	r3, [sp, #12]
 958 0062 1B68     		ldr	r3, [r3, #0]
 959 0064 1B69     		ldr	r3, [r3, #16]
 960 0066 BDF81220 		ldrh	r2, [sp, #18]	@ movhi
 961 006a D2B2     		uxtb	r2, r2
 962 006c 0398     		ldr	r0, [sp, #12]
 963 006e 1146     		mov	r1, r2
 964 0070 4FF0FF32 		mov	r2, #-1
 965 0074 9847     		blx	r3
 966              		.loc 1 276 0
 967 0076 039B     		ldr	r3, [sp, #12]
 968 0078 1B68     		ldr	r3, [r3, #0]
 969 007a 1B69     		ldr	r3, [r3, #16]
 970 007c 0398     		ldr	r0, [sp, #12]
 971 007e 4FF02001 		mov	r1, #32
 972 0082 4FF0FF32 		mov	r2, #-1
 973 0086 9847     		blx	r3
 974              		.loc 1 277 0
 975 0088 039B     		ldr	r3, [sp, #12]
 976 008a 1B68     		ldr	r3, [r3, #0]
 977 008c 1B69     		ldr	r3, [r3, #16]
 978 008e BDF81220 		ldrh	r2, [sp, #18]	@ movhi
 979 0092 D2B2     		uxtb	r2, r2
 980 0094 0398     		ldr	r0, [sp, #12]
 981 0096 1146     		mov	r1, r2
 982 0098 4FF0FF32 		mov	r2, #-1
 983 009c 9847     		blx	r3
 984              		.loc 1 278 0
 985 009e 059B     		ldr	r3, [sp, #20]
 986 00a0 03F1FF33 		add	r3, r3, #-1
 987 00a4 0593     		str	r3, [sp, #20]
 988              		.loc 1 280 0
 989 00a6 32E0     		b	.L52
 990              	.L46:
 991              		.loc 1 282 0
 992 00a8 BDF91230 		ldrsh	r3, [sp, #18]
 993 00ac 0D2B     		cmp	r3, #13
 994 00ae 0DD1     		bne	.L49
ARM GAS  C:\Users\z80\AppData\Local\Temp\ccYnvvge.s 			page 20


 995              		.loc 1 283 0
 996 00b0 0398     		ldr	r0, [sp, #12]
 997 00b2 40F20001 		movw	r1, #:lower16:.LC32
 998 00b6 C0F20001 		movt	r1, #:upper16:.LC32
 999 00ba FFF7FEFF 		bl	chprintf
 1000              		.loc 1 284 0
 1001 00be 059B     		ldr	r3, [sp, #20]
 1002 00c0 4FF00002 		mov	r2, #0
 1003 00c4 1A70     		strb	r2, [r3, #0]
 1004              		.loc 1 285 0
 1005 00c6 4FF00003 		mov	r3, #0
 1006 00ca 24E0     		b	.L44
 1007              	.L49:
 1008              		.loc 1 287 0
 1009 00cc BDF91230 		ldrsh	r3, [sp, #18]
 1010 00d0 1F2B     		cmp	r3, #31
 1011 00d2 1EDD     		ble	.L53
 1012              	.L50:
 1013              		.loc 1 289 0
 1014 00d4 019B     		ldr	r3, [sp, #4]
 1015 00d6 03F1FF33 		add	r3, r3, #-1
 1016 00da 029A     		ldr	r2, [sp, #8]
 1017 00dc D218     		adds	r2, r2, r3
 1018 00de 059B     		ldr	r3, [sp, #20]
 1019 00e0 9A42     		cmp	r2, r3
 1020 00e2 95D9     		bls	.L54
 1021              		.loc 1 290 0
 1022 00e4 039B     		ldr	r3, [sp, #12]
 1023 00e6 1B68     		ldr	r3, [r3, #0]
 1024 00e8 1B69     		ldr	r3, [r3, #16]
 1025 00ea BDF81220 		ldrh	r2, [sp, #18]	@ movhi
 1026 00ee D2B2     		uxtb	r2, r2
 1027 00f0 0398     		ldr	r0, [sp, #12]
 1028 00f2 1146     		mov	r1, r2
 1029 00f4 4FF0FF32 		mov	r2, #-1
 1030 00f8 9847     		blx	r3
 1031              		.loc 1 291 0
 1032 00fa BDF81230 		ldrh	r3, [sp, #18]	@ movhi
 1033 00fe DAB2     		uxtb	r2, r3
 1034 0100 059B     		ldr	r3, [sp, #20]
 1035 0102 1A70     		strb	r2, [r3, #0]
 1036 0104 059B     		ldr	r3, [sp, #20]
 1037 0106 03F10103 		add	r3, r3, #1
 1038 010a 0593     		str	r3, [sp, #20]
 1039              	.LBE3:
 1040              		.loc 1 293 0
 1041 010c 80E7     		b	.L54
 1042              	.L52:
 1043              	.LBB4:
 1044              		.loc 1 280 0
 1045 010e 00BF     		nop
 1046 0110 00E0     		b	.L48
 1047              	.L53:
 1048              		.loc 1 288 0
 1049 0112 00BF     		nop
 1050              	.L48:
 1051              	.LBE4:
ARM GAS  C:\Users\z80\AppData\Local\Temp\ccYnvvge.s 			page 21


 1052              		.loc 1 293 0
 1053 0114 7CE7     		b	.L54
 1054              	.L44:
 1055              		.loc 1 294 0
 1056 0116 1846     		mov	r0, r3
 1057 0118 07B0     		add	sp, sp, #28
 1058 011a 00BD     		pop	{pc}
 1059              		.cfi_endproc
 1060              	.LFE71:
 1061              		.size	shellGetLine, .-shellGetLine
 1062 011c AFF30080 		.text
 1063              	.Letext0:
 1064              		.file 2 "c:\\programs\\codesourcery\\2011.03-56\\bin\\../lib/gcc/arm-none-eabi/4.6.3/include/stdde
 1065              		.file 3 "c:\\programs\\codesourcery\\2011.03-56\\bin\\../lib/gcc/arm-none-eabi/4.6.3/../../../../a
 1066              		.file 4 "../chibios_2.4.x/os/ports/GCC/ARMCMx/chtypes.h"
 1067              		.file 5 "../chibios_2.4.x/os/kernel/include/chlists.h"
 1068              		.file 6 "../chibios_2.4.x/os/kernel/include/chthreads.h"
 1069              		.file 7 "../chibios_2.4.x/os/ports/GCC/ARMCMx/chcore_v7m.h"
 1070              		.file 8 "../chibios_2.4.x/os/kernel/include/chvt.h"
 1071              		.file 9 "../chibios_2.4.x/os/kernel/include/chschd.h"
 1072              		.file 10 "../chibios_2.4.x/os/kernel/include/chmtx.h"
 1073              		.file 11 "../chibios_2.4.x/os/kernel/include/chevents.h"
 1074              		.file 12 "../chibios_2.4.x/os/kernel/include/chioch.h"
 1075              		.file 13 "../chibios_2.4.x/os/various/shell.h"
 1076              		.file 14 "../chibios_2.4.x/os/ports/common/ARMCMx/CMSIS/include/core_cm3.h"