ARM GAS  /tmp/ccGITGlO.s 			page 1


   1              		.syntax unified
   2              		.cpu cortex-m3
   3              		.fpu softvfp
   4              		.eabi_attribute 20, 1
   5              		.eabi_attribute 21, 1
   6              		.eabi_attribute 23, 3
   7              		.eabi_attribute 24, 1
   8              		.eabi_attribute 25, 1
   9              		.eabi_attribute 26, 1
  10              		.eabi_attribute 30, 6
  11              		.eabi_attribute 18, 4
  12              		.thumb
  13              		.file	"spi.c"
  14              		.section	.debug_abbrev,"",%progbits
  15              	.Ldebug_abbrev0:
  16              		.section	.debug_info,"",%progbits
  17              	.Ldebug_info0:
  18              		.section	.debug_line,"",%progbits
  19              	.Ldebug_line0:
  20 0000 C8030000 		.text
  20      02004002 
  20      00000201 
  20      FB0E0D00 
  20      01010101 
  21              	.Ltext0:
  22              		.cfi_sections	.debug_frame
  23              		.section	.text.spiInit,"ax",%progbits
  24              		.align	2
  25              		.p2align 4,,15
  26              		.global	spiInit
  27              		.thumb
  28              		.thumb_func
  29              		.type	spiInit, %function
  30              	spiInit:
  31              	.LFB62:
  32              		.file 1 "../chibios_2.4.x/os/hal/src/spi.c"
  33              		.loc 1 68 0
  34              		.cfi_startproc
  35              		@ args = 0, pretend = 0, frame = 0
  36              		@ frame_needed = 0, uses_anonymous_args = 0
  37 0000 08B5     		push	{r3, lr}
  38              	.LCFI0:
  39              		.cfi_def_cfa_offset 8
  40              		.loc 1 70 0
  41              		.cfi_offset 14, -4
  42              		.cfi_offset 3, -8
  43 0002 FFF7FEFF 		bl	spi_lld_init
  44              		.loc 1 71 0
  45 0006 08BD     		pop	{r3, pc}
  46              		.cfi_endproc
  47              	.LFE62:
  48              		.size	spiInit, .-spiInit
  49 0008 AFF30080 		.section	.text.spiObjectInit,"ax",%progbits
  49      AFF30080 
  50              		.align	2
  51              		.p2align 4,,15
  52              		.global	spiObjectInit
ARM GAS  /tmp/ccGITGlO.s 			page 2


  53              		.thumb
  54              		.thumb_func
  55              		.type	spiObjectInit, %function
  56              	spiObjectInit:
  57              	.LFB63:
  58              		.loc 1 80 0
  59              		.cfi_startproc
  60              		@ args = 0, pretend = 0, frame = 8
  61              		@ frame_needed = 0, uses_anonymous_args = 0
  62              		@ link register save eliminated.
  63 0000 82B0     		sub	sp, sp, #8
  64              	.LCFI1:
  65              		.cfi_def_cfa_offset 8
  66 0002 0190     		str	r0, [sp, #4]
  67              		.loc 1 82 0
  68 0004 019B     		ldr	r3, [sp, #4]
  69 0006 4FF00102 		mov	r2, #1
  70 000a 1A70     		strb	r2, [r3, #0]
  71              		.loc 1 83 0
  72 000c 019B     		ldr	r3, [sp, #4]
  73 000e 4FF00002 		mov	r2, #0
  74 0012 5A60     		str	r2, [r3, #4]
  75              		.loc 1 97 0
  76 0014 02B0     		add	sp, sp, #8
  77 0016 7047     		bx	lr
  78              		.cfi_endproc
  79              	.LFE63:
  80              		.size	spiObjectInit, .-spiObjectInit
  81 0018 AFF30080 		.section	.rodata
  81      AFF30080 
  82              		.align	2
  83              	.LC0:
  84 0000 22737069 		.ascii	"\"spiStart\"()\000"
  84      53746172 
  84      74222829 
  84      00
  85 000d 000000   		.align	2
  86              	.LC1:
  87 0010 73706953 		.ascii	"spiStart(), #1\000"
  87      74617274 
  87      28292C20 
  87      233100
  88              		.section	.text.spiStart,"ax",%progbits
  89              		.align	2
  90              		.p2align 4,,15
  91              		.global	spiStart
  92              		.thumb
  93              		.thumb_func
  94              		.type	spiStart, %function
  95              	spiStart:
  96              	.LFB64:
  97              		.loc 1 107 0
  98              		.cfi_startproc
  99              		@ args = 0, pretend = 0, frame = 8
 100              		@ frame_needed = 0, uses_anonymous_args = 0
 101 0000 00B5     		push	{lr}
 102              	.LCFI2:
ARM GAS  /tmp/ccGITGlO.s 			page 3


 103              		.cfi_def_cfa_offset 4
 104 0002 83B0     		sub	sp, sp, #12
 105              	.LCFI3:
 106              		.cfi_def_cfa_offset 16
 107 0004 0190     		str	r0, [sp, #4]
 108 0006 0091     		str	r1, [sp, #0]
 109              		.loc 1 109 0
 110 0008 019B     		ldr	r3, [sp, #4]
 111 000a 002B     		cmp	r3, #0
 112 000c 02D0     		beq	.L4
 113              		.cfi_offset 14, -4
 114              		.loc 1 109 0 is_stmt 0 discriminator 2
 115 000e 009B     		ldr	r3, [sp, #0]
 116 0010 002B     		cmp	r3, #0
 117 0012 02D1     		bne	.L5
 118              	.L4:
 119              		.loc 1 109 0 discriminator 1
 120 0014 1248     		ldr	r0, .L7
 121 0016 FFF7FEFF 		bl	chDbgPanic
 122              	.L5:
 123              	.LBB2:
 124              		.loc 1 111 0 is_stmt 1
 125 001a 4FF02003 		mov	r3, #32
 126              	@ 111 "../chibios_2.4.x/os/hal/src/spi.c" 1
 127 001e 83F31188 		msr     BASEPRI, r3
 128              	@ 0 "" 2
 129              		.thumb
 130              	.LBE2:
 131 0022 FFF7FEFF 		bl	dbg_check_lock
 132              		.loc 1 112 0
 133 0026 019B     		ldr	r3, [sp, #4]
 134 0028 1B78     		ldrb	r3, [r3, #0]	@ zero_extendqisi2
 135 002a 012B     		cmp	r3, #1
 136 002c 06D0     		beq	.L6
 137              		.loc 1 112 0 is_stmt 0 discriminator 1
 138 002e 019B     		ldr	r3, [sp, #4]
 139 0030 1B78     		ldrb	r3, [r3, #0]	@ zero_extendqisi2
 140 0032 022B     		cmp	r3, #2
 141 0034 02D0     		beq	.L6
 142              		.loc 1 112 0 discriminator 2
 143 0036 0B48     		ldr	r0, .L7+4
 144 0038 FFF7FEFF 		bl	chDbgPanic
 145              	.L6:
 146              		.loc 1 114 0 is_stmt 1
 147 003c 019B     		ldr	r3, [sp, #4]
 148 003e 009A     		ldr	r2, [sp, #0]
 149 0040 5A60     		str	r2, [r3, #4]
 150              		.loc 1 115 0
 151 0042 0198     		ldr	r0, [sp, #4]
 152 0044 FFF7FEFF 		bl	spi_lld_start
 153              		.loc 1 116 0
 154 0048 019B     		ldr	r3, [sp, #4]
 155 004a 4FF00202 		mov	r2, #2
 156 004e 1A70     		strb	r2, [r3, #0]
 157              		.loc 1 117 0
 158 0050 FFF7FEFF 		bl	dbg_check_unlock
 159              	.LBB3:
ARM GAS  /tmp/ccGITGlO.s 			page 4


 160 0054 4FF00003 		mov	r3, #0
 161              	@ 117 "../chibios_2.4.x/os/hal/src/spi.c" 1
 162 0058 83F31188 		msr     BASEPRI, r3
 163              	@ 0 "" 2
 164              		.thumb
 165              	.LBE3:
 166              		.loc 1 118 0
 167 005c 03B0     		add	sp, sp, #12
 168 005e 00BD     		pop	{pc}
 169              	.L8:
 170              		.align	2
 171              	.L7:
 172 0060 00000000 		.word	.LC0
 173 0064 10000000 		.word	.LC1
 174              		.cfi_endproc
 175              	.LFE64:
 176              		.size	spiStart, .-spiStart
 177 0068 AFF30080 		.section	.rodata
 177      AFF30080 
 178 001f 00       		.align	2
 179              	.LC2:
 180 0020 22737069 		.ascii	"\"spiStop\"()\000"
 180      53746F70 
 180      22282900 
 181              		.align	2
 182              	.LC3:
 183 002c 73706953 		.ascii	"spiStop(), #1\000"
 183      746F7028 
 183      292C2023 
 183      3100
 184              		.section	.text.spiStop,"ax",%progbits
 185              		.align	2
 186              		.p2align 4,,15
 187              		.global	spiStop
 188              		.thumb
 189              		.thumb_func
 190              		.type	spiStop, %function
 191              	spiStop:
 192              	.LFB65:
 193              		.loc 1 129 0
 194              		.cfi_startproc
 195              		@ args = 0, pretend = 0, frame = 8
 196              		@ frame_needed = 0, uses_anonymous_args = 0
 197 0000 00B5     		push	{lr}
 198              	.LCFI4:
 199              		.cfi_def_cfa_offset 4
 200 0002 83B0     		sub	sp, sp, #12
 201              	.LCFI5:
 202              		.cfi_def_cfa_offset 16
 203 0004 0190     		str	r0, [sp, #4]
 204              		.loc 1 131 0
 205 0006 019B     		ldr	r3, [sp, #4]
 206 0008 002B     		cmp	r3, #0
 207 000a 02D1     		bne	.L10
 208              		.cfi_offset 14, -4
 209              		.loc 1 131 0 is_stmt 0 discriminator 1
 210 000c 1248     		ldr	r0, .L12
ARM GAS  /tmp/ccGITGlO.s 			page 5


 211 000e FFF7FEFF 		bl	chDbgPanic
 212              	.L10:
 213              	.LBB4:
 214              		.loc 1 133 0 is_stmt 1
 215 0012 4FF02003 		mov	r3, #32
 216              	@ 133 "../chibios_2.4.x/os/hal/src/spi.c" 1
 217 0016 83F31188 		msr     BASEPRI, r3
 218              	@ 0 "" 2
 219              		.thumb
 220              	.LBE4:
 221 001a FFF7FEFF 		bl	dbg_check_lock
 222              		.loc 1 134 0
 223 001e 019B     		ldr	r3, [sp, #4]
 224 0020 1B78     		ldrb	r3, [r3, #0]	@ zero_extendqisi2
 225 0022 012B     		cmp	r3, #1
 226 0024 06D0     		beq	.L11
 227              		.loc 1 134 0 is_stmt 0 discriminator 1
 228 0026 019B     		ldr	r3, [sp, #4]
 229 0028 1B78     		ldrb	r3, [r3, #0]	@ zero_extendqisi2
 230 002a 022B     		cmp	r3, #2
 231 002c 02D0     		beq	.L11
 232              		.loc 1 134 0 discriminator 2
 233 002e 0B48     		ldr	r0, .L12+4
 234 0030 FFF7FEFF 		bl	chDbgPanic
 235              	.L11:
 236              		.loc 1 136 0 is_stmt 1
 237 0034 0198     		ldr	r0, [sp, #4]
 238 0036 FFF7FEFF 		bl	spi_lld_unselect
 239              		.loc 1 137 0
 240 003a 0198     		ldr	r0, [sp, #4]
 241 003c FFF7FEFF 		bl	spi_lld_stop
 242              		.loc 1 138 0
 243 0040 019B     		ldr	r3, [sp, #4]
 244 0042 4FF00102 		mov	r2, #1
 245 0046 1A70     		strb	r2, [r3, #0]
 246              		.loc 1 139 0
 247 0048 FFF7FEFF 		bl	dbg_check_unlock
 248              	.LBB5:
 249 004c 4FF00003 		mov	r3, #0
 250              	@ 139 "../chibios_2.4.x/os/hal/src/spi.c" 1
 251 0050 83F31188 		msr     BASEPRI, r3
 252              	@ 0 "" 2
 253              		.thumb
 254              	.LBE5:
 255              		.loc 1 140 0
 256 0054 03B0     		add	sp, sp, #12
 257 0056 00BD     		pop	{pc}
 258              	.L13:
 259              		.align	2
 260              	.L12:
 261 0058 20000000 		.word	.LC2
 262 005c 2C000000 		.word	.LC3
 263              		.cfi_endproc
 264              	.LFE65:
 265              		.size	spiStop, .-spiStop
 266              		.section	.rodata
 267 003a 0000     		.align	2
ARM GAS  /tmp/ccGITGlO.s 			page 6


 268              	.LC4:
 269 003c 22737069 		.ascii	"\"spiSelect\"()\000"
 269      53656C65 
 269      63742228 
 269      2900
 270 004a 0000     		.align	2
 271              	.LC5:
 272 004c 73706953 		.ascii	"spiSelect(), #1\000"
 272      656C6563 
 272      7428292C 
 272      20233100 
 273              		.section	.text.spiSelect,"ax",%progbits
 274              		.align	2
 275              		.p2align 4,,15
 276              		.global	spiSelect
 277              		.thumb
 278              		.thumb_func
 279              		.type	spiSelect, %function
 280              	spiSelect:
 281              	.LFB66:
 282              		.loc 1 149 0
 283              		.cfi_startproc
 284              		@ args = 0, pretend = 0, frame = 8
 285              		@ frame_needed = 0, uses_anonymous_args = 0
 286 0000 00B5     		push	{lr}
 287              	.LCFI6:
 288              		.cfi_def_cfa_offset 4
 289 0002 83B0     		sub	sp, sp, #12
 290              	.LCFI7:
 291              		.cfi_def_cfa_offset 16
 292 0004 0190     		str	r0, [sp, #4]
 293              		.loc 1 151 0
 294 0006 019B     		ldr	r3, [sp, #4]
 295 0008 002B     		cmp	r3, #0
 296 000a 02D1     		bne	.L15
 297              		.cfi_offset 14, -4
 298              		.loc 1 151 0 is_stmt 0 discriminator 1
 299 000c 0D48     		ldr	r0, .L17
 300 000e FFF7FEFF 		bl	chDbgPanic
 301              	.L15:
 302              	.LBB6:
 303              		.loc 1 153 0 is_stmt 1
 304 0012 4FF02003 		mov	r3, #32
 305              	@ 153 "../chibios_2.4.x/os/hal/src/spi.c" 1
 306 0016 83F31188 		msr     BASEPRI, r3
 307              	@ 0 "" 2
 308              		.thumb
 309              	.LBE6:
 310 001a FFF7FEFF 		bl	dbg_check_lock
 311              		.loc 1 154 0
 312 001e 019B     		ldr	r3, [sp, #4]
 313 0020 1B78     		ldrb	r3, [r3, #0]	@ zero_extendqisi2
 314 0022 022B     		cmp	r3, #2
 315 0024 02D0     		beq	.L16
 316              		.loc 1 154 0 is_stmt 0 discriminator 1
 317 0026 0848     		ldr	r0, .L17+4
 318 0028 FFF7FEFF 		bl	chDbgPanic
ARM GAS  /tmp/ccGITGlO.s 			page 7


 319              	.L16:
 320              		.loc 1 155 0 is_stmt 1
 321 002c 0198     		ldr	r0, [sp, #4]
 322 002e FFF7FEFF 		bl	spi_lld_select
 323              		.loc 1 156 0
 324 0032 FFF7FEFF 		bl	dbg_check_unlock
 325              	.LBB7:
 326 0036 4FF00003 		mov	r3, #0
 327              	@ 156 "../chibios_2.4.x/os/hal/src/spi.c" 1
 328 003a 83F31188 		msr     BASEPRI, r3
 329              	@ 0 "" 2
 330              		.thumb
 331              	.LBE7:
 332              		.loc 1 157 0
 333 003e 03B0     		add	sp, sp, #12
 334 0040 00BD     		pop	{pc}
 335              	.L18:
 336 0042 00BF     		.align	2
 337              	.L17:
 338 0044 3C000000 		.word	.LC4
 339 0048 4C000000 		.word	.LC5
 340              		.cfi_endproc
 341              	.LFE66:
 342              		.size	spiSelect, .-spiSelect
 343 004c AFF30080 		.section	.rodata
 344              		.align	2
 345              	.LC6:
 346 005c 22737069 		.ascii	"\"spiUnselect\"()\000"
 346      556E7365 
 346      6C656374 
 346      22282900 
 347              		.align	2
 348              	.LC7:
 349 006c 73706955 		.ascii	"spiUnselect(), #1\000"
 349      6E73656C 
 349      65637428 
 349      292C2023 
 349      3100
 350              		.section	.text.spiUnselect,"ax",%progbits
 351              		.align	2
 352              		.p2align 4,,15
 353              		.global	spiUnselect
 354              		.thumb
 355              		.thumb_func
 356              		.type	spiUnselect, %function
 357              	spiUnselect:
 358              	.LFB67:
 359              		.loc 1 167 0
 360              		.cfi_startproc
 361              		@ args = 0, pretend = 0, frame = 8
 362              		@ frame_needed = 0, uses_anonymous_args = 0
 363 0000 00B5     		push	{lr}
 364              	.LCFI8:
 365              		.cfi_def_cfa_offset 4
 366 0002 83B0     		sub	sp, sp, #12
 367              	.LCFI9:
 368              		.cfi_def_cfa_offset 16
ARM GAS  /tmp/ccGITGlO.s 			page 8


 369 0004 0190     		str	r0, [sp, #4]
 370              		.loc 1 169 0
 371 0006 019B     		ldr	r3, [sp, #4]
 372 0008 002B     		cmp	r3, #0
 373 000a 02D1     		bne	.L20
 374              		.cfi_offset 14, -4
 375              		.loc 1 169 0 is_stmt 0 discriminator 1
 376 000c 0D48     		ldr	r0, .L22
 377 000e FFF7FEFF 		bl	chDbgPanic
 378              	.L20:
 379              	.LBB8:
 380              		.loc 1 171 0 is_stmt 1
 381 0012 4FF02003 		mov	r3, #32
 382              	@ 171 "../chibios_2.4.x/os/hal/src/spi.c" 1
 383 0016 83F31188 		msr     BASEPRI, r3
 384              	@ 0 "" 2
 385              		.thumb
 386              	.LBE8:
 387 001a FFF7FEFF 		bl	dbg_check_lock
 388              		.loc 1 172 0
 389 001e 019B     		ldr	r3, [sp, #4]
 390 0020 1B78     		ldrb	r3, [r3, #0]	@ zero_extendqisi2
 391 0022 022B     		cmp	r3, #2
 392 0024 02D0     		beq	.L21
 393              		.loc 1 172 0 is_stmt 0 discriminator 1
 394 0026 0848     		ldr	r0, .L22+4
 395 0028 FFF7FEFF 		bl	chDbgPanic
 396              	.L21:
 397              		.loc 1 173 0 is_stmt 1
 398 002c 0198     		ldr	r0, [sp, #4]
 399 002e FFF7FEFF 		bl	spi_lld_unselect
 400              		.loc 1 174 0
 401 0032 FFF7FEFF 		bl	dbg_check_unlock
 402              	.LBB9:
 403 0036 4FF00003 		mov	r3, #0
 404              	@ 174 "../chibios_2.4.x/os/hal/src/spi.c" 1
 405 003a 83F31188 		msr     BASEPRI, r3
 406              	@ 0 "" 2
 407              		.thumb
 408              	.LBE9:
 409              		.loc 1 175 0
 410 003e 03B0     		add	sp, sp, #12
 411 0040 00BD     		pop	{pc}
 412              	.L23:
 413 0042 00BF     		.align	2
 414              	.L22:
 415 0044 5C000000 		.word	.LC6
 416 0048 6C000000 		.word	.LC7
 417              		.cfi_endproc
 418              	.LFE67:
 419              		.size	spiUnselect, .-spiUnselect
 420 004c AFF30080 		.section	.rodata
 421 007e 0000     		.align	2
 422              	.LC8:
 423 0080 22737069 		.ascii	"\"spiStartIgnore\"()\000"
 423      53746172 
 423      7449676E 
ARM GAS  /tmp/ccGITGlO.s 			page 9


 423      6F726522 
 423      282900
 424 0093 00       		.align	2
 425              	.LC9:
 426 0094 73706953 		.ascii	"spiStartIgnore(), #1\000"
 426      74617274 
 426      49676E6F 
 426      72652829 
 426      2C202331 
 427              		.section	.text.spiStartIgnore,"ax",%progbits
 428              		.align	2
 429              		.p2align 4,,15
 430              		.global	spiStartIgnore
 431              		.thumb
 432              		.thumb_func
 433              		.type	spiStartIgnore, %function
 434              	spiStartIgnore:
 435              	.LFB68:
 436              		.loc 1 190 0
 437              		.cfi_startproc
 438              		@ args = 0, pretend = 0, frame = 8
 439              		@ frame_needed = 0, uses_anonymous_args = 0
 440 0000 00B5     		push	{lr}
 441              	.LCFI10:
 442              		.cfi_def_cfa_offset 4
 443 0002 83B0     		sub	sp, sp, #12
 444              	.LCFI11:
 445              		.cfi_def_cfa_offset 16
 446 0004 0190     		str	r0, [sp, #4]
 447 0006 0091     		str	r1, [sp, #0]
 448              		.loc 1 192 0
 449 0008 019B     		ldr	r3, [sp, #4]
 450 000a 002B     		cmp	r3, #0
 451 000c 02D0     		beq	.L25
 452              		.cfi_offset 14, -4
 453              		.loc 1 192 0 is_stmt 0 discriminator 2
 454 000e 009B     		ldr	r3, [sp, #0]
 455 0010 002B     		cmp	r3, #0
 456 0012 02D1     		bne	.L26
 457              	.L25:
 458              		.loc 1 192 0 discriminator 1
 459 0014 0F48     		ldr	r0, .L28
 460 0016 FFF7FEFF 		bl	chDbgPanic
 461              	.L26:
 462              	.LBB10:
 463              		.loc 1 194 0 is_stmt 1
 464 001a 4FF02003 		mov	r3, #32
 465              	@ 194 "../chibios_2.4.x/os/hal/src/spi.c" 1
 466 001e 83F31188 		msr     BASEPRI, r3
 467              	@ 0 "" 2
 468              		.thumb
 469              	.LBE10:
 470 0022 FFF7FEFF 		bl	dbg_check_lock
 471              		.loc 1 195 0
 472 0026 019B     		ldr	r3, [sp, #4]
 473 0028 1B78     		ldrb	r3, [r3, #0]	@ zero_extendqisi2
 474 002a 022B     		cmp	r3, #2
ARM GAS  /tmp/ccGITGlO.s 			page 10


 475 002c 02D0     		beq	.L27
 476              		.loc 1 195 0 is_stmt 0 discriminator 1
 477 002e 0A48     		ldr	r0, .L28+4
 478 0030 FFF7FEFF 		bl	chDbgPanic
 479              	.L27:
 480              		.loc 1 196 0 is_stmt 1
 481 0034 019B     		ldr	r3, [sp, #4]
 482 0036 4FF00302 		mov	r2, #3
 483 003a 1A70     		strb	r2, [r3, #0]
 484 003c 0198     		ldr	r0, [sp, #4]
 485 003e 0099     		ldr	r1, [sp, #0]
 486 0040 FFF7FEFF 		bl	spi_lld_ignore
 487              		.loc 1 197 0
 488 0044 FFF7FEFF 		bl	dbg_check_unlock
 489              	.LBB11:
 490 0048 4FF00003 		mov	r3, #0
 491              	@ 197 "../chibios_2.4.x/os/hal/src/spi.c" 1
 492 004c 83F31188 		msr     BASEPRI, r3
 493              	@ 0 "" 2
 494              		.thumb
 495              	.LBE11:
 496              		.loc 1 198 0
 497 0050 03B0     		add	sp, sp, #12
 498 0052 00BD     		pop	{pc}
 499              	.L29:
 500              		.align	2
 501              	.L28:
 502 0054 80000000 		.word	.LC8
 503 0058 94000000 		.word	.LC9
 504              		.cfi_endproc
 505              	.LFE68:
 506              		.size	spiStartIgnore, .-spiStartIgnore
 507 005c AFF30080 		.section	.rodata
 508 00a9 000000   		.align	2
 509              	.LC10:
 510 00ac 22737069 		.ascii	"\"spiStartExchange\"()\000"
 510      53746172 
 510      74457863 
 510      68616E67 
 510      65222829 
 511 00c1 000000   		.align	2
 512              	.LC11:
 513 00c4 73706953 		.ascii	"spiStartExchange(), #1\000"
 513      74617274 
 513      45786368 
 513      616E6765 
 513      28292C20 
 514              		.section	.text.spiStartExchange,"ax",%progbits
 515              		.align	2
 516              		.p2align 4,,15
 517              		.global	spiStartExchange
 518              		.thumb
 519              		.thumb_func
 520              		.type	spiStartExchange, %function
 521              	spiStartExchange:
 522              	.LFB69:
 523              		.loc 1 218 0
ARM GAS  /tmp/ccGITGlO.s 			page 11


 524              		.cfi_startproc
 525              		@ args = 0, pretend = 0, frame = 16
 526              		@ frame_needed = 0, uses_anonymous_args = 0
 527 0000 00B5     		push	{lr}
 528              	.LCFI12:
 529              		.cfi_def_cfa_offset 4
 530 0002 85B0     		sub	sp, sp, #20
 531              	.LCFI13:
 532              		.cfi_def_cfa_offset 24
 533 0004 0390     		str	r0, [sp, #12]
 534 0006 0291     		str	r1, [sp, #8]
 535 0008 0192     		str	r2, [sp, #4]
 536 000a 0093     		str	r3, [sp, #0]
 537              		.loc 1 220 0
 538 000c 039B     		ldr	r3, [sp, #12]
 539 000e 002B     		cmp	r3, #0
 540 0010 08D0     		beq	.L31
 541              		.cfi_offset 14, -4
 542              		.loc 1 220 0 is_stmt 0 discriminator 2
 543 0012 029B     		ldr	r3, [sp, #8]
 544 0014 002B     		cmp	r3, #0
 545 0016 05D0     		beq	.L31
 546              		.loc 1 220 0 discriminator 3
 547 0018 009B     		ldr	r3, [sp, #0]
 548 001a 002B     		cmp	r3, #0
 549 001c 02D0     		beq	.L31
 550              		.loc 1 220 0 discriminator 4
 551 001e 019B     		ldr	r3, [sp, #4]
 552 0020 002B     		cmp	r3, #0
 553 0022 02D1     		bne	.L32
 554              	.L31:
 555              		.loc 1 220 0 discriminator 1
 556 0024 1048     		ldr	r0, .L34
 557 0026 FFF7FEFF 		bl	chDbgPanic
 558              	.L32:
 559              	.LBB12:
 560              		.loc 1 223 0 is_stmt 1
 561 002a 4FF02003 		mov	r3, #32
 562              	@ 223 "../chibios_2.4.x/os/hal/src/spi.c" 1
 563 002e 83F31188 		msr     BASEPRI, r3
 564              	@ 0 "" 2
 565              		.thumb
 566              	.LBE12:
 567 0032 FFF7FEFF 		bl	dbg_check_lock
 568              		.loc 1 224 0
 569 0036 039B     		ldr	r3, [sp, #12]
 570 0038 1B78     		ldrb	r3, [r3, #0]	@ zero_extendqisi2
 571 003a 022B     		cmp	r3, #2
 572 003c 02D0     		beq	.L33
 573              		.loc 1 224 0 is_stmt 0 discriminator 1
 574 003e 0B48     		ldr	r0, .L34+4
 575 0040 FFF7FEFF 		bl	chDbgPanic
 576              	.L33:
 577              		.loc 1 225 0 is_stmt 1
 578 0044 039B     		ldr	r3, [sp, #12]
 579 0046 4FF00302 		mov	r2, #3
 580 004a 1A70     		strb	r2, [r3, #0]
ARM GAS  /tmp/ccGITGlO.s 			page 12


 581 004c 0398     		ldr	r0, [sp, #12]
 582 004e 0299     		ldr	r1, [sp, #8]
 583 0050 019A     		ldr	r2, [sp, #4]
 584 0052 009B     		ldr	r3, [sp, #0]
 585 0054 FFF7FEFF 		bl	spi_lld_exchange
 586              		.loc 1 226 0
 587 0058 FFF7FEFF 		bl	dbg_check_unlock
 588              	.LBB13:
 589 005c 4FF00003 		mov	r3, #0
 590              	@ 226 "../chibios_2.4.x/os/hal/src/spi.c" 1
 591 0060 83F31188 		msr     BASEPRI, r3
 592              	@ 0 "" 2
 593              		.thumb
 594              	.LBE13:
 595              		.loc 1 227 0
 596 0064 05B0     		add	sp, sp, #20
 597 0066 00BD     		pop	{pc}
 598              	.L35:
 599              		.align	2
 600              	.L34:
 601 0068 AC000000 		.word	.LC10
 602 006c C4000000 		.word	.LC11
 603              		.cfi_endproc
 604              	.LFE69:
 605              		.size	spiStartExchange, .-spiStartExchange
 606              		.section	.rodata
 607 00db 00       		.align	2
 608              	.LC12:
 609 00dc 22737069 		.ascii	"\"spiStartSend\"()\000"
 609      53746172 
 609      7453656E 
 609      64222829 
 609      00
 610 00ed 000000   		.align	2
 611              	.LC13:
 612 00f0 73706953 		.ascii	"spiStartSend(), #1\000"
 612      74617274 
 612      53656E64 
 612      28292C20 
 612      233100
 613              		.section	.text.spiStartSend,"ax",%progbits
 614              		.align	2
 615              		.p2align 4,,15
 616              		.global	spiStartSend
 617              		.thumb
 618              		.thumb_func
 619              		.type	spiStartSend, %function
 620              	spiStartSend:
 621              	.LFB70:
 622              		.loc 1 244 0
 623              		.cfi_startproc
 624              		@ args = 0, pretend = 0, frame = 16
 625              		@ frame_needed = 0, uses_anonymous_args = 0
 626 0000 00B5     		push	{lr}
 627              	.LCFI14:
 628              		.cfi_def_cfa_offset 4
 629 0002 85B0     		sub	sp, sp, #20
ARM GAS  /tmp/ccGITGlO.s 			page 13


 630              	.LCFI15:
 631              		.cfi_def_cfa_offset 24
 632 0004 0390     		str	r0, [sp, #12]
 633 0006 0291     		str	r1, [sp, #8]
 634 0008 0192     		str	r2, [sp, #4]
 635              		.loc 1 246 0
 636 000a 039B     		ldr	r3, [sp, #12]
 637 000c 002B     		cmp	r3, #0
 638 000e 05D0     		beq	.L37
 639              		.cfi_offset 14, -4
 640              		.loc 1 246 0 is_stmt 0 discriminator 2
 641 0010 029B     		ldr	r3, [sp, #8]
 642 0012 002B     		cmp	r3, #0
 643 0014 02D0     		beq	.L37
 644              		.loc 1 246 0 discriminator 3
 645 0016 019B     		ldr	r3, [sp, #4]
 646 0018 002B     		cmp	r3, #0
 647 001a 02D1     		bne	.L38
 648              	.L37:
 649              		.loc 1 246 0 discriminator 1
 650 001c 1048     		ldr	r0, .L40
 651 001e FFF7FEFF 		bl	chDbgPanic
 652              	.L38:
 653              	.LBB14:
 654              		.loc 1 249 0 is_stmt 1
 655 0022 4FF02003 		mov	r3, #32
 656              	@ 249 "../chibios_2.4.x/os/hal/src/spi.c" 1
 657 0026 83F31188 		msr     BASEPRI, r3
 658              	@ 0 "" 2
 659              		.thumb
 660              	.LBE14:
 661 002a FFF7FEFF 		bl	dbg_check_lock
 662              		.loc 1 250 0
 663 002e 039B     		ldr	r3, [sp, #12]
 664 0030 1B78     		ldrb	r3, [r3, #0]	@ zero_extendqisi2
 665 0032 022B     		cmp	r3, #2
 666 0034 02D0     		beq	.L39
 667              		.loc 1 250 0 is_stmt 0 discriminator 1
 668 0036 0B48     		ldr	r0, .L40+4
 669 0038 FFF7FEFF 		bl	chDbgPanic
 670              	.L39:
 671              		.loc 1 251 0 is_stmt 1
 672 003c 039B     		ldr	r3, [sp, #12]
 673 003e 4FF00302 		mov	r2, #3
 674 0042 1A70     		strb	r2, [r3, #0]
 675 0044 0398     		ldr	r0, [sp, #12]
 676 0046 0299     		ldr	r1, [sp, #8]
 677 0048 019A     		ldr	r2, [sp, #4]
 678 004a FFF7FEFF 		bl	spi_lld_send
 679              		.loc 1 252 0
 680 004e FFF7FEFF 		bl	dbg_check_unlock
 681              	.LBB15:
 682 0052 4FF00003 		mov	r3, #0
 683              	@ 252 "../chibios_2.4.x/os/hal/src/spi.c" 1
 684 0056 83F31188 		msr     BASEPRI, r3
 685              	@ 0 "" 2
 686              		.thumb
ARM GAS  /tmp/ccGITGlO.s 			page 14


 687              	.LBE15:
 688              		.loc 1 253 0
 689 005a 05B0     		add	sp, sp, #20
 690 005c 00BD     		pop	{pc}
 691              	.L41:
 692 005e 00BF     		.align	2
 693              	.L40:
 694 0060 DC000000 		.word	.LC12
 695 0064 F0000000 		.word	.LC13
 696              		.cfi_endproc
 697              	.LFE70:
 698              		.size	spiStartSend, .-spiStartSend
 699 0068 AFF30080 		.section	.rodata
 699      AFF30080 
 700 0103 00       		.align	2
 701              	.LC14:
 702 0104 22737069 		.ascii	"\"spiStartReceive\"()\000"
 702      53746172 
 702      74526563 
 702      65697665 
 702      22282900 
 703              		.align	2
 704              	.LC15:
 705 0118 73706953 		.ascii	"spiStartReceive(), #1\000"
 705      74617274 
 705      52656365 
 705      69766528 
 705      292C2023 
 706 012e 0000     		.section	.text.spiStartReceive,"ax",%progbits
 707              		.align	2
 708              		.p2align 4,,15
 709              		.global	spiStartReceive
 710              		.thumb
 711              		.thumb_func
 712              		.type	spiStartReceive, %function
 713              	spiStartReceive:
 714              	.LFB71:
 715              		.loc 1 270 0
 716              		.cfi_startproc
 717              		@ args = 0, pretend = 0, frame = 16
 718              		@ frame_needed = 0, uses_anonymous_args = 0
 719 0000 00B5     		push	{lr}
 720              	.LCFI16:
 721              		.cfi_def_cfa_offset 4
 722 0002 85B0     		sub	sp, sp, #20
 723              	.LCFI17:
 724              		.cfi_def_cfa_offset 24
 725 0004 0390     		str	r0, [sp, #12]
 726 0006 0291     		str	r1, [sp, #8]
 727 0008 0192     		str	r2, [sp, #4]
 728              		.loc 1 272 0
 729 000a 039B     		ldr	r3, [sp, #12]
 730 000c 002B     		cmp	r3, #0
 731 000e 05D0     		beq	.L43
 732              		.cfi_offset 14, -4
 733              		.loc 1 272 0 is_stmt 0 discriminator 2
 734 0010 029B     		ldr	r3, [sp, #8]
ARM GAS  /tmp/ccGITGlO.s 			page 15


 735 0012 002B     		cmp	r3, #0
 736 0014 02D0     		beq	.L43
 737              		.loc 1 272 0 discriminator 3
 738 0016 019B     		ldr	r3, [sp, #4]
 739 0018 002B     		cmp	r3, #0
 740 001a 02D1     		bne	.L44
 741              	.L43:
 742              		.loc 1 272 0 discriminator 1
 743 001c 1048     		ldr	r0, .L46
 744 001e FFF7FEFF 		bl	chDbgPanic
 745              	.L44:
 746              	.LBB16:
 747              		.loc 1 275 0 is_stmt 1
 748 0022 4FF02003 		mov	r3, #32
 749              	@ 275 "../chibios_2.4.x/os/hal/src/spi.c" 1
 750 0026 83F31188 		msr     BASEPRI, r3
 751              	@ 0 "" 2
 752              		.thumb
 753              	.LBE16:
 754 002a FFF7FEFF 		bl	dbg_check_lock
 755              		.loc 1 276 0
 756 002e 039B     		ldr	r3, [sp, #12]
 757 0030 1B78     		ldrb	r3, [r3, #0]	@ zero_extendqisi2
 758 0032 022B     		cmp	r3, #2
 759 0034 02D0     		beq	.L45
 760              		.loc 1 276 0 is_stmt 0 discriminator 1
 761 0036 0B48     		ldr	r0, .L46+4
 762 0038 FFF7FEFF 		bl	chDbgPanic
 763              	.L45:
 764              		.loc 1 277 0 is_stmt 1
 765 003c 039B     		ldr	r3, [sp, #12]
 766 003e 4FF00302 		mov	r2, #3
 767 0042 1A70     		strb	r2, [r3, #0]
 768 0044 0398     		ldr	r0, [sp, #12]
 769 0046 0299     		ldr	r1, [sp, #8]
 770 0048 019A     		ldr	r2, [sp, #4]
 771 004a FFF7FEFF 		bl	spi_lld_receive
 772              		.loc 1 278 0
 773 004e FFF7FEFF 		bl	dbg_check_unlock
 774              	.LBB17:
 775 0052 4FF00003 		mov	r3, #0
 776              	@ 278 "../chibios_2.4.x/os/hal/src/spi.c" 1
 777 0056 83F31188 		msr     BASEPRI, r3
 778              	@ 0 "" 2
 779              		.thumb
 780              	.LBE17:
 781              		.loc 1 279 0
 782 005a 05B0     		add	sp, sp, #20
 783 005c 00BD     		pop	{pc}
 784              	.L47:
 785 005e 00BF     		.align	2
 786              	.L46:
 787 0060 04010000 		.word	.LC14
 788 0064 18010000 		.word	.LC15
 789              		.cfi_endproc
 790              	.LFE71:
 791              		.size	spiStartReceive, .-spiStartReceive
ARM GAS  /tmp/ccGITGlO.s 			page 16


 792 0068 AFF30080 		.text
 792      AFF30080 
 793              	.Letext0:
 794              		.section	.debug_loc,"",%progbits
 795              	.Ldebug_loc0:
 796              	.LLST0:
 797 0000 00000000 		.4byte	.LFB62
 798 0004 02000000 		.4byte	.LCFI0
 799 0008 0200     		.2byte	0x2
 800 000a 7D       		.byte	0x7d
 801 000b 00       		.sleb128 0
 802 000c 02000000 		.4byte	.LCFI0
 803 0010 08000000 		.4byte	.LFE62
 804 0014 0200     		.2byte	0x2
 805 0016 7D       		.byte	0x7d
 806 0017 08       		.sleb128 8
 807 0018 00000000 		.4byte	0x0
 808 001c 00000000 		.4byte	0x0
 809              	.LLST1:
 810 0020 00000000 		.4byte	.LFB63
 811 0024 02000000 		.4byte	.LCFI1
 812 0028 0200     		.2byte	0x2
 813 002a 7D       		.byte	0x7d
 814 002b 00       		.sleb128 0
 815 002c 02000000 		.4byte	.LCFI1
 816 0030 18000000 		.4byte	.LFE63
 817 0034 0200     		.2byte	0x2
 818 0036 7D       		.byte	0x7d
 819 0037 08       		.sleb128 8
 820 0038 00000000 		.4byte	0x0
 821 003c 00000000 		.4byte	0x0
 822              	.LLST2:
 823 0040 00000000 		.4byte	.LFB64
 824 0044 02000000 		.4byte	.LCFI2
 825 0048 0200     		.2byte	0x2
 826 004a 7D       		.byte	0x7d
 827 004b 00       		.sleb128 0
 828 004c 02000000 		.4byte	.LCFI2
 829 0050 04000000 		.4byte	.LCFI3
 830 0054 0200     		.2byte	0x2
 831 0056 7D       		.byte	0x7d
 832 0057 04       		.sleb128 4
 833 0058 04000000 		.4byte	.LCFI3
 834 005c 68000000 		.4byte	.LFE64
 835 0060 0200     		.2byte	0x2
 836 0062 7D       		.byte	0x7d
 837 0063 10       		.sleb128 16
 838 0064 00000000 		.4byte	0x0
 839 0068 00000000 		.4byte	0x0
 840              	.LLST3:
 841 006c 00000000 		.4byte	.LFB65
 842 0070 02000000 		.4byte	.LCFI4
 843 0074 0200     		.2byte	0x2
 844 0076 7D       		.byte	0x7d
 845 0077 00       		.sleb128 0
 846 0078 02000000 		.4byte	.LCFI4
 847 007c 04000000 		.4byte	.LCFI5
ARM GAS  /tmp/ccGITGlO.s 			page 17


 848 0080 0200     		.2byte	0x2
 849 0082 7D       		.byte	0x7d
 850 0083 04       		.sleb128 4
 851 0084 04000000 		.4byte	.LCFI5
 852 0088 60000000 		.4byte	.LFE65
 853 008c 0200     		.2byte	0x2
 854 008e 7D       		.byte	0x7d
 855 008f 10       		.sleb128 16
 856 0090 00000000 		.4byte	0x0
 857 0094 00000000 		.4byte	0x0
 858              	.LLST4:
 859 0098 00000000 		.4byte	.LFB66
 860 009c 02000000 		.4byte	.LCFI6
 861 00a0 0200     		.2byte	0x2
 862 00a2 7D       		.byte	0x7d
 863 00a3 00       		.sleb128 0
 864 00a4 02000000 		.4byte	.LCFI6
 865 00a8 04000000 		.4byte	.LCFI7
 866 00ac 0200     		.2byte	0x2
 867 00ae 7D       		.byte	0x7d
 868 00af 04       		.sleb128 4
 869 00b0 04000000 		.4byte	.LCFI7
 870 00b4 4C000000 		.4byte	.LFE66
 871 00b8 0200     		.2byte	0x2
 872 00ba 7D       		.byte	0x7d
 873 00bb 10       		.sleb128 16
 874 00bc 00000000 		.4byte	0x0
 875 00c0 00000000 		.4byte	0x0
 876              	.LLST5:
 877 00c4 00000000 		.4byte	.LFB67
 878 00c8 02000000 		.4byte	.LCFI8
 879 00cc 0200     		.2byte	0x2
 880 00ce 7D       		.byte	0x7d
 881 00cf 00       		.sleb128 0
 882 00d0 02000000 		.4byte	.LCFI8
 883 00d4 04000000 		.4byte	.LCFI9
 884 00d8 0200     		.2byte	0x2
 885 00da 7D       		.byte	0x7d
 886 00db 04       		.sleb128 4
 887 00dc 04000000 		.4byte	.LCFI9
 888 00e0 4C000000 		.4byte	.LFE67
 889 00e4 0200     		.2byte	0x2
 890 00e6 7D       		.byte	0x7d
 891 00e7 10       		.sleb128 16
 892 00e8 00000000 		.4byte	0x0
 893 00ec 00000000 		.4byte	0x0
 894              	.LLST6:
 895 00f0 00000000 		.4byte	.LFB68
 896 00f4 02000000 		.4byte	.LCFI10
 897 00f8 0200     		.2byte	0x2
 898 00fa 7D       		.byte	0x7d
 899 00fb 00       		.sleb128 0
 900 00fc 02000000 		.4byte	.LCFI10
 901 0100 04000000 		.4byte	.LCFI11
 902 0104 0200     		.2byte	0x2
 903 0106 7D       		.byte	0x7d
 904 0107 04       		.sleb128 4
ARM GAS  /tmp/ccGITGlO.s 			page 18


 905 0108 04000000 		.4byte	.LCFI11
 906 010c 5C000000 		.4byte	.LFE68
 907 0110 0200     		.2byte	0x2
 908 0112 7D       		.byte	0x7d
 909 0113 10       		.sleb128 16
 910 0114 00000000 		.4byte	0x0
 911 0118 00000000 		.4byte	0x0
 912              	.LLST7:
 913 011c 00000000 		.4byte	.LFB69
 914 0120 02000000 		.4byte	.LCFI12
 915 0124 0200     		.2byte	0x2
 916 0126 7D       		.byte	0x7d
 917 0127 00       		.sleb128 0
 918 0128 02000000 		.4byte	.LCFI12
 919 012c 04000000 		.4byte	.LCFI13
 920 0130 0200     		.2byte	0x2
 921 0132 7D       		.byte	0x7d
 922 0133 04       		.sleb128 4
 923 0134 04000000 		.4byte	.LCFI13
 924 0138 70000000 		.4byte	.LFE69
 925 013c 0200     		.2byte	0x2
 926 013e 7D       		.byte	0x7d
 927 013f 18       		.sleb128 24
 928 0140 00000000 		.4byte	0x0
 929 0144 00000000 		.4byte	0x0
 930              	.LLST8:
 931 0148 00000000 		.4byte	.LFB70
 932 014c 02000000 		.4byte	.LCFI14
 933 0150 0200     		.2byte	0x2
 934 0152 7D       		.byte	0x7d
 935 0153 00       		.sleb128 0
 936 0154 02000000 		.4byte	.LCFI14
 937 0158 04000000 		.4byte	.LCFI15
 938 015c 0200     		.2byte	0x2
 939 015e 7D       		.byte	0x7d
 940 015f 04       		.sleb128 4
 941 0160 04000000 		.4byte	.LCFI15
 942 0164 68000000 		.4byte	.LFE70
 943 0168 0200     		.2byte	0x2
 944 016a 7D       		.byte	0x7d
 945 016b 18       		.sleb128 24
 946 016c 00000000 		.4byte	0x0
 947 0170 00000000 		.4byte	0x0
 948              	.LLST9:
 949 0174 00000000 		.4byte	.LFB71
 950 0178 02000000 		.4byte	.LCFI16
 951 017c 0200     		.2byte	0x2
 952 017e 7D       		.byte	0x7d
 953 017f 00       		.sleb128 0
 954 0180 02000000 		.4byte	.LCFI16
 955 0184 04000000 		.4byte	.LCFI17
 956 0188 0200     		.2byte	0x2
 957 018a 7D       		.byte	0x7d
 958 018b 04       		.sleb128 4
 959 018c 04000000 		.4byte	.LCFI17
 960 0190 68000000 		.4byte	.LFE71
 961 0194 0200     		.2byte	0x2
ARM GAS  /tmp/ccGITGlO.s 			page 19


 962 0196 7D       		.byte	0x7d
 963 0197 18       		.sleb128 24
 964 0198 00000000 		.4byte	0x0
 965 019c 00000000 		.4byte	0x0
 966              		.file 2 "/home/z80/programs/code-sourcery/2011.03-42/bin/../lib/gcc/arm-none-eabi/4.5.2/include/st
 967              		.file 3 "/home/z80/programs/code-sourcery/2011.03-42/bin/../lib/gcc/arm-none-eabi/4.5.2/../../../.
 968              		.file 4 "../chibios_2.4.x/os/hal/platforms/STM32F1xx/stm32f10x.h"
 969              		.file 5 "../chibios_2.4.x/os/hal/platforms/STM32F1xx/stm32_dma.h"
 970              		.file 6 "../chibios_2.4.x/os/hal/platforms/STM32/GPIOv1/pal_lld.h"
 971              		.file 7 "../chibios_2.4.x/os/hal/include/spi.h"
 972              		.file 8 "../chibios_2.4.x/os/hal/platforms/STM32/spi_lld.h"
 973              		.file 9 "../chibios_2.4.x/os/ports/common/ARMCMx/CMSIS/include/core_cm3.h"
 974              		.section	.debug_info
 975 0000 18080000 		.4byte	0x818
 976 0004 0200     		.2byte	0x2
 977 0006 00000000 		.4byte	.Ldebug_abbrev0
 978 000a 04       		.byte	0x4
 979 000b 01       		.uleb128 0x1
 980 000c F2020000 		.4byte	.LASF75
 981 0010 01       		.byte	0x1
 982 0011 0A010000 		.4byte	.LASF76
 983 0015 98000000 		.4byte	.LASF77
 984 0019 00000000 		.4byte	0x0
 985 001d 00000000 		.4byte	0x0
 986 0021 00000000 		.4byte	.Ldebug_ranges0+0x0
 987 0025 00000000 		.4byte	.Ldebug_line0
 988 0029 02       		.uleb128 0x2
 989 002a 04       		.byte	0x4
 990 002b 05       		.byte	0x5
 991 002c 696E7400 		.ascii	"int\000"
 992 0030 03       		.uleb128 0x3
 993 0031 36000000 		.4byte	.LASF2
 994 0035 02       		.byte	0x2
 995 0036 D3       		.byte	0xd3
 996 0037 3B000000 		.4byte	0x3b
 997 003b 04       		.uleb128 0x4
 998 003c 04       		.byte	0x4
 999 003d 07       		.byte	0x7
 1000 003e B7010000 		.4byte	.LASF0
 1001 0042 04       		.uleb128 0x4
 1002 0043 01       		.byte	0x1
 1003 0044 06       		.byte	0x6
 1004 0045 CC000000 		.4byte	.LASF1
 1005 0049 03       		.uleb128 0x3
 1006 004a 7F000000 		.4byte	.LASF3
 1007 004e 03       		.byte	0x3
 1008 004f 2A       		.byte	0x2a
 1009 0050 54000000 		.4byte	0x54
 1010 0054 04       		.uleb128 0x4
 1011 0055 01       		.byte	0x1
 1012 0056 08       		.byte	0x8
 1013 0057 62010000 		.4byte	.LASF4
 1014 005b 04       		.uleb128 0x4
 1015 005c 02       		.byte	0x2
 1016 005d 05       		.byte	0x5
 1017 005e 2C000000 		.4byte	.LASF5
 1018 0062 03       		.uleb128 0x3
ARM GAS  /tmp/ccGITGlO.s 			page 20


 1019 0063 39020000 		.4byte	.LASF6
 1020 0067 03       		.byte	0x3
 1021 0068 36       		.byte	0x36
 1022 0069 6D000000 		.4byte	0x6d
 1023 006d 04       		.uleb128 0x4
 1024 006e 02       		.byte	0x2
 1025 006f 07       		.byte	0x7
 1026 0070 DF020000 		.4byte	.LASF7
 1027 0074 03       		.uleb128 0x3
 1028 0075 42020000 		.4byte	.LASF8
 1029 0079 03       		.byte	0x3
 1030 007a 4F       		.byte	0x4f
 1031 007b 7F000000 		.4byte	0x7f
 1032 007f 04       		.uleb128 0x4
 1033 0080 04       		.byte	0x4
 1034 0081 05       		.byte	0x5
 1035 0082 01010000 		.4byte	.LASF9
 1036 0086 03       		.uleb128 0x3
 1037 0087 A4010000 		.4byte	.LASF10
 1038 008b 03       		.byte	0x3
 1039 008c 50       		.byte	0x50
 1040 008d 91000000 		.4byte	0x91
 1041 0091 04       		.uleb128 0x4
 1042 0092 04       		.byte	0x4
 1043 0093 07       		.byte	0x7
 1044 0094 CF010000 		.4byte	.LASF11
 1045 0098 04       		.uleb128 0x4
 1046 0099 08       		.byte	0x8
 1047 009a 05       		.byte	0x5
 1048 009b E2000000 		.4byte	.LASF12
 1049 009f 04       		.uleb128 0x4
 1050 00a0 08       		.byte	0x8
 1051 00a1 07       		.byte	0x7
 1052 00a2 8D010000 		.4byte	.LASF13
 1053 00a6 05       		.uleb128 0x5
 1054 00a7 04       		.byte	0x4
 1055 00a8 06       		.uleb128 0x6
 1056 00a9 86000000 		.4byte	0x86
 1057 00ad 04       		.uleb128 0x4
 1058 00ae 01       		.byte	0x1
 1059 00af 08       		.byte	0x8
 1060 00b0 34020000 		.4byte	.LASF14
 1061 00b4 06       		.uleb128 0x6
 1062 00b5 62000000 		.4byte	0x62
 1063 00b9 06       		.uleb128 0x6
 1064 00ba 74000000 		.4byte	0x74
 1065 00be 07       		.uleb128 0x7
 1066 00bf 10       		.byte	0x10
 1067 00c0 04       		.byte	0x4
 1068 00c1 2D03     		.2byte	0x32d
 1069 00c3 04010000 		.4byte	0x104
 1070 00c7 08       		.uleb128 0x8
 1071 00c8 43435200 		.ascii	"CCR\000"
 1072 00cc 04       		.byte	0x4
 1073 00cd 2F03     		.2byte	0x32f
 1074 00cf A8000000 		.4byte	0xa8
 1075 00d3 02       		.byte	0x2
ARM GAS  /tmp/ccGITGlO.s 			page 21


 1076 00d4 23       		.byte	0x23
 1077 00d5 00       		.uleb128 0x0
 1078 00d6 09       		.uleb128 0x9
 1079 00d7 2E020000 		.4byte	.LASF15
 1080 00db 04       		.byte	0x4
 1081 00dc 3003     		.2byte	0x330
 1082 00de A8000000 		.4byte	0xa8
 1083 00e2 02       		.byte	0x2
 1084 00e3 23       		.byte	0x23
 1085 00e4 04       		.uleb128 0x4
 1086 00e5 09       		.uleb128 0x9
 1087 00e6 44010000 		.4byte	.LASF16
 1088 00ea 04       		.byte	0x4
 1089 00eb 3103     		.2byte	0x331
 1090 00ed A8000000 		.4byte	0xa8
 1091 00f1 02       		.byte	0x2
 1092 00f2 23       		.byte	0x23
 1093 00f3 08       		.uleb128 0x8
 1094 00f4 09       		.uleb128 0x9
 1095 00f5 FE020000 		.4byte	.LASF17
 1096 00f9 04       		.byte	0x4
 1097 00fa 3203     		.2byte	0x332
 1098 00fc A8000000 		.4byte	0xa8
 1099 0100 02       		.byte	0x2
 1100 0101 23       		.byte	0x23
 1101 0102 0C       		.uleb128 0xc
 1102 0103 00       		.byte	0x0
 1103 0104 0A       		.uleb128 0xa
 1104 0105 FF010000 		.4byte	.LASF18
 1105 0109 04       		.byte	0x4
 1106 010a 3303     		.2byte	0x333
 1107 010c BE000000 		.4byte	0xbe
 1108 0110 07       		.uleb128 0x7
 1109 0111 1C       		.byte	0x1c
 1110 0112 04       		.byte	0x4
 1111 0113 F803     		.2byte	0x3f8
 1112 0115 83010000 		.4byte	0x183
 1113 0119 08       		.uleb128 0x8
 1114 011a 43524C00 		.ascii	"CRL\000"
 1115 011e 04       		.byte	0x4
 1116 011f FA03     		.2byte	0x3fa
 1117 0121 A8000000 		.4byte	0xa8
 1118 0125 02       		.byte	0x2
 1119 0126 23       		.byte	0x23
 1120 0127 00       		.uleb128 0x0
 1121 0128 08       		.uleb128 0x8
 1122 0129 43524800 		.ascii	"CRH\000"
 1123 012d 04       		.byte	0x4
 1124 012e FB03     		.2byte	0x3fb
 1125 0130 A8000000 		.4byte	0xa8
 1126 0134 02       		.byte	0x2
 1127 0135 23       		.byte	0x23
 1128 0136 04       		.uleb128 0x4
 1129 0137 08       		.uleb128 0x8
 1130 0138 49445200 		.ascii	"IDR\000"
 1131 013c 04       		.byte	0x4
 1132 013d FC03     		.2byte	0x3fc
ARM GAS  /tmp/ccGITGlO.s 			page 22


 1133 013f A8000000 		.4byte	0xa8
 1134 0143 02       		.byte	0x2
 1135 0144 23       		.byte	0x23
 1136 0145 08       		.uleb128 0x8
 1137 0146 08       		.uleb128 0x8
 1138 0147 4F445200 		.ascii	"ODR\000"
 1139 014b 04       		.byte	0x4
 1140 014c FD03     		.2byte	0x3fd
 1141 014e A8000000 		.4byte	0xa8
 1142 0152 02       		.byte	0x2
 1143 0153 23       		.byte	0x23
 1144 0154 0C       		.uleb128 0xc
 1145 0155 09       		.uleb128 0x9
 1146 0156 51030000 		.4byte	.LASF19
 1147 015a 04       		.byte	0x4
 1148 015b FE03     		.2byte	0x3fe
 1149 015d A8000000 		.4byte	0xa8
 1150 0161 02       		.byte	0x2
 1151 0162 23       		.byte	0x23
 1152 0163 10       		.uleb128 0x10
 1153 0164 08       		.uleb128 0x8
 1154 0165 42525200 		.ascii	"BRR\000"
 1155 0169 04       		.byte	0x4
 1156 016a FF03     		.2byte	0x3ff
 1157 016c A8000000 		.4byte	0xa8
 1158 0170 02       		.byte	0x2
 1159 0171 23       		.byte	0x23
 1160 0172 14       		.uleb128 0x14
 1161 0173 09       		.uleb128 0x9
 1162 0174 4C030000 		.4byte	.LASF20
 1163 0178 04       		.byte	0x4
 1164 0179 0004     		.2byte	0x400
 1165 017b A8000000 		.4byte	0xa8
 1166 017f 02       		.byte	0x2
 1167 0180 23       		.byte	0x23
 1168 0181 18       		.uleb128 0x18
 1169 0182 00       		.byte	0x0
 1170 0183 0A       		.uleb128 0xa
 1171 0184 00000000 		.4byte	.LASF21
 1172 0188 04       		.byte	0x4
 1173 0189 0104     		.2byte	0x401
 1174 018b 10010000 		.4byte	0x110
 1175 018f 07       		.uleb128 0x7
 1176 0190 24       		.byte	0x24
 1177 0191 04       		.byte	0x4
 1178 0192 9704     		.2byte	0x497
 1179 0194 A5020000 		.4byte	0x2a5
 1180 0198 08       		.uleb128 0x8
 1181 0199 43523100 		.ascii	"CR1\000"
 1182 019d 04       		.byte	0x4
 1183 019e 9904     		.2byte	0x499
 1184 01a0 B4000000 		.4byte	0xb4
 1185 01a4 02       		.byte	0x2
 1186 01a5 23       		.byte	0x23
 1187 01a6 00       		.uleb128 0x0
 1188 01a7 09       		.uleb128 0x9
 1189 01a8 85020000 		.4byte	.LASF22
ARM GAS  /tmp/ccGITGlO.s 			page 23


 1190 01ac 04       		.byte	0x4
 1191 01ad 9A04     		.2byte	0x49a
 1192 01af 62000000 		.4byte	0x62
 1193 01b3 02       		.byte	0x2
 1194 01b4 23       		.byte	0x23
 1195 01b5 02       		.uleb128 0x2
 1196 01b6 08       		.uleb128 0x8
 1197 01b7 43523200 		.ascii	"CR2\000"
 1198 01bb 04       		.byte	0x4
 1199 01bc 9B04     		.2byte	0x49b
 1200 01be B4000000 		.4byte	0xb4
 1201 01c2 02       		.byte	0x2
 1202 01c3 23       		.byte	0x23
 1203 01c4 04       		.uleb128 0x4
 1204 01c5 09       		.uleb128 0x9
 1205 01c6 8F020000 		.4byte	.LASF23
 1206 01ca 04       		.byte	0x4
 1207 01cb 9C04     		.2byte	0x49c
 1208 01cd 62000000 		.4byte	0x62
 1209 01d1 02       		.byte	0x2
 1210 01d2 23       		.byte	0x23
 1211 01d3 06       		.uleb128 0x6
 1212 01d4 08       		.uleb128 0x8
 1213 01d5 535200   		.ascii	"SR\000"
 1214 01d8 04       		.byte	0x4
 1215 01d9 9D04     		.2byte	0x49d
 1216 01db B4000000 		.4byte	0xb4
 1217 01df 02       		.byte	0x2
 1218 01e0 23       		.byte	0x23
 1219 01e1 08       		.uleb128 0x8
 1220 01e2 09       		.uleb128 0x9
 1221 01e3 99020000 		.4byte	.LASF24
 1222 01e7 04       		.byte	0x4
 1223 01e8 9E04     		.2byte	0x49e
 1224 01ea 62000000 		.4byte	0x62
 1225 01ee 02       		.byte	0x2
 1226 01ef 23       		.byte	0x23
 1227 01f0 0A       		.uleb128 0xa
 1228 01f1 08       		.uleb128 0x8
 1229 01f2 445200   		.ascii	"DR\000"
 1230 01f5 04       		.byte	0x4
 1231 01f6 9F04     		.2byte	0x49f
 1232 01f8 B4000000 		.4byte	0xb4
 1233 01fc 02       		.byte	0x2
 1234 01fd 23       		.byte	0x23
 1235 01fe 0C       		.uleb128 0xc
 1236 01ff 09       		.uleb128 0x9
 1237 0200 A3020000 		.4byte	.LASF25
 1238 0204 04       		.byte	0x4
 1239 0205 A004     		.2byte	0x4a0
 1240 0207 62000000 		.4byte	0x62
 1241 020b 02       		.byte	0x2
 1242 020c 23       		.byte	0x23
 1243 020d 0E       		.uleb128 0xe
 1244 020e 09       		.uleb128 0x9
 1245 020f 7F020000 		.4byte	.LASF26
 1246 0213 04       		.byte	0x4
ARM GAS  /tmp/ccGITGlO.s 			page 24


 1247 0214 A104     		.2byte	0x4a1
 1248 0216 B4000000 		.4byte	0xb4
 1249 021a 02       		.byte	0x2
 1250 021b 23       		.byte	0x23
 1251 021c 10       		.uleb128 0x10
 1252 021d 09       		.uleb128 0x9
 1253 021e AD020000 		.4byte	.LASF27
 1254 0222 04       		.byte	0x4
 1255 0223 A204     		.2byte	0x4a2
 1256 0225 62000000 		.4byte	0x62
 1257 0229 02       		.byte	0x2
 1258 022a 23       		.byte	0x23
 1259 022b 12       		.uleb128 0x12
 1260 022c 09       		.uleb128 0x9
 1261 022d 5B000000 		.4byte	.LASF28
 1262 0231 04       		.byte	0x4
 1263 0232 A304     		.2byte	0x4a3
 1264 0234 B4000000 		.4byte	0xb4
 1265 0238 02       		.byte	0x2
 1266 0239 23       		.byte	0x23
 1267 023a 14       		.uleb128 0x14
 1268 023b 09       		.uleb128 0x9
 1269 023c B7020000 		.4byte	.LASF29
 1270 0240 04       		.byte	0x4
 1271 0241 A404     		.2byte	0x4a4
 1272 0243 62000000 		.4byte	0x62
 1273 0247 02       		.byte	0x2
 1274 0248 23       		.byte	0x23
 1275 0249 16       		.uleb128 0x16
 1276 024a 09       		.uleb128 0x9
 1277 024b 4D000000 		.4byte	.LASF30
 1278 024f 04       		.byte	0x4
 1279 0250 A504     		.2byte	0x4a5
 1280 0252 B4000000 		.4byte	0xb4
 1281 0256 02       		.byte	0x2
 1282 0257 23       		.byte	0x23
 1283 0258 18       		.uleb128 0x18
 1284 0259 09       		.uleb128 0x9
 1285 025a C1020000 		.4byte	.LASF31
 1286 025e 04       		.byte	0x4
 1287 025f A604     		.2byte	0x4a6
 1288 0261 62000000 		.4byte	0x62
 1289 0265 02       		.byte	0x2
 1290 0266 23       		.byte	0x23
 1291 0267 1A       		.uleb128 0x1a
 1292 0268 09       		.uleb128 0x9
 1293 0269 45000000 		.4byte	.LASF32
 1294 026d 04       		.byte	0x4
 1295 026e A704     		.2byte	0x4a7
 1296 0270 B4000000 		.4byte	0xb4
 1297 0274 02       		.byte	0x2
 1298 0275 23       		.byte	0x23
 1299 0276 1C       		.uleb128 0x1c
 1300 0277 09       		.uleb128 0x9
 1301 0278 CB020000 		.4byte	.LASF33
 1302 027c 04       		.byte	0x4
 1303 027d A804     		.2byte	0x4a8
ARM GAS  /tmp/ccGITGlO.s 			page 25


 1304 027f 62000000 		.4byte	0x62
 1305 0283 02       		.byte	0x2
 1306 0284 23       		.byte	0x23
 1307 0285 1E       		.uleb128 0x1e
 1308 0286 09       		.uleb128 0x9
 1309 0287 46030000 		.4byte	.LASF34
 1310 028b 04       		.byte	0x4
 1311 028c A904     		.2byte	0x4a9
 1312 028e B4000000 		.4byte	0xb4
 1313 0292 02       		.byte	0x2
 1314 0293 23       		.byte	0x23
 1315 0294 20       		.uleb128 0x20
 1316 0295 09       		.uleb128 0x9
 1317 0296 D5020000 		.4byte	.LASF35
 1318 029a 04       		.byte	0x4
 1319 029b AA04     		.2byte	0x4aa
 1320 029d 62000000 		.4byte	0x62
 1321 02a1 02       		.byte	0x2
 1322 02a2 23       		.byte	0x23
 1323 02a3 22       		.uleb128 0x22
 1324 02a4 00       		.byte	0x0
 1325 02a5 0A       		.uleb128 0xa
 1326 02a6 70010000 		.4byte	.LASF36
 1327 02aa 04       		.byte	0x4
 1328 02ab AB04     		.2byte	0x4ab
 1329 02ad 8F010000 		.4byte	0x18f
 1330 02b1 0B       		.uleb128 0xb
 1331 02b2 0C       		.byte	0xc
 1332 02b3 05       		.byte	0x5
 1333 02b4 C2       		.byte	0xc2
 1334 02b5 00030000 		.4byte	0x300
 1335 02b9 0C       		.uleb128 0xc
 1336 02ba 77020000 		.4byte	.LASF37
 1337 02be 05       		.byte	0x5
 1338 02bf C3       		.byte	0xc3
 1339 02c0 00030000 		.4byte	0x300
 1340 02c4 02       		.byte	0x2
 1341 02c5 23       		.byte	0x23
 1342 02c6 00       		.uleb128 0x0
 1343 02c7 0C       		.uleb128 0xc
 1344 02c8 49010000 		.4byte	.LASF38
 1345 02cc 05       		.byte	0x5
 1346 02cd C4       		.byte	0xc4
 1347 02ce 06030000 		.4byte	0x306
 1348 02d2 02       		.byte	0x2
 1349 02d3 23       		.byte	0x23
 1350 02d4 04       		.uleb128 0x4
 1351 02d5 0C       		.uleb128 0xc
 1352 02d6 24030000 		.4byte	.LASF39
 1353 02da 05       		.byte	0x5
 1354 02db C5       		.byte	0xc5
 1355 02dc 49000000 		.4byte	0x49
 1356 02e0 02       		.byte	0x2
 1357 02e1 23       		.byte	0x23
 1358 02e2 08       		.uleb128 0x8
 1359 02e3 0C       		.uleb128 0xc
 1360 02e4 AD010000 		.4byte	.LASF40
ARM GAS  /tmp/ccGITGlO.s 			page 26


 1361 02e8 05       		.byte	0x5
 1362 02e9 C7       		.byte	0xc7
 1363 02ea 49000000 		.4byte	0x49
 1364 02ee 02       		.byte	0x2
 1365 02ef 23       		.byte	0x23
 1366 02f0 09       		.uleb128 0x9
 1367 02f1 0C       		.uleb128 0xc
 1368 02f2 91000000 		.4byte	.LASF41
 1369 02f6 05       		.byte	0x5
 1370 02f7 C8       		.byte	0xc8
 1371 02f8 49000000 		.4byte	0x49
 1372 02fc 02       		.byte	0x2
 1373 02fd 23       		.byte	0x23
 1374 02fe 0A       		.uleb128 0xa
 1375 02ff 00       		.byte	0x0
 1376 0300 0D       		.uleb128 0xd
 1377 0301 04       		.byte	0x4
 1378 0302 04010000 		.4byte	0x104
 1379 0306 0D       		.uleb128 0xd
 1380 0307 04       		.byte	0x4
 1381 0308 A8000000 		.4byte	0xa8
 1382 030c 03       		.uleb128 0x3
 1383 030d 6C000000 		.4byte	.LASF42
 1384 0311 05       		.byte	0x5
 1385 0312 C9       		.byte	0xc9
 1386 0313 B1020000 		.4byte	0x2b1
 1387 0317 03       		.uleb128 0x3
 1388 0318 4E010000 		.4byte	.LASF43
 1389 031c 06       		.byte	0x6
 1390 031d 85       		.byte	0x85
 1391 031e 22030000 		.4byte	0x322
 1392 0322 0D       		.uleb128 0xd
 1393 0323 04       		.byte	0x4
 1394 0324 83010000 		.4byte	0x183
 1395 0328 0D       		.uleb128 0xd
 1396 0329 04       		.byte	0x4
 1397 032a 2E030000 		.4byte	0x32e
 1398 032e 0E       		.uleb128 0xe
 1399 032f 0C030000 		.4byte	0x30c
 1400 0333 0F       		.uleb128 0xf
 1401 0334 01       		.byte	0x1
 1402 0335 07       		.byte	0x7
 1403 0336 55       		.byte	0x55
 1404 0337 5A030000 		.4byte	0x35a
 1405 033b 10       		.uleb128 0x10
 1406 033c C4010000 		.4byte	.LASF44
 1407 0340 00       		.sleb128 0
 1408 0341 10       		.uleb128 0x10
 1409 0342 F6010000 		.4byte	.LASF45
 1410 0346 01       		.sleb128 1
 1411 0347 10       		.uleb128 0x10
 1412 0348 4A020000 		.4byte	.LASF46
 1413 034c 02       		.sleb128 2
 1414 034d 10       		.uleb128 0x10
 1415 034e 62020000 		.4byte	.LASF47
 1416 0352 03       		.sleb128 3
 1417 0353 10       		.uleb128 0x10
ARM GAS  /tmp/ccGITGlO.s 			page 27


 1418 0354 21020000 		.4byte	.LASF48
 1419 0358 04       		.sleb128 4
 1420 0359 00       		.byte	0x0
 1421 035a 03       		.uleb128 0x3
 1422 035b 13030000 		.4byte	.LASF49
 1423 035f 07       		.byte	0x7
 1424 0360 5B       		.byte	0x5b
 1425 0361 33030000 		.4byte	0x333
 1426 0365 0A       		.uleb128 0xa
 1427 0366 6D020000 		.4byte	.LASF50
 1428 036a 08       		.byte	0x8
 1429 036b 0701     		.2byte	0x107
 1430 036d 71030000 		.4byte	0x371
 1431 0371 11       		.uleb128 0x11
 1432 0372 6D020000 		.4byte	.LASF50
 1433 0376 1C       		.byte	0x1c
 1434 0377 08       		.byte	0x8
 1435 0378 2B01     		.2byte	0x12b
 1436 037a E8030000 		.4byte	0x3e8
 1437 037e 09       		.uleb128 0x9
 1438 037f 26000000 		.4byte	.LASF51
 1439 0383 08       		.byte	0x8
 1440 0384 2F01     		.2byte	0x12f
 1441 0386 5A030000 		.4byte	0x35a
 1442 038a 02       		.byte	0x2
 1443 038b 23       		.byte	0x23
 1444 038c 00       		.uleb128 0x0
 1445 038d 09       		.uleb128 0x9
 1446 038e 54000000 		.4byte	.LASF52
 1447 0392 08       		.byte	0x8
 1448 0393 3301     		.2byte	0x133
 1449 0395 5E040000 		.4byte	0x45e
 1450 0399 02       		.byte	0x2
 1451 039a 23       		.byte	0x23
 1452 039b 04       		.uleb128 0x4
 1453 039c 08       		.uleb128 0x8
 1454 039d 73706900 		.ascii	"spi\000"
 1455 03a1 08       		.byte	0x8
 1456 03a2 4B01     		.2byte	0x14b
 1457 03a4 69040000 		.4byte	0x469
 1458 03a8 02       		.byte	0x2
 1459 03a9 23       		.byte	0x23
 1460 03aa 08       		.uleb128 0x8
 1461 03ab 09       		.uleb128 0x9
 1462 03ac 20000000 		.4byte	.LASF53
 1463 03b0 08       		.byte	0x8
 1464 03b1 4F01     		.2byte	0x14f
 1465 03b3 28030000 		.4byte	0x328
 1466 03b7 02       		.byte	0x2
 1467 03b8 23       		.byte	0x23
 1468 03b9 0C       		.uleb128 0xc
 1469 03ba 09       		.uleb128 0x9
 1470 03bb E1010000 		.4byte	.LASF54
 1471 03bf 08       		.byte	0x8
 1472 03c0 5301     		.2byte	0x153
 1473 03c2 28030000 		.4byte	0x328
 1474 03c6 02       		.byte	0x2
ARM GAS  /tmp/ccGITGlO.s 			page 28


 1475 03c7 23       		.byte	0x23
 1476 03c8 10       		.uleb128 0x10
 1477 03c9 09       		.uleb128 0x9
 1478 03ca 3A010000 		.4byte	.LASF55
 1479 03ce 08       		.byte	0x8
 1480 03cf 5701     		.2byte	0x157
 1481 03d1 86000000 		.4byte	0x86
 1482 03d5 02       		.byte	0x2
 1483 03d6 23       		.byte	0x23
 1484 03d7 14       		.uleb128 0x14
 1485 03d8 09       		.uleb128 0x9
 1486 03d9 62000000 		.4byte	.LASF56
 1487 03dd 08       		.byte	0x8
 1488 03de 5B01     		.2byte	0x15b
 1489 03e0 86000000 		.4byte	0x86
 1490 03e4 02       		.byte	0x2
 1491 03e5 23       		.byte	0x23
 1492 03e6 18       		.uleb128 0x18
 1493 03e7 00       		.byte	0x0
 1494 03e8 0A       		.uleb128 0xa
 1495 03e9 2C010000 		.4byte	.LASF57
 1496 03ed 08       		.byte	0x8
 1497 03ee 0F01     		.2byte	0x10f
 1498 03f0 F4030000 		.4byte	0x3f4
 1499 03f4 0D       		.uleb128 0xd
 1500 03f5 04       		.byte	0x4
 1501 03f6 FA030000 		.4byte	0x3fa
 1502 03fa 12       		.uleb128 0x12
 1503 03fb 01       		.byte	0x1
 1504 03fc 06040000 		.4byte	0x406
 1505 0400 13       		.uleb128 0x13
 1506 0401 06040000 		.4byte	0x406
 1507 0405 00       		.byte	0x0
 1508 0406 0D       		.uleb128 0xd
 1509 0407 04       		.byte	0x4
 1510 0408 65030000 		.4byte	0x365
 1511 040c 07       		.uleb128 0x7
 1512 040d 0C       		.byte	0xc
 1513 040e 08       		.byte	0x8
 1514 040f 1401     		.2byte	0x114
 1515 0411 52040000 		.4byte	0x452
 1516 0415 09       		.uleb128 0x9
 1517 0416 3F030000 		.4byte	.LASF58
 1518 041a 08       		.byte	0x8
 1519 041b 1801     		.2byte	0x118
 1520 041d E8030000 		.4byte	0x3e8
 1521 0421 02       		.byte	0x2
 1522 0422 23       		.byte	0x23
 1523 0423 00       		.uleb128 0x0
 1524 0424 09       		.uleb128 0x9
 1525 0425 38030000 		.4byte	.LASF59
 1526 0429 08       		.byte	0x8
 1527 042a 1D01     		.2byte	0x11d
 1528 042c 17030000 		.4byte	0x317
 1529 0430 02       		.byte	0x2
 1530 0431 23       		.byte	0x23
 1531 0432 04       		.uleb128 0x4
ARM GAS  /tmp/ccGITGlO.s 			page 29


 1532 0433 09       		.uleb128 0x9
 1533 0434 0D000000 		.4byte	.LASF60
 1534 0438 08       		.byte	0x8
 1535 0439 2101     		.2byte	0x121
 1536 043b 62000000 		.4byte	0x62
 1537 043f 02       		.byte	0x2
 1538 0440 23       		.byte	0x23
 1539 0441 08       		.uleb128 0x8
 1540 0442 08       		.uleb128 0x8
 1541 0443 63723100 		.ascii	"cr1\000"
 1542 0447 08       		.byte	0x8
 1543 0448 2501     		.2byte	0x125
 1544 044a 62000000 		.4byte	0x62
 1545 044e 02       		.byte	0x2
 1546 044f 23       		.byte	0x23
 1547 0450 0A       		.uleb128 0xa
 1548 0451 00       		.byte	0x0
 1549 0452 0A       		.uleb128 0xa
 1550 0453 D8000000 		.4byte	.LASF61
 1551 0457 08       		.byte	0x8
 1552 0458 2601     		.2byte	0x126
 1553 045a 0C040000 		.4byte	0x40c
 1554 045e 0D       		.uleb128 0xd
 1555 045f 04       		.byte	0x4
 1556 0460 64040000 		.4byte	0x464
 1557 0464 0E       		.uleb128 0xe
 1558 0465 52040000 		.4byte	0x452
 1559 0469 0D       		.uleb128 0xd
 1560 046a 04       		.byte	0x4
 1561 046b A5020000 		.4byte	0x2a5
 1562 046f 14       		.uleb128 0x14
 1563 0470 01       		.byte	0x1
 1564 0471 3D000000 		.4byte	.LASF78
 1565 0475 01       		.byte	0x1
 1566 0476 44       		.byte	0x44
 1567 0477 01       		.byte	0x1
 1568 0478 00000000 		.4byte	.LFB62
 1569 047c 08000000 		.4byte	.LFE62
 1570 0480 00000000 		.4byte	.LLST0
 1571 0484 15       		.uleb128 0x15
 1572 0485 01       		.byte	0x1
 1573 0486 54020000 		.4byte	.LASF62
 1574 048a 01       		.byte	0x1
 1575 048b 50       		.byte	0x50
 1576 048c 01       		.byte	0x1
 1577 048d 00000000 		.4byte	.LFB63
 1578 0491 18000000 		.4byte	.LFE63
 1579 0495 20000000 		.4byte	.LLST1
 1580 0499 AC040000 		.4byte	0x4ac
 1581 049d 16       		.uleb128 0x16
 1582 049e 7C010000 		.4byte	.LASF64
 1583 04a2 01       		.byte	0x1
 1584 04a3 50       		.byte	0x50
 1585 04a4 06040000 		.4byte	0x406
 1586 04a8 02       		.byte	0x2
 1587 04a9 91       		.byte	0x91
 1588 04aa 7C       		.sleb128 -4
ARM GAS  /tmp/ccGITGlO.s 			page 30


 1589 04ab 00       		.byte	0x0
 1590 04ac 15       		.uleb128 0x15
 1591 04ad 01       		.byte	0x1
 1592 04ae 59010000 		.4byte	.LASF63
 1593 04b2 01       		.byte	0x1
 1594 04b3 6B       		.byte	0x6b
 1595 04b4 01       		.byte	0x1
 1596 04b5 00000000 		.4byte	.LFB64
 1597 04b9 68000000 		.4byte	.LFE64
 1598 04bd 40000000 		.4byte	.LLST2
 1599 04c1 14050000 		.4byte	0x514
 1600 04c5 16       		.uleb128 0x16
 1601 04c6 7C010000 		.4byte	.LASF64
 1602 04ca 01       		.byte	0x1
 1603 04cb 6B       		.byte	0x6b
 1604 04cc 06040000 		.4byte	0x406
 1605 04d0 02       		.byte	0x2
 1606 04d1 91       		.byte	0x91
 1607 04d2 74       		.sleb128 -12
 1608 04d3 16       		.uleb128 0x16
 1609 04d4 54000000 		.4byte	.LASF52
 1610 04d8 01       		.byte	0x1
 1611 04d9 6B       		.byte	0x6b
 1612 04da 5E040000 		.4byte	0x45e
 1613 04de 02       		.byte	0x2
 1614 04df 91       		.byte	0x91
 1615 04e0 70       		.sleb128 -16
 1616 04e1 17       		.uleb128 0x17
 1617 04e2 1A000000 		.4byte	.LBB2
 1618 04e6 22000000 		.4byte	.LBE2
 1619 04ea FC040000 		.4byte	0x4fc
 1620 04ee 18       		.uleb128 0x18
 1621 04ef 746D7000 		.ascii	"tmp\000"
 1622 04f3 01       		.byte	0x1
 1623 04f4 6F       		.byte	0x6f
 1624 04f5 86000000 		.4byte	0x86
 1625 04f9 01       		.byte	0x1
 1626 04fa 53       		.byte	0x53
 1627 04fb 00       		.byte	0x0
 1628 04fc 19       		.uleb128 0x19
 1629 04fd 54000000 		.4byte	.LBB3
 1630 0501 5C000000 		.4byte	.LBE3
 1631 0505 18       		.uleb128 0x18
 1632 0506 746D7000 		.ascii	"tmp\000"
 1633 050a 01       		.byte	0x1
 1634 050b 75       		.byte	0x75
 1635 050c 86000000 		.4byte	0x86
 1636 0510 01       		.byte	0x1
 1637 0511 53       		.byte	0x53
 1638 0512 00       		.byte	0x0
 1639 0513 00       		.byte	0x0
 1640 0514 15       		.uleb128 0x15
 1641 0515 01       		.byte	0x1
 1642 0516 19020000 		.4byte	.LASF65
 1643 051a 01       		.byte	0x1
 1644 051b 81       		.byte	0x81
 1645 051c 01       		.byte	0x1
ARM GAS  /tmp/ccGITGlO.s 			page 31


 1646 051d 00000000 		.4byte	.LFB65
 1647 0521 60000000 		.4byte	.LFE65
 1648 0525 6C000000 		.4byte	.LLST3
 1649 0529 6E050000 		.4byte	0x56e
 1650 052d 16       		.uleb128 0x16
 1651 052e 7C010000 		.4byte	.LASF64
 1652 0532 01       		.byte	0x1
 1653 0533 81       		.byte	0x81
 1654 0534 06040000 		.4byte	0x406
 1655 0538 02       		.byte	0x2
 1656 0539 91       		.byte	0x91
 1657 053a 74       		.sleb128 -12
 1658 053b 17       		.uleb128 0x17
 1659 053c 12000000 		.4byte	.LBB4
 1660 0540 1A000000 		.4byte	.LBE4
 1661 0544 56050000 		.4byte	0x556
 1662 0548 18       		.uleb128 0x18
 1663 0549 746D7000 		.ascii	"tmp\000"
 1664 054d 01       		.byte	0x1
 1665 054e 85       		.byte	0x85
 1666 054f 86000000 		.4byte	0x86
 1667 0553 01       		.byte	0x1
 1668 0554 53       		.byte	0x53
 1669 0555 00       		.byte	0x0
 1670 0556 19       		.uleb128 0x19
 1671 0557 4C000000 		.4byte	.LBB5
 1672 055b 54000000 		.4byte	.LBE5
 1673 055f 18       		.uleb128 0x18
 1674 0560 746D7000 		.ascii	"tmp\000"
 1675 0564 01       		.byte	0x1
 1676 0565 8B       		.byte	0x8b
 1677 0566 86000000 		.4byte	0x86
 1678 056a 01       		.byte	0x1
 1679 056b 53       		.byte	0x53
 1680 056c 00       		.byte	0x0
 1681 056d 00       		.byte	0x0
 1682 056e 15       		.uleb128 0x15
 1683 056f 01       		.byte	0x1
 1684 0570 87000000 		.4byte	.LASF66
 1685 0574 01       		.byte	0x1
 1686 0575 95       		.byte	0x95
 1687 0576 01       		.byte	0x1
 1688 0577 00000000 		.4byte	.LFB66
 1689 057b 4C000000 		.4byte	.LFE66
 1690 057f 98000000 		.4byte	.LLST4
 1691 0583 C8050000 		.4byte	0x5c8
 1692 0587 16       		.uleb128 0x16
 1693 0588 7C010000 		.4byte	.LASF64
 1694 058c 01       		.byte	0x1
 1695 058d 95       		.byte	0x95
 1696 058e 06040000 		.4byte	0x406
 1697 0592 02       		.byte	0x2
 1698 0593 91       		.byte	0x91
 1699 0594 74       		.sleb128 -12
 1700 0595 17       		.uleb128 0x17
 1701 0596 12000000 		.4byte	.LBB6
 1702 059a 1A000000 		.4byte	.LBE6
ARM GAS  /tmp/ccGITGlO.s 			page 32


 1703 059e B0050000 		.4byte	0x5b0
 1704 05a2 18       		.uleb128 0x18
 1705 05a3 746D7000 		.ascii	"tmp\000"
 1706 05a7 01       		.byte	0x1
 1707 05a8 99       		.byte	0x99
 1708 05a9 86000000 		.4byte	0x86
 1709 05ad 01       		.byte	0x1
 1710 05ae 53       		.byte	0x53
 1711 05af 00       		.byte	0x0
 1712 05b0 19       		.uleb128 0x19
 1713 05b1 36000000 		.4byte	.LBB7
 1714 05b5 3E000000 		.4byte	.LBE7
 1715 05b9 18       		.uleb128 0x18
 1716 05ba 746D7000 		.ascii	"tmp\000"
 1717 05be 01       		.byte	0x1
 1718 05bf 9C       		.byte	0x9c
 1719 05c0 86000000 		.4byte	0x86
 1720 05c4 01       		.byte	0x1
 1721 05c5 53       		.byte	0x53
 1722 05c6 00       		.byte	0x0
 1723 05c7 00       		.byte	0x0
 1724 05c8 15       		.uleb128 0x15
 1725 05c9 01       		.byte	0x1
 1726 05ca 81010000 		.4byte	.LASF67
 1727 05ce 01       		.byte	0x1
 1728 05cf A7       		.byte	0xa7
 1729 05d0 01       		.byte	0x1
 1730 05d1 00000000 		.4byte	.LFB67
 1731 05d5 4C000000 		.4byte	.LFE67
 1732 05d9 C4000000 		.4byte	.LLST5
 1733 05dd 22060000 		.4byte	0x622
 1734 05e1 16       		.uleb128 0x16
 1735 05e2 7C010000 		.4byte	.LASF64
 1736 05e6 01       		.byte	0x1
 1737 05e7 A7       		.byte	0xa7
 1738 05e8 06040000 		.4byte	0x406
 1739 05ec 02       		.byte	0x2
 1740 05ed 91       		.byte	0x91
 1741 05ee 74       		.sleb128 -12
 1742 05ef 17       		.uleb128 0x17
 1743 05f0 12000000 		.4byte	.LBB8
 1744 05f4 1A000000 		.4byte	.LBE8
 1745 05f8 0A060000 		.4byte	0x60a
 1746 05fc 18       		.uleb128 0x18
 1747 05fd 746D7000 		.ascii	"tmp\000"
 1748 0601 01       		.byte	0x1
 1749 0602 AB       		.byte	0xab
 1750 0603 86000000 		.4byte	0x86
 1751 0607 01       		.byte	0x1
 1752 0608 53       		.byte	0x53
 1753 0609 00       		.byte	0x0
 1754 060a 19       		.uleb128 0x19
 1755 060b 36000000 		.4byte	.LBB9
 1756 060f 3E000000 		.4byte	.LBE9
 1757 0613 18       		.uleb128 0x18
 1758 0614 746D7000 		.ascii	"tmp\000"
 1759 0618 01       		.byte	0x1
ARM GAS  /tmp/ccGITGlO.s 			page 33


 1760 0619 AE       		.byte	0xae
 1761 061a 86000000 		.4byte	0x86
 1762 061e 01       		.byte	0x1
 1763 061f 53       		.byte	0x53
 1764 0620 00       		.byte	0x0
 1765 0621 00       		.byte	0x0
 1766 0622 15       		.uleb128 0x15
 1767 0623 01       		.byte	0x1
 1768 0624 E7010000 		.4byte	.LASF68
 1769 0628 01       		.byte	0x1
 1770 0629 BE       		.byte	0xbe
 1771 062a 01       		.byte	0x1
 1772 062b 00000000 		.4byte	.LFB68
 1773 062f 5C000000 		.4byte	.LFE68
 1774 0633 F0000000 		.4byte	.LLST6
 1775 0637 88060000 		.4byte	0x688
 1776 063b 16       		.uleb128 0x16
 1777 063c 7C010000 		.4byte	.LASF64
 1778 0640 01       		.byte	0x1
 1779 0641 BE       		.byte	0xbe
 1780 0642 06040000 		.4byte	0x406
 1781 0646 02       		.byte	0x2
 1782 0647 91       		.byte	0x91
 1783 0648 74       		.sleb128 -12
 1784 0649 1A       		.uleb128 0x1a
 1785 064a 6E00     		.ascii	"n\000"
 1786 064c 01       		.byte	0x1
 1787 064d BE       		.byte	0xbe
 1788 064e 30000000 		.4byte	0x30
 1789 0652 02       		.byte	0x2
 1790 0653 91       		.byte	0x91
 1791 0654 70       		.sleb128 -16
 1792 0655 17       		.uleb128 0x17
 1793 0656 1A000000 		.4byte	.LBB10
 1794 065a 22000000 		.4byte	.LBE10
 1795 065e 70060000 		.4byte	0x670
 1796 0662 18       		.uleb128 0x18
 1797 0663 746D7000 		.ascii	"tmp\000"
 1798 0667 01       		.byte	0x1
 1799 0668 C2       		.byte	0xc2
 1800 0669 86000000 		.4byte	0x86
 1801 066d 01       		.byte	0x1
 1802 066e 53       		.byte	0x53
 1803 066f 00       		.byte	0x0
 1804 0670 19       		.uleb128 0x19
 1805 0671 48000000 		.4byte	.LBB11
 1806 0675 50000000 		.4byte	.LBE11
 1807 0679 18       		.uleb128 0x18
 1808 067a 746D7000 		.ascii	"tmp\000"
 1809 067e 01       		.byte	0x1
 1810 067f C5       		.byte	0xc5
 1811 0680 86000000 		.4byte	0x86
 1812 0684 01       		.byte	0x1
 1813 0685 53       		.byte	0x53
 1814 0686 00       		.byte	0x0
 1815 0687 00       		.byte	0x0
 1816 0688 15       		.uleb128 0x15
ARM GAS  /tmp/ccGITGlO.s 			page 34


 1817 0689 01       		.byte	0x1
 1818 068a F0000000 		.4byte	.LASF69
 1819 068e 01       		.byte	0x1
 1820 068f D9       		.byte	0xd9
 1821 0690 01       		.byte	0x1
 1822 0691 00000000 		.4byte	.LFB69
 1823 0695 70000000 		.4byte	.LFE69
 1824 0699 1C010000 		.4byte	.LLST7
 1825 069d 0A070000 		.4byte	0x70a
 1826 06a1 16       		.uleb128 0x16
 1827 06a2 7C010000 		.4byte	.LASF64
 1828 06a6 01       		.byte	0x1
 1829 06a7 D9       		.byte	0xd9
 1830 06a8 06040000 		.4byte	0x406
 1831 06ac 02       		.byte	0x2
 1832 06ad 91       		.byte	0x91
 1833 06ae 74       		.sleb128 -12
 1834 06af 1A       		.uleb128 0x1a
 1835 06b0 6E00     		.ascii	"n\000"
 1836 06b2 01       		.byte	0x1
 1837 06b3 D9       		.byte	0xd9
 1838 06b4 30000000 		.4byte	0x30
 1839 06b8 02       		.byte	0x2
 1840 06b9 91       		.byte	0x91
 1841 06ba 70       		.sleb128 -16
 1842 06bb 16       		.uleb128 0x16
 1843 06bc 13020000 		.4byte	.LASF70
 1844 06c0 01       		.byte	0x1
 1845 06c1 DA       		.byte	0xda
 1846 06c2 0A070000 		.4byte	0x70a
 1847 06c6 02       		.byte	0x2
 1848 06c7 91       		.byte	0x91
 1849 06c8 6C       		.sleb128 -20
 1850 06c9 16       		.uleb128 0x16
 1851 06ca 1E030000 		.4byte	.LASF71
 1852 06ce 01       		.byte	0x1
 1853 06cf DA       		.byte	0xda
 1854 06d0 A6000000 		.4byte	0xa6
 1855 06d4 02       		.byte	0x2
 1856 06d5 91       		.byte	0x91
 1857 06d6 68       		.sleb128 -24
 1858 06d7 17       		.uleb128 0x17
 1859 06d8 2A000000 		.4byte	.LBB12
 1860 06dc 32000000 		.4byte	.LBE12
 1861 06e0 F2060000 		.4byte	0x6f2
 1862 06e4 18       		.uleb128 0x18
 1863 06e5 746D7000 		.ascii	"tmp\000"
 1864 06e9 01       		.byte	0x1
 1865 06ea DF       		.byte	0xdf
 1866 06eb 86000000 		.4byte	0x86
 1867 06ef 01       		.byte	0x1
 1868 06f0 53       		.byte	0x53
 1869 06f1 00       		.byte	0x0
 1870 06f2 19       		.uleb128 0x19
 1871 06f3 5C000000 		.4byte	.LBB13
 1872 06f7 64000000 		.4byte	.LBE13
 1873 06fb 18       		.uleb128 0x18
ARM GAS  /tmp/ccGITGlO.s 			page 35


 1874 06fc 746D7000 		.ascii	"tmp\000"
 1875 0700 01       		.byte	0x1
 1876 0701 E2       		.byte	0xe2
 1877 0702 86000000 		.4byte	0x86
 1878 0706 01       		.byte	0x1
 1879 0707 53       		.byte	0x53
 1880 0708 00       		.byte	0x0
 1881 0709 00       		.byte	0x0
 1882 070a 0D       		.uleb128 0xd
 1883 070b 04       		.byte	0x4
 1884 070c 10070000 		.4byte	0x710
 1885 0710 1B       		.uleb128 0x1b
 1886 0711 15       		.uleb128 0x15
 1887 0712 01       		.byte	0x1
 1888 0713 13000000 		.4byte	.LASF72
 1889 0717 01       		.byte	0x1
 1890 0718 F4       		.byte	0xf4
 1891 0719 01       		.byte	0x1
 1892 071a 00000000 		.4byte	.LFB70
 1893 071e 68000000 		.4byte	.LFE70
 1894 0722 48010000 		.4byte	.LLST8
 1895 0726 85070000 		.4byte	0x785
 1896 072a 16       		.uleb128 0x16
 1897 072b 7C010000 		.4byte	.LASF64
 1898 072f 01       		.byte	0x1
 1899 0730 F4       		.byte	0xf4
 1900 0731 06040000 		.4byte	0x406
 1901 0735 02       		.byte	0x2
 1902 0736 91       		.byte	0x91
 1903 0737 74       		.sleb128 -12
 1904 0738 1A       		.uleb128 0x1a
 1905 0739 6E00     		.ascii	"n\000"
 1906 073b 01       		.byte	0x1
 1907 073c F4       		.byte	0xf4
 1908 073d 30000000 		.4byte	0x30
 1909 0741 02       		.byte	0x2
 1910 0742 91       		.byte	0x91
 1911 0743 70       		.sleb128 -16
 1912 0744 16       		.uleb128 0x16
 1913 0745 13020000 		.4byte	.LASF70
 1914 0749 01       		.byte	0x1
 1915 074a F4       		.byte	0xf4
 1916 074b 0A070000 		.4byte	0x70a
 1917 074f 02       		.byte	0x2
 1918 0750 91       		.byte	0x91
 1919 0751 6C       		.sleb128 -20
 1920 0752 17       		.uleb128 0x17
 1921 0753 22000000 		.4byte	.LBB14
 1922 0757 2A000000 		.4byte	.LBE14
 1923 075b 6D070000 		.4byte	0x76d
 1924 075f 18       		.uleb128 0x18
 1925 0760 746D7000 		.ascii	"tmp\000"
 1926 0764 01       		.byte	0x1
 1927 0765 F9       		.byte	0xf9
 1928 0766 86000000 		.4byte	0x86
 1929 076a 01       		.byte	0x1
 1930 076b 53       		.byte	0x53
ARM GAS  /tmp/ccGITGlO.s 			page 36


 1931 076c 00       		.byte	0x0
 1932 076d 19       		.uleb128 0x19
 1933 076e 52000000 		.4byte	.LBB15
 1934 0772 5A000000 		.4byte	.LBE15
 1935 0776 18       		.uleb128 0x18
 1936 0777 746D7000 		.ascii	"tmp\000"
 1937 077b 01       		.byte	0x1
 1938 077c FC       		.byte	0xfc
 1939 077d 86000000 		.4byte	0x86
 1940 0781 01       		.byte	0x1
 1941 0782 53       		.byte	0x53
 1942 0783 00       		.byte	0x0
 1943 0784 00       		.byte	0x0
 1944 0785 1C       		.uleb128 0x1c
 1945 0786 01       		.byte	0x1
 1946 0787 03030000 		.4byte	.LASF73
 1947 078b 01       		.byte	0x1
 1948 078c 0E01     		.2byte	0x10e
 1949 078e 01       		.byte	0x1
 1950 078f 00000000 		.4byte	.LFB71
 1951 0793 68000000 		.4byte	.LFE71
 1952 0797 74010000 		.4byte	.LLST9
 1953 079b FF070000 		.4byte	0x7ff
 1954 079f 1D       		.uleb128 0x1d
 1955 07a0 7C010000 		.4byte	.LASF64
 1956 07a4 01       		.byte	0x1
 1957 07a5 0E01     		.2byte	0x10e
 1958 07a7 06040000 		.4byte	0x406
 1959 07ab 02       		.byte	0x2
 1960 07ac 91       		.byte	0x91
 1961 07ad 74       		.sleb128 -12
 1962 07ae 1E       		.uleb128 0x1e
 1963 07af 6E00     		.ascii	"n\000"
 1964 07b1 01       		.byte	0x1
 1965 07b2 0E01     		.2byte	0x10e
 1966 07b4 30000000 		.4byte	0x30
 1967 07b8 02       		.byte	0x2
 1968 07b9 91       		.byte	0x91
 1969 07ba 70       		.sleb128 -16
 1970 07bb 1D       		.uleb128 0x1d
 1971 07bc 1E030000 		.4byte	.LASF71
 1972 07c0 01       		.byte	0x1
 1973 07c1 0E01     		.2byte	0x10e
 1974 07c3 A6000000 		.4byte	0xa6
 1975 07c7 02       		.byte	0x2
 1976 07c8 91       		.byte	0x91
 1977 07c9 6C       		.sleb128 -20
 1978 07ca 17       		.uleb128 0x17
 1979 07cb 22000000 		.4byte	.LBB16
 1980 07cf 2A000000 		.4byte	.LBE16
 1981 07d3 E6070000 		.4byte	0x7e6
 1982 07d7 1F       		.uleb128 0x1f
 1983 07d8 746D7000 		.ascii	"tmp\000"
 1984 07dc 01       		.byte	0x1
 1985 07dd 1301     		.2byte	0x113
 1986 07df 86000000 		.4byte	0x86
 1987 07e3 01       		.byte	0x1
ARM GAS  /tmp/ccGITGlO.s 			page 37


 1988 07e4 53       		.byte	0x53
 1989 07e5 00       		.byte	0x0
 1990 07e6 19       		.uleb128 0x19
 1991 07e7 52000000 		.4byte	.LBB17
 1992 07eb 5A000000 		.4byte	.LBE17
 1993 07ef 1F       		.uleb128 0x1f
 1994 07f0 746D7000 		.ascii	"tmp\000"
 1995 07f4 01       		.byte	0x1
 1996 07f5 1601     		.2byte	0x116
 1997 07f7 86000000 		.4byte	0x86
 1998 07fb 01       		.byte	0x1
 1999 07fc 53       		.byte	0x53
 2000 07fd 00       		.byte	0x0
 2001 07fe 00       		.byte	0x0
 2002 07ff 20       		.uleb128 0x20
 2003 0800 2B030000 		.4byte	.LASF74
 2004 0804 09       		.byte	0x9
 2005 0805 9404     		.2byte	0x494
 2006 0807 B9000000 		.4byte	0xb9
 2007 080b 01       		.byte	0x1
 2008 080c 01       		.byte	0x1
 2009 080d 20       		.uleb128 0x20
 2010 080e 2B030000 		.4byte	.LASF74
 2011 0812 09       		.byte	0x9
 2012 0813 9404     		.2byte	0x494
 2013 0815 B9000000 		.4byte	0xb9
 2014 0819 01       		.byte	0x1
 2015 081a 01       		.byte	0x1
 2016 081b 00       		.byte	0x0
 2017              		.section	.debug_abbrev
 2018 0000 01       		.uleb128 0x1
 2019 0001 11       		.uleb128 0x11
 2020 0002 01       		.byte	0x1
 2021 0003 25       		.uleb128 0x25
 2022 0004 0E       		.uleb128 0xe
 2023 0005 13       		.uleb128 0x13
 2024 0006 0B       		.uleb128 0xb
 2025 0007 03       		.uleb128 0x3
 2026 0008 0E       		.uleb128 0xe
 2027 0009 1B       		.uleb128 0x1b
 2028 000a 0E       		.uleb128 0xe
 2029 000b 11       		.uleb128 0x11
 2030 000c 01       		.uleb128 0x1
 2031 000d 52       		.uleb128 0x52
 2032 000e 01       		.uleb128 0x1
 2033 000f 55       		.uleb128 0x55
 2034 0010 06       		.uleb128 0x6
 2035 0011 10       		.uleb128 0x10
 2036 0012 06       		.uleb128 0x6
 2037 0013 00       		.byte	0x0
 2038 0014 00       		.byte	0x0
 2039 0015 02       		.uleb128 0x2
 2040 0016 24       		.uleb128 0x24
 2041 0017 00       		.byte	0x0
 2042 0018 0B       		.uleb128 0xb
 2043 0019 0B       		.uleb128 0xb
 2044 001a 3E       		.uleb128 0x3e
ARM GAS  /tmp/ccGITGlO.s 			page 38


 2045 001b 0B       		.uleb128 0xb
 2046 001c 03       		.uleb128 0x3
 2047 001d 08       		.uleb128 0x8
 2048 001e 00       		.byte	0x0
 2049 001f 00       		.byte	0x0
 2050 0020 03       		.uleb128 0x3
 2051 0021 16       		.uleb128 0x16
 2052 0022 00       		.byte	0x0
 2053 0023 03       		.uleb128 0x3
 2054 0024 0E       		.uleb128 0xe
 2055 0025 3A       		.uleb128 0x3a
 2056 0026 0B       		.uleb128 0xb
 2057 0027 3B       		.uleb128 0x3b
 2058 0028 0B       		.uleb128 0xb
 2059 0029 49       		.uleb128 0x49
 2060 002a 13       		.uleb128 0x13
 2061 002b 00       		.byte	0x0
 2062 002c 00       		.byte	0x0
 2063 002d 04       		.uleb128 0x4
 2064 002e 24       		.uleb128 0x24
 2065 002f 00       		.byte	0x0
 2066 0030 0B       		.uleb128 0xb
 2067 0031 0B       		.uleb128 0xb
 2068 0032 3E       		.uleb128 0x3e
 2069 0033 0B       		.uleb128 0xb
 2070 0034 03       		.uleb128 0x3
 2071 0035 0E       		.uleb128 0xe
 2072 0036 00       		.byte	0x0
 2073 0037 00       		.byte	0x0
 2074 0038 05       		.uleb128 0x5
 2075 0039 0F       		.uleb128 0xf
 2076 003a 00       		.byte	0x0
 2077 003b 0B       		.uleb128 0xb
 2078 003c 0B       		.uleb128 0xb
 2079 003d 00       		.byte	0x0
 2080 003e 00       		.byte	0x0
 2081 003f 06       		.uleb128 0x6
 2082 0040 35       		.uleb128 0x35
 2083 0041 00       		.byte	0x0
 2084 0042 49       		.uleb128 0x49
 2085 0043 13       		.uleb128 0x13
 2086 0044 00       		.byte	0x0
 2087 0045 00       		.byte	0x0
 2088 0046 07       		.uleb128 0x7
 2089 0047 13       		.uleb128 0x13
 2090 0048 01       		.byte	0x1
 2091 0049 0B       		.uleb128 0xb
 2092 004a 0B       		.uleb128 0xb
 2093 004b 3A       		.uleb128 0x3a
 2094 004c 0B       		.uleb128 0xb
 2095 004d 3B       		.uleb128 0x3b
 2096 004e 05       		.uleb128 0x5
 2097 004f 01       		.uleb128 0x1
 2098 0050 13       		.uleb128 0x13
 2099 0051 00       		.byte	0x0
 2100 0052 00       		.byte	0x0
 2101 0053 08       		.uleb128 0x8
ARM GAS  /tmp/ccGITGlO.s 			page 39


 2102 0054 0D       		.uleb128 0xd
 2103 0055 00       		.byte	0x0
 2104 0056 03       		.uleb128 0x3
 2105 0057 08       		.uleb128 0x8
 2106 0058 3A       		.uleb128 0x3a
 2107 0059 0B       		.uleb128 0xb
 2108 005a 3B       		.uleb128 0x3b
 2109 005b 05       		.uleb128 0x5
 2110 005c 49       		.uleb128 0x49
 2111 005d 13       		.uleb128 0x13
 2112 005e 38       		.uleb128 0x38
 2113 005f 0A       		.uleb128 0xa
 2114 0060 00       		.byte	0x0
 2115 0061 00       		.byte	0x0
 2116 0062 09       		.uleb128 0x9
 2117 0063 0D       		.uleb128 0xd
 2118 0064 00       		.byte	0x0
 2119 0065 03       		.uleb128 0x3
 2120 0066 0E       		.uleb128 0xe
 2121 0067 3A       		.uleb128 0x3a
 2122 0068 0B       		.uleb128 0xb
 2123 0069 3B       		.uleb128 0x3b
 2124 006a 05       		.uleb128 0x5
 2125 006b 49       		.uleb128 0x49
 2126 006c 13       		.uleb128 0x13
 2127 006d 38       		.uleb128 0x38
 2128 006e 0A       		.uleb128 0xa
 2129 006f 00       		.byte	0x0
 2130 0070 00       		.byte	0x0
 2131 0071 0A       		.uleb128 0xa
 2132 0072 16       		.uleb128 0x16
 2133 0073 00       		.byte	0x0
 2134 0074 03       		.uleb128 0x3
 2135 0075 0E       		.uleb128 0xe
 2136 0076 3A       		.uleb128 0x3a
 2137 0077 0B       		.uleb128 0xb
 2138 0078 3B       		.uleb128 0x3b
 2139 0079 05       		.uleb128 0x5
 2140 007a 49       		.uleb128 0x49
 2141 007b 13       		.uleb128 0x13
 2142 007c 00       		.byte	0x0
 2143 007d 00       		.byte	0x0
 2144 007e 0B       		.uleb128 0xb
 2145 007f 13       		.uleb128 0x13
 2146 0080 01       		.byte	0x1
 2147 0081 0B       		.uleb128 0xb
 2148 0082 0B       		.uleb128 0xb
 2149 0083 3A       		.uleb128 0x3a
 2150 0084 0B       		.uleb128 0xb
 2151 0085 3B       		.uleb128 0x3b
 2152 0086 0B       		.uleb128 0xb
 2153 0087 01       		.uleb128 0x1
 2154 0088 13       		.uleb128 0x13
 2155 0089 00       		.byte	0x0
 2156 008a 00       		.byte	0x0
 2157 008b 0C       		.uleb128 0xc
 2158 008c 0D       		.uleb128 0xd
ARM GAS  /tmp/ccGITGlO.s 			page 40


 2159 008d 00       		.byte	0x0
 2160 008e 03       		.uleb128 0x3
 2161 008f 0E       		.uleb128 0xe
 2162 0090 3A       		.uleb128 0x3a
 2163 0091 0B       		.uleb128 0xb
 2164 0092 3B       		.uleb128 0x3b
 2165 0093 0B       		.uleb128 0xb
 2166 0094 49       		.uleb128 0x49
 2167 0095 13       		.uleb128 0x13
 2168 0096 38       		.uleb128 0x38
 2169 0097 0A       		.uleb128 0xa
 2170 0098 00       		.byte	0x0
 2171 0099 00       		.byte	0x0
 2172 009a 0D       		.uleb128 0xd
 2173 009b 0F       		.uleb128 0xf
 2174 009c 00       		.byte	0x0
 2175 009d 0B       		.uleb128 0xb
 2176 009e 0B       		.uleb128 0xb
 2177 009f 49       		.uleb128 0x49
 2178 00a0 13       		.uleb128 0x13
 2179 00a1 00       		.byte	0x0
 2180 00a2 00       		.byte	0x0
 2181 00a3 0E       		.uleb128 0xe
 2182 00a4 26       		.uleb128 0x26
 2183 00a5 00       		.byte	0x0
 2184 00a6 49       		.uleb128 0x49
 2185 00a7 13       		.uleb128 0x13
 2186 00a8 00       		.byte	0x0
 2187 00a9 00       		.byte	0x0
 2188 00aa 0F       		.uleb128 0xf
 2189 00ab 04       		.uleb128 0x4
 2190 00ac 01       		.byte	0x1
 2191 00ad 0B       		.uleb128 0xb
 2192 00ae 0B       		.uleb128 0xb
 2193 00af 3A       		.uleb128 0x3a
 2194 00b0 0B       		.uleb128 0xb
 2195 00b1 3B       		.uleb128 0x3b
 2196 00b2 0B       		.uleb128 0xb
 2197 00b3 01       		.uleb128 0x1
 2198 00b4 13       		.uleb128 0x13
 2199 00b5 00       		.byte	0x0
 2200 00b6 00       		.byte	0x0
 2201 00b7 10       		.uleb128 0x10
 2202 00b8 28       		.uleb128 0x28
 2203 00b9 00       		.byte	0x0
 2204 00ba 03       		.uleb128 0x3
 2205 00bb 0E       		.uleb128 0xe
 2206 00bc 1C       		.uleb128 0x1c
 2207 00bd 0D       		.uleb128 0xd
 2208 00be 00       		.byte	0x0
 2209 00bf 00       		.byte	0x0
 2210 00c0 11       		.uleb128 0x11
 2211 00c1 13       		.uleb128 0x13
 2212 00c2 01       		.byte	0x1
 2213 00c3 03       		.uleb128 0x3
 2214 00c4 0E       		.uleb128 0xe
 2215 00c5 0B       		.uleb128 0xb
ARM GAS  /tmp/ccGITGlO.s 			page 41


 2216 00c6 0B       		.uleb128 0xb
 2217 00c7 3A       		.uleb128 0x3a
 2218 00c8 0B       		.uleb128 0xb
 2219 00c9 3B       		.uleb128 0x3b
 2220 00ca 05       		.uleb128 0x5
 2221 00cb 01       		.uleb128 0x1
 2222 00cc 13       		.uleb128 0x13
 2223 00cd 00       		.byte	0x0
 2224 00ce 00       		.byte	0x0
 2225 00cf 12       		.uleb128 0x12
 2226 00d0 15       		.uleb128 0x15
 2227 00d1 01       		.byte	0x1
 2228 00d2 27       		.uleb128 0x27
 2229 00d3 0C       		.uleb128 0xc
 2230 00d4 01       		.uleb128 0x1
 2231 00d5 13       		.uleb128 0x13
 2232 00d6 00       		.byte	0x0
 2233 00d7 00       		.byte	0x0
 2234 00d8 13       		.uleb128 0x13
 2235 00d9 05       		.uleb128 0x5
 2236 00da 00       		.byte	0x0
 2237 00db 49       		.uleb128 0x49
 2238 00dc 13       		.uleb128 0x13
 2239 00dd 00       		.byte	0x0
 2240 00de 00       		.byte	0x0
 2241 00df 14       		.uleb128 0x14
 2242 00e0 2E       		.uleb128 0x2e
 2243 00e1 00       		.byte	0x0
 2244 00e2 3F       		.uleb128 0x3f
 2245 00e3 0C       		.uleb128 0xc
 2246 00e4 03       		.uleb128 0x3
 2247 00e5 0E       		.uleb128 0xe
 2248 00e6 3A       		.uleb128 0x3a
 2249 00e7 0B       		.uleb128 0xb
 2250 00e8 3B       		.uleb128 0x3b
 2251 00e9 0B       		.uleb128 0xb
 2252 00ea 27       		.uleb128 0x27
 2253 00eb 0C       		.uleb128 0xc
 2254 00ec 11       		.uleb128 0x11
 2255 00ed 01       		.uleb128 0x1
 2256 00ee 12       		.uleb128 0x12
 2257 00ef 01       		.uleb128 0x1
 2258 00f0 40       		.uleb128 0x40
 2259 00f1 06       		.uleb128 0x6
 2260 00f2 00       		.byte	0x0
 2261 00f3 00       		.byte	0x0
 2262 00f4 15       		.uleb128 0x15
 2263 00f5 2E       		.uleb128 0x2e
 2264 00f6 01       		.byte	0x1
 2265 00f7 3F       		.uleb128 0x3f
 2266 00f8 0C       		.uleb128 0xc
 2267 00f9 03       		.uleb128 0x3
 2268 00fa 0E       		.uleb128 0xe
 2269 00fb 3A       		.uleb128 0x3a
 2270 00fc 0B       		.uleb128 0xb
 2271 00fd 3B       		.uleb128 0x3b
 2272 00fe 0B       		.uleb128 0xb
ARM GAS  /tmp/ccGITGlO.s 			page 42


 2273 00ff 27       		.uleb128 0x27
 2274 0100 0C       		.uleb128 0xc
 2275 0101 11       		.uleb128 0x11
 2276 0102 01       		.uleb128 0x1
 2277 0103 12       		.uleb128 0x12
 2278 0104 01       		.uleb128 0x1
 2279 0105 40       		.uleb128 0x40
 2280 0106 06       		.uleb128 0x6
 2281 0107 01       		.uleb128 0x1
 2282 0108 13       		.uleb128 0x13
 2283 0109 00       		.byte	0x0
 2284 010a 00       		.byte	0x0
 2285 010b 16       		.uleb128 0x16
 2286 010c 05       		.uleb128 0x5
 2287 010d 00       		.byte	0x0
 2288 010e 03       		.uleb128 0x3
 2289 010f 0E       		.uleb128 0xe
 2290 0110 3A       		.uleb128 0x3a
 2291 0111 0B       		.uleb128 0xb
 2292 0112 3B       		.uleb128 0x3b
 2293 0113 0B       		.uleb128 0xb
 2294 0114 49       		.uleb128 0x49
 2295 0115 13       		.uleb128 0x13
 2296 0116 02       		.uleb128 0x2
 2297 0117 0A       		.uleb128 0xa
 2298 0118 00       		.byte	0x0
 2299 0119 00       		.byte	0x0
 2300 011a 17       		.uleb128 0x17
 2301 011b 0B       		.uleb128 0xb
 2302 011c 01       		.byte	0x1
 2303 011d 11       		.uleb128 0x11
 2304 011e 01       		.uleb128 0x1
 2305 011f 12       		.uleb128 0x12
 2306 0120 01       		.uleb128 0x1
 2307 0121 01       		.uleb128 0x1
 2308 0122 13       		.uleb128 0x13
 2309 0123 00       		.byte	0x0
 2310 0124 00       		.byte	0x0
 2311 0125 18       		.uleb128 0x18
 2312 0126 34       		.uleb128 0x34
 2313 0127 00       		.byte	0x0
 2314 0128 03       		.uleb128 0x3
 2315 0129 08       		.uleb128 0x8
 2316 012a 3A       		.uleb128 0x3a
 2317 012b 0B       		.uleb128 0xb
 2318 012c 3B       		.uleb128 0x3b
 2319 012d 0B       		.uleb128 0xb
 2320 012e 49       		.uleb128 0x49
 2321 012f 13       		.uleb128 0x13
 2322 0130 02       		.uleb128 0x2
 2323 0131 0A       		.uleb128 0xa
 2324 0132 00       		.byte	0x0
 2325 0133 00       		.byte	0x0
 2326 0134 19       		.uleb128 0x19
 2327 0135 0B       		.uleb128 0xb
 2328 0136 01       		.byte	0x1
 2329 0137 11       		.uleb128 0x11
ARM GAS  /tmp/ccGITGlO.s 			page 43


 2330 0138 01       		.uleb128 0x1
 2331 0139 12       		.uleb128 0x12
 2332 013a 01       		.uleb128 0x1
 2333 013b 00       		.byte	0x0
 2334 013c 00       		.byte	0x0
 2335 013d 1A       		.uleb128 0x1a
 2336 013e 05       		.uleb128 0x5
 2337 013f 00       		.byte	0x0
 2338 0140 03       		.uleb128 0x3
 2339 0141 08       		.uleb128 0x8
 2340 0142 3A       		.uleb128 0x3a
 2341 0143 0B       		.uleb128 0xb
 2342 0144 3B       		.uleb128 0x3b
 2343 0145 0B       		.uleb128 0xb
 2344 0146 49       		.uleb128 0x49
 2345 0147 13       		.uleb128 0x13
 2346 0148 02       		.uleb128 0x2
 2347 0149 0A       		.uleb128 0xa
 2348 014a 00       		.byte	0x0
 2349 014b 00       		.byte	0x0
 2350 014c 1B       		.uleb128 0x1b
 2351 014d 26       		.uleb128 0x26
 2352 014e 00       		.byte	0x0
 2353 014f 00       		.byte	0x0
 2354 0150 00       		.byte	0x0
 2355 0151 1C       		.uleb128 0x1c
 2356 0152 2E       		.uleb128 0x2e
 2357 0153 01       		.byte	0x1
 2358 0154 3F       		.uleb128 0x3f
 2359 0155 0C       		.uleb128 0xc
 2360 0156 03       		.uleb128 0x3
 2361 0157 0E       		.uleb128 0xe
 2362 0158 3A       		.uleb128 0x3a
 2363 0159 0B       		.uleb128 0xb
 2364 015a 3B       		.uleb128 0x3b
 2365 015b 05       		.uleb128 0x5
 2366 015c 27       		.uleb128 0x27
 2367 015d 0C       		.uleb128 0xc
 2368 015e 11       		.uleb128 0x11
 2369 015f 01       		.uleb128 0x1
 2370 0160 12       		.uleb128 0x12
 2371 0161 01       		.uleb128 0x1
 2372 0162 40       		.uleb128 0x40
 2373 0163 06       		.uleb128 0x6
 2374 0164 01       		.uleb128 0x1
 2375 0165 13       		.uleb128 0x13
 2376 0166 00       		.byte	0x0
 2377 0167 00       		.byte	0x0
 2378 0168 1D       		.uleb128 0x1d
 2379 0169 05       		.uleb128 0x5
 2380 016a 00       		.byte	0x0
 2381 016b 03       		.uleb128 0x3
 2382 016c 0E       		.uleb128 0xe
 2383 016d 3A       		.uleb128 0x3a
 2384 016e 0B       		.uleb128 0xb
 2385 016f 3B       		.uleb128 0x3b
 2386 0170 05       		.uleb128 0x5
ARM GAS  /tmp/ccGITGlO.s 			page 44


 2387 0171 49       		.uleb128 0x49
 2388 0172 13       		.uleb128 0x13
 2389 0173 02       		.uleb128 0x2
 2390 0174 0A       		.uleb128 0xa
 2391 0175 00       		.byte	0x0
 2392 0176 00       		.byte	0x0
 2393 0177 1E       		.uleb128 0x1e
 2394 0178 05       		.uleb128 0x5
 2395 0179 00       		.byte	0x0
 2396 017a 03       		.uleb128 0x3
 2397 017b 08       		.uleb128 0x8
 2398 017c 3A       		.uleb128 0x3a
 2399 017d 0B       		.uleb128 0xb
 2400 017e 3B       		.uleb128 0x3b
 2401 017f 05       		.uleb128 0x5
 2402 0180 49       		.uleb128 0x49
 2403 0181 13       		.uleb128 0x13
 2404 0182 02       		.uleb128 0x2
 2405 0183 0A       		.uleb128 0xa
 2406 0184 00       		.byte	0x0
 2407 0185 00       		.byte	0x0
 2408 0186 1F       		.uleb128 0x1f
 2409 0187 34       		.uleb128 0x34
 2410 0188 00       		.byte	0x0
 2411 0189 03       		.uleb128 0x3
 2412 018a 08       		.uleb128 0x8
 2413 018b 3A       		.uleb128 0x3a
 2414 018c 0B       		.uleb128 0xb
 2415 018d 3B       		.uleb128 0x3b
 2416 018e 05       		.uleb128 0x5
 2417 018f 49       		.uleb128 0x49
 2418 0190 13       		.uleb128 0x13
 2419 0191 02       		.uleb128 0x2
 2420 0192 0A       		.uleb128 0xa
 2421 0193 00       		.byte	0x0
 2422 0194 00       		.byte	0x0
 2423 0195 20       		.uleb128 0x20
 2424 0196 34       		.uleb128 0x34
 2425 0197 00       		.byte	0x0
 2426 0198 03       		.uleb128 0x3
 2427 0199 0E       		.uleb128 0xe
 2428 019a 3A       		.uleb128 0x3a
 2429 019b 0B       		.uleb128 0xb
 2430 019c 3B       		.uleb128 0x3b
 2431 019d 05       		.uleb128 0x5
 2432 019e 49       		.uleb128 0x49
 2433 019f 13       		.uleb128 0x13
 2434 01a0 3F       		.uleb128 0x3f
 2435 01a1 0C       		.uleb128 0xc
 2436 01a2 3C       		.uleb128 0x3c
 2437 01a3 0C       		.uleb128 0xc
 2438 01a4 00       		.byte	0x0
 2439 01a5 00       		.byte	0x0
 2440 01a6 00       		.byte	0x0
 2441              		.section	.debug_pubnames,"",%progbits
 2442 0000 B0000000 		.4byte	0xb0
 2443 0004 0200     		.2byte	0x2
ARM GAS  /tmp/ccGITGlO.s 			page 45


 2444 0006 00000000 		.4byte	.Ldebug_info0
 2445 000a 1C080000 		.4byte	0x81c
 2446 000e 6F040000 		.4byte	0x46f
 2447 0012 73706949 		.ascii	"spiInit\000"
 2447      6E697400 
 2448 001a 84040000 		.4byte	0x484
 2449 001e 7370694F 		.ascii	"spiObjectInit\000"
 2449      626A6563 
 2449      74496E69 
 2449      7400
 2450 002c AC040000 		.4byte	0x4ac
 2451 0030 73706953 		.ascii	"spiStart\000"
 2451      74617274 
 2451      00
 2452 0039 14050000 		.4byte	0x514
 2453 003d 73706953 		.ascii	"spiStop\000"
 2453      746F7000 
 2454 0045 6E050000 		.4byte	0x56e
 2455 0049 73706953 		.ascii	"spiSelect\000"
 2455      656C6563 
 2455      7400
 2456 0053 C8050000 		.4byte	0x5c8
 2457 0057 73706955 		.ascii	"spiUnselect\000"
 2457      6E73656C 
 2457      65637400 
 2458 0063 22060000 		.4byte	0x622
 2459 0067 73706953 		.ascii	"spiStartIgnore\000"
 2459      74617274 
 2459      49676E6F 
 2459      726500
 2460 0076 88060000 		.4byte	0x688
 2461 007a 73706953 		.ascii	"spiStartExchange\000"
 2461      74617274 
 2461      45786368 
 2461      616E6765 
 2461      00
 2462 008b 11070000 		.4byte	0x711
 2463 008f 73706953 		.ascii	"spiStartSend\000"
 2463      74617274 
 2463      53656E64 
 2463      00
 2464 009c 85070000 		.4byte	0x785
 2465 00a0 73706953 		.ascii	"spiStartReceive\000"
 2465      74617274 
 2465      52656365 
 2465      69766500 
 2466 00b0 00000000 		.4byte	0x0
 2467              		.section	.debug_pubtypes,"",%progbits
 2468 0000 F5000000 		.4byte	0xf5
 2469 0004 0200     		.2byte	0x2
 2470 0006 00000000 		.4byte	.Ldebug_info0
 2471 000a 1C080000 		.4byte	0x81c
 2472 000e 30000000 		.4byte	0x30
 2473 0012 73697A65 		.ascii	"size_t\000"
 2473      5F7400
 2474 0019 49000000 		.4byte	0x49
 2475 001d 75696E74 		.ascii	"uint8_t\000"
ARM GAS  /tmp/ccGITGlO.s 			page 46


 2475      385F7400 
 2476 0025 62000000 		.4byte	0x62
 2477 0029 75696E74 		.ascii	"uint16_t\000"
 2477      31365F74 
 2477      00
 2478 0032 74000000 		.4byte	0x74
 2479 0036 696E7433 		.ascii	"int32_t\000"
 2479      325F7400 
 2480 003e 86000000 		.4byte	0x86
 2481 0042 75696E74 		.ascii	"uint32_t\000"
 2481      33325F74 
 2481      00
 2482 004b 04010000 		.4byte	0x104
 2483 004f 444D415F 		.ascii	"DMA_Channel_TypeDef\000"
 2483      4368616E 
 2483      6E656C5F 
 2483      54797065 
 2483      44656600 
 2484 0063 83010000 		.4byte	0x183
 2485 0067 4750494F 		.ascii	"GPIO_TypeDef\000"
 2485      5F547970 
 2485      65446566 
 2485      00
 2486 0074 A5020000 		.4byte	0x2a5
 2487 0078 5350495F 		.ascii	"SPI_TypeDef\000"
 2487      54797065 
 2487      44656600 
 2488 0084 0C030000 		.4byte	0x30c
 2489 0088 73746D33 		.ascii	"stm32_dma_stream_t\000"
 2489      325F646D 
 2489      615F7374 
 2489      7265616D 
 2489      5F7400
 2490 009b 17030000 		.4byte	0x317
 2491 009f 696F706F 		.ascii	"ioportid_t\000"
 2491      72746964 
 2491      5F7400
 2492 00aa 5A030000 		.4byte	0x35a
 2493 00ae 73706973 		.ascii	"spistate_t\000"
 2493      74617465 
 2493      5F7400
 2494 00b9 65030000 		.4byte	0x365
 2495 00bd 53504944 		.ascii	"SPIDriver\000"
 2495      72697665 
 2495      7200
 2496 00c7 E8030000 		.4byte	0x3e8
 2497 00cb 73706963 		.ascii	"spicallback_t\000"
 2497      616C6C62 
 2497      61636B5F 
 2497      7400
 2498 00d9 52040000 		.4byte	0x452
 2499 00dd 53504943 		.ascii	"SPIConfig\000"
 2499      6F6E6669 
 2499      6700
 2500 00e7 71030000 		.4byte	0x371
 2501 00eb 53504944 		.ascii	"SPIDriver\000"
 2501      72697665 
ARM GAS  /tmp/ccGITGlO.s 			page 47


 2501      7200
 2502 00f5 00000000 		.4byte	0x0
 2503              		.section	.debug_aranges,"",%progbits
 2504 0000 64000000 		.4byte	0x64
 2505 0004 0200     		.2byte	0x2
 2506 0006 00000000 		.4byte	.Ldebug_info0
 2507 000a 04       		.byte	0x4
 2508 000b 00       		.byte	0x0
 2509 000c 0000     		.2byte	0x0
 2510 000e 0000     		.2byte	0x0
 2511 0010 00000000 		.4byte	.LFB62
 2512 0014 08000000 		.4byte	.LFE62-.LFB62
 2513 0018 00000000 		.4byte	.LFB63
 2514 001c 18000000 		.4byte	.LFE63-.LFB63
 2515 0020 00000000 		.4byte	.LFB64
 2516 0024 68000000 		.4byte	.LFE64-.LFB64
 2517 0028 00000000 		.4byte	.LFB65
 2518 002c 60000000 		.4byte	.LFE65-.LFB65
 2519 0030 00000000 		.4byte	.LFB66
 2520 0034 4C000000 		.4byte	.LFE66-.LFB66
 2521 0038 00000000 		.4byte	.LFB67
 2522 003c 4C000000 		.4byte	.LFE67-.LFB67
 2523 0040 00000000 		.4byte	.LFB68
 2524 0044 5C000000 		.4byte	.LFE68-.LFB68
 2525 0048 00000000 		.4byte	.LFB69
 2526 004c 70000000 		.4byte	.LFE69-.LFB69
 2527 0050 00000000 		.4byte	.LFB70
 2528 0054 68000000 		.4byte	.LFE70-.LFB70
 2529 0058 00000000 		.4byte	.LFB71
 2530 005c 68000000 		.4byte	.LFE71-.LFB71
 2531 0060 00000000 		.4byte	0x0
 2532 0064 00000000 		.4byte	0x0
 2533              		.section	.debug_ranges,"",%progbits
 2534              	.Ldebug_ranges0:
 2535 0000 00000000 		.4byte	.LFB62
 2536 0004 08000000 		.4byte	.LFE62
 2537 0008 00000000 		.4byte	.LFB63
 2538 000c 18000000 		.4byte	.LFE63
 2539 0010 00000000 		.4byte	.LFB64
 2540 0014 68000000 		.4byte	.LFE64
 2541 0018 00000000 		.4byte	.LFB65
 2542 001c 60000000 		.4byte	.LFE65
 2543 0020 00000000 		.4byte	.LFB66
 2544 0024 4C000000 		.4byte	.LFE66
 2545 0028 00000000 		.4byte	.LFB67
 2546 002c 4C000000 		.4byte	.LFE67
 2547 0030 00000000 		.4byte	.LFB68
 2548 0034 5C000000 		.4byte	.LFE68
 2549 0038 00000000 		.4byte	.LFB69
 2550 003c 70000000 		.4byte	.LFE69
 2551 0040 00000000 		.4byte	.LFB70
 2552 0044 68000000 		.4byte	.LFE70
 2553 0048 00000000 		.4byte	.LFB71
 2554 004c 68000000 		.4byte	.LFE71
 2555 0050 00000000 		.4byte	0x0
 2556 0054 00000000 		.4byte	0x0
 2557              		.section	.debug_str,"MS",%progbits,1
ARM GAS  /tmp/ccGITGlO.s 			page 48


 2558              	.LASF21:
 2559 0000 4750494F 		.ascii	"GPIO_TypeDef\000"
 2559      5F547970 
 2559      65446566 
 2559      00
 2560              	.LASF60:
 2561 000d 73737061 		.ascii	"sspad\000"
 2561      6400
 2562              	.LASF72:
 2563 0013 73706953 		.ascii	"spiStartSend\000"
 2563      74617274 
 2563      53656E64 
 2563      00
 2564              	.LASF53:
 2565 0020 646D6172 		.ascii	"dmarx\000"
 2565      7800
 2566              	.LASF51:
 2567 0026 73746174 		.ascii	"state\000"
 2567      6500
 2568              	.LASF5:
 2569 002c 73686F72 		.ascii	"short int\000"
 2569      7420696E 
 2569      7400
 2570              	.LASF2:
 2571 0036 73697A65 		.ascii	"size_t\000"
 2571      5F7400
 2572              	.LASF78:
 2573 003d 73706949 		.ascii	"spiInit\000"
 2573      6E697400 
 2574              	.LASF32:
 2575 0045 49325343 		.ascii	"I2SCFGR\000"
 2575      46475200 
 2576              	.LASF30:
 2577 004d 54584352 		.ascii	"TXCRCR\000"
 2577      435200
 2578              	.LASF52:
 2579 0054 636F6E66 		.ascii	"config\000"
 2579      696700
 2580              	.LASF28:
 2581 005b 52584352 		.ascii	"RXCRCR\000"
 2581      435200
 2582              	.LASF56:
 2583 0062 7478646D 		.ascii	"txdmamode\000"
 2583      616D6F64 
 2583      6500
 2584              	.LASF42:
 2585 006c 73746D33 		.ascii	"stm32_dma_stream_t\000"
 2585      325F646D 
 2585      615F7374 
 2585      7265616D 
 2585      5F7400
 2586              	.LASF3:
 2587 007f 75696E74 		.ascii	"uint8_t\000"
 2587      385F7400 
 2588              	.LASF66:
 2589 0087 73706953 		.ascii	"spiSelect\000"
 2589      656C6563 
ARM GAS  /tmp/ccGITGlO.s 			page 49


 2589      7400
 2590              	.LASF41:
 2591 0091 76656374 		.ascii	"vector\000"
 2591      6F7200
 2592              	.LASF77:
 2593 0098 2F686F6D 		.ascii	"/home/z80/projects/digitizer.git/firmware/digitizer"
 2593      652F7A38 
 2593      302F7072 
 2593      6F6A6563 
 2593      74732F64 
 2594 00cb 00       		.ascii	"\000"
 2595              	.LASF1:
 2596 00cc 7369676E 		.ascii	"signed char\000"
 2596      65642063 
 2596      68617200 
 2597              	.LASF61:
 2598 00d8 53504943 		.ascii	"SPIConfig\000"
 2598      6F6E6669 
 2598      6700
 2599              	.LASF12:
 2600 00e2 6C6F6E67 		.ascii	"long long int\000"
 2600      206C6F6E 
 2600      6720696E 
 2600      7400
 2601              	.LASF69:
 2602 00f0 73706953 		.ascii	"spiStartExchange\000"
 2602      74617274 
 2602      45786368 
 2602      616E6765 
 2602      00
 2603              	.LASF9:
 2604 0101 6C6F6E67 		.ascii	"long int\000"
 2604      20696E74 
 2604      00
 2605              	.LASF76:
 2606 010a 2E2E2F63 		.ascii	"../chibios_2.4.x/os/hal/src/spi.c\000"
 2606      68696269 
 2606      6F735F32 
 2606      2E342E78 
 2606      2F6F732F 
 2607              	.LASF57:
 2608 012c 73706963 		.ascii	"spicallback_t\000"
 2608      616C6C62 
 2608      61636B5F 
 2608      7400
 2609              	.LASF55:
 2610 013a 7278646D 		.ascii	"rxdmamode\000"
 2610      616D6F64 
 2610      6500
 2611              	.LASF16:
 2612 0144 43504152 		.ascii	"CPAR\000"
 2612      00
 2613              	.LASF38:
 2614 0149 69666372 		.ascii	"ifcr\000"
 2614      00
 2615              	.LASF43:
 2616 014e 696F706F 		.ascii	"ioportid_t\000"
ARM GAS  /tmp/ccGITGlO.s 			page 50


 2616      72746964 
 2616      5F7400
 2617              	.LASF63:
 2618 0159 73706953 		.ascii	"spiStart\000"
 2618      74617274 
 2618      00
 2619              	.LASF4:
 2620 0162 756E7369 		.ascii	"unsigned char\000"
 2620      676E6564 
 2620      20636861 
 2620      7200
 2621              	.LASF36:
 2622 0170 5350495F 		.ascii	"SPI_TypeDef\000"
 2622      54797065 
 2622      44656600 
 2623              	.LASF64:
 2624 017c 73706970 		.ascii	"spip\000"
 2624      00
 2625              	.LASF67:
 2626 0181 73706955 		.ascii	"spiUnselect\000"
 2626      6E73656C 
 2626      65637400 
 2627              	.LASF13:
 2628 018d 6C6F6E67 		.ascii	"long long unsigned int\000"
 2628      206C6F6E 
 2628      6720756E 
 2628      7369676E 
 2628      65642069 
 2629              	.LASF10:
 2630 01a4 75696E74 		.ascii	"uint32_t\000"
 2630      33325F74 
 2630      00
 2631              	.LASF40:
 2632 01ad 73656C66 		.ascii	"selfindex\000"
 2632      696E6465 
 2632      7800
 2633              	.LASF0:
 2634 01b7 756E7369 		.ascii	"unsigned int\000"
 2634      676E6564 
 2634      20696E74 
 2634      00
 2635              	.LASF44:
 2636 01c4 5350495F 		.ascii	"SPI_UNINIT\000"
 2636      554E494E 
 2636      495400
 2637              	.LASF11:
 2638 01cf 6C6F6E67 		.ascii	"long unsigned int\000"
 2638      20756E73 
 2638      69676E65 
 2638      6420696E 
 2638      7400
 2639              	.LASF54:
 2640 01e1 646D6174 		.ascii	"dmatx\000"
 2640      7800
 2641              	.LASF68:
 2642 01e7 73706953 		.ascii	"spiStartIgnore\000"
 2642      74617274 
ARM GAS  /tmp/ccGITGlO.s 			page 51


 2642      49676E6F 
 2642      726500
 2643              	.LASF45:
 2644 01f6 5350495F 		.ascii	"SPI_STOP\000"
 2644      53544F50 
 2644      00
 2645              	.LASF18:
 2646 01ff 444D415F 		.ascii	"DMA_Channel_TypeDef\000"
 2646      4368616E 
 2646      6E656C5F 
 2646      54797065 
 2646      44656600 
 2647              	.LASF70:
 2648 0213 74786275 		.ascii	"txbuf\000"
 2648      6600
 2649              	.LASF65:
 2650 0219 73706953 		.ascii	"spiStop\000"
 2650      746F7000 
 2651              	.LASF48:
 2652 0221 5350495F 		.ascii	"SPI_COMPLETE\000"
 2652      434F4D50 
 2652      4C455445 
 2652      00
 2653              	.LASF15:
 2654 022e 434E4454 		.ascii	"CNDTR\000"
 2654      5200
 2655              	.LASF14:
 2656 0234 63686172 		.ascii	"char\000"
 2656      00
 2657              	.LASF6:
 2658 0239 75696E74 		.ascii	"uint16_t\000"
 2658      31365F74 
 2658      00
 2659              	.LASF8:
 2660 0242 696E7433 		.ascii	"int32_t\000"
 2660      325F7400 
 2661              	.LASF46:
 2662 024a 5350495F 		.ascii	"SPI_READY\000"
 2662      52454144 
 2662      5900
 2663              	.LASF62:
 2664 0254 7370694F 		.ascii	"spiObjectInit\000"
 2664      626A6563 
 2664      74496E69 
 2664      7400
 2665              	.LASF47:
 2666 0262 5350495F 		.ascii	"SPI_ACTIVE\000"
 2666      41435449 
 2666      564500
 2667              	.LASF50:
 2668 026d 53504944 		.ascii	"SPIDriver\000"
 2668      72697665 
 2668      7200
 2669              	.LASF37:
 2670 0277 6368616E 		.ascii	"channel\000"
 2670      6E656C00 
 2671              	.LASF26:
ARM GAS  /tmp/ccGITGlO.s 			page 52


 2672 027f 43524350 		.ascii	"CRCPR\000"
 2672      5200
 2673              	.LASF22:
 2674 0285 52455345 		.ascii	"RESERVED0\000"
 2674      52564544 
 2674      3000
 2675              	.LASF23:
 2676 028f 52455345 		.ascii	"RESERVED1\000"
 2676      52564544 
 2676      3100
 2677              	.LASF24:
 2678 0299 52455345 		.ascii	"RESERVED2\000"
 2678      52564544 
 2678      3200
 2679              	.LASF25:
 2680 02a3 52455345 		.ascii	"RESERVED3\000"
 2680      52564544 
 2680      3300
 2681              	.LASF27:
 2682 02ad 52455345 		.ascii	"RESERVED4\000"
 2682      52564544 
 2682      3400
 2683              	.LASF29:
 2684 02b7 52455345 		.ascii	"RESERVED5\000"
 2684      52564544 
 2684      3500
 2685              	.LASF31:
 2686 02c1 52455345 		.ascii	"RESERVED6\000"
 2686      52564544 
 2686      3600
 2687              	.LASF33:
 2688 02cb 52455345 		.ascii	"RESERVED7\000"
 2688      52564544 
 2688      3700
 2689              	.LASF35:
 2690 02d5 52455345 		.ascii	"RESERVED8\000"
 2690      52564544 
 2690      3800
 2691              	.LASF7:
 2692 02df 73686F72 		.ascii	"short unsigned int\000"
 2692      7420756E 
 2692      7369676E 
 2692      65642069 
 2692      6E7400
 2693              	.LASF75:
 2694 02f2 474E5520 		.ascii	"GNU C 4.5.2\000"
 2694      4320342E 
 2694      352E3200 
 2695              	.LASF17:
 2696 02fe 434D4152 		.ascii	"CMAR\000"
 2696      00
 2697              	.LASF73:
 2698 0303 73706953 		.ascii	"spiStartReceive\000"
 2698      74617274 
 2698      52656365 
 2698      69766500 
 2699              	.LASF49:
ARM GAS  /tmp/ccGITGlO.s 			page 53


 2700 0313 73706973 		.ascii	"spistate_t\000"
 2700      74617465 
 2700      5F7400
 2701              	.LASF71:
 2702 031e 72786275 		.ascii	"rxbuf\000"
 2702      6600
 2703              	.LASF39:
 2704 0324 69736869 		.ascii	"ishift\000"
 2704      667400
 2705              	.LASF74:
 2706 032b 49544D5F 		.ascii	"ITM_RxBuffer\000"
 2706      52784275 
 2706      66666572 
 2706      00
 2707              	.LASF59:
 2708 0338 7373706F 		.ascii	"ssport\000"
 2708      727400
 2709              	.LASF58:
 2710 033f 656E645F 		.ascii	"end_cb\000"
 2710      636200
 2711              	.LASF34:
 2712 0346 49325350 		.ascii	"I2SPR\000"
 2712      5200
 2713              	.LASF20:
 2714 034c 4C434B52 		.ascii	"LCKR\000"
 2714      00
 2715              	.LASF19:
 2716 0351 42535252 		.ascii	"BSRR\000"
 2716      00
 2717              		.ident	"GCC: (Sourcery G++ Lite 2011.03-42) 4.5.2"
ARM GAS  /tmp/ccGITGlO.s 			page 54


DEFINED SYMBOLS
                            *ABS*:00000000 spi.c
     /tmp/ccGITGlO.s:24     .text.spiInit:00000000 $t
     /tmp/ccGITGlO.s:30     .text.spiInit:00000000 spiInit
     /tmp/ccGITGlO.s:50     .text.spiObjectInit:00000000 $t
     /tmp/ccGITGlO.s:56     .text.spiObjectInit:00000000 spiObjectInit
     /tmp/ccGITGlO.s:82     .rodata:00000000 $d
     /tmp/ccGITGlO.s:89     .text.spiStart:00000000 $t
     /tmp/ccGITGlO.s:95     .text.spiStart:00000000 spiStart
     /tmp/ccGITGlO.s:172    .text.spiStart:00000060 $d
     /tmp/ccGITGlO.s:185    .text.spiStop:00000000 $t
     /tmp/ccGITGlO.s:191    .text.spiStop:00000000 spiStop
     /tmp/ccGITGlO.s:261    .text.spiStop:00000058 $d
     /tmp/ccGITGlO.s:274    .text.spiSelect:00000000 $t
     /tmp/ccGITGlO.s:280    .text.spiSelect:00000000 spiSelect
     /tmp/ccGITGlO.s:338    .text.spiSelect:00000044 $d
     /tmp/ccGITGlO.s:351    .text.spiUnselect:00000000 $t
     /tmp/ccGITGlO.s:357    .text.spiUnselect:00000000 spiUnselect
     /tmp/ccGITGlO.s:415    .text.spiUnselect:00000044 $d
     /tmp/ccGITGlO.s:428    .text.spiStartIgnore:00000000 $t
     /tmp/ccGITGlO.s:434    .text.spiStartIgnore:00000000 spiStartIgnore
     /tmp/ccGITGlO.s:502    .text.spiStartIgnore:00000054 $d
     /tmp/ccGITGlO.s:515    .text.spiStartExchange:00000000 $t
     /tmp/ccGITGlO.s:521    .text.spiStartExchange:00000000 spiStartExchange
     /tmp/ccGITGlO.s:601    .text.spiStartExchange:00000068 $d
     /tmp/ccGITGlO.s:614    .text.spiStartSend:00000000 $t
     /tmp/ccGITGlO.s:620    .text.spiStartSend:00000000 spiStartSend
     /tmp/ccGITGlO.s:694    .text.spiStartSend:00000060 $d
     /tmp/ccGITGlO.s:707    .text.spiStartReceive:00000000 $t
     /tmp/ccGITGlO.s:713    .text.spiStartReceive:00000000 spiStartReceive
     /tmp/ccGITGlO.s:787    .text.spiStartReceive:00000060 $d
                     .debug_frame:00000010 $d
     /tmp/ccGITGlO.s:177    .text.spiStart:00000068 $t
     /tmp/ccGITGlO.s:343    .text.spiSelect:0000004c $t
     /tmp/ccGITGlO.s:420    .text.spiUnselect:0000004c $t
     /tmp/ccGITGlO.s:507    .text.spiStartIgnore:0000005c $t
     /tmp/ccGITGlO.s:699    .text.spiStartSend:00000068 $t
     /tmp/ccGITGlO.s:792    .text.spiStartReceive:00000068 $t

UNDEFINED SYMBOLS
spi_lld_init
chDbgPanic
dbg_check_lock
spi_lld_start
dbg_check_unlock
spi_lld_unselect
spi_lld_stop
spi_lld_select
spi_lld_ignore
spi_lld_exchange
spi_lld_send
spi_lld_receive
