ARM GAS  C:\Users\z80\AppData\Local\Temp\cc436ojh.s 			page 1


   1              		.syntax unified
   2              		.cpu cortex-m3
   3              		.fpu softvfp
   4              		.eabi_attribute 20, 1
   5              		.eabi_attribute 21, 1
   6              		.eabi_attribute 23, 3
   7              		.eabi_attribute 24, 1
   8              		.eabi_attribute 25, 1
   9              		.eabi_attribute 26, 1
  10              		.eabi_attribute 30, 6
  11              		.eabi_attribute 18, 4
  12              		.thumb
  13              		.file	"spi.c"
  14              		.section	.debug_abbrev,"",%progbits
  15              	.Ldebug_abbrev0:
  16              		.section	.debug_info,"",%progbits
  17              	.Ldebug_info0:
  18              		.section	.debug_line,"",%progbits
  19              	.Ldebug_line0:
  20 0000 7B030000 		.text
  20      0200F301 
  20      00000201 
  20      FB0E0D00 
  20      01010101 
  21              	.Ltext0:
  22              		.cfi_sections	.debug_frame
  23              		.section	.text.spiInit,"ax",%progbits
  24              		.align	2
  25              		.p2align 4,,15
  26              		.global	spiInit
  27              		.thumb
  28              		.thumb_func
  29              		.type	spiInit, %function
  30              	spiInit:
  31              	.LFB62:
  32              		.file 1 "../chibios_2.4.x/os/hal/src/spi.c"
  33              		.loc 1 68 0
  34              		.cfi_startproc
  35              		@ args = 0, pretend = 0, frame = 0
  36              		@ frame_needed = 0, uses_anonymous_args = 0
  37 0000 08B5     		push	{r3, lr}
  38              	.LCFI0:
  39              		.cfi_def_cfa_offset 8
  40              		.loc 1 70 0
  41              		.cfi_offset 14, -4
  42              		.cfi_offset 3, -8
  43 0002 FFF7FEFF 		bl	spi_lld_init
  44              		.loc 1 71 0
  45 0006 08BD     		pop	{r3, pc}
  46              		.cfi_endproc
  47              	.LFE62:
  48              		.size	spiInit, .-spiInit
  49 0008 AFF30080 		.section	.text.spiObjectInit,"ax",%progbits
  49      AFF30080 
  50              		.align	2
  51              		.p2align 4,,15
  52              		.global	spiObjectInit
ARM GAS  C:\Users\z80\AppData\Local\Temp\cc436ojh.s 			page 2


  53              		.thumb
  54              		.thumb_func
  55              		.type	spiObjectInit, %function
  56              	spiObjectInit:
  57              	.LFB63:
  58              		.loc 1 80 0
  59              		.cfi_startproc
  60              		@ args = 0, pretend = 0, frame = 8
  61              		@ frame_needed = 0, uses_anonymous_args = 0
  62              		@ link register save eliminated.
  63 0000 82B0     		sub	sp, sp, #8
  64              	.LCFI1:
  65              		.cfi_def_cfa_offset 8
  66 0002 0190     		str	r0, [sp, #4]
  67              		.loc 1 82 0
  68 0004 019B     		ldr	r3, [sp, #4]
  69 0006 4FF00102 		mov	r2, #1
  70 000a 1A70     		strb	r2, [r3, #0]
  71              		.loc 1 83 0
  72 000c 019B     		ldr	r3, [sp, #4]
  73 000e 4FF00002 		mov	r2, #0
  74 0012 5A60     		str	r2, [r3, #4]
  75              		.loc 1 97 0
  76 0014 02B0     		add	sp, sp, #8
  77 0016 7047     		bx	lr
  78              		.cfi_endproc
  79              	.LFE63:
  80              		.size	spiObjectInit, .-spiObjectInit
  81 0018 AFF30080 		.section	.rodata
  81      AFF30080 
  82              		.align	2
  83              	.LC0:
  84 0000 22737069 		.ascii	"\"spiStart\"()\000"
  84      53746172 
  84      74222829 
  84      00
  85 000d 000000   		.align	2
  86              	.LC1:
  87 0010 73706953 		.ascii	"spiStart(), #1\000"
  87      74617274 
  87      28292C20 
  87      233100
  88              		.section	.text.spiStart,"ax",%progbits
  89              		.align	2
  90              		.p2align 4,,15
  91              		.global	spiStart
  92              		.thumb
  93              		.thumb_func
  94              		.type	spiStart, %function
  95              	spiStart:
  96              	.LFB64:
  97              		.loc 1 107 0
  98              		.cfi_startproc
  99              		@ args = 0, pretend = 0, frame = 8
 100              		@ frame_needed = 0, uses_anonymous_args = 0
 101 0000 00B5     		push	{lr}
 102              	.LCFI2:
ARM GAS  C:\Users\z80\AppData\Local\Temp\cc436ojh.s 			page 3


 103              		.cfi_def_cfa_offset 4
 104 0002 83B0     		sub	sp, sp, #12
 105              	.LCFI3:
 106              		.cfi_def_cfa_offset 16
 107 0004 0190     		str	r0, [sp, #4]
 108 0006 0091     		str	r1, [sp, #0]
 109              		.loc 1 109 0
 110 0008 019B     		ldr	r3, [sp, #4]
 111 000a 002B     		cmp	r3, #0
 112 000c 02D0     		beq	.L4
 113              		.cfi_offset 14, -4
 114              		.loc 1 109 0 is_stmt 0 discriminator 2
 115 000e 009B     		ldr	r3, [sp, #0]
 116 0010 002B     		cmp	r3, #0
 117 0012 05D1     		bne	.L5
 118              	.L4:
 119              		.loc 1 109 0 discriminator 1
 120 0014 40F20000 		movw	r0, #:lower16:.LC0
 121 0018 C0F20000 		movt	r0, #:upper16:.LC0
 122 001c FFF7FEFF 		bl	chDbgPanic
 123              	.L5:
 124              	.LBB2:
 125              		.loc 1 111 0 is_stmt 1
 126 0020 4FF02003 		mov	r3, #32
 127              	@ 111 "../chibios_2.4.x/os/hal/src/spi.c" 1
 128 0024 83F31188 		msr     BASEPRI, r3
 129              	@ 0 "" 2
 130              		.thumb
 131              	.LBE2:
 132 0028 FFF7FEFF 		bl	dbg_check_lock
 133              		.loc 1 112 0
 134 002c 019B     		ldr	r3, [sp, #4]
 135 002e 1B78     		ldrb	r3, [r3, #0]	@ zero_extendqisi2
 136 0030 012B     		cmp	r3, #1
 137 0032 09D0     		beq	.L6
 138              		.loc 1 112 0 is_stmt 0 discriminator 1
 139 0034 019B     		ldr	r3, [sp, #4]
 140 0036 1B78     		ldrb	r3, [r3, #0]	@ zero_extendqisi2
 141 0038 022B     		cmp	r3, #2
 142 003a 05D0     		beq	.L6
 143              		.loc 1 112 0 discriminator 2
 144 003c 40F20000 		movw	r0, #:lower16:.LC1
 145 0040 C0F20000 		movt	r0, #:upper16:.LC1
 146 0044 FFF7FEFF 		bl	chDbgPanic
 147              	.L6:
 148              		.loc 1 114 0 is_stmt 1
 149 0048 019B     		ldr	r3, [sp, #4]
 150 004a 009A     		ldr	r2, [sp, #0]
 151 004c 5A60     		str	r2, [r3, #4]
 152              		.loc 1 115 0
 153 004e 0198     		ldr	r0, [sp, #4]
 154 0050 FFF7FEFF 		bl	spi_lld_start
 155              		.loc 1 116 0
 156 0054 019B     		ldr	r3, [sp, #4]
 157 0056 4FF00202 		mov	r2, #2
 158 005a 1A70     		strb	r2, [r3, #0]
 159              		.loc 1 117 0
ARM GAS  C:\Users\z80\AppData\Local\Temp\cc436ojh.s 			page 4


 160 005c FFF7FEFF 		bl	dbg_check_unlock
 161              	.LBB3:
 162 0060 4FF00003 		mov	r3, #0
 163              	@ 117 "../chibios_2.4.x/os/hal/src/spi.c" 1
 164 0064 83F31188 		msr     BASEPRI, r3
 165              	@ 0 "" 2
 166              		.thumb
 167              	.LBE3:
 168              		.loc 1 118 0
 169 0068 03B0     		add	sp, sp, #12
 170 006a 00BD     		pop	{pc}
 171              		.cfi_endproc
 172              	.LFE64:
 173              		.size	spiStart, .-spiStart
 174 006c AFF30080 		.section	.rodata
 175 001f 00       		.align	2
 176              	.LC2:
 177 0020 22737069 		.ascii	"\"spiStop\"()\000"
 177      53746F70 
 177      22282900 
 178              		.align	2
 179              	.LC3:
 180 002c 73706953 		.ascii	"spiStop(), #1\000"
 180      746F7028 
 180      292C2023 
 180      3100
 181              		.section	.text.spiStop,"ax",%progbits
 182              		.align	2
 183              		.p2align 4,,15
 184              		.global	spiStop
 185              		.thumb
 186              		.thumb_func
 187              		.type	spiStop, %function
 188              	spiStop:
 189              	.LFB65:
 190              		.loc 1 129 0
 191              		.cfi_startproc
 192              		@ args = 0, pretend = 0, frame = 8
 193              		@ frame_needed = 0, uses_anonymous_args = 0
 194 0000 00B5     		push	{lr}
 195              	.LCFI4:
 196              		.cfi_def_cfa_offset 4
 197 0002 83B0     		sub	sp, sp, #12
 198              	.LCFI5:
 199              		.cfi_def_cfa_offset 16
 200 0004 0190     		str	r0, [sp, #4]
 201              		.loc 1 131 0
 202 0006 019B     		ldr	r3, [sp, #4]
 203 0008 002B     		cmp	r3, #0
 204 000a 05D1     		bne	.L8
 205              		.cfi_offset 14, -4
 206              		.loc 1 131 0 is_stmt 0 discriminator 1
 207 000c 40F20000 		movw	r0, #:lower16:.LC2
 208 0010 C0F20000 		movt	r0, #:upper16:.LC2
 209 0014 FFF7FEFF 		bl	chDbgPanic
 210              	.L8:
 211              	.LBB4:
ARM GAS  C:\Users\z80\AppData\Local\Temp\cc436ojh.s 			page 5


 212              		.loc 1 133 0 is_stmt 1
 213 0018 4FF02003 		mov	r3, #32
 214              	@ 133 "../chibios_2.4.x/os/hal/src/spi.c" 1
 215 001c 83F31188 		msr     BASEPRI, r3
 216              	@ 0 "" 2
 217              		.thumb
 218              	.LBE4:
 219 0020 FFF7FEFF 		bl	dbg_check_lock
 220              		.loc 1 134 0
 221 0024 019B     		ldr	r3, [sp, #4]
 222 0026 1B78     		ldrb	r3, [r3, #0]	@ zero_extendqisi2
 223 0028 012B     		cmp	r3, #1
 224 002a 09D0     		beq	.L9
 225              		.loc 1 134 0 is_stmt 0 discriminator 1
 226 002c 019B     		ldr	r3, [sp, #4]
 227 002e 1B78     		ldrb	r3, [r3, #0]	@ zero_extendqisi2
 228 0030 022B     		cmp	r3, #2
 229 0032 05D0     		beq	.L9
 230              		.loc 1 134 0 discriminator 2
 231 0034 40F20000 		movw	r0, #:lower16:.LC3
 232 0038 C0F20000 		movt	r0, #:upper16:.LC3
 233 003c FFF7FEFF 		bl	chDbgPanic
 234              	.L9:
 235              		.loc 1 136 0 is_stmt 1
 236 0040 0198     		ldr	r0, [sp, #4]
 237 0042 FFF7FEFF 		bl	spi_lld_unselect
 238              		.loc 1 137 0
 239 0046 0198     		ldr	r0, [sp, #4]
 240 0048 FFF7FEFF 		bl	spi_lld_stop
 241              		.loc 1 138 0
 242 004c 019B     		ldr	r3, [sp, #4]
 243 004e 4FF00102 		mov	r2, #1
 244 0052 1A70     		strb	r2, [r3, #0]
 245              		.loc 1 139 0
 246 0054 FFF7FEFF 		bl	dbg_check_unlock
 247              	.LBB5:
 248 0058 4FF00003 		mov	r3, #0
 249              	@ 139 "../chibios_2.4.x/os/hal/src/spi.c" 1
 250 005c 83F31188 		msr     BASEPRI, r3
 251              	@ 0 "" 2
 252              		.thumb
 253              	.LBE5:
 254              		.loc 1 140 0
 255 0060 03B0     		add	sp, sp, #12
 256 0062 00BD     		pop	{pc}
 257              		.cfi_endproc
 258              	.LFE65:
 259              		.size	spiStop, .-spiStop
 260 0064 AFF30080 		.section	.rodata
 260      AFF30080 
 260      AFF30080 
 261 003a 0000     		.align	2
 262              	.LC4:
 263 003c 22737069 		.ascii	"\"spiSelect\"()\000"
 263      53656C65 
 263      63742228 
 263      2900
ARM GAS  C:\Users\z80\AppData\Local\Temp\cc436ojh.s 			page 6


 264 004a 0000     		.align	2
 265              	.LC5:
 266 004c 73706953 		.ascii	"spiSelect(), #1\000"
 266      656C6563 
 266      7428292C 
 266      20233100 
 267              		.section	.text.spiSelect,"ax",%progbits
 268              		.align	2
 269              		.p2align 4,,15
 270              		.global	spiSelect
 271              		.thumb
 272              		.thumb_func
 273              		.type	spiSelect, %function
 274              	spiSelect:
 275              	.LFB66:
 276              		.loc 1 149 0
 277              		.cfi_startproc
 278              		@ args = 0, pretend = 0, frame = 8
 279              		@ frame_needed = 0, uses_anonymous_args = 0
 280 0000 00B5     		push	{lr}
 281              	.LCFI6:
 282              		.cfi_def_cfa_offset 4
 283 0002 83B0     		sub	sp, sp, #12
 284              	.LCFI7:
 285              		.cfi_def_cfa_offset 16
 286 0004 0190     		str	r0, [sp, #4]
 287              		.loc 1 151 0
 288 0006 019B     		ldr	r3, [sp, #4]
 289 0008 002B     		cmp	r3, #0
 290 000a 05D1     		bne	.L11
 291              		.cfi_offset 14, -4
 292              		.loc 1 151 0 is_stmt 0 discriminator 1
 293 000c 40F20000 		movw	r0, #:lower16:.LC4
 294 0010 C0F20000 		movt	r0, #:upper16:.LC4
 295 0014 FFF7FEFF 		bl	chDbgPanic
 296              	.L11:
 297              	.LBB6:
 298              		.loc 1 153 0 is_stmt 1
 299 0018 4FF02003 		mov	r3, #32
 300              	@ 153 "../chibios_2.4.x/os/hal/src/spi.c" 1
 301 001c 83F31188 		msr     BASEPRI, r3
 302              	@ 0 "" 2
 303              		.thumb
 304              	.LBE6:
 305 0020 FFF7FEFF 		bl	dbg_check_lock
 306              		.loc 1 154 0
 307 0024 019B     		ldr	r3, [sp, #4]
 308 0026 1B78     		ldrb	r3, [r3, #0]	@ zero_extendqisi2
 309 0028 022B     		cmp	r3, #2
 310 002a 05D0     		beq	.L12
 311              		.loc 1 154 0 is_stmt 0 discriminator 1
 312 002c 40F20000 		movw	r0, #:lower16:.LC5
 313 0030 C0F20000 		movt	r0, #:upper16:.LC5
 314 0034 FFF7FEFF 		bl	chDbgPanic
 315              	.L12:
 316              		.loc 1 155 0 is_stmt 1
 317 0038 0198     		ldr	r0, [sp, #4]
ARM GAS  C:\Users\z80\AppData\Local\Temp\cc436ojh.s 			page 7


 318 003a FFF7FEFF 		bl	spi_lld_select
 319              		.loc 1 156 0
 320 003e FFF7FEFF 		bl	dbg_check_unlock
 321              	.LBB7:
 322 0042 4FF00003 		mov	r3, #0
 323              	@ 156 "../chibios_2.4.x/os/hal/src/spi.c" 1
 324 0046 83F31188 		msr     BASEPRI, r3
 325              	@ 0 "" 2
 326              		.thumb
 327              	.LBE7:
 328              		.loc 1 157 0
 329 004a 03B0     		add	sp, sp, #12
 330 004c 00BD     		pop	{pc}
 331              		.cfi_endproc
 332              	.LFE66:
 333              		.size	spiSelect, .-spiSelect
 334 004e 00BF     		.section	.rodata
 335              		.align	2
 336              	.LC6:
 337 005c 22737069 		.ascii	"\"spiUnselect\"()\000"
 337      556E7365 
 337      6C656374 
 337      22282900 
 338              		.align	2
 339              	.LC7:
 340 006c 73706955 		.ascii	"spiUnselect(), #1\000"
 340      6E73656C 
 340      65637428 
 340      292C2023 
 340      3100
 341              		.section	.text.spiUnselect,"ax",%progbits
 342              		.align	2
 343              		.p2align 4,,15
 344              		.global	spiUnselect
 345              		.thumb
 346              		.thumb_func
 347              		.type	spiUnselect, %function
 348              	spiUnselect:
 349              	.LFB67:
 350              		.loc 1 167 0
 351              		.cfi_startproc
 352              		@ args = 0, pretend = 0, frame = 8
 353              		@ frame_needed = 0, uses_anonymous_args = 0
 354 0000 00B5     		push	{lr}
 355              	.LCFI8:
 356              		.cfi_def_cfa_offset 4
 357 0002 83B0     		sub	sp, sp, #12
 358              	.LCFI9:
 359              		.cfi_def_cfa_offset 16
 360 0004 0190     		str	r0, [sp, #4]
 361              		.loc 1 169 0
 362 0006 019B     		ldr	r3, [sp, #4]
 363 0008 002B     		cmp	r3, #0
 364 000a 05D1     		bne	.L14
 365              		.cfi_offset 14, -4
 366              		.loc 1 169 0 is_stmt 0 discriminator 1
 367 000c 40F20000 		movw	r0, #:lower16:.LC6
ARM GAS  C:\Users\z80\AppData\Local\Temp\cc436ojh.s 			page 8


 368 0010 C0F20000 		movt	r0, #:upper16:.LC6
 369 0014 FFF7FEFF 		bl	chDbgPanic
 370              	.L14:
 371              	.LBB8:
 372              		.loc 1 171 0 is_stmt 1
 373 0018 4FF02003 		mov	r3, #32
 374              	@ 171 "../chibios_2.4.x/os/hal/src/spi.c" 1
 375 001c 83F31188 		msr     BASEPRI, r3
 376              	@ 0 "" 2
 377              		.thumb
 378              	.LBE8:
 379 0020 FFF7FEFF 		bl	dbg_check_lock
 380              		.loc 1 172 0
 381 0024 019B     		ldr	r3, [sp, #4]
 382 0026 1B78     		ldrb	r3, [r3, #0]	@ zero_extendqisi2
 383 0028 022B     		cmp	r3, #2
 384 002a 05D0     		beq	.L15
 385              		.loc 1 172 0 is_stmt 0 discriminator 1
 386 002c 40F20000 		movw	r0, #:lower16:.LC7
 387 0030 C0F20000 		movt	r0, #:upper16:.LC7
 388 0034 FFF7FEFF 		bl	chDbgPanic
 389              	.L15:
 390              		.loc 1 173 0 is_stmt 1
 391 0038 0198     		ldr	r0, [sp, #4]
 392 003a FFF7FEFF 		bl	spi_lld_unselect
 393              		.loc 1 174 0
 394 003e FFF7FEFF 		bl	dbg_check_unlock
 395              	.LBB9:
 396 0042 4FF00003 		mov	r3, #0
 397              	@ 174 "../chibios_2.4.x/os/hal/src/spi.c" 1
 398 0046 83F31188 		msr     BASEPRI, r3
 399              	@ 0 "" 2
 400              		.thumb
 401              	.LBE9:
 402              		.loc 1 175 0
 403 004a 03B0     		add	sp, sp, #12
 404 004c 00BD     		pop	{pc}
 405              		.cfi_endproc
 406              	.LFE67:
 407              		.size	spiUnselect, .-spiUnselect
 408 004e 00BF     		.section	.rodata
 409 007e 0000     		.align	2
 410              	.LC8:
 411 0080 22737069 		.ascii	"\"spiStartIgnore\"()\000"
 411      53746172 
 411      7449676E 
 411      6F726522 
 411      282900
 412 0093 00       		.align	2
 413              	.LC9:
 414 0094 73706953 		.ascii	"spiStartIgnore(), #1\000"
 414      74617274 
 414      49676E6F 
 414      72652829 
 414      2C202331 
 415              		.section	.text.spiStartIgnore,"ax",%progbits
 416              		.align	2
ARM GAS  C:\Users\z80\AppData\Local\Temp\cc436ojh.s 			page 9


 417              		.p2align 4,,15
 418              		.global	spiStartIgnore
 419              		.thumb
 420              		.thumb_func
 421              		.type	spiStartIgnore, %function
 422              	spiStartIgnore:
 423              	.LFB68:
 424              		.loc 1 190 0
 425              		.cfi_startproc
 426              		@ args = 0, pretend = 0, frame = 8
 427              		@ frame_needed = 0, uses_anonymous_args = 0
 428 0000 00B5     		push	{lr}
 429              	.LCFI10:
 430              		.cfi_def_cfa_offset 4
 431 0002 83B0     		sub	sp, sp, #12
 432              	.LCFI11:
 433              		.cfi_def_cfa_offset 16
 434 0004 0190     		str	r0, [sp, #4]
 435 0006 0091     		str	r1, [sp, #0]
 436              		.loc 1 192 0
 437 0008 019B     		ldr	r3, [sp, #4]
 438 000a 002B     		cmp	r3, #0
 439 000c 02D0     		beq	.L17
 440              		.cfi_offset 14, -4
 441              		.loc 1 192 0 is_stmt 0 discriminator 2
 442 000e 009B     		ldr	r3, [sp, #0]
 443 0010 002B     		cmp	r3, #0
 444 0012 05D1     		bne	.L18
 445              	.L17:
 446              		.loc 1 192 0 discriminator 1
 447 0014 40F20000 		movw	r0, #:lower16:.LC8
 448 0018 C0F20000 		movt	r0, #:upper16:.LC8
 449 001c FFF7FEFF 		bl	chDbgPanic
 450              	.L18:
 451              	.LBB10:
 452              		.loc 1 194 0 is_stmt 1
 453 0020 4FF02003 		mov	r3, #32
 454              	@ 194 "../chibios_2.4.x/os/hal/src/spi.c" 1
 455 0024 83F31188 		msr     BASEPRI, r3
 456              	@ 0 "" 2
 457              		.thumb
 458              	.LBE10:
 459 0028 FFF7FEFF 		bl	dbg_check_lock
 460              		.loc 1 195 0
 461 002c 019B     		ldr	r3, [sp, #4]
 462 002e 1B78     		ldrb	r3, [r3, #0]	@ zero_extendqisi2
 463 0030 022B     		cmp	r3, #2
 464 0032 05D0     		beq	.L19
 465              		.loc 1 195 0 is_stmt 0 discriminator 1
 466 0034 40F20000 		movw	r0, #:lower16:.LC9
 467 0038 C0F20000 		movt	r0, #:upper16:.LC9
 468 003c FFF7FEFF 		bl	chDbgPanic
 469              	.L19:
 470              		.loc 1 196 0 is_stmt 1
 471 0040 019B     		ldr	r3, [sp, #4]
 472 0042 4FF00302 		mov	r2, #3
 473 0046 1A70     		strb	r2, [r3, #0]
ARM GAS  C:\Users\z80\AppData\Local\Temp\cc436ojh.s 			page 10


 474 0048 0198     		ldr	r0, [sp, #4]
 475 004a 0099     		ldr	r1, [sp, #0]
 476 004c FFF7FEFF 		bl	spi_lld_ignore
 477              		.loc 1 197 0
 478 0050 FFF7FEFF 		bl	dbg_check_unlock
 479              	.LBB11:
 480 0054 4FF00003 		mov	r3, #0
 481              	@ 197 "../chibios_2.4.x/os/hal/src/spi.c" 1
 482 0058 83F31188 		msr     BASEPRI, r3
 483              	@ 0 "" 2
 484              		.thumb
 485              	.LBE11:
 486              		.loc 1 198 0
 487 005c 03B0     		add	sp, sp, #12
 488 005e 00BD     		pop	{pc}
 489              		.cfi_endproc
 490              	.LFE68:
 491              		.size	spiStartIgnore, .-spiStartIgnore
 492              		.section	.rodata
 493 00a9 000000   		.align	2
 494              	.LC10:
 495 00ac 22737069 		.ascii	"\"spiStartExchange\"()\000"
 495      53746172 
 495      74457863 
 495      68616E67 
 495      65222829 
 496 00c1 000000   		.align	2
 497              	.LC11:
 498 00c4 73706953 		.ascii	"spiStartExchange(), #1\000"
 498      74617274 
 498      45786368 
 498      616E6765 
 498      28292C20 
 499              		.section	.text.spiStartExchange,"ax",%progbits
 500              		.align	2
 501              		.p2align 4,,15
 502              		.global	spiStartExchange
 503              		.thumb
 504              		.thumb_func
 505              		.type	spiStartExchange, %function
 506              	spiStartExchange:
 507              	.LFB69:
 508              		.loc 1 218 0
 509              		.cfi_startproc
 510              		@ args = 0, pretend = 0, frame = 16
 511              		@ frame_needed = 0, uses_anonymous_args = 0
 512 0000 00B5     		push	{lr}
 513              	.LCFI12:
 514              		.cfi_def_cfa_offset 4
 515 0002 85B0     		sub	sp, sp, #20
 516              	.LCFI13:
 517              		.cfi_def_cfa_offset 24
 518 0004 0390     		str	r0, [sp, #12]
 519 0006 0291     		str	r1, [sp, #8]
 520 0008 0192     		str	r2, [sp, #4]
 521 000a 0093     		str	r3, [sp, #0]
 522              		.loc 1 220 0
ARM GAS  C:\Users\z80\AppData\Local\Temp\cc436ojh.s 			page 11


 523 000c 039B     		ldr	r3, [sp, #12]
 524 000e 002B     		cmp	r3, #0
 525 0010 08D0     		beq	.L21
 526              		.cfi_offset 14, -4
 527              		.loc 1 220 0 is_stmt 0 discriminator 2
 528 0012 029B     		ldr	r3, [sp, #8]
 529 0014 002B     		cmp	r3, #0
 530 0016 05D0     		beq	.L21
 531              		.loc 1 220 0 discriminator 3
 532 0018 009B     		ldr	r3, [sp, #0]
 533 001a 002B     		cmp	r3, #0
 534 001c 02D0     		beq	.L21
 535              		.loc 1 220 0 discriminator 4
 536 001e 019B     		ldr	r3, [sp, #4]
 537 0020 002B     		cmp	r3, #0
 538 0022 05D1     		bne	.L22
 539              	.L21:
 540              		.loc 1 220 0 discriminator 1
 541 0024 40F20000 		movw	r0, #:lower16:.LC10
 542 0028 C0F20000 		movt	r0, #:upper16:.LC10
 543 002c FFF7FEFF 		bl	chDbgPanic
 544              	.L22:
 545              	.LBB12:
 546              		.loc 1 223 0 is_stmt 1
 547 0030 4FF02003 		mov	r3, #32
 548              	@ 223 "../chibios_2.4.x/os/hal/src/spi.c" 1
 549 0034 83F31188 		msr     BASEPRI, r3
 550              	@ 0 "" 2
 551              		.thumb
 552              	.LBE12:
 553 0038 FFF7FEFF 		bl	dbg_check_lock
 554              		.loc 1 224 0
 555 003c 039B     		ldr	r3, [sp, #12]
 556 003e 1B78     		ldrb	r3, [r3, #0]	@ zero_extendqisi2
 557 0040 022B     		cmp	r3, #2
 558 0042 05D0     		beq	.L23
 559              		.loc 1 224 0 is_stmt 0 discriminator 1
 560 0044 40F20000 		movw	r0, #:lower16:.LC11
 561 0048 C0F20000 		movt	r0, #:upper16:.LC11
 562 004c FFF7FEFF 		bl	chDbgPanic
 563              	.L23:
 564              		.loc 1 225 0 is_stmt 1
 565 0050 039B     		ldr	r3, [sp, #12]
 566 0052 4FF00302 		mov	r2, #3
 567 0056 1A70     		strb	r2, [r3, #0]
 568 0058 0398     		ldr	r0, [sp, #12]
 569 005a 0299     		ldr	r1, [sp, #8]
 570 005c 019A     		ldr	r2, [sp, #4]
 571 005e 009B     		ldr	r3, [sp, #0]
 572 0060 FFF7FEFF 		bl	spi_lld_exchange
 573              		.loc 1 226 0
 574 0064 FFF7FEFF 		bl	dbg_check_unlock
 575              	.LBB13:
 576 0068 4FF00003 		mov	r3, #0
 577              	@ 226 "../chibios_2.4.x/os/hal/src/spi.c" 1
 578 006c 83F31188 		msr     BASEPRI, r3
 579              	@ 0 "" 2
ARM GAS  C:\Users\z80\AppData\Local\Temp\cc436ojh.s 			page 12


 580              		.thumb
 581              	.LBE13:
 582              		.loc 1 227 0
 583 0070 05B0     		add	sp, sp, #20
 584 0072 00BD     		pop	{pc}
 585              		.cfi_endproc
 586              	.LFE69:
 587              		.size	spiStartExchange, .-spiStartExchange
 588 0074 AFF30080 		.section	.rodata
 588      AFF30080 
 588      AFF30080 
 589 00db 00       		.align	2
 590              	.LC12:
 591 00dc 22737069 		.ascii	"\"spiStartSend\"()\000"
 591      53746172 
 591      7453656E 
 591      64222829 
 591      00
 592 00ed 000000   		.align	2
 593              	.LC13:
 594 00f0 73706953 		.ascii	"spiStartSend(), #1\000"
 594      74617274 
 594      53656E64 
 594      28292C20 
 594      233100
 595              		.section	.text.spiStartSend,"ax",%progbits
 596              		.align	2
 597              		.p2align 4,,15
 598              		.global	spiStartSend
 599              		.thumb
 600              		.thumb_func
 601              		.type	spiStartSend, %function
 602              	spiStartSend:
 603              	.LFB70:
 604              		.loc 1 244 0
 605              		.cfi_startproc
 606              		@ args = 0, pretend = 0, frame = 16
 607              		@ frame_needed = 0, uses_anonymous_args = 0
 608 0000 00B5     		push	{lr}
 609              	.LCFI14:
 610              		.cfi_def_cfa_offset 4
 611 0002 85B0     		sub	sp, sp, #20
 612              	.LCFI15:
 613              		.cfi_def_cfa_offset 24
 614 0004 0390     		str	r0, [sp, #12]
 615 0006 0291     		str	r1, [sp, #8]
 616 0008 0192     		str	r2, [sp, #4]
 617              		.loc 1 246 0
 618 000a 039B     		ldr	r3, [sp, #12]
 619 000c 002B     		cmp	r3, #0
 620 000e 05D0     		beq	.L25
 621              		.cfi_offset 14, -4
 622              		.loc 1 246 0 is_stmt 0 discriminator 2
 623 0010 029B     		ldr	r3, [sp, #8]
 624 0012 002B     		cmp	r3, #0
 625 0014 02D0     		beq	.L25
 626              		.loc 1 246 0 discriminator 3
ARM GAS  C:\Users\z80\AppData\Local\Temp\cc436ojh.s 			page 13


 627 0016 019B     		ldr	r3, [sp, #4]
 628 0018 002B     		cmp	r3, #0
 629 001a 05D1     		bne	.L26
 630              	.L25:
 631              		.loc 1 246 0 discriminator 1
 632 001c 40F20000 		movw	r0, #:lower16:.LC12
 633 0020 C0F20000 		movt	r0, #:upper16:.LC12
 634 0024 FFF7FEFF 		bl	chDbgPanic
 635              	.L26:
 636              	.LBB14:
 637              		.loc 1 249 0 is_stmt 1
 638 0028 4FF02003 		mov	r3, #32
 639              	@ 249 "../chibios_2.4.x/os/hal/src/spi.c" 1
 640 002c 83F31188 		msr     BASEPRI, r3
 641              	@ 0 "" 2
 642              		.thumb
 643              	.LBE14:
 644 0030 FFF7FEFF 		bl	dbg_check_lock
 645              		.loc 1 250 0
 646 0034 039B     		ldr	r3, [sp, #12]
 647 0036 1B78     		ldrb	r3, [r3, #0]	@ zero_extendqisi2
 648 0038 022B     		cmp	r3, #2
 649 003a 05D0     		beq	.L27
 650              		.loc 1 250 0 is_stmt 0 discriminator 1
 651 003c 40F20000 		movw	r0, #:lower16:.LC13
 652 0040 C0F20000 		movt	r0, #:upper16:.LC13
 653 0044 FFF7FEFF 		bl	chDbgPanic
 654              	.L27:
 655              		.loc 1 251 0 is_stmt 1
 656 0048 039B     		ldr	r3, [sp, #12]
 657 004a 4FF00302 		mov	r2, #3
 658 004e 1A70     		strb	r2, [r3, #0]
 659 0050 0398     		ldr	r0, [sp, #12]
 660 0052 0299     		ldr	r1, [sp, #8]
 661 0054 019A     		ldr	r2, [sp, #4]
 662 0056 FFF7FEFF 		bl	spi_lld_send
 663              		.loc 1 252 0
 664 005a FFF7FEFF 		bl	dbg_check_unlock
 665              	.LBB15:
 666 005e 4FF00003 		mov	r3, #0
 667              	@ 252 "../chibios_2.4.x/os/hal/src/spi.c" 1
 668 0062 83F31188 		msr     BASEPRI, r3
 669              	@ 0 "" 2
 670              		.thumb
 671              	.LBE15:
 672              		.loc 1 253 0
 673 0066 05B0     		add	sp, sp, #20
 674 0068 00BD     		pop	{pc}
 675              		.cfi_endproc
 676              	.LFE70:
 677              		.size	spiStartSend, .-spiStartSend
 678 006a 00BFAFF3 		.section	.rodata
 678      0080
 679 0103 00       		.align	2
 680              	.LC14:
 681 0104 22737069 		.ascii	"\"spiStartReceive\"()\000"
 681      53746172 
ARM GAS  C:\Users\z80\AppData\Local\Temp\cc436ojh.s 			page 14


 681      74526563 
 681      65697665 
 681      22282900 
 682              		.align	2
 683              	.LC15:
 684 0118 73706953 		.ascii	"spiStartReceive(), #1\000"
 684      74617274 
 684      52656365 
 684      69766528 
 684      292C2023 
 685 012e 0000     		.section	.text.spiStartReceive,"ax",%progbits
 686              		.align	2
 687              		.p2align 4,,15
 688              		.global	spiStartReceive
 689              		.thumb
 690              		.thumb_func
 691              		.type	spiStartReceive, %function
 692              	spiStartReceive:
 693              	.LFB71:
 694              		.loc 1 270 0
 695              		.cfi_startproc
 696              		@ args = 0, pretend = 0, frame = 16
 697              		@ frame_needed = 0, uses_anonymous_args = 0
 698 0000 00B5     		push	{lr}
 699              	.LCFI16:
 700              		.cfi_def_cfa_offset 4
 701 0002 85B0     		sub	sp, sp, #20
 702              	.LCFI17:
 703              		.cfi_def_cfa_offset 24
 704 0004 0390     		str	r0, [sp, #12]
 705 0006 0291     		str	r1, [sp, #8]
 706 0008 0192     		str	r2, [sp, #4]
 707              		.loc 1 272 0
 708 000a 039B     		ldr	r3, [sp, #12]
 709 000c 002B     		cmp	r3, #0
 710 000e 05D0     		beq	.L29
 711              		.cfi_offset 14, -4
 712              		.loc 1 272 0 is_stmt 0 discriminator 2
 713 0010 029B     		ldr	r3, [sp, #8]
 714 0012 002B     		cmp	r3, #0
 715 0014 02D0     		beq	.L29
 716              		.loc 1 272 0 discriminator 3
 717 0016 019B     		ldr	r3, [sp, #4]
 718 0018 002B     		cmp	r3, #0
 719 001a 05D1     		bne	.L30
 720              	.L29:
 721              		.loc 1 272 0 discriminator 1
 722 001c 40F20000 		movw	r0, #:lower16:.LC14
 723 0020 C0F20000 		movt	r0, #:upper16:.LC14
 724 0024 FFF7FEFF 		bl	chDbgPanic
 725              	.L30:
 726              	.LBB16:
 727              		.loc 1 275 0 is_stmt 1
 728 0028 4FF02003 		mov	r3, #32
 729              	@ 275 "../chibios_2.4.x/os/hal/src/spi.c" 1
 730 002c 83F31188 		msr     BASEPRI, r3
 731              	@ 0 "" 2
ARM GAS  C:\Users\z80\AppData\Local\Temp\cc436ojh.s 			page 15


 732              		.thumb
 733              	.LBE16:
 734 0030 FFF7FEFF 		bl	dbg_check_lock
 735              		.loc 1 276 0
 736 0034 039B     		ldr	r3, [sp, #12]
 737 0036 1B78     		ldrb	r3, [r3, #0]	@ zero_extendqisi2
 738 0038 022B     		cmp	r3, #2
 739 003a 05D0     		beq	.L31
 740              		.loc 1 276 0 is_stmt 0 discriminator 1
 741 003c 40F20000 		movw	r0, #:lower16:.LC15
 742 0040 C0F20000 		movt	r0, #:upper16:.LC15
 743 0044 FFF7FEFF 		bl	chDbgPanic
 744              	.L31:
 745              		.loc 1 277 0 is_stmt 1
 746 0048 039B     		ldr	r3, [sp, #12]
 747 004a 4FF00302 		mov	r2, #3
 748 004e 1A70     		strb	r2, [r3, #0]
 749 0050 0398     		ldr	r0, [sp, #12]
 750 0052 0299     		ldr	r1, [sp, #8]
 751 0054 019A     		ldr	r2, [sp, #4]
 752 0056 FFF7FEFF 		bl	spi_lld_receive
 753              		.loc 1 278 0
 754 005a FFF7FEFF 		bl	dbg_check_unlock
 755              	.LBB17:
 756 005e 4FF00003 		mov	r3, #0
 757              	@ 278 "../chibios_2.4.x/os/hal/src/spi.c" 1
 758 0062 83F31188 		msr     BASEPRI, r3
 759              	@ 0 "" 2
 760              		.thumb
 761              	.LBE17:
 762              		.loc 1 279 0
 763 0066 05B0     		add	sp, sp, #20
 764 0068 00BD     		pop	{pc}
 765              		.cfi_endproc
 766              	.LFE71:
 767              		.size	spiStartReceive, .-spiStartReceive
 768 006a 00BFAFF3 		.text
 768      0080
 769              	.Letext0:
 770              		.section	.debug_loc,"",%progbits
 771              	.Ldebug_loc0:
 772              	.LLST0:
 773 0000 00000000 		.4byte	.LFB62
 774 0004 02000000 		.4byte	.LCFI0
 775 0008 0200     		.2byte	0x2
 776 000a 7D       		.byte	0x7d
 777 000b 00       		.sleb128 0
 778 000c 02000000 		.4byte	.LCFI0
 779 0010 08000000 		.4byte	.LFE62
 780 0014 0200     		.2byte	0x2
 781 0016 7D       		.byte	0x7d
 782 0017 08       		.sleb128 8
 783 0018 00000000 		.4byte	0x0
 784 001c 00000000 		.4byte	0x0
 785              	.LLST1:
 786 0020 00000000 		.4byte	.LFB63
 787 0024 02000000 		.4byte	.LCFI1
ARM GAS  C:\Users\z80\AppData\Local\Temp\cc436ojh.s 			page 16


 788 0028 0200     		.2byte	0x2
 789 002a 7D       		.byte	0x7d
 790 002b 00       		.sleb128 0
 791 002c 02000000 		.4byte	.LCFI1
 792 0030 18000000 		.4byte	.LFE63
 793 0034 0200     		.2byte	0x2
 794 0036 7D       		.byte	0x7d
 795 0037 08       		.sleb128 8
 796 0038 00000000 		.4byte	0x0
 797 003c 00000000 		.4byte	0x0
 798              	.LLST2:
 799 0040 00000000 		.4byte	.LFB64
 800 0044 02000000 		.4byte	.LCFI2
 801 0048 0200     		.2byte	0x2
 802 004a 7D       		.byte	0x7d
 803 004b 00       		.sleb128 0
 804 004c 02000000 		.4byte	.LCFI2
 805 0050 04000000 		.4byte	.LCFI3
 806 0054 0200     		.2byte	0x2
 807 0056 7D       		.byte	0x7d
 808 0057 04       		.sleb128 4
 809 0058 04000000 		.4byte	.LCFI3
 810 005c 6C000000 		.4byte	.LFE64
 811 0060 0200     		.2byte	0x2
 812 0062 7D       		.byte	0x7d
 813 0063 10       		.sleb128 16
 814 0064 00000000 		.4byte	0x0
 815 0068 00000000 		.4byte	0x0
 816              	.LLST3:
 817 006c 00000000 		.4byte	.LFB65
 818 0070 02000000 		.4byte	.LCFI4
 819 0074 0200     		.2byte	0x2
 820 0076 7D       		.byte	0x7d
 821 0077 00       		.sleb128 0
 822 0078 02000000 		.4byte	.LCFI4
 823 007c 04000000 		.4byte	.LCFI5
 824 0080 0200     		.2byte	0x2
 825 0082 7D       		.byte	0x7d
 826 0083 04       		.sleb128 4
 827 0084 04000000 		.4byte	.LCFI5
 828 0088 64000000 		.4byte	.LFE65
 829 008c 0200     		.2byte	0x2
 830 008e 7D       		.byte	0x7d
 831 008f 10       		.sleb128 16
 832 0090 00000000 		.4byte	0x0
 833 0094 00000000 		.4byte	0x0
 834              	.LLST4:
 835 0098 00000000 		.4byte	.LFB66
 836 009c 02000000 		.4byte	.LCFI6
 837 00a0 0200     		.2byte	0x2
 838 00a2 7D       		.byte	0x7d
 839 00a3 00       		.sleb128 0
 840 00a4 02000000 		.4byte	.LCFI6
 841 00a8 04000000 		.4byte	.LCFI7
 842 00ac 0200     		.2byte	0x2
 843 00ae 7D       		.byte	0x7d
 844 00af 04       		.sleb128 4
ARM GAS  C:\Users\z80\AppData\Local\Temp\cc436ojh.s 			page 17


 845 00b0 04000000 		.4byte	.LCFI7
 846 00b4 4E000000 		.4byte	.LFE66
 847 00b8 0200     		.2byte	0x2
 848 00ba 7D       		.byte	0x7d
 849 00bb 10       		.sleb128 16
 850 00bc 00000000 		.4byte	0x0
 851 00c0 00000000 		.4byte	0x0
 852              	.LLST5:
 853 00c4 00000000 		.4byte	.LFB67
 854 00c8 02000000 		.4byte	.LCFI8
 855 00cc 0200     		.2byte	0x2
 856 00ce 7D       		.byte	0x7d
 857 00cf 00       		.sleb128 0
 858 00d0 02000000 		.4byte	.LCFI8
 859 00d4 04000000 		.4byte	.LCFI9
 860 00d8 0200     		.2byte	0x2
 861 00da 7D       		.byte	0x7d
 862 00db 04       		.sleb128 4
 863 00dc 04000000 		.4byte	.LCFI9
 864 00e0 4E000000 		.4byte	.LFE67
 865 00e4 0200     		.2byte	0x2
 866 00e6 7D       		.byte	0x7d
 867 00e7 10       		.sleb128 16
 868 00e8 00000000 		.4byte	0x0
 869 00ec 00000000 		.4byte	0x0
 870              	.LLST6:
 871 00f0 00000000 		.4byte	.LFB68
 872 00f4 02000000 		.4byte	.LCFI10
 873 00f8 0200     		.2byte	0x2
 874 00fa 7D       		.byte	0x7d
 875 00fb 00       		.sleb128 0
 876 00fc 02000000 		.4byte	.LCFI10
 877 0100 04000000 		.4byte	.LCFI11
 878 0104 0200     		.2byte	0x2
 879 0106 7D       		.byte	0x7d
 880 0107 04       		.sleb128 4
 881 0108 04000000 		.4byte	.LCFI11
 882 010c 60000000 		.4byte	.LFE68
 883 0110 0200     		.2byte	0x2
 884 0112 7D       		.byte	0x7d
 885 0113 10       		.sleb128 16
 886 0114 00000000 		.4byte	0x0
 887 0118 00000000 		.4byte	0x0
 888              	.LLST7:
 889 011c 00000000 		.4byte	.LFB69
 890 0120 02000000 		.4byte	.LCFI12
 891 0124 0200     		.2byte	0x2
 892 0126 7D       		.byte	0x7d
 893 0127 00       		.sleb128 0
 894 0128 02000000 		.4byte	.LCFI12
 895 012c 04000000 		.4byte	.LCFI13
 896 0130 0200     		.2byte	0x2
 897 0132 7D       		.byte	0x7d
 898 0133 04       		.sleb128 4
 899 0134 04000000 		.4byte	.LCFI13
 900 0138 74000000 		.4byte	.LFE69
 901 013c 0200     		.2byte	0x2
ARM GAS  C:\Users\z80\AppData\Local\Temp\cc436ojh.s 			page 18


 902 013e 7D       		.byte	0x7d
 903 013f 18       		.sleb128 24
 904 0140 00000000 		.4byte	0x0
 905 0144 00000000 		.4byte	0x0
 906              	.LLST8:
 907 0148 00000000 		.4byte	.LFB70
 908 014c 02000000 		.4byte	.LCFI14
 909 0150 0200     		.2byte	0x2
 910 0152 7D       		.byte	0x7d
 911 0153 00       		.sleb128 0
 912 0154 02000000 		.4byte	.LCFI14
 913 0158 04000000 		.4byte	.LCFI15
 914 015c 0200     		.2byte	0x2
 915 015e 7D       		.byte	0x7d
 916 015f 04       		.sleb128 4
 917 0160 04000000 		.4byte	.LCFI15
 918 0164 6A000000 		.4byte	.LFE70
 919 0168 0200     		.2byte	0x2
 920 016a 7D       		.byte	0x7d
 921 016b 18       		.sleb128 24
 922 016c 00000000 		.4byte	0x0
 923 0170 00000000 		.4byte	0x0
 924              	.LLST9:
 925 0174 00000000 		.4byte	.LFB71
 926 0178 02000000 		.4byte	.LCFI16
 927 017c 0200     		.2byte	0x2
 928 017e 7D       		.byte	0x7d
 929 017f 00       		.sleb128 0
 930 0180 02000000 		.4byte	.LCFI16
 931 0184 04000000 		.4byte	.LCFI17
 932 0188 0200     		.2byte	0x2
 933 018a 7D       		.byte	0x7d
 934 018b 04       		.sleb128 4
 935 018c 04000000 		.4byte	.LCFI17
 936 0190 6A000000 		.4byte	.LFE71
 937 0194 0200     		.2byte	0x2
 938 0196 7D       		.byte	0x7d
 939 0197 18       		.sleb128 24
 940 0198 00000000 		.4byte	0x0
 941 019c 00000000 		.4byte	0x0
 942              		.file 2 "c:\\programs\\yagarto\\bin\\../lib/gcc/arm-none-eabi/4.5.0/include/stddef.h"
 943              		.file 3 "c:/programs/yagarto/lib/gcc/../../arm-none-eabi/sys-include/stdint.h"
 944              		.file 4 "../chibios_2.4.x/os/hal/platforms/STM32F1xx/stm32f10x.h"
 945              		.file 5 "../chibios_2.4.x/os/hal/platforms/STM32F1xx/stm32_dma.h"
 946              		.file 6 "../chibios_2.4.x/os/hal/platforms/STM32/GPIOv1/pal_lld.h"
 947              		.file 7 "../chibios_2.4.x/os/hal/include/spi.h"
 948              		.file 8 "../chibios_2.4.x/os/hal/platforms/STM32/spi_lld.h"
 949              		.file 9 "../chibios_2.4.x/os/ports/common/ARMCMx/CMSIS/include/core_cm3.h"
 950              		.section	.debug_info
 951 0000 1B080000 		.4byte	0x81b
 952 0004 0200     		.2byte	0x2
 953 0006 00000000 		.4byte	.Ldebug_abbrev0
 954 000a 04       		.byte	0x4
 955 000b 01       		.uleb128 0x1
 956 000c D8020000 		.4byte	.LASF75
 957 0010 01       		.byte	0x1
 958 0011 D6000000 		.4byte	.LASF76
ARM GAS  C:\Users\z80\AppData\Local\Temp\cc436ojh.s 			page 19


 959 0015 AB020000 		.4byte	.LASF77
 960 0019 00000000 		.4byte	0x0
 961 001d 00000000 		.4byte	0x0
 962 0021 00000000 		.4byte	.Ldebug_ranges0+0x0
 963 0025 00000000 		.4byte	.Ldebug_line0
 964 0029 02       		.uleb128 0x2
 965 002a 04       		.byte	0x4
 966 002b 05       		.byte	0x5
 967 002c 696E7400 		.ascii	"int\000"
 968 0030 03       		.uleb128 0x3
 969 0031 36000000 		.4byte	.LASF2
 970 0035 02       		.byte	0x2
 971 0036 D3       		.byte	0xd3
 972 0037 3B000000 		.4byte	0x3b
 973 003b 04       		.uleb128 0x4
 974 003c 04       		.byte	0x4
 975 003d 07       		.byte	0x7
 976 003e 83010000 		.4byte	.LASF0
 977 0042 04       		.uleb128 0x4
 978 0043 01       		.byte	0x1
 979 0044 06       		.byte	0x6
 980 0045 98000000 		.4byte	.LASF1
 981 0049 03       		.uleb128 0x3
 982 004a 7F000000 		.4byte	.LASF3
 983 004e 03       		.byte	0x3
 984 004f 2A       		.byte	0x2a
 985 0050 54000000 		.4byte	0x54
 986 0054 04       		.uleb128 0x4
 987 0055 01       		.byte	0x1
 988 0056 08       		.byte	0x8
 989 0057 2E010000 		.4byte	.LASF4
 990 005b 04       		.uleb128 0x4
 991 005c 02       		.byte	0x2
 992 005d 05       		.byte	0x5
 993 005e 2C000000 		.4byte	.LASF5
 994 0062 03       		.uleb128 0x3
 995 0063 05020000 		.4byte	.LASF6
 996 0067 03       		.byte	0x3
 997 0068 36       		.byte	0x36
 998 0069 6D000000 		.4byte	0x6d
 999 006d 04       		.uleb128 0x4
 1000 006e 02       		.byte	0x2
 1001 006f 07       		.byte	0x7
 1002 0070 04030000 		.4byte	.LASF7
 1003 0074 03       		.uleb128 0x3
 1004 0075 0E020000 		.4byte	.LASF8
 1005 0079 03       		.byte	0x3
 1006 007a 4F       		.byte	0x4f
 1007 007b 7F000000 		.4byte	0x7f
 1008 007f 04       		.uleb128 0x4
 1009 0080 04       		.byte	0x4
 1010 0081 05       		.byte	0x5
 1011 0082 CD000000 		.4byte	.LASF9
 1012 0086 03       		.uleb128 0x3
 1013 0087 70010000 		.4byte	.LASF10
 1014 008b 03       		.byte	0x3
 1015 008c 50       		.byte	0x50
ARM GAS  C:\Users\z80\AppData\Local\Temp\cc436ojh.s 			page 20


 1016 008d 91000000 		.4byte	0x91
 1017 0091 04       		.uleb128 0x4
 1018 0092 04       		.byte	0x4
 1019 0093 07       		.byte	0x7
 1020 0094 9B010000 		.4byte	.LASF11
 1021 0098 04       		.uleb128 0x4
 1022 0099 08       		.byte	0x8
 1023 009a 05       		.byte	0x5
 1024 009b AE000000 		.4byte	.LASF12
 1025 009f 04       		.uleb128 0x4
 1026 00a0 08       		.byte	0x8
 1027 00a1 07       		.byte	0x7
 1028 00a2 59010000 		.4byte	.LASF13
 1029 00a6 05       		.uleb128 0x5
 1030 00a7 04       		.byte	0x4
 1031 00a8 06       		.uleb128 0x6
 1032 00a9 86000000 		.4byte	0x86
 1033 00ad 07       		.uleb128 0x7
 1034 00ae 04       		.byte	0x4
 1035 00af 07       		.byte	0x7
 1036 00b0 04       		.uleb128 0x4
 1037 00b1 01       		.byte	0x1
 1038 00b2 08       		.byte	0x8
 1039 00b3 00020000 		.4byte	.LASF14
 1040 00b7 06       		.uleb128 0x6
 1041 00b8 62000000 		.4byte	0x62
 1042 00bc 06       		.uleb128 0x6
 1043 00bd 74000000 		.4byte	0x74
 1044 00c1 08       		.uleb128 0x8
 1045 00c2 10       		.byte	0x10
 1046 00c3 04       		.byte	0x4
 1047 00c4 2D03     		.2byte	0x32d
 1048 00c6 07010000 		.4byte	0x107
 1049 00ca 09       		.uleb128 0x9
 1050 00cb 43435200 		.ascii	"CCR\000"
 1051 00cf 04       		.byte	0x4
 1052 00d0 2F03     		.2byte	0x32f
 1053 00d2 A8000000 		.4byte	0xa8
 1054 00d6 02       		.byte	0x2
 1055 00d7 23       		.byte	0x23
 1056 00d8 00       		.uleb128 0x0
 1057 00d9 0A       		.uleb128 0xa
 1058 00da FA010000 		.4byte	.LASF15
 1059 00de 04       		.byte	0x4
 1060 00df 3003     		.2byte	0x330
 1061 00e1 A8000000 		.4byte	0xa8
 1062 00e5 02       		.byte	0x2
 1063 00e6 23       		.byte	0x23
 1064 00e7 04       		.uleb128 0x4
 1065 00e8 0A       		.uleb128 0xa
 1066 00e9 10010000 		.4byte	.LASF16
 1067 00ed 04       		.byte	0x4
 1068 00ee 3103     		.2byte	0x331
 1069 00f0 A8000000 		.4byte	0xa8
 1070 00f4 02       		.byte	0x2
 1071 00f5 23       		.byte	0x23
 1072 00f6 08       		.uleb128 0x8
ARM GAS  C:\Users\z80\AppData\Local\Temp\cc436ojh.s 			page 21


 1073 00f7 0A       		.uleb128 0xa
 1074 00f8 E4020000 		.4byte	.LASF17
 1075 00fc 04       		.byte	0x4
 1076 00fd 3203     		.2byte	0x332
 1077 00ff A8000000 		.4byte	0xa8
 1078 0103 02       		.byte	0x2
 1079 0104 23       		.byte	0x23
 1080 0105 0C       		.uleb128 0xc
 1081 0106 00       		.byte	0x0
 1082 0107 0B       		.uleb128 0xb
 1083 0108 CB010000 		.4byte	.LASF18
 1084 010c 04       		.byte	0x4
 1085 010d 3303     		.2byte	0x333
 1086 010f C1000000 		.4byte	0xc1
 1087 0113 08       		.uleb128 0x8
 1088 0114 1C       		.byte	0x1c
 1089 0115 04       		.byte	0x4
 1090 0116 F803     		.2byte	0x3f8
 1091 0118 86010000 		.4byte	0x186
 1092 011c 09       		.uleb128 0x9
 1093 011d 43524C00 		.ascii	"CRL\000"
 1094 0121 04       		.byte	0x4
 1095 0122 FA03     		.2byte	0x3fa
 1096 0124 A8000000 		.4byte	0xa8
 1097 0128 02       		.byte	0x2
 1098 0129 23       		.byte	0x23
 1099 012a 00       		.uleb128 0x0
 1100 012b 09       		.uleb128 0x9
 1101 012c 43524800 		.ascii	"CRH\000"
 1102 0130 04       		.byte	0x4
 1103 0131 FB03     		.2byte	0x3fb
 1104 0133 A8000000 		.4byte	0xa8
 1105 0137 02       		.byte	0x2
 1106 0138 23       		.byte	0x23
 1107 0139 04       		.uleb128 0x4
 1108 013a 09       		.uleb128 0x9
 1109 013b 49445200 		.ascii	"IDR\000"
 1110 013f 04       		.byte	0x4
 1111 0140 FC03     		.2byte	0x3fc
 1112 0142 A8000000 		.4byte	0xa8
 1113 0146 02       		.byte	0x2
 1114 0147 23       		.byte	0x23
 1115 0148 08       		.uleb128 0x8
 1116 0149 09       		.uleb128 0x9
 1117 014a 4F445200 		.ascii	"ODR\000"
 1118 014e 04       		.byte	0x4
 1119 014f FD03     		.2byte	0x3fd
 1120 0151 A8000000 		.4byte	0xa8
 1121 0155 02       		.byte	0x2
 1122 0156 23       		.byte	0x23
 1123 0157 0C       		.uleb128 0xc
 1124 0158 0A       		.uleb128 0xa
 1125 0159 4A030000 		.4byte	.LASF19
 1126 015d 04       		.byte	0x4
 1127 015e FE03     		.2byte	0x3fe
 1128 0160 A8000000 		.4byte	0xa8
 1129 0164 02       		.byte	0x2
ARM GAS  C:\Users\z80\AppData\Local\Temp\cc436ojh.s 			page 22


 1130 0165 23       		.byte	0x23
 1131 0166 10       		.uleb128 0x10
 1132 0167 09       		.uleb128 0x9
 1133 0168 42525200 		.ascii	"BRR\000"
 1134 016c 04       		.byte	0x4
 1135 016d FF03     		.2byte	0x3ff
 1136 016f A8000000 		.4byte	0xa8
 1137 0173 02       		.byte	0x2
 1138 0174 23       		.byte	0x23
 1139 0175 14       		.uleb128 0x14
 1140 0176 0A       		.uleb128 0xa
 1141 0177 45030000 		.4byte	.LASF20
 1142 017b 04       		.byte	0x4
 1143 017c 0004     		.2byte	0x400
 1144 017e A8000000 		.4byte	0xa8
 1145 0182 02       		.byte	0x2
 1146 0183 23       		.byte	0x23
 1147 0184 18       		.uleb128 0x18
 1148 0185 00       		.byte	0x0
 1149 0186 0B       		.uleb128 0xb
 1150 0187 00000000 		.4byte	.LASF21
 1151 018b 04       		.byte	0x4
 1152 018c 0104     		.2byte	0x401
 1153 018e 13010000 		.4byte	0x113
 1154 0192 08       		.uleb128 0x8
 1155 0193 24       		.byte	0x24
 1156 0194 04       		.byte	0x4
 1157 0195 9704     		.2byte	0x497
 1158 0197 A8020000 		.4byte	0x2a8
 1159 019b 09       		.uleb128 0x9
 1160 019c 43523100 		.ascii	"CR1\000"
 1161 01a0 04       		.byte	0x4
 1162 01a1 9904     		.2byte	0x499
 1163 01a3 B7000000 		.4byte	0xb7
 1164 01a7 02       		.byte	0x2
 1165 01a8 23       		.byte	0x23
 1166 01a9 00       		.uleb128 0x0
 1167 01aa 0A       		.uleb128 0xa
 1168 01ab 51020000 		.4byte	.LASF22
 1169 01af 04       		.byte	0x4
 1170 01b0 9A04     		.2byte	0x49a
 1171 01b2 62000000 		.4byte	0x62
 1172 01b6 02       		.byte	0x2
 1173 01b7 23       		.byte	0x23
 1174 01b8 02       		.uleb128 0x2
 1175 01b9 09       		.uleb128 0x9
 1176 01ba 43523200 		.ascii	"CR2\000"
 1177 01be 04       		.byte	0x4
 1178 01bf 9B04     		.2byte	0x49b
 1179 01c1 B7000000 		.4byte	0xb7
 1180 01c5 02       		.byte	0x2
 1181 01c6 23       		.byte	0x23
 1182 01c7 04       		.uleb128 0x4
 1183 01c8 0A       		.uleb128 0xa
 1184 01c9 5B020000 		.4byte	.LASF23
 1185 01cd 04       		.byte	0x4
 1186 01ce 9C04     		.2byte	0x49c
ARM GAS  C:\Users\z80\AppData\Local\Temp\cc436ojh.s 			page 23


 1187 01d0 62000000 		.4byte	0x62
 1188 01d4 02       		.byte	0x2
 1189 01d5 23       		.byte	0x23
 1190 01d6 06       		.uleb128 0x6
 1191 01d7 09       		.uleb128 0x9
 1192 01d8 535200   		.ascii	"SR\000"
 1193 01db 04       		.byte	0x4
 1194 01dc 9D04     		.2byte	0x49d
 1195 01de B7000000 		.4byte	0xb7
 1196 01e2 02       		.byte	0x2
 1197 01e3 23       		.byte	0x23
 1198 01e4 08       		.uleb128 0x8
 1199 01e5 0A       		.uleb128 0xa
 1200 01e6 65020000 		.4byte	.LASF24
 1201 01ea 04       		.byte	0x4
 1202 01eb 9E04     		.2byte	0x49e
 1203 01ed 62000000 		.4byte	0x62
 1204 01f1 02       		.byte	0x2
 1205 01f2 23       		.byte	0x23
 1206 01f3 0A       		.uleb128 0xa
 1207 01f4 09       		.uleb128 0x9
 1208 01f5 445200   		.ascii	"DR\000"
 1209 01f8 04       		.byte	0x4
 1210 01f9 9F04     		.2byte	0x49f
 1211 01fb B7000000 		.4byte	0xb7
 1212 01ff 02       		.byte	0x2
 1213 0200 23       		.byte	0x23
 1214 0201 0C       		.uleb128 0xc
 1215 0202 0A       		.uleb128 0xa
 1216 0203 6F020000 		.4byte	.LASF25
 1217 0207 04       		.byte	0x4
 1218 0208 A004     		.2byte	0x4a0
 1219 020a 62000000 		.4byte	0x62
 1220 020e 02       		.byte	0x2
 1221 020f 23       		.byte	0x23
 1222 0210 0E       		.uleb128 0xe
 1223 0211 0A       		.uleb128 0xa
 1224 0212 4B020000 		.4byte	.LASF26
 1225 0216 04       		.byte	0x4
 1226 0217 A104     		.2byte	0x4a1
 1227 0219 B7000000 		.4byte	0xb7
 1228 021d 02       		.byte	0x2
 1229 021e 23       		.byte	0x23
 1230 021f 10       		.uleb128 0x10
 1231 0220 0A       		.uleb128 0xa
 1232 0221 79020000 		.4byte	.LASF27
 1233 0225 04       		.byte	0x4
 1234 0226 A204     		.2byte	0x4a2
 1235 0228 62000000 		.4byte	0x62
 1236 022c 02       		.byte	0x2
 1237 022d 23       		.byte	0x23
 1238 022e 12       		.uleb128 0x12
 1239 022f 0A       		.uleb128 0xa
 1240 0230 5B000000 		.4byte	.LASF28
 1241 0234 04       		.byte	0x4
 1242 0235 A304     		.2byte	0x4a3
 1243 0237 B7000000 		.4byte	0xb7
ARM GAS  C:\Users\z80\AppData\Local\Temp\cc436ojh.s 			page 24


 1244 023b 02       		.byte	0x2
 1245 023c 23       		.byte	0x23
 1246 023d 14       		.uleb128 0x14
 1247 023e 0A       		.uleb128 0xa
 1248 023f 83020000 		.4byte	.LASF29
 1249 0243 04       		.byte	0x4
 1250 0244 A404     		.2byte	0x4a4
 1251 0246 62000000 		.4byte	0x62
 1252 024a 02       		.byte	0x2
 1253 024b 23       		.byte	0x23
 1254 024c 16       		.uleb128 0x16
 1255 024d 0A       		.uleb128 0xa
 1256 024e 4D000000 		.4byte	.LASF30
 1257 0252 04       		.byte	0x4
 1258 0253 A504     		.2byte	0x4a5
 1259 0255 B7000000 		.4byte	0xb7
 1260 0259 02       		.byte	0x2
 1261 025a 23       		.byte	0x23
 1262 025b 18       		.uleb128 0x18
 1263 025c 0A       		.uleb128 0xa
 1264 025d 8D020000 		.4byte	.LASF31
 1265 0261 04       		.byte	0x4
 1266 0262 A604     		.2byte	0x4a6
 1267 0264 62000000 		.4byte	0x62
 1268 0268 02       		.byte	0x2
 1269 0269 23       		.byte	0x23
 1270 026a 1A       		.uleb128 0x1a
 1271 026b 0A       		.uleb128 0xa
 1272 026c 45000000 		.4byte	.LASF32
 1273 0270 04       		.byte	0x4
 1274 0271 A704     		.2byte	0x4a7
 1275 0273 B7000000 		.4byte	0xb7
 1276 0277 02       		.byte	0x2
 1277 0278 23       		.byte	0x23
 1278 0279 1C       		.uleb128 0x1c
 1279 027a 0A       		.uleb128 0xa
 1280 027b 97020000 		.4byte	.LASF33
 1281 027f 04       		.byte	0x4
 1282 0280 A804     		.2byte	0x4a8
 1283 0282 62000000 		.4byte	0x62
 1284 0286 02       		.byte	0x2
 1285 0287 23       		.byte	0x23
 1286 0288 1E       		.uleb128 0x1e
 1287 0289 0A       		.uleb128 0xa
 1288 028a 3F030000 		.4byte	.LASF34
 1289 028e 04       		.byte	0x4
 1290 028f A904     		.2byte	0x4a9
 1291 0291 B7000000 		.4byte	0xb7
 1292 0295 02       		.byte	0x2
 1293 0296 23       		.byte	0x23
 1294 0297 20       		.uleb128 0x20
 1295 0298 0A       		.uleb128 0xa
 1296 0299 A1020000 		.4byte	.LASF35
 1297 029d 04       		.byte	0x4
 1298 029e AA04     		.2byte	0x4aa
 1299 02a0 62000000 		.4byte	0x62
 1300 02a4 02       		.byte	0x2
ARM GAS  C:\Users\z80\AppData\Local\Temp\cc436ojh.s 			page 25


 1301 02a5 23       		.byte	0x23
 1302 02a6 22       		.uleb128 0x22
 1303 02a7 00       		.byte	0x0
 1304 02a8 0B       		.uleb128 0xb
 1305 02a9 3C010000 		.4byte	.LASF36
 1306 02ad 04       		.byte	0x4
 1307 02ae AB04     		.2byte	0x4ab
 1308 02b0 92010000 		.4byte	0x192
 1309 02b4 0C       		.uleb128 0xc
 1310 02b5 0C       		.byte	0xc
 1311 02b6 05       		.byte	0x5
 1312 02b7 C2       		.byte	0xc2
 1313 02b8 03030000 		.4byte	0x303
 1314 02bc 0D       		.uleb128 0xd
 1315 02bd 43020000 		.4byte	.LASF37
 1316 02c1 05       		.byte	0x5
 1317 02c2 C3       		.byte	0xc3
 1318 02c3 03030000 		.4byte	0x303
 1319 02c7 02       		.byte	0x2
 1320 02c8 23       		.byte	0x23
 1321 02c9 00       		.uleb128 0x0
 1322 02ca 0D       		.uleb128 0xd
 1323 02cb 15010000 		.4byte	.LASF38
 1324 02cf 05       		.byte	0x5
 1325 02d0 C4       		.byte	0xc4
 1326 02d1 09030000 		.4byte	0x309
 1327 02d5 02       		.byte	0x2
 1328 02d6 23       		.byte	0x23
 1329 02d7 04       		.uleb128 0x4
 1330 02d8 0D       		.uleb128 0xd
 1331 02d9 1D030000 		.4byte	.LASF39
 1332 02dd 05       		.byte	0x5
 1333 02de C5       		.byte	0xc5
 1334 02df 49000000 		.4byte	0x49
 1335 02e3 02       		.byte	0x2
 1336 02e4 23       		.byte	0x23
 1337 02e5 08       		.uleb128 0x8
 1338 02e6 0D       		.uleb128 0xd
 1339 02e7 79010000 		.4byte	.LASF40
 1340 02eb 05       		.byte	0x5
 1341 02ec C7       		.byte	0xc7
 1342 02ed 49000000 		.4byte	0x49
 1343 02f1 02       		.byte	0x2
 1344 02f2 23       		.byte	0x23
 1345 02f3 09       		.uleb128 0x9
 1346 02f4 0D       		.uleb128 0xd
 1347 02f5 91000000 		.4byte	.LASF41
 1348 02f9 05       		.byte	0x5
 1349 02fa C8       		.byte	0xc8
 1350 02fb 49000000 		.4byte	0x49
 1351 02ff 02       		.byte	0x2
 1352 0300 23       		.byte	0x23
 1353 0301 0A       		.uleb128 0xa
 1354 0302 00       		.byte	0x0
 1355 0303 0E       		.uleb128 0xe
 1356 0304 04       		.byte	0x4
 1357 0305 07010000 		.4byte	0x107
ARM GAS  C:\Users\z80\AppData\Local\Temp\cc436ojh.s 			page 26


 1358 0309 0E       		.uleb128 0xe
 1359 030a 04       		.byte	0x4
 1360 030b A8000000 		.4byte	0xa8
 1361 030f 03       		.uleb128 0x3
 1362 0310 6C000000 		.4byte	.LASF42
 1363 0314 05       		.byte	0x5
 1364 0315 C9       		.byte	0xc9
 1365 0316 B4020000 		.4byte	0x2b4
 1366 031a 03       		.uleb128 0x3
 1367 031b 1A010000 		.4byte	.LASF43
 1368 031f 06       		.byte	0x6
 1369 0320 85       		.byte	0x85
 1370 0321 25030000 		.4byte	0x325
 1371 0325 0E       		.uleb128 0xe
 1372 0326 04       		.byte	0x4
 1373 0327 86010000 		.4byte	0x186
 1374 032b 0F       		.uleb128 0xf
 1375 032c 01       		.byte	0x1
 1376 032d 07       		.byte	0x7
 1377 032e 55       		.byte	0x55
 1378 032f 52030000 		.4byte	0x352
 1379 0333 10       		.uleb128 0x10
 1380 0334 90010000 		.4byte	.LASF44
 1381 0338 00       		.sleb128 0
 1382 0339 10       		.uleb128 0x10
 1383 033a C2010000 		.4byte	.LASF45
 1384 033e 01       		.sleb128 1
 1385 033f 10       		.uleb128 0x10
 1386 0340 16020000 		.4byte	.LASF46
 1387 0344 02       		.sleb128 2
 1388 0345 10       		.uleb128 0x10
 1389 0346 2E020000 		.4byte	.LASF47
 1390 034a 03       		.sleb128 3
 1391 034b 10       		.uleb128 0x10
 1392 034c ED010000 		.4byte	.LASF48
 1393 0350 04       		.sleb128 4
 1394 0351 00       		.byte	0x0
 1395 0352 03       		.uleb128 0x3
 1396 0353 F9020000 		.4byte	.LASF49
 1397 0357 07       		.byte	0x7
 1398 0358 5B       		.byte	0x5b
 1399 0359 2B030000 		.4byte	0x32b
 1400 035d 0B       		.uleb128 0xb
 1401 035e 39020000 		.4byte	.LASF50
 1402 0362 08       		.byte	0x8
 1403 0363 0701     		.2byte	0x107
 1404 0365 69030000 		.4byte	0x369
 1405 0369 11       		.uleb128 0x11
 1406 036a 39020000 		.4byte	.LASF50
 1407 036e 1C       		.byte	0x1c
 1408 036f 08       		.byte	0x8
 1409 0370 2B01     		.2byte	0x12b
 1410 0372 E0030000 		.4byte	0x3e0
 1411 0376 0A       		.uleb128 0xa
 1412 0377 26000000 		.4byte	.LASF51
 1413 037b 08       		.byte	0x8
 1414 037c 2F01     		.2byte	0x12f
ARM GAS  C:\Users\z80\AppData\Local\Temp\cc436ojh.s 			page 27


 1415 037e 52030000 		.4byte	0x352
 1416 0382 02       		.byte	0x2
 1417 0383 23       		.byte	0x23
 1418 0384 00       		.uleb128 0x0
 1419 0385 0A       		.uleb128 0xa
 1420 0386 54000000 		.4byte	.LASF52
 1421 038a 08       		.byte	0x8
 1422 038b 3301     		.2byte	0x133
 1423 038d 56040000 		.4byte	0x456
 1424 0391 02       		.byte	0x2
 1425 0392 23       		.byte	0x23
 1426 0393 04       		.uleb128 0x4
 1427 0394 09       		.uleb128 0x9
 1428 0395 73706900 		.ascii	"spi\000"
 1429 0399 08       		.byte	0x8
 1430 039a 4B01     		.2byte	0x14b
 1431 039c 61040000 		.4byte	0x461
 1432 03a0 02       		.byte	0x2
 1433 03a1 23       		.byte	0x23
 1434 03a2 08       		.uleb128 0x8
 1435 03a3 0A       		.uleb128 0xa
 1436 03a4 20000000 		.4byte	.LASF53
 1437 03a8 08       		.byte	0x8
 1438 03a9 4F01     		.2byte	0x14f
 1439 03ab 67040000 		.4byte	0x467
 1440 03af 02       		.byte	0x2
 1441 03b0 23       		.byte	0x23
 1442 03b1 0C       		.uleb128 0xc
 1443 03b2 0A       		.uleb128 0xa
 1444 03b3 AD010000 		.4byte	.LASF54
 1445 03b7 08       		.byte	0x8
 1446 03b8 5301     		.2byte	0x153
 1447 03ba 67040000 		.4byte	0x467
 1448 03be 02       		.byte	0x2
 1449 03bf 23       		.byte	0x23
 1450 03c0 10       		.uleb128 0x10
 1451 03c1 0A       		.uleb128 0xa
 1452 03c2 06010000 		.4byte	.LASF55
 1453 03c6 08       		.byte	0x8
 1454 03c7 5701     		.2byte	0x157
 1455 03c9 86000000 		.4byte	0x86
 1456 03cd 02       		.byte	0x2
 1457 03ce 23       		.byte	0x23
 1458 03cf 14       		.uleb128 0x14
 1459 03d0 0A       		.uleb128 0xa
 1460 03d1 62000000 		.4byte	.LASF56
 1461 03d5 08       		.byte	0x8
 1462 03d6 5B01     		.2byte	0x15b
 1463 03d8 86000000 		.4byte	0x86
 1464 03dc 02       		.byte	0x2
 1465 03dd 23       		.byte	0x23
 1466 03de 18       		.uleb128 0x18
 1467 03df 00       		.byte	0x0
 1468 03e0 0B       		.uleb128 0xb
 1469 03e1 F8000000 		.4byte	.LASF57
 1470 03e5 08       		.byte	0x8
 1471 03e6 0F01     		.2byte	0x10f
ARM GAS  C:\Users\z80\AppData\Local\Temp\cc436ojh.s 			page 28


 1472 03e8 EC030000 		.4byte	0x3ec
 1473 03ec 0E       		.uleb128 0xe
 1474 03ed 04       		.byte	0x4
 1475 03ee F2030000 		.4byte	0x3f2
 1476 03f2 12       		.uleb128 0x12
 1477 03f3 01       		.byte	0x1
 1478 03f4 FE030000 		.4byte	0x3fe
 1479 03f8 13       		.uleb128 0x13
 1480 03f9 FE030000 		.4byte	0x3fe
 1481 03fd 00       		.byte	0x0
 1482 03fe 0E       		.uleb128 0xe
 1483 03ff 04       		.byte	0x4
 1484 0400 5D030000 		.4byte	0x35d
 1485 0404 08       		.uleb128 0x8
 1486 0405 0C       		.byte	0xc
 1487 0406 08       		.byte	0x8
 1488 0407 1401     		.2byte	0x114
 1489 0409 4A040000 		.4byte	0x44a
 1490 040d 0A       		.uleb128 0xa
 1491 040e 38030000 		.4byte	.LASF58
 1492 0412 08       		.byte	0x8
 1493 0413 1801     		.2byte	0x118
 1494 0415 E0030000 		.4byte	0x3e0
 1495 0419 02       		.byte	0x2
 1496 041a 23       		.byte	0x23
 1497 041b 00       		.uleb128 0x0
 1498 041c 0A       		.uleb128 0xa
 1499 041d 31030000 		.4byte	.LASF59
 1500 0421 08       		.byte	0x8
 1501 0422 1D01     		.2byte	0x11d
 1502 0424 1A030000 		.4byte	0x31a
 1503 0428 02       		.byte	0x2
 1504 0429 23       		.byte	0x23
 1505 042a 04       		.uleb128 0x4
 1506 042b 0A       		.uleb128 0xa
 1507 042c 0D000000 		.4byte	.LASF60
 1508 0430 08       		.byte	0x8
 1509 0431 2101     		.2byte	0x121
 1510 0433 62000000 		.4byte	0x62
 1511 0437 02       		.byte	0x2
 1512 0438 23       		.byte	0x23
 1513 0439 08       		.uleb128 0x8
 1514 043a 09       		.uleb128 0x9
 1515 043b 63723100 		.ascii	"cr1\000"
 1516 043f 08       		.byte	0x8
 1517 0440 2501     		.2byte	0x125
 1518 0442 62000000 		.4byte	0x62
 1519 0446 02       		.byte	0x2
 1520 0447 23       		.byte	0x23
 1521 0448 0A       		.uleb128 0xa
 1522 0449 00       		.byte	0x0
 1523 044a 0B       		.uleb128 0xb
 1524 044b A4000000 		.4byte	.LASF61
 1525 044f 08       		.byte	0x8
 1526 0450 2601     		.2byte	0x126
 1527 0452 04040000 		.4byte	0x404
 1528 0456 0E       		.uleb128 0xe
ARM GAS  C:\Users\z80\AppData\Local\Temp\cc436ojh.s 			page 29


 1529 0457 04       		.byte	0x4
 1530 0458 5C040000 		.4byte	0x45c
 1531 045c 14       		.uleb128 0x14
 1532 045d 4A040000 		.4byte	0x44a
 1533 0461 0E       		.uleb128 0xe
 1534 0462 04       		.byte	0x4
 1535 0463 A8020000 		.4byte	0x2a8
 1536 0467 0E       		.uleb128 0xe
 1537 0468 04       		.byte	0x4
 1538 0469 6D040000 		.4byte	0x46d
 1539 046d 14       		.uleb128 0x14
 1540 046e 0F030000 		.4byte	0x30f
 1541 0472 15       		.uleb128 0x15
 1542 0473 01       		.byte	0x1
 1543 0474 3D000000 		.4byte	.LASF78
 1544 0478 01       		.byte	0x1
 1545 0479 44       		.byte	0x44
 1546 047a 01       		.byte	0x1
 1547 047b 00000000 		.4byte	.LFB62
 1548 047f 08000000 		.4byte	.LFE62
 1549 0483 00000000 		.4byte	.LLST0
 1550 0487 16       		.uleb128 0x16
 1551 0488 01       		.byte	0x1
 1552 0489 20020000 		.4byte	.LASF62
 1553 048d 01       		.byte	0x1
 1554 048e 50       		.byte	0x50
 1555 048f 01       		.byte	0x1
 1556 0490 00000000 		.4byte	.LFB63
 1557 0494 18000000 		.4byte	.LFE63
 1558 0498 20000000 		.4byte	.LLST1
 1559 049c AF040000 		.4byte	0x4af
 1560 04a0 17       		.uleb128 0x17
 1561 04a1 48010000 		.4byte	.LASF64
 1562 04a5 01       		.byte	0x1
 1563 04a6 50       		.byte	0x50
 1564 04a7 FE030000 		.4byte	0x3fe
 1565 04ab 02       		.byte	0x2
 1566 04ac 91       		.byte	0x91
 1567 04ad 7C       		.sleb128 -4
 1568 04ae 00       		.byte	0x0
 1569 04af 16       		.uleb128 0x16
 1570 04b0 01       		.byte	0x1
 1571 04b1 25010000 		.4byte	.LASF63
 1572 04b5 01       		.byte	0x1
 1573 04b6 6B       		.byte	0x6b
 1574 04b7 01       		.byte	0x1
 1575 04b8 00000000 		.4byte	.LFB64
 1576 04bc 6C000000 		.4byte	.LFE64
 1577 04c0 40000000 		.4byte	.LLST2
 1578 04c4 17050000 		.4byte	0x517
 1579 04c8 17       		.uleb128 0x17
 1580 04c9 48010000 		.4byte	.LASF64
 1581 04cd 01       		.byte	0x1
 1582 04ce 6B       		.byte	0x6b
 1583 04cf FE030000 		.4byte	0x3fe
 1584 04d3 02       		.byte	0x2
 1585 04d4 91       		.byte	0x91
ARM GAS  C:\Users\z80\AppData\Local\Temp\cc436ojh.s 			page 30


 1586 04d5 74       		.sleb128 -12
 1587 04d6 17       		.uleb128 0x17
 1588 04d7 54000000 		.4byte	.LASF52
 1589 04db 01       		.byte	0x1
 1590 04dc 6B       		.byte	0x6b
 1591 04dd 56040000 		.4byte	0x456
 1592 04e1 02       		.byte	0x2
 1593 04e2 91       		.byte	0x91
 1594 04e3 70       		.sleb128 -16
 1595 04e4 18       		.uleb128 0x18
 1596 04e5 20000000 		.4byte	.LBB2
 1597 04e9 28000000 		.4byte	.LBE2
 1598 04ed FF040000 		.4byte	0x4ff
 1599 04f1 19       		.uleb128 0x19
 1600 04f2 746D7000 		.ascii	"tmp\000"
 1601 04f6 01       		.byte	0x1
 1602 04f7 6F       		.byte	0x6f
 1603 04f8 86000000 		.4byte	0x86
 1604 04fc 01       		.byte	0x1
 1605 04fd 53       		.byte	0x53
 1606 04fe 00       		.byte	0x0
 1607 04ff 1A       		.uleb128 0x1a
 1608 0500 60000000 		.4byte	.LBB3
 1609 0504 68000000 		.4byte	.LBE3
 1610 0508 19       		.uleb128 0x19
 1611 0509 746D7000 		.ascii	"tmp\000"
 1612 050d 01       		.byte	0x1
 1613 050e 75       		.byte	0x75
 1614 050f 86000000 		.4byte	0x86
 1615 0513 01       		.byte	0x1
 1616 0514 53       		.byte	0x53
 1617 0515 00       		.byte	0x0
 1618 0516 00       		.byte	0x0
 1619 0517 16       		.uleb128 0x16
 1620 0518 01       		.byte	0x1
 1621 0519 E5010000 		.4byte	.LASF65
 1622 051d 01       		.byte	0x1
 1623 051e 81       		.byte	0x81
 1624 051f 01       		.byte	0x1
 1625 0520 00000000 		.4byte	.LFB65
 1626 0524 64000000 		.4byte	.LFE65
 1627 0528 6C000000 		.4byte	.LLST3
 1628 052c 71050000 		.4byte	0x571
 1629 0530 17       		.uleb128 0x17
 1630 0531 48010000 		.4byte	.LASF64
 1631 0535 01       		.byte	0x1
 1632 0536 81       		.byte	0x81
 1633 0537 FE030000 		.4byte	0x3fe
 1634 053b 02       		.byte	0x2
 1635 053c 91       		.byte	0x91
 1636 053d 74       		.sleb128 -12
 1637 053e 18       		.uleb128 0x18
 1638 053f 18000000 		.4byte	.LBB4
 1639 0543 20000000 		.4byte	.LBE4
 1640 0547 59050000 		.4byte	0x559
 1641 054b 19       		.uleb128 0x19
 1642 054c 746D7000 		.ascii	"tmp\000"
ARM GAS  C:\Users\z80\AppData\Local\Temp\cc436ojh.s 			page 31


 1643 0550 01       		.byte	0x1
 1644 0551 85       		.byte	0x85
 1645 0552 86000000 		.4byte	0x86
 1646 0556 01       		.byte	0x1
 1647 0557 53       		.byte	0x53
 1648 0558 00       		.byte	0x0
 1649 0559 1A       		.uleb128 0x1a
 1650 055a 58000000 		.4byte	.LBB5
 1651 055e 60000000 		.4byte	.LBE5
 1652 0562 19       		.uleb128 0x19
 1653 0563 746D7000 		.ascii	"tmp\000"
 1654 0567 01       		.byte	0x1
 1655 0568 8B       		.byte	0x8b
 1656 0569 86000000 		.4byte	0x86
 1657 056d 01       		.byte	0x1
 1658 056e 53       		.byte	0x53
 1659 056f 00       		.byte	0x0
 1660 0570 00       		.byte	0x0
 1661 0571 16       		.uleb128 0x16
 1662 0572 01       		.byte	0x1
 1663 0573 87000000 		.4byte	.LASF66
 1664 0577 01       		.byte	0x1
 1665 0578 95       		.byte	0x95
 1666 0579 01       		.byte	0x1
 1667 057a 00000000 		.4byte	.LFB66
 1668 057e 4E000000 		.4byte	.LFE66
 1669 0582 98000000 		.4byte	.LLST4
 1670 0586 CB050000 		.4byte	0x5cb
 1671 058a 17       		.uleb128 0x17
 1672 058b 48010000 		.4byte	.LASF64
 1673 058f 01       		.byte	0x1
 1674 0590 95       		.byte	0x95
 1675 0591 FE030000 		.4byte	0x3fe
 1676 0595 02       		.byte	0x2
 1677 0596 91       		.byte	0x91
 1678 0597 74       		.sleb128 -12
 1679 0598 18       		.uleb128 0x18
 1680 0599 18000000 		.4byte	.LBB6
 1681 059d 20000000 		.4byte	.LBE6
 1682 05a1 B3050000 		.4byte	0x5b3
 1683 05a5 19       		.uleb128 0x19
 1684 05a6 746D7000 		.ascii	"tmp\000"
 1685 05aa 01       		.byte	0x1
 1686 05ab 99       		.byte	0x99
 1687 05ac 86000000 		.4byte	0x86
 1688 05b0 01       		.byte	0x1
 1689 05b1 53       		.byte	0x53
 1690 05b2 00       		.byte	0x0
 1691 05b3 1A       		.uleb128 0x1a
 1692 05b4 42000000 		.4byte	.LBB7
 1693 05b8 4A000000 		.4byte	.LBE7
 1694 05bc 19       		.uleb128 0x19
 1695 05bd 746D7000 		.ascii	"tmp\000"
 1696 05c1 01       		.byte	0x1
 1697 05c2 9C       		.byte	0x9c
 1698 05c3 86000000 		.4byte	0x86
 1699 05c7 01       		.byte	0x1
ARM GAS  C:\Users\z80\AppData\Local\Temp\cc436ojh.s 			page 32


 1700 05c8 53       		.byte	0x53
 1701 05c9 00       		.byte	0x0
 1702 05ca 00       		.byte	0x0
 1703 05cb 16       		.uleb128 0x16
 1704 05cc 01       		.byte	0x1
 1705 05cd 4D010000 		.4byte	.LASF67
 1706 05d1 01       		.byte	0x1
 1707 05d2 A7       		.byte	0xa7
 1708 05d3 01       		.byte	0x1
 1709 05d4 00000000 		.4byte	.LFB67
 1710 05d8 4E000000 		.4byte	.LFE67
 1711 05dc C4000000 		.4byte	.LLST5
 1712 05e0 25060000 		.4byte	0x625
 1713 05e4 17       		.uleb128 0x17
 1714 05e5 48010000 		.4byte	.LASF64
 1715 05e9 01       		.byte	0x1
 1716 05ea A7       		.byte	0xa7
 1717 05eb FE030000 		.4byte	0x3fe
 1718 05ef 02       		.byte	0x2
 1719 05f0 91       		.byte	0x91
 1720 05f1 74       		.sleb128 -12
 1721 05f2 18       		.uleb128 0x18
 1722 05f3 18000000 		.4byte	.LBB8
 1723 05f7 20000000 		.4byte	.LBE8
 1724 05fb 0D060000 		.4byte	0x60d
 1725 05ff 19       		.uleb128 0x19
 1726 0600 746D7000 		.ascii	"tmp\000"
 1727 0604 01       		.byte	0x1
 1728 0605 AB       		.byte	0xab
 1729 0606 86000000 		.4byte	0x86
 1730 060a 01       		.byte	0x1
 1731 060b 53       		.byte	0x53
 1732 060c 00       		.byte	0x0
 1733 060d 1A       		.uleb128 0x1a
 1734 060e 42000000 		.4byte	.LBB9
 1735 0612 4A000000 		.4byte	.LBE9
 1736 0616 19       		.uleb128 0x19
 1737 0617 746D7000 		.ascii	"tmp\000"
 1738 061b 01       		.byte	0x1
 1739 061c AE       		.byte	0xae
 1740 061d 86000000 		.4byte	0x86
 1741 0621 01       		.byte	0x1
 1742 0622 53       		.byte	0x53
 1743 0623 00       		.byte	0x0
 1744 0624 00       		.byte	0x0
 1745 0625 16       		.uleb128 0x16
 1746 0626 01       		.byte	0x1
 1747 0627 B3010000 		.4byte	.LASF68
 1748 062b 01       		.byte	0x1
 1749 062c BE       		.byte	0xbe
 1750 062d 01       		.byte	0x1
 1751 062e 00000000 		.4byte	.LFB68
 1752 0632 60000000 		.4byte	.LFE68
 1753 0636 F0000000 		.4byte	.LLST6
 1754 063a 8B060000 		.4byte	0x68b
 1755 063e 17       		.uleb128 0x17
 1756 063f 48010000 		.4byte	.LASF64
ARM GAS  C:\Users\z80\AppData\Local\Temp\cc436ojh.s 			page 33


 1757 0643 01       		.byte	0x1
 1758 0644 BE       		.byte	0xbe
 1759 0645 FE030000 		.4byte	0x3fe
 1760 0649 02       		.byte	0x2
 1761 064a 91       		.byte	0x91
 1762 064b 74       		.sleb128 -12
 1763 064c 1B       		.uleb128 0x1b
 1764 064d 6E00     		.ascii	"n\000"
 1765 064f 01       		.byte	0x1
 1766 0650 BE       		.byte	0xbe
 1767 0651 30000000 		.4byte	0x30
 1768 0655 02       		.byte	0x2
 1769 0656 91       		.byte	0x91
 1770 0657 70       		.sleb128 -16
 1771 0658 18       		.uleb128 0x18
 1772 0659 20000000 		.4byte	.LBB10
 1773 065d 28000000 		.4byte	.LBE10
 1774 0661 73060000 		.4byte	0x673
 1775 0665 19       		.uleb128 0x19
 1776 0666 746D7000 		.ascii	"tmp\000"
 1777 066a 01       		.byte	0x1
 1778 066b C2       		.byte	0xc2
 1779 066c 86000000 		.4byte	0x86
 1780 0670 01       		.byte	0x1
 1781 0671 53       		.byte	0x53
 1782 0672 00       		.byte	0x0
 1783 0673 1A       		.uleb128 0x1a
 1784 0674 54000000 		.4byte	.LBB11
 1785 0678 5C000000 		.4byte	.LBE11
 1786 067c 19       		.uleb128 0x19
 1787 067d 746D7000 		.ascii	"tmp\000"
 1788 0681 01       		.byte	0x1
 1789 0682 C5       		.byte	0xc5
 1790 0683 86000000 		.4byte	0x86
 1791 0687 01       		.byte	0x1
 1792 0688 53       		.byte	0x53
 1793 0689 00       		.byte	0x0
 1794 068a 00       		.byte	0x0
 1795 068b 16       		.uleb128 0x16
 1796 068c 01       		.byte	0x1
 1797 068d BC000000 		.4byte	.LASF69
 1798 0691 01       		.byte	0x1
 1799 0692 D9       		.byte	0xd9
 1800 0693 01       		.byte	0x1
 1801 0694 00000000 		.4byte	.LFB69
 1802 0698 74000000 		.4byte	.LFE69
 1803 069c 1C010000 		.4byte	.LLST7
 1804 06a0 0D070000 		.4byte	0x70d
 1805 06a4 17       		.uleb128 0x17
 1806 06a5 48010000 		.4byte	.LASF64
 1807 06a9 01       		.byte	0x1
 1808 06aa D9       		.byte	0xd9
 1809 06ab FE030000 		.4byte	0x3fe
 1810 06af 02       		.byte	0x2
 1811 06b0 91       		.byte	0x91
 1812 06b1 74       		.sleb128 -12
 1813 06b2 1B       		.uleb128 0x1b
ARM GAS  C:\Users\z80\AppData\Local\Temp\cc436ojh.s 			page 34


 1814 06b3 6E00     		.ascii	"n\000"
 1815 06b5 01       		.byte	0x1
 1816 06b6 D9       		.byte	0xd9
 1817 06b7 30000000 		.4byte	0x30
 1818 06bb 02       		.byte	0x2
 1819 06bc 91       		.byte	0x91
 1820 06bd 70       		.sleb128 -16
 1821 06be 17       		.uleb128 0x17
 1822 06bf DF010000 		.4byte	.LASF70
 1823 06c3 01       		.byte	0x1
 1824 06c4 DA       		.byte	0xda
 1825 06c5 0D070000 		.4byte	0x70d
 1826 06c9 02       		.byte	0x2
 1827 06ca 91       		.byte	0x91
 1828 06cb 6C       		.sleb128 -20
 1829 06cc 17       		.uleb128 0x17
 1830 06cd 17030000 		.4byte	.LASF71
 1831 06d1 01       		.byte	0x1
 1832 06d2 DA       		.byte	0xda
 1833 06d3 A6000000 		.4byte	0xa6
 1834 06d7 02       		.byte	0x2
 1835 06d8 91       		.byte	0x91
 1836 06d9 68       		.sleb128 -24
 1837 06da 18       		.uleb128 0x18
 1838 06db 30000000 		.4byte	.LBB12
 1839 06df 38000000 		.4byte	.LBE12
 1840 06e3 F5060000 		.4byte	0x6f5
 1841 06e7 19       		.uleb128 0x19
 1842 06e8 746D7000 		.ascii	"tmp\000"
 1843 06ec 01       		.byte	0x1
 1844 06ed DF       		.byte	0xdf
 1845 06ee 86000000 		.4byte	0x86
 1846 06f2 01       		.byte	0x1
 1847 06f3 53       		.byte	0x53
 1848 06f4 00       		.byte	0x0
 1849 06f5 1A       		.uleb128 0x1a
 1850 06f6 68000000 		.4byte	.LBB13
 1851 06fa 70000000 		.4byte	.LBE13
 1852 06fe 19       		.uleb128 0x19
 1853 06ff 746D7000 		.ascii	"tmp\000"
 1854 0703 01       		.byte	0x1
 1855 0704 E2       		.byte	0xe2
 1856 0705 86000000 		.4byte	0x86
 1857 0709 01       		.byte	0x1
 1858 070a 53       		.byte	0x53
 1859 070b 00       		.byte	0x0
 1860 070c 00       		.byte	0x0
 1861 070d 0E       		.uleb128 0xe
 1862 070e 04       		.byte	0x4
 1863 070f 13070000 		.4byte	0x713
 1864 0713 1C       		.uleb128 0x1c
 1865 0714 16       		.uleb128 0x16
 1866 0715 01       		.byte	0x1
 1867 0716 13000000 		.4byte	.LASF72
 1868 071a 01       		.byte	0x1
 1869 071b F4       		.byte	0xf4
 1870 071c 01       		.byte	0x1
ARM GAS  C:\Users\z80\AppData\Local\Temp\cc436ojh.s 			page 35


 1871 071d 00000000 		.4byte	.LFB70
 1872 0721 6A000000 		.4byte	.LFE70
 1873 0725 48010000 		.4byte	.LLST8
 1874 0729 88070000 		.4byte	0x788
 1875 072d 17       		.uleb128 0x17
 1876 072e 48010000 		.4byte	.LASF64
 1877 0732 01       		.byte	0x1
 1878 0733 F4       		.byte	0xf4
 1879 0734 FE030000 		.4byte	0x3fe
 1880 0738 02       		.byte	0x2
 1881 0739 91       		.byte	0x91
 1882 073a 74       		.sleb128 -12
 1883 073b 1B       		.uleb128 0x1b
 1884 073c 6E00     		.ascii	"n\000"
 1885 073e 01       		.byte	0x1
 1886 073f F4       		.byte	0xf4
 1887 0740 30000000 		.4byte	0x30
 1888 0744 02       		.byte	0x2
 1889 0745 91       		.byte	0x91
 1890 0746 70       		.sleb128 -16
 1891 0747 17       		.uleb128 0x17
 1892 0748 DF010000 		.4byte	.LASF70
 1893 074c 01       		.byte	0x1
 1894 074d F4       		.byte	0xf4
 1895 074e 0D070000 		.4byte	0x70d
 1896 0752 02       		.byte	0x2
 1897 0753 91       		.byte	0x91
 1898 0754 6C       		.sleb128 -20
 1899 0755 18       		.uleb128 0x18
 1900 0756 28000000 		.4byte	.LBB14
 1901 075a 30000000 		.4byte	.LBE14
 1902 075e 70070000 		.4byte	0x770
 1903 0762 19       		.uleb128 0x19
 1904 0763 746D7000 		.ascii	"tmp\000"
 1905 0767 01       		.byte	0x1
 1906 0768 F9       		.byte	0xf9
 1907 0769 86000000 		.4byte	0x86
 1908 076d 01       		.byte	0x1
 1909 076e 53       		.byte	0x53
 1910 076f 00       		.byte	0x0
 1911 0770 1A       		.uleb128 0x1a
 1912 0771 5E000000 		.4byte	.LBB15
 1913 0775 66000000 		.4byte	.LBE15
 1914 0779 19       		.uleb128 0x19
 1915 077a 746D7000 		.ascii	"tmp\000"
 1916 077e 01       		.byte	0x1
 1917 077f FC       		.byte	0xfc
 1918 0780 86000000 		.4byte	0x86
 1919 0784 01       		.byte	0x1
 1920 0785 53       		.byte	0x53
 1921 0786 00       		.byte	0x0
 1922 0787 00       		.byte	0x0
 1923 0788 1D       		.uleb128 0x1d
 1924 0789 01       		.byte	0x1
 1925 078a E9020000 		.4byte	.LASF73
 1926 078e 01       		.byte	0x1
 1927 078f 0E01     		.2byte	0x10e
ARM GAS  C:\Users\z80\AppData\Local\Temp\cc436ojh.s 			page 36


 1928 0791 01       		.byte	0x1
 1929 0792 00000000 		.4byte	.LFB71
 1930 0796 6A000000 		.4byte	.LFE71
 1931 079a 74010000 		.4byte	.LLST9
 1932 079e 02080000 		.4byte	0x802
 1933 07a2 1E       		.uleb128 0x1e
 1934 07a3 48010000 		.4byte	.LASF64
 1935 07a7 01       		.byte	0x1
 1936 07a8 0E01     		.2byte	0x10e
 1937 07aa FE030000 		.4byte	0x3fe
 1938 07ae 02       		.byte	0x2
 1939 07af 91       		.byte	0x91
 1940 07b0 74       		.sleb128 -12
 1941 07b1 1F       		.uleb128 0x1f
 1942 07b2 6E00     		.ascii	"n\000"
 1943 07b4 01       		.byte	0x1
 1944 07b5 0E01     		.2byte	0x10e
 1945 07b7 30000000 		.4byte	0x30
 1946 07bb 02       		.byte	0x2
 1947 07bc 91       		.byte	0x91
 1948 07bd 70       		.sleb128 -16
 1949 07be 1E       		.uleb128 0x1e
 1950 07bf 17030000 		.4byte	.LASF71
 1951 07c3 01       		.byte	0x1
 1952 07c4 0E01     		.2byte	0x10e
 1953 07c6 A6000000 		.4byte	0xa6
 1954 07ca 02       		.byte	0x2
 1955 07cb 91       		.byte	0x91
 1956 07cc 6C       		.sleb128 -20
 1957 07cd 18       		.uleb128 0x18
 1958 07ce 28000000 		.4byte	.LBB16
 1959 07d2 30000000 		.4byte	.LBE16
 1960 07d6 E9070000 		.4byte	0x7e9
 1961 07da 20       		.uleb128 0x20
 1962 07db 746D7000 		.ascii	"tmp\000"
 1963 07df 01       		.byte	0x1
 1964 07e0 1301     		.2byte	0x113
 1965 07e2 86000000 		.4byte	0x86
 1966 07e6 01       		.byte	0x1
 1967 07e7 53       		.byte	0x53
 1968 07e8 00       		.byte	0x0
 1969 07e9 1A       		.uleb128 0x1a
 1970 07ea 5E000000 		.4byte	.LBB17
 1971 07ee 66000000 		.4byte	.LBE17
 1972 07f2 20       		.uleb128 0x20
 1973 07f3 746D7000 		.ascii	"tmp\000"
 1974 07f7 01       		.byte	0x1
 1975 07f8 1601     		.2byte	0x116
 1976 07fa 86000000 		.4byte	0x86
 1977 07fe 01       		.byte	0x1
 1978 07ff 53       		.byte	0x53
 1979 0800 00       		.byte	0x0
 1980 0801 00       		.byte	0x0
 1981 0802 21       		.uleb128 0x21
 1982 0803 24030000 		.4byte	.LASF74
 1983 0807 09       		.byte	0x9
 1984 0808 9404     		.2byte	0x494
ARM GAS  C:\Users\z80\AppData\Local\Temp\cc436ojh.s 			page 37


 1985 080a BC000000 		.4byte	0xbc
 1986 080e 01       		.byte	0x1
 1987 080f 01       		.byte	0x1
 1988 0810 21       		.uleb128 0x21
 1989 0811 24030000 		.4byte	.LASF74
 1990 0815 09       		.byte	0x9
 1991 0816 9404     		.2byte	0x494
 1992 0818 BC000000 		.4byte	0xbc
 1993 081c 01       		.byte	0x1
 1994 081d 01       		.byte	0x1
 1995 081e 00       		.byte	0x0
 1996              		.section	.debug_abbrev
 1997 0000 01       		.uleb128 0x1
 1998 0001 11       		.uleb128 0x11
 1999 0002 01       		.byte	0x1
 2000 0003 25       		.uleb128 0x25
 2001 0004 0E       		.uleb128 0xe
 2002 0005 13       		.uleb128 0x13
 2003 0006 0B       		.uleb128 0xb
 2004 0007 03       		.uleb128 0x3
 2005 0008 0E       		.uleb128 0xe
 2006 0009 1B       		.uleb128 0x1b
 2007 000a 0E       		.uleb128 0xe
 2008 000b 11       		.uleb128 0x11
 2009 000c 01       		.uleb128 0x1
 2010 000d 52       		.uleb128 0x52
 2011 000e 01       		.uleb128 0x1
 2012 000f 55       		.uleb128 0x55
 2013 0010 06       		.uleb128 0x6
 2014 0011 10       		.uleb128 0x10
 2015 0012 06       		.uleb128 0x6
 2016 0013 00       		.byte	0x0
 2017 0014 00       		.byte	0x0
 2018 0015 02       		.uleb128 0x2
 2019 0016 24       		.uleb128 0x24
 2020 0017 00       		.byte	0x0
 2021 0018 0B       		.uleb128 0xb
 2022 0019 0B       		.uleb128 0xb
 2023 001a 3E       		.uleb128 0x3e
 2024 001b 0B       		.uleb128 0xb
 2025 001c 03       		.uleb128 0x3
 2026 001d 08       		.uleb128 0x8
 2027 001e 00       		.byte	0x0
 2028 001f 00       		.byte	0x0
 2029 0020 03       		.uleb128 0x3
 2030 0021 16       		.uleb128 0x16
 2031 0022 00       		.byte	0x0
 2032 0023 03       		.uleb128 0x3
 2033 0024 0E       		.uleb128 0xe
 2034 0025 3A       		.uleb128 0x3a
 2035 0026 0B       		.uleb128 0xb
 2036 0027 3B       		.uleb128 0x3b
 2037 0028 0B       		.uleb128 0xb
 2038 0029 49       		.uleb128 0x49
 2039 002a 13       		.uleb128 0x13
 2040 002b 00       		.byte	0x0
 2041 002c 00       		.byte	0x0
ARM GAS  C:\Users\z80\AppData\Local\Temp\cc436ojh.s 			page 38


 2042 002d 04       		.uleb128 0x4
 2043 002e 24       		.uleb128 0x24
 2044 002f 00       		.byte	0x0
 2045 0030 0B       		.uleb128 0xb
 2046 0031 0B       		.uleb128 0xb
 2047 0032 3E       		.uleb128 0x3e
 2048 0033 0B       		.uleb128 0xb
 2049 0034 03       		.uleb128 0x3
 2050 0035 0E       		.uleb128 0xe
 2051 0036 00       		.byte	0x0
 2052 0037 00       		.byte	0x0
 2053 0038 05       		.uleb128 0x5
 2054 0039 0F       		.uleb128 0xf
 2055 003a 00       		.byte	0x0
 2056 003b 0B       		.uleb128 0xb
 2057 003c 0B       		.uleb128 0xb
 2058 003d 00       		.byte	0x0
 2059 003e 00       		.byte	0x0
 2060 003f 06       		.uleb128 0x6
 2061 0040 35       		.uleb128 0x35
 2062 0041 00       		.byte	0x0
 2063 0042 49       		.uleb128 0x49
 2064 0043 13       		.uleb128 0x13
 2065 0044 00       		.byte	0x0
 2066 0045 00       		.byte	0x0
 2067 0046 07       		.uleb128 0x7
 2068 0047 24       		.uleb128 0x24
 2069 0048 00       		.byte	0x0
 2070 0049 0B       		.uleb128 0xb
 2071 004a 0B       		.uleb128 0xb
 2072 004b 3E       		.uleb128 0x3e
 2073 004c 0B       		.uleb128 0xb
 2074 004d 00       		.byte	0x0
 2075 004e 00       		.byte	0x0
 2076 004f 08       		.uleb128 0x8
 2077 0050 13       		.uleb128 0x13
 2078 0051 01       		.byte	0x1
 2079 0052 0B       		.uleb128 0xb
 2080 0053 0B       		.uleb128 0xb
 2081 0054 3A       		.uleb128 0x3a
 2082 0055 0B       		.uleb128 0xb
 2083 0056 3B       		.uleb128 0x3b
 2084 0057 05       		.uleb128 0x5
 2085 0058 01       		.uleb128 0x1
 2086 0059 13       		.uleb128 0x13
 2087 005a 00       		.byte	0x0
 2088 005b 00       		.byte	0x0
 2089 005c 09       		.uleb128 0x9
 2090 005d 0D       		.uleb128 0xd
 2091 005e 00       		.byte	0x0
 2092 005f 03       		.uleb128 0x3
 2093 0060 08       		.uleb128 0x8
 2094 0061 3A       		.uleb128 0x3a
 2095 0062 0B       		.uleb128 0xb
 2096 0063 3B       		.uleb128 0x3b
 2097 0064 05       		.uleb128 0x5
 2098 0065 49       		.uleb128 0x49
ARM GAS  C:\Users\z80\AppData\Local\Temp\cc436ojh.s 			page 39


 2099 0066 13       		.uleb128 0x13
 2100 0067 38       		.uleb128 0x38
 2101 0068 0A       		.uleb128 0xa
 2102 0069 00       		.byte	0x0
 2103 006a 00       		.byte	0x0
 2104 006b 0A       		.uleb128 0xa
 2105 006c 0D       		.uleb128 0xd
 2106 006d 00       		.byte	0x0
 2107 006e 03       		.uleb128 0x3
 2108 006f 0E       		.uleb128 0xe
 2109 0070 3A       		.uleb128 0x3a
 2110 0071 0B       		.uleb128 0xb
 2111 0072 3B       		.uleb128 0x3b
 2112 0073 05       		.uleb128 0x5
 2113 0074 49       		.uleb128 0x49
 2114 0075 13       		.uleb128 0x13
 2115 0076 38       		.uleb128 0x38
 2116 0077 0A       		.uleb128 0xa
 2117 0078 00       		.byte	0x0
 2118 0079 00       		.byte	0x0
 2119 007a 0B       		.uleb128 0xb
 2120 007b 16       		.uleb128 0x16
 2121 007c 00       		.byte	0x0
 2122 007d 03       		.uleb128 0x3
 2123 007e 0E       		.uleb128 0xe
 2124 007f 3A       		.uleb128 0x3a
 2125 0080 0B       		.uleb128 0xb
 2126 0081 3B       		.uleb128 0x3b
 2127 0082 05       		.uleb128 0x5
 2128 0083 49       		.uleb128 0x49
 2129 0084 13       		.uleb128 0x13
 2130 0085 00       		.byte	0x0
 2131 0086 00       		.byte	0x0
 2132 0087 0C       		.uleb128 0xc
 2133 0088 13       		.uleb128 0x13
 2134 0089 01       		.byte	0x1
 2135 008a 0B       		.uleb128 0xb
 2136 008b 0B       		.uleb128 0xb
 2137 008c 3A       		.uleb128 0x3a
 2138 008d 0B       		.uleb128 0xb
 2139 008e 3B       		.uleb128 0x3b
 2140 008f 0B       		.uleb128 0xb
 2141 0090 01       		.uleb128 0x1
 2142 0091 13       		.uleb128 0x13
 2143 0092 00       		.byte	0x0
 2144 0093 00       		.byte	0x0
 2145 0094 0D       		.uleb128 0xd
 2146 0095 0D       		.uleb128 0xd
 2147 0096 00       		.byte	0x0
 2148 0097 03       		.uleb128 0x3
 2149 0098 0E       		.uleb128 0xe
 2150 0099 3A       		.uleb128 0x3a
 2151 009a 0B       		.uleb128 0xb
 2152 009b 3B       		.uleb128 0x3b
 2153 009c 0B       		.uleb128 0xb
 2154 009d 49       		.uleb128 0x49
 2155 009e 13       		.uleb128 0x13
ARM GAS  C:\Users\z80\AppData\Local\Temp\cc436ojh.s 			page 40


 2156 009f 38       		.uleb128 0x38
 2157 00a0 0A       		.uleb128 0xa
 2158 00a1 00       		.byte	0x0
 2159 00a2 00       		.byte	0x0
 2160 00a3 0E       		.uleb128 0xe
 2161 00a4 0F       		.uleb128 0xf
 2162 00a5 00       		.byte	0x0
 2163 00a6 0B       		.uleb128 0xb
 2164 00a7 0B       		.uleb128 0xb
 2165 00a8 49       		.uleb128 0x49
 2166 00a9 13       		.uleb128 0x13
 2167 00aa 00       		.byte	0x0
 2168 00ab 00       		.byte	0x0
 2169 00ac 0F       		.uleb128 0xf
 2170 00ad 04       		.uleb128 0x4
 2171 00ae 01       		.byte	0x1
 2172 00af 0B       		.uleb128 0xb
 2173 00b0 0B       		.uleb128 0xb
 2174 00b1 3A       		.uleb128 0x3a
 2175 00b2 0B       		.uleb128 0xb
 2176 00b3 3B       		.uleb128 0x3b
 2177 00b4 0B       		.uleb128 0xb
 2178 00b5 01       		.uleb128 0x1
 2179 00b6 13       		.uleb128 0x13
 2180 00b7 00       		.byte	0x0
 2181 00b8 00       		.byte	0x0
 2182 00b9 10       		.uleb128 0x10
 2183 00ba 28       		.uleb128 0x28
 2184 00bb 00       		.byte	0x0
 2185 00bc 03       		.uleb128 0x3
 2186 00bd 0E       		.uleb128 0xe
 2187 00be 1C       		.uleb128 0x1c
 2188 00bf 0D       		.uleb128 0xd
 2189 00c0 00       		.byte	0x0
 2190 00c1 00       		.byte	0x0
 2191 00c2 11       		.uleb128 0x11
 2192 00c3 13       		.uleb128 0x13
 2193 00c4 01       		.byte	0x1
 2194 00c5 03       		.uleb128 0x3
 2195 00c6 0E       		.uleb128 0xe
 2196 00c7 0B       		.uleb128 0xb
 2197 00c8 0B       		.uleb128 0xb
 2198 00c9 3A       		.uleb128 0x3a
 2199 00ca 0B       		.uleb128 0xb
 2200 00cb 3B       		.uleb128 0x3b
 2201 00cc 05       		.uleb128 0x5
 2202 00cd 01       		.uleb128 0x1
 2203 00ce 13       		.uleb128 0x13
 2204 00cf 00       		.byte	0x0
 2205 00d0 00       		.byte	0x0
 2206 00d1 12       		.uleb128 0x12
 2207 00d2 15       		.uleb128 0x15
 2208 00d3 01       		.byte	0x1
 2209 00d4 27       		.uleb128 0x27
 2210 00d5 0C       		.uleb128 0xc
 2211 00d6 01       		.uleb128 0x1
 2212 00d7 13       		.uleb128 0x13
ARM GAS  C:\Users\z80\AppData\Local\Temp\cc436ojh.s 			page 41


 2213 00d8 00       		.byte	0x0
 2214 00d9 00       		.byte	0x0
 2215 00da 13       		.uleb128 0x13
 2216 00db 05       		.uleb128 0x5
 2217 00dc 00       		.byte	0x0
 2218 00dd 49       		.uleb128 0x49
 2219 00de 13       		.uleb128 0x13
 2220 00df 00       		.byte	0x0
 2221 00e0 00       		.byte	0x0
 2222 00e1 14       		.uleb128 0x14
 2223 00e2 26       		.uleb128 0x26
 2224 00e3 00       		.byte	0x0
 2225 00e4 49       		.uleb128 0x49
 2226 00e5 13       		.uleb128 0x13
 2227 00e6 00       		.byte	0x0
 2228 00e7 00       		.byte	0x0
 2229 00e8 15       		.uleb128 0x15
 2230 00e9 2E       		.uleb128 0x2e
 2231 00ea 00       		.byte	0x0
 2232 00eb 3F       		.uleb128 0x3f
 2233 00ec 0C       		.uleb128 0xc
 2234 00ed 03       		.uleb128 0x3
 2235 00ee 0E       		.uleb128 0xe
 2236 00ef 3A       		.uleb128 0x3a
 2237 00f0 0B       		.uleb128 0xb
 2238 00f1 3B       		.uleb128 0x3b
 2239 00f2 0B       		.uleb128 0xb
 2240 00f3 27       		.uleb128 0x27
 2241 00f4 0C       		.uleb128 0xc
 2242 00f5 11       		.uleb128 0x11
 2243 00f6 01       		.uleb128 0x1
 2244 00f7 12       		.uleb128 0x12
 2245 00f8 01       		.uleb128 0x1
 2246 00f9 40       		.uleb128 0x40
 2247 00fa 06       		.uleb128 0x6
 2248 00fb 00       		.byte	0x0
 2249 00fc 00       		.byte	0x0
 2250 00fd 16       		.uleb128 0x16
 2251 00fe 2E       		.uleb128 0x2e
 2252 00ff 01       		.byte	0x1
 2253 0100 3F       		.uleb128 0x3f
 2254 0101 0C       		.uleb128 0xc
 2255 0102 03       		.uleb128 0x3
 2256 0103 0E       		.uleb128 0xe
 2257 0104 3A       		.uleb128 0x3a
 2258 0105 0B       		.uleb128 0xb
 2259 0106 3B       		.uleb128 0x3b
 2260 0107 0B       		.uleb128 0xb
 2261 0108 27       		.uleb128 0x27
 2262 0109 0C       		.uleb128 0xc
 2263 010a 11       		.uleb128 0x11
 2264 010b 01       		.uleb128 0x1
 2265 010c 12       		.uleb128 0x12
 2266 010d 01       		.uleb128 0x1
 2267 010e 40       		.uleb128 0x40
 2268 010f 06       		.uleb128 0x6
 2269 0110 01       		.uleb128 0x1
ARM GAS  C:\Users\z80\AppData\Local\Temp\cc436ojh.s 			page 42


 2270 0111 13       		.uleb128 0x13
 2271 0112 00       		.byte	0x0
 2272 0113 00       		.byte	0x0
 2273 0114 17       		.uleb128 0x17
 2274 0115 05       		.uleb128 0x5
 2275 0116 00       		.byte	0x0
 2276 0117 03       		.uleb128 0x3
 2277 0118 0E       		.uleb128 0xe
 2278 0119 3A       		.uleb128 0x3a
 2279 011a 0B       		.uleb128 0xb
 2280 011b 3B       		.uleb128 0x3b
 2281 011c 0B       		.uleb128 0xb
 2282 011d 49       		.uleb128 0x49
 2283 011e 13       		.uleb128 0x13
 2284 011f 02       		.uleb128 0x2
 2285 0120 0A       		.uleb128 0xa
 2286 0121 00       		.byte	0x0
 2287 0122 00       		.byte	0x0
 2288 0123 18       		.uleb128 0x18
 2289 0124 0B       		.uleb128 0xb
 2290 0125 01       		.byte	0x1
 2291 0126 11       		.uleb128 0x11
 2292 0127 01       		.uleb128 0x1
 2293 0128 12       		.uleb128 0x12
 2294 0129 01       		.uleb128 0x1
 2295 012a 01       		.uleb128 0x1
 2296 012b 13       		.uleb128 0x13
 2297 012c 00       		.byte	0x0
 2298 012d 00       		.byte	0x0
 2299 012e 19       		.uleb128 0x19
 2300 012f 34       		.uleb128 0x34
 2301 0130 00       		.byte	0x0
 2302 0131 03       		.uleb128 0x3
 2303 0132 08       		.uleb128 0x8
 2304 0133 3A       		.uleb128 0x3a
 2305 0134 0B       		.uleb128 0xb
 2306 0135 3B       		.uleb128 0x3b
 2307 0136 0B       		.uleb128 0xb
 2308 0137 49       		.uleb128 0x49
 2309 0138 13       		.uleb128 0x13
 2310 0139 02       		.uleb128 0x2
 2311 013a 0A       		.uleb128 0xa
 2312 013b 00       		.byte	0x0
 2313 013c 00       		.byte	0x0
 2314 013d 1A       		.uleb128 0x1a
 2315 013e 0B       		.uleb128 0xb
 2316 013f 01       		.byte	0x1
 2317 0140 11       		.uleb128 0x11
 2318 0141 01       		.uleb128 0x1
 2319 0142 12       		.uleb128 0x12
 2320 0143 01       		.uleb128 0x1
 2321 0144 00       		.byte	0x0
 2322 0145 00       		.byte	0x0
 2323 0146 1B       		.uleb128 0x1b
 2324 0147 05       		.uleb128 0x5
 2325 0148 00       		.byte	0x0
 2326 0149 03       		.uleb128 0x3
ARM GAS  C:\Users\z80\AppData\Local\Temp\cc436ojh.s 			page 43


 2327 014a 08       		.uleb128 0x8
 2328 014b 3A       		.uleb128 0x3a
 2329 014c 0B       		.uleb128 0xb
 2330 014d 3B       		.uleb128 0x3b
 2331 014e 0B       		.uleb128 0xb
 2332 014f 49       		.uleb128 0x49
 2333 0150 13       		.uleb128 0x13
 2334 0151 02       		.uleb128 0x2
 2335 0152 0A       		.uleb128 0xa
 2336 0153 00       		.byte	0x0
 2337 0154 00       		.byte	0x0
 2338 0155 1C       		.uleb128 0x1c
 2339 0156 26       		.uleb128 0x26
 2340 0157 00       		.byte	0x0
 2341 0158 00       		.byte	0x0
 2342 0159 00       		.byte	0x0
 2343 015a 1D       		.uleb128 0x1d
 2344 015b 2E       		.uleb128 0x2e
 2345 015c 01       		.byte	0x1
 2346 015d 3F       		.uleb128 0x3f
 2347 015e 0C       		.uleb128 0xc
 2348 015f 03       		.uleb128 0x3
 2349 0160 0E       		.uleb128 0xe
 2350 0161 3A       		.uleb128 0x3a
 2351 0162 0B       		.uleb128 0xb
 2352 0163 3B       		.uleb128 0x3b
 2353 0164 05       		.uleb128 0x5
 2354 0165 27       		.uleb128 0x27
 2355 0166 0C       		.uleb128 0xc
 2356 0167 11       		.uleb128 0x11
 2357 0168 01       		.uleb128 0x1
 2358 0169 12       		.uleb128 0x12
 2359 016a 01       		.uleb128 0x1
 2360 016b 40       		.uleb128 0x40
 2361 016c 06       		.uleb128 0x6
 2362 016d 01       		.uleb128 0x1
 2363 016e 13       		.uleb128 0x13
 2364 016f 00       		.byte	0x0
 2365 0170 00       		.byte	0x0
 2366 0171 1E       		.uleb128 0x1e
 2367 0172 05       		.uleb128 0x5
 2368 0173 00       		.byte	0x0
 2369 0174 03       		.uleb128 0x3
 2370 0175 0E       		.uleb128 0xe
 2371 0176 3A       		.uleb128 0x3a
 2372 0177 0B       		.uleb128 0xb
 2373 0178 3B       		.uleb128 0x3b
 2374 0179 05       		.uleb128 0x5
 2375 017a 49       		.uleb128 0x49
 2376 017b 13       		.uleb128 0x13
 2377 017c 02       		.uleb128 0x2
 2378 017d 0A       		.uleb128 0xa
 2379 017e 00       		.byte	0x0
 2380 017f 00       		.byte	0x0
 2381 0180 1F       		.uleb128 0x1f
 2382 0181 05       		.uleb128 0x5
 2383 0182 00       		.byte	0x0
ARM GAS  C:\Users\z80\AppData\Local\Temp\cc436ojh.s 			page 44


 2384 0183 03       		.uleb128 0x3
 2385 0184 08       		.uleb128 0x8
 2386 0185 3A       		.uleb128 0x3a
 2387 0186 0B       		.uleb128 0xb
 2388 0187 3B       		.uleb128 0x3b
 2389 0188 05       		.uleb128 0x5
 2390 0189 49       		.uleb128 0x49
 2391 018a 13       		.uleb128 0x13
 2392 018b 02       		.uleb128 0x2
 2393 018c 0A       		.uleb128 0xa
 2394 018d 00       		.byte	0x0
 2395 018e 00       		.byte	0x0
 2396 018f 20       		.uleb128 0x20
 2397 0190 34       		.uleb128 0x34
 2398 0191 00       		.byte	0x0
 2399 0192 03       		.uleb128 0x3
 2400 0193 08       		.uleb128 0x8
 2401 0194 3A       		.uleb128 0x3a
 2402 0195 0B       		.uleb128 0xb
 2403 0196 3B       		.uleb128 0x3b
 2404 0197 05       		.uleb128 0x5
 2405 0198 49       		.uleb128 0x49
 2406 0199 13       		.uleb128 0x13
 2407 019a 02       		.uleb128 0x2
 2408 019b 0A       		.uleb128 0xa
 2409 019c 00       		.byte	0x0
 2410 019d 00       		.byte	0x0
 2411 019e 21       		.uleb128 0x21
 2412 019f 34       		.uleb128 0x34
 2413 01a0 00       		.byte	0x0
 2414 01a1 03       		.uleb128 0x3
 2415 01a2 0E       		.uleb128 0xe
 2416 01a3 3A       		.uleb128 0x3a
 2417 01a4 0B       		.uleb128 0xb
 2418 01a5 3B       		.uleb128 0x3b
 2419 01a6 05       		.uleb128 0x5
 2420 01a7 49       		.uleb128 0x49
 2421 01a8 13       		.uleb128 0x13
 2422 01a9 3F       		.uleb128 0x3f
 2423 01aa 0C       		.uleb128 0xc
 2424 01ab 3C       		.uleb128 0x3c
 2425 01ac 0C       		.uleb128 0xc
 2426 01ad 00       		.byte	0x0
 2427 01ae 00       		.byte	0x0
 2428 01af 00       		.byte	0x0
 2429              		.section	.debug_pubnames,"",%progbits
 2430 0000 B0000000 		.4byte	0xb0
 2431 0004 0200     		.2byte	0x2
 2432 0006 00000000 		.4byte	.Ldebug_info0
 2433 000a 1F080000 		.4byte	0x81f
 2434 000e 72040000 		.4byte	0x472
 2435 0012 73706949 		.ascii	"spiInit\000"
 2435      6E697400 
 2436 001a 87040000 		.4byte	0x487
 2437 001e 7370694F 		.ascii	"spiObjectInit\000"
 2437      626A6563 
 2437      74496E69 
ARM GAS  C:\Users\z80\AppData\Local\Temp\cc436ojh.s 			page 45


 2437      7400
 2438 002c AF040000 		.4byte	0x4af
 2439 0030 73706953 		.ascii	"spiStart\000"
 2439      74617274 
 2439      00
 2440 0039 17050000 		.4byte	0x517
 2441 003d 73706953 		.ascii	"spiStop\000"
 2441      746F7000 
 2442 0045 71050000 		.4byte	0x571
 2443 0049 73706953 		.ascii	"spiSelect\000"
 2443      656C6563 
 2443      7400
 2444 0053 CB050000 		.4byte	0x5cb
 2445 0057 73706955 		.ascii	"spiUnselect\000"
 2445      6E73656C 
 2445      65637400 
 2446 0063 25060000 		.4byte	0x625
 2447 0067 73706953 		.ascii	"spiStartIgnore\000"
 2447      74617274 
 2447      49676E6F 
 2447      726500
 2448 0076 8B060000 		.4byte	0x68b
 2449 007a 73706953 		.ascii	"spiStartExchange\000"
 2449      74617274 
 2449      45786368 
 2449      616E6765 
 2449      00
 2450 008b 14070000 		.4byte	0x714
 2451 008f 73706953 		.ascii	"spiStartSend\000"
 2451      74617274 
 2451      53656E64 
 2451      00
 2452 009c 88070000 		.4byte	0x788
 2453 00a0 73706953 		.ascii	"spiStartReceive\000"
 2453      74617274 
 2453      52656365 
 2453      69766500 
 2454 00b0 00000000 		.4byte	0x0
 2455              		.section	.debug_pubtypes,"",%progbits
 2456 0000 F5000000 		.4byte	0xf5
 2457 0004 0200     		.2byte	0x2
 2458 0006 00000000 		.4byte	.Ldebug_info0
 2459 000a 1F080000 		.4byte	0x81f
 2460 000e 30000000 		.4byte	0x30
 2461 0012 73697A65 		.ascii	"size_t\000"
 2461      5F7400
 2462 0019 49000000 		.4byte	0x49
 2463 001d 75696E74 		.ascii	"uint8_t\000"
 2463      385F7400 
 2464 0025 62000000 		.4byte	0x62
 2465 0029 75696E74 		.ascii	"uint16_t\000"
 2465      31365F74 
 2465      00
 2466 0032 74000000 		.4byte	0x74
 2467 0036 696E7433 		.ascii	"int32_t\000"
 2467      325F7400 
 2468 003e 86000000 		.4byte	0x86
ARM GAS  C:\Users\z80\AppData\Local\Temp\cc436ojh.s 			page 46


 2469 0042 75696E74 		.ascii	"uint32_t\000"
 2469      33325F74 
 2469      00
 2470 004b 07010000 		.4byte	0x107
 2471 004f 444D415F 		.ascii	"DMA_Channel_TypeDef\000"
 2471      4368616E 
 2471      6E656C5F 
 2471      54797065 
 2471      44656600 
 2472 0063 86010000 		.4byte	0x186
 2473 0067 4750494F 		.ascii	"GPIO_TypeDef\000"
 2473      5F547970 
 2473      65446566 
 2473      00
 2474 0074 A8020000 		.4byte	0x2a8
 2475 0078 5350495F 		.ascii	"SPI_TypeDef\000"
 2475      54797065 
 2475      44656600 
 2476 0084 0F030000 		.4byte	0x30f
 2477 0088 73746D33 		.ascii	"stm32_dma_stream_t\000"
 2477      325F646D 
 2477      615F7374 
 2477      7265616D 
 2477      5F7400
 2478 009b 1A030000 		.4byte	0x31a
 2479 009f 696F706F 		.ascii	"ioportid_t\000"
 2479      72746964 
 2479      5F7400
 2480 00aa 52030000 		.4byte	0x352
 2481 00ae 73706973 		.ascii	"spistate_t\000"
 2481      74617465 
 2481      5F7400
 2482 00b9 5D030000 		.4byte	0x35d
 2483 00bd 53504944 		.ascii	"SPIDriver\000"
 2483      72697665 
 2483      7200
 2484 00c7 E0030000 		.4byte	0x3e0
 2485 00cb 73706963 		.ascii	"spicallback_t\000"
 2485      616C6C62 
 2485      61636B5F 
 2485      7400
 2486 00d9 4A040000 		.4byte	0x44a
 2487 00dd 53504943 		.ascii	"SPIConfig\000"
 2487      6F6E6669 
 2487      6700
 2488 00e7 69030000 		.4byte	0x369
 2489 00eb 53504944 		.ascii	"SPIDriver\000"
 2489      72697665 
 2489      7200
 2490 00f5 00000000 		.4byte	0x0
 2491              		.section	.debug_aranges,"",%progbits
 2492 0000 64000000 		.4byte	0x64
 2493 0004 0200     		.2byte	0x2
 2494 0006 00000000 		.4byte	.Ldebug_info0
 2495 000a 04       		.byte	0x4
 2496 000b 00       		.byte	0x0
 2497 000c 0000     		.2byte	0x0
ARM GAS  C:\Users\z80\AppData\Local\Temp\cc436ojh.s 			page 47


 2498 000e 0000     		.2byte	0x0
 2499 0010 00000000 		.4byte	.LFB62
 2500 0014 08000000 		.4byte	.LFE62-.LFB62
 2501 0018 00000000 		.4byte	.LFB63
 2502 001c 18000000 		.4byte	.LFE63-.LFB63
 2503 0020 00000000 		.4byte	.LFB64
 2504 0024 6C000000 		.4byte	.LFE64-.LFB64
 2505 0028 00000000 		.4byte	.LFB65
 2506 002c 64000000 		.4byte	.LFE65-.LFB65
 2507 0030 00000000 		.4byte	.LFB66
 2508 0034 4E000000 		.4byte	.LFE66-.LFB66
 2509 0038 00000000 		.4byte	.LFB67
 2510 003c 4E000000 		.4byte	.LFE67-.LFB67
 2511 0040 00000000 		.4byte	.LFB68
 2512 0044 60000000 		.4byte	.LFE68-.LFB68
 2513 0048 00000000 		.4byte	.LFB69
 2514 004c 74000000 		.4byte	.LFE69-.LFB69
 2515 0050 00000000 		.4byte	.LFB70
 2516 0054 6A000000 		.4byte	.LFE70-.LFB70
 2517 0058 00000000 		.4byte	.LFB71
 2518 005c 6A000000 		.4byte	.LFE71-.LFB71
 2519 0060 00000000 		.4byte	0x0
 2520 0064 00000000 		.4byte	0x0
 2521              		.section	.debug_ranges,"",%progbits
 2522              	.Ldebug_ranges0:
 2523 0000 00000000 		.4byte	.LFB62
 2524 0004 08000000 		.4byte	.LFE62
 2525 0008 00000000 		.4byte	.LFB63
 2526 000c 18000000 		.4byte	.LFE63
 2527 0010 00000000 		.4byte	.LFB64
 2528 0014 6C000000 		.4byte	.LFE64
 2529 0018 00000000 		.4byte	.LFB65
 2530 001c 64000000 		.4byte	.LFE65
 2531 0020 00000000 		.4byte	.LFB66
 2532 0024 4E000000 		.4byte	.LFE66
 2533 0028 00000000 		.4byte	.LFB67
 2534 002c 4E000000 		.4byte	.LFE67
 2535 0030 00000000 		.4byte	.LFB68
 2536 0034 60000000 		.4byte	.LFE68
 2537 0038 00000000 		.4byte	.LFB69
 2538 003c 74000000 		.4byte	.LFE69
 2539 0040 00000000 		.4byte	.LFB70
 2540 0044 6A000000 		.4byte	.LFE70
 2541 0048 00000000 		.4byte	.LFB71
 2542 004c 6A000000 		.4byte	.LFE71
 2543 0050 00000000 		.4byte	0x0
 2544 0054 00000000 		.4byte	0x0
 2545              		.section	.debug_str,"MS",%progbits,1
 2546              	.LASF21:
 2547 0000 4750494F 		.ascii	"GPIO_TypeDef\000"
 2547      5F547970 
 2547      65446566 
 2547      00
 2548              	.LASF60:
 2549 000d 73737061 		.ascii	"sspad\000"
 2549      6400
 2550              	.LASF72:
ARM GAS  C:\Users\z80\AppData\Local\Temp\cc436ojh.s 			page 48


 2551 0013 73706953 		.ascii	"spiStartSend\000"
 2551      74617274 
 2551      53656E64 
 2551      00
 2552              	.LASF53:
 2553 0020 646D6172 		.ascii	"dmarx\000"
 2553      7800
 2554              	.LASF51:
 2555 0026 73746174 		.ascii	"state\000"
 2555      6500
 2556              	.LASF5:
 2557 002c 73686F72 		.ascii	"short int\000"
 2557      7420696E 
 2557      7400
 2558              	.LASF2:
 2559 0036 73697A65 		.ascii	"size_t\000"
 2559      5F7400
 2560              	.LASF78:
 2561 003d 73706949 		.ascii	"spiInit\000"
 2561      6E697400 
 2562              	.LASF32:
 2563 0045 49325343 		.ascii	"I2SCFGR\000"
 2563      46475200 
 2564              	.LASF30:
 2565 004d 54584352 		.ascii	"TXCRCR\000"
 2565      435200
 2566              	.LASF52:
 2567 0054 636F6E66 		.ascii	"config\000"
 2567      696700
 2568              	.LASF28:
 2569 005b 52584352 		.ascii	"RXCRCR\000"
 2569      435200
 2570              	.LASF56:
 2571 0062 7478646D 		.ascii	"txdmamode\000"
 2571      616D6F64 
 2571      6500
 2572              	.LASF42:
 2573 006c 73746D33 		.ascii	"stm32_dma_stream_t\000"
 2573      325F646D 
 2573      615F7374 
 2573      7265616D 
 2573      5F7400
 2574              	.LASF3:
 2575 007f 75696E74 		.ascii	"uint8_t\000"
 2575      385F7400 
 2576              	.LASF66:
 2577 0087 73706953 		.ascii	"spiSelect\000"
 2577      656C6563 
 2577      7400
 2578              	.LASF41:
 2579 0091 76656374 		.ascii	"vector\000"
 2579      6F7200
 2580              	.LASF1:
 2581 0098 7369676E 		.ascii	"signed char\000"
 2581      65642063 
 2581      68617200 
 2582              	.LASF61:
ARM GAS  C:\Users\z80\AppData\Local\Temp\cc436ojh.s 			page 49


 2583 00a4 53504943 		.ascii	"SPIConfig\000"
 2583      6F6E6669 
 2583      6700
 2584              	.LASF12:
 2585 00ae 6C6F6E67 		.ascii	"long long int\000"
 2585      206C6F6E 
 2585      6720696E 
 2585      7400
 2586              	.LASF69:
 2587 00bc 73706953 		.ascii	"spiStartExchange\000"
 2587      74617274 
 2587      45786368 
 2587      616E6765 
 2587      00
 2588              	.LASF9:
 2589 00cd 6C6F6E67 		.ascii	"long int\000"
 2589      20696E74 
 2589      00
 2590              	.LASF76:
 2591 00d6 2E2E2F63 		.ascii	"../chibios_2.4.x/os/hal/src/spi.c\000"
 2591      68696269 
 2591      6F735F32 
 2591      2E342E78 
 2591      2F6F732F 
 2592              	.LASF57:
 2593 00f8 73706963 		.ascii	"spicallback_t\000"
 2593      616C6C62 
 2593      61636B5F 
 2593      7400
 2594              	.LASF55:
 2595 0106 7278646D 		.ascii	"rxdmamode\000"
 2595      616D6F64 
 2595      6500
 2596              	.LASF16:
 2597 0110 43504152 		.ascii	"CPAR\000"
 2597      00
 2598              	.LASF38:
 2599 0115 69666372 		.ascii	"ifcr\000"
 2599      00
 2600              	.LASF43:
 2601 011a 696F706F 		.ascii	"ioportid_t\000"
 2601      72746964 
 2601      5F7400
 2602              	.LASF63:
 2603 0125 73706953 		.ascii	"spiStart\000"
 2603      74617274 
 2603      00
 2604              	.LASF4:
 2605 012e 756E7369 		.ascii	"unsigned char\000"
 2605      676E6564 
 2605      20636861 
 2605      7200
 2606              	.LASF36:
 2607 013c 5350495F 		.ascii	"SPI_TypeDef\000"
 2607      54797065 
 2607      44656600 
 2608              	.LASF64:
ARM GAS  C:\Users\z80\AppData\Local\Temp\cc436ojh.s 			page 50


 2609 0148 73706970 		.ascii	"spip\000"
 2609      00
 2610              	.LASF67:
 2611 014d 73706955 		.ascii	"spiUnselect\000"
 2611      6E73656C 
 2611      65637400 
 2612              	.LASF13:
 2613 0159 6C6F6E67 		.ascii	"long long unsigned int\000"
 2613      206C6F6E 
 2613      6720756E 
 2613      7369676E 
 2613      65642069 
 2614              	.LASF10:
 2615 0170 75696E74 		.ascii	"uint32_t\000"
 2615      33325F74 
 2615      00
 2616              	.LASF40:
 2617 0179 73656C66 		.ascii	"selfindex\000"
 2617      696E6465 
 2617      7800
 2618              	.LASF0:
 2619 0183 756E7369 		.ascii	"unsigned int\000"
 2619      676E6564 
 2619      20696E74 
 2619      00
 2620              	.LASF44:
 2621 0190 5350495F 		.ascii	"SPI_UNINIT\000"
 2621      554E494E 
 2621      495400
 2622              	.LASF11:
 2623 019b 6C6F6E67 		.ascii	"long unsigned int\000"
 2623      20756E73 
 2623      69676E65 
 2623      6420696E 
 2623      7400
 2624              	.LASF54:
 2625 01ad 646D6174 		.ascii	"dmatx\000"
 2625      7800
 2626              	.LASF68:
 2627 01b3 73706953 		.ascii	"spiStartIgnore\000"
 2627      74617274 
 2627      49676E6F 
 2627      726500
 2628              	.LASF45:
 2629 01c2 5350495F 		.ascii	"SPI_STOP\000"
 2629      53544F50 
 2629      00
 2630              	.LASF18:
 2631 01cb 444D415F 		.ascii	"DMA_Channel_TypeDef\000"
 2631      4368616E 
 2631      6E656C5F 
 2631      54797065 
 2631      44656600 
 2632              	.LASF70:
 2633 01df 74786275 		.ascii	"txbuf\000"
 2633      6600
 2634              	.LASF65:
ARM GAS  C:\Users\z80\AppData\Local\Temp\cc436ojh.s 			page 51


 2635 01e5 73706953 		.ascii	"spiStop\000"
 2635      746F7000 
 2636              	.LASF48:
 2637 01ed 5350495F 		.ascii	"SPI_COMPLETE\000"
 2637      434F4D50 
 2637      4C455445 
 2637      00
 2638              	.LASF15:
 2639 01fa 434E4454 		.ascii	"CNDTR\000"
 2639      5200
 2640              	.LASF14:
 2641 0200 63686172 		.ascii	"char\000"
 2641      00
 2642              	.LASF6:
 2643 0205 75696E74 		.ascii	"uint16_t\000"
 2643      31365F74 
 2643      00
 2644              	.LASF8:
 2645 020e 696E7433 		.ascii	"int32_t\000"
 2645      325F7400 
 2646              	.LASF46:
 2647 0216 5350495F 		.ascii	"SPI_READY\000"
 2647      52454144 
 2647      5900
 2648              	.LASF62:
 2649 0220 7370694F 		.ascii	"spiObjectInit\000"
 2649      626A6563 
 2649      74496E69 
 2649      7400
 2650              	.LASF47:
 2651 022e 5350495F 		.ascii	"SPI_ACTIVE\000"
 2651      41435449 
 2651      564500
 2652              	.LASF50:
 2653 0239 53504944 		.ascii	"SPIDriver\000"
 2653      72697665 
 2653      7200
 2654              	.LASF37:
 2655 0243 6368616E 		.ascii	"channel\000"
 2655      6E656C00 
 2656              	.LASF26:
 2657 024b 43524350 		.ascii	"CRCPR\000"
 2657      5200
 2658              	.LASF22:
 2659 0251 52455345 		.ascii	"RESERVED0\000"
 2659      52564544 
 2659      3000
 2660              	.LASF23:
 2661 025b 52455345 		.ascii	"RESERVED1\000"
 2661      52564544 
 2661      3100
 2662              	.LASF24:
 2663 0265 52455345 		.ascii	"RESERVED2\000"
 2663      52564544 
 2663      3200
 2664              	.LASF25:
 2665 026f 52455345 		.ascii	"RESERVED3\000"
ARM GAS  C:\Users\z80\AppData\Local\Temp\cc436ojh.s 			page 52


 2665      52564544 
 2665      3300
 2666              	.LASF27:
 2667 0279 52455345 		.ascii	"RESERVED4\000"
 2667      52564544 
 2667      3400
 2668              	.LASF29:
 2669 0283 52455345 		.ascii	"RESERVED5\000"
 2669      52564544 
 2669      3500
 2670              	.LASF31:
 2671 028d 52455345 		.ascii	"RESERVED6\000"
 2671      52564544 
 2671      3600
 2672              	.LASF33:
 2673 0297 52455345 		.ascii	"RESERVED7\000"
 2673      52564544 
 2673      3700
 2674              	.LASF35:
 2675 02a1 52455345 		.ascii	"RESERVED8\000"
 2675      52564544 
 2675      3800
 2676              	.LASF77:
 2677 02ab 433A5C70 		.ascii	"C:\\projects\\digitizer.git\\firmware\\digitizer\000"
 2677      726F6A65 
 2677      6374735C 
 2677      64696769 
 2677      74697A65 
 2678              	.LASF75:
 2679 02d8 474E5520 		.ascii	"GNU C 4.5.0\000"
 2679      4320342E 
 2679      352E3000 
 2680              	.LASF17:
 2681 02e4 434D4152 		.ascii	"CMAR\000"
 2681      00
 2682              	.LASF73:
 2683 02e9 73706953 		.ascii	"spiStartReceive\000"
 2683      74617274 
 2683      52656365 
 2683      69766500 
 2684              	.LASF49:
 2685 02f9 73706973 		.ascii	"spistate_t\000"
 2685      74617465 
 2685      5F7400
 2686              	.LASF7:
 2687 0304 73686F72 		.ascii	"short unsigned int\000"
 2687      7420756E 
 2687      7369676E 
 2687      65642069 
 2687      6E7400
 2688              	.LASF71:
 2689 0317 72786275 		.ascii	"rxbuf\000"
 2689      6600
 2690              	.LASF39:
 2691 031d 69736869 		.ascii	"ishift\000"
 2691      667400
 2692              	.LASF74:
ARM GAS  C:\Users\z80\AppData\Local\Temp\cc436ojh.s 			page 53


 2693 0324 49544D5F 		.ascii	"ITM_RxBuffer\000"
 2693      52784275 
 2693      66666572 
 2693      00
 2694              	.LASF59:
 2695 0331 7373706F 		.ascii	"ssport\000"
 2695      727400
 2696              	.LASF58:
 2697 0338 656E645F 		.ascii	"end_cb\000"
 2697      636200
 2698              	.LASF34:
 2699 033f 49325350 		.ascii	"I2SPR\000"
 2699      5200
 2700              	.LASF20:
 2701 0345 4C434B52 		.ascii	"LCKR\000"
 2701      00
 2702              	.LASF19:
 2703 034a 42535252 		.ascii	"BSRR\000"
 2703      00
 2704              		.ident	"GCC: (GNU) 4.5.0"
ARM GAS  C:\Users\z80\AppData\Local\Temp\cc436ojh.s 			page 54


DEFINED SYMBOLS
                            *ABS*:00000000 spi.c
C:\Users\z80\AppData\Local\Temp\cc436ojh.s:24     .text.spiInit:00000000 $t
C:\Users\z80\AppData\Local\Temp\cc436ojh.s:30     .text.spiInit:00000000 spiInit
C:\Users\z80\AppData\Local\Temp\cc436ojh.s:50     .text.spiObjectInit:00000000 $t
C:\Users\z80\AppData\Local\Temp\cc436ojh.s:56     .text.spiObjectInit:00000000 spiObjectInit
C:\Users\z80\AppData\Local\Temp\cc436ojh.s:82     .rodata:00000000 $d
C:\Users\z80\AppData\Local\Temp\cc436ojh.s:83     .rodata:00000000 .LC0
C:\Users\z80\AppData\Local\Temp\cc436ojh.s:86     .rodata:00000010 .LC1
C:\Users\z80\AppData\Local\Temp\cc436ojh.s:89     .text.spiStart:00000000 $t
C:\Users\z80\AppData\Local\Temp\cc436ojh.s:95     .text.spiStart:00000000 spiStart
C:\Users\z80\AppData\Local\Temp\cc436ojh.s:176    .rodata:00000020 .LC2
C:\Users\z80\AppData\Local\Temp\cc436ojh.s:179    .rodata:0000002c .LC3
C:\Users\z80\AppData\Local\Temp\cc436ojh.s:182    .text.spiStop:00000000 $t
C:\Users\z80\AppData\Local\Temp\cc436ojh.s:188    .text.spiStop:00000000 spiStop
C:\Users\z80\AppData\Local\Temp\cc436ojh.s:262    .rodata:0000003c .LC4
C:\Users\z80\AppData\Local\Temp\cc436ojh.s:265    .rodata:0000004c .LC5
C:\Users\z80\AppData\Local\Temp\cc436ojh.s:268    .text.spiSelect:00000000 $t
C:\Users\z80\AppData\Local\Temp\cc436ojh.s:274    .text.spiSelect:00000000 spiSelect
C:\Users\z80\AppData\Local\Temp\cc436ojh.s:336    .rodata:0000005c .LC6
C:\Users\z80\AppData\Local\Temp\cc436ojh.s:339    .rodata:0000006c .LC7
C:\Users\z80\AppData\Local\Temp\cc436ojh.s:342    .text.spiUnselect:00000000 $t
C:\Users\z80\AppData\Local\Temp\cc436ojh.s:348    .text.spiUnselect:00000000 spiUnselect
C:\Users\z80\AppData\Local\Temp\cc436ojh.s:410    .rodata:00000080 .LC8
C:\Users\z80\AppData\Local\Temp\cc436ojh.s:413    .rodata:00000094 .LC9
C:\Users\z80\AppData\Local\Temp\cc436ojh.s:416    .text.spiStartIgnore:00000000 $t
C:\Users\z80\AppData\Local\Temp\cc436ojh.s:422    .text.spiStartIgnore:00000000 spiStartIgnore
C:\Users\z80\AppData\Local\Temp\cc436ojh.s:494    .rodata:000000ac .LC10
C:\Users\z80\AppData\Local\Temp\cc436ojh.s:497    .rodata:000000c4 .LC11
C:\Users\z80\AppData\Local\Temp\cc436ojh.s:500    .text.spiStartExchange:00000000 $t
C:\Users\z80\AppData\Local\Temp\cc436ojh.s:506    .text.spiStartExchange:00000000 spiStartExchange
C:\Users\z80\AppData\Local\Temp\cc436ojh.s:590    .rodata:000000dc .LC12
C:\Users\z80\AppData\Local\Temp\cc436ojh.s:593    .rodata:000000f0 .LC13
C:\Users\z80\AppData\Local\Temp\cc436ojh.s:596    .text.spiStartSend:00000000 $t
C:\Users\z80\AppData\Local\Temp\cc436ojh.s:602    .text.spiStartSend:00000000 spiStartSend
C:\Users\z80\AppData\Local\Temp\cc436ojh.s:680    .rodata:00000104 .LC14
C:\Users\z80\AppData\Local\Temp\cc436ojh.s:683    .rodata:00000118 .LC15
C:\Users\z80\AppData\Local\Temp\cc436ojh.s:686    .text.spiStartReceive:00000000 $t
C:\Users\z80\AppData\Local\Temp\cc436ojh.s:692    .text.spiStartReceive:00000000 spiStartReceive
                     .debug_frame:00000010 $d

UNDEFINED SYMBOLS
spi_lld_init
chDbgPanic
dbg_check_lock
spi_lld_start
dbg_check_unlock
spi_lld_unselect
spi_lld_stop
spi_lld_select
spi_lld_ignore
spi_lld_exchange
spi_lld_send
spi_lld_receive
