ARM GAS  /tmp/ccGITGlO.s 			page 1


   1              		.syntax unified
   2              		.cpu cortex-m3
   3              		.fpu softvfp
   4              		.eabi_attribute 20, 1
   5              		.eabi_attribute 21, 1
   6              		.eabi_attribute 23, 3
   7              		.eabi_attribute 24, 1
   8              		.eabi_attribute 25, 1
   9              		.eabi_attribute 26, 1
  10              		.eabi_attribute 30, 6
  11              		.eabi_attribute 18, 4
  12              		.thumb
  13              		.file	"spi.c"
  20 0000 C8030000 		.text
  20      02004002 
  20      00000201 
  20      FB0E0D00 
  20      01010101 
  21              	.Ltext0:
  22              		.cfi_sections	.debug_frame
  23              		.section	.text.spiInit,"ax",%progbits
  24              		.align	2
  25              		.p2align 4,,15
  26              		.global	spiInit
  27              		.thumb
  28              		.thumb_func
  29              		.type	spiInit, %function
  30              	spiInit:
  31              	.LFB62:
  32              		.file 1 "../chibios_2.4.x/os/hal/src/spi.c"
  33              		.loc 1 68 0
  34              		.cfi_startproc
  35              		@ args = 0, pretend = 0, frame = 0
  36              		@ frame_needed = 0, uses_anonymous_args = 0
  37 0000 08B5     		push	{r3, lr}
  38              	.LCFI0:
  39              		.cfi_def_cfa_offset 8
  40              		.loc 1 70 0
  41              		.cfi_offset 14, -4
  42              		.cfi_offset 3, -8
  43 0002 FFF7FEFF 		bl	spi_lld_init
  44              		.loc 1 71 0
  45 0006 08BD     		pop	{r3, pc}
  46              		.cfi_endproc
  47              	.LFE62:
  48              		.size	spiInit, .-spiInit
  49 0008 AFF30080 		.section	.text.spiObjectInit,"ax",%progbits
  49      AFF30080 
  50              		.align	2
  51              		.p2align 4,,15
  52              		.global	spiObjectInit
ARM GAS  /tmp/ccGITGlO.s 			page 2


  53              		.thumb
  54              		.thumb_func
  55              		.type	spiObjectInit, %function
  56              	spiObjectInit:
  57              	.LFB63:
  58              		.loc 1 80 0
  59              		.cfi_startproc
  60              		@ args = 0, pretend = 0, frame = 8
  61              		@ frame_needed = 0, uses_anonymous_args = 0
  62              		@ link register save eliminated.
  63 0000 82B0     		sub	sp, sp, #8
  64              	.LCFI1:
  65              		.cfi_def_cfa_offset 8
  66 0002 0190     		str	r0, [sp, #4]
  67              		.loc 1 82 0
  68 0004 019B     		ldr	r3, [sp, #4]
  69 0006 4FF00102 		mov	r2, #1
  70 000a 1A70     		strb	r2, [r3, #0]
  71              		.loc 1 83 0
  72 000c 019B     		ldr	r3, [sp, #4]
  73 000e 4FF00002 		mov	r2, #0
  74 0012 5A60     		str	r2, [r3, #4]
  75              		.loc 1 97 0
  76 0014 02B0     		add	sp, sp, #8
  77 0016 7047     		bx	lr
  78              		.cfi_endproc
  79              	.LFE63:
  80              		.size	spiObjectInit, .-spiObjectInit
  81 0018 AFF30080 		.section	.rodata
  81      AFF30080 
  82              		.align	2
  83              	.LC0:
  84 0000 22737069 		.ascii	"\"spiStart\"()\000"
  84      53746172 
  84      74222829 
  84      00
  85 000d 000000   		.align	2
  86              	.LC1:
  87 0010 73706953 		.ascii	"spiStart(), #1\000"
  87      74617274 
  87      28292C20 
  87      233100
  88              		.section	.text.spiStart,"ax",%progbits
  89              		.align	2
  90              		.p2align 4,,15
  91              		.global	spiStart
  92              		.thumb
  93              		.thumb_func
  94              		.type	spiStart, %function
  95              	spiStart:
  96              	.LFB64:
  97              		.loc 1 107 0
  98              		.cfi_startproc
  99              		@ args = 0, pretend = 0, frame = 8
 100              		@ frame_needed = 0, uses_anonymous_args = 0
 101 0000 00B5     		push	{lr}
 102              	.LCFI2:
ARM GAS  /tmp/ccGITGlO.s 			page 3


 103              		.cfi_def_cfa_offset 4
 104 0002 83B0     		sub	sp, sp, #12
 105              	.LCFI3:
 106              		.cfi_def_cfa_offset 16
 107 0004 0190     		str	r0, [sp, #4]
 108 0006 0091     		str	r1, [sp, #0]
 109              		.loc 1 109 0
 110 0008 019B     		ldr	r3, [sp, #4]
 111 000a 002B     		cmp	r3, #0
 112 000c 02D0     		beq	.L4
 113              		.cfi_offset 14, -4
 114              		.loc 1 109 0 is_stmt 0 discriminator 2
 115 000e 009B     		ldr	r3, [sp, #0]
 116 0010 002B     		cmp	r3, #0
 117 0012 02D1     		bne	.L5
 118              	.L4:
 119              		.loc 1 109 0 discriminator 1
 120 0014 1248     		ldr	r0, .L7
 121 0016 FFF7FEFF 		bl	chDbgPanic
 122              	.L5:
 123              	.LBB2:
 124              		.loc 1 111 0 is_stmt 1
 125 001a 4FF02003 		mov	r3, #32
 126              	@ 111 "../chibios_2.4.x/os/hal/src/spi.c" 1
 127 001e 83F31188 		msr     BASEPRI, r3
 128              	@ 0 "" 2
 129              		.thumb
 130              	.LBE2:
 131 0022 FFF7FEFF 		bl	dbg_check_lock
 132              		.loc 1 112 0
 133 0026 019B     		ldr	r3, [sp, #4]
 134 0028 1B78     		ldrb	r3, [r3, #0]	@ zero_extendqisi2
 135 002a 012B     		cmp	r3, #1
 136 002c 06D0     		beq	.L6
 137              		.loc 1 112 0 is_stmt 0 discriminator 1
 138 002e 019B     		ldr	r3, [sp, #4]
 139 0030 1B78     		ldrb	r3, [r3, #0]	@ zero_extendqisi2
 140 0032 022B     		cmp	r3, #2
 141 0034 02D0     		beq	.L6
 142              		.loc 1 112 0 discriminator 2
 143 0036 0B48     		ldr	r0, .L7+4
 144 0038 FFF7FEFF 		bl	chDbgPanic
 145              	.L6:
 146              		.loc 1 114 0 is_stmt 1
 147 003c 019B     		ldr	r3, [sp, #4]
 148 003e 009A     		ldr	r2, [sp, #0]
 149 0040 5A60     		str	r2, [r3, #4]
 150              		.loc 1 115 0
 151 0042 0198     		ldr	r0, [sp, #4]
 152 0044 FFF7FEFF 		bl	spi_lld_start
 153              		.loc 1 116 0
 154 0048 019B     		ldr	r3, [sp, #4]
 155 004a 4FF00202 		mov	r2, #2
 156 004e 1A70     		strb	r2, [r3, #0]
 157              		.loc 1 117 0
 158 0050 FFF7FEFF 		bl	dbg_check_unlock
 159              	.LBB3:
ARM GAS  /tmp/ccGITGlO.s 			page 4


 160 0054 4FF00003 		mov	r3, #0
 161              	@ 117 "../chibios_2.4.x/os/hal/src/spi.c" 1
 162 0058 83F31188 		msr     BASEPRI, r3
 163              	@ 0 "" 2
 164              		.thumb
 165              	.LBE3:
 166              		.loc 1 118 0
 167 005c 03B0     		add	sp, sp, #12
 168 005e 00BD     		pop	{pc}
 169              	.L8:
 170              		.align	2
 171              	.L7:
 172 0060 00000000 		.word	.LC0
 173 0064 10000000 		.word	.LC1
 174              		.cfi_endproc
 175              	.LFE64:
 176              		.size	spiStart, .-spiStart
 177 0068 AFF30080 		.section	.rodata
 177      AFF30080 
 178 001f 00       		.align	2
 179              	.LC2:
 180 0020 22737069 		.ascii	"\"spiStop\"()\000"
 180      53746F70 
 180      22282900 
 181              		.align	2
 182              	.LC3:
 183 002c 73706953 		.ascii	"spiStop(), #1\000"
 183      746F7028 
 183      292C2023 
 183      3100
 184              		.section	.text.spiStop,"ax",%progbits
 185              		.align	2
 186              		.p2align 4,,15
 187              		.global	spiStop
 188              		.thumb
 189              		.thumb_func
 190              		.type	spiStop, %function
 191              	spiStop:
 192              	.LFB65:
 193              		.loc 1 129 0
 194              		.cfi_startproc
 195              		@ args = 0, pretend = 0, frame = 8
 196              		@ frame_needed = 0, uses_anonymous_args = 0
 197 0000 00B5     		push	{lr}
 198              	.LCFI4:
 199              		.cfi_def_cfa_offset 4
 200 0002 83B0     		sub	sp, sp, #12
 201              	.LCFI5:
 202              		.cfi_def_cfa_offset 16
 203 0004 0190     		str	r0, [sp, #4]
 204              		.loc 1 131 0
 205 0006 019B     		ldr	r3, [sp, #4]
 206 0008 002B     		cmp	r3, #0
 207 000a 02D1     		bne	.L10
 208              		.cfi_offset 14, -4
 209              		.loc 1 131 0 is_stmt 0 discriminator 1
 210 000c 1248     		ldr	r0, .L12
ARM GAS  /tmp/ccGITGlO.s 			page 5


 211 000e FFF7FEFF 		bl	chDbgPanic
 212              	.L10:
 213              	.LBB4:
 214              		.loc 1 133 0 is_stmt 1
 215 0012 4FF02003 		mov	r3, #32
 216              	@ 133 "../chibios_2.4.x/os/hal/src/spi.c" 1
 217 0016 83F31188 		msr     BASEPRI, r3
 218              	@ 0 "" 2
 219              		.thumb
 220              	.LBE4:
 221 001a FFF7FEFF 		bl	dbg_check_lock
 222              		.loc 1 134 0
 223 001e 019B     		ldr	r3, [sp, #4]
 224 0020 1B78     		ldrb	r3, [r3, #0]	@ zero_extendqisi2
 225 0022 012B     		cmp	r3, #1
 226 0024 06D0     		beq	.L11
 227              		.loc 1 134 0 is_stmt 0 discriminator 1
 228 0026 019B     		ldr	r3, [sp, #4]
 229 0028 1B78     		ldrb	r3, [r3, #0]	@ zero_extendqisi2
 230 002a 022B     		cmp	r3, #2
 231 002c 02D0     		beq	.L11
 232              		.loc 1 134 0 discriminator 2
 233 002e 0B48     		ldr	r0, .L12+4
 234 0030 FFF7FEFF 		bl	chDbgPanic
 235              	.L11:
 236              		.loc 1 136 0 is_stmt 1
 237 0034 0198     		ldr	r0, [sp, #4]
 238 0036 FFF7FEFF 		bl	spi_lld_unselect
 239              		.loc 1 137 0
 240 003a 0198     		ldr	r0, [sp, #4]
 241 003c FFF7FEFF 		bl	spi_lld_stop
 242              		.loc 1 138 0
 243 0040 019B     		ldr	r3, [sp, #4]
 244 0042 4FF00102 		mov	r2, #1
 245 0046 1A70     		strb	r2, [r3, #0]
 246              		.loc 1 139 0
 247 0048 FFF7FEFF 		bl	dbg_check_unlock
 248              	.LBB5:
 249 004c 4FF00003 		mov	r3, #0
 250              	@ 139 "../chibios_2.4.x/os/hal/src/spi.c" 1
 251 0050 83F31188 		msr     BASEPRI, r3
 252              	@ 0 "" 2
 253              		.thumb
 254              	.LBE5:
 255              		.loc 1 140 0
 256 0054 03B0     		add	sp, sp, #12
 257 0056 00BD     		pop	{pc}
 258              	.L13:
 259              		.align	2
 260              	.L12:
 261 0058 20000000 		.word	.LC2
 262 005c 2C000000 		.word	.LC3
 263              		.cfi_endproc
 264              	.LFE65:
 265              		.size	spiStop, .-spiStop
 266              		.section	.rodata
 267 003a 0000     		.align	2
ARM GAS  /tmp/ccGITGlO.s 			page 6


 268              	.LC4:
 269 003c 22737069 		.ascii	"\"spiSelect\"()\000"
 269      53656C65 
 269      63742228 
 269      2900
 270 004a 0000     		.align	2
 271              	.LC5:
 272 004c 73706953 		.ascii	"spiSelect(), #1\000"
 272      656C6563 
 272      7428292C 
 272      20233100 
 273              		.section	.text.spiSelect,"ax",%progbits
 274              		.align	2
 275              		.p2align 4,,15
 276              		.global	spiSelect
 277              		.thumb
 278              		.thumb_func
 279              		.type	spiSelect, %function
 280              	spiSelect:
 281              	.LFB66:
 282              		.loc 1 149 0
 283              		.cfi_startproc
 284              		@ args = 0, pretend = 0, frame = 8
 285              		@ frame_needed = 0, uses_anonymous_args = 0
 286 0000 00B5     		push	{lr}
 287              	.LCFI6:
 288              		.cfi_def_cfa_offset 4
 289 0002 83B0     		sub	sp, sp, #12
 290              	.LCFI7:
 291              		.cfi_def_cfa_offset 16
 292 0004 0190     		str	r0, [sp, #4]
 293              		.loc 1 151 0
 294 0006 019B     		ldr	r3, [sp, #4]
 295 0008 002B     		cmp	r3, #0
 296 000a 02D1     		bne	.L15
 297              		.cfi_offset 14, -4
 298              		.loc 1 151 0 is_stmt 0 discriminator 1
 299 000c 0D48     		ldr	r0, .L17
 300 000e FFF7FEFF 		bl	chDbgPanic
 301              	.L15:
 302              	.LBB6:
 303              		.loc 1 153 0 is_stmt 1
 304 0012 4FF02003 		mov	r3, #32
 305              	@ 153 "../chibios_2.4.x/os/hal/src/spi.c" 1
 306 0016 83F31188 		msr     BASEPRI, r3
 307              	@ 0 "" 2
 308              		.thumb
 309              	.LBE6:
 310 001a FFF7FEFF 		bl	dbg_check_lock
 311              		.loc 1 154 0
 312 001e 019B     		ldr	r3, [sp, #4]
 313 0020 1B78     		ldrb	r3, [r3, #0]	@ zero_extendqisi2
 314 0022 022B     		cmp	r3, #2
 315 0024 02D0     		beq	.L16
 316              		.loc 1 154 0 is_stmt 0 discriminator 1
 317 0026 0848     		ldr	r0, .L17+4
 318 0028 FFF7FEFF 		bl	chDbgPanic
ARM GAS  /tmp/ccGITGlO.s 			page 7


 319              	.L16:
 320              		.loc 1 155 0 is_stmt 1
 321 002c 0198     		ldr	r0, [sp, #4]
 322 002e FFF7FEFF 		bl	spi_lld_select
 323              		.loc 1 156 0
 324 0032 FFF7FEFF 		bl	dbg_check_unlock
 325              	.LBB7:
 326 0036 4FF00003 		mov	r3, #0
 327              	@ 156 "../chibios_2.4.x/os/hal/src/spi.c" 1
 328 003a 83F31188 		msr     BASEPRI, r3
 329              	@ 0 "" 2
 330              		.thumb
 331              	.LBE7:
 332              		.loc 1 157 0
 333 003e 03B0     		add	sp, sp, #12
 334 0040 00BD     		pop	{pc}
 335              	.L18:
 336 0042 00BF     		.align	2
 337              	.L17:
 338 0044 3C000000 		.word	.LC4
 339 0048 4C000000 		.word	.LC5
 340              		.cfi_endproc
 341              	.LFE66:
 342              		.size	spiSelect, .-spiSelect
 343 004c AFF30080 		.section	.rodata
 344              		.align	2
 345              	.LC6:
 346 005c 22737069 		.ascii	"\"spiUnselect\"()\000"
 346      556E7365 
 346      6C656374 
 346      22282900 
 347              		.align	2
 348              	.LC7:
 349 006c 73706955 		.ascii	"spiUnselect(), #1\000"
 349      6E73656C 
 349      65637428 
 349      292C2023 
 349      3100
 350              		.section	.text.spiUnselect,"ax",%progbits
 351              		.align	2
 352              		.p2align 4,,15
 353              		.global	spiUnselect
 354              		.thumb
 355              		.thumb_func
 356              		.type	spiUnselect, %function
 357              	spiUnselect:
 358              	.LFB67:
 359              		.loc 1 167 0
 360              		.cfi_startproc
 361              		@ args = 0, pretend = 0, frame = 8
 362              		@ frame_needed = 0, uses_anonymous_args = 0
 363 0000 00B5     		push	{lr}
 364              	.LCFI8:
 365              		.cfi_def_cfa_offset 4
 366 0002 83B0     		sub	sp, sp, #12
 367              	.LCFI9:
 368              		.cfi_def_cfa_offset 16
ARM GAS  /tmp/ccGITGlO.s 			page 8


 369 0004 0190     		str	r0, [sp, #4]
 370              		.loc 1 169 0
 371 0006 019B     		ldr	r3, [sp, #4]
 372 0008 002B     		cmp	r3, #0
 373 000a 02D1     		bne	.L20
 374              		.cfi_offset 14, -4
 375              		.loc 1 169 0 is_stmt 0 discriminator 1
 376 000c 0D48     		ldr	r0, .L22
 377 000e FFF7FEFF 		bl	chDbgPanic
 378              	.L20:
 379              	.LBB8:
 380              		.loc 1 171 0 is_stmt 1
 381 0012 4FF02003 		mov	r3, #32
 382              	@ 171 "../chibios_2.4.x/os/hal/src/spi.c" 1
 383 0016 83F31188 		msr     BASEPRI, r3
 384              	@ 0 "" 2
 385              		.thumb
 386              	.LBE8:
 387 001a FFF7FEFF 		bl	dbg_check_lock
 388              		.loc 1 172 0
 389 001e 019B     		ldr	r3, [sp, #4]
 390 0020 1B78     		ldrb	r3, [r3, #0]	@ zero_extendqisi2
 391 0022 022B     		cmp	r3, #2
 392 0024 02D0     		beq	.L21
 393              		.loc 1 172 0 is_stmt 0 discriminator 1
 394 0026 0848     		ldr	r0, .L22+4
 395 0028 FFF7FEFF 		bl	chDbgPanic
 396              	.L21:
 397              		.loc 1 173 0 is_stmt 1
 398 002c 0198     		ldr	r0, [sp, #4]
 399 002e FFF7FEFF 		bl	spi_lld_unselect
 400              		.loc 1 174 0
 401 0032 FFF7FEFF 		bl	dbg_check_unlock
 402              	.LBB9:
 403 0036 4FF00003 		mov	r3, #0
 404              	@ 174 "../chibios_2.4.x/os/hal/src/spi.c" 1
 405 003a 83F31188 		msr     BASEPRI, r3
 406              	@ 0 "" 2
 407              		.thumb
 408              	.LBE9:
 409              		.loc 1 175 0
 410 003e 03B0     		add	sp, sp, #12
 411 0040 00BD     		pop	{pc}
 412              	.L23:
 413 0042 00BF     		.align	2
 414              	.L22:
 415 0044 5C000000 		.word	.LC6
 416 0048 6C000000 		.word	.LC7
 417              		.cfi_endproc
 418              	.LFE67:
 419              		.size	spiUnselect, .-spiUnselect
 420 004c AFF30080 		.section	.rodata
 421 007e 0000     		.align	2
 422              	.LC8:
 423 0080 22737069 		.ascii	"\"spiStartIgnore\"()\000"
 423      53746172 
 423      7449676E 
ARM GAS  /tmp/ccGITGlO.s 			page 9


 423      6F726522 
 423      282900
 424 0093 00       		.align	2
 425              	.LC9:
 426 0094 73706953 		.ascii	"spiStartIgnore(), #1\000"
 426      74617274 
 426      49676E6F 
 426      72652829 
 426      2C202331 
 427              		.section	.text.spiStartIgnore,"ax",%progbits
 428              		.align	2
 429              		.p2align 4,,15
 430              		.global	spiStartIgnore
 431              		.thumb
 432              		.thumb_func
 433              		.type	spiStartIgnore, %function
 434              	spiStartIgnore:
 435              	.LFB68:
 436              		.loc 1 190 0
 437              		.cfi_startproc
 438              		@ args = 0, pretend = 0, frame = 8
 439              		@ frame_needed = 0, uses_anonymous_args = 0
 440 0000 00B5     		push	{lr}
 441              	.LCFI10:
 442              		.cfi_def_cfa_offset 4
 443 0002 83B0     		sub	sp, sp, #12
 444              	.LCFI11:
 445              		.cfi_def_cfa_offset 16
 446 0004 0190     		str	r0, [sp, #4]
 447 0006 0091     		str	r1, [sp, #0]
 448              		.loc 1 192 0
 449 0008 019B     		ldr	r3, [sp, #4]
 450 000a 002B     		cmp	r3, #0
 451 000c 02D0     		beq	.L25
 452              		.cfi_offset 14, -4
 453              		.loc 1 192 0 is_stmt 0 discriminator 2
 454 000e 009B     		ldr	r3, [sp, #0]
 455 0010 002B     		cmp	r3, #0
 456 0012 02D1     		bne	.L26
 457              	.L25:
 458              		.loc 1 192 0 discriminator 1
 459 0014 0F48     		ldr	r0, .L28
 460 0016 FFF7FEFF 		bl	chDbgPanic
 461              	.L26:
 462              	.LBB10:
 463              		.loc 1 194 0 is_stmt 1
 464 001a 4FF02003 		mov	r3, #32
 465              	@ 194 "../chibios_2.4.x/os/hal/src/spi.c" 1
 466 001e 83F31188 		msr     BASEPRI, r3
 467              	@ 0 "" 2
 468              		.thumb
 469              	.LBE10:
 470 0022 FFF7FEFF 		bl	dbg_check_lock
 471              		.loc 1 195 0
 472 0026 019B     		ldr	r3, [sp, #4]
 473 0028 1B78     		ldrb	r3, [r3, #0]	@ zero_extendqisi2
 474 002a 022B     		cmp	r3, #2
ARM GAS  /tmp/ccGITGlO.s 			page 10


 475 002c 02D0     		beq	.L27
 476              		.loc 1 195 0 is_stmt 0 discriminator 1
 477 002e 0A48     		ldr	r0, .L28+4
 478 0030 FFF7FEFF 		bl	chDbgPanic
 479              	.L27:
 480              		.loc 1 196 0 is_stmt 1
 481 0034 019B     		ldr	r3, [sp, #4]
 482 0036 4FF00302 		mov	r2, #3
 483 003a 1A70     		strb	r2, [r3, #0]
 484 003c 0198     		ldr	r0, [sp, #4]
 485 003e 0099     		ldr	r1, [sp, #0]
 486 0040 FFF7FEFF 		bl	spi_lld_ignore
 487              		.loc 1 197 0
 488 0044 FFF7FEFF 		bl	dbg_check_unlock
 489              	.LBB11:
 490 0048 4FF00003 		mov	r3, #0
 491              	@ 197 "../chibios_2.4.x/os/hal/src/spi.c" 1
 492 004c 83F31188 		msr     BASEPRI, r3
 493              	@ 0 "" 2
 494              		.thumb
 495              	.LBE11:
 496              		.loc 1 198 0
 497 0050 03B0     		add	sp, sp, #12
 498 0052 00BD     		pop	{pc}
 499              	.L29:
 500              		.align	2
 501              	.L28:
 502 0054 80000000 		.word	.LC8
 503 0058 94000000 		.word	.LC9
 504              		.cfi_endproc
 505              	.LFE68:
 506              		.size	spiStartIgnore, .-spiStartIgnore
 507 005c AFF30080 		.section	.rodata
 508 00a9 000000   		.align	2
 509              	.LC10:
 510 00ac 22737069 		.ascii	"\"spiStartExchange\"()\000"
 510      53746172 
 510      74457863 
 510      68616E67 
 510      65222829 
 511 00c1 000000   		.align	2
 512              	.LC11:
 513 00c4 73706953 		.ascii	"spiStartExchange(), #1\000"
 513      74617274 
 513      45786368 
 513      616E6765 
 513      28292C20 
 514              		.section	.text.spiStartExchange,"ax",%progbits
 515              		.align	2
 516              		.p2align 4,,15
 517              		.global	spiStartExchange
 518              		.thumb
 519              		.thumb_func
 520              		.type	spiStartExchange, %function
 521              	spiStartExchange:
 522              	.LFB69:
 523              		.loc 1 218 0
ARM GAS  /tmp/ccGITGlO.s 			page 11


 524              		.cfi_startproc
 525              		@ args = 0, pretend = 0, frame = 16
 526              		@ frame_needed = 0, uses_anonymous_args = 0
 527 0000 00B5     		push	{lr}
 528              	.LCFI12:
 529              		.cfi_def_cfa_offset 4
 530 0002 85B0     		sub	sp, sp, #20
 531              	.LCFI13:
 532              		.cfi_def_cfa_offset 24
 533 0004 0390     		str	r0, [sp, #12]
 534 0006 0291     		str	r1, [sp, #8]
 535 0008 0192     		str	r2, [sp, #4]
 536 000a 0093     		str	r3, [sp, #0]
 537              		.loc 1 220 0
 538 000c 039B     		ldr	r3, [sp, #12]
 539 000e 002B     		cmp	r3, #0
 540 0010 08D0     		beq	.L31
 541              		.cfi_offset 14, -4
 542              		.loc 1 220 0 is_stmt 0 discriminator 2
 543 0012 029B     		ldr	r3, [sp, #8]
 544 0014 002B     		cmp	r3, #0
 545 0016 05D0     		beq	.L31
 546              		.loc 1 220 0 discriminator 3
 547 0018 009B     		ldr	r3, [sp, #0]
 548 001a 002B     		cmp	r3, #0
 549 001c 02D0     		beq	.L31
 550              		.loc 1 220 0 discriminator 4
 551 001e 019B     		ldr	r3, [sp, #4]
 552 0020 002B     		cmp	r3, #0
 553 0022 02D1     		bne	.L32
 554              	.L31:
 555              		.loc 1 220 0 discriminator 1
 556 0024 1048     		ldr	r0, .L34
 557 0026 FFF7FEFF 		bl	chDbgPanic
 558              	.L32:
 559              	.LBB12:
 560              		.loc 1 223 0 is_stmt 1
 561 002a 4FF02003 		mov	r3, #32
 562              	@ 223 "../chibios_2.4.x/os/hal/src/spi.c" 1
 563 002e 83F31188 		msr     BASEPRI, r3
 564              	@ 0 "" 2
 565              		.thumb
 566              	.LBE12:
 567 0032 FFF7FEFF 		bl	dbg_check_lock
 568              		.loc 1 224 0
 569 0036 039B     		ldr	r3, [sp, #12]
 570 0038 1B78     		ldrb	r3, [r3, #0]	@ zero_extendqisi2
 571 003a 022B     		cmp	r3, #2
 572 003c 02D0     		beq	.L33
 573              		.loc 1 224 0 is_stmt 0 discriminator 1
 574 003e 0B48     		ldr	r0, .L34+4
 575 0040 FFF7FEFF 		bl	chDbgPanic
 576              	.L33:
 577              		.loc 1 225 0 is_stmt 1
 578 0044 039B     		ldr	r3, [sp, #12]
 579 0046 4FF00302 		mov	r2, #3
 580 004a 1A70     		strb	r2, [r3, #0]
ARM GAS  /tmp/ccGITGlO.s 			page 12


 581 004c 0398     		ldr	r0, [sp, #12]
 582 004e 0299     		ldr	r1, [sp, #8]
 583 0050 019A     		ldr	r2, [sp, #4]
 584 0052 009B     		ldr	r3, [sp, #0]
 585 0054 FFF7FEFF 		bl	spi_lld_exchange
 586              		.loc 1 226 0
 587 0058 FFF7FEFF 		bl	dbg_check_unlock
 588              	.LBB13:
 589 005c 4FF00003 		mov	r3, #0
 590              	@ 226 "../chibios_2.4.x/os/hal/src/spi.c" 1
 591 0060 83F31188 		msr     BASEPRI, r3
 592              	@ 0 "" 2
 593              		.thumb
 594              	.LBE13:
 595              		.loc 1 227 0
 596 0064 05B0     		add	sp, sp, #20
 597 0066 00BD     		pop	{pc}
 598              	.L35:
 599              		.align	2
 600              	.L34:
 601 0068 AC000000 		.word	.LC10
 602 006c C4000000 		.word	.LC11
 603              		.cfi_endproc
 604              	.LFE69:
 605              		.size	spiStartExchange, .-spiStartExchange
 606              		.section	.rodata
 607 00db 00       		.align	2
 608              	.LC12:
 609 00dc 22737069 		.ascii	"\"spiStartSend\"()\000"
 609      53746172 
 609      7453656E 
 609      64222829 
 609      00
 610 00ed 000000   		.align	2
 611              	.LC13:
 612 00f0 73706953 		.ascii	"spiStartSend(), #1\000"
 612      74617274 
 612      53656E64 
 612      28292C20 
 612      233100
 613              		.section	.text.spiStartSend,"ax",%progbits
 614              		.align	2
 615              		.p2align 4,,15
 616              		.global	spiStartSend
 617              		.thumb
 618              		.thumb_func
 619              		.type	spiStartSend, %function
 620              	spiStartSend:
 621              	.LFB70:
 622              		.loc 1 244 0
 623              		.cfi_startproc
 624              		@ args = 0, pretend = 0, frame = 16
 625              		@ frame_needed = 0, uses_anonymous_args = 0
 626 0000 00B5     		push	{lr}
 627              	.LCFI14:
 628              		.cfi_def_cfa_offset 4
 629 0002 85B0     		sub	sp, sp, #20
ARM GAS  /tmp/ccGITGlO.s 			page 13


 630              	.LCFI15:
 631              		.cfi_def_cfa_offset 24
 632 0004 0390     		str	r0, [sp, #12]
 633 0006 0291     		str	r1, [sp, #8]
 634 0008 0192     		str	r2, [sp, #4]
 635              		.loc 1 246 0
 636 000a 039B     		ldr	r3, [sp, #12]
 637 000c 002B     		cmp	r3, #0
 638 000e 05D0     		beq	.L37
 639              		.cfi_offset 14, -4
 640              		.loc 1 246 0 is_stmt 0 discriminator 2
 641 0010 029B     		ldr	r3, [sp, #8]
 642 0012 002B     		cmp	r3, #0
 643 0014 02D0     		beq	.L37
 644              		.loc 1 246 0 discriminator 3
 645 0016 019B     		ldr	r3, [sp, #4]
 646 0018 002B     		cmp	r3, #0
 647 001a 02D1     		bne	.L38
 648              	.L37:
 649              		.loc 1 246 0 discriminator 1
 650 001c 1048     		ldr	r0, .L40
 651 001e FFF7FEFF 		bl	chDbgPanic
 652              	.L38:
 653              	.LBB14:
 654              		.loc 1 249 0 is_stmt 1
 655 0022 4FF02003 		mov	r3, #32
 656              	@ 249 "../chibios_2.4.x/os/hal/src/spi.c" 1
 657 0026 83F31188 		msr     BASEPRI, r3
 658              	@ 0 "" 2
 659              		.thumb
 660              	.LBE14:
 661 002a FFF7FEFF 		bl	dbg_check_lock
 662              		.loc 1 250 0
 663 002e 039B     		ldr	r3, [sp, #12]
 664 0030 1B78     		ldrb	r3, [r3, #0]	@ zero_extendqisi2
 665 0032 022B     		cmp	r3, #2
 666 0034 02D0     		beq	.L39
 667              		.loc 1 250 0 is_stmt 0 discriminator 1
 668 0036 0B48     		ldr	r0, .L40+4
 669 0038 FFF7FEFF 		bl	chDbgPanic
 670              	.L39:
 671              		.loc 1 251 0 is_stmt 1
 672 003c 039B     		ldr	r3, [sp, #12]
 673 003e 4FF00302 		mov	r2, #3
 674 0042 1A70     		strb	r2, [r3, #0]
 675 0044 0398     		ldr	r0, [sp, #12]
 676 0046 0299     		ldr	r1, [sp, #8]
 677 0048 019A     		ldr	r2, [sp, #4]
 678 004a FFF7FEFF 		bl	spi_lld_send
 679              		.loc 1 252 0
 680 004e FFF7FEFF 		bl	dbg_check_unlock
 681              	.LBB15:
 682 0052 4FF00003 		mov	r3, #0
 683              	@ 252 "../chibios_2.4.x/os/hal/src/spi.c" 1
 684 0056 83F31188 		msr     BASEPRI, r3
 685              	@ 0 "" 2
 686              		.thumb
ARM GAS  /tmp/ccGITGlO.s 			page 14


 687              	.LBE15:
 688              		.loc 1 253 0
 689 005a 05B0     		add	sp, sp, #20
 690 005c 00BD     		pop	{pc}
 691              	.L41:
 692 005e 00BF     		.align	2
 693              	.L40:
 694 0060 DC000000 		.word	.LC12
 695 0064 F0000000 		.word	.LC13
 696              		.cfi_endproc
 697              	.LFE70:
 698              		.size	spiStartSend, .-spiStartSend
 699 0068 AFF30080 		.section	.rodata
 699      AFF30080 
 700 0103 00       		.align	2
 701              	.LC14:
 702 0104 22737069 		.ascii	"\"spiStartReceive\"()\000"
 702      53746172 
 702      74526563 
 702      65697665 
 702      22282900 
 703              		.align	2
 704              	.LC15:
 705 0118 73706953 		.ascii	"spiStartReceive(), #1\000"
 705      74617274 
 705      52656365 
 705      69766528 
 705      292C2023 
 706 012e 0000     		.section	.text.spiStartReceive,"ax",%progbits
 707              		.align	2
 708              		.p2align 4,,15
 709              		.global	spiStartReceive
 710              		.thumb
 711              		.thumb_func
 712              		.type	spiStartReceive, %function
 713              	spiStartReceive:
 714              	.LFB71:
 715              		.loc 1 270 0
 716              		.cfi_startproc
 717              		@ args = 0, pretend = 0, frame = 16
 718              		@ frame_needed = 0, uses_anonymous_args = 0
 719 0000 00B5     		push	{lr}
 720              	.LCFI16:
 721              		.cfi_def_cfa_offset 4
 722 0002 85B0     		sub	sp, sp, #20
 723              	.LCFI17:
 724              		.cfi_def_cfa_offset 24
 725 0004 0390     		str	r0, [sp, #12]
 726 0006 0291     		str	r1, [sp, #8]
 727 0008 0192     		str	r2, [sp, #4]
 728              		.loc 1 272 0
 729 000a 039B     		ldr	r3, [sp, #12]
 730 000c 002B     		cmp	r3, #0
 731 000e 05D0     		beq	.L43
 732              		.cfi_offset 14, -4
 733              		.loc 1 272 0 is_stmt 0 discriminator 2
 734 0010 029B     		ldr	r3, [sp, #8]
ARM GAS  /tmp/ccGITGlO.s 			page 15


 735 0012 002B     		cmp	r3, #0
 736 0014 02D0     		beq	.L43
 737              		.loc 1 272 0 discriminator 3
 738 0016 019B     		ldr	r3, [sp, #4]
 739 0018 002B     		cmp	r3, #0
 740 001a 02D1     		bne	.L44
 741              	.L43:
 742              		.loc 1 272 0 discriminator 1
 743 001c 1048     		ldr	r0, .L46
 744 001e FFF7FEFF 		bl	chDbgPanic
 745              	.L44:
 746              	.LBB16:
 747              		.loc 1 275 0 is_stmt 1
 748 0022 4FF02003 		mov	r3, #32
 749              	@ 275 "../chibios_2.4.x/os/hal/src/spi.c" 1
 750 0026 83F31188 		msr     BASEPRI, r3
 751              	@ 0 "" 2
 752              		.thumb
 753              	.LBE16:
 754 002a FFF7FEFF 		bl	dbg_check_lock
 755              		.loc 1 276 0
 756 002e 039B     		ldr	r3, [sp, #12]
 757 0030 1B78     		ldrb	r3, [r3, #0]	@ zero_extendqisi2
 758 0032 022B     		cmp	r3, #2
 759 0034 02D0     		beq	.L45
 760              		.loc 1 276 0 is_stmt 0 discriminator 1
 761 0036 0B48     		ldr	r0, .L46+4
 762 0038 FFF7FEFF 		bl	chDbgPanic
 763              	.L45:
 764              		.loc 1 277 0 is_stmt 1
 765 003c 039B     		ldr	r3, [sp, #12]
 766 003e 4FF00302 		mov	r2, #3
 767 0042 1A70     		strb	r2, [r3, #0]
 768 0044 0398     		ldr	r0, [sp, #12]
 769 0046 0299     		ldr	r1, [sp, #8]
 770 0048 019A     		ldr	r2, [sp, #4]
 771 004a FFF7FEFF 		bl	spi_lld_receive
 772              		.loc 1 278 0
 773 004e FFF7FEFF 		bl	dbg_check_unlock
 774              	.LBB17:
 775 0052 4FF00003 		mov	r3, #0
 776              	@ 278 "../chibios_2.4.x/os/hal/src/spi.c" 1
 777 0056 83F31188 		msr     BASEPRI, r3
 778              	@ 0 "" 2
 779              		.thumb
 780              	.LBE17:
 781              		.loc 1 279 0
 782 005a 05B0     		add	sp, sp, #20
 783 005c 00BD     		pop	{pc}
 784              	.L47:
 785 005e 00BF     		.align	2
 786              	.L46:
 787 0060 04010000 		.word	.LC14
 788 0064 18010000 		.word	.LC15
 789              		.cfi_endproc
 790              	.LFE71:
 791              		.size	spiStartReceive, .-spiStartReceive
ARM GAS  /tmp/ccGITGlO.s 			page 16


 792 0068 AFF30080 		.text
 792      AFF30080 
 793              	.Letext0: