ARM GAS  C:\Users\z80\AppData\Local\Temp\ccQPbzmi.s 			page 1


   1              		.syntax unified
   2              		.cpu cortex-m3
   3              		.fpu softvfp
   4              		.eabi_attribute 20, 1
   5              		.eabi_attribute 21, 1
   6              		.eabi_attribute 23, 3
   7              		.eabi_attribute 24, 1
   8              		.eabi_attribute 25, 1
   9              		.eabi_attribute 26, 1
  10              		.eabi_attribute 30, 2
  11              		.eabi_attribute 18, 4
  12              		.thumb
  13              		.file	"spi.c"
  14              		.section	.debug_abbrev,"",%progbits
  15              	.Ldebug_abbrev0:
  16              		.section	.debug_info,"",%progbits
  17              	.Ldebug_info0:
  18              		.section	.debug_line,"",%progbits
  19              	.Ldebug_line0:
  20 0000 6A030000 		.text
  20      0200F301 
  20      00000201 
  20      FB0E0D00 
  20      01010101 
  21              	.Ltext0:
  22              		.cfi_sections	.debug_frame
  23              		.section	.text.spiInit,"ax",%progbits
  24              		.align	2
  25              		.p2align 4,,15
  26              		.global	spiInit
  27              		.thumb
  28              		.thumb_func
  29              		.type	spiInit, %function
  30              	spiInit:
  31              	.LFB62:
  32              		.file 1 "../chibios_2.4.x/os/hal/src/spi.c"
  33              		.loc 1 68 0
  34              		.cfi_startproc
  35              		@ args = 0, pretend = 0, frame = 0
  36              		@ frame_needed = 0, uses_anonymous_args = 0
  37 0000 08B5     		push	{r3, lr}
  38              	.LCFI0:
  39              		.cfi_def_cfa_offset 8
  40              		.loc 1 70 0
  41              		.cfi_offset 14, -4
  42              		.cfi_offset 3, -8
  43 0002 FFF7FEFF 		bl	spi_lld_init
  44              		.loc 1 71 0
  45 0006 08BD     		pop	{r3, pc}
  46              		.cfi_endproc
  47              	.LFE62:
  48              		.size	spiInit, .-spiInit
  49 0008 AFF30080 		.section	.text.spiObjectInit,"ax",%progbits
  49      AFF30080 
  50              		.align	2
  51              		.p2align 4,,15
  52              		.global	spiObjectInit
ARM GAS  C:\Users\z80\AppData\Local\Temp\ccQPbzmi.s 			page 2


  53              		.thumb
  54              		.thumb_func
  55              		.type	spiObjectInit, %function
  56              	spiObjectInit:
  57              	.LFB63:
  58              		.loc 1 80 0
  59              		.cfi_startproc
  60              		@ args = 0, pretend = 0, frame = 0
  61              		@ frame_needed = 0, uses_anonymous_args = 0
  62              		@ link register save eliminated.
  63              	.LVL0:
  64              		.loc 1 82 0
  65 0000 0123     		movs	r3, #1
  66 0002 0370     		strb	r3, [r0, #0]
  67              		.loc 1 83 0
  68 0004 0023     		movs	r3, #0
  69 0006 4360     		str	r3, [r0, #4]
  70              		.loc 1 97 0
  71 0008 7047     		bx	lr
  72              		.cfi_endproc
  73              	.LFE63:
  74              		.size	spiObjectInit, .-spiObjectInit
  75 000a 00BFAFF3 		.section	.text.spiStart,"ax",%progbits
  75      0080
  76              		.align	2
  77              		.p2align 4,,15
  78              		.global	spiStart
  79              		.thumb
  80              		.thumb_func
  81              		.type	spiStart, %function
  82              	spiStart:
  83              	.LFB64:
  84              		.loc 1 107 0
  85              		.cfi_startproc
  86              		@ args = 0, pretend = 0, frame = 0
  87              		@ frame_needed = 0, uses_anonymous_args = 0
  88              	.LVL1:
  89 0000 38B5     		push	{r3, r4, r5, lr}
  90              	.LCFI1:
  91              		.cfi_def_cfa_offset 16
  92              		.loc 1 109 0
  93 0002 D0F10103 		rsbs	r3, r0, #1
  94 0006 38BF     		it	cc
  95 0008 0023     		movcc	r3, #0
  96              		.cfi_offset 14, -4
  97              		.cfi_offset 5, -8
  98              		.cfi_offset 4, -12
  99              		.cfi_offset 3, -16
 100 000a 0029     		cmp	r1, #0
 101 000c 08BF     		it	eq
 102 000e 43F00103 		orreq	r3, r3, #1
 103              		.loc 1 107 0
 104 0012 0446     		mov	r4, r0
 105 0014 0D46     		mov	r5, r1
 106              		.loc 1 109 0
 107 0016 C3B9     		cbnz	r3, .L7
 108              	.LVL2:
ARM GAS  C:\Users\z80\AppData\Local\Temp\ccQPbzmi.s 			page 3


 109              	.L4:
 110              	.LBB2:
 111              		.loc 1 111 0
 112 0018 2023     		movs	r3, #32
 113              	.LVL3:
 114              	@ 111 "../chibios_2.4.x/os/hal/src/spi.c" 1
 115 001a 83F31188 		msr     BASEPRI, r3
 116              	@ 0 "" 2
 117              	.LVL4:
 118              		.thumb
 119              	.LBE2:
 120 001e FFF7FEFF 		bl	dbg_check_lock
 121              	.LVL5:
 122              		.loc 1 112 0
 123 0022 2378     		ldrb	r3, [r4, #0]	@ zero_extendqisi2
 124 0024 013B     		subs	r3, r3, #1
 125 0026 DBB2     		uxtb	r3, r3
 126 0028 012B     		cmp	r3, #1
 127 002a 02D9     		bls	.L5
 128              		.loc 1 112 0 is_stmt 0 discriminator 1
 129 002c 0948     		ldr	r0, .L8
 130 002e FFF7FEFF 		bl	chDbgPanic
 131              	.L5:
 132              		.loc 1 115 0 is_stmt 1
 133 0032 2046     		mov	r0, r4
 134              		.loc 1 114 0
 135 0034 6560     		str	r5, [r4, #4]
 136              		.loc 1 115 0
 137 0036 FFF7FEFF 		bl	spi_lld_start
 138              		.loc 1 116 0
 139 003a 0223     		movs	r3, #2
 140 003c 2370     		strb	r3, [r4, #0]
 141              		.loc 1 117 0
 142 003e FFF7FEFF 		bl	dbg_check_unlock
 143              	.LBB3:
 144 0042 0023     		movs	r3, #0
 145              	.LVL6:
 146              	@ 117 "../chibios_2.4.x/os/hal/src/spi.c" 1
 147 0044 83F31188 		msr     BASEPRI, r3
 148              	@ 0 "" 2
 149              	.LVL7:
 150              		.thumb
 151              	.LBE3:
 152              		.loc 1 118 0
 153 0048 38BD     		pop	{r3, r4, r5, pc}
 154              	.LVL8:
 155              	.L7:
 156              		.loc 1 109 0 discriminator 1
 157 004a 0348     		ldr	r0, .L8+4
 158 004c FFF7FEFF 		bl	chDbgPanic
 159 0050 E2E7     		b	.L4
 160              	.L9:
 161 0052 00BF     		.align	2
 162              	.L8:
 163 0054 10000000 		.word	.LC1
 164 0058 00000000 		.word	.LC0
 165              		.cfi_endproc
ARM GAS  C:\Users\z80\AppData\Local\Temp\ccQPbzmi.s 			page 4


 166              	.LFE64:
 167              		.size	spiStart, .-spiStart
 168 005c AFF30080 		.section	.text.spiStop,"ax",%progbits
 169              		.align	2
 170              		.p2align 4,,15
 171              		.global	spiStop
 172              		.thumb
 173              		.thumb_func
 174              		.type	spiStop, %function
 175              	spiStop:
 176              	.LFB65:
 177              		.loc 1 129 0
 178              		.cfi_startproc
 179              		@ args = 0, pretend = 0, frame = 0
 180              		@ frame_needed = 0, uses_anonymous_args = 0
 181              	.LVL9:
 182 0000 10B5     		push	{r4, lr}
 183              	.LCFI2:
 184              		.cfi_def_cfa_offset 8
 185              		.loc 1 129 0
 186 0002 0446     		mov	r4, r0
 187              		.cfi_offset 14, -4
 188              		.cfi_offset 4, -8
 189              		.loc 1 131 0
 190 0004 D0B1     		cbz	r0, .L13
 191              	.LVL10:
 192              	.L11:
 193              	.LBB4:
 194              		.loc 1 133 0
 195 0006 2023     		movs	r3, #32
 196              	.LVL11:
 197              	@ 133 "../chibios_2.4.x/os/hal/src/spi.c" 1
 198 0008 83F31188 		msr     BASEPRI, r3
 199              	@ 0 "" 2
 200              	.LVL12:
 201              		.thumb
 202              	.LBE4:
 203 000c FFF7FEFF 		bl	dbg_check_lock
 204              	.LVL13:
 205              		.loc 1 134 0
 206 0010 2378     		ldrb	r3, [r4, #0]	@ zero_extendqisi2
 207 0012 013B     		subs	r3, r3, #1
 208 0014 DBB2     		uxtb	r3, r3
 209 0016 012B     		cmp	r3, #1
 210 0018 02D9     		bls	.L12
 211              		.loc 1 134 0 is_stmt 0 discriminator 1
 212 001a 0A48     		ldr	r0, .L14
 213 001c FFF7FEFF 		bl	chDbgPanic
 214              	.L12:
 215              		.loc 1 136 0 is_stmt 1
 216 0020 2046     		mov	r0, r4
 217 0022 FFF7FEFF 		bl	spi_lld_unselect
 218              		.loc 1 137 0
 219 0026 2046     		mov	r0, r4
 220 0028 FFF7FEFF 		bl	spi_lld_stop
 221              		.loc 1 138 0
 222 002c 0123     		movs	r3, #1
ARM GAS  C:\Users\z80\AppData\Local\Temp\ccQPbzmi.s 			page 5


 223 002e 2370     		strb	r3, [r4, #0]
 224              		.loc 1 139 0
 225 0030 FFF7FEFF 		bl	dbg_check_unlock
 226              	.LBB5:
 227 0034 0023     		movs	r3, #0
 228              	.LVL14:
 229              	@ 139 "../chibios_2.4.x/os/hal/src/spi.c" 1
 230 0036 83F31188 		msr     BASEPRI, r3
 231              	@ 0 "" 2
 232              	.LVL15:
 233              		.thumb
 234              	.LBE5:
 235              		.loc 1 140 0
 236 003a 10BD     		pop	{r4, pc}
 237              	.LVL16:
 238              	.L13:
 239              		.loc 1 131 0 discriminator 1
 240 003c 0248     		ldr	r0, .L14+4
 241 003e FFF7FEFF 		bl	chDbgPanic
 242 0042 E0E7     		b	.L11
 243              	.L15:
 244              		.align	2
 245              	.L14:
 246 0044 2C000000 		.word	.LC3
 247 0048 20000000 		.word	.LC2
 248              		.cfi_endproc
 249              	.LFE65:
 250              		.size	spiStop, .-spiStop
 251 004c AFF30080 		.section	.text.spiSelect,"ax",%progbits
 252              		.align	2
 253              		.p2align 4,,15
 254              		.global	spiSelect
 255              		.thumb
 256              		.thumb_func
 257              		.type	spiSelect, %function
 258              	spiSelect:
 259              	.LFB66:
 260              		.loc 1 149 0
 261              		.cfi_startproc
 262              		@ args = 0, pretend = 0, frame = 0
 263              		@ frame_needed = 0, uses_anonymous_args = 0
 264              	.LVL17:
 265 0000 10B5     		push	{r4, lr}
 266              	.LCFI3:
 267              		.cfi_def_cfa_offset 8
 268              		.loc 1 149 0
 269 0002 0446     		mov	r4, r0
 270              		.cfi_offset 14, -4
 271              		.cfi_offset 4, -8
 272              		.loc 1 151 0
 273 0004 98B1     		cbz	r0, .L19
 274              	.LVL18:
 275              	.L17:
 276              	.LBB6:
 277              		.loc 1 153 0
 278 0006 2023     		movs	r3, #32
 279              	.LVL19:
ARM GAS  C:\Users\z80\AppData\Local\Temp\ccQPbzmi.s 			page 6


 280              	@ 153 "../chibios_2.4.x/os/hal/src/spi.c" 1
 281 0008 83F31188 		msr     BASEPRI, r3
 282              	@ 0 "" 2
 283              	.LVL20:
 284              		.thumb
 285              	.LBE6:
 286 000c FFF7FEFF 		bl	dbg_check_lock
 287              	.LVL21:
 288              		.loc 1 154 0
 289 0010 2378     		ldrb	r3, [r4, #0]	@ zero_extendqisi2
 290 0012 022B     		cmp	r3, #2
 291 0014 02D0     		beq	.L18
 292              		.loc 1 154 0 is_stmt 0 discriminator 1
 293 0016 0848     		ldr	r0, .L20
 294 0018 FFF7FEFF 		bl	chDbgPanic
 295              	.L18:
 296              		.loc 1 155 0 is_stmt 1
 297 001c 2046     		mov	r0, r4
 298 001e FFF7FEFF 		bl	spi_lld_select
 299              		.loc 1 156 0
 300 0022 FFF7FEFF 		bl	dbg_check_unlock
 301              	.LBB7:
 302 0026 0023     		movs	r3, #0
 303              	.LVL22:
 304              	@ 156 "../chibios_2.4.x/os/hal/src/spi.c" 1
 305 0028 83F31188 		msr     BASEPRI, r3
 306              	@ 0 "" 2
 307              	.LVL23:
 308              		.thumb
 309              	.LBE7:
 310              		.loc 1 157 0
 311 002c 10BD     		pop	{r4, pc}
 312              	.LVL24:
 313              	.L19:
 314              		.loc 1 151 0 discriminator 1
 315 002e 0348     		ldr	r0, .L20+4
 316 0030 FFF7FEFF 		bl	chDbgPanic
 317 0034 E7E7     		b	.L17
 318              	.L21:
 319 0036 00BF     		.align	2
 320              	.L20:
 321 0038 4C000000 		.word	.LC5
 322 003c 3C000000 		.word	.LC4
 323              		.cfi_endproc
 324              	.LFE66:
 325              		.size	spiSelect, .-spiSelect
 326              		.section	.text.spiUnselect,"ax",%progbits
 327              		.align	2
 328              		.p2align 4,,15
 329              		.global	spiUnselect
 330              		.thumb
 331              		.thumb_func
 332              		.type	spiUnselect, %function
 333              	spiUnselect:
 334              	.LFB67:
 335              		.loc 1 167 0
 336              		.cfi_startproc
ARM GAS  C:\Users\z80\AppData\Local\Temp\ccQPbzmi.s 			page 7


 337              		@ args = 0, pretend = 0, frame = 0
 338              		@ frame_needed = 0, uses_anonymous_args = 0
 339              	.LVL25:
 340 0000 10B5     		push	{r4, lr}
 341              	.LCFI4:
 342              		.cfi_def_cfa_offset 8
 343              		.loc 1 167 0
 344 0002 0446     		mov	r4, r0
 345              		.cfi_offset 14, -4
 346              		.cfi_offset 4, -8
 347              		.loc 1 169 0
 348 0004 98B1     		cbz	r0, .L25
 349              	.LVL26:
 350              	.L23:
 351              	.LBB8:
 352              		.loc 1 171 0
 353 0006 2023     		movs	r3, #32
 354              	.LVL27:
 355              	@ 171 "../chibios_2.4.x/os/hal/src/spi.c" 1
 356 0008 83F31188 		msr     BASEPRI, r3
 357              	@ 0 "" 2
 358              	.LVL28:
 359              		.thumb
 360              	.LBE8:
 361 000c FFF7FEFF 		bl	dbg_check_lock
 362              	.LVL29:
 363              		.loc 1 172 0
 364 0010 2378     		ldrb	r3, [r4, #0]	@ zero_extendqisi2
 365 0012 022B     		cmp	r3, #2
 366 0014 02D0     		beq	.L24
 367              		.loc 1 172 0 is_stmt 0 discriminator 1
 368 0016 0848     		ldr	r0, .L26
 369 0018 FFF7FEFF 		bl	chDbgPanic
 370              	.L24:
 371              		.loc 1 173 0 is_stmt 1
 372 001c 2046     		mov	r0, r4
 373 001e FFF7FEFF 		bl	spi_lld_unselect
 374              		.loc 1 174 0
 375 0022 FFF7FEFF 		bl	dbg_check_unlock
 376              	.LBB9:
 377 0026 0023     		movs	r3, #0
 378              	.LVL30:
 379              	@ 174 "../chibios_2.4.x/os/hal/src/spi.c" 1
 380 0028 83F31188 		msr     BASEPRI, r3
 381              	@ 0 "" 2
 382              	.LVL31:
 383              		.thumb
 384              	.LBE9:
 385              		.loc 1 175 0
 386 002c 10BD     		pop	{r4, pc}
 387              	.LVL32:
 388              	.L25:
 389              		.loc 1 169 0 discriminator 1
 390 002e 0348     		ldr	r0, .L26+4
 391 0030 FFF7FEFF 		bl	chDbgPanic
 392 0034 E7E7     		b	.L23
 393              	.L27:
ARM GAS  C:\Users\z80\AppData\Local\Temp\ccQPbzmi.s 			page 8


 394 0036 00BF     		.align	2
 395              	.L26:
 396 0038 6C000000 		.word	.LC7
 397 003c 5C000000 		.word	.LC6
 398              		.cfi_endproc
 399              	.LFE67:
 400              		.size	spiUnselect, .-spiUnselect
 401              		.section	.text.spiStartIgnore,"ax",%progbits
 402              		.align	2
 403              		.p2align 4,,15
 404              		.global	spiStartIgnore
 405              		.thumb
 406              		.thumb_func
 407              		.type	spiStartIgnore, %function
 408              	spiStartIgnore:
 409              	.LFB68:
 410              		.loc 1 190 0
 411              		.cfi_startproc
 412              		@ args = 0, pretend = 0, frame = 0
 413              		@ frame_needed = 0, uses_anonymous_args = 0
 414              	.LVL33:
 415 0000 38B5     		push	{r3, r4, r5, lr}
 416              	.LCFI5:
 417              		.cfi_def_cfa_offset 16
 418              		.loc 1 192 0
 419 0002 D0F10103 		rsbs	r3, r0, #1
 420 0006 38BF     		it	cc
 421 0008 0023     		movcc	r3, #0
 422              		.cfi_offset 14, -4
 423              		.cfi_offset 5, -8
 424              		.cfi_offset 4, -12
 425              		.cfi_offset 3, -16
 426 000a 0029     		cmp	r1, #0
 427 000c 08BF     		it	eq
 428 000e 43F00103 		orreq	r3, r3, #1
 429              		.loc 1 190 0
 430 0012 0446     		mov	r4, r0
 431 0014 0D46     		mov	r5, r1
 432              		.loc 1 192 0
 433 0016 B3B9     		cbnz	r3, .L31
 434              	.LVL34:
 435              	.L29:
 436              	.LBB10:
 437              		.loc 1 194 0
 438 0018 2023     		movs	r3, #32
 439              	.LVL35:
 440              	@ 194 "../chibios_2.4.x/os/hal/src/spi.c" 1
 441 001a 83F31188 		msr     BASEPRI, r3
 442              	@ 0 "" 2
 443              	.LVL36:
 444              		.thumb
 445              	.LBE10:
 446 001e FFF7FEFF 		bl	dbg_check_lock
 447              	.LVL37:
 448              		.loc 1 195 0
 449 0022 2378     		ldrb	r3, [r4, #0]	@ zero_extendqisi2
 450 0024 022B     		cmp	r3, #2
ARM GAS  C:\Users\z80\AppData\Local\Temp\ccQPbzmi.s 			page 9


 451 0026 02D0     		beq	.L30
 452              		.loc 1 195 0 is_stmt 0 discriminator 1
 453 0028 0948     		ldr	r0, .L32
 454 002a FFF7FEFF 		bl	chDbgPanic
 455              	.L30:
 456              		.loc 1 196 0 is_stmt 1
 457 002e 0323     		movs	r3, #3
 458 0030 2370     		strb	r3, [r4, #0]
 459 0032 2046     		mov	r0, r4
 460 0034 2946     		mov	r1, r5
 461 0036 FFF7FEFF 		bl	spi_lld_ignore
 462              		.loc 1 197 0
 463 003a FFF7FEFF 		bl	dbg_check_unlock
 464              	.LBB11:
 465 003e 0023     		movs	r3, #0
 466              	.LVL38:
 467              	@ 197 "../chibios_2.4.x/os/hal/src/spi.c" 1
 468 0040 83F31188 		msr     BASEPRI, r3
 469              	@ 0 "" 2
 470              	.LVL39:
 471              		.thumb
 472              	.LBE11:
 473              		.loc 1 198 0
 474 0044 38BD     		pop	{r3, r4, r5, pc}
 475              	.LVL40:
 476              	.L31:
 477              		.loc 1 192 0 discriminator 1
 478 0046 0348     		ldr	r0, .L32+4
 479 0048 FFF7FEFF 		bl	chDbgPanic
 480 004c E4E7     		b	.L29
 481              	.L33:
 482 004e 00BF     		.align	2
 483              	.L32:
 484 0050 94000000 		.word	.LC9
 485 0054 80000000 		.word	.LC8
 486              		.cfi_endproc
 487              	.LFE68:
 488              		.size	spiStartIgnore, .-spiStartIgnore
 489 0058 AFF30080 		.section	.text.spiStartExchange,"ax",%progbits
 489      AFF30080 
 490              		.align	2
 491              		.p2align 4,,15
 492              		.global	spiStartExchange
 493              		.thumb
 494              		.thumb_func
 495              		.type	spiStartExchange, %function
 496              	spiStartExchange:
 497              	.LFB69:
 498              		.loc 1 218 0
 499              		.cfi_startproc
 500              		@ args = 0, pretend = 0, frame = 0
 501              		@ frame_needed = 0, uses_anonymous_args = 0
 502              	.LVL41:
 503 0000 F8B5     		push	{r3, r4, r5, r6, r7, lr}
 504              	.LCFI6:
 505              		.cfi_def_cfa_offset 24
 506              		.loc 1 218 0
ARM GAS  C:\Users\z80\AppData\Local\Temp\ccQPbzmi.s 			page 10


 507 0002 0D46     		mov	r5, r1
 508              		.cfi_offset 14, -4
 509              		.cfi_offset 7, -8
 510              		.cfi_offset 6, -12
 511              		.cfi_offset 5, -16
 512              		.cfi_offset 4, -20
 513              		.cfi_offset 3, -24
 514              		.loc 1 220 0
 515 0004 D0F10101 		rsbs	r1, r0, #1
 516 0008 38BF     		it	cc
 517 000a 0021     		movcc	r1, #0
 518              	.LVL42:
 519 000c 002D     		cmp	r5, #0
 520 000e 08BF     		it	eq
 521 0010 41F00101 		orreq	r1, r1, #1
 522              		.loc 1 218 0
 523 0014 0446     		mov	r4, r0
 524 0016 1646     		mov	r6, r2
 525 0018 1F46     		mov	r7, r3
 526              		.loc 1 220 0
 527 001a 0029     		cmp	r1, #0
 528 001c 23D1     		bne	.L35
 529              		.loc 1 220 0 is_stmt 0 discriminator 2
 530 001e D2F10103 		rsbs	r3, r2, #1
 531 0022 38BF     		it	cc
 532 0024 0023     		movcc	r3, #0
 533              	.LVL43:
 534 0026 002F     		cmp	r7, #0
 535 0028 08BF     		it	eq
 536 002a 43F00103 		orreq	r3, r3, #1
 537 002e D3B9     		cbnz	r3, .L35
 538              	.LVL44:
 539              	.L36:
 540              	.LBB12:
 541              		.loc 1 223 0 is_stmt 1
 542 0030 2023     		movs	r3, #32
 543              	.LVL45:
 544              	@ 223 "../chibios_2.4.x/os/hal/src/spi.c" 1
 545 0032 83F31188 		msr     BASEPRI, r3
 546              	@ 0 "" 2
 547              	.LVL46:
 548              		.thumb
 549              	.LBE12:
 550 0036 FFF7FEFF 		bl	dbg_check_lock
 551              	.LVL47:
 552              		.loc 1 224 0
 553 003a 2378     		ldrb	r3, [r4, #0]	@ zero_extendqisi2
 554 003c 022B     		cmp	r3, #2
 555 003e 02D0     		beq	.L37
 556              		.loc 1 224 0 is_stmt 0 discriminator 1
 557 0040 0B48     		ldr	r0, .L38
 558 0042 FFF7FEFF 		bl	chDbgPanic
 559              	.L37:
 560              		.loc 1 225 0 is_stmt 1
 561 0046 4FF0030C 		mov	ip, #3
 562 004a 3B46     		mov	r3, r7
 563 004c 2046     		mov	r0, r4
ARM GAS  C:\Users\z80\AppData\Local\Temp\ccQPbzmi.s 			page 11


 564 004e 2946     		mov	r1, r5
 565 0050 3246     		mov	r2, r6
 566 0052 84F800C0 		strb	ip, [r4, #0]
 567 0056 FFF7FEFF 		bl	spi_lld_exchange
 568              		.loc 1 226 0
 569 005a FFF7FEFF 		bl	dbg_check_unlock
 570              	.LBB13:
 571 005e 0023     		movs	r3, #0
 572              	.LVL48:
 573              	@ 226 "../chibios_2.4.x/os/hal/src/spi.c" 1
 574 0060 83F31188 		msr     BASEPRI, r3
 575              	@ 0 "" 2
 576              	.LVL49:
 577              		.thumb
 578              	.LBE13:
 579              		.loc 1 227 0
 580 0064 F8BD     		pop	{r3, r4, r5, r6, r7, pc}
 581              	.LVL50:
 582              	.L35:
 583              		.loc 1 220 0 discriminator 1
 584 0066 0348     		ldr	r0, .L38+4
 585 0068 FFF7FEFF 		bl	chDbgPanic
 586 006c E0E7     		b	.L36
 587              	.L39:
 588 006e 00BF     		.align	2
 589              	.L38:
 590 0070 C4000000 		.word	.LC11
 591 0074 AC000000 		.word	.LC10
 592              		.cfi_endproc
 593              	.LFE69:
 594              		.size	spiStartExchange, .-spiStartExchange
 595 0078 AFF30080 		.section	.text.spiStartSend,"ax",%progbits
 595      AFF30080 
 596              		.align	2
 597              		.p2align 4,,15
 598              		.global	spiStartSend
 599              		.thumb
 600              		.thumb_func
 601              		.type	spiStartSend, %function
 602              	spiStartSend:
 603              	.LFB70:
 604              		.loc 1 244 0
 605              		.cfi_startproc
 606              		@ args = 0, pretend = 0, frame = 0
 607              		@ frame_needed = 0, uses_anonymous_args = 0
 608              	.LVL51:
 609              		.loc 1 246 0
 610 0000 D0F10103 		rsbs	r3, r0, #1
 611 0004 38BF     		it	cc
 612 0006 0023     		movcc	r3, #0
 613 0008 0029     		cmp	r1, #0
 614 000a 08BF     		it	eq
 615 000c 43F00103 		orreq	r3, r3, #1
 616              		.loc 1 244 0
 617 0010 70B5     		push	{r4, r5, r6, lr}
 618              	.LCFI7:
 619              		.cfi_def_cfa_offset 16
ARM GAS  C:\Users\z80\AppData\Local\Temp\ccQPbzmi.s 			page 12


 620              		.loc 1 244 0
 621 0012 0446     		mov	r4, r0
 622              		.cfi_offset 14, -4
 623              		.cfi_offset 6, -8
 624              		.cfi_offset 5, -12
 625              		.cfi_offset 4, -16
 626 0014 0D46     		mov	r5, r1
 627 0016 1646     		mov	r6, r2
 628              		.loc 1 246 0
 629 0018 C3B9     		cbnz	r3, .L41
 630              		.loc 1 246 0 is_stmt 0 discriminator 2
 631 001a BAB1     		cbz	r2, .L41
 632              	.LVL52:
 633              	.L42:
 634              	.LBB14:
 635              		.loc 1 249 0 is_stmt 1
 636 001c 2023     		movs	r3, #32
 637              	.LVL53:
 638              	@ 249 "../chibios_2.4.x/os/hal/src/spi.c" 1
 639 001e 83F31188 		msr     BASEPRI, r3
 640              	@ 0 "" 2
 641              	.LVL54:
 642              		.thumb
 643              	.LBE14:
 644 0022 FFF7FEFF 		bl	dbg_check_lock
 645              	.LVL55:
 646              		.loc 1 250 0
 647 0026 2378     		ldrb	r3, [r4, #0]	@ zero_extendqisi2
 648 0028 022B     		cmp	r3, #2
 649 002a 02D0     		beq	.L43
 650              		.loc 1 250 0 is_stmt 0 discriminator 1
 651 002c 0948     		ldr	r0, .L44
 652 002e FFF7FEFF 		bl	chDbgPanic
 653              	.L43:
 654              		.loc 1 251 0 is_stmt 1
 655 0032 0323     		movs	r3, #3
 656 0034 2370     		strb	r3, [r4, #0]
 657 0036 2046     		mov	r0, r4
 658 0038 2946     		mov	r1, r5
 659 003a 3246     		mov	r2, r6
 660 003c FFF7FEFF 		bl	spi_lld_send
 661              		.loc 1 252 0
 662 0040 FFF7FEFF 		bl	dbg_check_unlock
 663              	.LBB15:
 664 0044 0023     		movs	r3, #0
 665              	.LVL56:
 666              	@ 252 "../chibios_2.4.x/os/hal/src/spi.c" 1
 667 0046 83F31188 		msr     BASEPRI, r3
 668              	@ 0 "" 2
 669              	.LVL57:
 670              		.thumb
 671              	.LBE15:
 672              		.loc 1 253 0
 673 004a 70BD     		pop	{r4, r5, r6, pc}
 674              	.LVL58:
 675              	.L41:
 676              		.loc 1 246 0 discriminator 1
ARM GAS  C:\Users\z80\AppData\Local\Temp\ccQPbzmi.s 			page 13


 677 004c 0248     		ldr	r0, .L44+4
 678 004e FFF7FEFF 		bl	chDbgPanic
 679 0052 E3E7     		b	.L42
 680              	.L45:
 681              		.align	2
 682              	.L44:
 683 0054 F0000000 		.word	.LC13
 684 0058 DC000000 		.word	.LC12
 685              		.cfi_endproc
 686              	.LFE70:
 687              		.size	spiStartSend, .-spiStartSend
 688 005c AFF30080 		.section	.text.spiStartReceive,"ax",%progbits
 689              		.align	2
 690              		.p2align 4,,15
 691              		.global	spiStartReceive
 692              		.thumb
 693              		.thumb_func
 694              		.type	spiStartReceive, %function
 695              	spiStartReceive:
 696              	.LFB71:
 697              		.loc 1 270 0
 698              		.cfi_startproc
 699              		@ args = 0, pretend = 0, frame = 0
 700              		@ frame_needed = 0, uses_anonymous_args = 0
 701              	.LVL59:
 702              		.loc 1 272 0
 703 0000 D0F10103 		rsbs	r3, r0, #1
 704 0004 38BF     		it	cc
 705 0006 0023     		movcc	r3, #0
 706 0008 0029     		cmp	r1, #0
 707 000a 08BF     		it	eq
 708 000c 43F00103 		orreq	r3, r3, #1
 709              		.loc 1 270 0
 710 0010 70B5     		push	{r4, r5, r6, lr}
 711              	.LCFI8:
 712              		.cfi_def_cfa_offset 16
 713              		.loc 1 270 0
 714 0012 0446     		mov	r4, r0
 715              		.cfi_offset 14, -4
 716              		.cfi_offset 6, -8
 717              		.cfi_offset 5, -12
 718              		.cfi_offset 4, -16
 719 0014 0D46     		mov	r5, r1
 720 0016 1646     		mov	r6, r2
 721              		.loc 1 272 0
 722 0018 C3B9     		cbnz	r3, .L47
 723              		.loc 1 272 0 is_stmt 0 discriminator 2
 724 001a BAB1     		cbz	r2, .L47
 725              	.LVL60:
 726              	.L48:
 727              	.LBB16:
 728              		.loc 1 275 0 is_stmt 1
 729 001c 2023     		movs	r3, #32
 730              	.LVL61:
 731              	@ 275 "../chibios_2.4.x/os/hal/src/spi.c" 1
 732 001e 83F31188 		msr     BASEPRI, r3
 733              	@ 0 "" 2
ARM GAS  C:\Users\z80\AppData\Local\Temp\ccQPbzmi.s 			page 14


 734              	.LVL62:
 735              		.thumb
 736              	.LBE16:
 737 0022 FFF7FEFF 		bl	dbg_check_lock
 738              	.LVL63:
 739              		.loc 1 276 0
 740 0026 2378     		ldrb	r3, [r4, #0]	@ zero_extendqisi2
 741 0028 022B     		cmp	r3, #2
 742 002a 02D0     		beq	.L49
 743              		.loc 1 276 0 is_stmt 0 discriminator 1
 744 002c 0948     		ldr	r0, .L50
 745 002e FFF7FEFF 		bl	chDbgPanic
 746              	.L49:
 747              		.loc 1 277 0 is_stmt 1
 748 0032 0323     		movs	r3, #3
 749 0034 2370     		strb	r3, [r4, #0]
 750 0036 2046     		mov	r0, r4
 751 0038 2946     		mov	r1, r5
 752 003a 3246     		mov	r2, r6
 753 003c FFF7FEFF 		bl	spi_lld_receive
 754              		.loc 1 278 0
 755 0040 FFF7FEFF 		bl	dbg_check_unlock
 756              	.LBB17:
 757 0044 0023     		movs	r3, #0
 758              	.LVL64:
 759              	@ 278 "../chibios_2.4.x/os/hal/src/spi.c" 1
 760 0046 83F31188 		msr     BASEPRI, r3
 761              	@ 0 "" 2
 762              	.LVL65:
 763              		.thumb
 764              	.LBE17:
 765              		.loc 1 279 0
 766 004a 70BD     		pop	{r4, r5, r6, pc}
 767              	.LVL66:
 768              	.L47:
 769              		.loc 1 272 0 discriminator 1
 770 004c 0248     		ldr	r0, .L50+4
 771 004e FFF7FEFF 		bl	chDbgPanic
 772 0052 E3E7     		b	.L48
 773              	.L51:
 774              		.align	2
 775              	.L50:
 776 0054 18010000 		.word	.LC15
 777 0058 04010000 		.word	.LC14
 778              		.cfi_endproc
 779              	.LFE71:
 780              		.size	spiStartReceive, .-spiStartReceive
 781 005c AFF30080 		.section	.rodata.str1.4,"aMS",%progbits,1
 782              		.align	2
 783              	.LC0:
 784 0000 22737069 		.ascii	"\"spiStart\"()\000"
 784      53746172 
 784      74222829 
 784      00
 785 000d 000000   		.space	3
 786              	.LC1:
 787 0010 73706953 		.ascii	"spiStart(), #1\000"
ARM GAS  C:\Users\z80\AppData\Local\Temp\ccQPbzmi.s 			page 15


 787      74617274 
 787      28292C20 
 787      233100
 788 001f 00       		.space	1
 789              	.LC2:
 790 0020 22737069 		.ascii	"\"spiStop\"()\000"
 790      53746F70 
 790      22282900 
 791              	.LC3:
 792 002c 73706953 		.ascii	"spiStop(), #1\000"
 792      746F7028 
 792      292C2023 
 792      3100
 793 003a 0000     		.space	2
 794              	.LC4:
 795 003c 22737069 		.ascii	"\"spiSelect\"()\000"
 795      53656C65 
 795      63742228 
 795      2900
 796 004a 0000     		.space	2
 797              	.LC5:
 798 004c 73706953 		.ascii	"spiSelect(), #1\000"
 798      656C6563 
 798      7428292C 
 798      20233100 
 799              	.LC6:
 800 005c 22737069 		.ascii	"\"spiUnselect\"()\000"
 800      556E7365 
 800      6C656374 
 800      22282900 
 801              	.LC7:
 802 006c 73706955 		.ascii	"spiUnselect(), #1\000"
 802      6E73656C 
 802      65637428 
 802      292C2023 
 802      3100
 803 007e 0000     		.space	2
 804              	.LC8:
 805 0080 22737069 		.ascii	"\"spiStartIgnore\"()\000"
 805      53746172 
 805      7449676E 
 805      6F726522 
 805      282900
 806 0093 00       		.space	1
 807              	.LC9:
 808 0094 73706953 		.ascii	"spiStartIgnore(), #1\000"
 808      74617274 
 808      49676E6F 
 808      72652829 
 808      2C202331 
 809 00a9 000000   		.space	3
 810              	.LC10:
 811 00ac 22737069 		.ascii	"\"spiStartExchange\"()\000"
 811      53746172 
 811      74457863 
 811      68616E67 
 811      65222829 
ARM GAS  C:\Users\z80\AppData\Local\Temp\ccQPbzmi.s 			page 16


 812 00c1 000000   		.space	3
 813              	.LC11:
 814 00c4 73706953 		.ascii	"spiStartExchange(), #1\000"
 814      74617274 
 814      45786368 
 814      616E6765 
 814      28292C20 
 815 00db 00       		.space	1
 816              	.LC12:
 817 00dc 22737069 		.ascii	"\"spiStartSend\"()\000"
 817      53746172 
 817      7453656E 
 817      64222829 
 817      00
 818 00ed 000000   		.space	3
 819              	.LC13:
 820 00f0 73706953 		.ascii	"spiStartSend(), #1\000"
 820      74617274 
 820      53656E64 
 820      28292C20 
 820      233100
 821 0103 00       		.space	1
 822              	.LC14:
 823 0104 22737069 		.ascii	"\"spiStartReceive\"()\000"
 823      53746172 
 823      74526563 
 823      65697665 
 823      22282900 
 824              	.LC15:
 825 0118 73706953 		.ascii	"spiStartReceive(), #1\000"
 825      74617274 
 825      52656365 
 825      69766528 
 825      292C2023 
 826 012e 0000     		.text
 827              	.Letext0:
 828              		.section	.debug_loc,"",%progbits
 829              	.Ldebug_loc0:
 830              	.LLST0:
 831 0000 00000000 		.4byte	.LFB62
 832 0004 02000000 		.4byte	.LCFI0
 833 0008 0200     		.2byte	0x2
 834 000a 7D       		.byte	0x7d
 835 000b 00       		.sleb128 0
 836 000c 02000000 		.4byte	.LCFI0
 837 0010 08000000 		.4byte	.LFE62
 838 0014 0200     		.2byte	0x2
 839 0016 7D       		.byte	0x7d
 840 0017 08       		.sleb128 8
 841 0018 00000000 		.4byte	0x0
 842 001c 00000000 		.4byte	0x0
 843              	.LLST1:
 844 0020 00000000 		.4byte	.LFB64
 845 0024 02000000 		.4byte	.LCFI1
 846 0028 0200     		.2byte	0x2
 847 002a 7D       		.byte	0x7d
 848 002b 00       		.sleb128 0
ARM GAS  C:\Users\z80\AppData\Local\Temp\ccQPbzmi.s 			page 17


 849 002c 02000000 		.4byte	.LCFI1
 850 0030 5C000000 		.4byte	.LFE64
 851 0034 0200     		.2byte	0x2
 852 0036 7D       		.byte	0x7d
 853 0037 10       		.sleb128 16
 854 0038 00000000 		.4byte	0x0
 855 003c 00000000 		.4byte	0x0
 856              	.LLST2:
 857 0040 00000000 		.4byte	.LVL1
 858 0044 18000000 		.4byte	.LVL2
 859 0048 0100     		.2byte	0x1
 860 004a 50       		.byte	0x50
 861 004b 18000000 		.4byte	.LVL2
 862 004f 5C000000 		.4byte	.LFE64
 863 0053 0100     		.2byte	0x1
 864 0055 54       		.byte	0x54
 865 0056 00000000 		.4byte	0x0
 866 005a 00000000 		.4byte	0x0
 867              	.LLST3:
 868 005e 00000000 		.4byte	.LVL1
 869 0062 18000000 		.4byte	.LVL2
 870 0066 0100     		.2byte	0x1
 871 0068 51       		.byte	0x51
 872 0069 18000000 		.4byte	.LVL2
 873 006d 5C000000 		.4byte	.LFE64
 874 0071 0100     		.2byte	0x1
 875 0073 55       		.byte	0x55
 876 0074 00000000 		.4byte	0x0
 877 0078 00000000 		.4byte	0x0
 878              	.LLST4:
 879 007c 1E000000 		.4byte	.LVL4
 880 0080 21000000 		.4byte	.LVL5-1
 881 0084 0100     		.2byte	0x1
 882 0086 53       		.byte	0x53
 883 0087 00000000 		.4byte	0x0
 884 008b 00000000 		.4byte	0x0
 885              	.LLST5:
 886 008f 48000000 		.4byte	.LVL7
 887 0093 4A000000 		.4byte	.LVL8
 888 0097 0100     		.2byte	0x1
 889 0099 53       		.byte	0x53
 890 009a 00000000 		.4byte	0x0
 891 009e 00000000 		.4byte	0x0
 892              	.LLST6:
 893 00a2 00000000 		.4byte	.LFB65
 894 00a6 02000000 		.4byte	.LCFI2
 895 00aa 0200     		.2byte	0x2
 896 00ac 7D       		.byte	0x7d
 897 00ad 00       		.sleb128 0
 898 00ae 02000000 		.4byte	.LCFI2
 899 00b2 4C000000 		.4byte	.LFE65
 900 00b6 0200     		.2byte	0x2
 901 00b8 7D       		.byte	0x7d
 902 00b9 08       		.sleb128 8
 903 00ba 00000000 		.4byte	0x0
 904 00be 00000000 		.4byte	0x0
 905              	.LLST7:
ARM GAS  C:\Users\z80\AppData\Local\Temp\ccQPbzmi.s 			page 18


 906 00c2 00000000 		.4byte	.LVL9
 907 00c6 06000000 		.4byte	.LVL10
 908 00ca 0100     		.2byte	0x1
 909 00cc 50       		.byte	0x50
 910 00cd 06000000 		.4byte	.LVL10
 911 00d1 4C000000 		.4byte	.LFE65
 912 00d5 0100     		.2byte	0x1
 913 00d7 54       		.byte	0x54
 914 00d8 00000000 		.4byte	0x0
 915 00dc 00000000 		.4byte	0x0
 916              	.LLST8:
 917 00e0 0C000000 		.4byte	.LVL12
 918 00e4 0F000000 		.4byte	.LVL13-1
 919 00e8 0100     		.2byte	0x1
 920 00ea 53       		.byte	0x53
 921 00eb 00000000 		.4byte	0x0
 922 00ef 00000000 		.4byte	0x0
 923              	.LLST9:
 924 00f3 3A000000 		.4byte	.LVL15
 925 00f7 3C000000 		.4byte	.LVL16
 926 00fb 0100     		.2byte	0x1
 927 00fd 53       		.byte	0x53
 928 00fe 00000000 		.4byte	0x0
 929 0102 00000000 		.4byte	0x0
 930              	.LLST10:
 931 0106 00000000 		.4byte	.LFB66
 932 010a 02000000 		.4byte	.LCFI3
 933 010e 0200     		.2byte	0x2
 934 0110 7D       		.byte	0x7d
 935 0111 00       		.sleb128 0
 936 0112 02000000 		.4byte	.LCFI3
 937 0116 40000000 		.4byte	.LFE66
 938 011a 0200     		.2byte	0x2
 939 011c 7D       		.byte	0x7d
 940 011d 08       		.sleb128 8
 941 011e 00000000 		.4byte	0x0
 942 0122 00000000 		.4byte	0x0
 943              	.LLST11:
 944 0126 00000000 		.4byte	.LVL17
 945 012a 06000000 		.4byte	.LVL18
 946 012e 0100     		.2byte	0x1
 947 0130 50       		.byte	0x50
 948 0131 06000000 		.4byte	.LVL18
 949 0135 40000000 		.4byte	.LFE66
 950 0139 0100     		.2byte	0x1
 951 013b 54       		.byte	0x54
 952 013c 00000000 		.4byte	0x0
 953 0140 00000000 		.4byte	0x0
 954              	.LLST12:
 955 0144 0C000000 		.4byte	.LVL20
 956 0148 0F000000 		.4byte	.LVL21-1
 957 014c 0100     		.2byte	0x1
 958 014e 53       		.byte	0x53
 959 014f 00000000 		.4byte	0x0
 960 0153 00000000 		.4byte	0x0
 961              	.LLST13:
 962 0157 2C000000 		.4byte	.LVL23
ARM GAS  C:\Users\z80\AppData\Local\Temp\ccQPbzmi.s 			page 19


 963 015b 2E000000 		.4byte	.LVL24
 964 015f 0100     		.2byte	0x1
 965 0161 53       		.byte	0x53
 966 0162 00000000 		.4byte	0x0
 967 0166 00000000 		.4byte	0x0
 968              	.LLST14:
 969 016a 00000000 		.4byte	.LFB67
 970 016e 02000000 		.4byte	.LCFI4
 971 0172 0200     		.2byte	0x2
 972 0174 7D       		.byte	0x7d
 973 0175 00       		.sleb128 0
 974 0176 02000000 		.4byte	.LCFI4
 975 017a 40000000 		.4byte	.LFE67
 976 017e 0200     		.2byte	0x2
 977 0180 7D       		.byte	0x7d
 978 0181 08       		.sleb128 8
 979 0182 00000000 		.4byte	0x0
 980 0186 00000000 		.4byte	0x0
 981              	.LLST15:
 982 018a 00000000 		.4byte	.LVL25
 983 018e 06000000 		.4byte	.LVL26
 984 0192 0100     		.2byte	0x1
 985 0194 50       		.byte	0x50
 986 0195 06000000 		.4byte	.LVL26
 987 0199 40000000 		.4byte	.LFE67
 988 019d 0100     		.2byte	0x1
 989 019f 54       		.byte	0x54
 990 01a0 00000000 		.4byte	0x0
 991 01a4 00000000 		.4byte	0x0
 992              	.LLST16:
 993 01a8 0C000000 		.4byte	.LVL28
 994 01ac 0F000000 		.4byte	.LVL29-1
 995 01b0 0100     		.2byte	0x1
 996 01b2 53       		.byte	0x53
 997 01b3 00000000 		.4byte	0x0
 998 01b7 00000000 		.4byte	0x0
 999              	.LLST17:
 1000 01bb 2C000000 		.4byte	.LVL31
 1001 01bf 2E000000 		.4byte	.LVL32
 1002 01c3 0100     		.2byte	0x1
 1003 01c5 53       		.byte	0x53
 1004 01c6 00000000 		.4byte	0x0
 1005 01ca 00000000 		.4byte	0x0
 1006              	.LLST18:
 1007 01ce 00000000 		.4byte	.LFB68
 1008 01d2 02000000 		.4byte	.LCFI5
 1009 01d6 0200     		.2byte	0x2
 1010 01d8 7D       		.byte	0x7d
 1011 01d9 00       		.sleb128 0
 1012 01da 02000000 		.4byte	.LCFI5
 1013 01de 58000000 		.4byte	.LFE68
 1014 01e2 0200     		.2byte	0x2
 1015 01e4 7D       		.byte	0x7d
 1016 01e5 10       		.sleb128 16
 1017 01e6 00000000 		.4byte	0x0
 1018 01ea 00000000 		.4byte	0x0
 1019              	.LLST19:
ARM GAS  C:\Users\z80\AppData\Local\Temp\ccQPbzmi.s 			page 20


 1020 01ee 00000000 		.4byte	.LVL33
 1021 01f2 18000000 		.4byte	.LVL34
 1022 01f6 0100     		.2byte	0x1
 1023 01f8 50       		.byte	0x50
 1024 01f9 18000000 		.4byte	.LVL34
 1025 01fd 58000000 		.4byte	.LFE68
 1026 0201 0100     		.2byte	0x1
 1027 0203 54       		.byte	0x54
 1028 0204 00000000 		.4byte	0x0
 1029 0208 00000000 		.4byte	0x0
 1030              	.LLST20:
 1031 020c 00000000 		.4byte	.LVL33
 1032 0210 18000000 		.4byte	.LVL34
 1033 0214 0100     		.2byte	0x1
 1034 0216 51       		.byte	0x51
 1035 0217 18000000 		.4byte	.LVL34
 1036 021b 58000000 		.4byte	.LFE68
 1037 021f 0100     		.2byte	0x1
 1038 0221 55       		.byte	0x55
 1039 0222 00000000 		.4byte	0x0
 1040 0226 00000000 		.4byte	0x0
 1041              	.LLST21:
 1042 022a 1E000000 		.4byte	.LVL36
 1043 022e 21000000 		.4byte	.LVL37-1
 1044 0232 0100     		.2byte	0x1
 1045 0234 53       		.byte	0x53
 1046 0235 00000000 		.4byte	0x0
 1047 0239 00000000 		.4byte	0x0
 1048              	.LLST22:
 1049 023d 44000000 		.4byte	.LVL39
 1050 0241 46000000 		.4byte	.LVL40
 1051 0245 0100     		.2byte	0x1
 1052 0247 53       		.byte	0x53
 1053 0248 00000000 		.4byte	0x0
 1054 024c 00000000 		.4byte	0x0
 1055              	.LLST23:
 1056 0250 00000000 		.4byte	.LFB69
 1057 0254 02000000 		.4byte	.LCFI6
 1058 0258 0200     		.2byte	0x2
 1059 025a 7D       		.byte	0x7d
 1060 025b 00       		.sleb128 0
 1061 025c 02000000 		.4byte	.LCFI6
 1062 0260 78000000 		.4byte	.LFE69
 1063 0264 0200     		.2byte	0x2
 1064 0266 7D       		.byte	0x7d
 1065 0267 18       		.sleb128 24
 1066 0268 00000000 		.4byte	0x0
 1067 026c 00000000 		.4byte	0x0
 1068              	.LLST24:
 1069 0270 00000000 		.4byte	.LVL41
 1070 0274 30000000 		.4byte	.LVL44
 1071 0278 0100     		.2byte	0x1
 1072 027a 50       		.byte	0x50
 1073 027b 30000000 		.4byte	.LVL44
 1074 027f 78000000 		.4byte	.LFE69
 1075 0283 0100     		.2byte	0x1
 1076 0285 54       		.byte	0x54
ARM GAS  C:\Users\z80\AppData\Local\Temp\ccQPbzmi.s 			page 21


 1077 0286 00000000 		.4byte	0x0
 1078 028a 00000000 		.4byte	0x0
 1079              	.LLST25:
 1080 028e 00000000 		.4byte	.LVL41
 1081 0292 0C000000 		.4byte	.LVL42
 1082 0296 0100     		.2byte	0x1
 1083 0298 51       		.byte	0x51
 1084 0299 0C000000 		.4byte	.LVL42
 1085 029d 78000000 		.4byte	.LFE69
 1086 02a1 0100     		.2byte	0x1
 1087 02a3 55       		.byte	0x55
 1088 02a4 00000000 		.4byte	0x0
 1089 02a8 00000000 		.4byte	0x0
 1090              	.LLST26:
 1091 02ac 00000000 		.4byte	.LVL41
 1092 02b0 30000000 		.4byte	.LVL44
 1093 02b4 0100     		.2byte	0x1
 1094 02b6 52       		.byte	0x52
 1095 02b7 30000000 		.4byte	.LVL44
 1096 02bb 78000000 		.4byte	.LFE69
 1097 02bf 0100     		.2byte	0x1
 1098 02c1 56       		.byte	0x56
 1099 02c2 00000000 		.4byte	0x0
 1100 02c6 00000000 		.4byte	0x0
 1101              	.LLST27:
 1102 02ca 00000000 		.4byte	.LVL41
 1103 02ce 26000000 		.4byte	.LVL43
 1104 02d2 0100     		.2byte	0x1
 1105 02d4 53       		.byte	0x53
 1106 02d5 26000000 		.4byte	.LVL43
 1107 02d9 78000000 		.4byte	.LFE69
 1108 02dd 0100     		.2byte	0x1
 1109 02df 57       		.byte	0x57
 1110 02e0 00000000 		.4byte	0x0
 1111 02e4 00000000 		.4byte	0x0
 1112              	.LLST28:
 1113 02e8 36000000 		.4byte	.LVL46
 1114 02ec 39000000 		.4byte	.LVL47-1
 1115 02f0 0100     		.2byte	0x1
 1116 02f2 53       		.byte	0x53
 1117 02f3 00000000 		.4byte	0x0
 1118 02f7 00000000 		.4byte	0x0
 1119              	.LLST29:
 1120 02fb 64000000 		.4byte	.LVL49
 1121 02ff 66000000 		.4byte	.LVL50
 1122 0303 0100     		.2byte	0x1
 1123 0305 53       		.byte	0x53
 1124 0306 00000000 		.4byte	0x0
 1125 030a 00000000 		.4byte	0x0
 1126              	.LLST30:
 1127 030e 00000000 		.4byte	.LFB70
 1128 0312 12000000 		.4byte	.LCFI7
 1129 0316 0200     		.2byte	0x2
 1130 0318 7D       		.byte	0x7d
 1131 0319 00       		.sleb128 0
 1132 031a 12000000 		.4byte	.LCFI7
 1133 031e 5C000000 		.4byte	.LFE70
ARM GAS  C:\Users\z80\AppData\Local\Temp\ccQPbzmi.s 			page 22


 1134 0322 0200     		.2byte	0x2
 1135 0324 7D       		.byte	0x7d
 1136 0325 10       		.sleb128 16
 1137 0326 00000000 		.4byte	0x0
 1138 032a 00000000 		.4byte	0x0
 1139              	.LLST31:
 1140 032e 00000000 		.4byte	.LVL51
 1141 0332 1C000000 		.4byte	.LVL52
 1142 0336 0100     		.2byte	0x1
 1143 0338 50       		.byte	0x50
 1144 0339 1C000000 		.4byte	.LVL52
 1145 033d 5C000000 		.4byte	.LFE70
 1146 0341 0100     		.2byte	0x1
 1147 0343 54       		.byte	0x54
 1148 0344 00000000 		.4byte	0x0
 1149 0348 00000000 		.4byte	0x0
 1150              	.LLST32:
 1151 034c 00000000 		.4byte	.LVL51
 1152 0350 1C000000 		.4byte	.LVL52
 1153 0354 0100     		.2byte	0x1
 1154 0356 51       		.byte	0x51
 1155 0357 1C000000 		.4byte	.LVL52
 1156 035b 5C000000 		.4byte	.LFE70
 1157 035f 0100     		.2byte	0x1
 1158 0361 55       		.byte	0x55
 1159 0362 00000000 		.4byte	0x0
 1160 0366 00000000 		.4byte	0x0
 1161              	.LLST33:
 1162 036a 00000000 		.4byte	.LVL51
 1163 036e 1C000000 		.4byte	.LVL52
 1164 0372 0100     		.2byte	0x1
 1165 0374 52       		.byte	0x52
 1166 0375 1C000000 		.4byte	.LVL52
 1167 0379 5C000000 		.4byte	.LFE70
 1168 037d 0100     		.2byte	0x1
 1169 037f 56       		.byte	0x56
 1170 0380 00000000 		.4byte	0x0
 1171 0384 00000000 		.4byte	0x0
 1172              	.LLST34:
 1173 0388 22000000 		.4byte	.LVL54
 1174 038c 25000000 		.4byte	.LVL55-1
 1175 0390 0100     		.2byte	0x1
 1176 0392 53       		.byte	0x53
 1177 0393 00000000 		.4byte	0x0
 1178 0397 00000000 		.4byte	0x0
 1179              	.LLST35:
 1180 039b 4A000000 		.4byte	.LVL57
 1181 039f 4C000000 		.4byte	.LVL58
 1182 03a3 0100     		.2byte	0x1
 1183 03a5 53       		.byte	0x53
 1184 03a6 00000000 		.4byte	0x0
 1185 03aa 00000000 		.4byte	0x0
 1186              	.LLST36:
 1187 03ae 00000000 		.4byte	.LFB71
 1188 03b2 12000000 		.4byte	.LCFI8
 1189 03b6 0200     		.2byte	0x2
 1190 03b8 7D       		.byte	0x7d
ARM GAS  C:\Users\z80\AppData\Local\Temp\ccQPbzmi.s 			page 23


 1191 03b9 00       		.sleb128 0
 1192 03ba 12000000 		.4byte	.LCFI8
 1193 03be 5C000000 		.4byte	.LFE71
 1194 03c2 0200     		.2byte	0x2
 1195 03c4 7D       		.byte	0x7d
 1196 03c5 10       		.sleb128 16
 1197 03c6 00000000 		.4byte	0x0
 1198 03ca 00000000 		.4byte	0x0
 1199              	.LLST37:
 1200 03ce 00000000 		.4byte	.LVL59
 1201 03d2 1C000000 		.4byte	.LVL60
 1202 03d6 0100     		.2byte	0x1
 1203 03d8 50       		.byte	0x50
 1204 03d9 1C000000 		.4byte	.LVL60
 1205 03dd 5C000000 		.4byte	.LFE71
 1206 03e1 0100     		.2byte	0x1
 1207 03e3 54       		.byte	0x54
 1208 03e4 00000000 		.4byte	0x0
 1209 03e8 00000000 		.4byte	0x0
 1210              	.LLST38:
 1211 03ec 00000000 		.4byte	.LVL59
 1212 03f0 1C000000 		.4byte	.LVL60
 1213 03f4 0100     		.2byte	0x1
 1214 03f6 51       		.byte	0x51
 1215 03f7 1C000000 		.4byte	.LVL60
 1216 03fb 5C000000 		.4byte	.LFE71
 1217 03ff 0100     		.2byte	0x1
 1218 0401 55       		.byte	0x55
 1219 0402 00000000 		.4byte	0x0
 1220 0406 00000000 		.4byte	0x0
 1221              	.LLST39:
 1222 040a 00000000 		.4byte	.LVL59
 1223 040e 1C000000 		.4byte	.LVL60
 1224 0412 0100     		.2byte	0x1
 1225 0414 52       		.byte	0x52
 1226 0415 1C000000 		.4byte	.LVL60
 1227 0419 5C000000 		.4byte	.LFE71
 1228 041d 0100     		.2byte	0x1
 1229 041f 56       		.byte	0x56
 1230 0420 00000000 		.4byte	0x0
 1231 0424 00000000 		.4byte	0x0
 1232              	.LLST40:
 1233 0428 22000000 		.4byte	.LVL62
 1234 042c 25000000 		.4byte	.LVL63-1
 1235 0430 0100     		.2byte	0x1
 1236 0432 53       		.byte	0x53
 1237 0433 00000000 		.4byte	0x0
 1238 0437 00000000 		.4byte	0x0
 1239              	.LLST41:
 1240 043b 4A000000 		.4byte	.LVL65
 1241 043f 4C000000 		.4byte	.LVL66
 1242 0443 0100     		.2byte	0x1
 1243 0445 53       		.byte	0x53
 1244 0446 00000000 		.4byte	0x0
 1245 044a 00000000 		.4byte	0x0
 1246              		.file 2 "c:\\programs\\yagarto\\bin\\../lib/gcc/arm-none-eabi/4.5.0/include/stddef.h"
 1247              		.file 3 "c:/programs/yagarto/lib/gcc/../../arm-none-eabi/sys-include/stdint.h"
ARM GAS  C:\Users\z80\AppData\Local\Temp\ccQPbzmi.s 			page 24


 1248              		.file 4 "../chibios_2.4.x/os/hal/platforms/STM32F1xx/stm32f10x.h"
 1249              		.file 5 "../chibios_2.4.x/os/hal/platforms/STM32F1xx/stm32_dma.h"
 1250              		.file 6 "../chibios_2.4.x/os/hal/platforms/STM32/GPIOv1/pal_lld.h"
 1251              		.file 7 "../chibios_2.4.x/os/hal/include/spi.h"
 1252              		.file 8 "../chibios_2.4.x/os/hal/platforms/STM32/spi_lld.h"
 1253              		.file 9 "../chibios_2.4.x/os/ports/common/ARMCMx/CMSIS/include/core_cm3.h"
 1254              		.section	.debug_info
 1255 0000 4A080000 		.4byte	0x84a
 1256 0004 0200     		.2byte	0x2
 1257 0006 00000000 		.4byte	.Ldebug_abbrev0
 1258 000a 04       		.byte	0x4
 1259 000b 01       		.uleb128 0x1
 1260 000c D8020000 		.4byte	.LASF75
 1261 0010 01       		.byte	0x1
 1262 0011 D6000000 		.4byte	.LASF76
 1263 0015 AB020000 		.4byte	.LASF77
 1264 0019 00000000 		.4byte	0x0
 1265 001d 00000000 		.4byte	0x0
 1266 0021 00000000 		.4byte	.Ldebug_ranges0+0x0
 1267 0025 00000000 		.4byte	.Ldebug_line0
 1268 0029 02       		.uleb128 0x2
 1269 002a 04       		.byte	0x4
 1270 002b 05       		.byte	0x5
 1271 002c 696E7400 		.ascii	"int\000"
 1272 0030 03       		.uleb128 0x3
 1273 0031 36000000 		.4byte	.LASF2
 1274 0035 02       		.byte	0x2
 1275 0036 D3       		.byte	0xd3
 1276 0037 3B000000 		.4byte	0x3b
 1277 003b 04       		.uleb128 0x4
 1278 003c 04       		.byte	0x4
 1279 003d 07       		.byte	0x7
 1280 003e 83010000 		.4byte	.LASF0
 1281 0042 04       		.uleb128 0x4
 1282 0043 01       		.byte	0x1
 1283 0044 06       		.byte	0x6
 1284 0045 98000000 		.4byte	.LASF1
 1285 0049 03       		.uleb128 0x3
 1286 004a 7F000000 		.4byte	.LASF3
 1287 004e 03       		.byte	0x3
 1288 004f 2A       		.byte	0x2a
 1289 0050 54000000 		.4byte	0x54
 1290 0054 04       		.uleb128 0x4
 1291 0055 01       		.byte	0x1
 1292 0056 08       		.byte	0x8
 1293 0057 2E010000 		.4byte	.LASF4
 1294 005b 04       		.uleb128 0x4
 1295 005c 02       		.byte	0x2
 1296 005d 05       		.byte	0x5
 1297 005e 2C000000 		.4byte	.LASF5
 1298 0062 03       		.uleb128 0x3
 1299 0063 05020000 		.4byte	.LASF6
 1300 0067 03       		.byte	0x3
 1301 0068 36       		.byte	0x36
 1302 0069 6D000000 		.4byte	0x6d
 1303 006d 04       		.uleb128 0x4
 1304 006e 02       		.byte	0x2
ARM GAS  C:\Users\z80\AppData\Local\Temp\ccQPbzmi.s 			page 25


 1305 006f 07       		.byte	0x7
 1306 0070 04030000 		.4byte	.LASF7
 1307 0074 03       		.uleb128 0x3
 1308 0075 0E020000 		.4byte	.LASF8
 1309 0079 03       		.byte	0x3
 1310 007a 4F       		.byte	0x4f
 1311 007b 7F000000 		.4byte	0x7f
 1312 007f 04       		.uleb128 0x4
 1313 0080 04       		.byte	0x4
 1314 0081 05       		.byte	0x5
 1315 0082 CD000000 		.4byte	.LASF9
 1316 0086 03       		.uleb128 0x3
 1317 0087 70010000 		.4byte	.LASF10
 1318 008b 03       		.byte	0x3
 1319 008c 50       		.byte	0x50
 1320 008d 91000000 		.4byte	0x91
 1321 0091 04       		.uleb128 0x4
 1322 0092 04       		.byte	0x4
 1323 0093 07       		.byte	0x7
 1324 0094 9B010000 		.4byte	.LASF11
 1325 0098 04       		.uleb128 0x4
 1326 0099 08       		.byte	0x8
 1327 009a 05       		.byte	0x5
 1328 009b AE000000 		.4byte	.LASF12
 1329 009f 04       		.uleb128 0x4
 1330 00a0 08       		.byte	0x8
 1331 00a1 07       		.byte	0x7
 1332 00a2 59010000 		.4byte	.LASF13
 1333 00a6 05       		.uleb128 0x5
 1334 00a7 04       		.byte	0x4
 1335 00a8 06       		.uleb128 0x6
 1336 00a9 86000000 		.4byte	0x86
 1337 00ad 07       		.uleb128 0x7
 1338 00ae 04       		.byte	0x4
 1339 00af 07       		.byte	0x7
 1340 00b0 04       		.uleb128 0x4
 1341 00b1 01       		.byte	0x1
 1342 00b2 08       		.byte	0x8
 1343 00b3 00020000 		.4byte	.LASF14
 1344 00b7 06       		.uleb128 0x6
 1345 00b8 62000000 		.4byte	0x62
 1346 00bc 06       		.uleb128 0x6
 1347 00bd 74000000 		.4byte	0x74
 1348 00c1 08       		.uleb128 0x8
 1349 00c2 10       		.byte	0x10
 1350 00c3 04       		.byte	0x4
 1351 00c4 2D03     		.2byte	0x32d
 1352 00c6 07010000 		.4byte	0x107
 1353 00ca 09       		.uleb128 0x9
 1354 00cb 43435200 		.ascii	"CCR\000"
 1355 00cf 04       		.byte	0x4
 1356 00d0 2F03     		.2byte	0x32f
 1357 00d2 A8000000 		.4byte	0xa8
 1358 00d6 02       		.byte	0x2
 1359 00d7 23       		.byte	0x23
 1360 00d8 00       		.uleb128 0x0
 1361 00d9 0A       		.uleb128 0xa
ARM GAS  C:\Users\z80\AppData\Local\Temp\ccQPbzmi.s 			page 26


 1362 00da FA010000 		.4byte	.LASF15
 1363 00de 04       		.byte	0x4
 1364 00df 3003     		.2byte	0x330
 1365 00e1 A8000000 		.4byte	0xa8
 1366 00e5 02       		.byte	0x2
 1367 00e6 23       		.byte	0x23
 1368 00e7 04       		.uleb128 0x4
 1369 00e8 0A       		.uleb128 0xa
 1370 00e9 10010000 		.4byte	.LASF16
 1371 00ed 04       		.byte	0x4
 1372 00ee 3103     		.2byte	0x331
 1373 00f0 A8000000 		.4byte	0xa8
 1374 00f4 02       		.byte	0x2
 1375 00f5 23       		.byte	0x23
 1376 00f6 08       		.uleb128 0x8
 1377 00f7 0A       		.uleb128 0xa
 1378 00f8 E4020000 		.4byte	.LASF17
 1379 00fc 04       		.byte	0x4
 1380 00fd 3203     		.2byte	0x332
 1381 00ff A8000000 		.4byte	0xa8
 1382 0103 02       		.byte	0x2
 1383 0104 23       		.byte	0x23
 1384 0105 0C       		.uleb128 0xc
 1385 0106 00       		.byte	0x0
 1386 0107 0B       		.uleb128 0xb
 1387 0108 CB010000 		.4byte	.LASF18
 1388 010c 04       		.byte	0x4
 1389 010d 3303     		.2byte	0x333
 1390 010f C1000000 		.4byte	0xc1
 1391 0113 08       		.uleb128 0x8
 1392 0114 1C       		.byte	0x1c
 1393 0115 04       		.byte	0x4
 1394 0116 F803     		.2byte	0x3f8
 1395 0118 86010000 		.4byte	0x186
 1396 011c 09       		.uleb128 0x9
 1397 011d 43524C00 		.ascii	"CRL\000"
 1398 0121 04       		.byte	0x4
 1399 0122 FA03     		.2byte	0x3fa
 1400 0124 A8000000 		.4byte	0xa8
 1401 0128 02       		.byte	0x2
 1402 0129 23       		.byte	0x23
 1403 012a 00       		.uleb128 0x0
 1404 012b 09       		.uleb128 0x9
 1405 012c 43524800 		.ascii	"CRH\000"
 1406 0130 04       		.byte	0x4
 1407 0131 FB03     		.2byte	0x3fb
 1408 0133 A8000000 		.4byte	0xa8
 1409 0137 02       		.byte	0x2
 1410 0138 23       		.byte	0x23
 1411 0139 04       		.uleb128 0x4
 1412 013a 09       		.uleb128 0x9
 1413 013b 49445200 		.ascii	"IDR\000"
 1414 013f 04       		.byte	0x4
 1415 0140 FC03     		.2byte	0x3fc
 1416 0142 A8000000 		.4byte	0xa8
 1417 0146 02       		.byte	0x2
 1418 0147 23       		.byte	0x23
ARM GAS  C:\Users\z80\AppData\Local\Temp\ccQPbzmi.s 			page 27


 1419 0148 08       		.uleb128 0x8
 1420 0149 09       		.uleb128 0x9
 1421 014a 4F445200 		.ascii	"ODR\000"
 1422 014e 04       		.byte	0x4
 1423 014f FD03     		.2byte	0x3fd
 1424 0151 A8000000 		.4byte	0xa8
 1425 0155 02       		.byte	0x2
 1426 0156 23       		.byte	0x23
 1427 0157 0C       		.uleb128 0xc
 1428 0158 0A       		.uleb128 0xa
 1429 0159 4A030000 		.4byte	.LASF19
 1430 015d 04       		.byte	0x4
 1431 015e FE03     		.2byte	0x3fe
 1432 0160 A8000000 		.4byte	0xa8
 1433 0164 02       		.byte	0x2
 1434 0165 23       		.byte	0x23
 1435 0166 10       		.uleb128 0x10
 1436 0167 09       		.uleb128 0x9
 1437 0168 42525200 		.ascii	"BRR\000"
 1438 016c 04       		.byte	0x4
 1439 016d FF03     		.2byte	0x3ff
 1440 016f A8000000 		.4byte	0xa8
 1441 0173 02       		.byte	0x2
 1442 0174 23       		.byte	0x23
 1443 0175 14       		.uleb128 0x14
 1444 0176 0A       		.uleb128 0xa
 1445 0177 45030000 		.4byte	.LASF20
 1446 017b 04       		.byte	0x4
 1447 017c 0004     		.2byte	0x400
 1448 017e A8000000 		.4byte	0xa8
 1449 0182 02       		.byte	0x2
 1450 0183 23       		.byte	0x23
 1451 0184 18       		.uleb128 0x18
 1452 0185 00       		.byte	0x0
 1453 0186 0B       		.uleb128 0xb
 1454 0187 00000000 		.4byte	.LASF21
 1455 018b 04       		.byte	0x4
 1456 018c 0104     		.2byte	0x401
 1457 018e 13010000 		.4byte	0x113
 1458 0192 08       		.uleb128 0x8
 1459 0193 24       		.byte	0x24
 1460 0194 04       		.byte	0x4
 1461 0195 9704     		.2byte	0x497
 1462 0197 A8020000 		.4byte	0x2a8
 1463 019b 09       		.uleb128 0x9
 1464 019c 43523100 		.ascii	"CR1\000"
 1465 01a0 04       		.byte	0x4
 1466 01a1 9904     		.2byte	0x499
 1467 01a3 B7000000 		.4byte	0xb7
 1468 01a7 02       		.byte	0x2
 1469 01a8 23       		.byte	0x23
 1470 01a9 00       		.uleb128 0x0
 1471 01aa 0A       		.uleb128 0xa
 1472 01ab 51020000 		.4byte	.LASF22
 1473 01af 04       		.byte	0x4
 1474 01b0 9A04     		.2byte	0x49a
 1475 01b2 62000000 		.4byte	0x62
ARM GAS  C:\Users\z80\AppData\Local\Temp\ccQPbzmi.s 			page 28


 1476 01b6 02       		.byte	0x2
 1477 01b7 23       		.byte	0x23
 1478 01b8 02       		.uleb128 0x2
 1479 01b9 09       		.uleb128 0x9
 1480 01ba 43523200 		.ascii	"CR2\000"
 1481 01be 04       		.byte	0x4
 1482 01bf 9B04     		.2byte	0x49b
 1483 01c1 B7000000 		.4byte	0xb7
 1484 01c5 02       		.byte	0x2
 1485 01c6 23       		.byte	0x23
 1486 01c7 04       		.uleb128 0x4
 1487 01c8 0A       		.uleb128 0xa
 1488 01c9 5B020000 		.4byte	.LASF23
 1489 01cd 04       		.byte	0x4
 1490 01ce 9C04     		.2byte	0x49c
 1491 01d0 62000000 		.4byte	0x62
 1492 01d4 02       		.byte	0x2
 1493 01d5 23       		.byte	0x23
 1494 01d6 06       		.uleb128 0x6
 1495 01d7 09       		.uleb128 0x9
 1496 01d8 535200   		.ascii	"SR\000"
 1497 01db 04       		.byte	0x4
 1498 01dc 9D04     		.2byte	0x49d
 1499 01de B7000000 		.4byte	0xb7
 1500 01e2 02       		.byte	0x2
 1501 01e3 23       		.byte	0x23
 1502 01e4 08       		.uleb128 0x8
 1503 01e5 0A       		.uleb128 0xa
 1504 01e6 65020000 		.4byte	.LASF24
 1505 01ea 04       		.byte	0x4
 1506 01eb 9E04     		.2byte	0x49e
 1507 01ed 62000000 		.4byte	0x62
 1508 01f1 02       		.byte	0x2
 1509 01f2 23       		.byte	0x23
 1510 01f3 0A       		.uleb128 0xa
 1511 01f4 09       		.uleb128 0x9
 1512 01f5 445200   		.ascii	"DR\000"
 1513 01f8 04       		.byte	0x4
 1514 01f9 9F04     		.2byte	0x49f
 1515 01fb B7000000 		.4byte	0xb7
 1516 01ff 02       		.byte	0x2
 1517 0200 23       		.byte	0x23
 1518 0201 0C       		.uleb128 0xc
 1519 0202 0A       		.uleb128 0xa
 1520 0203 6F020000 		.4byte	.LASF25
 1521 0207 04       		.byte	0x4
 1522 0208 A004     		.2byte	0x4a0
 1523 020a 62000000 		.4byte	0x62
 1524 020e 02       		.byte	0x2
 1525 020f 23       		.byte	0x23
 1526 0210 0E       		.uleb128 0xe
 1527 0211 0A       		.uleb128 0xa
 1528 0212 4B020000 		.4byte	.LASF26
 1529 0216 04       		.byte	0x4
 1530 0217 A104     		.2byte	0x4a1
 1531 0219 B7000000 		.4byte	0xb7
 1532 021d 02       		.byte	0x2
ARM GAS  C:\Users\z80\AppData\Local\Temp\ccQPbzmi.s 			page 29


 1533 021e 23       		.byte	0x23
 1534 021f 10       		.uleb128 0x10
 1535 0220 0A       		.uleb128 0xa
 1536 0221 79020000 		.4byte	.LASF27
 1537 0225 04       		.byte	0x4
 1538 0226 A204     		.2byte	0x4a2
 1539 0228 62000000 		.4byte	0x62
 1540 022c 02       		.byte	0x2
 1541 022d 23       		.byte	0x23
 1542 022e 12       		.uleb128 0x12
 1543 022f 0A       		.uleb128 0xa
 1544 0230 5B000000 		.4byte	.LASF28
 1545 0234 04       		.byte	0x4
 1546 0235 A304     		.2byte	0x4a3
 1547 0237 B7000000 		.4byte	0xb7
 1548 023b 02       		.byte	0x2
 1549 023c 23       		.byte	0x23
 1550 023d 14       		.uleb128 0x14
 1551 023e 0A       		.uleb128 0xa
 1552 023f 83020000 		.4byte	.LASF29
 1553 0243 04       		.byte	0x4
 1554 0244 A404     		.2byte	0x4a4
 1555 0246 62000000 		.4byte	0x62
 1556 024a 02       		.byte	0x2
 1557 024b 23       		.byte	0x23
 1558 024c 16       		.uleb128 0x16
 1559 024d 0A       		.uleb128 0xa
 1560 024e 4D000000 		.4byte	.LASF30
 1561 0252 04       		.byte	0x4
 1562 0253 A504     		.2byte	0x4a5
 1563 0255 B7000000 		.4byte	0xb7
 1564 0259 02       		.byte	0x2
 1565 025a 23       		.byte	0x23
 1566 025b 18       		.uleb128 0x18
 1567 025c 0A       		.uleb128 0xa
 1568 025d 8D020000 		.4byte	.LASF31
 1569 0261 04       		.byte	0x4
 1570 0262 A604     		.2byte	0x4a6
 1571 0264 62000000 		.4byte	0x62
 1572 0268 02       		.byte	0x2
 1573 0269 23       		.byte	0x23
 1574 026a 1A       		.uleb128 0x1a
 1575 026b 0A       		.uleb128 0xa
 1576 026c 45000000 		.4byte	.LASF32
 1577 0270 04       		.byte	0x4
 1578 0271 A704     		.2byte	0x4a7
 1579 0273 B7000000 		.4byte	0xb7
 1580 0277 02       		.byte	0x2
 1581 0278 23       		.byte	0x23
 1582 0279 1C       		.uleb128 0x1c
 1583 027a 0A       		.uleb128 0xa
 1584 027b 97020000 		.4byte	.LASF33
 1585 027f 04       		.byte	0x4
 1586 0280 A804     		.2byte	0x4a8
 1587 0282 62000000 		.4byte	0x62
 1588 0286 02       		.byte	0x2
 1589 0287 23       		.byte	0x23
ARM GAS  C:\Users\z80\AppData\Local\Temp\ccQPbzmi.s 			page 30


 1590 0288 1E       		.uleb128 0x1e
 1591 0289 0A       		.uleb128 0xa
 1592 028a 3F030000 		.4byte	.LASF34
 1593 028e 04       		.byte	0x4
 1594 028f A904     		.2byte	0x4a9
 1595 0291 B7000000 		.4byte	0xb7
 1596 0295 02       		.byte	0x2
 1597 0296 23       		.byte	0x23
 1598 0297 20       		.uleb128 0x20
 1599 0298 0A       		.uleb128 0xa
 1600 0299 A1020000 		.4byte	.LASF35
 1601 029d 04       		.byte	0x4
 1602 029e AA04     		.2byte	0x4aa
 1603 02a0 62000000 		.4byte	0x62
 1604 02a4 02       		.byte	0x2
 1605 02a5 23       		.byte	0x23
 1606 02a6 22       		.uleb128 0x22
 1607 02a7 00       		.byte	0x0
 1608 02a8 0B       		.uleb128 0xb
 1609 02a9 3C010000 		.4byte	.LASF36
 1610 02ad 04       		.byte	0x4
 1611 02ae AB04     		.2byte	0x4ab
 1612 02b0 92010000 		.4byte	0x192
 1613 02b4 0C       		.uleb128 0xc
 1614 02b5 0C       		.byte	0xc
 1615 02b6 05       		.byte	0x5
 1616 02b7 C2       		.byte	0xc2
 1617 02b8 03030000 		.4byte	0x303
 1618 02bc 0D       		.uleb128 0xd
 1619 02bd 43020000 		.4byte	.LASF37
 1620 02c1 05       		.byte	0x5
 1621 02c2 C3       		.byte	0xc3
 1622 02c3 03030000 		.4byte	0x303
 1623 02c7 02       		.byte	0x2
 1624 02c8 23       		.byte	0x23
 1625 02c9 00       		.uleb128 0x0
 1626 02ca 0D       		.uleb128 0xd
 1627 02cb 15010000 		.4byte	.LASF38
 1628 02cf 05       		.byte	0x5
 1629 02d0 C4       		.byte	0xc4
 1630 02d1 09030000 		.4byte	0x309
 1631 02d5 02       		.byte	0x2
 1632 02d6 23       		.byte	0x23
 1633 02d7 04       		.uleb128 0x4
 1634 02d8 0D       		.uleb128 0xd
 1635 02d9 1D030000 		.4byte	.LASF39
 1636 02dd 05       		.byte	0x5
 1637 02de C5       		.byte	0xc5
 1638 02df 49000000 		.4byte	0x49
 1639 02e3 02       		.byte	0x2
 1640 02e4 23       		.byte	0x23
 1641 02e5 08       		.uleb128 0x8
 1642 02e6 0D       		.uleb128 0xd
 1643 02e7 79010000 		.4byte	.LASF40
 1644 02eb 05       		.byte	0x5
 1645 02ec C7       		.byte	0xc7
 1646 02ed 49000000 		.4byte	0x49
ARM GAS  C:\Users\z80\AppData\Local\Temp\ccQPbzmi.s 			page 31


 1647 02f1 02       		.byte	0x2
 1648 02f2 23       		.byte	0x23
 1649 02f3 09       		.uleb128 0x9
 1650 02f4 0D       		.uleb128 0xd
 1651 02f5 91000000 		.4byte	.LASF41
 1652 02f9 05       		.byte	0x5
 1653 02fa C8       		.byte	0xc8
 1654 02fb 49000000 		.4byte	0x49
 1655 02ff 02       		.byte	0x2
 1656 0300 23       		.byte	0x23
 1657 0301 0A       		.uleb128 0xa
 1658 0302 00       		.byte	0x0
 1659 0303 0E       		.uleb128 0xe
 1660 0304 04       		.byte	0x4
 1661 0305 07010000 		.4byte	0x107
 1662 0309 0E       		.uleb128 0xe
 1663 030a 04       		.byte	0x4
 1664 030b A8000000 		.4byte	0xa8
 1665 030f 03       		.uleb128 0x3
 1666 0310 6C000000 		.4byte	.LASF42
 1667 0314 05       		.byte	0x5
 1668 0315 C9       		.byte	0xc9
 1669 0316 B4020000 		.4byte	0x2b4
 1670 031a 03       		.uleb128 0x3
 1671 031b 1A010000 		.4byte	.LASF43
 1672 031f 06       		.byte	0x6
 1673 0320 85       		.byte	0x85
 1674 0321 25030000 		.4byte	0x325
 1675 0325 0E       		.uleb128 0xe
 1676 0326 04       		.byte	0x4
 1677 0327 86010000 		.4byte	0x186
 1678 032b 0F       		.uleb128 0xf
 1679 032c 01       		.byte	0x1
 1680 032d 07       		.byte	0x7
 1681 032e 55       		.byte	0x55
 1682 032f 52030000 		.4byte	0x352
 1683 0333 10       		.uleb128 0x10
 1684 0334 90010000 		.4byte	.LASF44
 1685 0338 00       		.sleb128 0
 1686 0339 10       		.uleb128 0x10
 1687 033a C2010000 		.4byte	.LASF45
 1688 033e 01       		.sleb128 1
 1689 033f 10       		.uleb128 0x10
 1690 0340 16020000 		.4byte	.LASF46
 1691 0344 02       		.sleb128 2
 1692 0345 10       		.uleb128 0x10
 1693 0346 2E020000 		.4byte	.LASF47
 1694 034a 03       		.sleb128 3
 1695 034b 10       		.uleb128 0x10
 1696 034c ED010000 		.4byte	.LASF48
 1697 0350 04       		.sleb128 4
 1698 0351 00       		.byte	0x0
 1699 0352 03       		.uleb128 0x3
 1700 0353 F9020000 		.4byte	.LASF49
 1701 0357 07       		.byte	0x7
 1702 0358 5B       		.byte	0x5b
 1703 0359 2B030000 		.4byte	0x32b
ARM GAS  C:\Users\z80\AppData\Local\Temp\ccQPbzmi.s 			page 32


 1704 035d 0B       		.uleb128 0xb
 1705 035e 39020000 		.4byte	.LASF50
 1706 0362 08       		.byte	0x8
 1707 0363 0701     		.2byte	0x107
 1708 0365 69030000 		.4byte	0x369
 1709 0369 11       		.uleb128 0x11
 1710 036a 39020000 		.4byte	.LASF50
 1711 036e 1C       		.byte	0x1c
 1712 036f 08       		.byte	0x8
 1713 0370 2B01     		.2byte	0x12b
 1714 0372 E0030000 		.4byte	0x3e0
 1715 0376 0A       		.uleb128 0xa
 1716 0377 26000000 		.4byte	.LASF51
 1717 037b 08       		.byte	0x8
 1718 037c 2F01     		.2byte	0x12f
 1719 037e 52030000 		.4byte	0x352
 1720 0382 02       		.byte	0x2
 1721 0383 23       		.byte	0x23
 1722 0384 00       		.uleb128 0x0
 1723 0385 0A       		.uleb128 0xa
 1724 0386 54000000 		.4byte	.LASF52
 1725 038a 08       		.byte	0x8
 1726 038b 3301     		.2byte	0x133
 1727 038d 56040000 		.4byte	0x456
 1728 0391 02       		.byte	0x2
 1729 0392 23       		.byte	0x23
 1730 0393 04       		.uleb128 0x4
 1731 0394 09       		.uleb128 0x9
 1732 0395 73706900 		.ascii	"spi\000"
 1733 0399 08       		.byte	0x8
 1734 039a 4B01     		.2byte	0x14b
 1735 039c 61040000 		.4byte	0x461
 1736 03a0 02       		.byte	0x2
 1737 03a1 23       		.byte	0x23
 1738 03a2 08       		.uleb128 0x8
 1739 03a3 0A       		.uleb128 0xa
 1740 03a4 20000000 		.4byte	.LASF53
 1741 03a8 08       		.byte	0x8
 1742 03a9 4F01     		.2byte	0x14f
 1743 03ab 67040000 		.4byte	0x467
 1744 03af 02       		.byte	0x2
 1745 03b0 23       		.byte	0x23
 1746 03b1 0C       		.uleb128 0xc
 1747 03b2 0A       		.uleb128 0xa
 1748 03b3 AD010000 		.4byte	.LASF54
 1749 03b7 08       		.byte	0x8
 1750 03b8 5301     		.2byte	0x153
 1751 03ba 67040000 		.4byte	0x467
 1752 03be 02       		.byte	0x2
 1753 03bf 23       		.byte	0x23
 1754 03c0 10       		.uleb128 0x10
 1755 03c1 0A       		.uleb128 0xa
 1756 03c2 06010000 		.4byte	.LASF55
 1757 03c6 08       		.byte	0x8
 1758 03c7 5701     		.2byte	0x157
 1759 03c9 86000000 		.4byte	0x86
 1760 03cd 02       		.byte	0x2
ARM GAS  C:\Users\z80\AppData\Local\Temp\ccQPbzmi.s 			page 33


 1761 03ce 23       		.byte	0x23
 1762 03cf 14       		.uleb128 0x14
 1763 03d0 0A       		.uleb128 0xa
 1764 03d1 62000000 		.4byte	.LASF56
 1765 03d5 08       		.byte	0x8
 1766 03d6 5B01     		.2byte	0x15b
 1767 03d8 86000000 		.4byte	0x86
 1768 03dc 02       		.byte	0x2
 1769 03dd 23       		.byte	0x23
 1770 03de 18       		.uleb128 0x18
 1771 03df 00       		.byte	0x0
 1772 03e0 0B       		.uleb128 0xb
 1773 03e1 F8000000 		.4byte	.LASF57
 1774 03e5 08       		.byte	0x8
 1775 03e6 0F01     		.2byte	0x10f
 1776 03e8 EC030000 		.4byte	0x3ec
 1777 03ec 0E       		.uleb128 0xe
 1778 03ed 04       		.byte	0x4
 1779 03ee F2030000 		.4byte	0x3f2
 1780 03f2 12       		.uleb128 0x12
 1781 03f3 01       		.byte	0x1
 1782 03f4 FE030000 		.4byte	0x3fe
 1783 03f8 13       		.uleb128 0x13
 1784 03f9 FE030000 		.4byte	0x3fe
 1785 03fd 00       		.byte	0x0
 1786 03fe 0E       		.uleb128 0xe
 1787 03ff 04       		.byte	0x4
 1788 0400 5D030000 		.4byte	0x35d
 1789 0404 08       		.uleb128 0x8
 1790 0405 0C       		.byte	0xc
 1791 0406 08       		.byte	0x8
 1792 0407 1401     		.2byte	0x114
 1793 0409 4A040000 		.4byte	0x44a
 1794 040d 0A       		.uleb128 0xa
 1795 040e 38030000 		.4byte	.LASF58
 1796 0412 08       		.byte	0x8
 1797 0413 1801     		.2byte	0x118
 1798 0415 E0030000 		.4byte	0x3e0
 1799 0419 02       		.byte	0x2
 1800 041a 23       		.byte	0x23
 1801 041b 00       		.uleb128 0x0
 1802 041c 0A       		.uleb128 0xa
 1803 041d 31030000 		.4byte	.LASF59
 1804 0421 08       		.byte	0x8
 1805 0422 1D01     		.2byte	0x11d
 1806 0424 1A030000 		.4byte	0x31a
 1807 0428 02       		.byte	0x2
 1808 0429 23       		.byte	0x23
 1809 042a 04       		.uleb128 0x4
 1810 042b 0A       		.uleb128 0xa
 1811 042c 0D000000 		.4byte	.LASF60
 1812 0430 08       		.byte	0x8
 1813 0431 2101     		.2byte	0x121
 1814 0433 62000000 		.4byte	0x62
 1815 0437 02       		.byte	0x2
 1816 0438 23       		.byte	0x23
 1817 0439 08       		.uleb128 0x8
ARM GAS  C:\Users\z80\AppData\Local\Temp\ccQPbzmi.s 			page 34


 1818 043a 09       		.uleb128 0x9
 1819 043b 63723100 		.ascii	"cr1\000"
 1820 043f 08       		.byte	0x8
 1821 0440 2501     		.2byte	0x125
 1822 0442 62000000 		.4byte	0x62
 1823 0446 02       		.byte	0x2
 1824 0447 23       		.byte	0x23
 1825 0448 0A       		.uleb128 0xa
 1826 0449 00       		.byte	0x0
 1827 044a 0B       		.uleb128 0xb
 1828 044b A4000000 		.4byte	.LASF61
 1829 044f 08       		.byte	0x8
 1830 0450 2601     		.2byte	0x126
 1831 0452 04040000 		.4byte	0x404
 1832 0456 0E       		.uleb128 0xe
 1833 0457 04       		.byte	0x4
 1834 0458 5C040000 		.4byte	0x45c
 1835 045c 14       		.uleb128 0x14
 1836 045d 4A040000 		.4byte	0x44a
 1837 0461 0E       		.uleb128 0xe
 1838 0462 04       		.byte	0x4
 1839 0463 A8020000 		.4byte	0x2a8
 1840 0467 0E       		.uleb128 0xe
 1841 0468 04       		.byte	0x4
 1842 0469 6D040000 		.4byte	0x46d
 1843 046d 14       		.uleb128 0x14
 1844 046e 0F030000 		.4byte	0x30f
 1845 0472 15       		.uleb128 0x15
 1846 0473 01       		.byte	0x1
 1847 0474 3D000000 		.4byte	.LASF78
 1848 0478 01       		.byte	0x1
 1849 0479 44       		.byte	0x44
 1850 047a 01       		.byte	0x1
 1851 047b 00000000 		.4byte	.LFB62
 1852 047f 08000000 		.4byte	.LFE62
 1853 0483 00000000 		.4byte	.LLST0
 1854 0487 16       		.uleb128 0x16
 1855 0488 01       		.byte	0x1
 1856 0489 20020000 		.4byte	.LASF62
 1857 048d 01       		.byte	0x1
 1858 048e 50       		.byte	0x50
 1859 048f 01       		.byte	0x1
 1860 0490 00000000 		.4byte	.LFB63
 1861 0494 0A000000 		.4byte	.LFE63
 1862 0498 02       		.byte	0x2
 1863 0499 7D       		.byte	0x7d
 1864 049a 00       		.sleb128 0
 1865 049b AD040000 		.4byte	0x4ad
 1866 049f 17       		.uleb128 0x17
 1867 04a0 48010000 		.4byte	.LASF64
 1868 04a4 01       		.byte	0x1
 1869 04a5 50       		.byte	0x50
 1870 04a6 FE030000 		.4byte	0x3fe
 1871 04aa 01       		.byte	0x1
 1872 04ab 50       		.byte	0x50
 1873 04ac 00       		.byte	0x0
 1874 04ad 18       		.uleb128 0x18
ARM GAS  C:\Users\z80\AppData\Local\Temp\ccQPbzmi.s 			page 35


 1875 04ae 01       		.byte	0x1
 1876 04af 25010000 		.4byte	.LASF63
 1877 04b3 01       		.byte	0x1
 1878 04b4 6B       		.byte	0x6b
 1879 04b5 01       		.byte	0x1
 1880 04b6 00000000 		.4byte	.LFB64
 1881 04ba 5C000000 		.4byte	.LFE64
 1882 04be 20000000 		.4byte	.LLST1
 1883 04c2 1B050000 		.4byte	0x51b
 1884 04c6 19       		.uleb128 0x19
 1885 04c7 48010000 		.4byte	.LASF64
 1886 04cb 01       		.byte	0x1
 1887 04cc 6B       		.byte	0x6b
 1888 04cd FE030000 		.4byte	0x3fe
 1889 04d1 40000000 		.4byte	.LLST2
 1890 04d5 19       		.uleb128 0x19
 1891 04d6 54000000 		.4byte	.LASF52
 1892 04da 01       		.byte	0x1
 1893 04db 6B       		.byte	0x6b
 1894 04dc 56040000 		.4byte	0x456
 1895 04e0 5E000000 		.4byte	.LLST3
 1896 04e4 1A       		.uleb128 0x1a
 1897 04e5 18000000 		.4byte	.LBB2
 1898 04e9 1E000000 		.4byte	.LBE2
 1899 04ed 01050000 		.4byte	0x501
 1900 04f1 1B       		.uleb128 0x1b
 1901 04f2 746D7000 		.ascii	"tmp\000"
 1902 04f6 01       		.byte	0x1
 1903 04f7 6F       		.byte	0x6f
 1904 04f8 86000000 		.4byte	0x86
 1905 04fc 7C000000 		.4byte	.LLST4
 1906 0500 00       		.byte	0x0
 1907 0501 1C       		.uleb128 0x1c
 1908 0502 42000000 		.4byte	.LBB3
 1909 0506 48000000 		.4byte	.LBE3
 1910 050a 1B       		.uleb128 0x1b
 1911 050b 746D7000 		.ascii	"tmp\000"
 1912 050f 01       		.byte	0x1
 1913 0510 75       		.byte	0x75
 1914 0511 86000000 		.4byte	0x86
 1915 0515 8F000000 		.4byte	.LLST5
 1916 0519 00       		.byte	0x0
 1917 051a 00       		.byte	0x0
 1918 051b 18       		.uleb128 0x18
 1919 051c 01       		.byte	0x1
 1920 051d E5010000 		.4byte	.LASF65
 1921 0521 01       		.byte	0x1
 1922 0522 81       		.byte	0x81
 1923 0523 01       		.byte	0x1
 1924 0524 00000000 		.4byte	.LFB65
 1925 0528 4C000000 		.4byte	.LFE65
 1926 052c A2000000 		.4byte	.LLST6
 1927 0530 7A050000 		.4byte	0x57a
 1928 0534 19       		.uleb128 0x19
 1929 0535 48010000 		.4byte	.LASF64
 1930 0539 01       		.byte	0x1
 1931 053a 81       		.byte	0x81
ARM GAS  C:\Users\z80\AppData\Local\Temp\ccQPbzmi.s 			page 36


 1932 053b FE030000 		.4byte	0x3fe
 1933 053f C2000000 		.4byte	.LLST7
 1934 0543 1A       		.uleb128 0x1a
 1935 0544 06000000 		.4byte	.LBB4
 1936 0548 0C000000 		.4byte	.LBE4
 1937 054c 60050000 		.4byte	0x560
 1938 0550 1B       		.uleb128 0x1b
 1939 0551 746D7000 		.ascii	"tmp\000"
 1940 0555 01       		.byte	0x1
 1941 0556 85       		.byte	0x85
 1942 0557 86000000 		.4byte	0x86
 1943 055b E0000000 		.4byte	.LLST8
 1944 055f 00       		.byte	0x0
 1945 0560 1C       		.uleb128 0x1c
 1946 0561 34000000 		.4byte	.LBB5
 1947 0565 3A000000 		.4byte	.LBE5
 1948 0569 1B       		.uleb128 0x1b
 1949 056a 746D7000 		.ascii	"tmp\000"
 1950 056e 01       		.byte	0x1
 1951 056f 8B       		.byte	0x8b
 1952 0570 86000000 		.4byte	0x86
 1953 0574 F3000000 		.4byte	.LLST9
 1954 0578 00       		.byte	0x0
 1955 0579 00       		.byte	0x0
 1956 057a 18       		.uleb128 0x18
 1957 057b 01       		.byte	0x1
 1958 057c 87000000 		.4byte	.LASF66
 1959 0580 01       		.byte	0x1
 1960 0581 95       		.byte	0x95
 1961 0582 01       		.byte	0x1
 1962 0583 00000000 		.4byte	.LFB66
 1963 0587 40000000 		.4byte	.LFE66
 1964 058b 06010000 		.4byte	.LLST10
 1965 058f D9050000 		.4byte	0x5d9
 1966 0593 19       		.uleb128 0x19
 1967 0594 48010000 		.4byte	.LASF64
 1968 0598 01       		.byte	0x1
 1969 0599 95       		.byte	0x95
 1970 059a FE030000 		.4byte	0x3fe
 1971 059e 26010000 		.4byte	.LLST11
 1972 05a2 1A       		.uleb128 0x1a
 1973 05a3 06000000 		.4byte	.LBB6
 1974 05a7 0C000000 		.4byte	.LBE6
 1975 05ab BF050000 		.4byte	0x5bf
 1976 05af 1B       		.uleb128 0x1b
 1977 05b0 746D7000 		.ascii	"tmp\000"
 1978 05b4 01       		.byte	0x1
 1979 05b5 99       		.byte	0x99
 1980 05b6 86000000 		.4byte	0x86
 1981 05ba 44010000 		.4byte	.LLST12
 1982 05be 00       		.byte	0x0
 1983 05bf 1C       		.uleb128 0x1c
 1984 05c0 26000000 		.4byte	.LBB7
 1985 05c4 2C000000 		.4byte	.LBE7
 1986 05c8 1B       		.uleb128 0x1b
 1987 05c9 746D7000 		.ascii	"tmp\000"
 1988 05cd 01       		.byte	0x1
ARM GAS  C:\Users\z80\AppData\Local\Temp\ccQPbzmi.s 			page 37


 1989 05ce 9C       		.byte	0x9c
 1990 05cf 86000000 		.4byte	0x86
 1991 05d3 57010000 		.4byte	.LLST13
 1992 05d7 00       		.byte	0x0
 1993 05d8 00       		.byte	0x0
 1994 05d9 18       		.uleb128 0x18
 1995 05da 01       		.byte	0x1
 1996 05db 4D010000 		.4byte	.LASF67
 1997 05df 01       		.byte	0x1
 1998 05e0 A7       		.byte	0xa7
 1999 05e1 01       		.byte	0x1
 2000 05e2 00000000 		.4byte	.LFB67
 2001 05e6 40000000 		.4byte	.LFE67
 2002 05ea 6A010000 		.4byte	.LLST14
 2003 05ee 38060000 		.4byte	0x638
 2004 05f2 19       		.uleb128 0x19
 2005 05f3 48010000 		.4byte	.LASF64
 2006 05f7 01       		.byte	0x1
 2007 05f8 A7       		.byte	0xa7
 2008 05f9 FE030000 		.4byte	0x3fe
 2009 05fd 8A010000 		.4byte	.LLST15
 2010 0601 1A       		.uleb128 0x1a
 2011 0602 06000000 		.4byte	.LBB8
 2012 0606 0C000000 		.4byte	.LBE8
 2013 060a 1E060000 		.4byte	0x61e
 2014 060e 1B       		.uleb128 0x1b
 2015 060f 746D7000 		.ascii	"tmp\000"
 2016 0613 01       		.byte	0x1
 2017 0614 AB       		.byte	0xab
 2018 0615 86000000 		.4byte	0x86
 2019 0619 A8010000 		.4byte	.LLST16
 2020 061d 00       		.byte	0x0
 2021 061e 1C       		.uleb128 0x1c
 2022 061f 26000000 		.4byte	.LBB9
 2023 0623 2C000000 		.4byte	.LBE9
 2024 0627 1B       		.uleb128 0x1b
 2025 0628 746D7000 		.ascii	"tmp\000"
 2026 062c 01       		.byte	0x1
 2027 062d AE       		.byte	0xae
 2028 062e 86000000 		.4byte	0x86
 2029 0632 BB010000 		.4byte	.LLST17
 2030 0636 00       		.byte	0x0
 2031 0637 00       		.byte	0x0
 2032 0638 18       		.uleb128 0x18
 2033 0639 01       		.byte	0x1
 2034 063a B3010000 		.4byte	.LASF68
 2035 063e 01       		.byte	0x1
 2036 063f BE       		.byte	0xbe
 2037 0640 01       		.byte	0x1
 2038 0641 00000000 		.4byte	.LFB68
 2039 0645 58000000 		.4byte	.LFE68
 2040 0649 CE010000 		.4byte	.LLST18
 2041 064d A4060000 		.4byte	0x6a4
 2042 0651 19       		.uleb128 0x19
 2043 0652 48010000 		.4byte	.LASF64
 2044 0656 01       		.byte	0x1
 2045 0657 BE       		.byte	0xbe
ARM GAS  C:\Users\z80\AppData\Local\Temp\ccQPbzmi.s 			page 38


 2046 0658 FE030000 		.4byte	0x3fe
 2047 065c EE010000 		.4byte	.LLST19
 2048 0660 1D       		.uleb128 0x1d
 2049 0661 6E00     		.ascii	"n\000"
 2050 0663 01       		.byte	0x1
 2051 0664 BE       		.byte	0xbe
 2052 0665 30000000 		.4byte	0x30
 2053 0669 0C020000 		.4byte	.LLST20
 2054 066d 1A       		.uleb128 0x1a
 2055 066e 18000000 		.4byte	.LBB10
 2056 0672 1E000000 		.4byte	.LBE10
 2057 0676 8A060000 		.4byte	0x68a
 2058 067a 1B       		.uleb128 0x1b
 2059 067b 746D7000 		.ascii	"tmp\000"
 2060 067f 01       		.byte	0x1
 2061 0680 C2       		.byte	0xc2
 2062 0681 86000000 		.4byte	0x86
 2063 0685 2A020000 		.4byte	.LLST21
 2064 0689 00       		.byte	0x0
 2065 068a 1C       		.uleb128 0x1c
 2066 068b 3E000000 		.4byte	.LBB11
 2067 068f 44000000 		.4byte	.LBE11
 2068 0693 1B       		.uleb128 0x1b
 2069 0694 746D7000 		.ascii	"tmp\000"
 2070 0698 01       		.byte	0x1
 2071 0699 C5       		.byte	0xc5
 2072 069a 86000000 		.4byte	0x86
 2073 069e 3D020000 		.4byte	.LLST22
 2074 06a2 00       		.byte	0x0
 2075 06a3 00       		.byte	0x0
 2076 06a4 18       		.uleb128 0x18
 2077 06a5 01       		.byte	0x1
 2078 06a6 BC000000 		.4byte	.LASF69
 2079 06aa 01       		.byte	0x1
 2080 06ab D9       		.byte	0xd9
 2081 06ac 01       		.byte	0x1
 2082 06ad 00000000 		.4byte	.LFB69
 2083 06b1 78000000 		.4byte	.LFE69
 2084 06b5 50020000 		.4byte	.LLST23
 2085 06b9 2E070000 		.4byte	0x72e
 2086 06bd 19       		.uleb128 0x19
 2087 06be 48010000 		.4byte	.LASF64
 2088 06c2 01       		.byte	0x1
 2089 06c3 D9       		.byte	0xd9
 2090 06c4 FE030000 		.4byte	0x3fe
 2091 06c8 70020000 		.4byte	.LLST24
 2092 06cc 1D       		.uleb128 0x1d
 2093 06cd 6E00     		.ascii	"n\000"
 2094 06cf 01       		.byte	0x1
 2095 06d0 D9       		.byte	0xd9
 2096 06d1 30000000 		.4byte	0x30
 2097 06d5 8E020000 		.4byte	.LLST25
 2098 06d9 19       		.uleb128 0x19
 2099 06da DF010000 		.4byte	.LASF70
 2100 06de 01       		.byte	0x1
 2101 06df DA       		.byte	0xda
 2102 06e0 2E070000 		.4byte	0x72e
ARM GAS  C:\Users\z80\AppData\Local\Temp\ccQPbzmi.s 			page 39


 2103 06e4 AC020000 		.4byte	.LLST26
 2104 06e8 19       		.uleb128 0x19
 2105 06e9 17030000 		.4byte	.LASF71
 2106 06ed 01       		.byte	0x1
 2107 06ee DA       		.byte	0xda
 2108 06ef A6000000 		.4byte	0xa6
 2109 06f3 CA020000 		.4byte	.LLST27
 2110 06f7 1A       		.uleb128 0x1a
 2111 06f8 30000000 		.4byte	.LBB12
 2112 06fc 36000000 		.4byte	.LBE12
 2113 0700 14070000 		.4byte	0x714
 2114 0704 1B       		.uleb128 0x1b
 2115 0705 746D7000 		.ascii	"tmp\000"
 2116 0709 01       		.byte	0x1
 2117 070a DF       		.byte	0xdf
 2118 070b 86000000 		.4byte	0x86
 2119 070f E8020000 		.4byte	.LLST28
 2120 0713 00       		.byte	0x0
 2121 0714 1C       		.uleb128 0x1c
 2122 0715 5E000000 		.4byte	.LBB13
 2123 0719 64000000 		.4byte	.LBE13
 2124 071d 1B       		.uleb128 0x1b
 2125 071e 746D7000 		.ascii	"tmp\000"
 2126 0722 01       		.byte	0x1
 2127 0723 E2       		.byte	0xe2
 2128 0724 86000000 		.4byte	0x86
 2129 0728 FB020000 		.4byte	.LLST29
 2130 072c 00       		.byte	0x0
 2131 072d 00       		.byte	0x0
 2132 072e 0E       		.uleb128 0xe
 2133 072f 04       		.byte	0x4
 2134 0730 34070000 		.4byte	0x734
 2135 0734 1E       		.uleb128 0x1e
 2136 0735 18       		.uleb128 0x18
 2137 0736 01       		.byte	0x1
 2138 0737 13000000 		.4byte	.LASF72
 2139 073b 01       		.byte	0x1
 2140 073c F4       		.byte	0xf4
 2141 073d 01       		.byte	0x1
 2142 073e 00000000 		.4byte	.LFB70
 2143 0742 5C000000 		.4byte	.LFE70
 2144 0746 0E030000 		.4byte	.LLST30
 2145 074a B0070000 		.4byte	0x7b0
 2146 074e 19       		.uleb128 0x19
 2147 074f 48010000 		.4byte	.LASF64
 2148 0753 01       		.byte	0x1
 2149 0754 F4       		.byte	0xf4
 2150 0755 FE030000 		.4byte	0x3fe
 2151 0759 2E030000 		.4byte	.LLST31
 2152 075d 1D       		.uleb128 0x1d
 2153 075e 6E00     		.ascii	"n\000"
 2154 0760 01       		.byte	0x1
 2155 0761 F4       		.byte	0xf4
 2156 0762 30000000 		.4byte	0x30
 2157 0766 4C030000 		.4byte	.LLST32
 2158 076a 19       		.uleb128 0x19
 2159 076b DF010000 		.4byte	.LASF70
ARM GAS  C:\Users\z80\AppData\Local\Temp\ccQPbzmi.s 			page 40


 2160 076f 01       		.byte	0x1
 2161 0770 F4       		.byte	0xf4
 2162 0771 2E070000 		.4byte	0x72e
 2163 0775 6A030000 		.4byte	.LLST33
 2164 0779 1A       		.uleb128 0x1a
 2165 077a 1C000000 		.4byte	.LBB14
 2166 077e 22000000 		.4byte	.LBE14
 2167 0782 96070000 		.4byte	0x796
 2168 0786 1B       		.uleb128 0x1b
 2169 0787 746D7000 		.ascii	"tmp\000"
 2170 078b 01       		.byte	0x1
 2171 078c F9       		.byte	0xf9
 2172 078d 86000000 		.4byte	0x86
 2173 0791 88030000 		.4byte	.LLST34
 2174 0795 00       		.byte	0x0
 2175 0796 1C       		.uleb128 0x1c
 2176 0797 44000000 		.4byte	.LBB15
 2177 079b 4A000000 		.4byte	.LBE15
 2178 079f 1B       		.uleb128 0x1b
 2179 07a0 746D7000 		.ascii	"tmp\000"
 2180 07a4 01       		.byte	0x1
 2181 07a5 FC       		.byte	0xfc
 2182 07a6 86000000 		.4byte	0x86
 2183 07aa 9B030000 		.4byte	.LLST35
 2184 07ae 00       		.byte	0x0
 2185 07af 00       		.byte	0x0
 2186 07b0 1F       		.uleb128 0x1f
 2187 07b1 01       		.byte	0x1
 2188 07b2 E9020000 		.4byte	.LASF73
 2189 07b6 01       		.byte	0x1
 2190 07b7 0E01     		.2byte	0x10e
 2191 07b9 01       		.byte	0x1
 2192 07ba 00000000 		.4byte	.LFB71
 2193 07be 5C000000 		.4byte	.LFE71
 2194 07c2 AE030000 		.4byte	.LLST36
 2195 07c6 31080000 		.4byte	0x831
 2196 07ca 20       		.uleb128 0x20
 2197 07cb 48010000 		.4byte	.LASF64
 2198 07cf 01       		.byte	0x1
 2199 07d0 0E01     		.2byte	0x10e
 2200 07d2 FE030000 		.4byte	0x3fe
 2201 07d6 CE030000 		.4byte	.LLST37
 2202 07da 21       		.uleb128 0x21
 2203 07db 6E00     		.ascii	"n\000"
 2204 07dd 01       		.byte	0x1
 2205 07de 0E01     		.2byte	0x10e
 2206 07e0 30000000 		.4byte	0x30
 2207 07e4 EC030000 		.4byte	.LLST38
 2208 07e8 20       		.uleb128 0x20
 2209 07e9 17030000 		.4byte	.LASF71
 2210 07ed 01       		.byte	0x1
 2211 07ee 0E01     		.2byte	0x10e
 2212 07f0 A6000000 		.4byte	0xa6
 2213 07f4 0A040000 		.4byte	.LLST39
 2214 07f8 1A       		.uleb128 0x1a
 2215 07f9 1C000000 		.4byte	.LBB16
 2216 07fd 22000000 		.4byte	.LBE16
ARM GAS  C:\Users\z80\AppData\Local\Temp\ccQPbzmi.s 			page 41


 2217 0801 16080000 		.4byte	0x816
 2218 0805 22       		.uleb128 0x22
 2219 0806 746D7000 		.ascii	"tmp\000"
 2220 080a 01       		.byte	0x1
 2221 080b 1301     		.2byte	0x113
 2222 080d 86000000 		.4byte	0x86
 2223 0811 28040000 		.4byte	.LLST40
 2224 0815 00       		.byte	0x0
 2225 0816 1C       		.uleb128 0x1c
 2226 0817 44000000 		.4byte	.LBB17
 2227 081b 4A000000 		.4byte	.LBE17
 2228 081f 22       		.uleb128 0x22
 2229 0820 746D7000 		.ascii	"tmp\000"
 2230 0824 01       		.byte	0x1
 2231 0825 1601     		.2byte	0x116
 2232 0827 86000000 		.4byte	0x86
 2233 082b 3B040000 		.4byte	.LLST41
 2234 082f 00       		.byte	0x0
 2235 0830 00       		.byte	0x0
 2236 0831 23       		.uleb128 0x23
 2237 0832 24030000 		.4byte	.LASF74
 2238 0836 09       		.byte	0x9
 2239 0837 9404     		.2byte	0x494
 2240 0839 BC000000 		.4byte	0xbc
 2241 083d 01       		.byte	0x1
 2242 083e 01       		.byte	0x1
 2243 083f 23       		.uleb128 0x23
 2244 0840 24030000 		.4byte	.LASF74
 2245 0844 09       		.byte	0x9
 2246 0845 9404     		.2byte	0x494
 2247 0847 BC000000 		.4byte	0xbc
 2248 084b 01       		.byte	0x1
 2249 084c 01       		.byte	0x1
 2250 084d 00       		.byte	0x0
 2251              		.section	.debug_abbrev
 2252 0000 01       		.uleb128 0x1
 2253 0001 11       		.uleb128 0x11
 2254 0002 01       		.byte	0x1
 2255 0003 25       		.uleb128 0x25
 2256 0004 0E       		.uleb128 0xe
 2257 0005 13       		.uleb128 0x13
 2258 0006 0B       		.uleb128 0xb
 2259 0007 03       		.uleb128 0x3
 2260 0008 0E       		.uleb128 0xe
 2261 0009 1B       		.uleb128 0x1b
 2262 000a 0E       		.uleb128 0xe
 2263 000b 11       		.uleb128 0x11
 2264 000c 01       		.uleb128 0x1
 2265 000d 52       		.uleb128 0x52
 2266 000e 01       		.uleb128 0x1
 2267 000f 55       		.uleb128 0x55
 2268 0010 06       		.uleb128 0x6
 2269 0011 10       		.uleb128 0x10
 2270 0012 06       		.uleb128 0x6
 2271 0013 00       		.byte	0x0
 2272 0014 00       		.byte	0x0
 2273 0015 02       		.uleb128 0x2
ARM GAS  C:\Users\z80\AppData\Local\Temp\ccQPbzmi.s 			page 42


 2274 0016 24       		.uleb128 0x24
 2275 0017 00       		.byte	0x0
 2276 0018 0B       		.uleb128 0xb
 2277 0019 0B       		.uleb128 0xb
 2278 001a 3E       		.uleb128 0x3e
 2279 001b 0B       		.uleb128 0xb
 2280 001c 03       		.uleb128 0x3
 2281 001d 08       		.uleb128 0x8
 2282 001e 00       		.byte	0x0
 2283 001f 00       		.byte	0x0
 2284 0020 03       		.uleb128 0x3
 2285 0021 16       		.uleb128 0x16
 2286 0022 00       		.byte	0x0
 2287 0023 03       		.uleb128 0x3
 2288 0024 0E       		.uleb128 0xe
 2289 0025 3A       		.uleb128 0x3a
 2290 0026 0B       		.uleb128 0xb
 2291 0027 3B       		.uleb128 0x3b
 2292 0028 0B       		.uleb128 0xb
 2293 0029 49       		.uleb128 0x49
 2294 002a 13       		.uleb128 0x13
 2295 002b 00       		.byte	0x0
 2296 002c 00       		.byte	0x0
 2297 002d 04       		.uleb128 0x4
 2298 002e 24       		.uleb128 0x24
 2299 002f 00       		.byte	0x0
 2300 0030 0B       		.uleb128 0xb
 2301 0031 0B       		.uleb128 0xb
 2302 0032 3E       		.uleb128 0x3e
 2303 0033 0B       		.uleb128 0xb
 2304 0034 03       		.uleb128 0x3
 2305 0035 0E       		.uleb128 0xe
 2306 0036 00       		.byte	0x0
 2307 0037 00       		.byte	0x0
 2308 0038 05       		.uleb128 0x5
 2309 0039 0F       		.uleb128 0xf
 2310 003a 00       		.byte	0x0
 2311 003b 0B       		.uleb128 0xb
 2312 003c 0B       		.uleb128 0xb
 2313 003d 00       		.byte	0x0
 2314 003e 00       		.byte	0x0
 2315 003f 06       		.uleb128 0x6
 2316 0040 35       		.uleb128 0x35
 2317 0041 00       		.byte	0x0
 2318 0042 49       		.uleb128 0x49
 2319 0043 13       		.uleb128 0x13
 2320 0044 00       		.byte	0x0
 2321 0045 00       		.byte	0x0
 2322 0046 07       		.uleb128 0x7
 2323 0047 24       		.uleb128 0x24
 2324 0048 00       		.byte	0x0
 2325 0049 0B       		.uleb128 0xb
 2326 004a 0B       		.uleb128 0xb
 2327 004b 3E       		.uleb128 0x3e
 2328 004c 0B       		.uleb128 0xb
 2329 004d 00       		.byte	0x0
 2330 004e 00       		.byte	0x0
ARM GAS  C:\Users\z80\AppData\Local\Temp\ccQPbzmi.s 			page 43


 2331 004f 08       		.uleb128 0x8
 2332 0050 13       		.uleb128 0x13
 2333 0051 01       		.byte	0x1
 2334 0052 0B       		.uleb128 0xb
 2335 0053 0B       		.uleb128 0xb
 2336 0054 3A       		.uleb128 0x3a
 2337 0055 0B       		.uleb128 0xb
 2338 0056 3B       		.uleb128 0x3b
 2339 0057 05       		.uleb128 0x5
 2340 0058 01       		.uleb128 0x1
 2341 0059 13       		.uleb128 0x13
 2342 005a 00       		.byte	0x0
 2343 005b 00       		.byte	0x0
 2344 005c 09       		.uleb128 0x9
 2345 005d 0D       		.uleb128 0xd
 2346 005e 00       		.byte	0x0
 2347 005f 03       		.uleb128 0x3
 2348 0060 08       		.uleb128 0x8
 2349 0061 3A       		.uleb128 0x3a
 2350 0062 0B       		.uleb128 0xb
 2351 0063 3B       		.uleb128 0x3b
 2352 0064 05       		.uleb128 0x5
 2353 0065 49       		.uleb128 0x49
 2354 0066 13       		.uleb128 0x13
 2355 0067 38       		.uleb128 0x38
 2356 0068 0A       		.uleb128 0xa
 2357 0069 00       		.byte	0x0
 2358 006a 00       		.byte	0x0
 2359 006b 0A       		.uleb128 0xa
 2360 006c 0D       		.uleb128 0xd
 2361 006d 00       		.byte	0x0
 2362 006e 03       		.uleb128 0x3
 2363 006f 0E       		.uleb128 0xe
 2364 0070 3A       		.uleb128 0x3a
 2365 0071 0B       		.uleb128 0xb
 2366 0072 3B       		.uleb128 0x3b
 2367 0073 05       		.uleb128 0x5
 2368 0074 49       		.uleb128 0x49
 2369 0075 13       		.uleb128 0x13
 2370 0076 38       		.uleb128 0x38
 2371 0077 0A       		.uleb128 0xa
 2372 0078 00       		.byte	0x0
 2373 0079 00       		.byte	0x0
 2374 007a 0B       		.uleb128 0xb
 2375 007b 16       		.uleb128 0x16
 2376 007c 00       		.byte	0x0
 2377 007d 03       		.uleb128 0x3
 2378 007e 0E       		.uleb128 0xe
 2379 007f 3A       		.uleb128 0x3a
 2380 0080 0B       		.uleb128 0xb
 2381 0081 3B       		.uleb128 0x3b
 2382 0082 05       		.uleb128 0x5
 2383 0083 49       		.uleb128 0x49
 2384 0084 13       		.uleb128 0x13
 2385 0085 00       		.byte	0x0
 2386 0086 00       		.byte	0x0
 2387 0087 0C       		.uleb128 0xc
ARM GAS  C:\Users\z80\AppData\Local\Temp\ccQPbzmi.s 			page 44


 2388 0088 13       		.uleb128 0x13
 2389 0089 01       		.byte	0x1
 2390 008a 0B       		.uleb128 0xb
 2391 008b 0B       		.uleb128 0xb
 2392 008c 3A       		.uleb128 0x3a
 2393 008d 0B       		.uleb128 0xb
 2394 008e 3B       		.uleb128 0x3b
 2395 008f 0B       		.uleb128 0xb
 2396 0090 01       		.uleb128 0x1
 2397 0091 13       		.uleb128 0x13
 2398 0092 00       		.byte	0x0
 2399 0093 00       		.byte	0x0
 2400 0094 0D       		.uleb128 0xd
 2401 0095 0D       		.uleb128 0xd
 2402 0096 00       		.byte	0x0
 2403 0097 03       		.uleb128 0x3
 2404 0098 0E       		.uleb128 0xe
 2405 0099 3A       		.uleb128 0x3a
 2406 009a 0B       		.uleb128 0xb
 2407 009b 3B       		.uleb128 0x3b
 2408 009c 0B       		.uleb128 0xb
 2409 009d 49       		.uleb128 0x49
 2410 009e 13       		.uleb128 0x13
 2411 009f 38       		.uleb128 0x38
 2412 00a0 0A       		.uleb128 0xa
 2413 00a1 00       		.byte	0x0
 2414 00a2 00       		.byte	0x0
 2415 00a3 0E       		.uleb128 0xe
 2416 00a4 0F       		.uleb128 0xf
 2417 00a5 00       		.byte	0x0
 2418 00a6 0B       		.uleb128 0xb
 2419 00a7 0B       		.uleb128 0xb
 2420 00a8 49       		.uleb128 0x49
 2421 00a9 13       		.uleb128 0x13
 2422 00aa 00       		.byte	0x0
 2423 00ab 00       		.byte	0x0
 2424 00ac 0F       		.uleb128 0xf
 2425 00ad 04       		.uleb128 0x4
 2426 00ae 01       		.byte	0x1
 2427 00af 0B       		.uleb128 0xb
 2428 00b0 0B       		.uleb128 0xb
 2429 00b1 3A       		.uleb128 0x3a
 2430 00b2 0B       		.uleb128 0xb
 2431 00b3 3B       		.uleb128 0x3b
 2432 00b4 0B       		.uleb128 0xb
 2433 00b5 01       		.uleb128 0x1
 2434 00b6 13       		.uleb128 0x13
 2435 00b7 00       		.byte	0x0
 2436 00b8 00       		.byte	0x0
 2437 00b9 10       		.uleb128 0x10
 2438 00ba 28       		.uleb128 0x28
 2439 00bb 00       		.byte	0x0
 2440 00bc 03       		.uleb128 0x3
 2441 00bd 0E       		.uleb128 0xe
 2442 00be 1C       		.uleb128 0x1c
 2443 00bf 0D       		.uleb128 0xd
 2444 00c0 00       		.byte	0x0
ARM GAS  C:\Users\z80\AppData\Local\Temp\ccQPbzmi.s 			page 45


 2445 00c1 00       		.byte	0x0
 2446 00c2 11       		.uleb128 0x11
 2447 00c3 13       		.uleb128 0x13
 2448 00c4 01       		.byte	0x1
 2449 00c5 03       		.uleb128 0x3
 2450 00c6 0E       		.uleb128 0xe
 2451 00c7 0B       		.uleb128 0xb
 2452 00c8 0B       		.uleb128 0xb
 2453 00c9 3A       		.uleb128 0x3a
 2454 00ca 0B       		.uleb128 0xb
 2455 00cb 3B       		.uleb128 0x3b
 2456 00cc 05       		.uleb128 0x5
 2457 00cd 01       		.uleb128 0x1
 2458 00ce 13       		.uleb128 0x13
 2459 00cf 00       		.byte	0x0
 2460 00d0 00       		.byte	0x0
 2461 00d1 12       		.uleb128 0x12
 2462 00d2 15       		.uleb128 0x15
 2463 00d3 01       		.byte	0x1
 2464 00d4 27       		.uleb128 0x27
 2465 00d5 0C       		.uleb128 0xc
 2466 00d6 01       		.uleb128 0x1
 2467 00d7 13       		.uleb128 0x13
 2468 00d8 00       		.byte	0x0
 2469 00d9 00       		.byte	0x0
 2470 00da 13       		.uleb128 0x13
 2471 00db 05       		.uleb128 0x5
 2472 00dc 00       		.byte	0x0
 2473 00dd 49       		.uleb128 0x49
 2474 00de 13       		.uleb128 0x13
 2475 00df 00       		.byte	0x0
 2476 00e0 00       		.byte	0x0
 2477 00e1 14       		.uleb128 0x14
 2478 00e2 26       		.uleb128 0x26
 2479 00e3 00       		.byte	0x0
 2480 00e4 49       		.uleb128 0x49
 2481 00e5 13       		.uleb128 0x13
 2482 00e6 00       		.byte	0x0
 2483 00e7 00       		.byte	0x0
 2484 00e8 15       		.uleb128 0x15
 2485 00e9 2E       		.uleb128 0x2e
 2486 00ea 00       		.byte	0x0
 2487 00eb 3F       		.uleb128 0x3f
 2488 00ec 0C       		.uleb128 0xc
 2489 00ed 03       		.uleb128 0x3
 2490 00ee 0E       		.uleb128 0xe
 2491 00ef 3A       		.uleb128 0x3a
 2492 00f0 0B       		.uleb128 0xb
 2493 00f1 3B       		.uleb128 0x3b
 2494 00f2 0B       		.uleb128 0xb
 2495 00f3 27       		.uleb128 0x27
 2496 00f4 0C       		.uleb128 0xc
 2497 00f5 11       		.uleb128 0x11
 2498 00f6 01       		.uleb128 0x1
 2499 00f7 12       		.uleb128 0x12
 2500 00f8 01       		.uleb128 0x1
 2501 00f9 40       		.uleb128 0x40
ARM GAS  C:\Users\z80\AppData\Local\Temp\ccQPbzmi.s 			page 46


 2502 00fa 06       		.uleb128 0x6
 2503 00fb 00       		.byte	0x0
 2504 00fc 00       		.byte	0x0
 2505 00fd 16       		.uleb128 0x16
 2506 00fe 2E       		.uleb128 0x2e
 2507 00ff 01       		.byte	0x1
 2508 0100 3F       		.uleb128 0x3f
 2509 0101 0C       		.uleb128 0xc
 2510 0102 03       		.uleb128 0x3
 2511 0103 0E       		.uleb128 0xe
 2512 0104 3A       		.uleb128 0x3a
 2513 0105 0B       		.uleb128 0xb
 2514 0106 3B       		.uleb128 0x3b
 2515 0107 0B       		.uleb128 0xb
 2516 0108 27       		.uleb128 0x27
 2517 0109 0C       		.uleb128 0xc
 2518 010a 11       		.uleb128 0x11
 2519 010b 01       		.uleb128 0x1
 2520 010c 12       		.uleb128 0x12
 2521 010d 01       		.uleb128 0x1
 2522 010e 40       		.uleb128 0x40
 2523 010f 0A       		.uleb128 0xa
 2524 0110 01       		.uleb128 0x1
 2525 0111 13       		.uleb128 0x13
 2526 0112 00       		.byte	0x0
 2527 0113 00       		.byte	0x0
 2528 0114 17       		.uleb128 0x17
 2529 0115 05       		.uleb128 0x5
 2530 0116 00       		.byte	0x0
 2531 0117 03       		.uleb128 0x3
 2532 0118 0E       		.uleb128 0xe
 2533 0119 3A       		.uleb128 0x3a
 2534 011a 0B       		.uleb128 0xb
 2535 011b 3B       		.uleb128 0x3b
 2536 011c 0B       		.uleb128 0xb
 2537 011d 49       		.uleb128 0x49
 2538 011e 13       		.uleb128 0x13
 2539 011f 02       		.uleb128 0x2
 2540 0120 0A       		.uleb128 0xa
 2541 0121 00       		.byte	0x0
 2542 0122 00       		.byte	0x0
 2543 0123 18       		.uleb128 0x18
 2544 0124 2E       		.uleb128 0x2e
 2545 0125 01       		.byte	0x1
 2546 0126 3F       		.uleb128 0x3f
 2547 0127 0C       		.uleb128 0xc
 2548 0128 03       		.uleb128 0x3
 2549 0129 0E       		.uleb128 0xe
 2550 012a 3A       		.uleb128 0x3a
 2551 012b 0B       		.uleb128 0xb
 2552 012c 3B       		.uleb128 0x3b
 2553 012d 0B       		.uleb128 0xb
 2554 012e 27       		.uleb128 0x27
 2555 012f 0C       		.uleb128 0xc
 2556 0130 11       		.uleb128 0x11
 2557 0131 01       		.uleb128 0x1
 2558 0132 12       		.uleb128 0x12
ARM GAS  C:\Users\z80\AppData\Local\Temp\ccQPbzmi.s 			page 47


 2559 0133 01       		.uleb128 0x1
 2560 0134 40       		.uleb128 0x40
 2561 0135 06       		.uleb128 0x6
 2562 0136 01       		.uleb128 0x1
 2563 0137 13       		.uleb128 0x13
 2564 0138 00       		.byte	0x0
 2565 0139 00       		.byte	0x0
 2566 013a 19       		.uleb128 0x19
 2567 013b 05       		.uleb128 0x5
 2568 013c 00       		.byte	0x0
 2569 013d 03       		.uleb128 0x3
 2570 013e 0E       		.uleb128 0xe
 2571 013f 3A       		.uleb128 0x3a
 2572 0140 0B       		.uleb128 0xb
 2573 0141 3B       		.uleb128 0x3b
 2574 0142 0B       		.uleb128 0xb
 2575 0143 49       		.uleb128 0x49
 2576 0144 13       		.uleb128 0x13
 2577 0145 02       		.uleb128 0x2
 2578 0146 06       		.uleb128 0x6
 2579 0147 00       		.byte	0x0
 2580 0148 00       		.byte	0x0
 2581 0149 1A       		.uleb128 0x1a
 2582 014a 0B       		.uleb128 0xb
 2583 014b 01       		.byte	0x1
 2584 014c 11       		.uleb128 0x11
 2585 014d 01       		.uleb128 0x1
 2586 014e 12       		.uleb128 0x12
 2587 014f 01       		.uleb128 0x1
 2588 0150 01       		.uleb128 0x1
 2589 0151 13       		.uleb128 0x13
 2590 0152 00       		.byte	0x0
 2591 0153 00       		.byte	0x0
 2592 0154 1B       		.uleb128 0x1b
 2593 0155 34       		.uleb128 0x34
 2594 0156 00       		.byte	0x0
 2595 0157 03       		.uleb128 0x3
 2596 0158 08       		.uleb128 0x8
 2597 0159 3A       		.uleb128 0x3a
 2598 015a 0B       		.uleb128 0xb
 2599 015b 3B       		.uleb128 0x3b
 2600 015c 0B       		.uleb128 0xb
 2601 015d 49       		.uleb128 0x49
 2602 015e 13       		.uleb128 0x13
 2603 015f 02       		.uleb128 0x2
 2604 0160 06       		.uleb128 0x6
 2605 0161 00       		.byte	0x0
 2606 0162 00       		.byte	0x0
 2607 0163 1C       		.uleb128 0x1c
 2608 0164 0B       		.uleb128 0xb
 2609 0165 01       		.byte	0x1
 2610 0166 11       		.uleb128 0x11
 2611 0167 01       		.uleb128 0x1
 2612 0168 12       		.uleb128 0x12
 2613 0169 01       		.uleb128 0x1
 2614 016a 00       		.byte	0x0
 2615 016b 00       		.byte	0x0
ARM GAS  C:\Users\z80\AppData\Local\Temp\ccQPbzmi.s 			page 48


 2616 016c 1D       		.uleb128 0x1d
 2617 016d 05       		.uleb128 0x5
 2618 016e 00       		.byte	0x0
 2619 016f 03       		.uleb128 0x3
 2620 0170 08       		.uleb128 0x8
 2621 0171 3A       		.uleb128 0x3a
 2622 0172 0B       		.uleb128 0xb
 2623 0173 3B       		.uleb128 0x3b
 2624 0174 0B       		.uleb128 0xb
 2625 0175 49       		.uleb128 0x49
 2626 0176 13       		.uleb128 0x13
 2627 0177 02       		.uleb128 0x2
 2628 0178 06       		.uleb128 0x6
 2629 0179 00       		.byte	0x0
 2630 017a 00       		.byte	0x0
 2631 017b 1E       		.uleb128 0x1e
 2632 017c 26       		.uleb128 0x26
 2633 017d 00       		.byte	0x0
 2634 017e 00       		.byte	0x0
 2635 017f 00       		.byte	0x0
 2636 0180 1F       		.uleb128 0x1f
 2637 0181 2E       		.uleb128 0x2e
 2638 0182 01       		.byte	0x1
 2639 0183 3F       		.uleb128 0x3f
 2640 0184 0C       		.uleb128 0xc
 2641 0185 03       		.uleb128 0x3
 2642 0186 0E       		.uleb128 0xe
 2643 0187 3A       		.uleb128 0x3a
 2644 0188 0B       		.uleb128 0xb
 2645 0189 3B       		.uleb128 0x3b
 2646 018a 05       		.uleb128 0x5
 2647 018b 27       		.uleb128 0x27
 2648 018c 0C       		.uleb128 0xc
 2649 018d 11       		.uleb128 0x11
 2650 018e 01       		.uleb128 0x1
 2651 018f 12       		.uleb128 0x12
 2652 0190 01       		.uleb128 0x1
 2653 0191 40       		.uleb128 0x40
 2654 0192 06       		.uleb128 0x6
 2655 0193 01       		.uleb128 0x1
 2656 0194 13       		.uleb128 0x13
 2657 0195 00       		.byte	0x0
 2658 0196 00       		.byte	0x0
 2659 0197 20       		.uleb128 0x20
 2660 0198 05       		.uleb128 0x5
 2661 0199 00       		.byte	0x0
 2662 019a 03       		.uleb128 0x3
 2663 019b 0E       		.uleb128 0xe
 2664 019c 3A       		.uleb128 0x3a
 2665 019d 0B       		.uleb128 0xb
 2666 019e 3B       		.uleb128 0x3b
 2667 019f 05       		.uleb128 0x5
 2668 01a0 49       		.uleb128 0x49
 2669 01a1 13       		.uleb128 0x13
 2670 01a2 02       		.uleb128 0x2
 2671 01a3 06       		.uleb128 0x6
 2672 01a4 00       		.byte	0x0
ARM GAS  C:\Users\z80\AppData\Local\Temp\ccQPbzmi.s 			page 49


 2673 01a5 00       		.byte	0x0
 2674 01a6 21       		.uleb128 0x21
 2675 01a7 05       		.uleb128 0x5
 2676 01a8 00       		.byte	0x0
 2677 01a9 03       		.uleb128 0x3
 2678 01aa 08       		.uleb128 0x8
 2679 01ab 3A       		.uleb128 0x3a
 2680 01ac 0B       		.uleb128 0xb
 2681 01ad 3B       		.uleb128 0x3b
 2682 01ae 05       		.uleb128 0x5
 2683 01af 49       		.uleb128 0x49
 2684 01b0 13       		.uleb128 0x13
 2685 01b1 02       		.uleb128 0x2
 2686 01b2 06       		.uleb128 0x6
 2687 01b3 00       		.byte	0x0
 2688 01b4 00       		.byte	0x0
 2689 01b5 22       		.uleb128 0x22
 2690 01b6 34       		.uleb128 0x34
 2691 01b7 00       		.byte	0x0
 2692 01b8 03       		.uleb128 0x3
 2693 01b9 08       		.uleb128 0x8
 2694 01ba 3A       		.uleb128 0x3a
 2695 01bb 0B       		.uleb128 0xb
 2696 01bc 3B       		.uleb128 0x3b
 2697 01bd 05       		.uleb128 0x5
 2698 01be 49       		.uleb128 0x49
 2699 01bf 13       		.uleb128 0x13
 2700 01c0 02       		.uleb128 0x2
 2701 01c1 06       		.uleb128 0x6
 2702 01c2 00       		.byte	0x0
 2703 01c3 00       		.byte	0x0
 2704 01c4 23       		.uleb128 0x23
 2705 01c5 34       		.uleb128 0x34
 2706 01c6 00       		.byte	0x0
 2707 01c7 03       		.uleb128 0x3
 2708 01c8 0E       		.uleb128 0xe
 2709 01c9 3A       		.uleb128 0x3a
 2710 01ca 0B       		.uleb128 0xb
 2711 01cb 3B       		.uleb128 0x3b
 2712 01cc 05       		.uleb128 0x5
 2713 01cd 49       		.uleb128 0x49
 2714 01ce 13       		.uleb128 0x13
 2715 01cf 3F       		.uleb128 0x3f
 2716 01d0 0C       		.uleb128 0xc
 2717 01d1 3C       		.uleb128 0x3c
 2718 01d2 0C       		.uleb128 0xc
 2719 01d3 00       		.byte	0x0
 2720 01d4 00       		.byte	0x0
 2721 01d5 00       		.byte	0x0
 2722              		.section	.debug_pubnames,"",%progbits
 2723 0000 B0000000 		.4byte	0xb0
 2724 0004 0200     		.2byte	0x2
 2725 0006 00000000 		.4byte	.Ldebug_info0
 2726 000a 4E080000 		.4byte	0x84e
 2727 000e 72040000 		.4byte	0x472
 2728 0012 73706949 		.ascii	"spiInit\000"
 2728      6E697400 
ARM GAS  C:\Users\z80\AppData\Local\Temp\ccQPbzmi.s 			page 50


 2729 001a 87040000 		.4byte	0x487
 2730 001e 7370694F 		.ascii	"spiObjectInit\000"
 2730      626A6563 
 2730      74496E69 
 2730      7400
 2731 002c AD040000 		.4byte	0x4ad
 2732 0030 73706953 		.ascii	"spiStart\000"
 2732      74617274 
 2732      00
 2733 0039 1B050000 		.4byte	0x51b
 2734 003d 73706953 		.ascii	"spiStop\000"
 2734      746F7000 
 2735 0045 7A050000 		.4byte	0x57a
 2736 0049 73706953 		.ascii	"spiSelect\000"
 2736      656C6563 
 2736      7400
 2737 0053 D9050000 		.4byte	0x5d9
 2738 0057 73706955 		.ascii	"spiUnselect\000"
 2738      6E73656C 
 2738      65637400 
 2739 0063 38060000 		.4byte	0x638
 2740 0067 73706953 		.ascii	"spiStartIgnore\000"
 2740      74617274 
 2740      49676E6F 
 2740      726500
 2741 0076 A4060000 		.4byte	0x6a4
 2742 007a 73706953 		.ascii	"spiStartExchange\000"
 2742      74617274 
 2742      45786368 
 2742      616E6765 
 2742      00
 2743 008b 35070000 		.4byte	0x735
 2744 008f 73706953 		.ascii	"spiStartSend\000"
 2744      74617274 
 2744      53656E64 
 2744      00
 2745 009c B0070000 		.4byte	0x7b0
 2746 00a0 73706953 		.ascii	"spiStartReceive\000"
 2746      74617274 
 2746      52656365 
 2746      69766500 
 2747 00b0 00000000 		.4byte	0x0
 2748              		.section	.debug_pubtypes,"",%progbits
 2749 0000 F5000000 		.4byte	0xf5
 2750 0004 0200     		.2byte	0x2
 2751 0006 00000000 		.4byte	.Ldebug_info0
 2752 000a 4E080000 		.4byte	0x84e
 2753 000e 30000000 		.4byte	0x30
 2754 0012 73697A65 		.ascii	"size_t\000"
 2754      5F7400
 2755 0019 49000000 		.4byte	0x49
 2756 001d 75696E74 		.ascii	"uint8_t\000"
 2756      385F7400 
 2757 0025 62000000 		.4byte	0x62
 2758 0029 75696E74 		.ascii	"uint16_t\000"
 2758      31365F74 
 2758      00
ARM GAS  C:\Users\z80\AppData\Local\Temp\ccQPbzmi.s 			page 51


 2759 0032 74000000 		.4byte	0x74
 2760 0036 696E7433 		.ascii	"int32_t\000"
 2760      325F7400 
 2761 003e 86000000 		.4byte	0x86
 2762 0042 75696E74 		.ascii	"uint32_t\000"
 2762      33325F74 
 2762      00
 2763 004b 07010000 		.4byte	0x107
 2764 004f 444D415F 		.ascii	"DMA_Channel_TypeDef\000"
 2764      4368616E 
 2764      6E656C5F 
 2764      54797065 
 2764      44656600 
 2765 0063 86010000 		.4byte	0x186
 2766 0067 4750494F 		.ascii	"GPIO_TypeDef\000"
 2766      5F547970 
 2766      65446566 
 2766      00
 2767 0074 A8020000 		.4byte	0x2a8
 2768 0078 5350495F 		.ascii	"SPI_TypeDef\000"
 2768      54797065 
 2768      44656600 
 2769 0084 0F030000 		.4byte	0x30f
 2770 0088 73746D33 		.ascii	"stm32_dma_stream_t\000"
 2770      325F646D 
 2770      615F7374 
 2770      7265616D 
 2770      5F7400
 2771 009b 1A030000 		.4byte	0x31a
 2772 009f 696F706F 		.ascii	"ioportid_t\000"
 2772      72746964 
 2772      5F7400
 2773 00aa 52030000 		.4byte	0x352
 2774 00ae 73706973 		.ascii	"spistate_t\000"
 2774      74617465 
 2774      5F7400
 2775 00b9 5D030000 		.4byte	0x35d
 2776 00bd 53504944 		.ascii	"SPIDriver\000"
 2776      72697665 
 2776      7200
 2777 00c7 E0030000 		.4byte	0x3e0
 2778 00cb 73706963 		.ascii	"spicallback_t\000"
 2778      616C6C62 
 2778      61636B5F 
 2778      7400
 2779 00d9 4A040000 		.4byte	0x44a
 2780 00dd 53504943 		.ascii	"SPIConfig\000"
 2780      6F6E6669 
 2780      6700
 2781 00e7 69030000 		.4byte	0x369
 2782 00eb 53504944 		.ascii	"SPIDriver\000"
 2782      72697665 
 2782      7200
 2783 00f5 00000000 		.4byte	0x0
 2784              		.section	.debug_aranges,"",%progbits
 2785 0000 64000000 		.4byte	0x64
 2786 0004 0200     		.2byte	0x2
ARM GAS  C:\Users\z80\AppData\Local\Temp\ccQPbzmi.s 			page 52


 2787 0006 00000000 		.4byte	.Ldebug_info0
 2788 000a 04       		.byte	0x4
 2789 000b 00       		.byte	0x0
 2790 000c 0000     		.2byte	0x0
 2791 000e 0000     		.2byte	0x0
 2792 0010 00000000 		.4byte	.LFB62
 2793 0014 08000000 		.4byte	.LFE62-.LFB62
 2794 0018 00000000 		.4byte	.LFB63
 2795 001c 0A000000 		.4byte	.LFE63-.LFB63
 2796 0020 00000000 		.4byte	.LFB64
 2797 0024 5C000000 		.4byte	.LFE64-.LFB64
 2798 0028 00000000 		.4byte	.LFB65
 2799 002c 4C000000 		.4byte	.LFE65-.LFB65
 2800 0030 00000000 		.4byte	.LFB66
 2801 0034 40000000 		.4byte	.LFE66-.LFB66
 2802 0038 00000000 		.4byte	.LFB67
 2803 003c 40000000 		.4byte	.LFE67-.LFB67
 2804 0040 00000000 		.4byte	.LFB68
 2805 0044 58000000 		.4byte	.LFE68-.LFB68
 2806 0048 00000000 		.4byte	.LFB69
 2807 004c 78000000 		.4byte	.LFE69-.LFB69
 2808 0050 00000000 		.4byte	.LFB70
 2809 0054 5C000000 		.4byte	.LFE70-.LFB70
 2810 0058 00000000 		.4byte	.LFB71
 2811 005c 5C000000 		.4byte	.LFE71-.LFB71
 2812 0060 00000000 		.4byte	0x0
 2813 0064 00000000 		.4byte	0x0
 2814              		.section	.debug_ranges,"",%progbits
 2815              	.Ldebug_ranges0:
 2816 0000 00000000 		.4byte	.LFB62
 2817 0004 08000000 		.4byte	.LFE62
 2818 0008 00000000 		.4byte	.LFB63
 2819 000c 0A000000 		.4byte	.LFE63
 2820 0010 00000000 		.4byte	.LFB64
 2821 0014 5C000000 		.4byte	.LFE64
 2822 0018 00000000 		.4byte	.LFB65
 2823 001c 4C000000 		.4byte	.LFE65
 2824 0020 00000000 		.4byte	.LFB66
 2825 0024 40000000 		.4byte	.LFE66
 2826 0028 00000000 		.4byte	.LFB67
 2827 002c 40000000 		.4byte	.LFE67
 2828 0030 00000000 		.4byte	.LFB68
 2829 0034 58000000 		.4byte	.LFE68
 2830 0038 00000000 		.4byte	.LFB69
 2831 003c 78000000 		.4byte	.LFE69
 2832 0040 00000000 		.4byte	.LFB70
 2833 0044 5C000000 		.4byte	.LFE70
 2834 0048 00000000 		.4byte	.LFB71
 2835 004c 5C000000 		.4byte	.LFE71
 2836 0050 00000000 		.4byte	0x0
 2837 0054 00000000 		.4byte	0x0
 2838              		.section	.debug_str,"MS",%progbits,1
 2839              	.LASF21:
 2840 0000 4750494F 		.ascii	"GPIO_TypeDef\000"
 2840      5F547970 
 2840      65446566 
 2840      00
ARM GAS  C:\Users\z80\AppData\Local\Temp\ccQPbzmi.s 			page 53


 2841              	.LASF60:
 2842 000d 73737061 		.ascii	"sspad\000"
 2842      6400
 2843              	.LASF72:
 2844 0013 73706953 		.ascii	"spiStartSend\000"
 2844      74617274 
 2844      53656E64 
 2844      00
 2845              	.LASF53:
 2846 0020 646D6172 		.ascii	"dmarx\000"
 2846      7800
 2847              	.LASF51:
 2848 0026 73746174 		.ascii	"state\000"
 2848      6500
 2849              	.LASF5:
 2850 002c 73686F72 		.ascii	"short int\000"
 2850      7420696E 
 2850      7400
 2851              	.LASF2:
 2852 0036 73697A65 		.ascii	"size_t\000"
 2852      5F7400
 2853              	.LASF78:
 2854 003d 73706949 		.ascii	"spiInit\000"
 2854      6E697400 
 2855              	.LASF32:
 2856 0045 49325343 		.ascii	"I2SCFGR\000"
 2856      46475200 
 2857              	.LASF30:
 2858 004d 54584352 		.ascii	"TXCRCR\000"
 2858      435200
 2859              	.LASF52:
 2860 0054 636F6E66 		.ascii	"config\000"
 2860      696700
 2861              	.LASF28:
 2862 005b 52584352 		.ascii	"RXCRCR\000"
 2862      435200
 2863              	.LASF56:
 2864 0062 7478646D 		.ascii	"txdmamode\000"
 2864      616D6F64 
 2864      6500
 2865              	.LASF42:
 2866 006c 73746D33 		.ascii	"stm32_dma_stream_t\000"
 2866      325F646D 
 2866      615F7374 
 2866      7265616D 
 2866      5F7400
 2867              	.LASF3:
 2868 007f 75696E74 		.ascii	"uint8_t\000"
 2868      385F7400 
 2869              	.LASF66:
 2870 0087 73706953 		.ascii	"spiSelect\000"
 2870      656C6563 
 2870      7400
 2871              	.LASF41:
 2872 0091 76656374 		.ascii	"vector\000"
 2872      6F7200
 2873              	.LASF1:
ARM GAS  C:\Users\z80\AppData\Local\Temp\ccQPbzmi.s 			page 54


 2874 0098 7369676E 		.ascii	"signed char\000"
 2874      65642063 
 2874      68617200 
 2875              	.LASF61:
 2876 00a4 53504943 		.ascii	"SPIConfig\000"
 2876      6F6E6669 
 2876      6700
 2877              	.LASF12:
 2878 00ae 6C6F6E67 		.ascii	"long long int\000"
 2878      206C6F6E 
 2878      6720696E 
 2878      7400
 2879              	.LASF69:
 2880 00bc 73706953 		.ascii	"spiStartExchange\000"
 2880      74617274 
 2880      45786368 
 2880      616E6765 
 2880      00
 2881              	.LASF9:
 2882 00cd 6C6F6E67 		.ascii	"long int\000"
 2882      20696E74 
 2882      00
 2883              	.LASF76:
 2884 00d6 2E2E2F63 		.ascii	"../chibios_2.4.x/os/hal/src/spi.c\000"
 2884      68696269 
 2884      6F735F32 
 2884      2E342E78 
 2884      2F6F732F 
 2885              	.LASF57:
 2886 00f8 73706963 		.ascii	"spicallback_t\000"
 2886      616C6C62 
 2886      61636B5F 
 2886      7400
 2887              	.LASF55:
 2888 0106 7278646D 		.ascii	"rxdmamode\000"
 2888      616D6F64 
 2888      6500
 2889              	.LASF16:
 2890 0110 43504152 		.ascii	"CPAR\000"
 2890      00
 2891              	.LASF38:
 2892 0115 69666372 		.ascii	"ifcr\000"
 2892      00
 2893              	.LASF43:
 2894 011a 696F706F 		.ascii	"ioportid_t\000"
 2894      72746964 
 2894      5F7400
 2895              	.LASF63:
 2896 0125 73706953 		.ascii	"spiStart\000"
 2896      74617274 
 2896      00
 2897              	.LASF4:
 2898 012e 756E7369 		.ascii	"unsigned char\000"
 2898      676E6564 
 2898      20636861 
 2898      7200
 2899              	.LASF36:
ARM GAS  C:\Users\z80\AppData\Local\Temp\ccQPbzmi.s 			page 55


 2900 013c 5350495F 		.ascii	"SPI_TypeDef\000"
 2900      54797065 
 2900      44656600 
 2901              	.LASF64:
 2902 0148 73706970 		.ascii	"spip\000"
 2902      00
 2903              	.LASF67:
 2904 014d 73706955 		.ascii	"spiUnselect\000"
 2904      6E73656C 
 2904      65637400 
 2905              	.LASF13:
 2906 0159 6C6F6E67 		.ascii	"long long unsigned int\000"
 2906      206C6F6E 
 2906      6720756E 
 2906      7369676E 
 2906      65642069 
 2907              	.LASF10:
 2908 0170 75696E74 		.ascii	"uint32_t\000"
 2908      33325F74 
 2908      00
 2909              	.LASF40:
 2910 0179 73656C66 		.ascii	"selfindex\000"
 2910      696E6465 
 2910      7800
 2911              	.LASF0:
 2912 0183 756E7369 		.ascii	"unsigned int\000"
 2912      676E6564 
 2912      20696E74 
 2912      00
 2913              	.LASF44:
 2914 0190 5350495F 		.ascii	"SPI_UNINIT\000"
 2914      554E494E 
 2914      495400
 2915              	.LASF11:
 2916 019b 6C6F6E67 		.ascii	"long unsigned int\000"
 2916      20756E73 
 2916      69676E65 
 2916      6420696E 
 2916      7400
 2917              	.LASF54:
 2918 01ad 646D6174 		.ascii	"dmatx\000"
 2918      7800
 2919              	.LASF68:
 2920 01b3 73706953 		.ascii	"spiStartIgnore\000"
 2920      74617274 
 2920      49676E6F 
 2920      726500
 2921              	.LASF45:
 2922 01c2 5350495F 		.ascii	"SPI_STOP\000"
 2922      53544F50 
 2922      00
 2923              	.LASF18:
 2924 01cb 444D415F 		.ascii	"DMA_Channel_TypeDef\000"
 2924      4368616E 
 2924      6E656C5F 
 2924      54797065 
 2924      44656600 
ARM GAS  C:\Users\z80\AppData\Local\Temp\ccQPbzmi.s 			page 56


 2925              	.LASF70:
 2926 01df 74786275 		.ascii	"txbuf\000"
 2926      6600
 2927              	.LASF65:
 2928 01e5 73706953 		.ascii	"spiStop\000"
 2928      746F7000 
 2929              	.LASF48:
 2930 01ed 5350495F 		.ascii	"SPI_COMPLETE\000"
 2930      434F4D50 
 2930      4C455445 
 2930      00
 2931              	.LASF15:
 2932 01fa 434E4454 		.ascii	"CNDTR\000"
 2932      5200
 2933              	.LASF14:
 2934 0200 63686172 		.ascii	"char\000"
 2934      00
 2935              	.LASF6:
 2936 0205 75696E74 		.ascii	"uint16_t\000"
 2936      31365F74 
 2936      00
 2937              	.LASF8:
 2938 020e 696E7433 		.ascii	"int32_t\000"
 2938      325F7400 
 2939              	.LASF46:
 2940 0216 5350495F 		.ascii	"SPI_READY\000"
 2940      52454144 
 2940      5900
 2941              	.LASF62:
 2942 0220 7370694F 		.ascii	"spiObjectInit\000"
 2942      626A6563 
 2942      74496E69 
 2942      7400
 2943              	.LASF47:
 2944 022e 5350495F 		.ascii	"SPI_ACTIVE\000"
 2944      41435449 
 2944      564500
 2945              	.LASF50:
 2946 0239 53504944 		.ascii	"SPIDriver\000"
 2946      72697665 
 2946      7200
 2947              	.LASF37:
 2948 0243 6368616E 		.ascii	"channel\000"
 2948      6E656C00 
 2949              	.LASF26:
 2950 024b 43524350 		.ascii	"CRCPR\000"
 2950      5200
 2951              	.LASF22:
 2952 0251 52455345 		.ascii	"RESERVED0\000"
 2952      52564544 
 2952      3000
 2953              	.LASF23:
 2954 025b 52455345 		.ascii	"RESERVED1\000"
 2954      52564544 
 2954      3100
 2955              	.LASF24:
 2956 0265 52455345 		.ascii	"RESERVED2\000"
ARM GAS  C:\Users\z80\AppData\Local\Temp\ccQPbzmi.s 			page 57


 2956      52564544 
 2956      3200
 2957              	.LASF25:
 2958 026f 52455345 		.ascii	"RESERVED3\000"
 2958      52564544 
 2958      3300
 2959              	.LASF27:
 2960 0279 52455345 		.ascii	"RESERVED4\000"
 2960      52564544 
 2960      3400
 2961              	.LASF29:
 2962 0283 52455345 		.ascii	"RESERVED5\000"
 2962      52564544 
 2962      3500
 2963              	.LASF31:
 2964 028d 52455345 		.ascii	"RESERVED6\000"
 2964      52564544 
 2964      3600
 2965              	.LASF33:
 2966 0297 52455345 		.ascii	"RESERVED7\000"
 2966      52564544 
 2966      3700
 2967              	.LASF35:
 2968 02a1 52455345 		.ascii	"RESERVED8\000"
 2968      52564544 
 2968      3800
 2969              	.LASF77:
 2970 02ab 433A5C70 		.ascii	"C:\\projects\\digitizer.git\\firmware\\digitizer\000"
 2970      726F6A65 
 2970      6374735C 
 2970      64696769 
 2970      74697A65 
 2971              	.LASF75:
 2972 02d8 474E5520 		.ascii	"GNU C 4.5.0\000"
 2972      4320342E 
 2972      352E3000 
 2973              	.LASF17:
 2974 02e4 434D4152 		.ascii	"CMAR\000"
 2974      00
 2975              	.LASF73:
 2976 02e9 73706953 		.ascii	"spiStartReceive\000"
 2976      74617274 
 2976      52656365 
 2976      69766500 
 2977              	.LASF49:
 2978 02f9 73706973 		.ascii	"spistate_t\000"
 2978      74617465 
 2978      5F7400
 2979              	.LASF7:
 2980 0304 73686F72 		.ascii	"short unsigned int\000"
 2980      7420756E 
 2980      7369676E 
 2980      65642069 
 2980      6E7400
 2981              	.LASF71:
 2982 0317 72786275 		.ascii	"rxbuf\000"
 2982      6600
ARM GAS  C:\Users\z80\AppData\Local\Temp\ccQPbzmi.s 			page 58


 2983              	.LASF39:
 2984 031d 69736869 		.ascii	"ishift\000"
 2984      667400
 2985              	.LASF74:
 2986 0324 49544D5F 		.ascii	"ITM_RxBuffer\000"
 2986      52784275 
 2986      66666572 
 2986      00
 2987              	.LASF59:
 2988 0331 7373706F 		.ascii	"ssport\000"
 2988      727400
 2989              	.LASF58:
 2990 0338 656E645F 		.ascii	"end_cb\000"
 2990      636200
 2991              	.LASF34:
 2992 033f 49325350 		.ascii	"I2SPR\000"
 2992      5200
 2993              	.LASF20:
 2994 0345 4C434B52 		.ascii	"LCKR\000"
 2994      00
 2995              	.LASF19:
 2996 034a 42535252 		.ascii	"BSRR\000"
 2996      00
 2997              		.ident	"GCC: (GNU) 4.5.0"
ARM GAS  C:\Users\z80\AppData\Local\Temp\ccQPbzmi.s 			page 59


DEFINED SYMBOLS
                            *ABS*:00000000 spi.c
C:\Users\z80\AppData\Local\Temp\ccQPbzmi.s:24     .text.spiInit:00000000 $t
C:\Users\z80\AppData\Local\Temp\ccQPbzmi.s:30     .text.spiInit:00000000 spiInit
C:\Users\z80\AppData\Local\Temp\ccQPbzmi.s:50     .text.spiObjectInit:00000000 $t
C:\Users\z80\AppData\Local\Temp\ccQPbzmi.s:56     .text.spiObjectInit:00000000 spiObjectInit
C:\Users\z80\AppData\Local\Temp\ccQPbzmi.s:76     .text.spiStart:00000000 $t
C:\Users\z80\AppData\Local\Temp\ccQPbzmi.s:82     .text.spiStart:00000000 spiStart
C:\Users\z80\AppData\Local\Temp\ccQPbzmi.s:163    .text.spiStart:00000054 $d
C:\Users\z80\AppData\Local\Temp\ccQPbzmi.s:169    .text.spiStop:00000000 $t
C:\Users\z80\AppData\Local\Temp\ccQPbzmi.s:175    .text.spiStop:00000000 spiStop
C:\Users\z80\AppData\Local\Temp\ccQPbzmi.s:246    .text.spiStop:00000044 $d
C:\Users\z80\AppData\Local\Temp\ccQPbzmi.s:252    .text.spiSelect:00000000 $t
C:\Users\z80\AppData\Local\Temp\ccQPbzmi.s:258    .text.spiSelect:00000000 spiSelect
C:\Users\z80\AppData\Local\Temp\ccQPbzmi.s:321    .text.spiSelect:00000038 $d
C:\Users\z80\AppData\Local\Temp\ccQPbzmi.s:327    .text.spiUnselect:00000000 $t
C:\Users\z80\AppData\Local\Temp\ccQPbzmi.s:333    .text.spiUnselect:00000000 spiUnselect
C:\Users\z80\AppData\Local\Temp\ccQPbzmi.s:396    .text.spiUnselect:00000038 $d
C:\Users\z80\AppData\Local\Temp\ccQPbzmi.s:402    .text.spiStartIgnore:00000000 $t
C:\Users\z80\AppData\Local\Temp\ccQPbzmi.s:408    .text.spiStartIgnore:00000000 spiStartIgnore
C:\Users\z80\AppData\Local\Temp\ccQPbzmi.s:484    .text.spiStartIgnore:00000050 $d
C:\Users\z80\AppData\Local\Temp\ccQPbzmi.s:490    .text.spiStartExchange:00000000 $t
C:\Users\z80\AppData\Local\Temp\ccQPbzmi.s:496    .text.spiStartExchange:00000000 spiStartExchange
C:\Users\z80\AppData\Local\Temp\ccQPbzmi.s:590    .text.spiStartExchange:00000070 $d
C:\Users\z80\AppData\Local\Temp\ccQPbzmi.s:596    .text.spiStartSend:00000000 $t
C:\Users\z80\AppData\Local\Temp\ccQPbzmi.s:602    .text.spiStartSend:00000000 spiStartSend
C:\Users\z80\AppData\Local\Temp\ccQPbzmi.s:683    .text.spiStartSend:00000054 $d
C:\Users\z80\AppData\Local\Temp\ccQPbzmi.s:689    .text.spiStartReceive:00000000 $t
C:\Users\z80\AppData\Local\Temp\ccQPbzmi.s:695    .text.spiStartReceive:00000000 spiStartReceive
C:\Users\z80\AppData\Local\Temp\ccQPbzmi.s:776    .text.spiStartReceive:00000054 $d
C:\Users\z80\AppData\Local\Temp\ccQPbzmi.s:782    .rodata.str1.4:00000000 $d
                     .debug_frame:00000010 $d
C:\Users\z80\AppData\Local\Temp\ccQPbzmi.s:168    .text.spiStart:0000005c $t
C:\Users\z80\AppData\Local\Temp\ccQPbzmi.s:251    .text.spiStop:0000004c $t
C:\Users\z80\AppData\Local\Temp\ccQPbzmi.s:489    .text.spiStartIgnore:00000058 $t
C:\Users\z80\AppData\Local\Temp\ccQPbzmi.s:595    .text.spiStartExchange:00000078 $t
C:\Users\z80\AppData\Local\Temp\ccQPbzmi.s:688    .text.spiStartSend:0000005c $t
C:\Users\z80\AppData\Local\Temp\ccQPbzmi.s:781    .text.spiStartReceive:0000005c $t

UNDEFINED SYMBOLS
spi_lld_init
dbg_check_lock
chDbgPanic
spi_lld_start
dbg_check_unlock
spi_lld_unselect
spi_lld_stop
spi_lld_select
spi_lld_ignore
spi_lld_exchange
spi_lld_send
spi_lld_receive
