ARM GAS  C:\Users\z80\AppData\Local\Temp\cc8scWge.s 			page 1


   1              		.syntax unified
   2              		.cpu cortex-m3
   3              		.fpu softvfp
   4              		.eabi_attribute 20, 1
   5              		.eabi_attribute 21, 1
   6              		.eabi_attribute 23, 3
   7              		.eabi_attribute 24, 1
   8              		.eabi_attribute 25, 1
   9              		.eabi_attribute 26, 1
  10              		.eabi_attribute 30, 2
  11              		.eabi_attribute 18, 4
  12              		.thumb
  13              		.file	"spi.c"
  14              		.section	.debug_abbrev,"",%progbits
  15              	.Ldebug_abbrev0:
  16              		.section	.debug_info,"",%progbits
  17              	.Ldebug_info0:
  18              		.section	.debug_line,"",%progbits
  19              	.Ldebug_line0:
  20 0000 61050000 		.text
  20      02008B02 
  20      00000201 
  20      FB0E0D00 
  20      01010101 
  21              	.Ltext0:
  22              		.cfi_sections	.debug_frame
  23              		.section	.text.spiInit,"ax",%progbits
  24              		.align	2
  25              		.p2align 4,,15
  26              		.global	spiInit
  27              		.thumb
  28              		.thumb_func
  29              		.type	spiInit, %function
  30              	spiInit:
  31              	.LFB62:
  32              		.file 1 "../chibios_2.4.x/os/hal/src/spi.c"
  33              		.loc 1 68 0
  34              		.cfi_startproc
  35              		@ args = 0, pretend = 0, frame = 0
  36              		@ frame_needed = 0, uses_anonymous_args = 0
  37 0000 08B5     		push	{r3, lr}
  38              	.LCFI0:
  39              		.cfi_def_cfa_offset 8
  40              		.loc 1 70 0
  41              		.cfi_offset 14, -4
  42              		.cfi_offset 3, -8
  43 0002 FFF7FEFF 		bl	spi_lld_init
  44              		.loc 1 71 0
  45 0006 08BD     		pop	{r3, pc}
  46              		.cfi_endproc
  47              	.LFE62:
  48              		.size	spiInit, .-spiInit
  49 0008 AFF30080 		.section	.text.spiObjectInit,"ax",%progbits
  49      AFF30080 
  50              		.align	2
  51              		.p2align 4,,15
  52              		.global	spiObjectInit
ARM GAS  C:\Users\z80\AppData\Local\Temp\cc8scWge.s 			page 2


  53              		.thumb
  54              		.thumb_func
  55              		.type	spiObjectInit, %function
  56              	spiObjectInit:
  57              	.LFB63:
  58              		.loc 1 80 0
  59              		.cfi_startproc
  60              		@ args = 0, pretend = 0, frame = 0
  61              		@ frame_needed = 0, uses_anonymous_args = 0
  62              	.LVL0:
  63 0000 08B5     		push	{r3, lr}
  64              	.LCFI1:
  65              		.cfi_def_cfa_offset 8
  66              		.loc 1 83 0
  67 0002 0022     		movs	r2, #0
  68              		.loc 1 80 0
  69 0004 0346     		mov	r3, r0
  70              		.cfi_offset 14, -4
  71              		.cfi_offset 3, -8
  72              		.loc 1 82 0
  73 0006 0121     		movs	r1, #1
  74              		.loc 1 89 0
  75 0008 00F10C00 		add	r0, r0, #12
  76              	.LVL1:
  77              		.loc 1 82 0
  78 000c 1970     		strb	r1, [r3, #0]
  79              		.loc 1 83 0
  80 000e 5A60     		str	r2, [r3, #4]
  81              		.loc 1 85 0
  82 0010 9A60     		str	r2, [r3, #8]
  83              		.loc 1 89 0
  84 0012 FFF7FEFF 		bl	chMtxInit
  85              	.LVL2:
  86              		.loc 1 97 0
  87 0016 08BD     		pop	{r3, pc}
  88              		.cfi_endproc
  89              	.LFE63:
  90              		.size	spiObjectInit, .-spiObjectInit
  91 0018 AFF30080 		.section	.text.spiStart,"ax",%progbits
  91      AFF30080 
  92              		.align	2
  93              		.p2align 4,,15
  94              		.global	spiStart
  95              		.thumb
  96              		.thumb_func
  97              		.type	spiStart, %function
  98              	spiStart:
  99              	.LFB64:
 100              		.loc 1 107 0
 101              		.cfi_startproc
 102              		@ args = 0, pretend = 0, frame = 0
 103              		@ frame_needed = 0, uses_anonymous_args = 0
 104              	.LVL3:
 105 0000 38B5     		push	{r3, r4, r5, lr}
 106              	.LCFI2:
 107              		.cfi_def_cfa_offset 16
 108              		.loc 1 109 0
ARM GAS  C:\Users\z80\AppData\Local\Temp\cc8scWge.s 			page 3


 109 0002 D0F10103 		rsbs	r3, r0, #1
 110 0006 38BF     		it	cc
 111 0008 0023     		movcc	r3, #0
 112              		.cfi_offset 14, -4
 113              		.cfi_offset 5, -8
 114              		.cfi_offset 4, -12
 115              		.cfi_offset 3, -16
 116 000a 0029     		cmp	r1, #0
 117 000c 08BF     		it	eq
 118 000e 43F00103 		orreq	r3, r3, #1
 119              		.loc 1 107 0
 120 0012 0446     		mov	r4, r0
 121 0014 0D46     		mov	r5, r1
 122              		.loc 1 109 0
 123 0016 C3B9     		cbnz	r3, .L7
 124              	.LVL4:
 125              	.L4:
 126              	.LBB2:
 127              		.loc 1 111 0
 128 0018 2023     		movs	r3, #32
 129              	.LVL5:
 130              	@ 111 "../chibios_2.4.x/os/hal/src/spi.c" 1
 131 001a 83F31188 		msr     BASEPRI, r3
 132              	@ 0 "" 2
 133              	.LVL6:
 134              		.thumb
 135              	.LBE2:
 136 001e FFF7FEFF 		bl	dbg_check_lock
 137              	.LVL7:
 138              		.loc 1 112 0
 139 0022 2378     		ldrb	r3, [r4, #0]	@ zero_extendqisi2
 140 0024 013B     		subs	r3, r3, #1
 141 0026 DBB2     		uxtb	r3, r3
 142 0028 012B     		cmp	r3, #1
 143 002a 02D9     		bls	.L5
 144              		.loc 1 112 0 is_stmt 0 discriminator 1
 145 002c 0948     		ldr	r0, .L8
 146 002e FFF7FEFF 		bl	chDbgPanic
 147              	.L5:
 148              		.loc 1 115 0 is_stmt 1
 149 0032 2046     		mov	r0, r4
 150              		.loc 1 114 0
 151 0034 6560     		str	r5, [r4, #4]
 152              		.loc 1 115 0
 153 0036 FFF7FEFF 		bl	spi_lld_start
 154              		.loc 1 116 0
 155 003a 0223     		movs	r3, #2
 156 003c 2370     		strb	r3, [r4, #0]
 157              		.loc 1 117 0
 158 003e FFF7FEFF 		bl	dbg_check_unlock
 159              	.LBB3:
 160 0042 0023     		movs	r3, #0
 161              	.LVL8:
 162              	@ 117 "../chibios_2.4.x/os/hal/src/spi.c" 1
 163 0044 83F31188 		msr     BASEPRI, r3
 164              	@ 0 "" 2
 165              	.LVL9:
ARM GAS  C:\Users\z80\AppData\Local\Temp\cc8scWge.s 			page 4


 166              		.thumb
 167              	.LBE3:
 168              		.loc 1 118 0
 169 0048 38BD     		pop	{r3, r4, r5, pc}
 170              	.LVL10:
 171              	.L7:
 172              		.loc 1 109 0 discriminator 1
 173 004a 0348     		ldr	r0, .L8+4
 174 004c FFF7FEFF 		bl	chDbgPanic
 175 0050 E2E7     		b	.L4
 176              	.L9:
 177 0052 00BF     		.align	2
 178              	.L8:
 179 0054 10000000 		.word	.LC1
 180 0058 00000000 		.word	.LC0
 181              		.cfi_endproc
 182              	.LFE64:
 183              		.size	spiStart, .-spiStart
 184 005c AFF30080 		.section	.text.spiStop,"ax",%progbits
 185              		.align	2
 186              		.p2align 4,,15
 187              		.global	spiStop
 188              		.thumb
 189              		.thumb_func
 190              		.type	spiStop, %function
 191              	spiStop:
 192              	.LFB65:
 193              		.loc 1 129 0
 194              		.cfi_startproc
 195              		@ args = 0, pretend = 0, frame = 0
 196              		@ frame_needed = 0, uses_anonymous_args = 0
 197              	.LVL11:
 198 0000 10B5     		push	{r4, lr}
 199              	.LCFI3:
 200              		.cfi_def_cfa_offset 8
 201              		.loc 1 129 0
 202 0002 0446     		mov	r4, r0
 203              		.cfi_offset 14, -4
 204              		.cfi_offset 4, -8
 205              		.loc 1 131 0
 206 0004 D0B1     		cbz	r0, .L13
 207              	.LVL12:
 208              	.L11:
 209              	.LBB4:
 210              		.loc 1 133 0
 211 0006 2023     		movs	r3, #32
 212              	.LVL13:
 213              	@ 133 "../chibios_2.4.x/os/hal/src/spi.c" 1
 214 0008 83F31188 		msr     BASEPRI, r3
 215              	@ 0 "" 2
 216              	.LVL14:
 217              		.thumb
 218              	.LBE4:
 219 000c FFF7FEFF 		bl	dbg_check_lock
 220              	.LVL15:
 221              		.loc 1 134 0
 222 0010 2378     		ldrb	r3, [r4, #0]	@ zero_extendqisi2
ARM GAS  C:\Users\z80\AppData\Local\Temp\cc8scWge.s 			page 5


 223 0012 013B     		subs	r3, r3, #1
 224 0014 DBB2     		uxtb	r3, r3
 225 0016 012B     		cmp	r3, #1
 226 0018 02D9     		bls	.L12
 227              		.loc 1 134 0 is_stmt 0 discriminator 1
 228 001a 0A48     		ldr	r0, .L14
 229 001c FFF7FEFF 		bl	chDbgPanic
 230              	.L12:
 231              		.loc 1 136 0 is_stmt 1
 232 0020 2046     		mov	r0, r4
 233 0022 FFF7FEFF 		bl	spi_lld_unselect
 234              		.loc 1 137 0
 235 0026 2046     		mov	r0, r4
 236 0028 FFF7FEFF 		bl	spi_lld_stop
 237              		.loc 1 138 0
 238 002c 0123     		movs	r3, #1
 239 002e 2370     		strb	r3, [r4, #0]
 240              		.loc 1 139 0
 241 0030 FFF7FEFF 		bl	dbg_check_unlock
 242              	.LBB5:
 243 0034 0023     		movs	r3, #0
 244              	.LVL16:
 245              	@ 139 "../chibios_2.4.x/os/hal/src/spi.c" 1
 246 0036 83F31188 		msr     BASEPRI, r3
 247              	@ 0 "" 2
 248              	.LVL17:
 249              		.thumb
 250              	.LBE5:
 251              		.loc 1 140 0
 252 003a 10BD     		pop	{r4, pc}
 253              	.LVL18:
 254              	.L13:
 255              		.loc 1 131 0 discriminator 1
 256 003c 0248     		ldr	r0, .L14+4
 257 003e FFF7FEFF 		bl	chDbgPanic
 258 0042 E0E7     		b	.L11
 259              	.L15:
 260              		.align	2
 261              	.L14:
 262 0044 2C000000 		.word	.LC3
 263 0048 20000000 		.word	.LC2
 264              		.cfi_endproc
 265              	.LFE65:
 266              		.size	spiStop, .-spiStop
 267 004c AFF30080 		.section	.text.spiSelect,"ax",%progbits
 268              		.align	2
 269              		.p2align 4,,15
 270              		.global	spiSelect
 271              		.thumb
 272              		.thumb_func
 273              		.type	spiSelect, %function
 274              	spiSelect:
 275              	.LFB66:
 276              		.loc 1 149 0
 277              		.cfi_startproc
 278              		@ args = 0, pretend = 0, frame = 0
 279              		@ frame_needed = 0, uses_anonymous_args = 0
ARM GAS  C:\Users\z80\AppData\Local\Temp\cc8scWge.s 			page 6


 280              	.LVL19:
 281 0000 10B5     		push	{r4, lr}
 282              	.LCFI4:
 283              		.cfi_def_cfa_offset 8
 284              		.loc 1 149 0
 285 0002 0446     		mov	r4, r0
 286              		.cfi_offset 14, -4
 287              		.cfi_offset 4, -8
 288              		.loc 1 151 0
 289 0004 98B1     		cbz	r0, .L19
 290              	.LVL20:
 291              	.L17:
 292              	.LBB6:
 293              		.loc 1 153 0
 294 0006 2023     		movs	r3, #32
 295              	.LVL21:
 296              	@ 153 "../chibios_2.4.x/os/hal/src/spi.c" 1
 297 0008 83F31188 		msr     BASEPRI, r3
 298              	@ 0 "" 2
 299              	.LVL22:
 300              		.thumb
 301              	.LBE6:
 302 000c FFF7FEFF 		bl	dbg_check_lock
 303              	.LVL23:
 304              		.loc 1 154 0
 305 0010 2378     		ldrb	r3, [r4, #0]	@ zero_extendqisi2
 306 0012 022B     		cmp	r3, #2
 307 0014 02D0     		beq	.L18
 308              		.loc 1 154 0 is_stmt 0 discriminator 1
 309 0016 0848     		ldr	r0, .L20
 310 0018 FFF7FEFF 		bl	chDbgPanic
 311              	.L18:
 312              		.loc 1 155 0 is_stmt 1
 313 001c 2046     		mov	r0, r4
 314 001e FFF7FEFF 		bl	spi_lld_select
 315              		.loc 1 156 0
 316 0022 FFF7FEFF 		bl	dbg_check_unlock
 317              	.LBB7:
 318 0026 0023     		movs	r3, #0
 319              	.LVL24:
 320              	@ 156 "../chibios_2.4.x/os/hal/src/spi.c" 1
 321 0028 83F31188 		msr     BASEPRI, r3
 322              	@ 0 "" 2
 323              	.LVL25:
 324              		.thumb
 325              	.LBE7:
 326              		.loc 1 157 0
 327 002c 10BD     		pop	{r4, pc}
 328              	.LVL26:
 329              	.L19:
 330              		.loc 1 151 0 discriminator 1
 331 002e 0348     		ldr	r0, .L20+4
 332 0030 FFF7FEFF 		bl	chDbgPanic
 333 0034 E7E7     		b	.L17
 334              	.L21:
 335 0036 00BF     		.align	2
 336              	.L20:
ARM GAS  C:\Users\z80\AppData\Local\Temp\cc8scWge.s 			page 7


 337 0038 4C000000 		.word	.LC5
 338 003c 3C000000 		.word	.LC4
 339              		.cfi_endproc
 340              	.LFE66:
 341              		.size	spiSelect, .-spiSelect
 342              		.section	.text.spiUnselect,"ax",%progbits
 343              		.align	2
 344              		.p2align 4,,15
 345              		.global	spiUnselect
 346              		.thumb
 347              		.thumb_func
 348              		.type	spiUnselect, %function
 349              	spiUnselect:
 350              	.LFB67:
 351              		.loc 1 167 0
 352              		.cfi_startproc
 353              		@ args = 0, pretend = 0, frame = 0
 354              		@ frame_needed = 0, uses_anonymous_args = 0
 355              	.LVL27:
 356 0000 10B5     		push	{r4, lr}
 357              	.LCFI5:
 358              		.cfi_def_cfa_offset 8
 359              		.loc 1 167 0
 360 0002 0446     		mov	r4, r0
 361              		.cfi_offset 14, -4
 362              		.cfi_offset 4, -8
 363              		.loc 1 169 0
 364 0004 98B1     		cbz	r0, .L25
 365              	.LVL28:
 366              	.L23:
 367              	.LBB8:
 368              		.loc 1 171 0
 369 0006 2023     		movs	r3, #32
 370              	.LVL29:
 371              	@ 171 "../chibios_2.4.x/os/hal/src/spi.c" 1
 372 0008 83F31188 		msr     BASEPRI, r3
 373              	@ 0 "" 2
 374              	.LVL30:
 375              		.thumb
 376              	.LBE8:
 377 000c FFF7FEFF 		bl	dbg_check_lock
 378              	.LVL31:
 379              		.loc 1 172 0
 380 0010 2378     		ldrb	r3, [r4, #0]	@ zero_extendqisi2
 381 0012 022B     		cmp	r3, #2
 382 0014 02D0     		beq	.L24
 383              		.loc 1 172 0 is_stmt 0 discriminator 1
 384 0016 0848     		ldr	r0, .L26
 385 0018 FFF7FEFF 		bl	chDbgPanic
 386              	.L24:
 387              		.loc 1 173 0 is_stmt 1
 388 001c 2046     		mov	r0, r4
 389 001e FFF7FEFF 		bl	spi_lld_unselect
 390              		.loc 1 174 0
 391 0022 FFF7FEFF 		bl	dbg_check_unlock
 392              	.LBB9:
 393 0026 0023     		movs	r3, #0
ARM GAS  C:\Users\z80\AppData\Local\Temp\cc8scWge.s 			page 8


 394              	.LVL32:
 395              	@ 174 "../chibios_2.4.x/os/hal/src/spi.c" 1
 396 0028 83F31188 		msr     BASEPRI, r3
 397              	@ 0 "" 2
 398              	.LVL33:
 399              		.thumb
 400              	.LBE9:
 401              		.loc 1 175 0
 402 002c 10BD     		pop	{r4, pc}
 403              	.LVL34:
 404              	.L25:
 405              		.loc 1 169 0 discriminator 1
 406 002e 0348     		ldr	r0, .L26+4
 407 0030 FFF7FEFF 		bl	chDbgPanic
 408 0034 E7E7     		b	.L23
 409              	.L27:
 410 0036 00BF     		.align	2
 411              	.L26:
 412 0038 6C000000 		.word	.LC7
 413 003c 5C000000 		.word	.LC6
 414              		.cfi_endproc
 415              	.LFE67:
 416              		.size	spiUnselect, .-spiUnselect
 417              		.section	.text.spiStartIgnore,"ax",%progbits
 418              		.align	2
 419              		.p2align 4,,15
 420              		.global	spiStartIgnore
 421              		.thumb
 422              		.thumb_func
 423              		.type	spiStartIgnore, %function
 424              	spiStartIgnore:
 425              	.LFB68:
 426              		.loc 1 190 0
 427              		.cfi_startproc
 428              		@ args = 0, pretend = 0, frame = 0
 429              		@ frame_needed = 0, uses_anonymous_args = 0
 430              	.LVL35:
 431 0000 38B5     		push	{r3, r4, r5, lr}
 432              	.LCFI6:
 433              		.cfi_def_cfa_offset 16
 434              		.loc 1 192 0
 435 0002 D0F10103 		rsbs	r3, r0, #1
 436 0006 38BF     		it	cc
 437 0008 0023     		movcc	r3, #0
 438              		.cfi_offset 14, -4
 439              		.cfi_offset 5, -8
 440              		.cfi_offset 4, -12
 441              		.cfi_offset 3, -16
 442 000a 0029     		cmp	r1, #0
 443 000c 08BF     		it	eq
 444 000e 43F00103 		orreq	r3, r3, #1
 445              		.loc 1 190 0
 446 0012 0446     		mov	r4, r0
 447 0014 0D46     		mov	r5, r1
 448              		.loc 1 192 0
 449 0016 B3B9     		cbnz	r3, .L31
 450              	.LVL36:
ARM GAS  C:\Users\z80\AppData\Local\Temp\cc8scWge.s 			page 9


 451              	.L29:
 452              	.LBB10:
 453              		.loc 1 194 0
 454 0018 2023     		movs	r3, #32
 455              	.LVL37:
 456              	@ 194 "../chibios_2.4.x/os/hal/src/spi.c" 1
 457 001a 83F31188 		msr     BASEPRI, r3
 458              	@ 0 "" 2
 459              	.LVL38:
 460              		.thumb
 461              	.LBE10:
 462 001e FFF7FEFF 		bl	dbg_check_lock
 463              	.LVL39:
 464              		.loc 1 195 0
 465 0022 2378     		ldrb	r3, [r4, #0]	@ zero_extendqisi2
 466 0024 022B     		cmp	r3, #2
 467 0026 02D0     		beq	.L30
 468              		.loc 1 195 0 is_stmt 0 discriminator 1
 469 0028 0948     		ldr	r0, .L32
 470 002a FFF7FEFF 		bl	chDbgPanic
 471              	.L30:
 472              		.loc 1 196 0 is_stmt 1
 473 002e 0323     		movs	r3, #3
 474 0030 2370     		strb	r3, [r4, #0]
 475 0032 2046     		mov	r0, r4
 476 0034 2946     		mov	r1, r5
 477 0036 FFF7FEFF 		bl	spi_lld_ignore
 478              		.loc 1 197 0
 479 003a FFF7FEFF 		bl	dbg_check_unlock
 480              	.LBB11:
 481 003e 0023     		movs	r3, #0
 482              	.LVL40:
 483              	@ 197 "../chibios_2.4.x/os/hal/src/spi.c" 1
 484 0040 83F31188 		msr     BASEPRI, r3
 485              	@ 0 "" 2
 486              	.LVL41:
 487              		.thumb
 488              	.LBE11:
 489              		.loc 1 198 0
 490 0044 38BD     		pop	{r3, r4, r5, pc}
 491              	.LVL42:
 492              	.L31:
 493              		.loc 1 192 0 discriminator 1
 494 0046 0348     		ldr	r0, .L32+4
 495 0048 FFF7FEFF 		bl	chDbgPanic
 496 004c E4E7     		b	.L29
 497              	.L33:
 498 004e 00BF     		.align	2
 499              	.L32:
 500 0050 94000000 		.word	.LC9
 501 0054 80000000 		.word	.LC8
 502              		.cfi_endproc
 503              	.LFE68:
 504              		.size	spiStartIgnore, .-spiStartIgnore
 505 0058 AFF30080 		.section	.text.spiStartExchange,"ax",%progbits
 505      AFF30080 
 506              		.align	2
ARM GAS  C:\Users\z80\AppData\Local\Temp\cc8scWge.s 			page 10


 507              		.p2align 4,,15
 508              		.global	spiStartExchange
 509              		.thumb
 510              		.thumb_func
 511              		.type	spiStartExchange, %function
 512              	spiStartExchange:
 513              	.LFB69:
 514              		.loc 1 218 0
 515              		.cfi_startproc
 516              		@ args = 0, pretend = 0, frame = 0
 517              		@ frame_needed = 0, uses_anonymous_args = 0
 518              	.LVL43:
 519 0000 F8B5     		push	{r3, r4, r5, r6, r7, lr}
 520              	.LCFI7:
 521              		.cfi_def_cfa_offset 24
 522              		.loc 1 218 0
 523 0002 0D46     		mov	r5, r1
 524              		.cfi_offset 14, -4
 525              		.cfi_offset 7, -8
 526              		.cfi_offset 6, -12
 527              		.cfi_offset 5, -16
 528              		.cfi_offset 4, -20
 529              		.cfi_offset 3, -24
 530              		.loc 1 220 0
 531 0004 D0F10101 		rsbs	r1, r0, #1
 532 0008 38BF     		it	cc
 533 000a 0021     		movcc	r1, #0
 534              	.LVL44:
 535 000c 002D     		cmp	r5, #0
 536 000e 08BF     		it	eq
 537 0010 41F00101 		orreq	r1, r1, #1
 538              		.loc 1 218 0
 539 0014 0446     		mov	r4, r0
 540 0016 1646     		mov	r6, r2
 541 0018 1F46     		mov	r7, r3
 542              		.loc 1 220 0
 543 001a 0029     		cmp	r1, #0
 544 001c 23D1     		bne	.L35
 545              		.loc 1 220 0 is_stmt 0 discriminator 2
 546 001e D2F10103 		rsbs	r3, r2, #1
 547 0022 38BF     		it	cc
 548 0024 0023     		movcc	r3, #0
 549              	.LVL45:
 550 0026 002F     		cmp	r7, #0
 551 0028 08BF     		it	eq
 552 002a 43F00103 		orreq	r3, r3, #1
 553 002e D3B9     		cbnz	r3, .L35
 554              	.LVL46:
 555              	.L36:
 556              	.LBB12:
 557              		.loc 1 223 0 is_stmt 1
 558 0030 2023     		movs	r3, #32
 559              	.LVL47:
 560              	@ 223 "../chibios_2.4.x/os/hal/src/spi.c" 1
 561 0032 83F31188 		msr     BASEPRI, r3
 562              	@ 0 "" 2
 563              	.LVL48:
ARM GAS  C:\Users\z80\AppData\Local\Temp\cc8scWge.s 			page 11


 564              		.thumb
 565              	.LBE12:
 566 0036 FFF7FEFF 		bl	dbg_check_lock
 567              	.LVL49:
 568              		.loc 1 224 0
 569 003a 2378     		ldrb	r3, [r4, #0]	@ zero_extendqisi2
 570 003c 022B     		cmp	r3, #2
 571 003e 02D0     		beq	.L37
 572              		.loc 1 224 0 is_stmt 0 discriminator 1
 573 0040 0B48     		ldr	r0, .L38
 574 0042 FFF7FEFF 		bl	chDbgPanic
 575              	.L37:
 576              		.loc 1 225 0 is_stmt 1
 577 0046 4FF0030C 		mov	ip, #3
 578 004a 3B46     		mov	r3, r7
 579 004c 2046     		mov	r0, r4
 580 004e 2946     		mov	r1, r5
 581 0050 3246     		mov	r2, r6
 582 0052 84F800C0 		strb	ip, [r4, #0]
 583 0056 FFF7FEFF 		bl	spi_lld_exchange
 584              		.loc 1 226 0
 585 005a FFF7FEFF 		bl	dbg_check_unlock
 586              	.LBB13:
 587 005e 0023     		movs	r3, #0
 588              	.LVL50:
 589              	@ 226 "../chibios_2.4.x/os/hal/src/spi.c" 1
 590 0060 83F31188 		msr     BASEPRI, r3
 591              	@ 0 "" 2
 592              	.LVL51:
 593              		.thumb
 594              	.LBE13:
 595              		.loc 1 227 0
 596 0064 F8BD     		pop	{r3, r4, r5, r6, r7, pc}
 597              	.LVL52:
 598              	.L35:
 599              		.loc 1 220 0 discriminator 1
 600 0066 0348     		ldr	r0, .L38+4
 601 0068 FFF7FEFF 		bl	chDbgPanic
 602 006c E0E7     		b	.L36
 603              	.L39:
 604 006e 00BF     		.align	2
 605              	.L38:
 606 0070 C4000000 		.word	.LC11
 607 0074 AC000000 		.word	.LC10
 608              		.cfi_endproc
 609              	.LFE69:
 610              		.size	spiStartExchange, .-spiStartExchange
 611 0078 AFF30080 		.section	.text.spiStartSend,"ax",%progbits
 611      AFF30080 
 612              		.align	2
 613              		.p2align 4,,15
 614              		.global	spiStartSend
 615              		.thumb
 616              		.thumb_func
 617              		.type	spiStartSend, %function
 618              	spiStartSend:
 619              	.LFB70:
ARM GAS  C:\Users\z80\AppData\Local\Temp\cc8scWge.s 			page 12


 620              		.loc 1 244 0
 621              		.cfi_startproc
 622              		@ args = 0, pretend = 0, frame = 0
 623              		@ frame_needed = 0, uses_anonymous_args = 0
 624              	.LVL53:
 625              		.loc 1 246 0
 626 0000 D0F10103 		rsbs	r3, r0, #1
 627 0004 38BF     		it	cc
 628 0006 0023     		movcc	r3, #0
 629 0008 0029     		cmp	r1, #0
 630 000a 08BF     		it	eq
 631 000c 43F00103 		orreq	r3, r3, #1
 632              		.loc 1 244 0
 633 0010 70B5     		push	{r4, r5, r6, lr}
 634              	.LCFI8:
 635              		.cfi_def_cfa_offset 16
 636              		.loc 1 244 0
 637 0012 0446     		mov	r4, r0
 638              		.cfi_offset 14, -4
 639              		.cfi_offset 6, -8
 640              		.cfi_offset 5, -12
 641              		.cfi_offset 4, -16
 642 0014 0D46     		mov	r5, r1
 643 0016 1646     		mov	r6, r2
 644              		.loc 1 246 0
 645 0018 C3B9     		cbnz	r3, .L41
 646              		.loc 1 246 0 is_stmt 0 discriminator 2
 647 001a BAB1     		cbz	r2, .L41
 648              	.LVL54:
 649              	.L42:
 650              	.LBB14:
 651              		.loc 1 249 0 is_stmt 1
 652 001c 2023     		movs	r3, #32
 653              	.LVL55:
 654              	@ 249 "../chibios_2.4.x/os/hal/src/spi.c" 1
 655 001e 83F31188 		msr     BASEPRI, r3
 656              	@ 0 "" 2
 657              	.LVL56:
 658              		.thumb
 659              	.LBE14:
 660 0022 FFF7FEFF 		bl	dbg_check_lock
 661              	.LVL57:
 662              		.loc 1 250 0
 663 0026 2378     		ldrb	r3, [r4, #0]	@ zero_extendqisi2
 664 0028 022B     		cmp	r3, #2
 665 002a 02D0     		beq	.L43
 666              		.loc 1 250 0 is_stmt 0 discriminator 1
 667 002c 0948     		ldr	r0, .L44
 668 002e FFF7FEFF 		bl	chDbgPanic
 669              	.L43:
 670              		.loc 1 251 0 is_stmt 1
 671 0032 0323     		movs	r3, #3
 672 0034 2370     		strb	r3, [r4, #0]
 673 0036 2046     		mov	r0, r4
 674 0038 2946     		mov	r1, r5
 675 003a 3246     		mov	r2, r6
 676 003c FFF7FEFF 		bl	spi_lld_send
ARM GAS  C:\Users\z80\AppData\Local\Temp\cc8scWge.s 			page 13


 677              		.loc 1 252 0
 678 0040 FFF7FEFF 		bl	dbg_check_unlock
 679              	.LBB15:
 680 0044 0023     		movs	r3, #0
 681              	.LVL58:
 682              	@ 252 "../chibios_2.4.x/os/hal/src/spi.c" 1
 683 0046 83F31188 		msr     BASEPRI, r3
 684              	@ 0 "" 2
 685              	.LVL59:
 686              		.thumb
 687              	.LBE15:
 688              		.loc 1 253 0
 689 004a 70BD     		pop	{r4, r5, r6, pc}
 690              	.LVL60:
 691              	.L41:
 692              		.loc 1 246 0 discriminator 1
 693 004c 0248     		ldr	r0, .L44+4
 694 004e FFF7FEFF 		bl	chDbgPanic
 695 0052 E3E7     		b	.L42
 696              	.L45:
 697              		.align	2
 698              	.L44:
 699 0054 F0000000 		.word	.LC13
 700 0058 DC000000 		.word	.LC12
 701              		.cfi_endproc
 702              	.LFE70:
 703              		.size	spiStartSend, .-spiStartSend
 704 005c AFF30080 		.section	.text.spiStartReceive,"ax",%progbits
 705              		.align	2
 706              		.p2align 4,,15
 707              		.global	spiStartReceive
 708              		.thumb
 709              		.thumb_func
 710              		.type	spiStartReceive, %function
 711              	spiStartReceive:
 712              	.LFB71:
 713              		.loc 1 270 0
 714              		.cfi_startproc
 715              		@ args = 0, pretend = 0, frame = 0
 716              		@ frame_needed = 0, uses_anonymous_args = 0
 717              	.LVL61:
 718              		.loc 1 272 0
 719 0000 D0F10103 		rsbs	r3, r0, #1
 720 0004 38BF     		it	cc
 721 0006 0023     		movcc	r3, #0
 722 0008 0029     		cmp	r1, #0
 723 000a 08BF     		it	eq
 724 000c 43F00103 		orreq	r3, r3, #1
 725              		.loc 1 270 0
 726 0010 70B5     		push	{r4, r5, r6, lr}
 727              	.LCFI9:
 728              		.cfi_def_cfa_offset 16
 729              		.loc 1 270 0
 730 0012 0446     		mov	r4, r0
 731              		.cfi_offset 14, -4
 732              		.cfi_offset 6, -8
 733              		.cfi_offset 5, -12
ARM GAS  C:\Users\z80\AppData\Local\Temp\cc8scWge.s 			page 14


 734              		.cfi_offset 4, -16
 735 0014 0D46     		mov	r5, r1
 736 0016 1646     		mov	r6, r2
 737              		.loc 1 272 0
 738 0018 C3B9     		cbnz	r3, .L47
 739              		.loc 1 272 0 is_stmt 0 discriminator 2
 740 001a BAB1     		cbz	r2, .L47
 741              	.LVL62:
 742              	.L48:
 743              	.LBB16:
 744              		.loc 1 275 0 is_stmt 1
 745 001c 2023     		movs	r3, #32
 746              	.LVL63:
 747              	@ 275 "../chibios_2.4.x/os/hal/src/spi.c" 1
 748 001e 83F31188 		msr     BASEPRI, r3
 749              	@ 0 "" 2
 750              	.LVL64:
 751              		.thumb
 752              	.LBE16:
 753 0022 FFF7FEFF 		bl	dbg_check_lock
 754              	.LVL65:
 755              		.loc 1 276 0
 756 0026 2378     		ldrb	r3, [r4, #0]	@ zero_extendqisi2
 757 0028 022B     		cmp	r3, #2
 758 002a 02D0     		beq	.L49
 759              		.loc 1 276 0 is_stmt 0 discriminator 1
 760 002c 0948     		ldr	r0, .L50
 761 002e FFF7FEFF 		bl	chDbgPanic
 762              	.L49:
 763              		.loc 1 277 0 is_stmt 1
 764 0032 0323     		movs	r3, #3
 765 0034 2370     		strb	r3, [r4, #0]
 766 0036 2046     		mov	r0, r4
 767 0038 2946     		mov	r1, r5
 768 003a 3246     		mov	r2, r6
 769 003c FFF7FEFF 		bl	spi_lld_receive
 770              		.loc 1 278 0
 771 0040 FFF7FEFF 		bl	dbg_check_unlock
 772              	.LBB17:
 773 0044 0023     		movs	r3, #0
 774              	.LVL66:
 775              	@ 278 "../chibios_2.4.x/os/hal/src/spi.c" 1
 776 0046 83F31188 		msr     BASEPRI, r3
 777              	@ 0 "" 2
 778              	.LVL67:
 779              		.thumb
 780              	.LBE17:
 781              		.loc 1 279 0
 782 004a 70BD     		pop	{r4, r5, r6, pc}
 783              	.LVL68:
 784              	.L47:
 785              		.loc 1 272 0 discriminator 1
 786 004c 0248     		ldr	r0, .L50+4
 787 004e FFF7FEFF 		bl	chDbgPanic
 788 0052 E3E7     		b	.L48
 789              	.L51:
 790              		.align	2
ARM GAS  C:\Users\z80\AppData\Local\Temp\cc8scWge.s 			page 15


 791              	.L50:
 792 0054 18010000 		.word	.LC15
 793 0058 04010000 		.word	.LC14
 794              		.cfi_endproc
 795              	.LFE71:
 796              		.size	spiStartReceive, .-spiStartReceive
 797 005c AFF30080 		.section	.text.spiIgnore,"ax",%progbits
 798              		.align	2
 799              		.p2align 4,,15
 800              		.global	spiIgnore
 801              		.thumb
 802              		.thumb_func
 803              		.type	spiIgnore, %function
 804              	spiIgnore:
 805              	.LFB72:
 806              		.loc 1 296 0
 807              		.cfi_startproc
 808              		@ args = 0, pretend = 0, frame = 0
 809              		@ frame_needed = 0, uses_anonymous_args = 0
 810              	.LVL69:
 811 0000 38B5     		push	{r3, r4, r5, lr}
 812              	.LCFI10:
 813              		.cfi_def_cfa_offset 16
 814              		.loc 1 298 0
 815 0002 D0F10103 		rsbs	r3, r0, #1
 816 0006 38BF     		it	cc
 817 0008 0023     		movcc	r3, #0
 818              		.cfi_offset 14, -4
 819              		.cfi_offset 5, -8
 820              		.cfi_offset 4, -12
 821              		.cfi_offset 3, -16
 822 000a 0029     		cmp	r1, #0
 823 000c 08BF     		it	eq
 824 000e 43F00103 		orreq	r3, r3, #1
 825              		.loc 1 296 0
 826 0012 0446     		mov	r4, r0
 827 0014 0D46     		mov	r5, r1
 828              		.loc 1 298 0
 829 0016 002B     		cmp	r3, #0
 830 0018 27D1     		bne	.L57
 831              	.LVL70:
 832              	.L53:
 833              	.LBB18:
 834              		.loc 1 300 0
 835 001a 2023     		movs	r3, #32
 836              	.LVL71:
 837              	@ 300 "../chibios_2.4.x/os/hal/src/spi.c" 1
 838 001c 83F31188 		msr     BASEPRI, r3
 839              	@ 0 "" 2
 840              	.LVL72:
 841              		.thumb
 842              	.LBE18:
 843 0020 FFF7FEFF 		bl	dbg_check_lock
 844              	.LVL73:
 845              		.loc 1 301 0
 846 0024 2378     		ldrb	r3, [r4, #0]	@ zero_extendqisi2
 847 0026 022B     		cmp	r3, #2
ARM GAS  C:\Users\z80\AppData\Local\Temp\cc8scWge.s 			page 16


 848 0028 02D0     		beq	.L54
 849              		.loc 1 301 0 is_stmt 0 discriminator 1
 850 002a 1248     		ldr	r0, .L58
 851 002c FFF7FEFF 		bl	chDbgPanic
 852              	.L54:
 853              		.loc 1 302 0 is_stmt 1
 854 0030 6368     		ldr	r3, [r4, #4]
 855 0032 1B68     		ldr	r3, [r3, #0]
 856 0034 13B1     		cbz	r3, .L55
 857              		.loc 1 302 0 is_stmt 0 discriminator 1
 858 0036 1048     		ldr	r0, .L58+4
 859 0038 FFF7FEFF 		bl	chDbgPanic
 860              	.L55:
 861              		.loc 1 303 0 is_stmt 1
 862 003c 0323     		movs	r3, #3
 863 003e 2370     		strb	r3, [r4, #0]
 864 0040 2046     		mov	r0, r4
 865 0042 2946     		mov	r1, r5
 866 0044 FFF7FEFF 		bl	spi_lld_ignore
 867              		.loc 1 304 0
 868 0048 A368     		ldr	r3, [r4, #8]
 869 004a 13B1     		cbz	r3, .L56
 870              		.loc 1 304 0 is_stmt 0 discriminator 1
 871 004c 0B48     		ldr	r0, .L58+8
 872 004e FFF7FEFF 		bl	chDbgPanic
 873              	.L56:
 874              		.loc 1 304 0 discriminator 2
 875 0052 0B4B     		ldr	r3, .L58+12
 876 0054 0220     		movs	r0, #2
 877 0056 DB69     		ldr	r3, [r3, #28]
 878 0058 A360     		str	r3, [r4, #8]
 879 005a FFF7FEFF 		bl	chSchGoSleepS
 880              		.loc 1 305 0 is_stmt 1 discriminator 2
 881 005e FFF7FEFF 		bl	dbg_check_unlock
 882              	.LBB19:
 883 0062 0023     		movs	r3, #0
 884              	.LVL74:
 885              	@ 305 "../chibios_2.4.x/os/hal/src/spi.c" 1
 886 0064 83F31188 		msr     BASEPRI, r3
 887              	@ 0 "" 2
 888              	.LVL75:
 889              		.thumb
 890              	.LBE19:
 891              		.loc 1 306 0 discriminator 2
 892 0068 38BD     		pop	{r3, r4, r5, pc}
 893              	.LVL76:
 894              	.L57:
 895              		.loc 1 298 0 discriminator 1
 896 006a 0648     		ldr	r0, .L58+16
 897 006c FFF7FEFF 		bl	chDbgPanic
 898 0070 D3E7     		b	.L53
 899              	.L59:
 900 0072 00BF     		.align	2
 901              	.L58:
 902 0074 44010000 		.word	.LC17
 903 0078 54010000 		.word	.LC18
 904 007c 64010000 		.word	.LC19
ARM GAS  C:\Users\z80\AppData\Local\Temp\cc8scWge.s 			page 17


 905 0080 00000000 		.word	rlist
 906 0084 30010000 		.word	.LC16
 907              		.cfi_endproc
 908              	.LFE72:
 909              		.size	spiIgnore, .-spiIgnore
 910 0088 AFF30080 		.section	.text.spiExchange,"ax",%progbits
 910      AFF30080 
 911              		.align	2
 912              		.p2align 4,,15
 913              		.global	spiExchange
 914              		.thumb
 915              		.thumb_func
 916              		.type	spiExchange, %function
 917              	spiExchange:
 918              	.LFB73:
 919              		.loc 1 327 0
 920              		.cfi_startproc
 921              		@ args = 0, pretend = 0, frame = 0
 922              		@ frame_needed = 0, uses_anonymous_args = 0
 923              	.LVL77:
 924 0000 F8B5     		push	{r3, r4, r5, r6, r7, lr}
 925              	.LCFI11:
 926              		.cfi_def_cfa_offset 24
 927              		.loc 1 327 0
 928 0002 0E46     		mov	r6, r1
 929              		.cfi_offset 14, -4
 930              		.cfi_offset 7, -8
 931              		.cfi_offset 6, -12
 932              		.cfi_offset 5, -16
 933              		.cfi_offset 4, -20
 934              		.cfi_offset 3, -24
 935              		.loc 1 329 0
 936 0004 D0F10101 		rsbs	r1, r0, #1
 937 0008 38BF     		it	cc
 938 000a 0021     		movcc	r1, #0
 939              	.LVL78:
 940 000c 002E     		cmp	r6, #0
 941 000e 08BF     		it	eq
 942 0010 41F00101 		orreq	r1, r1, #1
 943              		.loc 1 327 0
 944 0014 0446     		mov	r4, r0
 945 0016 1746     		mov	r7, r2
 946 0018 1D46     		mov	r5, r3
 947              		.loc 1 329 0
 948 001a 0029     		cmp	r1, #0
 949 001c 33D1     		bne	.L61
 950              		.loc 1 329 0 is_stmt 0 discriminator 2
 951 001e D2F10103 		rsbs	r3, r2, #1
 952 0022 38BF     		it	cc
 953 0024 0023     		movcc	r3, #0
 954              	.LVL79:
 955 0026 002D     		cmp	r5, #0
 956 0028 08BF     		it	eq
 957 002a 43F00103 		orreq	r3, r3, #1
 958 002e 002B     		cmp	r3, #0
 959 0030 29D1     		bne	.L61
 960              	.LVL80:
ARM GAS  C:\Users\z80\AppData\Local\Temp\cc8scWge.s 			page 18


 961              	.L62:
 962              	.LBB20:
 963              		.loc 1 332 0 is_stmt 1
 964 0032 2023     		movs	r3, #32
 965              	.LVL81:
 966              	@ 332 "../chibios_2.4.x/os/hal/src/spi.c" 1
 967 0034 83F31188 		msr     BASEPRI, r3
 968              	@ 0 "" 2
 969              	.LVL82:
 970              		.thumb
 971              	.LBE20:
 972 0038 FFF7FEFF 		bl	dbg_check_lock
 973              	.LVL83:
 974              		.loc 1 333 0
 975 003c 2378     		ldrb	r3, [r4, #0]	@ zero_extendqisi2
 976 003e 022B     		cmp	r3, #2
 977 0040 02D0     		beq	.L63
 978              		.loc 1 333 0 is_stmt 0 discriminator 1
 979 0042 1348     		ldr	r0, .L66
 980 0044 FFF7FEFF 		bl	chDbgPanic
 981              	.L63:
 982              		.loc 1 334 0 is_stmt 1
 983 0048 6368     		ldr	r3, [r4, #4]
 984 004a 1B68     		ldr	r3, [r3, #0]
 985 004c 13B1     		cbz	r3, .L64
 986              		.loc 1 334 0 is_stmt 0 discriminator 1
 987 004e 1148     		ldr	r0, .L66+4
 988 0050 FFF7FEFF 		bl	chDbgPanic
 989              	.L64:
 990              		.loc 1 336 0 is_stmt 1
 991 0054 0323     		movs	r3, #3
 992 0056 2370     		strb	r3, [r4, #0]
 993 0058 2046     		mov	r0, r4
 994 005a 2B46     		mov	r3, r5
 995 005c 3146     		mov	r1, r6
 996 005e 3A46     		mov	r2, r7
 997 0060 FFF7FEFF 		bl	spi_lld_exchange
 998              		.loc 1 337 0
 999 0064 A368     		ldr	r3, [r4, #8]
 1000 0066 13B1     		cbz	r3, .L65
 1001              		.loc 1 337 0 is_stmt 0 discriminator 1
 1002 0068 0B48     		ldr	r0, .L66+8
 1003 006a FFF7FEFF 		bl	chDbgPanic
 1004              	.L65:
 1005              		.loc 1 337 0 discriminator 2
 1006 006e 0B4B     		ldr	r3, .L66+12
 1007 0070 0220     		movs	r0, #2
 1008 0072 DB69     		ldr	r3, [r3, #28]
 1009 0074 A360     		str	r3, [r4, #8]
 1010 0076 FFF7FEFF 		bl	chSchGoSleepS
 1011              		.loc 1 338 0 is_stmt 1 discriminator 2
 1012 007a FFF7FEFF 		bl	dbg_check_unlock
 1013              	.LBB21:
 1014 007e 0023     		movs	r3, #0
 1015              	.LVL84:
 1016              	@ 338 "../chibios_2.4.x/os/hal/src/spi.c" 1
 1017 0080 83F31188 		msr     BASEPRI, r3
ARM GAS  C:\Users\z80\AppData\Local\Temp\cc8scWge.s 			page 19


 1018              	@ 0 "" 2
 1019              	.LVL85:
 1020              		.thumb
 1021              	.LBE21:
 1022              		.loc 1 339 0 discriminator 2
 1023 0084 F8BD     		pop	{r3, r4, r5, r6, r7, pc}
 1024              	.LVL86:
 1025              	.L61:
 1026              		.loc 1 329 0 discriminator 1
 1027 0086 0648     		ldr	r0, .L66+16
 1028 0088 FFF7FEFF 		bl	chDbgPanic
 1029 008c D1E7     		b	.L62
 1030              	.L67:
 1031 008e 00BF     		.align	2
 1032              	.L66:
 1033 0090 84010000 		.word	.LC21
 1034 0094 98010000 		.word	.LC22
 1035 0098 64010000 		.word	.LC19
 1036 009c 00000000 		.word	rlist
 1037 00a0 74010000 		.word	.LC20
 1038              		.cfi_endproc
 1039              	.LFE73:
 1040              		.size	spiExchange, .-spiExchange
 1041 00a4 AFF30080 		.section	.text.spiSend,"ax",%progbits
 1041      AFF30080 
 1041      AFF30080 
 1042              		.align	2
 1043              		.p2align 4,,15
 1044              		.global	spiSend
 1045              		.thumb
 1046              		.thumb_func
 1047              		.type	spiSend, %function
 1048              	spiSend:
 1049              	.LFB74:
 1050              		.loc 1 357 0
 1051              		.cfi_startproc
 1052              		@ args = 0, pretend = 0, frame = 0
 1053              		@ frame_needed = 0, uses_anonymous_args = 0
 1054              	.LVL87:
 1055              		.loc 1 359 0
 1056 0000 D0F10103 		rsbs	r3, r0, #1
 1057 0004 38BF     		it	cc
 1058 0006 0023     		movcc	r3, #0
 1059 0008 0029     		cmp	r1, #0
 1060 000a 08BF     		it	eq
 1061 000c 43F00103 		orreq	r3, r3, #1
 1062              		.loc 1 357 0
 1063 0010 70B5     		push	{r4, r5, r6, lr}
 1064              	.LCFI12:
 1065              		.cfi_def_cfa_offset 16
 1066              		.loc 1 357 0
 1067 0012 0446     		mov	r4, r0
 1068              		.cfi_offset 14, -4
 1069              		.cfi_offset 6, -8
 1070              		.cfi_offset 5, -12
 1071              		.cfi_offset 4, -16
 1072 0014 0D46     		mov	r5, r1
ARM GAS  C:\Users\z80\AppData\Local\Temp\cc8scWge.s 			page 20


 1073 0016 1646     		mov	r6, r2
 1074              		.loc 1 359 0
 1075 0018 002B     		cmp	r3, #0
 1076 001a 2AD1     		bne	.L69
 1077              		.loc 1 359 0 is_stmt 0 discriminator 2
 1078 001c 002A     		cmp	r2, #0
 1079 001e 28D0     		beq	.L69
 1080              	.LVL88:
 1081              	.L70:
 1082              	.LBB22:
 1083              		.loc 1 361 0 is_stmt 1
 1084 0020 2023     		movs	r3, #32
 1085              	.LVL89:
 1086              	@ 361 "../chibios_2.4.x/os/hal/src/spi.c" 1
 1087 0022 83F31188 		msr     BASEPRI, r3
 1088              	@ 0 "" 2
 1089              	.LVL90:
 1090              		.thumb
 1091              	.LBE22:
 1092 0026 FFF7FEFF 		bl	dbg_check_lock
 1093              	.LVL91:
 1094              		.loc 1 362 0
 1095 002a 2378     		ldrb	r3, [r4, #0]	@ zero_extendqisi2
 1096 002c 022B     		cmp	r3, #2
 1097 002e 02D0     		beq	.L71
 1098              		.loc 1 362 0 is_stmt 0 discriminator 1
 1099 0030 1248     		ldr	r0, .L74
 1100 0032 FFF7FEFF 		bl	chDbgPanic
 1101              	.L71:
 1102              		.loc 1 363 0 is_stmt 1
 1103 0036 6368     		ldr	r3, [r4, #4]
 1104 0038 1B68     		ldr	r3, [r3, #0]
 1105 003a 13B1     		cbz	r3, .L72
 1106              		.loc 1 363 0 is_stmt 0 discriminator 1
 1107 003c 1048     		ldr	r0, .L74+4
 1108 003e FFF7FEFF 		bl	chDbgPanic
 1109              	.L72:
 1110              		.loc 1 364 0 is_stmt 1
 1111 0042 0323     		movs	r3, #3
 1112 0044 2370     		strb	r3, [r4, #0]
 1113 0046 2046     		mov	r0, r4
 1114 0048 2946     		mov	r1, r5
 1115 004a 3246     		mov	r2, r6
 1116 004c FFF7FEFF 		bl	spi_lld_send
 1117              		.loc 1 365 0
 1118 0050 A368     		ldr	r3, [r4, #8]
 1119 0052 13B1     		cbz	r3, .L73
 1120              		.loc 1 365 0 is_stmt 0 discriminator 1
 1121 0054 0B48     		ldr	r0, .L74+8
 1122 0056 FFF7FEFF 		bl	chDbgPanic
 1123              	.L73:
 1124              		.loc 1 365 0 discriminator 2
 1125 005a 0B4B     		ldr	r3, .L74+12
 1126 005c 0220     		movs	r0, #2
 1127 005e DB69     		ldr	r3, [r3, #28]
 1128 0060 A360     		str	r3, [r4, #8]
 1129 0062 FFF7FEFF 		bl	chSchGoSleepS
ARM GAS  C:\Users\z80\AppData\Local\Temp\cc8scWge.s 			page 21


 1130              		.loc 1 366 0 is_stmt 1 discriminator 2
 1131 0066 FFF7FEFF 		bl	dbg_check_unlock
 1132              	.LBB23:
 1133 006a 0023     		movs	r3, #0
 1134              	.LVL92:
 1135              	@ 366 "../chibios_2.4.x/os/hal/src/spi.c" 1
 1136 006c 83F31188 		msr     BASEPRI, r3
 1137              	@ 0 "" 2
 1138              	.LVL93:
 1139              		.thumb
 1140              	.LBE23:
 1141              		.loc 1 367 0 discriminator 2
 1142 0070 70BD     		pop	{r4, r5, r6, pc}
 1143              	.LVL94:
 1144              	.L69:
 1145              		.loc 1 359 0 discriminator 1
 1146 0072 0648     		ldr	r0, .L74+16
 1147 0074 FFF7FEFF 		bl	chDbgPanic
 1148 0078 D2E7     		b	.L70
 1149              	.L75:
 1150 007a 00BF     		.align	2
 1151              	.L74:
 1152 007c B8010000 		.word	.LC24
 1153 0080 C8010000 		.word	.LC25
 1154 0084 64010000 		.word	.LC19
 1155 0088 00000000 		.word	rlist
 1156 008c AC010000 		.word	.LC23
 1157              		.cfi_endproc
 1158              	.LFE74:
 1159              		.size	spiSend, .-spiSend
 1160              		.section	.text.spiReceive,"ax",%progbits
 1161              		.align	2
 1162              		.p2align 4,,15
 1163              		.global	spiReceive
 1164              		.thumb
 1165              		.thumb_func
 1166              		.type	spiReceive, %function
 1167              	spiReceive:
 1168              	.LFB75:
 1169              		.loc 1 385 0
 1170              		.cfi_startproc
 1171              		@ args = 0, pretend = 0, frame = 0
 1172              		@ frame_needed = 0, uses_anonymous_args = 0
 1173              	.LVL95:
 1174              		.loc 1 387 0
 1175 0000 D0F10103 		rsbs	r3, r0, #1
 1176 0004 38BF     		it	cc
 1177 0006 0023     		movcc	r3, #0
 1178 0008 0029     		cmp	r1, #0
 1179 000a 08BF     		it	eq
 1180 000c 43F00103 		orreq	r3, r3, #1
 1181              		.loc 1 385 0
 1182 0010 70B5     		push	{r4, r5, r6, lr}
 1183              	.LCFI13:
 1184              		.cfi_def_cfa_offset 16
 1185              		.loc 1 385 0
 1186 0012 0446     		mov	r4, r0
ARM GAS  C:\Users\z80\AppData\Local\Temp\cc8scWge.s 			page 22


 1187              		.cfi_offset 14, -4
 1188              		.cfi_offset 6, -8
 1189              		.cfi_offset 5, -12
 1190              		.cfi_offset 4, -16
 1191 0014 0D46     		mov	r5, r1
 1192 0016 1646     		mov	r6, r2
 1193              		.loc 1 387 0
 1194 0018 002B     		cmp	r3, #0
 1195 001a 2AD1     		bne	.L77
 1196              		.loc 1 387 0 is_stmt 0 discriminator 2
 1197 001c 002A     		cmp	r2, #0
 1198 001e 28D0     		beq	.L77
 1199              	.LVL96:
 1200              	.L78:
 1201              	.LBB24:
 1202              		.loc 1 390 0 is_stmt 1
 1203 0020 2023     		movs	r3, #32
 1204              	.LVL97:
 1205              	@ 390 "../chibios_2.4.x/os/hal/src/spi.c" 1
 1206 0022 83F31188 		msr     BASEPRI, r3
 1207              	@ 0 "" 2
 1208              	.LVL98:
 1209              		.thumb
 1210              	.LBE24:
 1211 0026 FFF7FEFF 		bl	dbg_check_lock
 1212              	.LVL99:
 1213              		.loc 1 391 0
 1214 002a 2378     		ldrb	r3, [r4, #0]	@ zero_extendqisi2
 1215 002c 022B     		cmp	r3, #2
 1216 002e 02D0     		beq	.L79
 1217              		.loc 1 391 0 is_stmt 0 discriminator 1
 1218 0030 1248     		ldr	r0, .L82
 1219 0032 FFF7FEFF 		bl	chDbgPanic
 1220              	.L79:
 1221              		.loc 1 392 0 is_stmt 1
 1222 0036 6368     		ldr	r3, [r4, #4]
 1223 0038 1B68     		ldr	r3, [r3, #0]
 1224 003a 13B1     		cbz	r3, .L80
 1225              		.loc 1 392 0 is_stmt 0 discriminator 1
 1226 003c 1048     		ldr	r0, .L82+4
 1227 003e FFF7FEFF 		bl	chDbgPanic
 1228              	.L80:
 1229              		.loc 1 394 0 is_stmt 1
 1230 0042 0323     		movs	r3, #3
 1231 0044 2370     		strb	r3, [r4, #0]
 1232 0046 2046     		mov	r0, r4
 1233 0048 2946     		mov	r1, r5
 1234 004a 3246     		mov	r2, r6
 1235 004c FFF7FEFF 		bl	spi_lld_receive
 1236              		.loc 1 395 0
 1237 0050 A368     		ldr	r3, [r4, #8]
 1238 0052 13B1     		cbz	r3, .L81
 1239              		.loc 1 395 0 is_stmt 0 discriminator 1
 1240 0054 0B48     		ldr	r0, .L82+8
 1241 0056 FFF7FEFF 		bl	chDbgPanic
 1242              	.L81:
 1243              		.loc 1 395 0 discriminator 2
ARM GAS  C:\Users\z80\AppData\Local\Temp\cc8scWge.s 			page 23


 1244 005a 0B4B     		ldr	r3, .L82+12
 1245 005c 0220     		movs	r0, #2
 1246 005e DB69     		ldr	r3, [r3, #28]
 1247 0060 A360     		str	r3, [r4, #8]
 1248 0062 FFF7FEFF 		bl	chSchGoSleepS
 1249              		.loc 1 396 0 is_stmt 1 discriminator 2
 1250 0066 FFF7FEFF 		bl	dbg_check_unlock
 1251              	.LBB25:
 1252 006a 0023     		movs	r3, #0
 1253              	.LVL100:
 1254              	@ 396 "../chibios_2.4.x/os/hal/src/spi.c" 1
 1255 006c 83F31188 		msr     BASEPRI, r3
 1256              	@ 0 "" 2
 1257              	.LVL101:
 1258              		.thumb
 1259              	.LBE25:
 1260              		.loc 1 397 0 discriminator 2
 1261 0070 70BD     		pop	{r4, r5, r6, pc}
 1262              	.LVL102:
 1263              	.L77:
 1264              		.loc 1 387 0 discriminator 1
 1265 0072 0648     		ldr	r0, .L82+16
 1266 0074 FFF7FEFF 		bl	chDbgPanic
 1267 0078 D2E7     		b	.L78
 1268              	.L83:
 1269 007a 00BF     		.align	2
 1270              	.L82:
 1271 007c E8010000 		.word	.LC27
 1272 0080 FC010000 		.word	.LC28
 1273 0084 64010000 		.word	.LC19
 1274 0088 00000000 		.word	rlist
 1275 008c D8010000 		.word	.LC26
 1276              		.cfi_endproc
 1277              	.LFE75:
 1278              		.size	spiReceive, .-spiReceive
 1279              		.section	.text.spiAcquireBus,"ax",%progbits
 1280              		.align	2
 1281              		.p2align 4,,15
 1282              		.global	spiAcquireBus
 1283              		.thumb
 1284              		.thumb_func
 1285              		.type	spiAcquireBus, %function
 1286              	spiAcquireBus:
 1287              	.LFB76:
 1288              		.loc 1 412 0
 1289              		.cfi_startproc
 1290              		@ args = 0, pretend = 0, frame = 0
 1291              		@ frame_needed = 0, uses_anonymous_args = 0
 1292              	.LVL103:
 1293 0000 10B5     		push	{r4, lr}
 1294              	.LCFI14:
 1295              		.cfi_def_cfa_offset 8
 1296              		.loc 1 412 0
 1297 0002 0446     		mov	r4, r0
 1298              		.cfi_offset 14, -4
 1299              		.cfi_offset 4, -8
 1300              		.loc 1 414 0
ARM GAS  C:\Users\z80\AppData\Local\Temp\cc8scWge.s 			page 24


 1301 0004 20B1     		cbz	r0, .L86
 1302              	.LVL104:
 1303              	.L85:
 1304              		.loc 1 417 0
 1305 0006 04F10C00 		add	r0, r4, #12
 1306 000a FFF7FEFF 		bl	chMtxLock
 1307              		.loc 1 421 0
 1308 000e 10BD     		pop	{r4, pc}
 1309              	.L86:
 1310              		.loc 1 414 0 discriminator 1
 1311 0010 0148     		ldr	r0, .L87
 1312 0012 FFF7FEFF 		bl	chDbgPanic
 1313 0016 F6E7     		b	.L85
 1314              	.L88:
 1315              		.align	2
 1316              	.L87:
 1317 0018 10020000 		.word	.LC29
 1318              		.cfi_endproc
 1319              	.LFE76:
 1320              		.size	spiAcquireBus, .-spiAcquireBus
 1321 001c AFF30080 		.section	.text.spiReleaseBus,"ax",%progbits
 1322              		.align	2
 1323              		.p2align 4,,15
 1324              		.global	spiReleaseBus
 1325              		.thumb
 1326              		.thumb_func
 1327              		.type	spiReleaseBus, %function
 1328              	spiReleaseBus:
 1329              	.LFB77:
 1330              		.loc 1 432 0
 1331              		.cfi_startproc
 1332              		@ args = 0, pretend = 0, frame = 0
 1333              		@ frame_needed = 0, uses_anonymous_args = 0
 1334              	.LVL105:
 1335 0000 08B5     		push	{r3, lr}
 1336              	.LCFI15:
 1337              		.cfi_def_cfa_offset 8
 1338              		.loc 1 434 0
 1339 0002 10B1     		cbz	r0, .L91
 1340              		.cfi_offset 14, -4
 1341              		.cfi_offset 3, -8
 1342              	.LVL106:
 1343              	.L90:
 1344              		.loc 1 438 0
 1345 0004 FFF7FEFF 		bl	chMtxUnlock
 1346              		.loc 1 442 0
 1347 0008 08BD     		pop	{r3, pc}
 1348              	.LVL107:
 1349              	.L91:
 1350              		.loc 1 434 0 discriminator 1
 1351 000a 0248     		ldr	r0, .L92
 1352              	.LVL108:
 1353 000c FFF7FEFF 		bl	chDbgPanic
 1354 0010 F8E7     		b	.L90
 1355              	.L93:
 1356 0012 00BF     		.align	2
 1357              	.L92:
ARM GAS  C:\Users\z80\AppData\Local\Temp\cc8scWge.s 			page 25


 1358 0014 24020000 		.word	.LC30
 1359              		.cfi_endproc
 1360              	.LFE77:
 1361              		.size	spiReleaseBus, .-spiReleaseBus
 1362 0018 AFF30080 		.section	.rodata.str1.4,"aMS",%progbits,1
 1362      AFF30080 
 1363              		.align	2
 1364              	.LC0:
 1365 0000 22737069 		.ascii	"\"spiStart\"()\000"
 1365      53746172 
 1365      74222829 
 1365      00
 1366 000d 000000   		.space	3
 1367              	.LC1:
 1368 0010 73706953 		.ascii	"spiStart(), #1\000"
 1368      74617274 
 1368      28292C20 
 1368      233100
 1369 001f 00       		.space	1
 1370              	.LC2:
 1371 0020 22737069 		.ascii	"\"spiStop\"()\000"
 1371      53746F70 
 1371      22282900 
 1372              	.LC3:
 1373 002c 73706953 		.ascii	"spiStop(), #1\000"
 1373      746F7028 
 1373      292C2023 
 1373      3100
 1374 003a 0000     		.space	2
 1375              	.LC4:
 1376 003c 22737069 		.ascii	"\"spiSelect\"()\000"
 1376      53656C65 
 1376      63742228 
 1376      2900
 1377 004a 0000     		.space	2
 1378              	.LC5:
 1379 004c 73706953 		.ascii	"spiSelect(), #1\000"
 1379      656C6563 
 1379      7428292C 
 1379      20233100 
 1380              	.LC6:
 1381 005c 22737069 		.ascii	"\"spiUnselect\"()\000"
 1381      556E7365 
 1381      6C656374 
 1381      22282900 
 1382              	.LC7:
 1383 006c 73706955 		.ascii	"spiUnselect(), #1\000"
 1383      6E73656C 
 1383      65637428 
 1383      292C2023 
 1383      3100
 1384 007e 0000     		.space	2
 1385              	.LC8:
 1386 0080 22737069 		.ascii	"\"spiStartIgnore\"()\000"
 1386      53746172 
 1386      7449676E 
 1386      6F726522 
ARM GAS  C:\Users\z80\AppData\Local\Temp\cc8scWge.s 			page 26


 1386      282900
 1387 0093 00       		.space	1
 1388              	.LC9:
 1389 0094 73706953 		.ascii	"spiStartIgnore(), #1\000"
 1389      74617274 
 1389      49676E6F 
 1389      72652829 
 1389      2C202331 
 1390 00a9 000000   		.space	3
 1391              	.LC10:
 1392 00ac 22737069 		.ascii	"\"spiStartExchange\"()\000"
 1392      53746172 
 1392      74457863 
 1392      68616E67 
 1392      65222829 
 1393 00c1 000000   		.space	3
 1394              	.LC11:
 1395 00c4 73706953 		.ascii	"spiStartExchange(), #1\000"
 1395      74617274 
 1395      45786368 
 1395      616E6765 
 1395      28292C20 
 1396 00db 00       		.space	1
 1397              	.LC12:
 1398 00dc 22737069 		.ascii	"\"spiStartSend\"()\000"
 1398      53746172 
 1398      7453656E 
 1398      64222829 
 1398      00
 1399 00ed 000000   		.space	3
 1400              	.LC13:
 1401 00f0 73706953 		.ascii	"spiStartSend(), #1\000"
 1401      74617274 
 1401      53656E64 
 1401      28292C20 
 1401      233100
 1402 0103 00       		.space	1
 1403              	.LC14:
 1404 0104 22737069 		.ascii	"\"spiStartReceive\"()\000"
 1404      53746172 
 1404      74526563 
 1404      65697665 
 1404      22282900 
 1405              	.LC15:
 1406 0118 73706953 		.ascii	"spiStartReceive(), #1\000"
 1406      74617274 
 1406      52656365 
 1406      69766528 
 1406      292C2023 
 1407 012e 0000     		.space	2
 1408              	.LC16:
 1409 0130 22737069 		.ascii	"\"spiIgnoreWait\"()\000"
 1409      49676E6F 
 1409      72655761 
 1409      69742228 
 1409      2900
 1410 0142 0000     		.space	2
ARM GAS  C:\Users\z80\AppData\Local\Temp\cc8scWge.s 			page 27


 1411              	.LC17:
 1412 0144 73706949 		.ascii	"spiIgnore(), #1\000"
 1412      676E6F72 
 1412      6528292C 
 1412      20233100 
 1413              	.LC18:
 1414 0154 73706949 		.ascii	"spiIgnore(), #2\000"
 1414      676E6F72 
 1414      6528292C 
 1414      20233200 
 1415              	.LC19:
 1416 0164 5F737069 		.ascii	"_spi_wait(), #1\000"
 1416      5F776169 
 1416      7428292C 
 1416      20233100 
 1417              	.LC20:
 1418 0174 22737069 		.ascii	"\"spiExchange\"()\000"
 1418      45786368 
 1418      616E6765 
 1418      22282900 
 1419              	.LC21:
 1420 0184 73706945 		.ascii	"spiExchange(), #1\000"
 1420      78636861 
 1420      6E676528 
 1420      292C2023 
 1420      3100
 1421 0196 0000     		.space	2
 1422              	.LC22:
 1423 0198 73706945 		.ascii	"spiExchange(), #2\000"
 1423      78636861 
 1423      6E676528 
 1423      292C2023 
 1423      3200
 1424 01aa 0000     		.space	2
 1425              	.LC23:
 1426 01ac 22737069 		.ascii	"\"spiSend\"()\000"
 1426      53656E64 
 1426      22282900 
 1427              	.LC24:
 1428 01b8 73706953 		.ascii	"spiSend(), #1\000"
 1428      656E6428 
 1428      292C2023 
 1428      3100
 1429 01c6 0000     		.space	2
 1430              	.LC25:
 1431 01c8 73706953 		.ascii	"spiSend(), #2\000"
 1431      656E6428 
 1431      292C2023 
 1431      3200
 1432 01d6 0000     		.space	2
 1433              	.LC26:
 1434 01d8 22737069 		.ascii	"\"spiReceive\"()\000"
 1434      52656365 
 1434      69766522 
 1434      282900
 1435 01e7 00       		.space	1
 1436              	.LC27:
ARM GAS  C:\Users\z80\AppData\Local\Temp\cc8scWge.s 			page 28


 1437 01e8 73706952 		.ascii	"spiReceive(), #1\000"
 1437      65636569 
 1437      76652829 
 1437      2C202331 
 1437      00
 1438 01f9 000000   		.space	3
 1439              	.LC28:
 1440 01fc 73706952 		.ascii	"spiReceive(), #2\000"
 1440      65636569 
 1440      76652829 
 1440      2C202332 
 1440      00
 1441 020d 000000   		.space	3
 1442              	.LC29:
 1443 0210 22737069 		.ascii	"\"spiAcquireBus\"()\000"
 1443      41637175 
 1443      69726542 
 1443      75732228 
 1443      2900
 1444 0222 0000     		.space	2
 1445              	.LC30:
 1446 0224 22737069 		.ascii	"\"spiReleaseBus\"()\000"
 1446      52656C65 
 1446      61736542 
 1446      75732228 
 1446      2900
 1447 0236 0000     		.text
 1448              	.Letext0:
 1449              		.section	.debug_loc,"",%progbits
 1450              	.Ldebug_loc0:
 1451              	.LLST0:
 1452 0000 00000000 		.4byte	.LFB62
 1453 0004 02000000 		.4byte	.LCFI0
 1454 0008 0200     		.2byte	0x2
 1455 000a 7D       		.byte	0x7d
 1456 000b 00       		.sleb128 0
 1457 000c 02000000 		.4byte	.LCFI0
 1458 0010 08000000 		.4byte	.LFE62
 1459 0014 0200     		.2byte	0x2
 1460 0016 7D       		.byte	0x7d
 1461 0017 08       		.sleb128 8
 1462 0018 00000000 		.4byte	0x0
 1463 001c 00000000 		.4byte	0x0
 1464              	.LLST1:
 1465 0020 00000000 		.4byte	.LFB63
 1466 0024 02000000 		.4byte	.LCFI1
 1467 0028 0200     		.2byte	0x2
 1468 002a 7D       		.byte	0x7d
 1469 002b 00       		.sleb128 0
 1470 002c 02000000 		.4byte	.LCFI1
 1471 0030 18000000 		.4byte	.LFE63
 1472 0034 0200     		.2byte	0x2
 1473 0036 7D       		.byte	0x7d
 1474 0037 08       		.sleb128 8
 1475 0038 00000000 		.4byte	0x0
 1476 003c 00000000 		.4byte	0x0
 1477              	.LLST2:
ARM GAS  C:\Users\z80\AppData\Local\Temp\cc8scWge.s 			page 29


 1478 0040 00000000 		.4byte	.LVL0
 1479 0044 0C000000 		.4byte	.LVL1
 1480 0048 0100     		.2byte	0x1
 1481 004a 50       		.byte	0x50
 1482 004b 0C000000 		.4byte	.LVL1
 1483 004f 15000000 		.4byte	.LVL2-1
 1484 0053 0100     		.2byte	0x1
 1485 0055 53       		.byte	0x53
 1486 0056 00000000 		.4byte	0x0
 1487 005a 00000000 		.4byte	0x0
 1488              	.LLST3:
 1489 005e 00000000 		.4byte	.LFB64
 1490 0062 02000000 		.4byte	.LCFI2
 1491 0066 0200     		.2byte	0x2
 1492 0068 7D       		.byte	0x7d
 1493 0069 00       		.sleb128 0
 1494 006a 02000000 		.4byte	.LCFI2
 1495 006e 5C000000 		.4byte	.LFE64
 1496 0072 0200     		.2byte	0x2
 1497 0074 7D       		.byte	0x7d
 1498 0075 10       		.sleb128 16
 1499 0076 00000000 		.4byte	0x0
 1500 007a 00000000 		.4byte	0x0
 1501              	.LLST4:
 1502 007e 00000000 		.4byte	.LVL3
 1503 0082 18000000 		.4byte	.LVL4
 1504 0086 0100     		.2byte	0x1
 1505 0088 50       		.byte	0x50
 1506 0089 18000000 		.4byte	.LVL4
 1507 008d 5C000000 		.4byte	.LFE64
 1508 0091 0100     		.2byte	0x1
 1509 0093 54       		.byte	0x54
 1510 0094 00000000 		.4byte	0x0
 1511 0098 00000000 		.4byte	0x0
 1512              	.LLST5:
 1513 009c 00000000 		.4byte	.LVL3
 1514 00a0 18000000 		.4byte	.LVL4
 1515 00a4 0100     		.2byte	0x1
 1516 00a6 51       		.byte	0x51
 1517 00a7 18000000 		.4byte	.LVL4
 1518 00ab 5C000000 		.4byte	.LFE64
 1519 00af 0100     		.2byte	0x1
 1520 00b1 55       		.byte	0x55
 1521 00b2 00000000 		.4byte	0x0
 1522 00b6 00000000 		.4byte	0x0
 1523              	.LLST6:
 1524 00ba 1E000000 		.4byte	.LVL6
 1525 00be 21000000 		.4byte	.LVL7-1
 1526 00c2 0100     		.2byte	0x1
 1527 00c4 53       		.byte	0x53
 1528 00c5 00000000 		.4byte	0x0
 1529 00c9 00000000 		.4byte	0x0
 1530              	.LLST7:
 1531 00cd 48000000 		.4byte	.LVL9
 1532 00d1 4A000000 		.4byte	.LVL10
 1533 00d5 0100     		.2byte	0x1
 1534 00d7 53       		.byte	0x53
ARM GAS  C:\Users\z80\AppData\Local\Temp\cc8scWge.s 			page 30


 1535 00d8 00000000 		.4byte	0x0
 1536 00dc 00000000 		.4byte	0x0
 1537              	.LLST8:
 1538 00e0 00000000 		.4byte	.LFB65
 1539 00e4 02000000 		.4byte	.LCFI3
 1540 00e8 0200     		.2byte	0x2
 1541 00ea 7D       		.byte	0x7d
 1542 00eb 00       		.sleb128 0
 1543 00ec 02000000 		.4byte	.LCFI3
 1544 00f0 4C000000 		.4byte	.LFE65
 1545 00f4 0200     		.2byte	0x2
 1546 00f6 7D       		.byte	0x7d
 1547 00f7 08       		.sleb128 8
 1548 00f8 00000000 		.4byte	0x0
 1549 00fc 00000000 		.4byte	0x0
 1550              	.LLST9:
 1551 0100 00000000 		.4byte	.LVL11
 1552 0104 06000000 		.4byte	.LVL12
 1553 0108 0100     		.2byte	0x1
 1554 010a 50       		.byte	0x50
 1555 010b 06000000 		.4byte	.LVL12
 1556 010f 4C000000 		.4byte	.LFE65
 1557 0113 0100     		.2byte	0x1
 1558 0115 54       		.byte	0x54
 1559 0116 00000000 		.4byte	0x0
 1560 011a 00000000 		.4byte	0x0
 1561              	.LLST10:
 1562 011e 0C000000 		.4byte	.LVL14
 1563 0122 0F000000 		.4byte	.LVL15-1
 1564 0126 0100     		.2byte	0x1
 1565 0128 53       		.byte	0x53
 1566 0129 00000000 		.4byte	0x0
 1567 012d 00000000 		.4byte	0x0
 1568              	.LLST11:
 1569 0131 3A000000 		.4byte	.LVL17
 1570 0135 3C000000 		.4byte	.LVL18
 1571 0139 0100     		.2byte	0x1
 1572 013b 53       		.byte	0x53
 1573 013c 00000000 		.4byte	0x0
 1574 0140 00000000 		.4byte	0x0
 1575              	.LLST12:
 1576 0144 00000000 		.4byte	.LFB66
 1577 0148 02000000 		.4byte	.LCFI4
 1578 014c 0200     		.2byte	0x2
 1579 014e 7D       		.byte	0x7d
 1580 014f 00       		.sleb128 0
 1581 0150 02000000 		.4byte	.LCFI4
 1582 0154 40000000 		.4byte	.LFE66
 1583 0158 0200     		.2byte	0x2
 1584 015a 7D       		.byte	0x7d
 1585 015b 08       		.sleb128 8
 1586 015c 00000000 		.4byte	0x0
 1587 0160 00000000 		.4byte	0x0
 1588              	.LLST13:
 1589 0164 00000000 		.4byte	.LVL19
 1590 0168 06000000 		.4byte	.LVL20
 1591 016c 0100     		.2byte	0x1
ARM GAS  C:\Users\z80\AppData\Local\Temp\cc8scWge.s 			page 31


 1592 016e 50       		.byte	0x50
 1593 016f 06000000 		.4byte	.LVL20
 1594 0173 40000000 		.4byte	.LFE66
 1595 0177 0100     		.2byte	0x1
 1596 0179 54       		.byte	0x54
 1597 017a 00000000 		.4byte	0x0
 1598 017e 00000000 		.4byte	0x0
 1599              	.LLST14:
 1600 0182 0C000000 		.4byte	.LVL22
 1601 0186 0F000000 		.4byte	.LVL23-1
 1602 018a 0100     		.2byte	0x1
 1603 018c 53       		.byte	0x53
 1604 018d 00000000 		.4byte	0x0
 1605 0191 00000000 		.4byte	0x0
 1606              	.LLST15:
 1607 0195 2C000000 		.4byte	.LVL25
 1608 0199 2E000000 		.4byte	.LVL26
 1609 019d 0100     		.2byte	0x1
 1610 019f 53       		.byte	0x53
 1611 01a0 00000000 		.4byte	0x0
 1612 01a4 00000000 		.4byte	0x0
 1613              	.LLST16:
 1614 01a8 00000000 		.4byte	.LFB67
 1615 01ac 02000000 		.4byte	.LCFI5
 1616 01b0 0200     		.2byte	0x2
 1617 01b2 7D       		.byte	0x7d
 1618 01b3 00       		.sleb128 0
 1619 01b4 02000000 		.4byte	.LCFI5
 1620 01b8 40000000 		.4byte	.LFE67
 1621 01bc 0200     		.2byte	0x2
 1622 01be 7D       		.byte	0x7d
 1623 01bf 08       		.sleb128 8
 1624 01c0 00000000 		.4byte	0x0
 1625 01c4 00000000 		.4byte	0x0
 1626              	.LLST17:
 1627 01c8 00000000 		.4byte	.LVL27
 1628 01cc 06000000 		.4byte	.LVL28
 1629 01d0 0100     		.2byte	0x1
 1630 01d2 50       		.byte	0x50
 1631 01d3 06000000 		.4byte	.LVL28
 1632 01d7 40000000 		.4byte	.LFE67
 1633 01db 0100     		.2byte	0x1
 1634 01dd 54       		.byte	0x54
 1635 01de 00000000 		.4byte	0x0
 1636 01e2 00000000 		.4byte	0x0
 1637              	.LLST18:
 1638 01e6 0C000000 		.4byte	.LVL30
 1639 01ea 0F000000 		.4byte	.LVL31-1
 1640 01ee 0100     		.2byte	0x1
 1641 01f0 53       		.byte	0x53
 1642 01f1 00000000 		.4byte	0x0
 1643 01f5 00000000 		.4byte	0x0
 1644              	.LLST19:
 1645 01f9 2C000000 		.4byte	.LVL33
 1646 01fd 2E000000 		.4byte	.LVL34
 1647 0201 0100     		.2byte	0x1
 1648 0203 53       		.byte	0x53
ARM GAS  C:\Users\z80\AppData\Local\Temp\cc8scWge.s 			page 32


 1649 0204 00000000 		.4byte	0x0
 1650 0208 00000000 		.4byte	0x0
 1651              	.LLST20:
 1652 020c 00000000 		.4byte	.LFB68
 1653 0210 02000000 		.4byte	.LCFI6
 1654 0214 0200     		.2byte	0x2
 1655 0216 7D       		.byte	0x7d
 1656 0217 00       		.sleb128 0
 1657 0218 02000000 		.4byte	.LCFI6
 1658 021c 58000000 		.4byte	.LFE68
 1659 0220 0200     		.2byte	0x2
 1660 0222 7D       		.byte	0x7d
 1661 0223 10       		.sleb128 16
 1662 0224 00000000 		.4byte	0x0
 1663 0228 00000000 		.4byte	0x0
 1664              	.LLST21:
 1665 022c 00000000 		.4byte	.LVL35
 1666 0230 18000000 		.4byte	.LVL36
 1667 0234 0100     		.2byte	0x1
 1668 0236 50       		.byte	0x50
 1669 0237 18000000 		.4byte	.LVL36
 1670 023b 58000000 		.4byte	.LFE68
 1671 023f 0100     		.2byte	0x1
 1672 0241 54       		.byte	0x54
 1673 0242 00000000 		.4byte	0x0
 1674 0246 00000000 		.4byte	0x0
 1675              	.LLST22:
 1676 024a 00000000 		.4byte	.LVL35
 1677 024e 18000000 		.4byte	.LVL36
 1678 0252 0100     		.2byte	0x1
 1679 0254 51       		.byte	0x51
 1680 0255 18000000 		.4byte	.LVL36
 1681 0259 58000000 		.4byte	.LFE68
 1682 025d 0100     		.2byte	0x1
 1683 025f 55       		.byte	0x55
 1684 0260 00000000 		.4byte	0x0
 1685 0264 00000000 		.4byte	0x0
 1686              	.LLST23:
 1687 0268 1E000000 		.4byte	.LVL38
 1688 026c 21000000 		.4byte	.LVL39-1
 1689 0270 0100     		.2byte	0x1
 1690 0272 53       		.byte	0x53
 1691 0273 00000000 		.4byte	0x0
 1692 0277 00000000 		.4byte	0x0
 1693              	.LLST24:
 1694 027b 44000000 		.4byte	.LVL41
 1695 027f 46000000 		.4byte	.LVL42
 1696 0283 0100     		.2byte	0x1
 1697 0285 53       		.byte	0x53
 1698 0286 00000000 		.4byte	0x0
 1699 028a 00000000 		.4byte	0x0
 1700              	.LLST25:
 1701 028e 00000000 		.4byte	.LFB69
 1702 0292 02000000 		.4byte	.LCFI7
 1703 0296 0200     		.2byte	0x2
 1704 0298 7D       		.byte	0x7d
 1705 0299 00       		.sleb128 0
ARM GAS  C:\Users\z80\AppData\Local\Temp\cc8scWge.s 			page 33


 1706 029a 02000000 		.4byte	.LCFI7
 1707 029e 78000000 		.4byte	.LFE69
 1708 02a2 0200     		.2byte	0x2
 1709 02a4 7D       		.byte	0x7d
 1710 02a5 18       		.sleb128 24
 1711 02a6 00000000 		.4byte	0x0
 1712 02aa 00000000 		.4byte	0x0
 1713              	.LLST26:
 1714 02ae 00000000 		.4byte	.LVL43
 1715 02b2 30000000 		.4byte	.LVL46
 1716 02b6 0100     		.2byte	0x1
 1717 02b8 50       		.byte	0x50
 1718 02b9 30000000 		.4byte	.LVL46
 1719 02bd 78000000 		.4byte	.LFE69
 1720 02c1 0100     		.2byte	0x1
 1721 02c3 54       		.byte	0x54
 1722 02c4 00000000 		.4byte	0x0
 1723 02c8 00000000 		.4byte	0x0
 1724              	.LLST27:
 1725 02cc 00000000 		.4byte	.LVL43
 1726 02d0 0C000000 		.4byte	.LVL44
 1727 02d4 0100     		.2byte	0x1
 1728 02d6 51       		.byte	0x51
 1729 02d7 0C000000 		.4byte	.LVL44
 1730 02db 78000000 		.4byte	.LFE69
 1731 02df 0100     		.2byte	0x1
 1732 02e1 55       		.byte	0x55
 1733 02e2 00000000 		.4byte	0x0
 1734 02e6 00000000 		.4byte	0x0
 1735              	.LLST28:
 1736 02ea 00000000 		.4byte	.LVL43
 1737 02ee 30000000 		.4byte	.LVL46
 1738 02f2 0100     		.2byte	0x1
 1739 02f4 52       		.byte	0x52
 1740 02f5 30000000 		.4byte	.LVL46
 1741 02f9 78000000 		.4byte	.LFE69
 1742 02fd 0100     		.2byte	0x1
 1743 02ff 56       		.byte	0x56
 1744 0300 00000000 		.4byte	0x0
 1745 0304 00000000 		.4byte	0x0
 1746              	.LLST29:
 1747 0308 00000000 		.4byte	.LVL43
 1748 030c 26000000 		.4byte	.LVL45
 1749 0310 0100     		.2byte	0x1
 1750 0312 53       		.byte	0x53
 1751 0313 26000000 		.4byte	.LVL45
 1752 0317 78000000 		.4byte	.LFE69
 1753 031b 0100     		.2byte	0x1
 1754 031d 57       		.byte	0x57
 1755 031e 00000000 		.4byte	0x0
 1756 0322 00000000 		.4byte	0x0
 1757              	.LLST30:
 1758 0326 36000000 		.4byte	.LVL48
 1759 032a 39000000 		.4byte	.LVL49-1
 1760 032e 0100     		.2byte	0x1
 1761 0330 53       		.byte	0x53
 1762 0331 00000000 		.4byte	0x0
ARM GAS  C:\Users\z80\AppData\Local\Temp\cc8scWge.s 			page 34


 1763 0335 00000000 		.4byte	0x0
 1764              	.LLST31:
 1765 0339 64000000 		.4byte	.LVL51
 1766 033d 66000000 		.4byte	.LVL52
 1767 0341 0100     		.2byte	0x1
 1768 0343 53       		.byte	0x53
 1769 0344 00000000 		.4byte	0x0
 1770 0348 00000000 		.4byte	0x0
 1771              	.LLST32:
 1772 034c 00000000 		.4byte	.LFB70
 1773 0350 12000000 		.4byte	.LCFI8
 1774 0354 0200     		.2byte	0x2
 1775 0356 7D       		.byte	0x7d
 1776 0357 00       		.sleb128 0
 1777 0358 12000000 		.4byte	.LCFI8
 1778 035c 5C000000 		.4byte	.LFE70
 1779 0360 0200     		.2byte	0x2
 1780 0362 7D       		.byte	0x7d
 1781 0363 10       		.sleb128 16
 1782 0364 00000000 		.4byte	0x0
 1783 0368 00000000 		.4byte	0x0
 1784              	.LLST33:
 1785 036c 00000000 		.4byte	.LVL53
 1786 0370 1C000000 		.4byte	.LVL54
 1787 0374 0100     		.2byte	0x1
 1788 0376 50       		.byte	0x50
 1789 0377 1C000000 		.4byte	.LVL54
 1790 037b 5C000000 		.4byte	.LFE70
 1791 037f 0100     		.2byte	0x1
 1792 0381 54       		.byte	0x54
 1793 0382 00000000 		.4byte	0x0
 1794 0386 00000000 		.4byte	0x0
 1795              	.LLST34:
 1796 038a 00000000 		.4byte	.LVL53
 1797 038e 1C000000 		.4byte	.LVL54
 1798 0392 0100     		.2byte	0x1
 1799 0394 51       		.byte	0x51
 1800 0395 1C000000 		.4byte	.LVL54
 1801 0399 5C000000 		.4byte	.LFE70
 1802 039d 0100     		.2byte	0x1
 1803 039f 55       		.byte	0x55
 1804 03a0 00000000 		.4byte	0x0
 1805 03a4 00000000 		.4byte	0x0
 1806              	.LLST35:
 1807 03a8 00000000 		.4byte	.LVL53
 1808 03ac 1C000000 		.4byte	.LVL54
 1809 03b0 0100     		.2byte	0x1
 1810 03b2 52       		.byte	0x52
 1811 03b3 1C000000 		.4byte	.LVL54
 1812 03b7 5C000000 		.4byte	.LFE70
 1813 03bb 0100     		.2byte	0x1
 1814 03bd 56       		.byte	0x56
 1815 03be 00000000 		.4byte	0x0
 1816 03c2 00000000 		.4byte	0x0
 1817              	.LLST36:
 1818 03c6 22000000 		.4byte	.LVL56
 1819 03ca 25000000 		.4byte	.LVL57-1
ARM GAS  C:\Users\z80\AppData\Local\Temp\cc8scWge.s 			page 35


 1820 03ce 0100     		.2byte	0x1
 1821 03d0 53       		.byte	0x53
 1822 03d1 00000000 		.4byte	0x0
 1823 03d5 00000000 		.4byte	0x0
 1824              	.LLST37:
 1825 03d9 4A000000 		.4byte	.LVL59
 1826 03dd 4C000000 		.4byte	.LVL60
 1827 03e1 0100     		.2byte	0x1
 1828 03e3 53       		.byte	0x53
 1829 03e4 00000000 		.4byte	0x0
 1830 03e8 00000000 		.4byte	0x0
 1831              	.LLST38:
 1832 03ec 00000000 		.4byte	.LFB71
 1833 03f0 12000000 		.4byte	.LCFI9
 1834 03f4 0200     		.2byte	0x2
 1835 03f6 7D       		.byte	0x7d
 1836 03f7 00       		.sleb128 0
 1837 03f8 12000000 		.4byte	.LCFI9
 1838 03fc 5C000000 		.4byte	.LFE71
 1839 0400 0200     		.2byte	0x2
 1840 0402 7D       		.byte	0x7d
 1841 0403 10       		.sleb128 16
 1842 0404 00000000 		.4byte	0x0
 1843 0408 00000000 		.4byte	0x0
 1844              	.LLST39:
 1845 040c 00000000 		.4byte	.LVL61
 1846 0410 1C000000 		.4byte	.LVL62
 1847 0414 0100     		.2byte	0x1
 1848 0416 50       		.byte	0x50
 1849 0417 1C000000 		.4byte	.LVL62
 1850 041b 5C000000 		.4byte	.LFE71
 1851 041f 0100     		.2byte	0x1
 1852 0421 54       		.byte	0x54
 1853 0422 00000000 		.4byte	0x0
 1854 0426 00000000 		.4byte	0x0
 1855              	.LLST40:
 1856 042a 00000000 		.4byte	.LVL61
 1857 042e 1C000000 		.4byte	.LVL62
 1858 0432 0100     		.2byte	0x1
 1859 0434 51       		.byte	0x51
 1860 0435 1C000000 		.4byte	.LVL62
 1861 0439 5C000000 		.4byte	.LFE71
 1862 043d 0100     		.2byte	0x1
 1863 043f 55       		.byte	0x55
 1864 0440 00000000 		.4byte	0x0
 1865 0444 00000000 		.4byte	0x0
 1866              	.LLST41:
 1867 0448 00000000 		.4byte	.LVL61
 1868 044c 1C000000 		.4byte	.LVL62
 1869 0450 0100     		.2byte	0x1
 1870 0452 52       		.byte	0x52
 1871 0453 1C000000 		.4byte	.LVL62
 1872 0457 5C000000 		.4byte	.LFE71
 1873 045b 0100     		.2byte	0x1
 1874 045d 56       		.byte	0x56
 1875 045e 00000000 		.4byte	0x0
 1876 0462 00000000 		.4byte	0x0
ARM GAS  C:\Users\z80\AppData\Local\Temp\cc8scWge.s 			page 36


 1877              	.LLST42:
 1878 0466 22000000 		.4byte	.LVL64
 1879 046a 25000000 		.4byte	.LVL65-1
 1880 046e 0100     		.2byte	0x1
 1881 0470 53       		.byte	0x53
 1882 0471 00000000 		.4byte	0x0
 1883 0475 00000000 		.4byte	0x0
 1884              	.LLST43:
 1885 0479 4A000000 		.4byte	.LVL67
 1886 047d 4C000000 		.4byte	.LVL68
 1887 0481 0100     		.2byte	0x1
 1888 0483 53       		.byte	0x53
 1889 0484 00000000 		.4byte	0x0
 1890 0488 00000000 		.4byte	0x0
 1891              	.LLST44:
 1892 048c 00000000 		.4byte	.LFB72
 1893 0490 02000000 		.4byte	.LCFI10
 1894 0494 0200     		.2byte	0x2
 1895 0496 7D       		.byte	0x7d
 1896 0497 00       		.sleb128 0
 1897 0498 02000000 		.4byte	.LCFI10
 1898 049c 88000000 		.4byte	.LFE72
 1899 04a0 0200     		.2byte	0x2
 1900 04a2 7D       		.byte	0x7d
 1901 04a3 10       		.sleb128 16
 1902 04a4 00000000 		.4byte	0x0
 1903 04a8 00000000 		.4byte	0x0
 1904              	.LLST45:
 1905 04ac 00000000 		.4byte	.LVL69
 1906 04b0 1A000000 		.4byte	.LVL70
 1907 04b4 0100     		.2byte	0x1
 1908 04b6 50       		.byte	0x50
 1909 04b7 1A000000 		.4byte	.LVL70
 1910 04bb 88000000 		.4byte	.LFE72
 1911 04bf 0100     		.2byte	0x1
 1912 04c1 54       		.byte	0x54
 1913 04c2 00000000 		.4byte	0x0
 1914 04c6 00000000 		.4byte	0x0
 1915              	.LLST46:
 1916 04ca 00000000 		.4byte	.LVL69
 1917 04ce 1A000000 		.4byte	.LVL70
 1918 04d2 0100     		.2byte	0x1
 1919 04d4 51       		.byte	0x51
 1920 04d5 1A000000 		.4byte	.LVL70
 1921 04d9 88000000 		.4byte	.LFE72
 1922 04dd 0100     		.2byte	0x1
 1923 04df 55       		.byte	0x55
 1924 04e0 00000000 		.4byte	0x0
 1925 04e4 00000000 		.4byte	0x0
 1926              	.LLST47:
 1927 04e8 20000000 		.4byte	.LVL72
 1928 04ec 23000000 		.4byte	.LVL73-1
 1929 04f0 0100     		.2byte	0x1
 1930 04f2 53       		.byte	0x53
 1931 04f3 00000000 		.4byte	0x0
 1932 04f7 00000000 		.4byte	0x0
 1933              	.LLST48:
ARM GAS  C:\Users\z80\AppData\Local\Temp\cc8scWge.s 			page 37


 1934 04fb 68000000 		.4byte	.LVL75
 1935 04ff 6A000000 		.4byte	.LVL76
 1936 0503 0100     		.2byte	0x1
 1937 0505 53       		.byte	0x53
 1938 0506 00000000 		.4byte	0x0
 1939 050a 00000000 		.4byte	0x0
 1940              	.LLST49:
 1941 050e 00000000 		.4byte	.LFB73
 1942 0512 02000000 		.4byte	.LCFI11
 1943 0516 0200     		.2byte	0x2
 1944 0518 7D       		.byte	0x7d
 1945 0519 00       		.sleb128 0
 1946 051a 02000000 		.4byte	.LCFI11
 1947 051e A4000000 		.4byte	.LFE73
 1948 0522 0200     		.2byte	0x2
 1949 0524 7D       		.byte	0x7d
 1950 0525 18       		.sleb128 24
 1951 0526 00000000 		.4byte	0x0
 1952 052a 00000000 		.4byte	0x0
 1953              	.LLST50:
 1954 052e 00000000 		.4byte	.LVL77
 1955 0532 32000000 		.4byte	.LVL80
 1956 0536 0100     		.2byte	0x1
 1957 0538 50       		.byte	0x50
 1958 0539 32000000 		.4byte	.LVL80
 1959 053d A4000000 		.4byte	.LFE73
 1960 0541 0100     		.2byte	0x1
 1961 0543 54       		.byte	0x54
 1962 0544 00000000 		.4byte	0x0
 1963 0548 00000000 		.4byte	0x0
 1964              	.LLST51:
 1965 054c 00000000 		.4byte	.LVL77
 1966 0550 0C000000 		.4byte	.LVL78
 1967 0554 0100     		.2byte	0x1
 1968 0556 51       		.byte	0x51
 1969 0557 0C000000 		.4byte	.LVL78
 1970 055b A4000000 		.4byte	.LFE73
 1971 055f 0100     		.2byte	0x1
 1972 0561 56       		.byte	0x56
 1973 0562 00000000 		.4byte	0x0
 1974 0566 00000000 		.4byte	0x0
 1975              	.LLST52:
 1976 056a 00000000 		.4byte	.LVL77
 1977 056e 32000000 		.4byte	.LVL80
 1978 0572 0100     		.2byte	0x1
 1979 0574 52       		.byte	0x52
 1980 0575 32000000 		.4byte	.LVL80
 1981 0579 A4000000 		.4byte	.LFE73
 1982 057d 0100     		.2byte	0x1
 1983 057f 57       		.byte	0x57
 1984 0580 00000000 		.4byte	0x0
 1985 0584 00000000 		.4byte	0x0
 1986              	.LLST53:
 1987 0588 00000000 		.4byte	.LVL77
 1988 058c 26000000 		.4byte	.LVL79
 1989 0590 0100     		.2byte	0x1
 1990 0592 53       		.byte	0x53
ARM GAS  C:\Users\z80\AppData\Local\Temp\cc8scWge.s 			page 38


 1991 0593 26000000 		.4byte	.LVL79
 1992 0597 A4000000 		.4byte	.LFE73
 1993 059b 0100     		.2byte	0x1
 1994 059d 55       		.byte	0x55
 1995 059e 00000000 		.4byte	0x0
 1996 05a2 00000000 		.4byte	0x0
 1997              	.LLST54:
 1998 05a6 38000000 		.4byte	.LVL82
 1999 05aa 3B000000 		.4byte	.LVL83-1
 2000 05ae 0100     		.2byte	0x1
 2001 05b0 53       		.byte	0x53
 2002 05b1 00000000 		.4byte	0x0
 2003 05b5 00000000 		.4byte	0x0
 2004              	.LLST55:
 2005 05b9 84000000 		.4byte	.LVL85
 2006 05bd 86000000 		.4byte	.LVL86
 2007 05c1 0100     		.2byte	0x1
 2008 05c3 53       		.byte	0x53
 2009 05c4 00000000 		.4byte	0x0
 2010 05c8 00000000 		.4byte	0x0
 2011              	.LLST56:
 2012 05cc 00000000 		.4byte	.LFB74
 2013 05d0 12000000 		.4byte	.LCFI12
 2014 05d4 0200     		.2byte	0x2
 2015 05d6 7D       		.byte	0x7d
 2016 05d7 00       		.sleb128 0
 2017 05d8 12000000 		.4byte	.LCFI12
 2018 05dc 90000000 		.4byte	.LFE74
 2019 05e0 0200     		.2byte	0x2
 2020 05e2 7D       		.byte	0x7d
 2021 05e3 10       		.sleb128 16
 2022 05e4 00000000 		.4byte	0x0
 2023 05e8 00000000 		.4byte	0x0
 2024              	.LLST57:
 2025 05ec 00000000 		.4byte	.LVL87
 2026 05f0 20000000 		.4byte	.LVL88
 2027 05f4 0100     		.2byte	0x1
 2028 05f6 50       		.byte	0x50
 2029 05f7 20000000 		.4byte	.LVL88
 2030 05fb 90000000 		.4byte	.LFE74
 2031 05ff 0100     		.2byte	0x1
 2032 0601 54       		.byte	0x54
 2033 0602 00000000 		.4byte	0x0
 2034 0606 00000000 		.4byte	0x0
 2035              	.LLST58:
 2036 060a 00000000 		.4byte	.LVL87
 2037 060e 20000000 		.4byte	.LVL88
 2038 0612 0100     		.2byte	0x1
 2039 0614 51       		.byte	0x51
 2040 0615 20000000 		.4byte	.LVL88
 2041 0619 90000000 		.4byte	.LFE74
 2042 061d 0100     		.2byte	0x1
 2043 061f 55       		.byte	0x55
 2044 0620 00000000 		.4byte	0x0
 2045 0624 00000000 		.4byte	0x0
 2046              	.LLST59:
 2047 0628 00000000 		.4byte	.LVL87
ARM GAS  C:\Users\z80\AppData\Local\Temp\cc8scWge.s 			page 39


 2048 062c 20000000 		.4byte	.LVL88
 2049 0630 0100     		.2byte	0x1
 2050 0632 52       		.byte	0x52
 2051 0633 20000000 		.4byte	.LVL88
 2052 0637 90000000 		.4byte	.LFE74
 2053 063b 0100     		.2byte	0x1
 2054 063d 56       		.byte	0x56
 2055 063e 00000000 		.4byte	0x0
 2056 0642 00000000 		.4byte	0x0
 2057              	.LLST60:
 2058 0646 26000000 		.4byte	.LVL90
 2059 064a 29000000 		.4byte	.LVL91-1
 2060 064e 0100     		.2byte	0x1
 2061 0650 53       		.byte	0x53
 2062 0651 00000000 		.4byte	0x0
 2063 0655 00000000 		.4byte	0x0
 2064              	.LLST61:
 2065 0659 70000000 		.4byte	.LVL93
 2066 065d 72000000 		.4byte	.LVL94
 2067 0661 0100     		.2byte	0x1
 2068 0663 53       		.byte	0x53
 2069 0664 00000000 		.4byte	0x0
 2070 0668 00000000 		.4byte	0x0
 2071              	.LLST62:
 2072 066c 00000000 		.4byte	.LFB75
 2073 0670 12000000 		.4byte	.LCFI13
 2074 0674 0200     		.2byte	0x2
 2075 0676 7D       		.byte	0x7d
 2076 0677 00       		.sleb128 0
 2077 0678 12000000 		.4byte	.LCFI13
 2078 067c 90000000 		.4byte	.LFE75
 2079 0680 0200     		.2byte	0x2
 2080 0682 7D       		.byte	0x7d
 2081 0683 10       		.sleb128 16
 2082 0684 00000000 		.4byte	0x0
 2083 0688 00000000 		.4byte	0x0
 2084              	.LLST63:
 2085 068c 00000000 		.4byte	.LVL95
 2086 0690 20000000 		.4byte	.LVL96
 2087 0694 0100     		.2byte	0x1
 2088 0696 50       		.byte	0x50
 2089 0697 20000000 		.4byte	.LVL96
 2090 069b 90000000 		.4byte	.LFE75
 2091 069f 0100     		.2byte	0x1
 2092 06a1 54       		.byte	0x54
 2093 06a2 00000000 		.4byte	0x0
 2094 06a6 00000000 		.4byte	0x0
 2095              	.LLST64:
 2096 06aa 00000000 		.4byte	.LVL95
 2097 06ae 20000000 		.4byte	.LVL96
 2098 06b2 0100     		.2byte	0x1
 2099 06b4 51       		.byte	0x51
 2100 06b5 20000000 		.4byte	.LVL96
 2101 06b9 90000000 		.4byte	.LFE75
 2102 06bd 0100     		.2byte	0x1
 2103 06bf 55       		.byte	0x55
 2104 06c0 00000000 		.4byte	0x0
ARM GAS  C:\Users\z80\AppData\Local\Temp\cc8scWge.s 			page 40


 2105 06c4 00000000 		.4byte	0x0
 2106              	.LLST65:
 2107 06c8 00000000 		.4byte	.LVL95
 2108 06cc 20000000 		.4byte	.LVL96
 2109 06d0 0100     		.2byte	0x1
 2110 06d2 52       		.byte	0x52
 2111 06d3 20000000 		.4byte	.LVL96
 2112 06d7 90000000 		.4byte	.LFE75
 2113 06db 0100     		.2byte	0x1
 2114 06dd 56       		.byte	0x56
 2115 06de 00000000 		.4byte	0x0
 2116 06e2 00000000 		.4byte	0x0
 2117              	.LLST66:
 2118 06e6 26000000 		.4byte	.LVL98
 2119 06ea 29000000 		.4byte	.LVL99-1
 2120 06ee 0100     		.2byte	0x1
 2121 06f0 53       		.byte	0x53
 2122 06f1 00000000 		.4byte	0x0
 2123 06f5 00000000 		.4byte	0x0
 2124              	.LLST67:
 2125 06f9 70000000 		.4byte	.LVL101
 2126 06fd 72000000 		.4byte	.LVL102
 2127 0701 0100     		.2byte	0x1
 2128 0703 53       		.byte	0x53
 2129 0704 00000000 		.4byte	0x0
 2130 0708 00000000 		.4byte	0x0
 2131              	.LLST68:
 2132 070c 00000000 		.4byte	.LFB76
 2133 0710 02000000 		.4byte	.LCFI14
 2134 0714 0200     		.2byte	0x2
 2135 0716 7D       		.byte	0x7d
 2136 0717 00       		.sleb128 0
 2137 0718 02000000 		.4byte	.LCFI14
 2138 071c 1C000000 		.4byte	.LFE76
 2139 0720 0200     		.2byte	0x2
 2140 0722 7D       		.byte	0x7d
 2141 0723 08       		.sleb128 8
 2142 0724 00000000 		.4byte	0x0
 2143 0728 00000000 		.4byte	0x0
 2144              	.LLST69:
 2145 072c 00000000 		.4byte	.LVL103
 2146 0730 06000000 		.4byte	.LVL104
 2147 0734 0100     		.2byte	0x1
 2148 0736 50       		.byte	0x50
 2149 0737 06000000 		.4byte	.LVL104
 2150 073b 1C000000 		.4byte	.LFE76
 2151 073f 0100     		.2byte	0x1
 2152 0741 54       		.byte	0x54
 2153 0742 00000000 		.4byte	0x0
 2154 0746 00000000 		.4byte	0x0
 2155              	.LLST70:
 2156 074a 00000000 		.4byte	.LFB77
 2157 074e 02000000 		.4byte	.LCFI15
 2158 0752 0200     		.2byte	0x2
 2159 0754 7D       		.byte	0x7d
 2160 0755 00       		.sleb128 0
 2161 0756 02000000 		.4byte	.LCFI15
ARM GAS  C:\Users\z80\AppData\Local\Temp\cc8scWge.s 			page 41


 2162 075a 18000000 		.4byte	.LFE77
 2163 075e 0200     		.2byte	0x2
 2164 0760 7D       		.byte	0x7d
 2165 0761 08       		.sleb128 8
 2166 0762 00000000 		.4byte	0x0
 2167 0766 00000000 		.4byte	0x0
 2168              	.LLST71:
 2169 076a 00000000 		.4byte	.LVL105
 2170 076e 04000000 		.4byte	.LVL106
 2171 0772 0100     		.2byte	0x1
 2172 0774 50       		.byte	0x50
 2173 0775 0A000000 		.4byte	.LVL107
 2174 0779 0C000000 		.4byte	.LVL108
 2175 077d 0100     		.2byte	0x1
 2176 077f 50       		.byte	0x50
 2177 0780 00000000 		.4byte	0x0
 2178 0784 00000000 		.4byte	0x0
 2179              		.file 2 "c:\\programs\\yagarto\\bin\\../lib/gcc/arm-none-eabi/4.5.0/include/stddef.h"
 2180              		.file 3 "c:/programs/yagarto/lib/gcc/../../arm-none-eabi/sys-include/stdint.h"
 2181              		.file 4 "../chibios_2.4.x/os/ports/GCC/ARMCMx/chtypes.h"
 2182              		.file 5 "../chibios_2.4.x/os/kernel/include/chlists.h"
 2183              		.file 6 "../chibios_2.4.x/os/kernel/include/chthreads.h"
 2184              		.file 7 "../chibios_2.4.x/os/ports/GCC/ARMCMx/chcore_v7m.h"
 2185              		.file 8 "../chibios_2.4.x/os/kernel/include/chschd.h"
 2186              		.file 9 "../chibios_2.4.x/os/kernel/include/chmtx.h"
 2187              		.file 10 "../chibios_2.4.x/os/hal/platforms/STM32F1xx/stm32f10x.h"
 2188              		.file 11 "../chibios_2.4.x/os/hal/platforms/STM32F1xx/stm32_dma.h"
 2189              		.file 12 "../chibios_2.4.x/os/hal/platforms/STM32/GPIOv1/pal_lld.h"
 2190              		.file 13 "../chibios_2.4.x/os/hal/include/spi.h"
 2191              		.file 14 "../chibios_2.4.x/os/hal/platforms/STM32/spi_lld.h"
 2192              		.file 15 "../chibios_2.4.x/os/ports/common/ARMCMx/CMSIS/include/core_cm3.h"
 2193              		.section	.debug_info
 2194 0000 780E0000 		.4byte	0xe78
 2195 0004 0200     		.2byte	0x2
 2196 0006 00000000 		.4byte	.Ldebug_abbrev0
 2197 000a 04       		.byte	0x4
 2198 000b 01       		.uleb128 0x1
 2199 000c E7040000 		.4byte	.LASF132
 2200 0010 01       		.byte	0x1
 2201 0011 A9020000 		.4byte	.LASF133
 2202 0015 C6000000 		.4byte	.LASF134
 2203 0019 00000000 		.4byte	0x0
 2204 001d 00000000 		.4byte	0x0
 2205 0021 00000000 		.4byte	.Ldebug_ranges0+0x0
 2206 0025 00000000 		.4byte	.Ldebug_line0
 2207 0029 02       		.uleb128 0x2
 2208 002a 04       		.byte	0x4
 2209 002b 05       		.byte	0x5
 2210 002c 696E7400 		.ascii	"int\000"
 2211 0030 03       		.uleb128 0x3
 2212 0031 06000000 		.4byte	.LASF2
 2213 0035 02       		.byte	0x2
 2214 0036 D3       		.byte	0xd3
 2215 0037 3B000000 		.4byte	0x3b
 2216 003b 04       		.uleb128 0x4
 2217 003c 04       		.byte	0x4
 2218 003d 07       		.byte	0x7
ARM GAS  C:\Users\z80\AppData\Local\Temp\cc8scWge.s 			page 42


 2219 003e A6010000 		.4byte	.LASF0
 2220 0042 04       		.uleb128 0x4
 2221 0043 01       		.byte	0x1
 2222 0044 06       		.byte	0x6
 2223 0045 9C000000 		.4byte	.LASF1
 2224 0049 03       		.uleb128 0x3
 2225 004a DA040000 		.4byte	.LASF3
 2226 004e 03       		.byte	0x3
 2227 004f 2A       		.byte	0x2a
 2228 0050 54000000 		.4byte	0x54
 2229 0054 04       		.uleb128 0x4
 2230 0055 01       		.byte	0x1
 2231 0056 08       		.byte	0x8
 2232 0057 65030000 		.4byte	.LASF4
 2233 005b 04       		.uleb128 0x4
 2234 005c 02       		.byte	0x2
 2235 005d 05       		.byte	0x5
 2236 005e 90030000 		.4byte	.LASF5
 2237 0062 03       		.uleb128 0x3
 2238 0063 30010000 		.4byte	.LASF6
 2239 0067 03       		.byte	0x3
 2240 0068 36       		.byte	0x36
 2241 0069 6D000000 		.4byte	0x6d
 2242 006d 04       		.uleb128 0x4
 2243 006e 02       		.byte	0x2
 2244 006f 07       		.byte	0x7
 2245 0070 FA010000 		.4byte	.LASF7
 2246 0074 03       		.uleb128 0x3
 2247 0075 5D030000 		.4byte	.LASF8
 2248 0079 03       		.byte	0x3
 2249 007a 4F       		.byte	0x4f
 2250 007b 7F000000 		.4byte	0x7f
 2251 007f 04       		.uleb128 0x4
 2252 0080 04       		.byte	0x4
 2253 0081 05       		.byte	0x5
 2254 0082 07010000 		.4byte	.LASF9
 2255 0086 03       		.uleb128 0x3
 2256 0087 E8030000 		.4byte	.LASF10
 2257 008b 03       		.byte	0x3
 2258 008c 50       		.byte	0x50
 2259 008d 91000000 		.4byte	0x91
 2260 0091 04       		.uleb128 0x4
 2261 0092 04       		.byte	0x4
 2262 0093 07       		.byte	0x7
 2263 0094 F9030000 		.4byte	.LASF11
 2264 0098 04       		.uleb128 0x4
 2265 0099 08       		.byte	0x8
 2266 009a 05       		.byte	0x5
 2267 009b 8E000000 		.4byte	.LASF12
 2268 009f 03       		.uleb128 0x3
 2269 00a0 14000000 		.4byte	.LASF13
 2270 00a4 03       		.byte	0x3
 2271 00a5 78       		.byte	0x78
 2272 00a6 AA000000 		.4byte	0xaa
 2273 00aa 04       		.uleb128 0x4
 2274 00ab 08       		.byte	0x8
 2275 00ac 07       		.byte	0x7
ARM GAS  C:\Users\z80\AppData\Local\Temp\cc8scWge.s 			page 43


 2276 00ad 3C000000 		.4byte	.LASF14
 2277 00b1 03       		.uleb128 0x3
 2278 00b2 13020000 		.4byte	.LASF15
 2279 00b6 04       		.byte	0x4
 2280 00b7 2F       		.byte	0x2f
 2281 00b8 49000000 		.4byte	0x49
 2282 00bc 03       		.uleb128 0x3
 2283 00bd 10010000 		.4byte	.LASF16
 2284 00c1 04       		.byte	0x4
 2285 00c2 30       		.byte	0x30
 2286 00c3 49000000 		.4byte	0x49
 2287 00c7 03       		.uleb128 0x3
 2288 00c8 4F030000 		.4byte	.LASF17
 2289 00cc 04       		.byte	0x4
 2290 00cd 32       		.byte	0x32
 2291 00ce 86000000 		.4byte	0x86
 2292 00d2 03       		.uleb128 0x3
 2293 00d3 0D020000 		.4byte	.LASF18
 2294 00d7 04       		.byte	0x4
 2295 00d8 33       		.byte	0x33
 2296 00d9 74000000 		.4byte	0x74
 2297 00dd 03       		.uleb128 0x3
 2298 00de 27020000 		.4byte	.LASF19
 2299 00e2 04       		.byte	0x4
 2300 00e3 35       		.byte	0x35
 2301 00e4 86000000 		.4byte	0x86
 2302 00e8 03       		.uleb128 0x3
 2303 00e9 42040000 		.4byte	.LASF20
 2304 00ed 04       		.byte	0x4
 2305 00ee 36       		.byte	0x36
 2306 00ef 86000000 		.4byte	0x86
 2307 00f3 03       		.uleb128 0x3
 2308 00f4 95010000 		.4byte	.LASF21
 2309 00f8 04       		.byte	0x4
 2310 00f9 37       		.byte	0x37
 2311 00fa 74000000 		.4byte	0x74
 2312 00fe 03       		.uleb128 0x3
 2313 00ff 50020000 		.4byte	.LASF22
 2314 0103 05       		.byte	0x5
 2315 0104 2A       		.byte	0x2a
 2316 0105 09010000 		.4byte	0x109
 2317 0109 05       		.uleb128 0x5
 2318 010a 50020000 		.4byte	.LASF22
 2319 010e 48       		.byte	0x48
 2320 010f 06       		.byte	0x6
 2321 0110 5E       		.byte	0x5e
 2322 0111 12020000 		.4byte	0x212
 2323 0115 06       		.uleb128 0x6
 2324 0116 B7030000 		.4byte	.LASF23
 2325 011a 06       		.byte	0x6
 2326 011b 5F       		.byte	0x5f
 2327 011c 37020000 		.4byte	0x237
 2328 0120 02       		.byte	0x2
 2329 0121 23       		.byte	0x23
 2330 0122 00       		.uleb128 0x0
 2331 0123 06       		.uleb128 0x6
 2332 0124 2A030000 		.4byte	.LASF24
ARM GAS  C:\Users\z80\AppData\Local\Temp\cc8scWge.s 			page 44


 2333 0128 06       		.byte	0x6
 2334 0129 61       		.byte	0x61
 2335 012a 37020000 		.4byte	0x237
 2336 012e 02       		.byte	0x2
 2337 012f 23       		.byte	0x23
 2338 0130 04       		.uleb128 0x4
 2339 0131 06       		.uleb128 0x6
 2340 0132 87000000 		.4byte	.LASF25
 2341 0136 06       		.byte	0x6
 2342 0137 63       		.byte	0x63
 2343 0138 C7000000 		.4byte	0xc7
 2344 013c 02       		.byte	0x2
 2345 013d 23       		.byte	0x23
 2346 013e 08       		.uleb128 0x8
 2347 013f 06       		.uleb128 0x6
 2348 0140 2B050000 		.4byte	.LASF26
 2349 0144 06       		.byte	0x6
 2350 0145 64       		.byte	0x64
 2351 0146 0F030000 		.4byte	0x30f
 2352 014a 02       		.byte	0x2
 2353 014b 23       		.byte	0x23
 2354 014c 0C       		.uleb128 0xc
 2355 014d 06       		.uleb128 0x6
 2356 014e 4F010000 		.4byte	.LASF27
 2357 0152 06       		.byte	0x6
 2358 0153 66       		.byte	0x66
 2359 0154 37020000 		.4byte	0x237
 2360 0158 02       		.byte	0x2
 2361 0159 23       		.byte	0x23
 2362 015a 10       		.uleb128 0x10
 2363 015b 06       		.uleb128 0x6
 2364 015c 84020000 		.4byte	.LASF28
 2365 0160 06       		.byte	0x6
 2366 0161 67       		.byte	0x67
 2367 0162 37020000 		.4byte	0x237
 2368 0166 02       		.byte	0x2
 2369 0167 23       		.byte	0x23
 2370 0168 14       		.uleb128 0x14
 2371 0169 06       		.uleb128 0x6
 2372 016a FA040000 		.4byte	.LASF29
 2373 016e 06       		.byte	0x6
 2374 016f 6E       		.byte	0x6e
 2375 0170 32040000 		.4byte	0x432
 2376 0174 02       		.byte	0x2
 2377 0175 23       		.byte	0x23
 2378 0176 18       		.uleb128 0x18
 2379 0177 06       		.uleb128 0x6
 2380 0178 9B010000 		.4byte	.LASF30
 2381 017c 06       		.byte	0x6
 2382 017d 74       		.byte	0x74
 2383 017e 44040000 		.4byte	0x444
 2384 0182 02       		.byte	0x2
 2385 0183 23       		.byte	0x23
 2386 0184 1C       		.uleb128 0x1c
 2387 0185 06       		.uleb128 0x6
 2388 0186 9A030000 		.4byte	.LASF31
 2389 018a 06       		.byte	0x6
ARM GAS  C:\Users\z80\AppData\Local\Temp\cc8scWge.s 			page 45


 2390 018b 79       		.byte	0x79
 2391 018c BC000000 		.4byte	0xbc
 2392 0190 02       		.byte	0x2
 2393 0191 23       		.byte	0x23
 2394 0192 20       		.uleb128 0x20
 2395 0193 06       		.uleb128 0x6
 2396 0194 BE030000 		.4byte	.LASF32
 2397 0198 06       		.byte	0x6
 2398 0199 7D       		.byte	0x7d
 2399 019a B1000000 		.4byte	0xb1
 2400 019e 02       		.byte	0x2
 2401 019f 23       		.byte	0x23
 2402 01a0 21       		.uleb128 0x21
 2403 01a1 06       		.uleb128 0x6
 2404 01a2 39010000 		.4byte	.LASF33
 2405 01a6 06       		.byte	0x6
 2406 01a7 89       		.byte	0x89
 2407 01a8 3A030000 		.4byte	0x33a
 2408 01ac 02       		.byte	0x2
 2409 01ad 23       		.byte	0x23
 2410 01ae 24       		.uleb128 0x24
 2411 01af 07       		.uleb128 0x7
 2412 01b0 705F7500 		.ascii	"p_u\000"
 2413 01b4 06       		.byte	0x6
 2414 01b5 AE       		.byte	0xae
 2415 01b6 FD030000 		.4byte	0x3fd
 2416 01ba 02       		.byte	0x2
 2417 01bb 23       		.byte	0x23
 2418 01bc 28       		.uleb128 0x28
 2419 01bd 06       		.uleb128 0x6
 2420 01be 31050000 		.4byte	.LASF34
 2421 01c2 06       		.byte	0x6
 2422 01c3 B3       		.byte	0xb3
 2423 01c4 5F020000 		.4byte	0x25f
 2424 01c8 02       		.byte	0x2
 2425 01c9 23       		.byte	0x23
 2426 01ca 2C       		.uleb128 0x2c
 2427 01cb 06       		.uleb128 0x6
 2428 01cc C9010000 		.4byte	.LASF35
 2429 01d0 06       		.byte	0x6
 2430 01d1 B9       		.byte	0xb9
 2431 01d2 3D020000 		.4byte	0x23d
 2432 01d6 02       		.byte	0x2
 2433 01d7 23       		.byte	0x23
 2434 01d8 30       		.uleb128 0x30
 2435 01d9 06       		.uleb128 0x6
 2436 01da 13050000 		.4byte	.LASF36
 2437 01de 06       		.byte	0x6
 2438 01df BD       		.byte	0xbd
 2439 01e0 D2000000 		.4byte	0xd2
 2440 01e4 02       		.byte	0x2
 2441 01e5 23       		.byte	0x23
 2442 01e6 38       		.uleb128 0x38
 2443 01e7 06       		.uleb128 0x6
 2444 01e8 CE030000 		.4byte	.LASF37
 2445 01ec 06       		.byte	0x6
 2446 01ed C3       		.byte	0xc3
ARM GAS  C:\Users\z80\AppData\Local\Temp\cc8scWge.s 			page 46


 2447 01ee DD000000 		.4byte	0xdd
 2448 01f2 02       		.byte	0x2
 2449 01f3 23       		.byte	0x23
 2450 01f4 3C       		.uleb128 0x3c
 2451 01f5 06       		.uleb128 0x6
 2452 01f6 86030000 		.4byte	.LASF38
 2453 01fa 06       		.byte	0x6
 2454 01fb CA       		.byte	0xca
 2455 01fc 4A040000 		.4byte	0x44a
 2456 0200 02       		.byte	0x2
 2457 0201 23       		.byte	0x23
 2458 0202 40       		.uleb128 0x40
 2459 0203 06       		.uleb128 0x6
 2460 0204 4C040000 		.4byte	.LASF39
 2461 0208 06       		.byte	0x6
 2462 0209 CE       		.byte	0xce
 2463 020a C7000000 		.4byte	0xc7
 2464 020e 02       		.byte	0x2
 2465 020f 23       		.byte	0x23
 2466 0210 44       		.uleb128 0x44
 2467 0211 00       		.byte	0x0
 2468 0212 08       		.uleb128 0x8
 2469 0213 08       		.byte	0x8
 2470 0214 05       		.byte	0x5
 2471 0215 61       		.byte	0x61
 2472 0216 37020000 		.4byte	0x237
 2473 021a 06       		.uleb128 0x6
 2474 021b B7030000 		.4byte	.LASF23
 2475 021f 05       		.byte	0x5
 2476 0220 62       		.byte	0x62
 2477 0221 37020000 		.4byte	0x237
 2478 0225 02       		.byte	0x2
 2479 0226 23       		.byte	0x23
 2480 0227 00       		.uleb128 0x0
 2481 0228 06       		.uleb128 0x6
 2482 0229 2A030000 		.4byte	.LASF24
 2483 022d 05       		.byte	0x5
 2484 022e 64       		.byte	0x64
 2485 022f 37020000 		.4byte	0x237
 2486 0233 02       		.byte	0x2
 2487 0234 23       		.byte	0x23
 2488 0235 04       		.uleb128 0x4
 2489 0236 00       		.byte	0x0
 2490 0237 09       		.uleb128 0x9
 2491 0238 04       		.byte	0x4
 2492 0239 FE000000 		.4byte	0xfe
 2493 023d 03       		.uleb128 0x3
 2494 023e 92020000 		.4byte	.LASF40
 2495 0242 05       		.byte	0x5
 2496 0243 66       		.byte	0x66
 2497 0244 12020000 		.4byte	0x212
 2498 0248 08       		.uleb128 0x8
 2499 0249 04       		.byte	0x4
 2500 024a 05       		.byte	0x5
 2501 024b 6B       		.byte	0x6b
 2502 024c 5F020000 		.4byte	0x25f
 2503 0250 06       		.uleb128 0x6
ARM GAS  C:\Users\z80\AppData\Local\Temp\cc8scWge.s 			page 47


 2504 0251 B7030000 		.4byte	.LASF23
 2505 0255 05       		.byte	0x5
 2506 0256 6D       		.byte	0x6d
 2507 0257 37020000 		.4byte	0x237
 2508 025b 02       		.byte	0x2
 2509 025c 23       		.byte	0x23
 2510 025d 00       		.uleb128 0x0
 2511 025e 00       		.byte	0x0
 2512 025f 03       		.uleb128 0x3
 2513 0260 1B020000 		.4byte	.LASF41
 2514 0264 05       		.byte	0x5
 2515 0265 70       		.byte	0x70
 2516 0266 48020000 		.4byte	0x248
 2517 026a 03       		.uleb128 0x3
 2518 026b 76010000 		.4byte	.LASF42
 2519 026f 07       		.byte	0x7
 2520 0270 D7       		.byte	0xd7
 2521 0271 75020000 		.4byte	0x275
 2522 0275 0A       		.uleb128 0xa
 2523 0276 04       		.byte	0x4
 2524 0277 03       		.uleb128 0x3
 2525 0278 3D020000 		.4byte	.LASF43
 2526 027c 07       		.byte	0x7
 2527 027d DD       		.byte	0xdd
 2528 027e 9F000000 		.4byte	0x9f
 2529 0282 05       		.uleb128 0x5
 2530 0283 95040000 		.4byte	.LASF44
 2531 0287 24       		.byte	0x24
 2532 0288 07       		.byte	0x7
 2533 0289 FE       		.byte	0xfe
 2534 028a 0F030000 		.4byte	0x30f
 2535 028e 0B       		.uleb128 0xb
 2536 028f 723400   		.ascii	"r4\000"
 2537 0292 07       		.byte	0x7
 2538 0293 1101     		.2byte	0x111
 2539 0295 6A020000 		.4byte	0x26a
 2540 0299 02       		.byte	0x2
 2541 029a 23       		.byte	0x23
 2542 029b 00       		.uleb128 0x0
 2543 029c 0B       		.uleb128 0xb
 2544 029d 723500   		.ascii	"r5\000"
 2545 02a0 07       		.byte	0x7
 2546 02a1 1201     		.2byte	0x112
 2547 02a3 6A020000 		.4byte	0x26a
 2548 02a7 02       		.byte	0x2
 2549 02a8 23       		.byte	0x23
 2550 02a9 04       		.uleb128 0x4
 2551 02aa 0B       		.uleb128 0xb
 2552 02ab 723600   		.ascii	"r6\000"
 2553 02ae 07       		.byte	0x7
 2554 02af 1301     		.2byte	0x113
 2555 02b1 6A020000 		.4byte	0x26a
 2556 02b5 02       		.byte	0x2
 2557 02b6 23       		.byte	0x23
 2558 02b7 08       		.uleb128 0x8
 2559 02b8 0B       		.uleb128 0xb
 2560 02b9 723700   		.ascii	"r7\000"
ARM GAS  C:\Users\z80\AppData\Local\Temp\cc8scWge.s 			page 48


 2561 02bc 07       		.byte	0x7
 2562 02bd 1401     		.2byte	0x114
 2563 02bf 6A020000 		.4byte	0x26a
 2564 02c3 02       		.byte	0x2
 2565 02c4 23       		.byte	0x23
 2566 02c5 0C       		.uleb128 0xc
 2567 02c6 0B       		.uleb128 0xb
 2568 02c7 723800   		.ascii	"r8\000"
 2569 02ca 07       		.byte	0x7
 2570 02cb 1501     		.2byte	0x115
 2571 02cd 6A020000 		.4byte	0x26a
 2572 02d1 02       		.byte	0x2
 2573 02d2 23       		.byte	0x23
 2574 02d3 10       		.uleb128 0x10
 2575 02d4 0B       		.uleb128 0xb
 2576 02d5 723900   		.ascii	"r9\000"
 2577 02d8 07       		.byte	0x7
 2578 02d9 1601     		.2byte	0x116
 2579 02db 6A020000 		.4byte	0x26a
 2580 02df 02       		.byte	0x2
 2581 02e0 23       		.byte	0x23
 2582 02e1 14       		.uleb128 0x14
 2583 02e2 0B       		.uleb128 0xb
 2584 02e3 72313000 		.ascii	"r10\000"
 2585 02e7 07       		.byte	0x7
 2586 02e8 1701     		.2byte	0x117
 2587 02ea 6A020000 		.4byte	0x26a
 2588 02ee 02       		.byte	0x2
 2589 02ef 23       		.byte	0x23
 2590 02f0 18       		.uleb128 0x18
 2591 02f1 0B       		.uleb128 0xb
 2592 02f2 72313100 		.ascii	"r11\000"
 2593 02f6 07       		.byte	0x7
 2594 02f7 1801     		.2byte	0x118
 2595 02f9 6A020000 		.4byte	0x26a
 2596 02fd 02       		.byte	0x2
 2597 02fe 23       		.byte	0x23
 2598 02ff 1C       		.uleb128 0x1c
 2599 0300 0B       		.uleb128 0xb
 2600 0301 6C7200   		.ascii	"lr\000"
 2601 0304 07       		.byte	0x7
 2602 0305 1901     		.2byte	0x119
 2603 0307 6A020000 		.4byte	0x26a
 2604 030b 02       		.byte	0x2
 2605 030c 23       		.byte	0x23
 2606 030d 20       		.uleb128 0x20
 2607 030e 00       		.byte	0x0
 2608 030f 0C       		.uleb128 0xc
 2609 0310 7A040000 		.4byte	.LASF45
 2610 0314 04       		.byte	0x4
 2611 0315 07       		.byte	0x7
 2612 0316 2301     		.2byte	0x123
 2613 0318 2C030000 		.4byte	0x32c
 2614 031c 0B       		.uleb128 0xb
 2615 031d 72313300 		.ascii	"r13\000"
 2616 0321 07       		.byte	0x7
 2617 0322 2401     		.2byte	0x124
ARM GAS  C:\Users\z80\AppData\Local\Temp\cc8scWge.s 			page 49


 2618 0324 2C030000 		.4byte	0x32c
 2619 0328 02       		.byte	0x2
 2620 0329 23       		.byte	0x23
 2621 032a 00       		.uleb128 0x0
 2622 032b 00       		.byte	0x0
 2623 032c 09       		.uleb128 0x9
 2624 032d 04       		.byte	0x4
 2625 032e 82020000 		.4byte	0x282
 2626 0332 0D       		.uleb128 0xd
 2627 0333 86000000 		.4byte	0x86
 2628 0337 0E       		.uleb128 0xe
 2629 0338 04       		.byte	0x4
 2630 0339 07       		.byte	0x7
 2631 033a 0D       		.uleb128 0xd
 2632 033b E8000000 		.4byte	0xe8
 2633 033f 08       		.uleb128 0x8
 2634 0340 20       		.byte	0x20
 2635 0341 08       		.byte	0x8
 2636 0342 5E       		.byte	0x5e
 2637 0343 AA030000 		.4byte	0x3aa
 2638 0347 06       		.uleb128 0x6
 2639 0348 F1030000 		.4byte	.LASF46
 2640 034c 08       		.byte	0x8
 2641 034d 5F       		.byte	0x5f
 2642 034e 3D020000 		.4byte	0x23d
 2643 0352 02       		.byte	0x2
 2644 0353 23       		.byte	0x23
 2645 0354 00       		.uleb128 0x0
 2646 0355 06       		.uleb128 0x6
 2647 0356 57020000 		.4byte	.LASF47
 2648 035a 08       		.byte	0x8
 2649 035b 60       		.byte	0x60
 2650 035c C7000000 		.4byte	0xc7
 2651 0360 02       		.byte	0x2
 2652 0361 23       		.byte	0x23
 2653 0362 08       		.uleb128 0x8
 2654 0363 06       		.uleb128 0x6
 2655 0364 8C020000 		.4byte	.LASF48
 2656 0368 08       		.byte	0x8
 2657 0369 62       		.byte	0x62
 2658 036a 0F030000 		.4byte	0x30f
 2659 036e 02       		.byte	0x2
 2660 036f 23       		.byte	0x23
 2661 0370 0C       		.uleb128 0xc
 2662 0371 06       		.uleb128 0x6
 2663 0372 6E010000 		.4byte	.LASF49
 2664 0376 08       		.byte	0x8
 2665 0377 65       		.byte	0x65
 2666 0378 37020000 		.4byte	0x237
 2667 037c 02       		.byte	0x2
 2668 037d 23       		.byte	0x23
 2669 037e 10       		.uleb128 0x10
 2670 037f 06       		.uleb128 0x6
 2671 0380 D5020000 		.4byte	.LASF50
 2672 0384 08       		.byte	0x8
 2673 0385 66       		.byte	0x66
 2674 0386 37020000 		.4byte	0x237
ARM GAS  C:\Users\z80\AppData\Local\Temp\cc8scWge.s 			page 50


 2675 038a 02       		.byte	0x2
 2676 038b 23       		.byte	0x23
 2677 038c 14       		.uleb128 0x14
 2678 038d 06       		.uleb128 0x6
 2679 038e 19050000 		.4byte	.LASF51
 2680 0392 08       		.byte	0x8
 2681 0393 6A       		.byte	0x6a
 2682 0394 F3000000 		.4byte	0xf3
 2683 0398 02       		.byte	0x2
 2684 0399 23       		.byte	0x23
 2685 039a 18       		.uleb128 0x18
 2686 039b 06       		.uleb128 0x6
 2687 039c CB020000 		.4byte	.LASF52
 2688 03a0 08       		.byte	0x8
 2689 03a1 6C       		.byte	0x6c
 2690 03a2 37020000 		.4byte	0x237
 2691 03a6 02       		.byte	0x2
 2692 03a7 23       		.byte	0x23
 2693 03a8 1C       		.uleb128 0x1c
 2694 03a9 00       		.byte	0x0
 2695 03aa 03       		.uleb128 0x3
 2696 03ab 33020000 		.4byte	.LASF53
 2697 03af 08       		.byte	0x8
 2698 03b0 6E       		.byte	0x6e
 2699 03b1 3F030000 		.4byte	0x33f
 2700 03b5 05       		.uleb128 0x5
 2701 03b6 70020000 		.4byte	.LASF54
 2702 03ba 10       		.byte	0x10
 2703 03bb 09       		.byte	0x9
 2704 03bc 2C       		.byte	0x2c
 2705 03bd EC030000 		.4byte	0x3ec
 2706 03c1 06       		.uleb128 0x6
 2707 03c2 BE000000 		.4byte	.LASF55
 2708 03c6 09       		.byte	0x9
 2709 03c7 2D       		.byte	0x2d
 2710 03c8 3D020000 		.4byte	0x23d
 2711 03cc 02       		.byte	0x2
 2712 03cd 23       		.byte	0x23
 2713 03ce 00       		.uleb128 0x0
 2714 03cf 06       		.uleb128 0x6
 2715 03d0 23050000 		.4byte	.LASF56
 2716 03d4 09       		.byte	0x9
 2717 03d5 2F       		.byte	0x2f
 2718 03d6 37020000 		.4byte	0x237
 2719 03da 02       		.byte	0x2
 2720 03db 23       		.byte	0x23
 2721 03dc 08       		.uleb128 0x8
 2722 03dd 06       		.uleb128 0x6
 2723 03de 3B040000 		.4byte	.LASF57
 2724 03e2 09       		.byte	0x9
 2725 03e3 31       		.byte	0x31
 2726 03e4 EC030000 		.4byte	0x3ec
 2727 03e8 02       		.byte	0x2
 2728 03e9 23       		.byte	0x23
 2729 03ea 0C       		.uleb128 0xc
 2730 03eb 00       		.byte	0x0
 2731 03ec 09       		.uleb128 0x9
ARM GAS  C:\Users\z80\AppData\Local\Temp\cc8scWge.s 			page 51


 2732 03ed 04       		.byte	0x4
 2733 03ee B5030000 		.4byte	0x3b5
 2734 03f2 03       		.uleb128 0x3
 2735 03f3 70020000 		.4byte	.LASF54
 2736 03f7 09       		.byte	0x9
 2737 03f8 33       		.byte	0x33
 2738 03f9 B5030000 		.4byte	0x3b5
 2739 03fd 0F       		.uleb128 0xf
 2740 03fe 04       		.byte	0x4
 2741 03ff 06       		.byte	0x6
 2742 0400 90       		.byte	0x90
 2743 0401 32040000 		.4byte	0x432
 2744 0405 10       		.uleb128 0x10
 2745 0406 0D000000 		.4byte	.LASF58
 2746 040a 06       		.byte	0x6
 2747 040b 97       		.byte	0x97
 2748 040c D2000000 		.4byte	0xd2
 2749 0410 10       		.uleb128 0x10
 2750 0411 59000000 		.4byte	.LASF59
 2751 0415 06       		.byte	0x6
 2752 0416 9E       		.byte	0x9e
 2753 0417 D2000000 		.4byte	0xd2
 2754 041b 10       		.uleb128 0x10
 2755 041c F3040000 		.4byte	.LASF60
 2756 0420 06       		.byte	0x6
 2757 0421 A5       		.byte	0xa5
 2758 0422 75020000 		.4byte	0x275
 2759 0426 10       		.uleb128 0x10
 2760 0427 B0030000 		.4byte	.LASF61
 2761 042b 06       		.byte	0x6
 2762 042c AC       		.byte	0xac
 2763 042d DD000000 		.4byte	0xdd
 2764 0431 00       		.byte	0x0
 2765 0432 09       		.uleb128 0x9
 2766 0433 04       		.byte	0x4
 2767 0434 38040000 		.4byte	0x438
 2768 0438 11       		.uleb128 0x11
 2769 0439 3D040000 		.4byte	0x43d
 2770 043d 04       		.uleb128 0x4
 2771 043e 01       		.byte	0x1
 2772 043f 08       		.byte	0x8
 2773 0440 17040000 		.4byte	.LASF62
 2774 0444 09       		.uleb128 0x9
 2775 0445 04       		.byte	0x4
 2776 0446 77020000 		.4byte	0x277
 2777 044a 09       		.uleb128 0x9
 2778 044b 04       		.byte	0x4
 2779 044c F2030000 		.4byte	0x3f2
 2780 0450 0D       		.uleb128 0xd
 2781 0451 62000000 		.4byte	0x62
 2782 0455 0D       		.uleb128 0xd
 2783 0456 74000000 		.4byte	0x74
 2784 045a 12       		.uleb128 0x12
 2785 045b 10       		.byte	0x10
 2786 045c 0A       		.byte	0xa
 2787 045d 2D03     		.2byte	0x32d
 2788 045f A0040000 		.4byte	0x4a0
ARM GAS  C:\Users\z80\AppData\Local\Temp\cc8scWge.s 			page 52


 2789 0463 0B       		.uleb128 0xb
 2790 0464 43435200 		.ascii	"CCR\000"
 2791 0468 0A       		.byte	0xa
 2792 0469 2F03     		.2byte	0x32f
 2793 046b 32030000 		.4byte	0x332
 2794 046f 02       		.byte	0x2
 2795 0470 23       		.byte	0x23
 2796 0471 00       		.uleb128 0x0
 2797 0472 13       		.uleb128 0x13
 2798 0473 C2040000 		.4byte	.LASF63
 2799 0477 0A       		.byte	0xa
 2800 0478 3003     		.2byte	0x330
 2801 047a 32030000 		.4byte	0x332
 2802 047e 02       		.byte	0x2
 2803 047f 23       		.byte	0x23
 2804 0480 04       		.uleb128 0x4
 2805 0481 13       		.uleb128 0x13
 2806 0482 C4010000 		.4byte	.LASF64
 2807 0486 0A       		.byte	0xa
 2808 0487 3103     		.2byte	0x331
 2809 0489 32030000 		.4byte	0x332
 2810 048d 02       		.byte	0x2
 2811 048e 23       		.byte	0x23
 2812 048f 08       		.uleb128 0x8
 2813 0490 13       		.uleb128 0x13
 2814 0491 C8040000 		.4byte	.LASF65
 2815 0495 0A       		.byte	0xa
 2816 0496 3203     		.2byte	0x332
 2817 0498 32030000 		.4byte	0x332
 2818 049c 02       		.byte	0x2
 2819 049d 23       		.byte	0x23
 2820 049e 0C       		.uleb128 0xc
 2821 049f 00       		.byte	0x0
 2822 04a0 14       		.uleb128 0x14
 2823 04a1 DD020000 		.4byte	.LASF66
 2824 04a5 0A       		.byte	0xa
 2825 04a6 3303     		.2byte	0x333
 2826 04a8 5A040000 		.4byte	0x45a
 2827 04ac 12       		.uleb128 0x12
 2828 04ad 1C       		.byte	0x1c
 2829 04ae 0A       		.byte	0xa
 2830 04af F803     		.2byte	0x3f8
 2831 04b1 1F050000 		.4byte	0x51f
 2832 04b5 0B       		.uleb128 0xb
 2833 04b6 43524C00 		.ascii	"CRL\000"
 2834 04ba 0A       		.byte	0xa
 2835 04bb FA03     		.2byte	0x3fa
 2836 04bd 32030000 		.4byte	0x332
 2837 04c1 02       		.byte	0x2
 2838 04c2 23       		.byte	0x23
 2839 04c3 00       		.uleb128 0x0
 2840 04c4 0B       		.uleb128 0xb
 2841 04c5 43524800 		.ascii	"CRH\000"
 2842 04c9 0A       		.byte	0xa
 2843 04ca FB03     		.2byte	0x3fb
 2844 04cc 32030000 		.4byte	0x332
 2845 04d0 02       		.byte	0x2
ARM GAS  C:\Users\z80\AppData\Local\Temp\cc8scWge.s 			page 53


 2846 04d1 23       		.byte	0x23
 2847 04d2 04       		.uleb128 0x4
 2848 04d3 0B       		.uleb128 0xb
 2849 04d4 49445200 		.ascii	"IDR\000"
 2850 04d8 0A       		.byte	0xa
 2851 04d9 FC03     		.2byte	0x3fc
 2852 04db 32030000 		.4byte	0x332
 2853 04df 02       		.byte	0x2
 2854 04e0 23       		.byte	0x23
 2855 04e1 08       		.uleb128 0x8
 2856 04e2 0B       		.uleb128 0xb
 2857 04e3 4F445200 		.ascii	"ODR\000"
 2858 04e7 0A       		.byte	0xa
 2859 04e8 FD03     		.2byte	0x3fd
 2860 04ea 32030000 		.4byte	0x332
 2861 04ee 02       		.byte	0x2
 2862 04ef 23       		.byte	0x23
 2863 04f0 0C       		.uleb128 0xc
 2864 04f1 13       		.uleb128 0x13
 2865 04f2 A8000000 		.4byte	.LASF67
 2866 04f6 0A       		.byte	0xa
 2867 04f7 FE03     		.2byte	0x3fe
 2868 04f9 32030000 		.4byte	0x332
 2869 04fd 02       		.byte	0x2
 2870 04fe 23       		.byte	0x23
 2871 04ff 10       		.uleb128 0x10
 2872 0500 0B       		.uleb128 0xb
 2873 0501 42525200 		.ascii	"BRR\000"
 2874 0505 0A       		.byte	0xa
 2875 0506 FF03     		.2byte	0x3ff
 2876 0508 32030000 		.4byte	0x332
 2877 050c 02       		.byte	0x2
 2878 050d 23       		.byte	0x23
 2879 050e 14       		.uleb128 0x14
 2880 050f 13       		.uleb128 0x13
 2881 0510 E1010000 		.4byte	.LASF68
 2882 0514 0A       		.byte	0xa
 2883 0515 0004     		.2byte	0x400
 2884 0517 32030000 		.4byte	0x332
 2885 051b 02       		.byte	0x2
 2886 051c 23       		.byte	0x23
 2887 051d 18       		.uleb128 0x18
 2888 051e 00       		.byte	0x0
 2889 051f 14       		.uleb128 0x14
 2890 0520 D4010000 		.4byte	.LASF69
 2891 0524 0A       		.byte	0xa
 2892 0525 0104     		.2byte	0x401
 2893 0527 AC040000 		.4byte	0x4ac
 2894 052b 12       		.uleb128 0x12
 2895 052c 24       		.byte	0x24
 2896 052d 0A       		.byte	0xa
 2897 052e 9704     		.2byte	0x497
 2898 0530 41060000 		.4byte	0x641
 2899 0534 0B       		.uleb128 0xb
 2900 0535 43523100 		.ascii	"CR1\000"
 2901 0539 0A       		.byte	0xa
 2902 053a 9904     		.2byte	0x499
ARM GAS  C:\Users\z80\AppData\Local\Temp\cc8scWge.s 			page 54


 2903 053c 50040000 		.4byte	0x450
 2904 0540 02       		.byte	0x2
 2905 0541 23       		.byte	0x23
 2906 0542 00       		.uleb128 0x0
 2907 0543 13       		.uleb128 0x13
 2908 0544 F8020000 		.4byte	.LASF70
 2909 0548 0A       		.byte	0xa
 2910 0549 9A04     		.2byte	0x49a
 2911 054b 62000000 		.4byte	0x62
 2912 054f 02       		.byte	0x2
 2913 0550 23       		.byte	0x23
 2914 0551 02       		.uleb128 0x2
 2915 0552 0B       		.uleb128 0xb
 2916 0553 43523200 		.ascii	"CR2\000"
 2917 0557 0A       		.byte	0xa
 2918 0558 9B04     		.2byte	0x49b
 2919 055a 50040000 		.4byte	0x450
 2920 055e 02       		.byte	0x2
 2921 055f 23       		.byte	0x23
 2922 0560 04       		.uleb128 0x4
 2923 0561 13       		.uleb128 0x13
 2924 0562 02030000 		.4byte	.LASF71
 2925 0566 0A       		.byte	0xa
 2926 0567 9C04     		.2byte	0x49c
 2927 0569 62000000 		.4byte	0x62
 2928 056d 02       		.byte	0x2
 2929 056e 23       		.byte	0x23
 2930 056f 06       		.uleb128 0x6
 2931 0570 0B       		.uleb128 0xb
 2932 0571 535200   		.ascii	"SR\000"
 2933 0574 0A       		.byte	0xa
 2934 0575 9D04     		.2byte	0x49d
 2935 0577 50040000 		.4byte	0x450
 2936 057b 02       		.byte	0x2
 2937 057c 23       		.byte	0x23
 2938 057d 08       		.uleb128 0x8
 2939 057e 13       		.uleb128 0x13
 2940 057f 0C030000 		.4byte	.LASF72
 2941 0583 0A       		.byte	0xa
 2942 0584 9E04     		.2byte	0x49e
 2943 0586 62000000 		.4byte	0x62
 2944 058a 02       		.byte	0x2
 2945 058b 23       		.byte	0x23
 2946 058c 0A       		.uleb128 0xa
 2947 058d 0B       		.uleb128 0xb
 2948 058e 445200   		.ascii	"DR\000"
 2949 0591 0A       		.byte	0xa
 2950 0592 9F04     		.2byte	0x49f
 2951 0594 50040000 		.4byte	0x450
 2952 0598 02       		.byte	0x2
 2953 0599 23       		.byte	0x23
 2954 059a 0C       		.uleb128 0xc
 2955 059b 13       		.uleb128 0x13
 2956 059c 16030000 		.4byte	.LASF73
 2957 05a0 0A       		.byte	0xa
 2958 05a1 A004     		.2byte	0x4a0
 2959 05a3 62000000 		.4byte	0x62
ARM GAS  C:\Users\z80\AppData\Local\Temp\cc8scWge.s 			page 55


 2960 05a7 02       		.byte	0x2
 2961 05a8 23       		.byte	0x23
 2962 05a9 0E       		.uleb128 0xe
 2963 05aa 13       		.uleb128 0x13
 2964 05ab 53000000 		.4byte	.LASF74
 2965 05af 0A       		.byte	0xa
 2966 05b0 A104     		.2byte	0x4a1
 2967 05b2 50040000 		.4byte	0x450
 2968 05b6 02       		.byte	0x2
 2969 05b7 23       		.byte	0x23
 2970 05b8 10       		.uleb128 0x10
 2971 05b9 13       		.uleb128 0x13
 2972 05ba 20030000 		.4byte	.LASF75
 2973 05be 0A       		.byte	0xa
 2974 05bf A204     		.2byte	0x4a2
 2975 05c1 62000000 		.4byte	0x62
 2976 05c5 02       		.byte	0x2
 2977 05c6 23       		.byte	0x23
 2978 05c7 12       		.uleb128 0x12
 2979 05c8 13       		.uleb128 0x13
 2980 05c9 CD040000 		.4byte	.LASF76
 2981 05cd 0A       		.byte	0xa
 2982 05ce A304     		.2byte	0x4a3
 2983 05d0 50040000 		.4byte	0x450
 2984 05d4 02       		.byte	0x2
 2985 05d5 23       		.byte	0x23
 2986 05d6 14       		.uleb128 0x14
 2987 05d7 13       		.uleb128 0x13
 2988 05d8 DE030000 		.4byte	.LASF77
 2989 05dc 0A       		.byte	0xa
 2990 05dd A404     		.2byte	0x4a4
 2991 05df 62000000 		.4byte	0x62
 2992 05e3 02       		.byte	0x2
 2993 05e4 23       		.byte	0x23
 2994 05e5 16       		.uleb128 0x16
 2995 05e6 13       		.uleb128 0x13
 2996 05e7 F1020000 		.4byte	.LASF78
 2997 05eb 0A       		.byte	0xa
 2998 05ec A504     		.2byte	0x4a5
 2999 05ee 50040000 		.4byte	0x450
 3000 05f2 02       		.byte	0x2
 3001 05f3 23       		.byte	0x23
 3002 05f4 18       		.uleb128 0x18
 3003 05f5 13       		.uleb128 0x13
 3004 05f6 31030000 		.4byte	.LASF79
 3005 05fa 0A       		.byte	0xa
 3006 05fb A604     		.2byte	0x4a6
 3007 05fd 62000000 		.4byte	0x62
 3008 0601 02       		.byte	0x2
 3009 0602 23       		.byte	0x23
 3010 0603 1A       		.uleb128 0x1a
 3011 0604 13       		.uleb128 0x13
 3012 0605 B6000000 		.4byte	.LASF80
 3013 0609 0A       		.byte	0xa
 3014 060a A704     		.2byte	0x4a7
 3015 060c 50040000 		.4byte	0x450
 3016 0610 02       		.byte	0x2
ARM GAS  C:\Users\z80\AppData\Local\Temp\cc8scWge.s 			page 56


 3017 0611 23       		.byte	0x23
 3018 0612 1C       		.uleb128 0x1c
 3019 0613 13       		.uleb128 0x13
 3020 0614 3B030000 		.4byte	.LASF81
 3021 0618 0A       		.byte	0xa
 3022 0619 A804     		.2byte	0x4a8
 3023 061b 62000000 		.4byte	0x62
 3024 061f 02       		.byte	0x2
 3025 0620 23       		.byte	0x23
 3026 0621 1E       		.uleb128 0x1e
 3027 0622 13       		.uleb128 0x13
 3028 0623 6A020000 		.4byte	.LASF82
 3029 0627 0A       		.byte	0xa
 3030 0628 A904     		.2byte	0x4a9
 3031 062a 50040000 		.4byte	0x450
 3032 062e 02       		.byte	0x2
 3033 062f 23       		.byte	0x23
 3034 0630 20       		.uleb128 0x20
 3035 0631 13       		.uleb128 0x13
 3036 0632 45030000 		.4byte	.LASF83
 3037 0636 0A       		.byte	0xa
 3038 0637 AA04     		.2byte	0x4aa
 3039 0639 62000000 		.4byte	0x62
 3040 063d 02       		.byte	0x2
 3041 063e 23       		.byte	0x23
 3042 063f 22       		.uleb128 0x22
 3043 0640 00       		.byte	0x0
 3044 0641 14       		.uleb128 0x14
 3045 0642 0B040000 		.4byte	.LASF84
 3046 0646 0A       		.byte	0xa
 3047 0647 AB04     		.2byte	0x4ab
 3048 0649 2B050000 		.4byte	0x52b
 3049 064d 08       		.uleb128 0x8
 3050 064e 0C       		.byte	0xc
 3051 064f 0B       		.byte	0xb
 3052 0650 C2       		.byte	0xc2
 3053 0651 9C060000 		.4byte	0x69c
 3054 0655 06       		.uleb128 0x6
 3055 0656 C6030000 		.4byte	.LASF85
 3056 065a 0B       		.byte	0xb
 3057 065b C3       		.byte	0xc3
 3058 065c 9C060000 		.4byte	0x69c
 3059 0660 02       		.byte	0x2
 3060 0661 23       		.byte	0x23
 3061 0662 00       		.uleb128 0x0
 3062 0663 06       		.uleb128 0x6
 3063 0664 D9030000 		.4byte	.LASF86
 3064 0668 0B       		.byte	0xb
 3065 0669 C4       		.byte	0xc4
 3066 066a A2060000 		.4byte	0x6a2
 3067 066e 02       		.byte	0x2
 3068 066f 23       		.byte	0x23
 3069 0670 04       		.uleb128 0x4
 3070 0671 06       		.uleb128 0x6
 3071 0672 E6010000 		.4byte	.LASF87
 3072 0676 0B       		.byte	0xb
 3073 0677 C5       		.byte	0xc5
ARM GAS  C:\Users\z80\AppData\Local\Temp\cc8scWge.s 			page 57


 3074 0678 49000000 		.4byte	0x49
 3075 067c 02       		.byte	0x2
 3076 067d 23       		.byte	0x23
 3077 067e 08       		.uleb128 0x8
 3078 067f 06       		.uleb128 0x6
 3079 0680 7F010000 		.4byte	.LASF88
 3080 0684 0B       		.byte	0xb
 3081 0685 C7       		.byte	0xc7
 3082 0686 49000000 		.4byte	0x49
 3083 068a 02       		.byte	0x2
 3084 068b 23       		.byte	0x23
 3085 068c 09       		.uleb128 0x9
 3086 068d 06       		.uleb128 0x6
 3087 068e 62000000 		.4byte	.LASF89
 3088 0692 0B       		.byte	0xb
 3089 0693 C8       		.byte	0xc8
 3090 0694 49000000 		.4byte	0x49
 3091 0698 02       		.byte	0x2
 3092 0699 23       		.byte	0x23
 3093 069a 0A       		.uleb128 0xa
 3094 069b 00       		.byte	0x0
 3095 069c 09       		.uleb128 0x9
 3096 069d 04       		.byte	0x4
 3097 069e A0040000 		.4byte	0x4a0
 3098 06a2 09       		.uleb128 0x9
 3099 06a3 04       		.byte	0x4
 3100 06a4 32030000 		.4byte	0x332
 3101 06a8 03       		.uleb128 0x3
 3102 06a9 73030000 		.4byte	.LASF90
 3103 06ad 0B       		.byte	0xb
 3104 06ae C9       		.byte	0xc9
 3105 06af 4D060000 		.4byte	0x64d
 3106 06b3 03       		.uleb128 0x3
 3107 06b4 6F040000 		.4byte	.LASF91
 3108 06b8 0C       		.byte	0xc
 3109 06b9 85       		.byte	0x85
 3110 06ba BE060000 		.4byte	0x6be
 3111 06be 09       		.uleb128 0x9
 3112 06bf 04       		.byte	0x4
 3113 06c0 1F050000 		.4byte	0x51f
 3114 06c4 09       		.uleb128 0x9
 3115 06c5 04       		.byte	0x4
 3116 06c6 CA060000 		.4byte	0x6ca
 3117 06ca 11       		.uleb128 0x11
 3118 06cb A8060000 		.4byte	0x6a8
 3119 06cf 15       		.uleb128 0x15
 3120 06d0 01       		.byte	0x1
 3121 06d1 0D       		.byte	0xd
 3122 06d2 55       		.byte	0x55
 3123 06d3 F6060000 		.4byte	0x6f6
 3124 06d7 16       		.uleb128 0x16
 3125 06d8 A6040000 		.4byte	.LASF92
 3126 06dc 00       		.sleb128 0
 3127 06dd 16       		.uleb128 0x16
 3128 06de AD000000 		.4byte	.LASF93
 3129 06e2 01       		.sleb128 1
 3130 06e3 16       		.uleb128 0x16
ARM GAS  C:\Users\z80\AppData\Local\Temp\cc8scWge.s 			page 58


 3131 06e4 9C040000 		.4byte	.LASF94
 3132 06e8 02       		.sleb128 2
 3133 06e9 16       		.uleb128 0x16
 3134 06ea 1D000000 		.4byte	.LASF95
 3135 06ee 03       		.sleb128 3
 3136 06ef 16       		.uleb128 0x16
 3137 06f0 1C040000 		.4byte	.LASF96
 3138 06f4 04       		.sleb128 4
 3139 06f5 00       		.byte	0x0
 3140 06f6 03       		.uleb128 0x3
 3141 06f7 30040000 		.4byte	.LASF97
 3142 06fb 0D       		.byte	0xd
 3143 06fc 5B       		.byte	0x5b
 3144 06fd CF060000 		.4byte	0x6cf
 3145 0701 14       		.uleb128 0x14
 3146 0702 69000000 		.4byte	.LASF98
 3147 0706 0E       		.byte	0xe
 3148 0707 0701     		.2byte	0x107
 3149 0709 0D070000 		.4byte	0x70d
 3150 070d 0C       		.uleb128 0xc
 3151 070e 69000000 		.4byte	.LASF98
 3152 0712 30       		.byte	0x30
 3153 0713 0E       		.byte	0xe
 3154 0714 2B01     		.2byte	0x12b
 3155 0716 A2070000 		.4byte	0x7a2
 3156 071a 13       		.uleb128 0x13
 3157 071b 01010000 		.4byte	.LASF99
 3158 071f 0E       		.byte	0xe
 3159 0720 2F01     		.2byte	0x12f
 3160 0722 F6060000 		.4byte	0x6f6
 3161 0726 02       		.byte	0x2
 3162 0727 23       		.byte	0x23
 3163 0728 00       		.uleb128 0x0
 3164 0729 13       		.uleb128 0x13
 3165 072a 29040000 		.4byte	.LASF100
 3166 072e 0E       		.byte	0xe
 3167 072f 3301     		.2byte	0x133
 3168 0731 18080000 		.4byte	0x818
 3169 0735 02       		.byte	0x2
 3170 0736 23       		.byte	0x23
 3171 0737 04       		.uleb128 0x4
 3172 0738 13       		.uleb128 0x13
 3173 0739 29010000 		.4byte	.LASF101
 3174 073d 0E       		.byte	0xe
 3175 073e 3801     		.2byte	0x138
 3176 0740 37020000 		.4byte	0x237
 3177 0744 02       		.byte	0x2
 3178 0745 23       		.byte	0x23
 3179 0746 08       		.uleb128 0x8
 3180 0747 13       		.uleb128 0x13
 3181 0748 57030000 		.4byte	.LASF102
 3182 074c 0E       		.byte	0xe
 3183 074d 3F01     		.2byte	0x13f
 3184 074f F2030000 		.4byte	0x3f2
 3185 0753 02       		.byte	0x2
 3186 0754 23       		.byte	0x23
 3187 0755 0C       		.uleb128 0xc
ARM GAS  C:\Users\z80\AppData\Local\Temp\cc8scWge.s 			page 59


 3188 0756 0B       		.uleb128 0xb
 3189 0757 73706900 		.ascii	"spi\000"
 3190 075b 0E       		.byte	0xe
 3191 075c 4B01     		.2byte	0x14b
 3192 075e 23080000 		.4byte	0x823
 3193 0762 02       		.byte	0x2
 3194 0763 23       		.byte	0x23
 3195 0764 1C       		.uleb128 0x1c
 3196 0765 13       		.uleb128 0x13
 3197 0766 00000000 		.4byte	.LASF103
 3198 076a 0E       		.byte	0xe
 3199 076b 4F01     		.2byte	0x14f
 3200 076d C4060000 		.4byte	0x6c4
 3201 0771 02       		.byte	0x2
 3202 0772 23       		.byte	0x23
 3203 0773 20       		.uleb128 0x20
 3204 0774 13       		.uleb128 0x13
 3205 0775 68010000 		.4byte	.LASF104
 3206 0779 0E       		.byte	0xe
 3207 077a 5301     		.2byte	0x153
 3208 077c C4060000 		.4byte	0x6c4
 3209 0780 02       		.byte	0x2
 3210 0781 23       		.byte	0x23
 3211 0782 24       		.uleb128 0x24
 3212 0783 13       		.uleb128 0x13
 3213 0784 5E010000 		.4byte	.LASF105
 3214 0788 0E       		.byte	0xe
 3215 0789 5701     		.2byte	0x157
 3216 078b 86000000 		.4byte	0x86
 3217 078f 02       		.byte	0x2
 3218 0790 23       		.byte	0x23
 3219 0791 28       		.uleb128 0x28
 3220 0792 13       		.uleb128 0x13
 3221 0793 9F020000 		.4byte	.LASF106
 3222 0797 0E       		.byte	0xe
 3223 0798 5B01     		.2byte	0x15b
 3224 079a 86000000 		.4byte	0x86
 3225 079e 02       		.byte	0x2
 3226 079f 23       		.byte	0x23
 3227 07a0 2C       		.uleb128 0x2c
 3228 07a1 00       		.byte	0x0
 3229 07a2 14       		.uleb128 0x14
 3230 07a3 F3000000 		.4byte	.LASF107
 3231 07a7 0E       		.byte	0xe
 3232 07a8 0F01     		.2byte	0x10f
 3233 07aa AE070000 		.4byte	0x7ae
 3234 07ae 09       		.uleb128 0x9
 3235 07af 04       		.byte	0x4
 3236 07b0 B4070000 		.4byte	0x7b4
 3237 07b4 17       		.uleb128 0x17
 3238 07b5 01       		.byte	0x1
 3239 07b6 C0070000 		.4byte	0x7c0
 3240 07ba 18       		.uleb128 0x18
 3241 07bb C0070000 		.4byte	0x7c0
 3242 07bf 00       		.byte	0x0
 3243 07c0 09       		.uleb128 0x9
 3244 07c1 04       		.byte	0x4
ARM GAS  C:\Users\z80\AppData\Local\Temp\cc8scWge.s 			page 60


 3245 07c2 01070000 		.4byte	0x701
 3246 07c6 12       		.uleb128 0x12
 3247 07c7 0C       		.byte	0xc
 3248 07c8 0E       		.byte	0xe
 3249 07c9 1401     		.2byte	0x114
 3250 07cb 0C080000 		.4byte	0x80c
 3251 07cf 13       		.uleb128 0x13
 3252 07d0 57010000 		.4byte	.LASF108
 3253 07d4 0E       		.byte	0xe
 3254 07d5 1801     		.2byte	0x118
 3255 07d7 A2070000 		.4byte	0x7a2
 3256 07db 02       		.byte	0x2
 3257 07dc 23       		.byte	0x23
 3258 07dd 00       		.uleb128 0x0
 3259 07de 13       		.uleb128 0x13
 3260 07df 73000000 		.4byte	.LASF109
 3261 07e3 0E       		.byte	0xe
 3262 07e4 1D01     		.2byte	0x11d
 3263 07e6 B3060000 		.4byte	0x6b3
 3264 07ea 02       		.byte	0x2
 3265 07eb 23       		.byte	0x23
 3266 07ec 04       		.uleb128 0x4
 3267 07ed 13       		.uleb128 0x13
 3268 07ee 36000000 		.4byte	.LASF110
 3269 07f2 0E       		.byte	0xe
 3270 07f3 2101     		.2byte	0x121
 3271 07f5 62000000 		.4byte	0x62
 3272 07f9 02       		.byte	0x2
 3273 07fa 23       		.byte	0x23
 3274 07fb 08       		.uleb128 0x8
 3275 07fc 0B       		.uleb128 0xb
 3276 07fd 63723100 		.ascii	"cr1\000"
 3277 0801 0E       		.byte	0xe
 3278 0802 2501     		.2byte	0x125
 3279 0804 62000000 		.4byte	0x62
 3280 0808 02       		.byte	0x2
 3281 0809 23       		.byte	0x23
 3282 080a 0A       		.uleb128 0xa
 3283 080b 00       		.byte	0x0
 3284 080c 14       		.uleb128 0x14
 3285 080d 09050000 		.4byte	.LASF111
 3286 0811 0E       		.byte	0xe
 3287 0812 2601     		.2byte	0x126
 3288 0814 C6070000 		.4byte	0x7c6
 3289 0818 09       		.uleb128 0x9
 3290 0819 04       		.byte	0x4
 3291 081a 1E080000 		.4byte	0x81e
 3292 081e 11       		.uleb128 0x11
 3293 081f 0C080000 		.4byte	0x80c
 3294 0823 09       		.uleb128 0x9
 3295 0824 04       		.byte	0x4
 3296 0825 41060000 		.4byte	0x641
 3297 0829 19       		.uleb128 0x19
 3298 082a 01       		.byte	0x1
 3299 082b 48020000 		.4byte	.LASF135
 3300 082f 01       		.byte	0x1
 3301 0830 44       		.byte	0x44
ARM GAS  C:\Users\z80\AppData\Local\Temp\cc8scWge.s 			page 61


 3302 0831 01       		.byte	0x1
 3303 0832 00000000 		.4byte	.LFB62
 3304 0836 08000000 		.4byte	.LFE62
 3305 083a 00000000 		.4byte	.LLST0
 3306 083e 1A       		.uleb128 0x1a
 3307 083f 01       		.byte	0x1
 3308 0840 A2030000 		.4byte	.LASF112
 3309 0844 01       		.byte	0x1
 3310 0845 50       		.byte	0x50
 3311 0846 01       		.byte	0x1
 3312 0847 00000000 		.4byte	.LFB63
 3313 084b 18000000 		.4byte	.LFE63
 3314 084f 20000000 		.4byte	.LLST1
 3315 0853 67080000 		.4byte	0x867
 3316 0857 1B       		.uleb128 0x1b
 3317 0858 E2040000 		.4byte	.LASF114
 3318 085c 01       		.byte	0x1
 3319 085d 50       		.byte	0x50
 3320 085e C0070000 		.4byte	0x7c0
 3321 0862 40000000 		.4byte	.LLST2
 3322 0866 00       		.byte	0x0
 3323 0867 1A       		.uleb128 0x1a
 3324 0868 01       		.byte	0x1
 3325 0869 82040000 		.4byte	.LASF113
 3326 086d 01       		.byte	0x1
 3327 086e 6B       		.byte	0x6b
 3328 086f 01       		.byte	0x1
 3329 0870 00000000 		.4byte	.LFB64
 3330 0874 5C000000 		.4byte	.LFE64
 3331 0878 5E000000 		.4byte	.LLST3
 3332 087c D5080000 		.4byte	0x8d5
 3333 0880 1B       		.uleb128 0x1b
 3334 0881 E2040000 		.4byte	.LASF114
 3335 0885 01       		.byte	0x1
 3336 0886 6B       		.byte	0x6b
 3337 0887 C0070000 		.4byte	0x7c0
 3338 088b 7E000000 		.4byte	.LLST4
 3339 088f 1B       		.uleb128 0x1b
 3340 0890 29040000 		.4byte	.LASF100
 3341 0894 01       		.byte	0x1
 3342 0895 6B       		.byte	0x6b
 3343 0896 18080000 		.4byte	0x818
 3344 089a 9C000000 		.4byte	.LLST5
 3345 089e 1C       		.uleb128 0x1c
 3346 089f 18000000 		.4byte	.LBB2
 3347 08a3 1E000000 		.4byte	.LBE2
 3348 08a7 BB080000 		.4byte	0x8bb
 3349 08ab 1D       		.uleb128 0x1d
 3350 08ac 746D7000 		.ascii	"tmp\000"
 3351 08b0 01       		.byte	0x1
 3352 08b1 6F       		.byte	0x6f
 3353 08b2 86000000 		.4byte	0x86
 3354 08b6 BA000000 		.4byte	.LLST6
 3355 08ba 00       		.byte	0x0
 3356 08bb 1E       		.uleb128 0x1e
 3357 08bc 42000000 		.4byte	.LBB3
 3358 08c0 48000000 		.4byte	.LBE3
ARM GAS  C:\Users\z80\AppData\Local\Temp\cc8scWge.s 			page 62


 3359 08c4 1D       		.uleb128 0x1d
 3360 08c5 746D7000 		.ascii	"tmp\000"
 3361 08c9 01       		.byte	0x1
 3362 08ca 75       		.byte	0x75
 3363 08cb 86000000 		.4byte	0x86
 3364 08cf CD000000 		.4byte	.LLST7
 3365 08d3 00       		.byte	0x0
 3366 08d4 00       		.byte	0x0
 3367 08d5 1A       		.uleb128 0x1a
 3368 08d6 01       		.byte	0x1
 3369 08d7 28000000 		.4byte	.LASF115
 3370 08db 01       		.byte	0x1
 3371 08dc 81       		.byte	0x81
 3372 08dd 01       		.byte	0x1
 3373 08de 00000000 		.4byte	.LFB65
 3374 08e2 4C000000 		.4byte	.LFE65
 3375 08e6 E0000000 		.4byte	.LLST8
 3376 08ea 34090000 		.4byte	0x934
 3377 08ee 1B       		.uleb128 0x1b
 3378 08ef E2040000 		.4byte	.LASF114
 3379 08f3 01       		.byte	0x1
 3380 08f4 81       		.byte	0x81
 3381 08f5 C0070000 		.4byte	0x7c0
 3382 08f9 00010000 		.4byte	.LLST9
 3383 08fd 1C       		.uleb128 0x1c
 3384 08fe 06000000 		.4byte	.LBB4
 3385 0902 0C000000 		.4byte	.LBE4
 3386 0906 1A090000 		.4byte	0x91a
 3387 090a 1D       		.uleb128 0x1d
 3388 090b 746D7000 		.ascii	"tmp\000"
 3389 090f 01       		.byte	0x1
 3390 0910 85       		.byte	0x85
 3391 0911 86000000 		.4byte	0x86
 3392 0915 1E010000 		.4byte	.LLST10
 3393 0919 00       		.byte	0x0
 3394 091a 1E       		.uleb128 0x1e
 3395 091b 34000000 		.4byte	.LBB5
 3396 091f 3A000000 		.4byte	.LBE5
 3397 0923 1D       		.uleb128 0x1d
 3398 0924 746D7000 		.ascii	"tmp\000"
 3399 0928 01       		.byte	0x1
 3400 0929 8B       		.byte	0x8b
 3401 092a 86000000 		.4byte	0x86
 3402 092e 31010000 		.4byte	.LLST11
 3403 0932 00       		.byte	0x0
 3404 0933 00       		.byte	0x0
 3405 0934 1A       		.uleb128 0x1a
 3406 0935 01       		.byte	0x1
 3407 0936 8B040000 		.4byte	.LASF116
 3408 093a 01       		.byte	0x1
 3409 093b 95       		.byte	0x95
 3410 093c 01       		.byte	0x1
 3411 093d 00000000 		.4byte	.LFB66
 3412 0941 40000000 		.4byte	.LFE66
 3413 0945 44010000 		.4byte	.LLST12
 3414 0949 93090000 		.4byte	0x993
 3415 094d 1B       		.uleb128 0x1b
ARM GAS  C:\Users\z80\AppData\Local\Temp\cc8scWge.s 			page 63


 3416 094e E2040000 		.4byte	.LASF114
 3417 0952 01       		.byte	0x1
 3418 0953 95       		.byte	0x95
 3419 0954 C0070000 		.4byte	0x7c0
 3420 0958 64010000 		.4byte	.LLST13
 3421 095c 1C       		.uleb128 0x1c
 3422 095d 06000000 		.4byte	.LBB6
 3423 0961 0C000000 		.4byte	.LBE6
 3424 0965 79090000 		.4byte	0x979
 3425 0969 1D       		.uleb128 0x1d
 3426 096a 746D7000 		.ascii	"tmp\000"
 3427 096e 01       		.byte	0x1
 3428 096f 99       		.byte	0x99
 3429 0970 86000000 		.4byte	0x86
 3430 0974 82010000 		.4byte	.LLST14
 3431 0978 00       		.byte	0x0
 3432 0979 1E       		.uleb128 0x1e
 3433 097a 26000000 		.4byte	.LBB7
 3434 097e 2C000000 		.4byte	.LBE7
 3435 0982 1D       		.uleb128 0x1d
 3436 0983 746D7000 		.ascii	"tmp\000"
 3437 0987 01       		.byte	0x1
 3438 0988 9C       		.byte	0x9c
 3439 0989 86000000 		.4byte	0x86
 3440 098d 95010000 		.4byte	.LLST15
 3441 0991 00       		.byte	0x0
 3442 0992 00       		.byte	0x0
 3443 0993 1A       		.uleb128 0x1a
 3444 0994 01       		.byte	0x1
 3445 0995 89010000 		.4byte	.LASF117
 3446 0999 01       		.byte	0x1
 3447 099a A7       		.byte	0xa7
 3448 099b 01       		.byte	0x1
 3449 099c 00000000 		.4byte	.LFB67
 3450 09a0 40000000 		.4byte	.LFE67
 3451 09a4 A8010000 		.4byte	.LLST16
 3452 09a8 F2090000 		.4byte	0x9f2
 3453 09ac 1B       		.uleb128 0x1b
 3454 09ad E2040000 		.4byte	.LASF114
 3455 09b1 01       		.byte	0x1
 3456 09b2 A7       		.byte	0xa7
 3457 09b3 C0070000 		.4byte	0x7c0
 3458 09b7 C8010000 		.4byte	.LLST17
 3459 09bb 1C       		.uleb128 0x1c
 3460 09bc 06000000 		.4byte	.LBB8
 3461 09c0 0C000000 		.4byte	.LBE8
 3462 09c4 D8090000 		.4byte	0x9d8
 3463 09c8 1D       		.uleb128 0x1d
 3464 09c9 746D7000 		.ascii	"tmp\000"
 3465 09cd 01       		.byte	0x1
 3466 09ce AB       		.byte	0xab
 3467 09cf 86000000 		.4byte	0x86
 3468 09d3 E6010000 		.4byte	.LLST18
 3469 09d7 00       		.byte	0x0
 3470 09d8 1E       		.uleb128 0x1e
 3471 09d9 26000000 		.4byte	.LBB9
 3472 09dd 2C000000 		.4byte	.LBE9
ARM GAS  C:\Users\z80\AppData\Local\Temp\cc8scWge.s 			page 64


 3473 09e1 1D       		.uleb128 0x1d
 3474 09e2 746D7000 		.ascii	"tmp\000"
 3475 09e6 01       		.byte	0x1
 3476 09e7 AE       		.byte	0xae
 3477 09e8 86000000 		.4byte	0x86
 3478 09ec F9010000 		.4byte	.LLST19
 3479 09f0 00       		.byte	0x0
 3480 09f1 00       		.byte	0x0
 3481 09f2 1A       		.uleb128 0x1a
 3482 09f3 01       		.byte	0x1
 3483 09f4 40010000 		.4byte	.LASF118
 3484 09f8 01       		.byte	0x1
 3485 09f9 BE       		.byte	0xbe
 3486 09fa 01       		.byte	0x1
 3487 09fb 00000000 		.4byte	.LFB68
 3488 09ff 58000000 		.4byte	.LFE68
 3489 0a03 0C020000 		.4byte	.LLST20
 3490 0a07 5E0A0000 		.4byte	0xa5e
 3491 0a0b 1B       		.uleb128 0x1b
 3492 0a0c E2040000 		.4byte	.LASF114
 3493 0a10 01       		.byte	0x1
 3494 0a11 BE       		.byte	0xbe
 3495 0a12 C0070000 		.4byte	0x7c0
 3496 0a16 2C020000 		.4byte	.LLST21
 3497 0a1a 1F       		.uleb128 0x1f
 3498 0a1b 6E00     		.ascii	"n\000"
 3499 0a1d 01       		.byte	0x1
 3500 0a1e BE       		.byte	0xbe
 3501 0a1f 30000000 		.4byte	0x30
 3502 0a23 4A020000 		.4byte	.LLST22
 3503 0a27 1C       		.uleb128 0x1c
 3504 0a28 18000000 		.4byte	.LBB10
 3505 0a2c 1E000000 		.4byte	.LBE10
 3506 0a30 440A0000 		.4byte	0xa44
 3507 0a34 1D       		.uleb128 0x1d
 3508 0a35 746D7000 		.ascii	"tmp\000"
 3509 0a39 01       		.byte	0x1
 3510 0a3a C2       		.byte	0xc2
 3511 0a3b 86000000 		.4byte	0x86
 3512 0a3f 68020000 		.4byte	.LLST23
 3513 0a43 00       		.byte	0x0
 3514 0a44 1E       		.uleb128 0x1e
 3515 0a45 3E000000 		.4byte	.LBB11
 3516 0a49 44000000 		.4byte	.LBE11
 3517 0a4d 1D       		.uleb128 0x1d
 3518 0a4e 746D7000 		.ascii	"tmp\000"
 3519 0a52 01       		.byte	0x1
 3520 0a53 C5       		.byte	0xc5
 3521 0a54 86000000 		.4byte	0x86
 3522 0a58 7B020000 		.4byte	.LLST24
 3523 0a5c 00       		.byte	0x0
 3524 0a5d 00       		.byte	0x0
 3525 0a5e 1A       		.uleb128 0x1a
 3526 0a5f 01       		.byte	0x1
 3527 0a60 B1040000 		.4byte	.LASF119
 3528 0a64 01       		.byte	0x1
 3529 0a65 D9       		.byte	0xd9
ARM GAS  C:\Users\z80\AppData\Local\Temp\cc8scWge.s 			page 65


 3530 0a66 01       		.byte	0x1
 3531 0a67 00000000 		.4byte	.LFB69
 3532 0a6b 78000000 		.4byte	.LFE69
 3533 0a6f 8E020000 		.4byte	.LLST25
 3534 0a73 E80A0000 		.4byte	0xae8
 3535 0a77 1B       		.uleb128 0x1b
 3536 0a78 E2040000 		.4byte	.LASF114
 3537 0a7c 01       		.byte	0x1
 3538 0a7d D9       		.byte	0xd9
 3539 0a7e C0070000 		.4byte	0x7c0
 3540 0a82 AE020000 		.4byte	.LLST26
 3541 0a86 1F       		.uleb128 0x1f
 3542 0a87 6E00     		.ascii	"n\000"
 3543 0a89 01       		.byte	0x1
 3544 0a8a D9       		.byte	0xd9
 3545 0a8b 30000000 		.4byte	0x30
 3546 0a8f CC020000 		.4byte	.LLST27
 3547 0a93 1B       		.uleb128 0x1b
 3548 0a94 B3010000 		.4byte	.LASF120
 3549 0a98 01       		.byte	0x1
 3550 0a99 DA       		.byte	0xda
 3551 0a9a E80A0000 		.4byte	0xae8
 3552 0a9e EA020000 		.4byte	.LLST28
 3553 0aa2 1B       		.uleb128 0x1b
 3554 0aa3 30000000 		.4byte	.LASF121
 3555 0aa7 01       		.byte	0x1
 3556 0aa8 DA       		.byte	0xda
 3557 0aa9 75020000 		.4byte	0x275
 3558 0aad 08030000 		.4byte	.LLST29
 3559 0ab1 1C       		.uleb128 0x1c
 3560 0ab2 30000000 		.4byte	.LBB12
 3561 0ab6 36000000 		.4byte	.LBE12
 3562 0aba CE0A0000 		.4byte	0xace
 3563 0abe 1D       		.uleb128 0x1d
 3564 0abf 746D7000 		.ascii	"tmp\000"
 3565 0ac3 01       		.byte	0x1
 3566 0ac4 DF       		.byte	0xdf
 3567 0ac5 86000000 		.4byte	0x86
 3568 0ac9 26030000 		.4byte	.LLST30
 3569 0acd 00       		.byte	0x0
 3570 0ace 1E       		.uleb128 0x1e
 3571 0acf 5E000000 		.4byte	.LBB13
 3572 0ad3 64000000 		.4byte	.LBE13
 3573 0ad7 1D       		.uleb128 0x1d
 3574 0ad8 746D7000 		.ascii	"tmp\000"
 3575 0adc 01       		.byte	0x1
 3576 0add E2       		.byte	0xe2
 3577 0ade 86000000 		.4byte	0x86
 3578 0ae2 39030000 		.4byte	.LLST31
 3579 0ae6 00       		.byte	0x0
 3580 0ae7 00       		.byte	0x0
 3581 0ae8 09       		.uleb128 0x9
 3582 0ae9 04       		.byte	0x4
 3583 0aea EE0A0000 		.4byte	0xaee
 3584 0aee 20       		.uleb128 0x20
 3585 0aef 1A       		.uleb128 0x1a
 3586 0af0 01       		.byte	0x1
ARM GAS  C:\Users\z80\AppData\Local\Temp\cc8scWge.s 			page 66


 3587 0af1 ED010000 		.4byte	.LASF122
 3588 0af5 01       		.byte	0x1
 3589 0af6 F4       		.byte	0xf4
 3590 0af7 01       		.byte	0x1
 3591 0af8 00000000 		.4byte	.LFB70
 3592 0afc 5C000000 		.4byte	.LFE70
 3593 0b00 4C030000 		.4byte	.LLST32
 3594 0b04 6A0B0000 		.4byte	0xb6a
 3595 0b08 1B       		.uleb128 0x1b
 3596 0b09 E2040000 		.4byte	.LASF114
 3597 0b0d 01       		.byte	0x1
 3598 0b0e F4       		.byte	0xf4
 3599 0b0f C0070000 		.4byte	0x7c0
 3600 0b13 6C030000 		.4byte	.LLST33
 3601 0b17 1F       		.uleb128 0x1f
 3602 0b18 6E00     		.ascii	"n\000"
 3603 0b1a 01       		.byte	0x1
 3604 0b1b F4       		.byte	0xf4
 3605 0b1c 30000000 		.4byte	0x30
 3606 0b20 8A030000 		.4byte	.LLST34
 3607 0b24 1B       		.uleb128 0x1b
 3608 0b25 B3010000 		.4byte	.LASF120
 3609 0b29 01       		.byte	0x1
 3610 0b2a F4       		.byte	0xf4
 3611 0b2b E80A0000 		.4byte	0xae8
 3612 0b2f A8030000 		.4byte	.LLST35
 3613 0b33 1C       		.uleb128 0x1c
 3614 0b34 1C000000 		.4byte	.LBB14
 3615 0b38 22000000 		.4byte	.LBE14
 3616 0b3c 500B0000 		.4byte	0xb50
 3617 0b40 1D       		.uleb128 0x1d
 3618 0b41 746D7000 		.ascii	"tmp\000"
 3619 0b45 01       		.byte	0x1
 3620 0b46 F9       		.byte	0xf9
 3621 0b47 86000000 		.4byte	0x86
 3622 0b4b C6030000 		.4byte	.LLST36
 3623 0b4f 00       		.byte	0x0
 3624 0b50 1E       		.uleb128 0x1e
 3625 0b51 44000000 		.4byte	.LBB15
 3626 0b55 4A000000 		.4byte	.LBE15
 3627 0b59 1D       		.uleb128 0x1d
 3628 0b5a 746D7000 		.ascii	"tmp\000"
 3629 0b5e 01       		.byte	0x1
 3630 0b5f FC       		.byte	0xfc
 3631 0b60 86000000 		.4byte	0x86
 3632 0b64 D9030000 		.4byte	.LLST37
 3633 0b68 00       		.byte	0x0
 3634 0b69 00       		.byte	0x0
 3635 0b6a 21       		.uleb128 0x21
 3636 0b6b 01       		.byte	0x1
 3637 0b6c 19010000 		.4byte	.LASF123
 3638 0b70 01       		.byte	0x1
 3639 0b71 0E01     		.2byte	0x10e
 3640 0b73 01       		.byte	0x1
 3641 0b74 00000000 		.4byte	.LFB71
 3642 0b78 5C000000 		.4byte	.LFE71
 3643 0b7c EC030000 		.4byte	.LLST38
ARM GAS  C:\Users\z80\AppData\Local\Temp\cc8scWge.s 			page 67


 3644 0b80 EB0B0000 		.4byte	0xbeb
 3645 0b84 22       		.uleb128 0x22
 3646 0b85 E2040000 		.4byte	.LASF114
 3647 0b89 01       		.byte	0x1
 3648 0b8a 0E01     		.2byte	0x10e
 3649 0b8c C0070000 		.4byte	0x7c0
 3650 0b90 0C040000 		.4byte	.LLST39
 3651 0b94 23       		.uleb128 0x23
 3652 0b95 6E00     		.ascii	"n\000"
 3653 0b97 01       		.byte	0x1
 3654 0b98 0E01     		.2byte	0x10e
 3655 0b9a 30000000 		.4byte	0x30
 3656 0b9e 2A040000 		.4byte	.LLST40
 3657 0ba2 22       		.uleb128 0x22
 3658 0ba3 30000000 		.4byte	.LASF121
 3659 0ba7 01       		.byte	0x1
 3660 0ba8 0E01     		.2byte	0x10e
 3661 0baa 75020000 		.4byte	0x275
 3662 0bae 48040000 		.4byte	.LLST41
 3663 0bb2 1C       		.uleb128 0x1c
 3664 0bb3 1C000000 		.4byte	.LBB16
 3665 0bb7 22000000 		.4byte	.LBE16
 3666 0bbb D00B0000 		.4byte	0xbd0
 3667 0bbf 24       		.uleb128 0x24
 3668 0bc0 746D7000 		.ascii	"tmp\000"
 3669 0bc4 01       		.byte	0x1
 3670 0bc5 1301     		.2byte	0x113
 3671 0bc7 86000000 		.4byte	0x86
 3672 0bcb 66040000 		.4byte	.LLST42
 3673 0bcf 00       		.byte	0x0
 3674 0bd0 1E       		.uleb128 0x1e
 3675 0bd1 44000000 		.4byte	.LBB17
 3676 0bd5 4A000000 		.4byte	.LBE17
 3677 0bd9 24       		.uleb128 0x24
 3678 0bda 746D7000 		.ascii	"tmp\000"
 3679 0bde 01       		.byte	0x1
 3680 0bdf 1601     		.2byte	0x116
 3681 0be1 86000000 		.4byte	0x86
 3682 0be5 79040000 		.4byte	.LLST43
 3683 0be9 00       		.byte	0x0
 3684 0bea 00       		.byte	0x0
 3685 0beb 21       		.uleb128 0x21
 3686 0bec 01       		.byte	0x1
 3687 0bed 65040000 		.4byte	.LASF124
 3688 0bf1 01       		.byte	0x1
 3689 0bf2 2801     		.2byte	0x128
 3690 0bf4 01       		.byte	0x1
 3691 0bf5 00000000 		.4byte	.LFB72
 3692 0bf9 88000000 		.4byte	.LFE72
 3693 0bfd 8C040000 		.4byte	.LLST44
 3694 0c01 5C0C0000 		.4byte	0xc5c
 3695 0c05 22       		.uleb128 0x22
 3696 0c06 E2040000 		.4byte	.LASF114
 3697 0c0a 01       		.byte	0x1
 3698 0c0b 2801     		.2byte	0x128
 3699 0c0d C0070000 		.4byte	0x7c0
 3700 0c11 AC040000 		.4byte	.LLST45
ARM GAS  C:\Users\z80\AppData\Local\Temp\cc8scWge.s 			page 68


 3701 0c15 23       		.uleb128 0x23
 3702 0c16 6E00     		.ascii	"n\000"
 3703 0c18 01       		.byte	0x1
 3704 0c19 2801     		.2byte	0x128
 3705 0c1b 30000000 		.4byte	0x30
 3706 0c1f CA040000 		.4byte	.LLST46
 3707 0c23 1C       		.uleb128 0x1c
 3708 0c24 1A000000 		.4byte	.LBB18
 3709 0c28 20000000 		.4byte	.LBE18
 3710 0c2c 410C0000 		.4byte	0xc41
 3711 0c30 24       		.uleb128 0x24
 3712 0c31 746D7000 		.ascii	"tmp\000"
 3713 0c35 01       		.byte	0x1
 3714 0c36 2C01     		.2byte	0x12c
 3715 0c38 86000000 		.4byte	0x86
 3716 0c3c E8040000 		.4byte	.LLST47
 3717 0c40 00       		.byte	0x0
 3718 0c41 1E       		.uleb128 0x1e
 3719 0c42 62000000 		.4byte	.LBB19
 3720 0c46 68000000 		.4byte	.LBE19
 3721 0c4a 24       		.uleb128 0x24
 3722 0c4b 746D7000 		.ascii	"tmp\000"
 3723 0c4f 01       		.byte	0x1
 3724 0c50 3101     		.2byte	0x131
 3725 0c52 86000000 		.4byte	0x86
 3726 0c56 FB040000 		.4byte	.LLST48
 3727 0c5a 00       		.byte	0x0
 3728 0c5b 00       		.byte	0x0
 3729 0c5c 21       		.uleb128 0x21
 3730 0c5d 01       		.byte	0x1
 3731 0c5e 5E020000 		.4byte	.LASF125
 3732 0c62 01       		.byte	0x1
 3733 0c63 4601     		.2byte	0x146
 3734 0c65 01       		.byte	0x1
 3735 0c66 00000000 		.4byte	.LFB73
 3736 0c6a A4000000 		.4byte	.LFE73
 3737 0c6e 0E050000 		.4byte	.LLST49
 3738 0c72 ED0C0000 		.4byte	0xced
 3739 0c76 22       		.uleb128 0x22
 3740 0c77 E2040000 		.4byte	.LASF114
 3741 0c7b 01       		.byte	0x1
 3742 0c7c 4601     		.2byte	0x146
 3743 0c7e C0070000 		.4byte	0x7c0
 3744 0c82 2E050000 		.4byte	.LLST50
 3745 0c86 23       		.uleb128 0x23
 3746 0c87 6E00     		.ascii	"n\000"
 3747 0c89 01       		.byte	0x1
 3748 0c8a 4601     		.2byte	0x146
 3749 0c8c 30000000 		.4byte	0x30
 3750 0c90 4C050000 		.4byte	.LLST51
 3751 0c94 22       		.uleb128 0x22
 3752 0c95 B3010000 		.4byte	.LASF120
 3753 0c99 01       		.byte	0x1
 3754 0c9a 4701     		.2byte	0x147
 3755 0c9c E80A0000 		.4byte	0xae8
 3756 0ca0 6A050000 		.4byte	.LLST52
 3757 0ca4 22       		.uleb128 0x22
ARM GAS  C:\Users\z80\AppData\Local\Temp\cc8scWge.s 			page 69


 3758 0ca5 30000000 		.4byte	.LASF121
 3759 0ca9 01       		.byte	0x1
 3760 0caa 4701     		.2byte	0x147
 3761 0cac 75020000 		.4byte	0x275
 3762 0cb0 88050000 		.4byte	.LLST53
 3763 0cb4 1C       		.uleb128 0x1c
 3764 0cb5 32000000 		.4byte	.LBB20
 3765 0cb9 38000000 		.4byte	.LBE20
 3766 0cbd D20C0000 		.4byte	0xcd2
 3767 0cc1 24       		.uleb128 0x24
 3768 0cc2 746D7000 		.ascii	"tmp\000"
 3769 0cc6 01       		.byte	0x1
 3770 0cc7 4C01     		.2byte	0x14c
 3771 0cc9 86000000 		.4byte	0x86
 3772 0ccd A6050000 		.4byte	.LLST54
 3773 0cd1 00       		.byte	0x0
 3774 0cd2 1E       		.uleb128 0x1e
 3775 0cd3 7E000000 		.4byte	.LBB21
 3776 0cd7 84000000 		.4byte	.LBE21
 3777 0cdb 24       		.uleb128 0x24
 3778 0cdc 746D7000 		.ascii	"tmp\000"
 3779 0ce0 01       		.byte	0x1
 3780 0ce1 5201     		.2byte	0x152
 3781 0ce3 86000000 		.4byte	0x86
 3782 0ce7 B9050000 		.4byte	.LLST55
 3783 0ceb 00       		.byte	0x0
 3784 0cec 00       		.byte	0x0
 3785 0ced 21       		.uleb128 0x21
 3786 0cee 01       		.byte	0x1
 3787 0cef 01050000 		.4byte	.LASF126
 3788 0cf3 01       		.byte	0x1
 3789 0cf4 6501     		.2byte	0x165
 3790 0cf6 01       		.byte	0x1
 3791 0cf7 00000000 		.4byte	.LFB74
 3792 0cfb 90000000 		.4byte	.LFE74
 3793 0cff CC050000 		.4byte	.LLST56
 3794 0d03 6E0D0000 		.4byte	0xd6e
 3795 0d07 22       		.uleb128 0x22
 3796 0d08 E2040000 		.4byte	.LASF114
 3797 0d0c 01       		.byte	0x1
 3798 0d0d 6501     		.2byte	0x165
 3799 0d0f C0070000 		.4byte	0x7c0
 3800 0d13 EC050000 		.4byte	.LLST57
 3801 0d17 23       		.uleb128 0x23
 3802 0d18 6E00     		.ascii	"n\000"
 3803 0d1a 01       		.byte	0x1
 3804 0d1b 6501     		.2byte	0x165
 3805 0d1d 30000000 		.4byte	0x30
 3806 0d21 0A060000 		.4byte	.LLST58
 3807 0d25 22       		.uleb128 0x22
 3808 0d26 B3010000 		.4byte	.LASF120
 3809 0d2a 01       		.byte	0x1
 3810 0d2b 6501     		.2byte	0x165
 3811 0d2d E80A0000 		.4byte	0xae8
 3812 0d31 28060000 		.4byte	.LLST59
 3813 0d35 1C       		.uleb128 0x1c
 3814 0d36 20000000 		.4byte	.LBB22
ARM GAS  C:\Users\z80\AppData\Local\Temp\cc8scWge.s 			page 70


 3815 0d3a 26000000 		.4byte	.LBE22
 3816 0d3e 530D0000 		.4byte	0xd53
 3817 0d42 24       		.uleb128 0x24
 3818 0d43 746D7000 		.ascii	"tmp\000"
 3819 0d47 01       		.byte	0x1
 3820 0d48 6901     		.2byte	0x169
 3821 0d4a 86000000 		.4byte	0x86
 3822 0d4e 46060000 		.4byte	.LLST60
 3823 0d52 00       		.byte	0x0
 3824 0d53 1E       		.uleb128 0x1e
 3825 0d54 6A000000 		.4byte	.LBB23
 3826 0d58 70000000 		.4byte	.LBE23
 3827 0d5c 24       		.uleb128 0x24
 3828 0d5d 746D7000 		.ascii	"tmp\000"
 3829 0d61 01       		.byte	0x1
 3830 0d62 6E01     		.2byte	0x16e
 3831 0d64 86000000 		.4byte	0x86
 3832 0d68 59060000 		.4byte	.LLST61
 3833 0d6c 00       		.byte	0x0
 3834 0d6d 00       		.byte	0x0
 3835 0d6e 21       		.uleb128 0x21
 3836 0d6f 01       		.byte	0x1
 3837 0d70 B9010000 		.4byte	.LASF127
 3838 0d74 01       		.byte	0x1
 3839 0d75 8101     		.2byte	0x181
 3840 0d77 01       		.byte	0x1
 3841 0d78 00000000 		.4byte	.LFB75
 3842 0d7c 90000000 		.4byte	.LFE75
 3843 0d80 6C060000 		.4byte	.LLST62
 3844 0d84 EF0D0000 		.4byte	0xdef
 3845 0d88 22       		.uleb128 0x22
 3846 0d89 E2040000 		.4byte	.LASF114
 3847 0d8d 01       		.byte	0x1
 3848 0d8e 8101     		.2byte	0x181
 3849 0d90 C0070000 		.4byte	0x7c0
 3850 0d94 8C060000 		.4byte	.LLST63
 3851 0d98 23       		.uleb128 0x23
 3852 0d99 6E00     		.ascii	"n\000"
 3853 0d9b 01       		.byte	0x1
 3854 0d9c 8101     		.2byte	0x181
 3855 0d9e 30000000 		.4byte	0x30
 3856 0da2 AA060000 		.4byte	.LLST64
 3857 0da6 22       		.uleb128 0x22
 3858 0da7 30000000 		.4byte	.LASF121
 3859 0dab 01       		.byte	0x1
 3860 0dac 8101     		.2byte	0x181
 3861 0dae 75020000 		.4byte	0x275
 3862 0db2 C8060000 		.4byte	.LLST65
 3863 0db6 1C       		.uleb128 0x1c
 3864 0db7 20000000 		.4byte	.LBB24
 3865 0dbb 26000000 		.4byte	.LBE24
 3866 0dbf D40D0000 		.4byte	0xdd4
 3867 0dc3 24       		.uleb128 0x24
 3868 0dc4 746D7000 		.ascii	"tmp\000"
 3869 0dc8 01       		.byte	0x1
 3870 0dc9 8601     		.2byte	0x186
 3871 0dcb 86000000 		.4byte	0x86
ARM GAS  C:\Users\z80\AppData\Local\Temp\cc8scWge.s 			page 71


 3872 0dcf E6060000 		.4byte	.LLST66
 3873 0dd3 00       		.byte	0x0
 3874 0dd4 1E       		.uleb128 0x1e
 3875 0dd5 6A000000 		.4byte	.LBB25
 3876 0dd9 70000000 		.4byte	.LBE25
 3877 0ddd 24       		.uleb128 0x24
 3878 0dde 746D7000 		.ascii	"tmp\000"
 3879 0de2 01       		.byte	0x1
 3880 0de3 8C01     		.2byte	0x18c
 3881 0de5 86000000 		.4byte	0x86
 3882 0de9 F9060000 		.4byte	.LLST67
 3883 0ded 00       		.byte	0x0
 3884 0dee 00       		.byte	0x0
 3885 0def 21       		.uleb128 0x21
 3886 0df0 01       		.byte	0x1
 3887 0df1 76020000 		.4byte	.LASF128
 3888 0df5 01       		.byte	0x1
 3889 0df6 9C01     		.2byte	0x19c
 3890 0df8 01       		.byte	0x1
 3891 0df9 00000000 		.4byte	.LFB76
 3892 0dfd 1C000000 		.4byte	.LFE76
 3893 0e01 0C070000 		.4byte	.LLST68
 3894 0e05 1A0E0000 		.4byte	0xe1a
 3895 0e09 22       		.uleb128 0x22
 3896 0e0a E2040000 		.4byte	.LASF114
 3897 0e0e 01       		.byte	0x1
 3898 0e0f 9C01     		.2byte	0x19c
 3899 0e11 C0070000 		.4byte	0x7c0
 3900 0e15 2C070000 		.4byte	.LLST69
 3901 0e19 00       		.byte	0x0
 3902 0e1a 21       		.uleb128 0x21
 3903 0e1b 01       		.byte	0x1
 3904 0e1c 57040000 		.4byte	.LASF129
 3905 0e20 01       		.byte	0x1
 3906 0e21 B001     		.2byte	0x1b0
 3907 0e23 01       		.byte	0x1
 3908 0e24 00000000 		.4byte	.LFB77
 3909 0e28 18000000 		.4byte	.LFE77
 3910 0e2c 4A070000 		.4byte	.LLST70
 3911 0e30 450E0000 		.4byte	0xe45
 3912 0e34 22       		.uleb128 0x22
 3913 0e35 E2040000 		.4byte	.LASF114
 3914 0e39 01       		.byte	0x1
 3915 0e3a B001     		.2byte	0x1b0
 3916 0e3c C0070000 		.4byte	0x7c0
 3917 0e40 6A070000 		.4byte	.LLST71
 3918 0e44 00       		.byte	0x0
 3919 0e45 25       		.uleb128 0x25
 3920 0e46 D4040000 		.4byte	.LASF130
 3921 0e4a 08       		.byte	0x8
 3922 0e4b 72       		.byte	0x72
 3923 0e4c AA030000 		.4byte	0x3aa
 3924 0e50 01       		.byte	0x1
 3925 0e51 01       		.byte	0x1
 3926 0e52 26       		.uleb128 0x26
 3927 0e53 7A000000 		.4byte	.LASF131
 3928 0e57 0F       		.byte	0xf
ARM GAS  C:\Users\z80\AppData\Local\Temp\cc8scWge.s 			page 72


 3929 0e58 9404     		.2byte	0x494
 3930 0e5a 55040000 		.4byte	0x455
 3931 0e5e 01       		.byte	0x1
 3932 0e5f 01       		.byte	0x1
 3933 0e60 25       		.uleb128 0x25
 3934 0e61 D4040000 		.4byte	.LASF130
 3935 0e65 08       		.byte	0x8
 3936 0e66 72       		.byte	0x72
 3937 0e67 AA030000 		.4byte	0x3aa
 3938 0e6b 01       		.byte	0x1
 3939 0e6c 01       		.byte	0x1
 3940 0e6d 26       		.uleb128 0x26
 3941 0e6e 7A000000 		.4byte	.LASF131
 3942 0e72 0F       		.byte	0xf
 3943 0e73 9404     		.2byte	0x494
 3944 0e75 55040000 		.4byte	0x455
 3945 0e79 01       		.byte	0x1
 3946 0e7a 01       		.byte	0x1
 3947 0e7b 00       		.byte	0x0
 3948              		.section	.debug_abbrev
 3949 0000 01       		.uleb128 0x1
 3950 0001 11       		.uleb128 0x11
 3951 0002 01       		.byte	0x1
 3952 0003 25       		.uleb128 0x25
 3953 0004 0E       		.uleb128 0xe
 3954 0005 13       		.uleb128 0x13
 3955 0006 0B       		.uleb128 0xb
 3956 0007 03       		.uleb128 0x3
 3957 0008 0E       		.uleb128 0xe
 3958 0009 1B       		.uleb128 0x1b
 3959 000a 0E       		.uleb128 0xe
 3960 000b 11       		.uleb128 0x11
 3961 000c 01       		.uleb128 0x1
 3962 000d 52       		.uleb128 0x52
 3963 000e 01       		.uleb128 0x1
 3964 000f 55       		.uleb128 0x55
 3965 0010 06       		.uleb128 0x6
 3966 0011 10       		.uleb128 0x10
 3967 0012 06       		.uleb128 0x6
 3968 0013 00       		.byte	0x0
 3969 0014 00       		.byte	0x0
 3970 0015 02       		.uleb128 0x2
 3971 0016 24       		.uleb128 0x24
 3972 0017 00       		.byte	0x0
 3973 0018 0B       		.uleb128 0xb
 3974 0019 0B       		.uleb128 0xb
 3975 001a 3E       		.uleb128 0x3e
 3976 001b 0B       		.uleb128 0xb
 3977 001c 03       		.uleb128 0x3
 3978 001d 08       		.uleb128 0x8
 3979 001e 00       		.byte	0x0
 3980 001f 00       		.byte	0x0
 3981 0020 03       		.uleb128 0x3
 3982 0021 16       		.uleb128 0x16
 3983 0022 00       		.byte	0x0
 3984 0023 03       		.uleb128 0x3
 3985 0024 0E       		.uleb128 0xe
ARM GAS  C:\Users\z80\AppData\Local\Temp\cc8scWge.s 			page 73


 3986 0025 3A       		.uleb128 0x3a
 3987 0026 0B       		.uleb128 0xb
 3988 0027 3B       		.uleb128 0x3b
 3989 0028 0B       		.uleb128 0xb
 3990 0029 49       		.uleb128 0x49
 3991 002a 13       		.uleb128 0x13
 3992 002b 00       		.byte	0x0
 3993 002c 00       		.byte	0x0
 3994 002d 04       		.uleb128 0x4
 3995 002e 24       		.uleb128 0x24
 3996 002f 00       		.byte	0x0
 3997 0030 0B       		.uleb128 0xb
 3998 0031 0B       		.uleb128 0xb
 3999 0032 3E       		.uleb128 0x3e
 4000 0033 0B       		.uleb128 0xb
 4001 0034 03       		.uleb128 0x3
 4002 0035 0E       		.uleb128 0xe
 4003 0036 00       		.byte	0x0
 4004 0037 00       		.byte	0x0
 4005 0038 05       		.uleb128 0x5
 4006 0039 13       		.uleb128 0x13
 4007 003a 01       		.byte	0x1
 4008 003b 03       		.uleb128 0x3
 4009 003c 0E       		.uleb128 0xe
 4010 003d 0B       		.uleb128 0xb
 4011 003e 0B       		.uleb128 0xb
 4012 003f 3A       		.uleb128 0x3a
 4013 0040 0B       		.uleb128 0xb
 4014 0041 3B       		.uleb128 0x3b
 4015 0042 0B       		.uleb128 0xb
 4016 0043 01       		.uleb128 0x1
 4017 0044 13       		.uleb128 0x13
 4018 0045 00       		.byte	0x0
 4019 0046 00       		.byte	0x0
 4020 0047 06       		.uleb128 0x6
 4021 0048 0D       		.uleb128 0xd
 4022 0049 00       		.byte	0x0
 4023 004a 03       		.uleb128 0x3
 4024 004b 0E       		.uleb128 0xe
 4025 004c 3A       		.uleb128 0x3a
 4026 004d 0B       		.uleb128 0xb
 4027 004e 3B       		.uleb128 0x3b
 4028 004f 0B       		.uleb128 0xb
 4029 0050 49       		.uleb128 0x49
 4030 0051 13       		.uleb128 0x13
 4031 0052 38       		.uleb128 0x38
 4032 0053 0A       		.uleb128 0xa
 4033 0054 00       		.byte	0x0
 4034 0055 00       		.byte	0x0
 4035 0056 07       		.uleb128 0x7
 4036 0057 0D       		.uleb128 0xd
 4037 0058 00       		.byte	0x0
 4038 0059 03       		.uleb128 0x3
 4039 005a 08       		.uleb128 0x8
 4040 005b 3A       		.uleb128 0x3a
 4041 005c 0B       		.uleb128 0xb
 4042 005d 3B       		.uleb128 0x3b
ARM GAS  C:\Users\z80\AppData\Local\Temp\cc8scWge.s 			page 74


 4043 005e 0B       		.uleb128 0xb
 4044 005f 49       		.uleb128 0x49
 4045 0060 13       		.uleb128 0x13
 4046 0061 38       		.uleb128 0x38
 4047 0062 0A       		.uleb128 0xa
 4048 0063 00       		.byte	0x0
 4049 0064 00       		.byte	0x0
 4050 0065 08       		.uleb128 0x8
 4051 0066 13       		.uleb128 0x13
 4052 0067 01       		.byte	0x1
 4053 0068 0B       		.uleb128 0xb
 4054 0069 0B       		.uleb128 0xb
 4055 006a 3A       		.uleb128 0x3a
 4056 006b 0B       		.uleb128 0xb
 4057 006c 3B       		.uleb128 0x3b
 4058 006d 0B       		.uleb128 0xb
 4059 006e 01       		.uleb128 0x1
 4060 006f 13       		.uleb128 0x13
 4061 0070 00       		.byte	0x0
 4062 0071 00       		.byte	0x0
 4063 0072 09       		.uleb128 0x9
 4064 0073 0F       		.uleb128 0xf
 4065 0074 00       		.byte	0x0
 4066 0075 0B       		.uleb128 0xb
 4067 0076 0B       		.uleb128 0xb
 4068 0077 49       		.uleb128 0x49
 4069 0078 13       		.uleb128 0x13
 4070 0079 00       		.byte	0x0
 4071 007a 00       		.byte	0x0
 4072 007b 0A       		.uleb128 0xa
 4073 007c 0F       		.uleb128 0xf
 4074 007d 00       		.byte	0x0
 4075 007e 0B       		.uleb128 0xb
 4076 007f 0B       		.uleb128 0xb
 4077 0080 00       		.byte	0x0
 4078 0081 00       		.byte	0x0
 4079 0082 0B       		.uleb128 0xb
 4080 0083 0D       		.uleb128 0xd
 4081 0084 00       		.byte	0x0
 4082 0085 03       		.uleb128 0x3
 4083 0086 08       		.uleb128 0x8
 4084 0087 3A       		.uleb128 0x3a
 4085 0088 0B       		.uleb128 0xb
 4086 0089 3B       		.uleb128 0x3b
 4087 008a 05       		.uleb128 0x5
 4088 008b 49       		.uleb128 0x49
 4089 008c 13       		.uleb128 0x13
 4090 008d 38       		.uleb128 0x38
 4091 008e 0A       		.uleb128 0xa
 4092 008f 00       		.byte	0x0
 4093 0090 00       		.byte	0x0
 4094 0091 0C       		.uleb128 0xc
 4095 0092 13       		.uleb128 0x13
 4096 0093 01       		.byte	0x1
 4097 0094 03       		.uleb128 0x3
 4098 0095 0E       		.uleb128 0xe
 4099 0096 0B       		.uleb128 0xb
ARM GAS  C:\Users\z80\AppData\Local\Temp\cc8scWge.s 			page 75


 4100 0097 0B       		.uleb128 0xb
 4101 0098 3A       		.uleb128 0x3a
 4102 0099 0B       		.uleb128 0xb
 4103 009a 3B       		.uleb128 0x3b
 4104 009b 05       		.uleb128 0x5
 4105 009c 01       		.uleb128 0x1
 4106 009d 13       		.uleb128 0x13
 4107 009e 00       		.byte	0x0
 4108 009f 00       		.byte	0x0
 4109 00a0 0D       		.uleb128 0xd
 4110 00a1 35       		.uleb128 0x35
 4111 00a2 00       		.byte	0x0
 4112 00a3 49       		.uleb128 0x49
 4113 00a4 13       		.uleb128 0x13
 4114 00a5 00       		.byte	0x0
 4115 00a6 00       		.byte	0x0
 4116 00a7 0E       		.uleb128 0xe
 4117 00a8 24       		.uleb128 0x24
 4118 00a9 00       		.byte	0x0
 4119 00aa 0B       		.uleb128 0xb
 4120 00ab 0B       		.uleb128 0xb
 4121 00ac 3E       		.uleb128 0x3e
 4122 00ad 0B       		.uleb128 0xb
 4123 00ae 00       		.byte	0x0
 4124 00af 00       		.byte	0x0
 4125 00b0 0F       		.uleb128 0xf
 4126 00b1 17       		.uleb128 0x17
 4127 00b2 01       		.byte	0x1
 4128 00b3 0B       		.uleb128 0xb
 4129 00b4 0B       		.uleb128 0xb
 4130 00b5 3A       		.uleb128 0x3a
 4131 00b6 0B       		.uleb128 0xb
 4132 00b7 3B       		.uleb128 0x3b
 4133 00b8 0B       		.uleb128 0xb
 4134 00b9 01       		.uleb128 0x1
 4135 00ba 13       		.uleb128 0x13
 4136 00bb 00       		.byte	0x0
 4137 00bc 00       		.byte	0x0
 4138 00bd 10       		.uleb128 0x10
 4139 00be 0D       		.uleb128 0xd
 4140 00bf 00       		.byte	0x0
 4141 00c0 03       		.uleb128 0x3
 4142 00c1 0E       		.uleb128 0xe
 4143 00c2 3A       		.uleb128 0x3a
 4144 00c3 0B       		.uleb128 0xb
 4145 00c4 3B       		.uleb128 0x3b
 4146 00c5 0B       		.uleb128 0xb
 4147 00c6 49       		.uleb128 0x49
 4148 00c7 13       		.uleb128 0x13
 4149 00c8 00       		.byte	0x0
 4150 00c9 00       		.byte	0x0
 4151 00ca 11       		.uleb128 0x11
 4152 00cb 26       		.uleb128 0x26
 4153 00cc 00       		.byte	0x0
 4154 00cd 49       		.uleb128 0x49
 4155 00ce 13       		.uleb128 0x13
 4156 00cf 00       		.byte	0x0
ARM GAS  C:\Users\z80\AppData\Local\Temp\cc8scWge.s 			page 76


 4157 00d0 00       		.byte	0x0
 4158 00d1 12       		.uleb128 0x12
 4159 00d2 13       		.uleb128 0x13
 4160 00d3 01       		.byte	0x1
 4161 00d4 0B       		.uleb128 0xb
 4162 00d5 0B       		.uleb128 0xb
 4163 00d6 3A       		.uleb128 0x3a
 4164 00d7 0B       		.uleb128 0xb
 4165 00d8 3B       		.uleb128 0x3b
 4166 00d9 05       		.uleb128 0x5
 4167 00da 01       		.uleb128 0x1
 4168 00db 13       		.uleb128 0x13
 4169 00dc 00       		.byte	0x0
 4170 00dd 00       		.byte	0x0
 4171 00de 13       		.uleb128 0x13
 4172 00df 0D       		.uleb128 0xd
 4173 00e0 00       		.byte	0x0
 4174 00e1 03       		.uleb128 0x3
 4175 00e2 0E       		.uleb128 0xe
 4176 00e3 3A       		.uleb128 0x3a
 4177 00e4 0B       		.uleb128 0xb
 4178 00e5 3B       		.uleb128 0x3b
 4179 00e6 05       		.uleb128 0x5
 4180 00e7 49       		.uleb128 0x49
 4181 00e8 13       		.uleb128 0x13
 4182 00e9 38       		.uleb128 0x38
 4183 00ea 0A       		.uleb128 0xa
 4184 00eb 00       		.byte	0x0
 4185 00ec 00       		.byte	0x0
 4186 00ed 14       		.uleb128 0x14
 4187 00ee 16       		.uleb128 0x16
 4188 00ef 00       		.byte	0x0
 4189 00f0 03       		.uleb128 0x3
 4190 00f1 0E       		.uleb128 0xe
 4191 00f2 3A       		.uleb128 0x3a
 4192 00f3 0B       		.uleb128 0xb
 4193 00f4 3B       		.uleb128 0x3b
 4194 00f5 05       		.uleb128 0x5
 4195 00f6 49       		.uleb128 0x49
 4196 00f7 13       		.uleb128 0x13
 4197 00f8 00       		.byte	0x0
 4198 00f9 00       		.byte	0x0
 4199 00fa 15       		.uleb128 0x15
 4200 00fb 04       		.uleb128 0x4
 4201 00fc 01       		.byte	0x1
 4202 00fd 0B       		.uleb128 0xb
 4203 00fe 0B       		.uleb128 0xb
 4204 00ff 3A       		.uleb128 0x3a
 4205 0100 0B       		.uleb128 0xb
 4206 0101 3B       		.uleb128 0x3b
 4207 0102 0B       		.uleb128 0xb
 4208 0103 01       		.uleb128 0x1
 4209 0104 13       		.uleb128 0x13
 4210 0105 00       		.byte	0x0
 4211 0106 00       		.byte	0x0
 4212 0107 16       		.uleb128 0x16
 4213 0108 28       		.uleb128 0x28
ARM GAS  C:\Users\z80\AppData\Local\Temp\cc8scWge.s 			page 77


 4214 0109 00       		.byte	0x0
 4215 010a 03       		.uleb128 0x3
 4216 010b 0E       		.uleb128 0xe
 4217 010c 1C       		.uleb128 0x1c
 4218 010d 0D       		.uleb128 0xd
 4219 010e 00       		.byte	0x0
 4220 010f 00       		.byte	0x0
 4221 0110 17       		.uleb128 0x17
 4222 0111 15       		.uleb128 0x15
 4223 0112 01       		.byte	0x1
 4224 0113 27       		.uleb128 0x27
 4225 0114 0C       		.uleb128 0xc
 4226 0115 01       		.uleb128 0x1
 4227 0116 13       		.uleb128 0x13
 4228 0117 00       		.byte	0x0
 4229 0118 00       		.byte	0x0
 4230 0119 18       		.uleb128 0x18
 4231 011a 05       		.uleb128 0x5
 4232 011b 00       		.byte	0x0
 4233 011c 49       		.uleb128 0x49
 4234 011d 13       		.uleb128 0x13
 4235 011e 00       		.byte	0x0
 4236 011f 00       		.byte	0x0
 4237 0120 19       		.uleb128 0x19
 4238 0121 2E       		.uleb128 0x2e
 4239 0122 00       		.byte	0x0
 4240 0123 3F       		.uleb128 0x3f
 4241 0124 0C       		.uleb128 0xc
 4242 0125 03       		.uleb128 0x3
 4243 0126 0E       		.uleb128 0xe
 4244 0127 3A       		.uleb128 0x3a
 4245 0128 0B       		.uleb128 0xb
 4246 0129 3B       		.uleb128 0x3b
 4247 012a 0B       		.uleb128 0xb
 4248 012b 27       		.uleb128 0x27
 4249 012c 0C       		.uleb128 0xc
 4250 012d 11       		.uleb128 0x11
 4251 012e 01       		.uleb128 0x1
 4252 012f 12       		.uleb128 0x12
 4253 0130 01       		.uleb128 0x1
 4254 0131 40       		.uleb128 0x40
 4255 0132 06       		.uleb128 0x6
 4256 0133 00       		.byte	0x0
 4257 0134 00       		.byte	0x0
 4258 0135 1A       		.uleb128 0x1a
 4259 0136 2E       		.uleb128 0x2e
 4260 0137 01       		.byte	0x1
 4261 0138 3F       		.uleb128 0x3f
 4262 0139 0C       		.uleb128 0xc
 4263 013a 03       		.uleb128 0x3
 4264 013b 0E       		.uleb128 0xe
 4265 013c 3A       		.uleb128 0x3a
 4266 013d 0B       		.uleb128 0xb
 4267 013e 3B       		.uleb128 0x3b
 4268 013f 0B       		.uleb128 0xb
 4269 0140 27       		.uleb128 0x27
 4270 0141 0C       		.uleb128 0xc
ARM GAS  C:\Users\z80\AppData\Local\Temp\cc8scWge.s 			page 78


 4271 0142 11       		.uleb128 0x11
 4272 0143 01       		.uleb128 0x1
 4273 0144 12       		.uleb128 0x12
 4274 0145 01       		.uleb128 0x1
 4275 0146 40       		.uleb128 0x40
 4276 0147 06       		.uleb128 0x6
 4277 0148 01       		.uleb128 0x1
 4278 0149 13       		.uleb128 0x13
 4279 014a 00       		.byte	0x0
 4280 014b 00       		.byte	0x0
 4281 014c 1B       		.uleb128 0x1b
 4282 014d 05       		.uleb128 0x5
 4283 014e 00       		.byte	0x0
 4284 014f 03       		.uleb128 0x3
 4285 0150 0E       		.uleb128 0xe
 4286 0151 3A       		.uleb128 0x3a
 4287 0152 0B       		.uleb128 0xb
 4288 0153 3B       		.uleb128 0x3b
 4289 0154 0B       		.uleb128 0xb
 4290 0155 49       		.uleb128 0x49
 4291 0156 13       		.uleb128 0x13
 4292 0157 02       		.uleb128 0x2
 4293 0158 06       		.uleb128 0x6
 4294 0159 00       		.byte	0x0
 4295 015a 00       		.byte	0x0
 4296 015b 1C       		.uleb128 0x1c
 4297 015c 0B       		.uleb128 0xb
 4298 015d 01       		.byte	0x1
 4299 015e 11       		.uleb128 0x11
 4300 015f 01       		.uleb128 0x1
 4301 0160 12       		.uleb128 0x12
 4302 0161 01       		.uleb128 0x1
 4303 0162 01       		.uleb128 0x1
 4304 0163 13       		.uleb128 0x13
 4305 0164 00       		.byte	0x0
 4306 0165 00       		.byte	0x0
 4307 0166 1D       		.uleb128 0x1d
 4308 0167 34       		.uleb128 0x34
 4309 0168 00       		.byte	0x0
 4310 0169 03       		.uleb128 0x3
 4311 016a 08       		.uleb128 0x8
 4312 016b 3A       		.uleb128 0x3a
 4313 016c 0B       		.uleb128 0xb
 4314 016d 3B       		.uleb128 0x3b
 4315 016e 0B       		.uleb128 0xb
 4316 016f 49       		.uleb128 0x49
 4317 0170 13       		.uleb128 0x13
 4318 0171 02       		.uleb128 0x2
 4319 0172 06       		.uleb128 0x6
 4320 0173 00       		.byte	0x0
 4321 0174 00       		.byte	0x0
 4322 0175 1E       		.uleb128 0x1e
 4323 0176 0B       		.uleb128 0xb
 4324 0177 01       		.byte	0x1
 4325 0178 11       		.uleb128 0x11
 4326 0179 01       		.uleb128 0x1
 4327 017a 12       		.uleb128 0x12
ARM GAS  C:\Users\z80\AppData\Local\Temp\cc8scWge.s 			page 79


 4328 017b 01       		.uleb128 0x1
 4329 017c 00       		.byte	0x0
 4330 017d 00       		.byte	0x0
 4331 017e 1F       		.uleb128 0x1f
 4332 017f 05       		.uleb128 0x5
 4333 0180 00       		.byte	0x0
 4334 0181 03       		.uleb128 0x3
 4335 0182 08       		.uleb128 0x8
 4336 0183 3A       		.uleb128 0x3a
 4337 0184 0B       		.uleb128 0xb
 4338 0185 3B       		.uleb128 0x3b
 4339 0186 0B       		.uleb128 0xb
 4340 0187 49       		.uleb128 0x49
 4341 0188 13       		.uleb128 0x13
 4342 0189 02       		.uleb128 0x2
 4343 018a 06       		.uleb128 0x6
 4344 018b 00       		.byte	0x0
 4345 018c 00       		.byte	0x0
 4346 018d 20       		.uleb128 0x20
 4347 018e 26       		.uleb128 0x26
 4348 018f 00       		.byte	0x0
 4349 0190 00       		.byte	0x0
 4350 0191 00       		.byte	0x0
 4351 0192 21       		.uleb128 0x21
 4352 0193 2E       		.uleb128 0x2e
 4353 0194 01       		.byte	0x1
 4354 0195 3F       		.uleb128 0x3f
 4355 0196 0C       		.uleb128 0xc
 4356 0197 03       		.uleb128 0x3
 4357 0198 0E       		.uleb128 0xe
 4358 0199 3A       		.uleb128 0x3a
 4359 019a 0B       		.uleb128 0xb
 4360 019b 3B       		.uleb128 0x3b
 4361 019c 05       		.uleb128 0x5
 4362 019d 27       		.uleb128 0x27
 4363 019e 0C       		.uleb128 0xc
 4364 019f 11       		.uleb128 0x11
 4365 01a0 01       		.uleb128 0x1
 4366 01a1 12       		.uleb128 0x12
 4367 01a2 01       		.uleb128 0x1
 4368 01a3 40       		.uleb128 0x40
 4369 01a4 06       		.uleb128 0x6
 4370 01a5 01       		.uleb128 0x1
 4371 01a6 13       		.uleb128 0x13
 4372 01a7 00       		.byte	0x0
 4373 01a8 00       		.byte	0x0
 4374 01a9 22       		.uleb128 0x22
 4375 01aa 05       		.uleb128 0x5
 4376 01ab 00       		.byte	0x0
 4377 01ac 03       		.uleb128 0x3
 4378 01ad 0E       		.uleb128 0xe
 4379 01ae 3A       		.uleb128 0x3a
 4380 01af 0B       		.uleb128 0xb
 4381 01b0 3B       		.uleb128 0x3b
 4382 01b1 05       		.uleb128 0x5
 4383 01b2 49       		.uleb128 0x49
 4384 01b3 13       		.uleb128 0x13
ARM GAS  C:\Users\z80\AppData\Local\Temp\cc8scWge.s 			page 80


 4385 01b4 02       		.uleb128 0x2
 4386 01b5 06       		.uleb128 0x6
 4387 01b6 00       		.byte	0x0
 4388 01b7 00       		.byte	0x0
 4389 01b8 23       		.uleb128 0x23
 4390 01b9 05       		.uleb128 0x5
 4391 01ba 00       		.byte	0x0
 4392 01bb 03       		.uleb128 0x3
 4393 01bc 08       		.uleb128 0x8
 4394 01bd 3A       		.uleb128 0x3a
 4395 01be 0B       		.uleb128 0xb
 4396 01bf 3B       		.uleb128 0x3b
 4397 01c0 05       		.uleb128 0x5
 4398 01c1 49       		.uleb128 0x49
 4399 01c2 13       		.uleb128 0x13
 4400 01c3 02       		.uleb128 0x2
 4401 01c4 06       		.uleb128 0x6
 4402 01c5 00       		.byte	0x0
 4403 01c6 00       		.byte	0x0
 4404 01c7 24       		.uleb128 0x24
 4405 01c8 34       		.uleb128 0x34
 4406 01c9 00       		.byte	0x0
 4407 01ca 03       		.uleb128 0x3
 4408 01cb 08       		.uleb128 0x8
 4409 01cc 3A       		.uleb128 0x3a
 4410 01cd 0B       		.uleb128 0xb
 4411 01ce 3B       		.uleb128 0x3b
 4412 01cf 05       		.uleb128 0x5
 4413 01d0 49       		.uleb128 0x49
 4414 01d1 13       		.uleb128 0x13
 4415 01d2 02       		.uleb128 0x2
 4416 01d3 06       		.uleb128 0x6
 4417 01d4 00       		.byte	0x0
 4418 01d5 00       		.byte	0x0
 4419 01d6 25       		.uleb128 0x25
 4420 01d7 34       		.uleb128 0x34
 4421 01d8 00       		.byte	0x0
 4422 01d9 03       		.uleb128 0x3
 4423 01da 0E       		.uleb128 0xe
 4424 01db 3A       		.uleb128 0x3a
 4425 01dc 0B       		.uleb128 0xb
 4426 01dd 3B       		.uleb128 0x3b
 4427 01de 0B       		.uleb128 0xb
 4428 01df 49       		.uleb128 0x49
 4429 01e0 13       		.uleb128 0x13
 4430 01e1 3F       		.uleb128 0x3f
 4431 01e2 0C       		.uleb128 0xc
 4432 01e3 3C       		.uleb128 0x3c
 4433 01e4 0C       		.uleb128 0xc
 4434 01e5 00       		.byte	0x0
 4435 01e6 00       		.byte	0x0
 4436 01e7 26       		.uleb128 0x26
 4437 01e8 34       		.uleb128 0x34
 4438 01e9 00       		.byte	0x0
 4439 01ea 03       		.uleb128 0x3
 4440 01eb 0E       		.uleb128 0xe
 4441 01ec 3A       		.uleb128 0x3a
ARM GAS  C:\Users\z80\AppData\Local\Temp\cc8scWge.s 			page 81


 4442 01ed 0B       		.uleb128 0xb
 4443 01ee 3B       		.uleb128 0x3b
 4444 01ef 05       		.uleb128 0x5
 4445 01f0 49       		.uleb128 0x49
 4446 01f1 13       		.uleb128 0x13
 4447 01f2 3F       		.uleb128 0x3f
 4448 01f3 0C       		.uleb128 0xc
 4449 01f4 3C       		.uleb128 0x3c
 4450 01f5 0C       		.uleb128 0xc
 4451 01f6 00       		.byte	0x0
 4452 01f7 00       		.byte	0x0
 4453 01f8 00       		.byte	0x0
 4454              		.section	.debug_pubnames,"",%progbits
 4455 0000 0D010000 		.4byte	0x10d
 4456 0004 0200     		.2byte	0x2
 4457 0006 00000000 		.4byte	.Ldebug_info0
 4458 000a 7C0E0000 		.4byte	0xe7c
 4459 000e 29080000 		.4byte	0x829
 4460 0012 73706949 		.ascii	"spiInit\000"
 4460      6E697400 
 4461 001a 3E080000 		.4byte	0x83e
 4462 001e 7370694F 		.ascii	"spiObjectInit\000"
 4462      626A6563 
 4462      74496E69 
 4462      7400
 4463 002c 67080000 		.4byte	0x867
 4464 0030 73706953 		.ascii	"spiStart\000"
 4464      74617274 
 4464      00
 4465 0039 D5080000 		.4byte	0x8d5
 4466 003d 73706953 		.ascii	"spiStop\000"
 4466      746F7000 
 4467 0045 34090000 		.4byte	0x934
 4468 0049 73706953 		.ascii	"spiSelect\000"
 4468      656C6563 
 4468      7400
 4469 0053 93090000 		.4byte	0x993
 4470 0057 73706955 		.ascii	"spiUnselect\000"
 4470      6E73656C 
 4470      65637400 
 4471 0063 F2090000 		.4byte	0x9f2
 4472 0067 73706953 		.ascii	"spiStartIgnore\000"
 4472      74617274 
 4472      49676E6F 
 4472      726500
 4473 0076 5E0A0000 		.4byte	0xa5e
 4474 007a 73706953 		.ascii	"spiStartExchange\000"
 4474      74617274 
 4474      45786368 
 4474      616E6765 
 4474      00
 4475 008b EF0A0000 		.4byte	0xaef
 4476 008f 73706953 		.ascii	"spiStartSend\000"
 4476      74617274 
 4476      53656E64 
 4476      00
 4477 009c 6A0B0000 		.4byte	0xb6a
ARM GAS  C:\Users\z80\AppData\Local\Temp\cc8scWge.s 			page 82


 4478 00a0 73706953 		.ascii	"spiStartReceive\000"
 4478      74617274 
 4478      52656365 
 4478      69766500 
 4479 00b0 EB0B0000 		.4byte	0xbeb
 4480 00b4 73706949 		.ascii	"spiIgnore\000"
 4480      676E6F72 
 4480      6500
 4481 00be 5C0C0000 		.4byte	0xc5c
 4482 00c2 73706945 		.ascii	"spiExchange\000"
 4482      78636861 
 4482      6E676500 
 4483 00ce ED0C0000 		.4byte	0xced
 4484 00d2 73706953 		.ascii	"spiSend\000"
 4484      656E6400 
 4485 00da 6E0D0000 		.4byte	0xd6e
 4486 00de 73706952 		.ascii	"spiReceive\000"
 4486      65636569 
 4486      766500
 4487 00e9 EF0D0000 		.4byte	0xdef
 4488 00ed 73706941 		.ascii	"spiAcquireBus\000"
 4488      63717569 
 4488      72654275 
 4488      7300
 4489 00fb 1A0E0000 		.4byte	0xe1a
 4490 00ff 73706952 		.ascii	"spiReleaseBus\000"
 4490      656C6561 
 4490      73654275 
 4490      7300
 4491 010d 00000000 		.4byte	0x0
 4492              		.section	.debug_pubtypes,"",%progbits
 4493 0000 E5010000 		.4byte	0x1e5
 4494 0004 0200     		.2byte	0x2
 4495 0006 00000000 		.4byte	.Ldebug_info0
 4496 000a 7C0E0000 		.4byte	0xe7c
 4497 000e 30000000 		.4byte	0x30
 4498 0012 73697A65 		.ascii	"size_t\000"
 4498      5F7400
 4499 0019 49000000 		.4byte	0x49
 4500 001d 75696E74 		.ascii	"uint8_t\000"
 4500      385F7400 
 4501 0025 62000000 		.4byte	0x62
 4502 0029 75696E74 		.ascii	"uint16_t\000"
 4502      31365F74 
 4502      00
 4503 0032 74000000 		.4byte	0x74
 4504 0036 696E7433 		.ascii	"int32_t\000"
 4504      325F7400 
 4505 003e 86000000 		.4byte	0x86
 4506 0042 75696E74 		.ascii	"uint32_t\000"
 4506      33325F74 
 4506      00
 4507 004b 9F000000 		.4byte	0x9f
 4508 004f 75696E74 		.ascii	"uint64_t\000"
 4508      36345F74 
 4508      00
 4509 0058 B1000000 		.4byte	0xb1
ARM GAS  C:\Users\z80\AppData\Local\Temp\cc8scWge.s 			page 83


 4510 005c 746D6F64 		.ascii	"tmode_t\000"
 4510      655F7400 
 4511 0064 BC000000 		.4byte	0xbc
 4512 0068 74737461 		.ascii	"tstate_t\000"
 4512      74655F74 
 4512      00
 4513 0071 C7000000 		.4byte	0xc7
 4514 0075 74707269 		.ascii	"tprio_t\000"
 4514      6F5F7400 
 4515 007d D2000000 		.4byte	0xd2
 4516 0081 6D73675F 		.ascii	"msg_t\000"
 4516      7400
 4517 0087 DD000000 		.4byte	0xdd
 4518 008b 6576656E 		.ascii	"eventmask_t\000"
 4518      746D6173 
 4518      6B5F7400 
 4519 0097 E8000000 		.4byte	0xe8
 4520 009b 73797374 		.ascii	"systime_t\000"
 4520      696D655F 
 4520      7400
 4521 00a5 F3000000 		.4byte	0xf3
 4522 00a9 636E745F 		.ascii	"cnt_t\000"
 4522      7400
 4523 00af FE000000 		.4byte	0xfe
 4524 00b3 54687265 		.ascii	"Thread\000"
 4524      616400
 4525 00ba 3D020000 		.4byte	0x23d
 4526 00be 54687265 		.ascii	"ThreadsQueue\000"
 4526      61647351 
 4526      75657565 
 4526      00
 4527 00cb 5F020000 		.4byte	0x25f
 4528 00cf 54687265 		.ascii	"ThreadsList\000"
 4528      6164734C 
 4528      69737400 
 4529 00db 6A020000 		.4byte	0x26a
 4530 00df 72656761 		.ascii	"regarm_t\000"
 4530      726D5F74 
 4530      00
 4531 00e8 77020000 		.4byte	0x277
 4532 00ec 73746B61 		.ascii	"stkalign_t\000"
 4532      6C69676E 
 4532      5F7400
 4533 00f7 82020000 		.4byte	0x282
 4534 00fb 696E7463 		.ascii	"intctx\000"
 4534      747800
 4535 0102 0F030000 		.4byte	0x30f
 4536 0106 636F6E74 		.ascii	"context\000"
 4536      65787400 
 4537 010e AA030000 		.4byte	0x3aa
 4538 0112 52656164 		.ascii	"ReadyList\000"
 4538      794C6973 
 4538      7400
 4539 011c B5030000 		.4byte	0x3b5
 4540 0120 4D757465 		.ascii	"Mutex\000"
 4540      7800
 4541 0126 F2030000 		.4byte	0x3f2
ARM GAS  C:\Users\z80\AppData\Local\Temp\cc8scWge.s 			page 84


 4542 012a 4D757465 		.ascii	"Mutex\000"
 4542      7800
 4543 0130 09010000 		.4byte	0x109
 4544 0134 54687265 		.ascii	"Thread\000"
 4544      616400
 4545 013b A0040000 		.4byte	0x4a0
 4546 013f 444D415F 		.ascii	"DMA_Channel_TypeDef\000"
 4546      4368616E 
 4546      6E656C5F 
 4546      54797065 
 4546      44656600 
 4547 0153 1F050000 		.4byte	0x51f
 4548 0157 4750494F 		.ascii	"GPIO_TypeDef\000"
 4548      5F547970 
 4548      65446566 
 4548      00
 4549 0164 41060000 		.4byte	0x641
 4550 0168 5350495F 		.ascii	"SPI_TypeDef\000"
 4550      54797065 
 4550      44656600 
 4551 0174 A8060000 		.4byte	0x6a8
 4552 0178 73746D33 		.ascii	"stm32_dma_stream_t\000"
 4552      325F646D 
 4552      615F7374 
 4552      7265616D 
 4552      5F7400
 4553 018b B3060000 		.4byte	0x6b3
 4554 018f 696F706F 		.ascii	"ioportid_t\000"
 4554      72746964 
 4554      5F7400
 4555 019a F6060000 		.4byte	0x6f6
 4556 019e 73706973 		.ascii	"spistate_t\000"
 4556      74617465 
 4556      5F7400
 4557 01a9 01070000 		.4byte	0x701
 4558 01ad 53504944 		.ascii	"SPIDriver\000"
 4558      72697665 
 4558      7200
 4559 01b7 A2070000 		.4byte	0x7a2
 4560 01bb 73706963 		.ascii	"spicallback_t\000"
 4560      616C6C62 
 4560      61636B5F 
 4560      7400
 4561 01c9 0C080000 		.4byte	0x80c
 4562 01cd 53504943 		.ascii	"SPIConfig\000"
 4562      6F6E6669 
 4562      6700
 4563 01d7 0D070000 		.4byte	0x70d
 4564 01db 53504944 		.ascii	"SPIDriver\000"
 4564      72697665 
 4564      7200
 4565 01e5 00000000 		.4byte	0x0
 4566              		.section	.debug_aranges,"",%progbits
 4567 0000 94000000 		.4byte	0x94
 4568 0004 0200     		.2byte	0x2
 4569 0006 00000000 		.4byte	.Ldebug_info0
 4570 000a 04       		.byte	0x4
ARM GAS  C:\Users\z80\AppData\Local\Temp\cc8scWge.s 			page 85


 4571 000b 00       		.byte	0x0
 4572 000c 0000     		.2byte	0x0
 4573 000e 0000     		.2byte	0x0
 4574 0010 00000000 		.4byte	.LFB62
 4575 0014 08000000 		.4byte	.LFE62-.LFB62
 4576 0018 00000000 		.4byte	.LFB63
 4577 001c 18000000 		.4byte	.LFE63-.LFB63
 4578 0020 00000000 		.4byte	.LFB64
 4579 0024 5C000000 		.4byte	.LFE64-.LFB64
 4580 0028 00000000 		.4byte	.LFB65
 4581 002c 4C000000 		.4byte	.LFE65-.LFB65
 4582 0030 00000000 		.4byte	.LFB66
 4583 0034 40000000 		.4byte	.LFE66-.LFB66
 4584 0038 00000000 		.4byte	.LFB67
 4585 003c 40000000 		.4byte	.LFE67-.LFB67
 4586 0040 00000000 		.4byte	.LFB68
 4587 0044 58000000 		.4byte	.LFE68-.LFB68
 4588 0048 00000000 		.4byte	.LFB69
 4589 004c 78000000 		.4byte	.LFE69-.LFB69
 4590 0050 00000000 		.4byte	.LFB70
 4591 0054 5C000000 		.4byte	.LFE70-.LFB70
 4592 0058 00000000 		.4byte	.LFB71
 4593 005c 5C000000 		.4byte	.LFE71-.LFB71
 4594 0060 00000000 		.4byte	.LFB72
 4595 0064 88000000 		.4byte	.LFE72-.LFB72
 4596 0068 00000000 		.4byte	.LFB73
 4597 006c A4000000 		.4byte	.LFE73-.LFB73
 4598 0070 00000000 		.4byte	.LFB74
 4599 0074 90000000 		.4byte	.LFE74-.LFB74
 4600 0078 00000000 		.4byte	.LFB75
 4601 007c 90000000 		.4byte	.LFE75-.LFB75
 4602 0080 00000000 		.4byte	.LFB76
 4603 0084 1C000000 		.4byte	.LFE76-.LFB76
 4604 0088 00000000 		.4byte	.LFB77
 4605 008c 18000000 		.4byte	.LFE77-.LFB77
 4606 0090 00000000 		.4byte	0x0
 4607 0094 00000000 		.4byte	0x0
 4608              		.section	.debug_ranges,"",%progbits
 4609              	.Ldebug_ranges0:
 4610 0000 00000000 		.4byte	.LFB62
 4611 0004 08000000 		.4byte	.LFE62
 4612 0008 00000000 		.4byte	.LFB63
 4613 000c 18000000 		.4byte	.LFE63
 4614 0010 00000000 		.4byte	.LFB64
 4615 0014 5C000000 		.4byte	.LFE64
 4616 0018 00000000 		.4byte	.LFB65
 4617 001c 4C000000 		.4byte	.LFE65
 4618 0020 00000000 		.4byte	.LFB66
 4619 0024 40000000 		.4byte	.LFE66
 4620 0028 00000000 		.4byte	.LFB67
 4621 002c 40000000 		.4byte	.LFE67
 4622 0030 00000000 		.4byte	.LFB68
 4623 0034 58000000 		.4byte	.LFE68
 4624 0038 00000000 		.4byte	.LFB69
 4625 003c 78000000 		.4byte	.LFE69
 4626 0040 00000000 		.4byte	.LFB70
 4627 0044 5C000000 		.4byte	.LFE70
ARM GAS  C:\Users\z80\AppData\Local\Temp\cc8scWge.s 			page 86


 4628 0048 00000000 		.4byte	.LFB71
 4629 004c 5C000000 		.4byte	.LFE71
 4630 0050 00000000 		.4byte	.LFB72
 4631 0054 88000000 		.4byte	.LFE72
 4632 0058 00000000 		.4byte	.LFB73
 4633 005c A4000000 		.4byte	.LFE73
 4634 0060 00000000 		.4byte	.LFB74
 4635 0064 90000000 		.4byte	.LFE74
 4636 0068 00000000 		.4byte	.LFB75
 4637 006c 90000000 		.4byte	.LFE75
 4638 0070 00000000 		.4byte	.LFB76
 4639 0074 1C000000 		.4byte	.LFE76
 4640 0078 00000000 		.4byte	.LFB77
 4641 007c 18000000 		.4byte	.LFE77
 4642 0080 00000000 		.4byte	0x0
 4643 0084 00000000 		.4byte	0x0
 4644              		.section	.debug_str,"MS",%progbits,1
 4645              	.LASF103:
 4646 0000 646D6172 		.ascii	"dmarx\000"
 4646      7800
 4647              	.LASF2:
 4648 0006 73697A65 		.ascii	"size_t\000"
 4648      5F7400
 4649              	.LASF58:
 4650 000d 7264796D 		.ascii	"rdymsg\000"
 4650      736700
 4651              	.LASF13:
 4652 0014 75696E74 		.ascii	"uint64_t\000"
 4652      36345F74 
 4652      00
 4653              	.LASF95:
 4654 001d 5350495F 		.ascii	"SPI_ACTIVE\000"
 4654      41435449 
 4654      564500
 4655              	.LASF115:
 4656 0028 73706953 		.ascii	"spiStop\000"
 4656      746F7000 
 4657              	.LASF121:
 4658 0030 72786275 		.ascii	"rxbuf\000"
 4658      6600
 4659              	.LASF110:
 4660 0036 73737061 		.ascii	"sspad\000"
 4660      6400
 4661              	.LASF14:
 4662 003c 6C6F6E67 		.ascii	"long long unsigned int\000"
 4662      206C6F6E 
 4662      6720756E 
 4662      7369676E 
 4662      65642069 
 4663              	.LASF74:
 4664 0053 43524350 		.ascii	"CRCPR\000"
 4664      5200
 4665              	.LASF59:
 4666 0059 65786974 		.ascii	"exitcode\000"
 4666      636F6465 
 4666      00
 4667              	.LASF89:
ARM GAS  C:\Users\z80\AppData\Local\Temp\cc8scWge.s 			page 87


 4668 0062 76656374 		.ascii	"vector\000"
 4668      6F7200
 4669              	.LASF98:
 4670 0069 53504944 		.ascii	"SPIDriver\000"
 4670      72697665 
 4670      7200
 4671              	.LASF109:
 4672 0073 7373706F 		.ascii	"ssport\000"
 4672      727400
 4673              	.LASF131:
 4674 007a 49544D5F 		.ascii	"ITM_RxBuffer\000"
 4674      52784275 
 4674      66666572 
 4674      00
 4675              	.LASF25:
 4676 0087 705F7072 		.ascii	"p_prio\000"
 4676      696F00
 4677              	.LASF12:
 4678 008e 6C6F6E67 		.ascii	"long long int\000"
 4678      206C6F6E 
 4678      6720696E 
 4678      7400
 4679              	.LASF1:
 4680 009c 7369676E 		.ascii	"signed char\000"
 4680      65642063 
 4680      68617200 
 4681              	.LASF67:
 4682 00a8 42535252 		.ascii	"BSRR\000"
 4682      00
 4683              	.LASF93:
 4684 00ad 5350495F 		.ascii	"SPI_STOP\000"
 4684      53544F50 
 4684      00
 4685              	.LASF80:
 4686 00b6 49325343 		.ascii	"I2SCFGR\000"
 4686      46475200 
 4687              	.LASF55:
 4688 00be 6D5F7175 		.ascii	"m_queue\000"
 4688      65756500 
 4689              	.LASF134:
 4690 00c6 433A5C70 		.ascii	"C:\\projects\\digitizer.git\\firmware\\digitizer\000"
 4690      726F6A65 
 4690      6374735C 
 4690      64696769 
 4690      74697A65 
 4691              	.LASF107:
 4692 00f3 73706963 		.ascii	"spicallback_t\000"
 4692      616C6C62 
 4692      61636B5F 
 4692      7400
 4693              	.LASF99:
 4694 0101 73746174 		.ascii	"state\000"
 4694      6500
 4695              	.LASF9:
 4696 0107 6C6F6E67 		.ascii	"long int\000"
 4696      20696E74 
 4696      00
ARM GAS  C:\Users\z80\AppData\Local\Temp\cc8scWge.s 			page 88


 4697              	.LASF16:
 4698 0110 74737461 		.ascii	"tstate_t\000"
 4698      74655F74 
 4698      00
 4699              	.LASF123:
 4700 0119 73706953 		.ascii	"spiStartReceive\000"
 4700      74617274 
 4700      52656365 
 4700      69766500 
 4701              	.LASF101:
 4702 0129 74687265 		.ascii	"thread\000"
 4702      616400
 4703              	.LASF6:
 4704 0130 75696E74 		.ascii	"uint16_t\000"
 4704      31365F74 
 4704      00
 4705              	.LASF33:
 4706 0139 705F7469 		.ascii	"p_time\000"
 4706      6D6500
 4707              	.LASF118:
 4708 0140 73706953 		.ascii	"spiStartIgnore\000"
 4708      74617274 
 4708      49676E6F 
 4708      726500
 4709              	.LASF27:
 4710 014f 705F6E65 		.ascii	"p_newer\000"
 4710      77657200 
 4711              	.LASF108:
 4712 0157 656E645F 		.ascii	"end_cb\000"
 4712      636200
 4713              	.LASF105:
 4714 015e 7278646D 		.ascii	"rxdmamode\000"
 4714      616D6F64 
 4714      6500
 4715              	.LASF104:
 4716 0168 646D6174 		.ascii	"dmatx\000"
 4716      7800
 4717              	.LASF49:
 4718 016e 725F6E65 		.ascii	"r_newer\000"
 4718      77657200 
 4719              	.LASF42:
 4720 0176 72656761 		.ascii	"regarm_t\000"
 4720      726D5F74 
 4720      00
 4721              	.LASF88:
 4722 017f 73656C66 		.ascii	"selfindex\000"
 4722      696E6465 
 4722      7800
 4723              	.LASF117:
 4724 0189 73706955 		.ascii	"spiUnselect\000"
 4724      6E73656C 
 4724      65637400 
 4725              	.LASF21:
 4726 0195 636E745F 		.ascii	"cnt_t\000"
 4726      7400
 4727              	.LASF30:
 4728 019b 705F7374 		.ascii	"p_stklimit\000"
ARM GAS  C:\Users\z80\AppData\Local\Temp\cc8scWge.s 			page 89


 4728      6B6C696D 
 4728      697400
 4729              	.LASF0:
 4730 01a6 756E7369 		.ascii	"unsigned int\000"
 4730      676E6564 
 4730      20696E74 
 4730      00
 4731              	.LASF120:
 4732 01b3 74786275 		.ascii	"txbuf\000"
 4732      6600
 4733              	.LASF127:
 4734 01b9 73706952 		.ascii	"spiReceive\000"
 4734      65636569 
 4734      766500
 4735              	.LASF64:
 4736 01c4 43504152 		.ascii	"CPAR\000"
 4736      00
 4737              	.LASF35:
 4738 01c9 705F6D73 		.ascii	"p_msgqueue\000"
 4738      67717565 
 4738      756500
 4739              	.LASF69:
 4740 01d4 4750494F 		.ascii	"GPIO_TypeDef\000"
 4740      5F547970 
 4740      65446566 
 4740      00
 4741              	.LASF68:
 4742 01e1 4C434B52 		.ascii	"LCKR\000"
 4742      00
 4743              	.LASF87:
 4744 01e6 69736869 		.ascii	"ishift\000"
 4744      667400
 4745              	.LASF122:
 4746 01ed 73706953 		.ascii	"spiStartSend\000"
 4746      74617274 
 4746      53656E64 
 4746      00
 4747              	.LASF7:
 4748 01fa 73686F72 		.ascii	"short unsigned int\000"
 4748      7420756E 
 4748      7369676E 
 4748      65642069 
 4748      6E7400
 4749              	.LASF18:
 4750 020d 6D73675F 		.ascii	"msg_t\000"
 4750      7400
 4751              	.LASF15:
 4752 0213 746D6F64 		.ascii	"tmode_t\000"
 4752      655F7400 
 4753              	.LASF41:
 4754 021b 54687265 		.ascii	"ThreadsList\000"
 4754      6164734C 
 4754      69737400 
 4755              	.LASF19:
 4756 0227 6576656E 		.ascii	"eventmask_t\000"
 4756      746D6173 
 4756      6B5F7400 
ARM GAS  C:\Users\z80\AppData\Local\Temp\cc8scWge.s 			page 90


 4757              	.LASF53:
 4758 0233 52656164 		.ascii	"ReadyList\000"
 4758      794C6973 
 4758      7400
 4759              	.LASF43:
 4760 023d 73746B61 		.ascii	"stkalign_t\000"
 4760      6C69676E 
 4760      5F7400
 4761              	.LASF135:
 4762 0248 73706949 		.ascii	"spiInit\000"
 4762      6E697400 
 4763              	.LASF22:
 4764 0250 54687265 		.ascii	"Thread\000"
 4764      616400
 4765              	.LASF47:
 4766 0257 725F7072 		.ascii	"r_prio\000"
 4766      696F00
 4767              	.LASF125:
 4768 025e 73706945 		.ascii	"spiExchange\000"
 4768      78636861 
 4768      6E676500 
 4769              	.LASF82:
 4770 026a 49325350 		.ascii	"I2SPR\000"
 4770      5200
 4771              	.LASF54:
 4772 0270 4D757465 		.ascii	"Mutex\000"
 4772      7800
 4773              	.LASF128:
 4774 0276 73706941 		.ascii	"spiAcquireBus\000"
 4774      63717569 
 4774      72654275 
 4774      7300
 4775              	.LASF28:
 4776 0284 705F6F6C 		.ascii	"p_older\000"
 4776      64657200 
 4777              	.LASF48:
 4778 028c 725F6374 		.ascii	"r_ctx\000"
 4778      7800
 4779              	.LASF40:
 4780 0292 54687265 		.ascii	"ThreadsQueue\000"
 4780      61647351 
 4780      75657565 
 4780      00
 4781              	.LASF106:
 4782 029f 7478646D 		.ascii	"txdmamode\000"
 4782      616D6F64 
 4782      6500
 4783              	.LASF133:
 4784 02a9 2E2E2F63 		.ascii	"../chibios_2.4.x/os/hal/src/spi.c\000"
 4784      68696269 
 4784      6F735F32 
 4784      2E342E78 
 4784      2F6F732F 
 4785              	.LASF52:
 4786 02cb 725F6375 		.ascii	"r_current\000"
 4786      7272656E 
 4786      7400
ARM GAS  C:\Users\z80\AppData\Local\Temp\cc8scWge.s 			page 91


 4787              	.LASF50:
 4788 02d5 725F6F6C 		.ascii	"r_older\000"
 4788      64657200 
 4789              	.LASF66:
 4790 02dd 444D415F 		.ascii	"DMA_Channel_TypeDef\000"
 4790      4368616E 
 4790      6E656C5F 
 4790      54797065 
 4790      44656600 
 4791              	.LASF78:
 4792 02f1 54584352 		.ascii	"TXCRCR\000"
 4792      435200
 4793              	.LASF70:
 4794 02f8 52455345 		.ascii	"RESERVED0\000"
 4794      52564544 
 4794      3000
 4795              	.LASF71:
 4796 0302 52455345 		.ascii	"RESERVED1\000"
 4796      52564544 
 4796      3100
 4797              	.LASF72:
 4798 030c 52455345 		.ascii	"RESERVED2\000"
 4798      52564544 
 4798      3200
 4799              	.LASF73:
 4800 0316 52455345 		.ascii	"RESERVED3\000"
 4800      52564544 
 4800      3300
 4801              	.LASF75:
 4802 0320 52455345 		.ascii	"RESERVED4\000"
 4802      52564544 
 4802      3400
 4803              	.LASF24:
 4804 032a 705F7072 		.ascii	"p_prev\000"
 4804      657600
 4805              	.LASF79:
 4806 0331 52455345 		.ascii	"RESERVED6\000"
 4806      52564544 
 4806      3600
 4807              	.LASF81:
 4808 033b 52455345 		.ascii	"RESERVED7\000"
 4808      52564544 
 4808      3700
 4809              	.LASF83:
 4810 0345 52455345 		.ascii	"RESERVED8\000"
 4810      52564544 
 4810      3800
 4811              	.LASF17:
 4812 034f 74707269 		.ascii	"tprio_t\000"
 4812      6F5F7400 
 4813              	.LASF102:
 4814 0357 6D757465 		.ascii	"mutex\000"
 4814      7800
 4815              	.LASF8:
 4816 035d 696E7433 		.ascii	"int32_t\000"
 4816      325F7400 
 4817              	.LASF4:
ARM GAS  C:\Users\z80\AppData\Local\Temp\cc8scWge.s 			page 92


 4818 0365 756E7369 		.ascii	"unsigned char\000"
 4818      676E6564 
 4818      20636861 
 4818      7200
 4819              	.LASF90:
 4820 0373 73746D33 		.ascii	"stm32_dma_stream_t\000"
 4820      325F646D 
 4820      615F7374 
 4820      7265616D 
 4820      5F7400
 4821              	.LASF38:
 4822 0386 705F6D74 		.ascii	"p_mtxlist\000"
 4822      786C6973 
 4822      7400
 4823              	.LASF5:
 4824 0390 73686F72 		.ascii	"short int\000"
 4824      7420696E 
 4824      7400
 4825              	.LASF31:
 4826 039a 705F7374 		.ascii	"p_state\000"
 4826      61746500 
 4827              	.LASF112:
 4828 03a2 7370694F 		.ascii	"spiObjectInit\000"
 4828      626A6563 
 4828      74496E69 
 4828      7400
 4829              	.LASF61:
 4830 03b0 65776D61 		.ascii	"ewmask\000"
 4830      736B00
 4831              	.LASF23:
 4832 03b7 705F6E65 		.ascii	"p_next\000"
 4832      787400
 4833              	.LASF32:
 4834 03be 705F666C 		.ascii	"p_flags\000"
 4834      61677300 
 4835              	.LASF85:
 4836 03c6 6368616E 		.ascii	"channel\000"
 4836      6E656C00 
 4837              	.LASF37:
 4838 03ce 705F6570 		.ascii	"p_epending\000"
 4838      656E6469 
 4838      6E6700
 4839              	.LASF86:
 4840 03d9 69666372 		.ascii	"ifcr\000"
 4840      00
 4841              	.LASF77:
 4842 03de 52455345 		.ascii	"RESERVED5\000"
 4842      52564544 
 4842      3500
 4843              	.LASF10:
 4844 03e8 75696E74 		.ascii	"uint32_t\000"
 4844      33325F74 
 4844      00
 4845              	.LASF46:
 4846 03f1 725F7175 		.ascii	"r_queue\000"
 4846      65756500 
 4847              	.LASF11:
ARM GAS  C:\Users\z80\AppData\Local\Temp\cc8scWge.s 			page 93


 4848 03f9 6C6F6E67 		.ascii	"long unsigned int\000"
 4848      20756E73 
 4848      69676E65 
 4848      6420696E 
 4848      7400
 4849              	.LASF84:
 4850 040b 5350495F 		.ascii	"SPI_TypeDef\000"
 4850      54797065 
 4850      44656600 
 4851              	.LASF62:
 4852 0417 63686172 		.ascii	"char\000"
 4852      00
 4853              	.LASF96:
 4854 041c 5350495F 		.ascii	"SPI_COMPLETE\000"
 4854      434F4D50 
 4854      4C455445 
 4854      00
 4855              	.LASF100:
 4856 0429 636F6E66 		.ascii	"config\000"
 4856      696700
 4857              	.LASF97:
 4858 0430 73706973 		.ascii	"spistate_t\000"
 4858      74617465 
 4858      5F7400
 4859              	.LASF57:
 4860 043b 6D5F6E65 		.ascii	"m_next\000"
 4860      787400
 4861              	.LASF20:
 4862 0442 73797374 		.ascii	"systime_t\000"
 4862      696D655F 
 4862      7400
 4863              	.LASF39:
 4864 044c 705F7265 		.ascii	"p_realprio\000"
 4864      616C7072 
 4864      696F00
 4865              	.LASF129:
 4866 0457 73706952 		.ascii	"spiReleaseBus\000"
 4866      656C6561 
 4866      73654275 
 4866      7300
 4867              	.LASF124:
 4868 0465 73706949 		.ascii	"spiIgnore\000"
 4868      676E6F72 
 4868      6500
 4869              	.LASF91:
 4870 046f 696F706F 		.ascii	"ioportid_t\000"
 4870      72746964 
 4870      5F7400
 4871              	.LASF45:
 4872 047a 636F6E74 		.ascii	"context\000"
 4872      65787400 
 4873              	.LASF113:
 4874 0482 73706953 		.ascii	"spiStart\000"
 4874      74617274 
 4874      00
 4875              	.LASF116:
 4876 048b 73706953 		.ascii	"spiSelect\000"
ARM GAS  C:\Users\z80\AppData\Local\Temp\cc8scWge.s 			page 94


 4876      656C6563 
 4876      7400
 4877              	.LASF44:
 4878 0495 696E7463 		.ascii	"intctx\000"
 4878      747800
 4879              	.LASF94:
 4880 049c 5350495F 		.ascii	"SPI_READY\000"
 4880      52454144 
 4880      5900
 4881              	.LASF92:
 4882 04a6 5350495F 		.ascii	"SPI_UNINIT\000"
 4882      554E494E 
 4882      495400
 4883              	.LASF119:
 4884 04b1 73706953 		.ascii	"spiStartExchange\000"
 4884      74617274 
 4884      45786368 
 4884      616E6765 
 4884      00
 4885              	.LASF63:
 4886 04c2 434E4454 		.ascii	"CNDTR\000"
 4886      5200
 4887              	.LASF65:
 4888 04c8 434D4152 		.ascii	"CMAR\000"
 4888      00
 4889              	.LASF76:
 4890 04cd 52584352 		.ascii	"RXCRCR\000"
 4890      435200
 4891              	.LASF130:
 4892 04d4 726C6973 		.ascii	"rlist\000"
 4892      7400
 4893              	.LASF3:
 4894 04da 75696E74 		.ascii	"uint8_t\000"
 4894      385F7400 
 4895              	.LASF114:
 4896 04e2 73706970 		.ascii	"spip\000"
 4896      00
 4897              	.LASF132:
 4898 04e7 474E5520 		.ascii	"GNU C 4.5.0\000"
 4898      4320342E 
 4898      352E3000 
 4899              	.LASF60:
 4900 04f3 77746F62 		.ascii	"wtobjp\000"
 4900      6A7000
 4901              	.LASF29:
 4902 04fa 705F6E61 		.ascii	"p_name\000"
 4902      6D6500
 4903              	.LASF126:
 4904 0501 73706953 		.ascii	"spiSend\000"
 4904      656E6400 
 4905              	.LASF111:
 4906 0509 53504943 		.ascii	"SPIConfig\000"
 4906      6F6E6669 
 4906      6700
 4907              	.LASF36:
 4908 0513 705F6D73 		.ascii	"p_msg\000"
 4908      6700
ARM GAS  C:\Users\z80\AppData\Local\Temp\cc8scWge.s 			page 95


 4909              	.LASF51:
 4910 0519 725F7072 		.ascii	"r_preempt\000"
 4910      65656D70 
 4910      7400
 4911              	.LASF56:
 4912 0523 6D5F6F77 		.ascii	"m_owner\000"
 4912      6E657200 
 4913              	.LASF26:
 4914 052b 705F6374 		.ascii	"p_ctx\000"
 4914      7800
 4915              	.LASF34:
 4916 0531 705F7761 		.ascii	"p_waiting\000"
 4916      6974696E 
 4916      6700
 4917              		.ident	"GCC: (GNU) 4.5.0"
ARM GAS  C:\Users\z80\AppData\Local\Temp\cc8scWge.s 			page 96


DEFINED SYMBOLS
                            *ABS*:00000000 spi.c
C:\Users\z80\AppData\Local\Temp\cc8scWge.s:24     .text.spiInit:00000000 $t
C:\Users\z80\AppData\Local\Temp\cc8scWge.s:30     .text.spiInit:00000000 spiInit
C:\Users\z80\AppData\Local\Temp\cc8scWge.s:50     .text.spiObjectInit:00000000 $t
C:\Users\z80\AppData\Local\Temp\cc8scWge.s:56     .text.spiObjectInit:00000000 spiObjectInit
C:\Users\z80\AppData\Local\Temp\cc8scWge.s:92     .text.spiStart:00000000 $t
C:\Users\z80\AppData\Local\Temp\cc8scWge.s:98     .text.spiStart:00000000 spiStart
C:\Users\z80\AppData\Local\Temp\cc8scWge.s:179    .text.spiStart:00000054 $d
C:\Users\z80\AppData\Local\Temp\cc8scWge.s:185    .text.spiStop:00000000 $t
C:\Users\z80\AppData\Local\Temp\cc8scWge.s:191    .text.spiStop:00000000 spiStop
C:\Users\z80\AppData\Local\Temp\cc8scWge.s:262    .text.spiStop:00000044 $d
C:\Users\z80\AppData\Local\Temp\cc8scWge.s:268    .text.spiSelect:00000000 $t
C:\Users\z80\AppData\Local\Temp\cc8scWge.s:274    .text.spiSelect:00000000 spiSelect
C:\Users\z80\AppData\Local\Temp\cc8scWge.s:337    .text.spiSelect:00000038 $d
C:\Users\z80\AppData\Local\Temp\cc8scWge.s:343    .text.spiUnselect:00000000 $t
C:\Users\z80\AppData\Local\Temp\cc8scWge.s:349    .text.spiUnselect:00000000 spiUnselect
C:\Users\z80\AppData\Local\Temp\cc8scWge.s:412    .text.spiUnselect:00000038 $d
C:\Users\z80\AppData\Local\Temp\cc8scWge.s:418    .text.spiStartIgnore:00000000 $t
C:\Users\z80\AppData\Local\Temp\cc8scWge.s:424    .text.spiStartIgnore:00000000 spiStartIgnore
C:\Users\z80\AppData\Local\Temp\cc8scWge.s:500    .text.spiStartIgnore:00000050 $d
C:\Users\z80\AppData\Local\Temp\cc8scWge.s:506    .text.spiStartExchange:00000000 $t
C:\Users\z80\AppData\Local\Temp\cc8scWge.s:512    .text.spiStartExchange:00000000 spiStartExchange
C:\Users\z80\AppData\Local\Temp\cc8scWge.s:606    .text.spiStartExchange:00000070 $d
C:\Users\z80\AppData\Local\Temp\cc8scWge.s:612    .text.spiStartSend:00000000 $t
C:\Users\z80\AppData\Local\Temp\cc8scWge.s:618    .text.spiStartSend:00000000 spiStartSend
C:\Users\z80\AppData\Local\Temp\cc8scWge.s:699    .text.spiStartSend:00000054 $d
C:\Users\z80\AppData\Local\Temp\cc8scWge.s:705    .text.spiStartReceive:00000000 $t
C:\Users\z80\AppData\Local\Temp\cc8scWge.s:711    .text.spiStartReceive:00000000 spiStartReceive
C:\Users\z80\AppData\Local\Temp\cc8scWge.s:792    .text.spiStartReceive:00000054 $d
C:\Users\z80\AppData\Local\Temp\cc8scWge.s:798    .text.spiIgnore:00000000 $t
C:\Users\z80\AppData\Local\Temp\cc8scWge.s:804    .text.spiIgnore:00000000 spiIgnore
C:\Users\z80\AppData\Local\Temp\cc8scWge.s:902    .text.spiIgnore:00000074 $d
C:\Users\z80\AppData\Local\Temp\cc8scWge.s:911    .text.spiExchange:00000000 $t
C:\Users\z80\AppData\Local\Temp\cc8scWge.s:917    .text.spiExchange:00000000 spiExchange
C:\Users\z80\AppData\Local\Temp\cc8scWge.s:1033   .text.spiExchange:00000090 $d
C:\Users\z80\AppData\Local\Temp\cc8scWge.s:1042   .text.spiSend:00000000 $t
C:\Users\z80\AppData\Local\Temp\cc8scWge.s:1048   .text.spiSend:00000000 spiSend
C:\Users\z80\AppData\Local\Temp\cc8scWge.s:1152   .text.spiSend:0000007c $d
C:\Users\z80\AppData\Local\Temp\cc8scWge.s:1161   .text.spiReceive:00000000 $t
C:\Users\z80\AppData\Local\Temp\cc8scWge.s:1167   .text.spiReceive:00000000 spiReceive
C:\Users\z80\AppData\Local\Temp\cc8scWge.s:1271   .text.spiReceive:0000007c $d
C:\Users\z80\AppData\Local\Temp\cc8scWge.s:1280   .text.spiAcquireBus:00000000 $t
C:\Users\z80\AppData\Local\Temp\cc8scWge.s:1286   .text.spiAcquireBus:00000000 spiAcquireBus
C:\Users\z80\AppData\Local\Temp\cc8scWge.s:1317   .text.spiAcquireBus:00000018 $d
C:\Users\z80\AppData\Local\Temp\cc8scWge.s:1322   .text.spiReleaseBus:00000000 $t
C:\Users\z80\AppData\Local\Temp\cc8scWge.s:1328   .text.spiReleaseBus:00000000 spiReleaseBus
C:\Users\z80\AppData\Local\Temp\cc8scWge.s:1358   .text.spiReleaseBus:00000014 $d
C:\Users\z80\AppData\Local\Temp\cc8scWge.s:1363   .rodata.str1.4:00000000 $d
                     .debug_frame:00000010 $d
C:\Users\z80\AppData\Local\Temp\cc8scWge.s:184    .text.spiStart:0000005c $t
C:\Users\z80\AppData\Local\Temp\cc8scWge.s:267    .text.spiStop:0000004c $t
C:\Users\z80\AppData\Local\Temp\cc8scWge.s:505    .text.spiStartIgnore:00000058 $t
C:\Users\z80\AppData\Local\Temp\cc8scWge.s:611    .text.spiStartExchange:00000078 $t
C:\Users\z80\AppData\Local\Temp\cc8scWge.s:704    .text.spiStartSend:0000005c $t
C:\Users\z80\AppData\Local\Temp\cc8scWge.s:797    .text.spiStartReceive:0000005c $t
C:\Users\z80\AppData\Local\Temp\cc8scWge.s:910    .text.spiIgnore:00000088 $t
ARM GAS  C:\Users\z80\AppData\Local\Temp\cc8scWge.s 			page 97


C:\Users\z80\AppData\Local\Temp\cc8scWge.s:1041   .text.spiExchange:000000a4 $t
C:\Users\z80\AppData\Local\Temp\cc8scWge.s:1321   .text.spiAcquireBus:0000001c $t
C:\Users\z80\AppData\Local\Temp\cc8scWge.s:1362   .text.spiReleaseBus:00000018 $t

UNDEFINED SYMBOLS
spi_lld_init
chMtxInit
dbg_check_lock
chDbgPanic
spi_lld_start
dbg_check_unlock
spi_lld_unselect
spi_lld_stop
spi_lld_select
spi_lld_ignore
spi_lld_exchange
spi_lld_send
spi_lld_receive
chSchGoSleepS
rlist
chMtxLock
chMtxUnlock
