ARM GAS  C:\Users\z80\AppData\Local\Temp\ccOsHSOe.s 			page 1


   1              		.syntax unified
   2              		.cpu cortex-m3
   3              		.fpu softvfp
   4              		.eabi_attribute 20, 1
   5              		.eabi_attribute 21, 1
   6              		.eabi_attribute 23, 3
   7              		.eabi_attribute 24, 1
   8              		.eabi_attribute 25, 1
   9              		.eabi_attribute 26, 1
  10              		.eabi_attribute 30, 6
  11              		.eabi_attribute 18, 4
  12              		.thumb
  13              		.file	"spi_lld.c"
  14              		.section	.debug_abbrev,"",%progbits
  15              	.Ldebug_abbrev0:
  16              		.section	.debug_info,"",%progbits
  17              	.Ldebug_info0:
  18              		.section	.debug_line,"",%progbits
  19              	.Ldebug_line0:
  20 0000 7A030000 		.text
  20      02000D02 
  20      00000201 
  20      FB0E0D00 
  20      01010101 
  21              	.Ltext0:
  22              		.cfi_sections	.debug_frame
  23              		.global	SPID1
  24              		.section	.bss.SPID1,"aw",%nobits
  25              		.align	2
  26              		.type	SPID1, %object
  27              		.size	SPID1, 28
  28              	SPID1:
  29 0000 00000000 		.space	28
  29      00000000 
  29      00000000 
  29      00000000 
  29      00000000 
  30              		.global	SPID2
  31              		.section	.bss.SPID2,"aw",%nobits
  32              		.align	2
  33              		.type	SPID2, %object
  34              		.size	SPID2, 28
  35              	SPID2:
  36 0000 00000000 		.space	28
  36      00000000 
  36      00000000 
  36      00000000 
  36      00000000 
  37              		.section	.bss.dummytx,"aw",%nobits
  38              		.align	1
  39              		.type	dummytx, %object
  40              		.size	dummytx, 2
  41              	dummytx:
  42 0000 0000     		.space	2
  43              		.section	.bss.dummyrx,"aw",%nobits
  44              		.align	1
  45              		.type	dummyrx, %object
ARM GAS  C:\Users\z80\AppData\Local\Temp\ccOsHSOe.s 			page 2


  46              		.size	dummyrx, 2
  47              	dummyrx:
  48 0000 0000     		.space	2
  49              		.section	.text.spi_lld_serve_rx_interrupt,"ax",%progbits
  50              		.align	2
  51              		.p2align 4,,15
  52              		.thumb
  53              		.thumb_func
  54              		.type	spi_lld_serve_rx_interrupt, %function
  55              	spi_lld_serve_rx_interrupt:
  56              	.LFB62:
  57              		.file 1 "../chibios_2.4.x/os/hal/platforms/STM32/spi_lld.c"
  58              		.loc 1 105 0
  59              		.cfi_startproc
  60              		@ args = 0, pretend = 0, frame = 8
  61              		@ frame_needed = 0, uses_anonymous_args = 0
  62 0000 00B5     		push	{lr}
  63              	.LCFI0:
  64              		.cfi_def_cfa_offset 4
  65 0002 83B0     		sub	sp, sp, #12
  66              	.LCFI1:
  67              		.cfi_def_cfa_offset 16
  68 0004 0190     		str	r0, [sp, #4]
  69 0006 0091     		str	r1, [sp, #0]
  70              		.loc 1 109 0
  71 0008 009B     		ldr	r3, [sp, #0]
  72 000a 03F00803 		and	r3, r3, #8
  73 000e 002B     		cmp	r3, #0
  74 0010 01D0     		beq	.L2
  75              		.cfi_offset 14, -4
  76              		.loc 1 110 0
  77 0012 FFF7FEFF 		bl	port_halt
  78              	.L2:
  79              		.loc 1 117 0
  80 0016 019B     		ldr	r3, [sp, #4]
  81 0018 1B69     		ldr	r3, [r3, #16]
  82 001a 1B68     		ldr	r3, [r3, #0]
  83 001c 019A     		ldr	r2, [sp, #4]
  84 001e 1269     		ldr	r2, [r2, #16]
  85 0020 1268     		ldr	r2, [r2, #0]
  86 0022 1268     		ldr	r2, [r2, #0]
  87 0024 22F00102 		bic	r2, r2, #1
  88 0028 1A60     		str	r2, [r3, #0]
  89 002a 019B     		ldr	r3, [sp, #4]
  90 002c 1B69     		ldr	r3, [r3, #16]
  91 002e 5B68     		ldr	r3, [r3, #4]
  92 0030 019A     		ldr	r2, [sp, #4]
  93 0032 1269     		ldr	r2, [r2, #16]
  94 0034 127A     		ldrb	r2, [r2, #8]	@ zero_extendqisi2
  95 0036 4FF00F01 		mov	r1, #15
  96 003a 01FA02F2 		lsl	r2, r1, r2
  97 003e 1A60     		str	r2, [r3, #0]
  98              		.loc 1 118 0
  99 0040 019B     		ldr	r3, [sp, #4]
 100 0042 DB68     		ldr	r3, [r3, #12]
 101 0044 1B68     		ldr	r3, [r3, #0]
 102 0046 019A     		ldr	r2, [sp, #4]
ARM GAS  C:\Users\z80\AppData\Local\Temp\ccOsHSOe.s 			page 3


 103 0048 D268     		ldr	r2, [r2, #12]
 104 004a 1268     		ldr	r2, [r2, #0]
 105 004c 1268     		ldr	r2, [r2, #0]
 106 004e 22F00102 		bic	r2, r2, #1
 107 0052 1A60     		str	r2, [r3, #0]
 108 0054 019B     		ldr	r3, [sp, #4]
 109 0056 DB68     		ldr	r3, [r3, #12]
 110 0058 5B68     		ldr	r3, [r3, #4]
 111 005a 019A     		ldr	r2, [sp, #4]
 112 005c D268     		ldr	r2, [r2, #12]
 113 005e 127A     		ldrb	r2, [r2, #8]	@ zero_extendqisi2
 114 0060 4FF00F01 		mov	r1, #15
 115 0064 01FA02F2 		lsl	r2, r1, r2
 116 0068 1A60     		str	r2, [r3, #0]
 117              		.loc 1 122 0
 118 006a 019B     		ldr	r3, [sp, #4]
 119 006c 5B68     		ldr	r3, [r3, #4]
 120 006e 1B68     		ldr	r3, [r3, #0]
 121 0070 002B     		cmp	r3, #0
 122 0072 11D0     		beq	.L3
 123              		.loc 1 122 0 is_stmt 0 discriminator 1
 124 0074 019B     		ldr	r3, [sp, #4]
 125 0076 4FF00402 		mov	r2, #4
 126 007a 1A70     		strb	r2, [r3, #0]
 127 007c 019B     		ldr	r3, [sp, #4]
 128 007e 5B68     		ldr	r3, [r3, #4]
 129 0080 1B68     		ldr	r3, [r3, #0]
 130 0082 0198     		ldr	r0, [sp, #4]
 131 0084 9847     		blx	r3
 132 0086 019B     		ldr	r3, [sp, #4]
 133 0088 1B78     		ldrb	r3, [r3, #0]	@ zero_extendqisi2
 134 008a 042B     		cmp	r3, #4
 135 008c 08D1     		bne	.L1
 136              		.loc 1 122 0 discriminator 3
 137 008e 019B     		ldr	r3, [sp, #4]
 138 0090 4FF00202 		mov	r2, #2
 139 0094 1A70     		strb	r2, [r3, #0]
 140 0096 03E0     		b	.L1
 141              	.L3:
 142              		.loc 1 122 0 discriminator 2
 143 0098 019B     		ldr	r3, [sp, #4]
 144 009a 4FF00202 		mov	r2, #2
 145 009e 1A70     		strb	r2, [r3, #0]
 146              	.L1:
 147              		.loc 1 123 0 is_stmt 1
 148 00a0 03B0     		add	sp, sp, #12
 149 00a2 00BD     		pop	{pc}
 150              		.cfi_endproc
 151              	.LFE62:
 152              		.size	spi_lld_serve_rx_interrupt, .-spi_lld_serve_rx_interrupt
 153 00a4 AFF30080 		.section	.text.spi_lld_serve_tx_interrupt,"ax",%progbits
 153      AFF30080 
 153      AFF30080 
 154              		.align	2
 155              		.p2align 4,,15
 156              		.thumb
 157              		.thumb_func
ARM GAS  C:\Users\z80\AppData\Local\Temp\ccOsHSOe.s 			page 4


 158              		.type	spi_lld_serve_tx_interrupt, %function
 159              	spi_lld_serve_tx_interrupt:
 160              	.LFB63:
 161              		.loc 1 131 0
 162              		.cfi_startproc
 163              		@ args = 0, pretend = 0, frame = 8
 164              		@ frame_needed = 0, uses_anonymous_args = 0
 165 0000 00B5     		push	{lr}
 166              	.LCFI2:
 167              		.cfi_def_cfa_offset 4
 168 0002 83B0     		sub	sp, sp, #12
 169              	.LCFI3:
 170              		.cfi_def_cfa_offset 16
 171 0004 0190     		str	r0, [sp, #4]
 172 0006 0091     		str	r1, [sp, #0]
 173              		.loc 1 136 0
 174 0008 009B     		ldr	r3, [sp, #0]
 175 000a 03F00803 		and	r3, r3, #8
 176 000e 002B     		cmp	r3, #0
 177 0010 01D0     		beq	.L6
 178              		.cfi_offset 14, -4
 179              		.loc 1 137 0
 180 0012 FFF7FEFF 		bl	port_halt
 181              	.L6:
 182              		.loc 1 143 0
 183 0016 03B0     		add	sp, sp, #12
 184 0018 00BD     		pop	{pc}
 185              		.cfi_endproc
 186              	.LFE63:
 187              		.size	spi_lld_serve_tx_interrupt, .-spi_lld_serve_tx_interrupt
 188 001a 00BFAFF3 		.section	.text.spi_lld_init,"ax",%progbits
 188      0080
 189              		.align	2
 190              		.p2align 4,,15
 191              		.global	spi_lld_init
 192              		.thumb
 193              		.thumb_func
 194              		.type	spi_lld_init, %function
 195              	spi_lld_init:
 196              	.LFB64:
 197              		.loc 1 158 0
 198              		.cfi_startproc
 199              		@ args = 0, pretend = 0, frame = 0
 200              		@ frame_needed = 0, uses_anonymous_args = 0
 201 0000 08B5     		push	{r3, lr}
 202              	.LCFI4:
 203              		.cfi_def_cfa_offset 8
 204              		.loc 1 160 0
 205 0002 40F20003 		movw	r3, #:lower16:dummytx
 206              		.cfi_offset 14, -4
 207              		.cfi_offset 3, -8
 208 0006 C0F20003 		movt	r3, #:upper16:dummytx
 209 000a 4FF6FF72 		movw	r2, #65535
 210 000e 1A80     		strh	r2, [r3, #0]	@ movhi
 211              		.loc 1 163 0
 212 0010 40F20000 		movw	r0, #:lower16:SPID1
 213 0014 C0F20000 		movt	r0, #:upper16:SPID1
ARM GAS  C:\Users\z80\AppData\Local\Temp\ccOsHSOe.s 			page 5


 214 0018 FFF7FEFF 		bl	spiObjectInit
 215              		.loc 1 164 0
 216 001c 40F20003 		movw	r3, #:lower16:SPID1
 217 0020 C0F20003 		movt	r3, #:upper16:SPID1
 218 0024 4FF44052 		mov	r2, #12288
 219 0028 C4F20102 		movt	r2, 16385
 220 002c 9A60     		str	r2, [r3, #8]
 221              		.loc 1 165 0
 222 002e 40F20003 		movw	r3, #:lower16:SPID1
 223 0032 C0F20003 		movt	r3, #:upper16:SPID1
 224 0036 204A     		ldr	r2, .L9
 225 0038 DA60     		str	r2, [r3, #12]
 226              		.loc 1 166 0
 227 003a 40F20003 		movw	r3, #:lower16:SPID1
 228 003e C0F20003 		movt	r3, #:upper16:SPID1
 229 0042 1E4A     		ldr	r2, .L9+4
 230 0044 1A61     		str	r2, [r3, #16]
 231              		.loc 1 167 0
 232 0046 40F20003 		movw	r3, #:lower16:SPID1
 233 004a C0F20003 		movt	r3, #:upper16:SPID1
 234 004e 41F20A02 		movw	r2, #4106
 235 0052 5A61     		str	r2, [r3, #20]
 236              		.loc 1 173 0
 237 0054 40F20003 		movw	r3, #:lower16:SPID1
 238 0058 C0F20003 		movt	r3, #:upper16:SPID1
 239 005c 41F21802 		movw	r2, #4120
 240 0060 9A61     		str	r2, [r3, #24]
 241              		.loc 1 181 0
 242 0062 40F20000 		movw	r0, #:lower16:SPID2
 243 0066 C0F20000 		movt	r0, #:upper16:SPID2
 244 006a FFF7FEFF 		bl	spiObjectInit
 245              		.loc 1 182 0
 246 006e 40F20003 		movw	r3, #:lower16:SPID2
 247 0072 C0F20003 		movt	r3, #:upper16:SPID2
 248 0076 4FF46052 		mov	r2, #14336
 249 007a C4F20002 		movt	r2, 16384
 250 007e 9A60     		str	r2, [r3, #8]
 251              		.loc 1 183 0
 252 0080 40F20003 		movw	r3, #:lower16:SPID2
 253 0084 C0F20003 		movt	r3, #:upper16:SPID2
 254 0088 0D4A     		ldr	r2, .L9+8
 255 008a DA60     		str	r2, [r3, #12]
 256              		.loc 1 184 0
 257 008c 40F20003 		movw	r3, #:lower16:SPID2
 258 0090 C0F20003 		movt	r3, #:upper16:SPID2
 259 0094 0B4A     		ldr	r2, .L9+12
 260 0096 1A61     		str	r2, [r3, #16]
 261              		.loc 1 185 0
 262 0098 40F20003 		movw	r3, #:lower16:SPID2
 263 009c C0F20003 		movt	r3, #:upper16:SPID2
 264 00a0 41F20A02 		movw	r2, #4106
 265 00a4 5A61     		str	r2, [r3, #20]
 266              		.loc 1 191 0
 267 00a6 40F20003 		movw	r3, #:lower16:SPID2
 268 00aa C0F20003 		movt	r3, #:upper16:SPID2
 269 00ae 41F21802 		movw	r2, #4120
 270 00b2 9A61     		str	r2, [r3, #24]
ARM GAS  C:\Users\z80\AppData\Local\Temp\ccOsHSOe.s 			page 6


 271              		.loc 1 215 0
 272 00b4 08BD     		pop	{r3, pc}
 273              	.L10:
 274 00b6 00BF     		.align	2
 275              	.L9:
 276 00b8 0C000000 		.word	_stm32_dma_streams+12
 277 00bc 18000000 		.word	_stm32_dma_streams+24
 278 00c0 24000000 		.word	_stm32_dma_streams+36
 279 00c4 30000000 		.word	_stm32_dma_streams+48
 280              		.cfi_endproc
 281              	.LFE64:
 282              		.size	spi_lld_init, .-spi_lld_init
 283 00c8 AFF30080 		.section	.rodata
 283      AFF30080 
 284              		.align	2
 285              	.LC0:
 286 0000 7370695F 		.ascii	"spi_lld_start(), #1\000"
 286      6C6C645F 
 286      73746172 
 286      7428292C 
 286      20233100 
 287              		.align	2
 288              	.LC1:
 289 0014 7370695F 		.ascii	"spi_lld_start(), #2\000"
 289      6C6C645F 
 289      73746172 
 289      7428292C 
 289      20233200 
 290              		.align	2
 291              	.LC2:
 292 0028 7370695F 		.ascii	"spi_lld_start(), #3\000"
 292      6C6C645F 
 292      73746172 
 292      7428292C 
 292      20233300 
 293              		.align	2
 294              	.LC3:
 295 003c 7370695F 		.ascii	"spi_lld_start(), #4\000"
 295      6C6C645F 
 295      73746172 
 295      7428292C 
 295      20233400 
 296              		.section	.text.spi_lld_start,"ax",%progbits
 297              		.align	2
 298              		.p2align 4,,15
 299              		.global	spi_lld_start
 300              		.thumb
 301              		.thumb_func
 302              		.type	spi_lld_start, %function
 303              	spi_lld_start:
 304              	.LFB65:
 305              		.loc 1 224 0
 306              		.cfi_startproc
 307              		@ args = 0, pretend = 0, frame = 16
 308              		@ frame_needed = 0, uses_anonymous_args = 0
 309 0000 00B5     		push	{lr}
 310              	.LCFI5:
ARM GAS  C:\Users\z80\AppData\Local\Temp\ccOsHSOe.s 			page 7


 311              		.cfi_def_cfa_offset 4
 312 0002 85B0     		sub	sp, sp, #20
 313              	.LCFI6:
 314              		.cfi_def_cfa_offset 24
 315 0004 0190     		str	r0, [sp, #4]
 316              		.loc 1 227 0
 317 0006 019B     		ldr	r3, [sp, #4]
 318 0008 1B78     		ldrb	r3, [r3, #0]	@ zero_extendqisi2
 319 000a 012B     		cmp	r3, #1
 320 000c 40F09680 		bne	.L12
 321              		.cfi_offset 14, -4
 322              		.loc 1 229 0
 323 0010 019A     		ldr	r2, [sp, #4]
 324 0012 40F20003 		movw	r3, #:lower16:SPID1
 325 0016 C0F20003 		movt	r3, #:upper16:SPID1
 326 001a 9A42     		cmp	r2, r3
 327 001c 3BD1     		bne	.L13
 328              	.LBB2:
 329              		.loc 1 231 0
 330 001e 019B     		ldr	r3, [sp, #4]
 331 0020 DA68     		ldr	r2, [r3, #12]
 332 0022 40F20003 		movw	r3, #:lower16:spi_lld_serve_rx_interrupt
 333 0026 C0F20003 		movt	r3, #:upper16:spi_lld_serve_rx_interrupt
 334 002a 1046     		mov	r0, r2
 335 002c 4FF00A01 		mov	r1, #10
 336 0030 1A46     		mov	r2, r3
 337 0032 019B     		ldr	r3, [sp, #4]
 338 0034 FFF7FEFF 		bl	dmaStreamAllocate
 339 0038 0346     		mov	r3, r0
 340 003a 0393     		str	r3, [sp, #12]
 341              		.loc 1 235 0
 342 003c 039B     		ldr	r3, [sp, #12]
 343 003e 002B     		cmp	r3, #0
 344 0040 05D0     		beq	.L14
 345              		.loc 1 235 0 is_stmt 0 discriminator 1
 346 0042 40F20000 		movw	r0, #:lower16:.LC0
 347 0046 C0F20000 		movt	r0, #:upper16:.LC0
 348 004a FFF7FEFF 		bl	chDbgPanic
 349              	.L14:
 350              		.loc 1 236 0 is_stmt 1
 351 004e 019B     		ldr	r3, [sp, #4]
 352 0050 1A69     		ldr	r2, [r3, #16]
 353 0052 40F20003 		movw	r3, #:lower16:spi_lld_serve_tx_interrupt
 354 0056 C0F20003 		movt	r3, #:upper16:spi_lld_serve_tx_interrupt
 355 005a 1046     		mov	r0, r2
 356 005c 4FF00A01 		mov	r1, #10
 357 0060 1A46     		mov	r2, r3
 358 0062 019B     		ldr	r3, [sp, #4]
 359 0064 FFF7FEFF 		bl	dmaStreamAllocate
 360 0068 0346     		mov	r3, r0
 361 006a 0393     		str	r3, [sp, #12]
 362              		.loc 1 240 0
 363 006c 039B     		ldr	r3, [sp, #12]
 364 006e 002B     		cmp	r3, #0
 365 0070 05D0     		beq	.L15
 366              		.loc 1 240 0 is_stmt 0 discriminator 1
 367 0072 40F20000 		movw	r0, #:lower16:.LC1
ARM GAS  C:\Users\z80\AppData\Local\Temp\ccOsHSOe.s 			page 8


 368 0076 C0F20000 		movt	r0, #:upper16:.LC1
 369 007a FFF7FEFF 		bl	chDbgPanic
 370              	.L15:
 371              		.loc 1 241 0 is_stmt 1
 372 007e 4FF48053 		mov	r3, #4096
 373 0082 C4F20203 		movt	r3, 16386
 374 0086 4FF48052 		mov	r2, #4096
 375 008a C4F20202 		movt	r2, 16386
 376 008e 9269     		ldr	r2, [r2, #24]
 377 0090 42F48052 		orr	r2, r2, #4096
 378 0094 9A61     		str	r2, [r3, #24]
 379              	.L13:
 380              	.LBE2:
 381              		.loc 1 245 0
 382 0096 019A     		ldr	r2, [sp, #4]
 383 0098 40F20003 		movw	r3, #:lower16:SPID2
 384 009c C0F20003 		movt	r3, #:upper16:SPID2
 385 00a0 9A42     		cmp	r2, r3
 386 00a2 3BD1     		bne	.L16
 387              	.LBB3:
 388              		.loc 1 247 0
 389 00a4 019B     		ldr	r3, [sp, #4]
 390 00a6 DA68     		ldr	r2, [r3, #12]
 391 00a8 40F20003 		movw	r3, #:lower16:spi_lld_serve_rx_interrupt
 392 00ac C0F20003 		movt	r3, #:upper16:spi_lld_serve_rx_interrupt
 393 00b0 1046     		mov	r0, r2
 394 00b2 4FF00A01 		mov	r1, #10
 395 00b6 1A46     		mov	r2, r3
 396 00b8 019B     		ldr	r3, [sp, #4]
 397 00ba FFF7FEFF 		bl	dmaStreamAllocate
 398 00be 0346     		mov	r3, r0
 399 00c0 0293     		str	r3, [sp, #8]
 400              		.loc 1 251 0
 401 00c2 029B     		ldr	r3, [sp, #8]
 402 00c4 002B     		cmp	r3, #0
 403 00c6 05D0     		beq	.L17
 404              		.loc 1 251 0 is_stmt 0 discriminator 1
 405 00c8 40F20000 		movw	r0, #:lower16:.LC2
 406 00cc C0F20000 		movt	r0, #:upper16:.LC2
 407 00d0 FFF7FEFF 		bl	chDbgPanic
 408              	.L17:
 409              		.loc 1 252 0 is_stmt 1
 410 00d4 019B     		ldr	r3, [sp, #4]
 411 00d6 1A69     		ldr	r2, [r3, #16]
 412 00d8 40F20003 		movw	r3, #:lower16:spi_lld_serve_tx_interrupt
 413 00dc C0F20003 		movt	r3, #:upper16:spi_lld_serve_tx_interrupt
 414 00e0 1046     		mov	r0, r2
 415 00e2 4FF00A01 		mov	r1, #10
 416 00e6 1A46     		mov	r2, r3
 417 00e8 019B     		ldr	r3, [sp, #4]
 418 00ea FFF7FEFF 		bl	dmaStreamAllocate
 419 00ee 0346     		mov	r3, r0
 420 00f0 0293     		str	r3, [sp, #8]
 421              		.loc 1 256 0
 422 00f2 029B     		ldr	r3, [sp, #8]
 423 00f4 002B     		cmp	r3, #0
 424 00f6 05D0     		beq	.L18
ARM GAS  C:\Users\z80\AppData\Local\Temp\ccOsHSOe.s 			page 9


 425              		.loc 1 256 0 is_stmt 0 discriminator 1
 426 00f8 40F20000 		movw	r0, #:lower16:.LC3
 427 00fc C0F20000 		movt	r0, #:upper16:.LC3
 428 0100 FFF7FEFF 		bl	chDbgPanic
 429              	.L18:
 430              		.loc 1 257 0 is_stmt 1
 431 0104 4FF48053 		mov	r3, #4096
 432 0108 C4F20203 		movt	r3, 16386
 433 010c 4FF48052 		mov	r2, #4096
 434 0110 C4F20202 		movt	r2, 16386
 435 0114 D269     		ldr	r2, [r2, #28]
 436 0116 42F48042 		orr	r2, r2, #16384
 437 011a DA61     		str	r2, [r3, #28]
 438              	.L16:
 439              	.LBE3:
 440              		.loc 1 278 0
 441 011c 019B     		ldr	r3, [sp, #4]
 442 011e DB68     		ldr	r3, [r3, #12]
 443 0120 1B68     		ldr	r3, [r3, #0]
 444 0122 019A     		ldr	r2, [sp, #4]
 445 0124 9268     		ldr	r2, [r2, #8]
 446 0126 02F10C02 		add	r2, r2, #12
 447 012a 9A60     		str	r2, [r3, #8]
 448              		.loc 1 279 0
 449 012c 019B     		ldr	r3, [sp, #4]
 450 012e 1B69     		ldr	r3, [r3, #16]
 451 0130 1B68     		ldr	r3, [r3, #0]
 452 0132 019A     		ldr	r2, [sp, #4]
 453 0134 9268     		ldr	r2, [r2, #8]
 454 0136 02F10C02 		add	r2, r2, #12
 455 013a 9A60     		str	r2, [r3, #8]
 456              	.L12:
 457              		.loc 1 283 0
 458 013c 019B     		ldr	r3, [sp, #4]
 459 013e 5B68     		ldr	r3, [r3, #4]
 460 0140 5B89     		ldrh	r3, [r3, #10]
 461 0142 03F40063 		and	r3, r3, #2048
 462 0146 002B     		cmp	r3, #0
 463 0148 0CD1     		bne	.L19
 464              		.loc 1 284 0
 465 014a 019B     		ldr	r3, [sp, #4]
 466 014c 5B69     		ldr	r3, [r3, #20]
 467              		.loc 1 285 0
 468 014e 23F44062 		bic	r2, r3, #3072
 469              		.loc 1 284 0
 470 0152 019B     		ldr	r3, [sp, #4]
 471 0154 5A61     		str	r2, [r3, #20]
 472              		.loc 1 286 0
 473 0156 019B     		ldr	r3, [sp, #4]
 474 0158 9B69     		ldr	r3, [r3, #24]
 475              		.loc 1 287 0
 476 015a 23F44062 		bic	r2, r3, #3072
 477              		.loc 1 286 0
 478 015e 019B     		ldr	r3, [sp, #4]
 479 0160 9A61     		str	r2, [r3, #24]
 480 0162 0FE0     		b	.L20
 481              	.L19:
ARM GAS  C:\Users\z80\AppData\Local\Temp\ccOsHSOe.s 			page 10


 482              		.loc 1 290 0
 483 0164 019B     		ldr	r3, [sp, #4]
 484 0166 5B69     		ldr	r3, [r3, #20]
 485 0168 23F45063 		bic	r3, r3, #3328
 486              		.loc 1 291 0
 487 016c 43F4A062 		orr	r2, r3, #1280
 488              		.loc 1 290 0
 489 0170 019B     		ldr	r3, [sp, #4]
 490 0172 5A61     		str	r2, [r3, #20]
 491              		.loc 1 292 0
 492 0174 019B     		ldr	r3, [sp, #4]
 493 0176 9B69     		ldr	r3, [r3, #24]
 494 0178 23F45063 		bic	r3, r3, #3328
 495              		.loc 1 293 0
 496 017c 43F4A062 		orr	r2, r3, #1280
 497              		.loc 1 292 0
 498 0180 019B     		ldr	r3, [sp, #4]
 499 0182 9A61     		str	r2, [r3, #24]
 500              	.L20:
 501              		.loc 1 296 0
 502 0184 019B     		ldr	r3, [sp, #4]
 503 0186 9B68     		ldr	r3, [r3, #8]
 504 0188 4FF00002 		mov	r2, #0
 505 018c 1A80     		strh	r2, [r3, #0]	@ movhi
 506              		.loc 1 297 0
 507 018e 019B     		ldr	r3, [sp, #4]
 508 0190 9B68     		ldr	r3, [r3, #8]
 509 0192 019A     		ldr	r2, [sp, #4]
 510 0194 5268     		ldr	r2, [r2, #4]
 511 0196 5289     		ldrh	r2, [r2, #10]
 512 0198 42F44172 		orr	r2, r2, #772
 513 019c 92B2     		uxth	r2, r2
 514 019e 1A80     		strh	r2, [r3, #0]	@ movhi
 515              		.loc 1 299 0
 516 01a0 019B     		ldr	r3, [sp, #4]
 517 01a2 9B68     		ldr	r3, [r3, #8]
 518 01a4 4FF00702 		mov	r2, #7
 519 01a8 9A80     		strh	r2, [r3, #4]	@ movhi
 520              		.loc 1 300 0
 521 01aa 019B     		ldr	r3, [sp, #4]
 522 01ac 9B68     		ldr	r3, [r3, #8]
 523 01ae 019A     		ldr	r2, [sp, #4]
 524 01b0 9268     		ldr	r2, [r2, #8]
 525 01b2 1288     		ldrh	r2, [r2, #0]	@ movhi
 526 01b4 92B2     		uxth	r2, r2
 527 01b6 42F04002 		orr	r2, r2, #64
 528 01ba 92B2     		uxth	r2, r2
 529 01bc 1A80     		strh	r2, [r3, #0]	@ movhi
 530              		.loc 1 301 0
 531 01be 05B0     		add	sp, sp, #20
 532 01c0 00BD     		pop	{pc}
 533              		.cfi_endproc
 534              	.LFE65:
 535              		.size	spi_lld_start, .-spi_lld_start
 536 01c2 00BFAFF3 		.section	.text.spi_lld_stop,"ax",%progbits
 536      0080AFF3 
 536      0080AFF3 
ARM GAS  C:\Users\z80\AppData\Local\Temp\ccOsHSOe.s 			page 11


 536      0080
 537              		.align	2
 538              		.p2align 4,,15
 539              		.global	spi_lld_stop
 540              		.thumb
 541              		.thumb_func
 542              		.type	spi_lld_stop, %function
 543              	spi_lld_stop:
 544              	.LFB66:
 545              		.loc 1 310 0
 546              		.cfi_startproc
 547              		@ args = 0, pretend = 0, frame = 8
 548              		@ frame_needed = 0, uses_anonymous_args = 0
 549 0000 00B5     		push	{lr}
 550              	.LCFI7:
 551              		.cfi_def_cfa_offset 4
 552 0002 83B0     		sub	sp, sp, #12
 553              	.LCFI8:
 554              		.cfi_def_cfa_offset 16
 555 0004 0190     		str	r0, [sp, #4]
 556              		.loc 1 313 0
 557 0006 019B     		ldr	r3, [sp, #4]
 558 0008 1B78     		ldrb	r3, [r3, #0]	@ zero_extendqisi2
 559 000a 022B     		cmp	r3, #2
 560 000c 34D1     		bne	.L21
 561              		.cfi_offset 14, -4
 562              		.loc 1 316 0
 563 000e 019B     		ldr	r3, [sp, #4]
 564 0010 9B68     		ldr	r3, [r3, #8]
 565 0012 4FF00002 		mov	r2, #0
 566 0016 1A80     		strh	r2, [r3, #0]	@ movhi
 567              		.loc 1 317 0
 568 0018 019B     		ldr	r3, [sp, #4]
 569 001a DB68     		ldr	r3, [r3, #12]
 570 001c 1846     		mov	r0, r3
 571 001e FFF7FEFF 		bl	dmaStreamRelease
 572              		.loc 1 318 0
 573 0022 019B     		ldr	r3, [sp, #4]
 574 0024 1B69     		ldr	r3, [r3, #16]
 575 0026 1846     		mov	r0, r3
 576 0028 FFF7FEFF 		bl	dmaStreamRelease
 577              		.loc 1 321 0
 578 002c 019A     		ldr	r2, [sp, #4]
 579 002e 40F20003 		movw	r3, #:lower16:SPID1
 580 0032 C0F20003 		movt	r3, #:upper16:SPID1
 581 0036 9A42     		cmp	r2, r3
 582 0038 0BD1     		bne	.L23
 583              		.loc 1 322 0
 584 003a 4FF48053 		mov	r3, #4096
 585 003e C4F20203 		movt	r3, 16386
 586 0042 4FF48052 		mov	r2, #4096
 587 0046 C4F20202 		movt	r2, 16386
 588 004a 9269     		ldr	r2, [r2, #24]
 589 004c 22F48052 		bic	r2, r2, #4096
 590 0050 9A61     		str	r2, [r3, #24]
 591              	.L23:
 592              		.loc 1 325 0
ARM GAS  C:\Users\z80\AppData\Local\Temp\ccOsHSOe.s 			page 12


 593 0052 019A     		ldr	r2, [sp, #4]
 594 0054 40F20003 		movw	r3, #:lower16:SPID2
 595 0058 C0F20003 		movt	r3, #:upper16:SPID2
 596 005c 9A42     		cmp	r2, r3
 597 005e 0BD1     		bne	.L21
 598              		.loc 1 326 0
 599 0060 4FF48053 		mov	r3, #4096
 600 0064 C4F20203 		movt	r3, 16386
 601 0068 4FF48052 		mov	r2, #4096
 602 006c C4F20202 		movt	r2, 16386
 603 0070 D269     		ldr	r2, [r2, #28]
 604 0072 22F48042 		bic	r2, r2, #16384
 605 0076 DA61     		str	r2, [r3, #28]
 606              	.L21:
 607              		.loc 1 333 0
 608 0078 03B0     		add	sp, sp, #12
 609 007a 00BD     		pop	{pc}
 610              		.cfi_endproc
 611              	.LFE66:
 612              		.size	spi_lld_stop, .-spi_lld_stop
 613 007c AFF30080 		.section	.text.spi_lld_select,"ax",%progbits
 614              		.align	2
 615              		.p2align 4,,15
 616              		.global	spi_lld_select
 617              		.thumb
 618              		.thumb_func
 619              		.type	spi_lld_select, %function
 620              	spi_lld_select:
 621              	.LFB67:
 622              		.loc 1 342 0
 623              		.cfi_startproc
 624              		@ args = 0, pretend = 0, frame = 8
 625              		@ frame_needed = 0, uses_anonymous_args = 0
 626              		@ link register save eliminated.
 627 0000 82B0     		sub	sp, sp, #8
 628              	.LCFI9:
 629              		.cfi_def_cfa_offset 8
 630 0002 0190     		str	r0, [sp, #4]
 631              		.loc 1 344 0
 632 0004 019B     		ldr	r3, [sp, #4]
 633 0006 5B68     		ldr	r3, [r3, #4]
 634 0008 5B68     		ldr	r3, [r3, #4]
 635 000a 019A     		ldr	r2, [sp, #4]
 636 000c 5268     		ldr	r2, [r2, #4]
 637 000e 1289     		ldrh	r2, [r2, #8]
 638 0010 4FF00101 		mov	r1, #1
 639 0014 01FA02F2 		lsl	r2, r1, r2
 640 0018 5A61     		str	r2, [r3, #20]
 641              		.loc 1 345 0
 642 001a 02B0     		add	sp, sp, #8
 643 001c 7047     		bx	lr
 644              		.cfi_endproc
 645              	.LFE67:
 646              		.size	spi_lld_select, .-spi_lld_select
 647 001e 00BF     		.section	.text.spi_lld_unselect,"ax",%progbits
 648              		.align	2
 649              		.p2align 4,,15
ARM GAS  C:\Users\z80\AppData\Local\Temp\ccOsHSOe.s 			page 13


 650              		.global	spi_lld_unselect
 651              		.thumb
 652              		.thumb_func
 653              		.type	spi_lld_unselect, %function
 654              	spi_lld_unselect:
 655              	.LFB68:
 656              		.loc 1 355 0
 657              		.cfi_startproc
 658              		@ args = 0, pretend = 0, frame = 8
 659              		@ frame_needed = 0, uses_anonymous_args = 0
 660              		@ link register save eliminated.
 661 0000 82B0     		sub	sp, sp, #8
 662              	.LCFI10:
 663              		.cfi_def_cfa_offset 8
 664 0002 0190     		str	r0, [sp, #4]
 665              		.loc 1 357 0
 666 0004 019B     		ldr	r3, [sp, #4]
 667 0006 5B68     		ldr	r3, [r3, #4]
 668 0008 5B68     		ldr	r3, [r3, #4]
 669 000a 019A     		ldr	r2, [sp, #4]
 670 000c 5268     		ldr	r2, [r2, #4]
 671 000e 1289     		ldrh	r2, [r2, #8]
 672 0010 4FF00101 		mov	r1, #1
 673 0014 01FA02F2 		lsl	r2, r1, r2
 674 0018 1A61     		str	r2, [r3, #16]
 675              		.loc 1 358 0
 676 001a 02B0     		add	sp, sp, #8
 677 001c 7047     		bx	lr
 678              		.cfi_endproc
 679              	.LFE68:
 680              		.size	spi_lld_unselect, .-spi_lld_unselect
 681 001e 00BF     		.section	.text.spi_lld_ignore,"ax",%progbits
 682              		.align	2
 683              		.p2align 4,,15
 684              		.global	spi_lld_ignore
 685              		.thumb
 686              		.thumb_func
 687              		.type	spi_lld_ignore, %function
 688              	spi_lld_ignore:
 689              	.LFB69:
 690              		.loc 1 371 0
 691              		.cfi_startproc
 692              		@ args = 0, pretend = 0, frame = 8
 693              		@ frame_needed = 0, uses_anonymous_args = 0
 694              		@ link register save eliminated.
 695 0000 82B0     		sub	sp, sp, #8
 696              	.LCFI11:
 697              		.cfi_def_cfa_offset 8
 698 0002 0190     		str	r0, [sp, #4]
 699 0004 0091     		str	r1, [sp, #0]
 700              		.loc 1 373 0
 701 0006 019B     		ldr	r3, [sp, #4]
 702 0008 DB68     		ldr	r3, [r3, #12]
 703 000a 1A68     		ldr	r2, [r3, #0]
 704 000c 40F20003 		movw	r3, #:lower16:dummyrx
 705 0010 C0F20003 		movt	r3, #:upper16:dummyrx
 706 0014 D360     		str	r3, [r2, #12]
ARM GAS  C:\Users\z80\AppData\Local\Temp\ccOsHSOe.s 			page 14


 707              		.loc 1 374 0
 708 0016 019B     		ldr	r3, [sp, #4]
 709 0018 DB68     		ldr	r3, [r3, #12]
 710 001a 1B68     		ldr	r3, [r3, #0]
 711 001c 009A     		ldr	r2, [sp, #0]
 712 001e 5A60     		str	r2, [r3, #4]
 713              		.loc 1 375 0
 714 0020 019B     		ldr	r3, [sp, #4]
 715 0022 DB68     		ldr	r3, [r3, #12]
 716 0024 1B68     		ldr	r3, [r3, #0]
 717 0026 019A     		ldr	r2, [sp, #4]
 718 0028 5269     		ldr	r2, [r2, #20]
 719 002a 1A60     		str	r2, [r3, #0]
 720              		.loc 1 377 0
 721 002c 019B     		ldr	r3, [sp, #4]
 722 002e 1B69     		ldr	r3, [r3, #16]
 723 0030 1A68     		ldr	r2, [r3, #0]
 724 0032 40F20003 		movw	r3, #:lower16:dummytx
 725 0036 C0F20003 		movt	r3, #:upper16:dummytx
 726 003a D360     		str	r3, [r2, #12]
 727              		.loc 1 378 0
 728 003c 019B     		ldr	r3, [sp, #4]
 729 003e 1B69     		ldr	r3, [r3, #16]
 730 0040 1B68     		ldr	r3, [r3, #0]
 731 0042 009A     		ldr	r2, [sp, #0]
 732 0044 5A60     		str	r2, [r3, #4]
 733              		.loc 1 379 0
 734 0046 019B     		ldr	r3, [sp, #4]
 735 0048 1B69     		ldr	r3, [r3, #16]
 736 004a 1B68     		ldr	r3, [r3, #0]
 737 004c 019A     		ldr	r2, [sp, #4]
 738 004e 9269     		ldr	r2, [r2, #24]
 739 0050 1A60     		str	r2, [r3, #0]
 740              		.loc 1 381 0
 741 0052 019B     		ldr	r3, [sp, #4]
 742 0054 DB68     		ldr	r3, [r3, #12]
 743 0056 1B68     		ldr	r3, [r3, #0]
 744 0058 019A     		ldr	r2, [sp, #4]
 745 005a D268     		ldr	r2, [r2, #12]
 746 005c 1268     		ldr	r2, [r2, #0]
 747 005e 1268     		ldr	r2, [r2, #0]
 748 0060 42F00102 		orr	r2, r2, #1
 749 0064 1A60     		str	r2, [r3, #0]
 750              		.loc 1 382 0
 751 0066 019B     		ldr	r3, [sp, #4]
 752 0068 1B69     		ldr	r3, [r3, #16]
 753 006a 1B68     		ldr	r3, [r3, #0]
 754 006c 019A     		ldr	r2, [sp, #4]
 755 006e 1269     		ldr	r2, [r2, #16]
 756 0070 1268     		ldr	r2, [r2, #0]
 757 0072 1268     		ldr	r2, [r2, #0]
 758 0074 42F00102 		orr	r2, r2, #1
 759 0078 1A60     		str	r2, [r3, #0]
 760              		.loc 1 383 0
 761 007a 02B0     		add	sp, sp, #8
 762 007c 7047     		bx	lr
 763              		.cfi_endproc
ARM GAS  C:\Users\z80\AppData\Local\Temp\ccOsHSOe.s 			page 15


 764              	.LFE69:
 765              		.size	spi_lld_ignore, .-spi_lld_ignore
 766 007e 00BF     		.section	.text.spi_lld_exchange,"ax",%progbits
 767              		.align	2
 768              		.p2align 4,,15
 769              		.global	spi_lld_exchange
 770              		.thumb
 771              		.thumb_func
 772              		.type	spi_lld_exchange, %function
 773              	spi_lld_exchange:
 774              	.LFB70:
 775              		.loc 1 401 0
 776              		.cfi_startproc
 777              		@ args = 0, pretend = 0, frame = 16
 778              		@ frame_needed = 0, uses_anonymous_args = 0
 779              		@ link register save eliminated.
 780 0000 84B0     		sub	sp, sp, #16
 781              	.LCFI12:
 782              		.cfi_def_cfa_offset 16
 783 0002 0390     		str	r0, [sp, #12]
 784 0004 0291     		str	r1, [sp, #8]
 785 0006 0192     		str	r2, [sp, #4]
 786 0008 0093     		str	r3, [sp, #0]
 787              		.loc 1 403 0
 788 000a 039B     		ldr	r3, [sp, #12]
 789 000c DB68     		ldr	r3, [r3, #12]
 790 000e 1B68     		ldr	r3, [r3, #0]
 791 0010 009A     		ldr	r2, [sp, #0]
 792 0012 DA60     		str	r2, [r3, #12]
 793              		.loc 1 404 0
 794 0014 039B     		ldr	r3, [sp, #12]
 795 0016 DB68     		ldr	r3, [r3, #12]
 796 0018 1B68     		ldr	r3, [r3, #0]
 797 001a 029A     		ldr	r2, [sp, #8]
 798 001c 5A60     		str	r2, [r3, #4]
 799              		.loc 1 405 0
 800 001e 039B     		ldr	r3, [sp, #12]
 801 0020 DB68     		ldr	r3, [r3, #12]
 802 0022 1B68     		ldr	r3, [r3, #0]
 803 0024 039A     		ldr	r2, [sp, #12]
 804 0026 5269     		ldr	r2, [r2, #20]
 805 0028 42F08002 		orr	r2, r2, #128
 806 002c 1A60     		str	r2, [r3, #0]
 807              		.loc 1 407 0
 808 002e 039B     		ldr	r3, [sp, #12]
 809 0030 1B69     		ldr	r3, [r3, #16]
 810 0032 1B68     		ldr	r3, [r3, #0]
 811 0034 019A     		ldr	r2, [sp, #4]
 812 0036 DA60     		str	r2, [r3, #12]
 813              		.loc 1 408 0
 814 0038 039B     		ldr	r3, [sp, #12]
 815 003a 1B69     		ldr	r3, [r3, #16]
 816 003c 1B68     		ldr	r3, [r3, #0]
 817 003e 029A     		ldr	r2, [sp, #8]
 818 0040 5A60     		str	r2, [r3, #4]
 819              		.loc 1 409 0
 820 0042 039B     		ldr	r3, [sp, #12]
ARM GAS  C:\Users\z80\AppData\Local\Temp\ccOsHSOe.s 			page 16


 821 0044 1B69     		ldr	r3, [r3, #16]
 822 0046 1B68     		ldr	r3, [r3, #0]
 823 0048 039A     		ldr	r2, [sp, #12]
 824 004a 9269     		ldr	r2, [r2, #24]
 825 004c 42F08002 		orr	r2, r2, #128
 826 0050 1A60     		str	r2, [r3, #0]
 827              		.loc 1 411 0
 828 0052 039B     		ldr	r3, [sp, #12]
 829 0054 DB68     		ldr	r3, [r3, #12]
 830 0056 1B68     		ldr	r3, [r3, #0]
 831 0058 039A     		ldr	r2, [sp, #12]
 832 005a D268     		ldr	r2, [r2, #12]
 833 005c 1268     		ldr	r2, [r2, #0]
 834 005e 1268     		ldr	r2, [r2, #0]
 835 0060 42F00102 		orr	r2, r2, #1
 836 0064 1A60     		str	r2, [r3, #0]
 837              		.loc 1 412 0
 838 0066 039B     		ldr	r3, [sp, #12]
 839 0068 1B69     		ldr	r3, [r3, #16]
 840 006a 1B68     		ldr	r3, [r3, #0]
 841 006c 039A     		ldr	r2, [sp, #12]
 842 006e 1269     		ldr	r2, [r2, #16]
 843 0070 1268     		ldr	r2, [r2, #0]
 844 0072 1268     		ldr	r2, [r2, #0]
 845 0074 42F00102 		orr	r2, r2, #1
 846 0078 1A60     		str	r2, [r3, #0]
 847              		.loc 1 413 0
 848 007a 04B0     		add	sp, sp, #16
 849 007c 7047     		bx	lr
 850              		.cfi_endproc
 851              	.LFE70:
 852              		.size	spi_lld_exchange, .-spi_lld_exchange
 853 007e 00BF     		.section	.text.spi_lld_send,"ax",%progbits
 854              		.align	2
 855              		.p2align 4,,15
 856              		.global	spi_lld_send
 857              		.thumb
 858              		.thumb_func
 859              		.type	spi_lld_send, %function
 860              	spi_lld_send:
 861              	.LFB71:
 862              		.loc 1 428 0
 863              		.cfi_startproc
 864              		@ args = 0, pretend = 0, frame = 16
 865              		@ frame_needed = 0, uses_anonymous_args = 0
 866              		@ link register save eliminated.
 867 0000 84B0     		sub	sp, sp, #16
 868              	.LCFI13:
 869              		.cfi_def_cfa_offset 16
 870 0002 0390     		str	r0, [sp, #12]
 871 0004 0291     		str	r1, [sp, #8]
 872 0006 0192     		str	r2, [sp, #4]
 873              		.loc 1 430 0
 874 0008 039B     		ldr	r3, [sp, #12]
 875 000a DB68     		ldr	r3, [r3, #12]
 876 000c 1A68     		ldr	r2, [r3, #0]
 877 000e 40F20003 		movw	r3, #:lower16:dummyrx
ARM GAS  C:\Users\z80\AppData\Local\Temp\ccOsHSOe.s 			page 17


 878 0012 C0F20003 		movt	r3, #:upper16:dummyrx
 879 0016 D360     		str	r3, [r2, #12]
 880              		.loc 1 431 0
 881 0018 039B     		ldr	r3, [sp, #12]
 882 001a DB68     		ldr	r3, [r3, #12]
 883 001c 1B68     		ldr	r3, [r3, #0]
 884 001e 029A     		ldr	r2, [sp, #8]
 885 0020 5A60     		str	r2, [r3, #4]
 886              		.loc 1 432 0
 887 0022 039B     		ldr	r3, [sp, #12]
 888 0024 DB68     		ldr	r3, [r3, #12]
 889 0026 1B68     		ldr	r3, [r3, #0]
 890 0028 039A     		ldr	r2, [sp, #12]
 891 002a 5269     		ldr	r2, [r2, #20]
 892 002c 1A60     		str	r2, [r3, #0]
 893              		.loc 1 434 0
 894 002e 039B     		ldr	r3, [sp, #12]
 895 0030 1B69     		ldr	r3, [r3, #16]
 896 0032 1B68     		ldr	r3, [r3, #0]
 897 0034 019A     		ldr	r2, [sp, #4]
 898 0036 DA60     		str	r2, [r3, #12]
 899              		.loc 1 435 0
 900 0038 039B     		ldr	r3, [sp, #12]
 901 003a 1B69     		ldr	r3, [r3, #16]
 902 003c 1B68     		ldr	r3, [r3, #0]
 903 003e 029A     		ldr	r2, [sp, #8]
 904 0040 5A60     		str	r2, [r3, #4]
 905              		.loc 1 436 0
 906 0042 039B     		ldr	r3, [sp, #12]
 907 0044 1B69     		ldr	r3, [r3, #16]
 908 0046 1B68     		ldr	r3, [r3, #0]
 909 0048 039A     		ldr	r2, [sp, #12]
 910 004a 9269     		ldr	r2, [r2, #24]
 911 004c 42F08002 		orr	r2, r2, #128
 912 0050 1A60     		str	r2, [r3, #0]
 913              		.loc 1 438 0
 914 0052 039B     		ldr	r3, [sp, #12]
 915 0054 DB68     		ldr	r3, [r3, #12]
 916 0056 1B68     		ldr	r3, [r3, #0]
 917 0058 039A     		ldr	r2, [sp, #12]
 918 005a D268     		ldr	r2, [r2, #12]
 919 005c 1268     		ldr	r2, [r2, #0]
 920 005e 1268     		ldr	r2, [r2, #0]
 921 0060 42F00102 		orr	r2, r2, #1
 922 0064 1A60     		str	r2, [r3, #0]
 923              		.loc 1 439 0
 924 0066 039B     		ldr	r3, [sp, #12]
 925 0068 1B69     		ldr	r3, [r3, #16]
 926 006a 1B68     		ldr	r3, [r3, #0]
 927 006c 039A     		ldr	r2, [sp, #12]
 928 006e 1269     		ldr	r2, [r2, #16]
 929 0070 1268     		ldr	r2, [r2, #0]
 930 0072 1268     		ldr	r2, [r2, #0]
 931 0074 42F00102 		orr	r2, r2, #1
 932 0078 1A60     		str	r2, [r3, #0]
 933              		.loc 1 440 0
 934 007a 04B0     		add	sp, sp, #16
ARM GAS  C:\Users\z80\AppData\Local\Temp\ccOsHSOe.s 			page 18


 935 007c 7047     		bx	lr
 936              		.cfi_endproc
 937              	.LFE71:
 938              		.size	spi_lld_send, .-spi_lld_send
 939 007e 00BF     		.section	.text.spi_lld_receive,"ax",%progbits
 940              		.align	2
 941              		.p2align 4,,15
 942              		.global	spi_lld_receive
 943              		.thumb
 944              		.thumb_func
 945              		.type	spi_lld_receive, %function
 946              	spi_lld_receive:
 947              	.LFB72:
 948              		.loc 1 455 0
 949              		.cfi_startproc
 950              		@ args = 0, pretend = 0, frame = 16
 951              		@ frame_needed = 0, uses_anonymous_args = 0
 952              		@ link register save eliminated.
 953 0000 84B0     		sub	sp, sp, #16
 954              	.LCFI14:
 955              		.cfi_def_cfa_offset 16
 956 0002 0390     		str	r0, [sp, #12]
 957 0004 0291     		str	r1, [sp, #8]
 958 0006 0192     		str	r2, [sp, #4]
 959              		.loc 1 457 0
 960 0008 039B     		ldr	r3, [sp, #12]
 961 000a DB68     		ldr	r3, [r3, #12]
 962 000c 1B68     		ldr	r3, [r3, #0]
 963 000e 019A     		ldr	r2, [sp, #4]
 964 0010 DA60     		str	r2, [r3, #12]
 965              		.loc 1 458 0
 966 0012 039B     		ldr	r3, [sp, #12]
 967 0014 DB68     		ldr	r3, [r3, #12]
 968 0016 1B68     		ldr	r3, [r3, #0]
 969 0018 029A     		ldr	r2, [sp, #8]
 970 001a 5A60     		str	r2, [r3, #4]
 971              		.loc 1 459 0
 972 001c 039B     		ldr	r3, [sp, #12]
 973 001e DB68     		ldr	r3, [r3, #12]
 974 0020 1B68     		ldr	r3, [r3, #0]
 975 0022 039A     		ldr	r2, [sp, #12]
 976 0024 5269     		ldr	r2, [r2, #20]
 977 0026 42F08002 		orr	r2, r2, #128
 978 002a 1A60     		str	r2, [r3, #0]
 979              		.loc 1 461 0
 980 002c 039B     		ldr	r3, [sp, #12]
 981 002e 1B69     		ldr	r3, [r3, #16]
 982 0030 1A68     		ldr	r2, [r3, #0]
 983 0032 40F20003 		movw	r3, #:lower16:dummytx
 984 0036 C0F20003 		movt	r3, #:upper16:dummytx
 985 003a D360     		str	r3, [r2, #12]
 986              		.loc 1 462 0
 987 003c 039B     		ldr	r3, [sp, #12]
 988 003e 1B69     		ldr	r3, [r3, #16]
 989 0040 1B68     		ldr	r3, [r3, #0]
 990 0042 029A     		ldr	r2, [sp, #8]
 991 0044 5A60     		str	r2, [r3, #4]
ARM GAS  C:\Users\z80\AppData\Local\Temp\ccOsHSOe.s 			page 19


 992              		.loc 1 463 0
 993 0046 039B     		ldr	r3, [sp, #12]
 994 0048 1B69     		ldr	r3, [r3, #16]
 995 004a 1B68     		ldr	r3, [r3, #0]
 996 004c 039A     		ldr	r2, [sp, #12]
 997 004e 9269     		ldr	r2, [r2, #24]
 998 0050 1A60     		str	r2, [r3, #0]
 999              		.loc 1 465 0
 1000 0052 039B     		ldr	r3, [sp, #12]
 1001 0054 DB68     		ldr	r3, [r3, #12]
 1002 0056 1B68     		ldr	r3, [r3, #0]
 1003 0058 039A     		ldr	r2, [sp, #12]
 1004 005a D268     		ldr	r2, [r2, #12]
 1005 005c 1268     		ldr	r2, [r2, #0]
 1006 005e 1268     		ldr	r2, [r2, #0]
 1007 0060 42F00102 		orr	r2, r2, #1
 1008 0064 1A60     		str	r2, [r3, #0]
 1009              		.loc 1 466 0
 1010 0066 039B     		ldr	r3, [sp, #12]
 1011 0068 1B69     		ldr	r3, [r3, #16]
 1012 006a 1B68     		ldr	r3, [r3, #0]
 1013 006c 039A     		ldr	r2, [sp, #12]
 1014 006e 1269     		ldr	r2, [r2, #16]
 1015 0070 1268     		ldr	r2, [r2, #0]
 1016 0072 1268     		ldr	r2, [r2, #0]
 1017 0074 42F00102 		orr	r2, r2, #1
 1018 0078 1A60     		str	r2, [r3, #0]
 1019              		.loc 1 467 0
 1020 007a 04B0     		add	sp, sp, #16
 1021 007c 7047     		bx	lr
 1022              		.cfi_endproc
 1023              	.LFE72:
 1024              		.size	spi_lld_receive, .-spi_lld_receive
 1025 007e 00BF     		.section	.text.spi_lld_polled_exchange,"ax",%progbits
 1026              		.align	2
 1027              		.p2align 4,,15
 1028              		.global	spi_lld_polled_exchange
 1029              		.thumb
 1030              		.thumb_func
 1031              		.type	spi_lld_polled_exchange, %function
 1032              	spi_lld_polled_exchange:
 1033              	.LFB73:
 1034              		.loc 1 481 0
 1035              		.cfi_startproc
 1036              		@ args = 0, pretend = 0, frame = 8
 1037              		@ frame_needed = 0, uses_anonymous_args = 0
 1038              		@ link register save eliminated.
 1039 0000 82B0     		sub	sp, sp, #8
 1040              	.LCFI15:
 1041              		.cfi_def_cfa_offset 8
 1042 0002 0190     		str	r0, [sp, #4]
 1043 0004 0B46     		mov	r3, r1
 1044 0006 ADF80230 		strh	r3, [sp, #2]	@ movhi
 1045              		.loc 1 483 0
 1046 000a 019B     		ldr	r3, [sp, #4]
 1047 000c 9B68     		ldr	r3, [r3, #8]
 1048 000e BDF80220 		ldrh	r2, [sp, #2]	@ movhi
ARM GAS  C:\Users\z80\AppData\Local\Temp\ccOsHSOe.s 			page 20


 1049 0012 9A81     		strh	r2, [r3, #12]	@ movhi
 1050              		.loc 1 484 0
 1051 0014 00BF     		nop
 1052              	.L31:
 1053              		.loc 1 484 0 is_stmt 0 discriminator 1
 1054 0016 019B     		ldr	r3, [sp, #4]
 1055 0018 9B68     		ldr	r3, [r3, #8]
 1056 001a 1B89     		ldrh	r3, [r3, #8]	@ movhi
 1057 001c 9BB2     		uxth	r3, r3
 1058 001e 03F00103 		and	r3, r3, #1
 1059 0022 002B     		cmp	r3, #0
 1060 0024 F7D0     		beq	.L31
 1061              		.loc 1 486 0 is_stmt 1
 1062 0026 019B     		ldr	r3, [sp, #4]
 1063 0028 9B68     		ldr	r3, [r3, #8]
 1064 002a 9B89     		ldrh	r3, [r3, #12]	@ movhi
 1065 002c 9BB2     		uxth	r3, r3
 1066              		.loc 1 487 0
 1067 002e 1846     		mov	r0, r3
 1068 0030 02B0     		add	sp, sp, #8
 1069 0032 7047     		bx	lr
 1070              		.cfi_endproc
 1071              	.LFE73:
 1072              		.size	spi_lld_polled_exchange, .-spi_lld_polled_exchange
 1073 0034 AFF30080 		.text
 1073      AFF30080 
 1073      AFF30080 
 1074              	.Letext0:
 1075              		.section	.debug_loc,"",%progbits
 1076              	.Ldebug_loc0:
 1077              	.LLST0:
 1078 0000 00000000 		.4byte	.LFB62
 1079 0004 02000000 		.4byte	.LCFI0
 1080 0008 0200     		.2byte	0x2
 1081 000a 7D       		.byte	0x7d
 1082 000b 00       		.sleb128 0
 1083 000c 02000000 		.4byte	.LCFI0
 1084 0010 04000000 		.4byte	.LCFI1
 1085 0014 0200     		.2byte	0x2
 1086 0016 7D       		.byte	0x7d
 1087 0017 04       		.sleb128 4
 1088 0018 04000000 		.4byte	.LCFI1
 1089 001c A4000000 		.4byte	.LFE62
 1090 0020 0200     		.2byte	0x2
 1091 0022 7D       		.byte	0x7d
 1092 0023 10       		.sleb128 16
 1093 0024 00000000 		.4byte	0x0
 1094 0028 00000000 		.4byte	0x0
 1095              	.LLST1:
 1096 002c 00000000 		.4byte	.LFB63
 1097 0030 02000000 		.4byte	.LCFI2
 1098 0034 0200     		.2byte	0x2
 1099 0036 7D       		.byte	0x7d
 1100 0037 00       		.sleb128 0
 1101 0038 02000000 		.4byte	.LCFI2
 1102 003c 04000000 		.4byte	.LCFI3
 1103 0040 0200     		.2byte	0x2
ARM GAS  C:\Users\z80\AppData\Local\Temp\ccOsHSOe.s 			page 21


 1104 0042 7D       		.byte	0x7d
 1105 0043 04       		.sleb128 4
 1106 0044 04000000 		.4byte	.LCFI3
 1107 0048 1A000000 		.4byte	.LFE63
 1108 004c 0200     		.2byte	0x2
 1109 004e 7D       		.byte	0x7d
 1110 004f 10       		.sleb128 16
 1111 0050 00000000 		.4byte	0x0
 1112 0054 00000000 		.4byte	0x0
 1113              	.LLST2:
 1114 0058 00000000 		.4byte	.LFB64
 1115 005c 02000000 		.4byte	.LCFI4
 1116 0060 0200     		.2byte	0x2
 1117 0062 7D       		.byte	0x7d
 1118 0063 00       		.sleb128 0
 1119 0064 02000000 		.4byte	.LCFI4
 1120 0068 C8000000 		.4byte	.LFE64
 1121 006c 0200     		.2byte	0x2
 1122 006e 7D       		.byte	0x7d
 1123 006f 08       		.sleb128 8
 1124 0070 00000000 		.4byte	0x0
 1125 0074 00000000 		.4byte	0x0
 1126              	.LLST3:
 1127 0078 00000000 		.4byte	.LFB65
 1128 007c 02000000 		.4byte	.LCFI5
 1129 0080 0200     		.2byte	0x2
 1130 0082 7D       		.byte	0x7d
 1131 0083 00       		.sleb128 0
 1132 0084 02000000 		.4byte	.LCFI5
 1133 0088 04000000 		.4byte	.LCFI6
 1134 008c 0200     		.2byte	0x2
 1135 008e 7D       		.byte	0x7d
 1136 008f 04       		.sleb128 4
 1137 0090 04000000 		.4byte	.LCFI6
 1138 0094 C2010000 		.4byte	.LFE65
 1139 0098 0200     		.2byte	0x2
 1140 009a 7D       		.byte	0x7d
 1141 009b 18       		.sleb128 24
 1142 009c 00000000 		.4byte	0x0
 1143 00a0 00000000 		.4byte	0x0
 1144              	.LLST4:
 1145 00a4 00000000 		.4byte	.LFB66
 1146 00a8 02000000 		.4byte	.LCFI7
 1147 00ac 0200     		.2byte	0x2
 1148 00ae 7D       		.byte	0x7d
 1149 00af 00       		.sleb128 0
 1150 00b0 02000000 		.4byte	.LCFI7
 1151 00b4 04000000 		.4byte	.LCFI8
 1152 00b8 0200     		.2byte	0x2
 1153 00ba 7D       		.byte	0x7d
 1154 00bb 04       		.sleb128 4
 1155 00bc 04000000 		.4byte	.LCFI8
 1156 00c0 7C000000 		.4byte	.LFE66
 1157 00c4 0200     		.2byte	0x2
 1158 00c6 7D       		.byte	0x7d
 1159 00c7 10       		.sleb128 16
 1160 00c8 00000000 		.4byte	0x0
ARM GAS  C:\Users\z80\AppData\Local\Temp\ccOsHSOe.s 			page 22


 1161 00cc 00000000 		.4byte	0x0
 1162              	.LLST5:
 1163 00d0 00000000 		.4byte	.LFB67
 1164 00d4 02000000 		.4byte	.LCFI9
 1165 00d8 0200     		.2byte	0x2
 1166 00da 7D       		.byte	0x7d
 1167 00db 00       		.sleb128 0
 1168 00dc 02000000 		.4byte	.LCFI9
 1169 00e0 1E000000 		.4byte	.LFE67
 1170 00e4 0200     		.2byte	0x2
 1171 00e6 7D       		.byte	0x7d
 1172 00e7 08       		.sleb128 8
 1173 00e8 00000000 		.4byte	0x0
 1174 00ec 00000000 		.4byte	0x0
 1175              	.LLST6:
 1176 00f0 00000000 		.4byte	.LFB68
 1177 00f4 02000000 		.4byte	.LCFI10
 1178 00f8 0200     		.2byte	0x2
 1179 00fa 7D       		.byte	0x7d
 1180 00fb 00       		.sleb128 0
 1181 00fc 02000000 		.4byte	.LCFI10
 1182 0100 1E000000 		.4byte	.LFE68
 1183 0104 0200     		.2byte	0x2
 1184 0106 7D       		.byte	0x7d
 1185 0107 08       		.sleb128 8
 1186 0108 00000000 		.4byte	0x0
 1187 010c 00000000 		.4byte	0x0
 1188              	.LLST7:
 1189 0110 00000000 		.4byte	.LFB69
 1190 0114 02000000 		.4byte	.LCFI11
 1191 0118 0200     		.2byte	0x2
 1192 011a 7D       		.byte	0x7d
 1193 011b 00       		.sleb128 0
 1194 011c 02000000 		.4byte	.LCFI11
 1195 0120 7E000000 		.4byte	.LFE69
 1196 0124 0200     		.2byte	0x2
 1197 0126 7D       		.byte	0x7d
 1198 0127 08       		.sleb128 8
 1199 0128 00000000 		.4byte	0x0
 1200 012c 00000000 		.4byte	0x0
 1201              	.LLST8:
 1202 0130 00000000 		.4byte	.LFB70
 1203 0134 02000000 		.4byte	.LCFI12
 1204 0138 0200     		.2byte	0x2
 1205 013a 7D       		.byte	0x7d
 1206 013b 00       		.sleb128 0
 1207 013c 02000000 		.4byte	.LCFI12
 1208 0140 7E000000 		.4byte	.LFE70
 1209 0144 0200     		.2byte	0x2
 1210 0146 7D       		.byte	0x7d
 1211 0147 10       		.sleb128 16
 1212 0148 00000000 		.4byte	0x0
 1213 014c 00000000 		.4byte	0x0
 1214              	.LLST9:
 1215 0150 00000000 		.4byte	.LFB71
 1216 0154 02000000 		.4byte	.LCFI13
 1217 0158 0200     		.2byte	0x2
ARM GAS  C:\Users\z80\AppData\Local\Temp\ccOsHSOe.s 			page 23


 1218 015a 7D       		.byte	0x7d
 1219 015b 00       		.sleb128 0
 1220 015c 02000000 		.4byte	.LCFI13
 1221 0160 7E000000 		.4byte	.LFE71
 1222 0164 0200     		.2byte	0x2
 1223 0166 7D       		.byte	0x7d
 1224 0167 10       		.sleb128 16
 1225 0168 00000000 		.4byte	0x0
 1226 016c 00000000 		.4byte	0x0
 1227              	.LLST10:
 1228 0170 00000000 		.4byte	.LFB72
 1229 0174 02000000 		.4byte	.LCFI14
 1230 0178 0200     		.2byte	0x2
 1231 017a 7D       		.byte	0x7d
 1232 017b 00       		.sleb128 0
 1233 017c 02000000 		.4byte	.LCFI14
 1234 0180 7E000000 		.4byte	.LFE72
 1235 0184 0200     		.2byte	0x2
 1236 0186 7D       		.byte	0x7d
 1237 0187 10       		.sleb128 16
 1238 0188 00000000 		.4byte	0x0
 1239 018c 00000000 		.4byte	0x0
 1240              	.LLST11:
 1241 0190 00000000 		.4byte	.LFB73
 1242 0194 02000000 		.4byte	.LCFI15
 1243 0198 0200     		.2byte	0x2
 1244 019a 7D       		.byte	0x7d
 1245 019b 00       		.sleb128 0
 1246 019c 02000000 		.4byte	.LCFI15
 1247 01a0 34000000 		.4byte	.LFE73
 1248 01a4 0200     		.2byte	0x2
 1249 01a6 7D       		.byte	0x7d
 1250 01a7 08       		.sleb128 8
 1251 01a8 00000000 		.4byte	0x0
 1252 01ac 00000000 		.4byte	0x0
 1253              		.file 2 "c:\\programs\\yagarto\\bin\\../lib/gcc/arm-none-eabi/4.5.0/include/stddef.h"
 1254              		.file 3 "c:/programs/yagarto/lib/gcc/../../arm-none-eabi/sys-include/stdint.h"
 1255              		.file 4 "../chibios_2.4.x/os/ports/GCC/ARMCMx/chtypes.h"
 1256              		.file 5 "../chibios_2.4.x/os/hal/platforms/STM32F1xx/stm32f10x.h"
 1257              		.file 6 "../chibios_2.4.x/os/hal/platforms/STM32F1xx/stm32_dma.h"
 1258              		.file 7 "../chibios_2.4.x/os/hal/platforms/STM32/GPIOv1/pal_lld.h"
 1259              		.file 8 "../chibios_2.4.x/os/hal/include/spi.h"
 1260              		.file 9 "../chibios_2.4.x/os/hal/platforms/STM32/spi_lld.h"
 1261              		.file 10 "../chibios_2.4.x/os/ports/common/ARMCMx/CMSIS/include/core_cm3.h"
 1262              		.section	.debug_info
 1263 0000 B7080000 		.4byte	0x8b7
 1264 0004 0200     		.2byte	0x2
 1265 0006 00000000 		.4byte	.Ldebug_abbrev0
 1266 000a 04       		.byte	0x4
 1267 000b 01       		.uleb128 0x1
 1268 000c 97030000 		.4byte	.LASF94
 1269 0010 01       		.byte	0x1
 1270 0011 94000000 		.4byte	.LASF95
 1271 0015 51030000 		.4byte	.LASF96
 1272 0019 00000000 		.4byte	0x0
 1273 001d 00000000 		.4byte	0x0
 1274 0021 00000000 		.4byte	.Ldebug_ranges0+0x0
ARM GAS  C:\Users\z80\AppData\Local\Temp\ccOsHSOe.s 			page 24


 1275 0025 00000000 		.4byte	.Ldebug_line0
 1276 0029 02       		.uleb128 0x2
 1277 002a 04       		.byte	0x4
 1278 002b 05       		.byte	0x5
 1279 002c 696E7400 		.ascii	"int\000"
 1280 0030 03       		.uleb128 0x3
 1281 0031 4C000000 		.4byte	.LASF2
 1282 0035 02       		.byte	0x2
 1283 0036 D3       		.byte	0xd3
 1284 0037 3B000000 		.4byte	0x3b
 1285 003b 04       		.uleb128 0x4
 1286 003c 04       		.byte	0x4
 1287 003d 07       		.byte	0x7
 1288 003e EE010000 		.4byte	.LASF0
 1289 0042 04       		.uleb128 0x4
 1290 0043 01       		.byte	0x1
 1291 0044 06       		.byte	0x6
 1292 0045 1D010000 		.4byte	.LASF1
 1293 0049 03       		.uleb128 0x3
 1294 004a EF000000 		.4byte	.LASF3
 1295 004e 03       		.byte	0x3
 1296 004f 2A       		.byte	0x2a
 1297 0050 54000000 		.4byte	0x54
 1298 0054 04       		.uleb128 0x4
 1299 0055 01       		.byte	0x1
 1300 0056 08       		.byte	0x8
 1301 0057 9D010000 		.4byte	.LASF4
 1302 005b 04       		.uleb128 0x4
 1303 005c 02       		.byte	0x2
 1304 005d 05       		.byte	0x5
 1305 005e 42000000 		.4byte	.LASF5
 1306 0062 03       		.uleb128 0x3
 1307 0063 83020000 		.4byte	.LASF6
 1308 0067 03       		.byte	0x3
 1309 0068 36       		.byte	0x36
 1310 0069 6D000000 		.4byte	0x6d
 1311 006d 04       		.uleb128 0x4
 1312 006e 02       		.byte	0x2
 1313 006f 07       		.byte	0x7
 1314 0070 3B040000 		.4byte	.LASF7
 1315 0074 03       		.uleb128 0x3
 1316 0075 8C020000 		.4byte	.LASF8
 1317 0079 03       		.byte	0x3
 1318 007a 4F       		.byte	0x4f
 1319 007b 7F000000 		.4byte	0x7f
 1320 007f 04       		.uleb128 0x4
 1321 0080 04       		.byte	0x4
 1322 0081 05       		.byte	0x5
 1323 0082 41010000 		.4byte	.LASF9
 1324 0086 03       		.uleb128 0x3
 1325 0087 D5010000 		.4byte	.LASF10
 1326 008b 03       		.byte	0x3
 1327 008c 50       		.byte	0x50
 1328 008d 91000000 		.4byte	0x91
 1329 0091 04       		.uleb128 0x4
 1330 0092 04       		.byte	0x4
 1331 0093 07       		.byte	0x7
ARM GAS  C:\Users\z80\AppData\Local\Temp\ccOsHSOe.s 			page 25


 1332 0094 06020000 		.4byte	.LASF11
 1333 0098 04       		.uleb128 0x4
 1334 0099 08       		.byte	0x8
 1335 009a 05       		.byte	0x5
 1336 009b 33010000 		.4byte	.LASF12
 1337 009f 04       		.uleb128 0x4
 1338 00a0 08       		.byte	0x8
 1339 00a1 07       		.byte	0x7
 1340 00a2 BE010000 		.4byte	.LASF13
 1341 00a6 03       		.uleb128 0x3
 1342 00a7 94020000 		.4byte	.LASF14
 1343 00ab 04       		.byte	0x4
 1344 00ac 2E       		.byte	0x2e
 1345 00ad 74000000 		.4byte	0x74
 1346 00b1 05       		.uleb128 0x5
 1347 00b2 04       		.byte	0x4
 1348 00b3 06       		.uleb128 0x6
 1349 00b4 86000000 		.4byte	0x86
 1350 00b8 07       		.uleb128 0x7
 1351 00b9 04       		.byte	0x4
 1352 00ba 07       		.byte	0x7
 1353 00bb 04       		.uleb128 0x4
 1354 00bc 01       		.byte	0x1
 1355 00bd 08       		.byte	0x8
 1356 00be 7E020000 		.4byte	.LASF15
 1357 00c2 06       		.uleb128 0x6
 1358 00c3 62000000 		.4byte	0x62
 1359 00c7 06       		.uleb128 0x6
 1360 00c8 74000000 		.4byte	0x74
 1361 00cc 08       		.uleb128 0x8
 1362 00cd 10       		.byte	0x10
 1363 00ce 05       		.byte	0x5
 1364 00cf 2D03     		.2byte	0x32d
 1365 00d1 12010000 		.4byte	0x112
 1366 00d5 09       		.uleb128 0x9
 1367 00d6 43435200 		.ascii	"CCR\000"
 1368 00da 05       		.byte	0x5
 1369 00db 2F03     		.2byte	0x32f
 1370 00dd B3000000 		.4byte	0xb3
 1371 00e1 02       		.byte	0x2
 1372 00e2 23       		.byte	0x23
 1373 00e3 00       		.uleb128 0x0
 1374 00e4 0A       		.uleb128 0xa
 1375 00e5 78020000 		.4byte	.LASF16
 1376 00e9 05       		.byte	0x5
 1377 00ea 3003     		.2byte	0x330
 1378 00ec B3000000 		.4byte	0xb3
 1379 00f0 02       		.byte	0x2
 1380 00f1 23       		.byte	0x23
 1381 00f2 04       		.uleb128 0x4
 1382 00f3 0A       		.uleb128 0xa
 1383 00f4 7E010000 		.4byte	.LASF17
 1384 00f8 05       		.byte	0x5
 1385 00f9 3103     		.2byte	0x331
 1386 00fb B3000000 		.4byte	0xb3
 1387 00ff 02       		.byte	0x2
 1388 0100 23       		.byte	0x23
ARM GAS  C:\Users\z80\AppData\Local\Temp\ccOsHSOe.s 			page 26


 1389 0101 08       		.uleb128 0x8
 1390 0102 0A       		.uleb128 0xa
 1391 0103 A3030000 		.4byte	.LASF18
 1392 0107 05       		.byte	0x5
 1393 0108 3203     		.2byte	0x332
 1394 010a B3000000 		.4byte	0xb3
 1395 010e 02       		.byte	0x2
 1396 010f 23       		.byte	0x23
 1397 0110 0C       		.uleb128 0xc
 1398 0111 00       		.byte	0x0
 1399 0112 0B       		.uleb128 0xb
 1400 0113 4B020000 		.4byte	.LASF19
 1401 0117 05       		.byte	0x5
 1402 0118 3303     		.2byte	0x333
 1403 011a CC000000 		.4byte	0xcc
 1404 011e 08       		.uleb128 0x8
 1405 011f 1C       		.byte	0x1c
 1406 0120 05       		.byte	0x5
 1407 0121 F803     		.2byte	0x3f8
 1408 0123 91010000 		.4byte	0x191
 1409 0127 09       		.uleb128 0x9
 1410 0128 43524C00 		.ascii	"CRL\000"
 1411 012c 05       		.byte	0x5
 1412 012d FA03     		.2byte	0x3fa
 1413 012f B3000000 		.4byte	0xb3
 1414 0133 02       		.byte	0x2
 1415 0134 23       		.byte	0x23
 1416 0135 00       		.uleb128 0x0
 1417 0136 09       		.uleb128 0x9
 1418 0137 43524800 		.ascii	"CRH\000"
 1419 013b 05       		.byte	0x5
 1420 013c FB03     		.2byte	0x3fb
 1421 013e B3000000 		.4byte	0xb3
 1422 0142 02       		.byte	0x2
 1423 0143 23       		.byte	0x23
 1424 0144 04       		.uleb128 0x4
 1425 0145 09       		.uleb128 0x9
 1426 0146 49445200 		.ascii	"IDR\000"
 1427 014a 05       		.byte	0x5
 1428 014b FC03     		.2byte	0x3fc
 1429 014d B3000000 		.4byte	0xb3
 1430 0151 02       		.byte	0x2
 1431 0152 23       		.byte	0x23
 1432 0153 08       		.uleb128 0x8
 1433 0154 09       		.uleb128 0x9
 1434 0155 4F445200 		.ascii	"ODR\000"
 1435 0159 05       		.byte	0x5
 1436 015a FD03     		.2byte	0x3fd
 1437 015c B3000000 		.4byte	0xb3
 1438 0160 02       		.byte	0x2
 1439 0161 23       		.byte	0x23
 1440 0162 0C       		.uleb128 0xc
 1441 0163 0A       		.uleb128 0xa
 1442 0164 52010000 		.4byte	.LASF20
 1443 0168 05       		.byte	0x5
 1444 0169 FE03     		.2byte	0x3fe
 1445 016b B3000000 		.4byte	0xb3
ARM GAS  C:\Users\z80\AppData\Local\Temp\ccOsHSOe.s 			page 27


 1446 016f 02       		.byte	0x2
 1447 0170 23       		.byte	0x23
 1448 0171 10       		.uleb128 0x10
 1449 0172 09       		.uleb128 0x9
 1450 0173 42525200 		.ascii	"BRR\000"
 1451 0177 05       		.byte	0x5
 1452 0178 FF03     		.2byte	0x3ff
 1453 017a B3000000 		.4byte	0xb3
 1454 017e 02       		.byte	0x2
 1455 017f 23       		.byte	0x23
 1456 0180 14       		.uleb128 0x14
 1457 0181 0A       		.uleb128 0xa
 1458 0182 36040000 		.4byte	.LASF21
 1459 0186 05       		.byte	0x5
 1460 0187 0004     		.2byte	0x400
 1461 0189 B3000000 		.4byte	0xb3
 1462 018d 02       		.byte	0x2
 1463 018e 23       		.byte	0x23
 1464 018f 18       		.uleb128 0x18
 1465 0190 00       		.byte	0x0
 1466 0191 0B       		.uleb128 0xb
 1467 0192 00000000 		.4byte	.LASF22
 1468 0196 05       		.byte	0x5
 1469 0197 0104     		.2byte	0x401
 1470 0199 1E010000 		.4byte	0x11e
 1471 019d 08       		.uleb128 0x8
 1472 019e 28       		.byte	0x28
 1473 019f 05       		.byte	0x5
 1474 01a0 4304     		.2byte	0x443
 1475 01a2 3C020000 		.4byte	0x23c
 1476 01a6 09       		.uleb128 0x9
 1477 01a7 435200   		.ascii	"CR\000"
 1478 01aa 05       		.byte	0x5
 1479 01ab 4504     		.2byte	0x445
 1480 01ad B3000000 		.4byte	0xb3
 1481 01b1 02       		.byte	0x2
 1482 01b2 23       		.byte	0x23
 1483 01b3 00       		.uleb128 0x0
 1484 01b4 0A       		.uleb128 0xa
 1485 01b5 CD000000 		.4byte	.LASF23
 1486 01b9 05       		.byte	0x5
 1487 01ba 4604     		.2byte	0x446
 1488 01bc B3000000 		.4byte	0xb3
 1489 01c0 02       		.byte	0x2
 1490 01c1 23       		.byte	0x23
 1491 01c2 04       		.uleb128 0x4
 1492 01c3 09       		.uleb128 0x9
 1493 01c4 43495200 		.ascii	"CIR\000"
 1494 01c8 05       		.byte	0x5
 1495 01c9 4704     		.2byte	0x447
 1496 01cb B3000000 		.4byte	0xb3
 1497 01cf 02       		.byte	0x2
 1498 01d0 23       		.byte	0x23
 1499 01d1 08       		.uleb128 0x8
 1500 01d2 0A       		.uleb128 0xa
 1501 01d3 67010000 		.4byte	.LASF24
 1502 01d7 05       		.byte	0x5
ARM GAS  C:\Users\z80\AppData\Local\Temp\ccOsHSOe.s 			page 28


 1503 01d8 4804     		.2byte	0x448
 1504 01da B3000000 		.4byte	0xb3
 1505 01de 02       		.byte	0x2
 1506 01df 23       		.byte	0x23
 1507 01e0 0C       		.uleb128 0xc
 1508 01e1 0A       		.uleb128 0xa
 1509 01e2 5E010000 		.4byte	.LASF25
 1510 01e6 05       		.byte	0x5
 1511 01e7 4904     		.2byte	0x449
 1512 01e9 B3000000 		.4byte	0xb3
 1513 01ed 02       		.byte	0x2
 1514 01ee 23       		.byte	0x23
 1515 01ef 10       		.uleb128 0x10
 1516 01f0 0A       		.uleb128 0xa
 1517 01f1 57010000 		.4byte	.LASF26
 1518 01f5 05       		.byte	0x5
 1519 01f6 4A04     		.2byte	0x44a
 1520 01f8 B3000000 		.4byte	0xb3
 1521 01fc 02       		.byte	0x2
 1522 01fd 23       		.byte	0x23
 1523 01fe 14       		.uleb128 0x14
 1524 01ff 0A       		.uleb128 0xa
 1525 0200 B0010000 		.4byte	.LASF27
 1526 0204 05       		.byte	0x5
 1527 0205 4B04     		.2byte	0x44b
 1528 0207 B3000000 		.4byte	0xb3
 1529 020b 02       		.byte	0x2
 1530 020c 23       		.byte	0x23
 1531 020d 18       		.uleb128 0x18
 1532 020e 0A       		.uleb128 0xa
 1533 020f F7000000 		.4byte	.LASF28
 1534 0213 05       		.byte	0x5
 1535 0214 4C04     		.2byte	0x44c
 1536 0216 B3000000 		.4byte	0xb3
 1537 021a 02       		.byte	0x2
 1538 021b 23       		.byte	0x23
 1539 021c 1C       		.uleb128 0x1c
 1540 021d 0A       		.uleb128 0xa
 1541 021e 53000000 		.4byte	.LASF29
 1542 0222 05       		.byte	0x5
 1543 0223 4D04     		.2byte	0x44d
 1544 0225 B3000000 		.4byte	0xb3
 1545 0229 02       		.byte	0x2
 1546 022a 23       		.byte	0x23
 1547 022b 20       		.uleb128 0x20
 1548 022c 09       		.uleb128 0x9
 1549 022d 43535200 		.ascii	"CSR\000"
 1550 0231 05       		.byte	0x5
 1551 0232 4E04     		.2byte	0x44e
 1552 0234 B3000000 		.4byte	0xb3
 1553 0238 02       		.byte	0x2
 1554 0239 23       		.byte	0x23
 1555 023a 24       		.uleb128 0x24
 1556 023b 00       		.byte	0x0
 1557 023c 0B       		.uleb128 0xb
 1558 023d 13000000 		.4byte	.LASF30
 1559 0241 05       		.byte	0x5
ARM GAS  C:\Users\z80\AppData\Local\Temp\ccOsHSOe.s 			page 29


 1560 0242 5904     		.2byte	0x459
 1561 0244 9D010000 		.4byte	0x19d
 1562 0248 08       		.uleb128 0x8
 1563 0249 24       		.byte	0x24
 1564 024a 05       		.byte	0x5
 1565 024b 9704     		.2byte	0x497
 1566 024d 5E030000 		.4byte	0x35e
 1567 0251 09       		.uleb128 0x9
 1568 0252 43523100 		.ascii	"CR1\000"
 1569 0256 05       		.byte	0x5
 1570 0257 9904     		.2byte	0x499
 1571 0259 C2000000 		.4byte	0xc2
 1572 025d 02       		.byte	0x2
 1573 025e 23       		.byte	0x23
 1574 025f 00       		.uleb128 0x0
 1575 0260 0A       		.uleb128 0xa
 1576 0261 E6020000 		.4byte	.LASF31
 1577 0265 05       		.byte	0x5
 1578 0266 9A04     		.2byte	0x49a
 1579 0268 62000000 		.4byte	0x62
 1580 026c 02       		.byte	0x2
 1581 026d 23       		.byte	0x23
 1582 026e 02       		.uleb128 0x2
 1583 026f 09       		.uleb128 0x9
 1584 0270 43523200 		.ascii	"CR2\000"
 1585 0274 05       		.byte	0x5
 1586 0275 9B04     		.2byte	0x49b
 1587 0277 C2000000 		.4byte	0xc2
 1588 027b 02       		.byte	0x2
 1589 027c 23       		.byte	0x23
 1590 027d 04       		.uleb128 0x4
 1591 027e 0A       		.uleb128 0xa
 1592 027f F0020000 		.4byte	.LASF32
 1593 0283 05       		.byte	0x5
 1594 0284 9C04     		.2byte	0x49c
 1595 0286 62000000 		.4byte	0x62
 1596 028a 02       		.byte	0x2
 1597 028b 23       		.byte	0x23
 1598 028c 06       		.uleb128 0x6
 1599 028d 09       		.uleb128 0x9
 1600 028e 535200   		.ascii	"SR\000"
 1601 0291 05       		.byte	0x5
 1602 0292 9D04     		.2byte	0x49d
 1603 0294 C2000000 		.4byte	0xc2
 1604 0298 02       		.byte	0x2
 1605 0299 23       		.byte	0x23
 1606 029a 08       		.uleb128 0x8
 1607 029b 0A       		.uleb128 0xa
 1608 029c FA020000 		.4byte	.LASF33
 1609 02a0 05       		.byte	0x5
 1610 02a1 9E04     		.2byte	0x49e
 1611 02a3 62000000 		.4byte	0x62
 1612 02a7 02       		.byte	0x2
 1613 02a8 23       		.byte	0x23
 1614 02a9 0A       		.uleb128 0xa
 1615 02aa 09       		.uleb128 0x9
 1616 02ab 445200   		.ascii	"DR\000"
ARM GAS  C:\Users\z80\AppData\Local\Temp\ccOsHSOe.s 			page 30


 1617 02ae 05       		.byte	0x5
 1618 02af 9F04     		.2byte	0x49f
 1619 02b1 C2000000 		.4byte	0xc2
 1620 02b5 02       		.byte	0x2
 1621 02b6 23       		.byte	0x23
 1622 02b7 0C       		.uleb128 0xc
 1623 02b8 0A       		.uleb128 0xa
 1624 02b9 04030000 		.4byte	.LASF34
 1625 02bd 05       		.byte	0x5
 1626 02be A004     		.2byte	0x4a0
 1627 02c0 62000000 		.4byte	0x62
 1628 02c4 02       		.byte	0x2
 1629 02c5 23       		.byte	0x23
 1630 02c6 0E       		.uleb128 0xe
 1631 02c7 0A       		.uleb128 0xa
 1632 02c8 E0020000 		.4byte	.LASF35
 1633 02cc 05       		.byte	0x5
 1634 02cd A104     		.2byte	0x4a1
 1635 02cf C2000000 		.4byte	0xc2
 1636 02d3 02       		.byte	0x2
 1637 02d4 23       		.byte	0x23
 1638 02d5 10       		.uleb128 0x10
 1639 02d6 0A       		.uleb128 0xa
 1640 02d7 0E030000 		.4byte	.LASF36
 1641 02db 05       		.byte	0x5
 1642 02dc A204     		.2byte	0x4a2
 1643 02de 62000000 		.4byte	0x62
 1644 02e2 02       		.byte	0x2
 1645 02e3 23       		.byte	0x23
 1646 02e4 12       		.uleb128 0x12
 1647 02e5 0A       		.uleb128 0xa
 1648 02e6 4E040000 		.4byte	.LASF37
 1649 02ea 05       		.byte	0x5
 1650 02eb A304     		.2byte	0x4a3
 1651 02ed C2000000 		.4byte	0xc2
 1652 02f1 02       		.byte	0x2
 1653 02f2 23       		.byte	0x23
 1654 02f3 14       		.uleb128 0x14
 1655 02f4 0A       		.uleb128 0xa
 1656 02f5 18030000 		.4byte	.LASF38
 1657 02f9 05       		.byte	0x5
 1658 02fa A404     		.2byte	0x4a4
 1659 02fc 62000000 		.4byte	0x62
 1660 0300 02       		.byte	0x2
 1661 0301 23       		.byte	0x23
 1662 0302 16       		.uleb128 0x16
 1663 0303 0A       		.uleb128 0xa
 1664 0304 80000000 		.4byte	.LASF39
 1665 0308 05       		.byte	0x5
 1666 0309 A504     		.2byte	0x4a5
 1667 030b C2000000 		.4byte	0xc2
 1668 030f 02       		.byte	0x2
 1669 0310 23       		.byte	0x23
 1670 0311 18       		.uleb128 0x18
 1671 0312 0A       		.uleb128 0xa
 1672 0313 22030000 		.4byte	.LASF40
 1673 0317 05       		.byte	0x5
ARM GAS  C:\Users\z80\AppData\Local\Temp\ccOsHSOe.s 			page 31


 1674 0318 A604     		.2byte	0x4a6
 1675 031a 62000000 		.4byte	0x62
 1676 031e 02       		.byte	0x2
 1677 031f 23       		.byte	0x23
 1678 0320 1A       		.uleb128 0x1a
 1679 0321 0A       		.uleb128 0xa
 1680 0322 78000000 		.4byte	.LASF41
 1681 0326 05       		.byte	0x5
 1682 0327 A704     		.2byte	0x4a7
 1683 0329 C2000000 		.4byte	0xc2
 1684 032d 02       		.byte	0x2
 1685 032e 23       		.byte	0x23
 1686 032f 1C       		.uleb128 0x1c
 1687 0330 0A       		.uleb128 0xa
 1688 0331 13010000 		.4byte	.LASF42
 1689 0335 05       		.byte	0x5
 1690 0336 A804     		.2byte	0x4a8
 1691 0338 62000000 		.4byte	0x62
 1692 033c 02       		.byte	0x2
 1693 033d 23       		.byte	0x23
 1694 033e 1E       		.uleb128 0x1e
 1695 033f 0A       		.uleb128 0xa
 1696 0340 30040000 		.4byte	.LASF43
 1697 0344 05       		.byte	0x5
 1698 0345 A904     		.2byte	0x4a9
 1699 0347 C2000000 		.4byte	0xc2
 1700 034b 02       		.byte	0x2
 1701 034c 23       		.byte	0x23
 1702 034d 20       		.uleb128 0x20
 1703 034e 0A       		.uleb128 0xa
 1704 034f 47030000 		.4byte	.LASF44
 1705 0353 05       		.byte	0x5
 1706 0354 AA04     		.2byte	0x4aa
 1707 0356 62000000 		.4byte	0x62
 1708 035a 02       		.byte	0x2
 1709 035b 23       		.byte	0x23
 1710 035c 22       		.uleb128 0x22
 1711 035d 00       		.byte	0x0
 1712 035e 0B       		.uleb128 0xb
 1713 035f 36020000 		.4byte	.LASF45
 1714 0363 05       		.byte	0x5
 1715 0364 AB04     		.2byte	0x4ab
 1716 0366 48020000 		.4byte	0x248
 1717 036a 0C       		.uleb128 0xc
 1718 036b 0C       		.byte	0xc
 1719 036c 06       		.byte	0x6
 1720 036d C2       		.byte	0xc2
 1721 036e B9030000 		.4byte	0x3b9
 1722 0372 0D       		.uleb128 0xd
 1723 0373 C9020000 		.4byte	.LASF46
 1724 0377 06       		.byte	0x6
 1725 0378 C3       		.byte	0xc3
 1726 0379 B9030000 		.4byte	0x3b9
 1727 037d 02       		.byte	0x2
 1728 037e 23       		.byte	0x23
 1729 037f 00       		.uleb128 0x0
 1730 0380 0D       		.uleb128 0xd
ARM GAS  C:\Users\z80\AppData\Local\Temp\ccOsHSOe.s 			page 32


 1731 0381 83010000 		.4byte	.LASF47
 1732 0385 06       		.byte	0x6
 1733 0386 C4       		.byte	0xc4
 1734 0387 BF030000 		.4byte	0x3bf
 1735 038b 02       		.byte	0x2
 1736 038c 23       		.byte	0x23
 1737 038d 04       		.uleb128 0x4
 1738 038e 0D       		.uleb128 0xd
 1739 038f 0E040000 		.4byte	.LASF48
 1740 0393 06       		.byte	0x6
 1741 0394 C5       		.byte	0xc5
 1742 0395 49000000 		.4byte	0x49
 1743 0399 02       		.byte	0x2
 1744 039a 23       		.byte	0x23
 1745 039b 08       		.uleb128 0x8
 1746 039c 0D       		.uleb128 0xd
 1747 039d 29010000 		.4byte	.LASF49
 1748 03a1 06       		.byte	0x6
 1749 03a2 C7       		.byte	0xc7
 1750 03a3 49000000 		.4byte	0x49
 1751 03a7 02       		.byte	0x2
 1752 03a8 23       		.byte	0x23
 1753 03a9 09       		.uleb128 0x9
 1754 03aa 0D       		.uleb128 0xd
 1755 03ab FF000000 		.4byte	.LASF50
 1756 03af 06       		.byte	0x6
 1757 03b0 C8       		.byte	0xc8
 1758 03b1 49000000 		.4byte	0x49
 1759 03b5 02       		.byte	0x2
 1760 03b6 23       		.byte	0x23
 1761 03b7 0A       		.uleb128 0xa
 1762 03b8 00       		.byte	0x0
 1763 03b9 0E       		.uleb128 0xe
 1764 03ba 04       		.byte	0x4
 1765 03bb 12010000 		.4byte	0x112
 1766 03bf 0E       		.uleb128 0xe
 1767 03c0 04       		.byte	0x4
 1768 03c1 B3000000 		.4byte	0xb3
 1769 03c5 03       		.uleb128 0x3
 1770 03c6 DC000000 		.4byte	.LASF51
 1771 03ca 06       		.byte	0x6
 1772 03cb C9       		.byte	0xc9
 1773 03cc 6A030000 		.4byte	0x36a
 1774 03d0 03       		.uleb128 0x3
 1775 03d1 B0020000 		.4byte	.LASF52
 1776 03d5 06       		.byte	0x6
 1777 03d6 D2       		.byte	0xd2
 1778 03d7 DB030000 		.4byte	0x3db
 1779 03db 0E       		.uleb128 0xe
 1780 03dc 04       		.byte	0x4
 1781 03dd E1030000 		.4byte	0x3e1
 1782 03e1 0F       		.uleb128 0xf
 1783 03e2 01       		.byte	0x1
 1784 03e3 F2030000 		.4byte	0x3f2
 1785 03e7 10       		.uleb128 0x10
 1786 03e8 B1000000 		.4byte	0xb1
 1787 03ec 10       		.uleb128 0x10
ARM GAS  C:\Users\z80\AppData\Local\Temp\ccOsHSOe.s 			page 33


 1788 03ed 86000000 		.4byte	0x86
 1789 03f1 00       		.byte	0x0
 1790 03f2 03       		.uleb128 0x3
 1791 03f3 06010000 		.4byte	.LASF53
 1792 03f7 07       		.byte	0x7
 1793 03f8 78       		.byte	0x78
 1794 03f9 86000000 		.4byte	0x86
 1795 03fd 03       		.uleb128 0x3
 1796 03fe 88010000 		.4byte	.LASF54
 1797 0402 07       		.byte	0x7
 1798 0403 85       		.byte	0x85
 1799 0404 08040000 		.4byte	0x408
 1800 0408 0E       		.uleb128 0xe
 1801 0409 04       		.byte	0x4
 1802 040a 91010000 		.4byte	0x191
 1803 040e 0E       		.uleb128 0xe
 1804 040f 04       		.byte	0x4
 1805 0410 14040000 		.4byte	0x414
 1806 0414 11       		.uleb128 0x11
 1807 0415 C5030000 		.4byte	0x3c5
 1808 0419 12       		.uleb128 0x12
 1809 041a 01       		.byte	0x1
 1810 041b 08       		.byte	0x8
 1811 041c 55       		.byte	0x55
 1812 041d 40040000 		.4byte	0x440
 1813 0421 13       		.uleb128 0x13
 1814 0422 FB010000 		.4byte	.LASF55
 1815 0426 00       		.sleb128 0
 1816 0427 13       		.uleb128 0x13
 1817 0428 42020000 		.4byte	.LASF56
 1818 042c 01       		.sleb128 1
 1819 042d 13       		.uleb128 0x13
 1820 042e 9B020000 		.4byte	.LASF57
 1821 0432 02       		.sleb128 2
 1822 0433 13       		.uleb128 0x13
 1823 0434 A5020000 		.4byte	.LASF58
 1824 0438 03       		.sleb128 3
 1825 0439 13       		.uleb128 0x13
 1826 043a 6B020000 		.4byte	.LASF59
 1827 043e 04       		.sleb128 4
 1828 043f 00       		.byte	0x0
 1829 0440 03       		.uleb128 0x3
 1830 0441 D1030000 		.4byte	.LASF60
 1831 0445 08       		.byte	0x8
 1832 0446 5B       		.byte	0x5b
 1833 0447 19040000 		.4byte	0x419
 1834 044b 0B       		.uleb128 0xb
 1835 044c BF020000 		.4byte	.LASF61
 1836 0450 09       		.byte	0x9
 1837 0451 0701     		.2byte	0x107
 1838 0453 57040000 		.4byte	0x457
 1839 0457 14       		.uleb128 0x14
 1840 0458 BF020000 		.4byte	.LASF61
 1841 045c 1C       		.byte	0x1c
 1842 045d 09       		.byte	0x9
 1843 045e 2B01     		.2byte	0x12b
 1844 0460 CE040000 		.4byte	0x4ce
ARM GAS  C:\Users\z80\AppData\Local\Temp\ccOsHSOe.s 			page 34


 1845 0464 0A       		.uleb128 0xa
 1846 0465 3C000000 		.4byte	.LASF62
 1847 0469 09       		.byte	0x9
 1848 046a 2F01     		.2byte	0x12f
 1849 046c 40040000 		.4byte	0x440
 1850 0470 02       		.byte	0x2
 1851 0471 23       		.byte	0x23
 1852 0472 00       		.uleb128 0x0
 1853 0473 0A       		.uleb128 0xa
 1854 0474 C6000000 		.4byte	.LASF63
 1855 0478 09       		.byte	0x9
 1856 0479 3301     		.2byte	0x133
 1857 047b 44050000 		.4byte	0x544
 1858 047f 02       		.byte	0x2
 1859 0480 23       		.byte	0x23
 1860 0481 04       		.uleb128 0x4
 1861 0482 09       		.uleb128 0x9
 1862 0483 73706900 		.ascii	"spi\000"
 1863 0487 09       		.byte	0x9
 1864 0488 4B01     		.2byte	0x14b
 1865 048a 4F050000 		.4byte	0x54f
 1866 048e 02       		.byte	0x2
 1867 048f 23       		.byte	0x23
 1868 0490 08       		.uleb128 0x8
 1869 0491 0A       		.uleb128 0xa
 1870 0492 1F000000 		.4byte	.LASF64
 1871 0496 09       		.byte	0x9
 1872 0497 4F01     		.2byte	0x14f
 1873 0499 0E040000 		.4byte	0x40e
 1874 049d 02       		.byte	0x2
 1875 049e 23       		.byte	0x23
 1876 049f 0C       		.uleb128 0xc
 1877 04a0 0A       		.uleb128 0xa
 1878 04a1 18020000 		.4byte	.LASF65
 1879 04a5 09       		.byte	0x9
 1880 04a6 5301     		.2byte	0x153
 1881 04a8 0E040000 		.4byte	0x40e
 1882 04ac 02       		.byte	0x2
 1883 04ad 23       		.byte	0x23
 1884 04ae 10       		.uleb128 0x10
 1885 04af 0A       		.uleb128 0xa
 1886 04b0 93010000 		.4byte	.LASF66
 1887 04b4 09       		.byte	0x9
 1888 04b5 5701     		.2byte	0x157
 1889 04b7 86000000 		.4byte	0x86
 1890 04bb 02       		.byte	0x2
 1891 04bc 23       		.byte	0x23
 1892 04bd 14       		.uleb128 0x14
 1893 04be 0A       		.uleb128 0xa
 1894 04bf D2000000 		.4byte	.LASF67
 1895 04c3 09       		.byte	0x9
 1896 04c4 5B01     		.2byte	0x15b
 1897 04c6 86000000 		.4byte	0x86
 1898 04ca 02       		.byte	0x2
 1899 04cb 23       		.byte	0x23
 1900 04cc 18       		.uleb128 0x18
 1901 04cd 00       		.byte	0x0
ARM GAS  C:\Users\z80\AppData\Local\Temp\ccOsHSOe.s 			page 35


 1902 04ce 0B       		.uleb128 0xb
 1903 04cf 70010000 		.4byte	.LASF68
 1904 04d3 09       		.byte	0x9
 1905 04d4 0F01     		.2byte	0x10f
 1906 04d6 DA040000 		.4byte	0x4da
 1907 04da 0E       		.uleb128 0xe
 1908 04db 04       		.byte	0x4
 1909 04dc E0040000 		.4byte	0x4e0
 1910 04e0 0F       		.uleb128 0xf
 1911 04e1 01       		.byte	0x1
 1912 04e2 EC040000 		.4byte	0x4ec
 1913 04e6 10       		.uleb128 0x10
 1914 04e7 EC040000 		.4byte	0x4ec
 1915 04eb 00       		.byte	0x0
 1916 04ec 0E       		.uleb128 0xe
 1917 04ed 04       		.byte	0x4
 1918 04ee 4B040000 		.4byte	0x44b
 1919 04f2 08       		.uleb128 0x8
 1920 04f3 0C       		.byte	0xc
 1921 04f4 09       		.byte	0x9
 1922 04f5 1401     		.2byte	0x114
 1923 04f7 38050000 		.4byte	0x538
 1924 04fb 0A       		.uleb128 0xa
 1925 04fc 29040000 		.4byte	.LASF69
 1926 0500 09       		.byte	0x9
 1927 0501 1801     		.2byte	0x118
 1928 0503 CE040000 		.4byte	0x4ce
 1929 0507 02       		.byte	0x2
 1930 0508 23       		.byte	0x23
 1931 0509 00       		.uleb128 0x0
 1932 050a 0A       		.uleb128 0xa
 1933 050b 22040000 		.4byte	.LASF70
 1934 050f 09       		.byte	0x9
 1935 0510 1D01     		.2byte	0x11d
 1936 0512 FD030000 		.4byte	0x3fd
 1937 0516 02       		.byte	0x2
 1938 0517 23       		.byte	0x23
 1939 0518 04       		.uleb128 0x4
 1940 0519 0A       		.uleb128 0xa
 1941 051a 0D000000 		.4byte	.LASF71
 1942 051e 09       		.byte	0x9
 1943 051f 2101     		.2byte	0x121
 1944 0521 62000000 		.4byte	0x62
 1945 0525 02       		.byte	0x2
 1946 0526 23       		.byte	0x23
 1947 0527 08       		.uleb128 0x8
 1948 0528 09       		.uleb128 0x9
 1949 0529 63723100 		.ascii	"cr1\000"
 1950 052d 09       		.byte	0x9
 1951 052e 2501     		.2byte	0x125
 1952 0530 62000000 		.4byte	0x62
 1953 0534 02       		.byte	0x2
 1954 0535 23       		.byte	0x23
 1955 0536 0A       		.uleb128 0xa
 1956 0537 00       		.byte	0x0
 1957 0538 0B       		.uleb128 0xb
 1958 0539 25000000 		.4byte	.LASF72
ARM GAS  C:\Users\z80\AppData\Local\Temp\ccOsHSOe.s 			page 36


 1959 053d 09       		.byte	0x9
 1960 053e 2601     		.2byte	0x126
 1961 0540 F2040000 		.4byte	0x4f2
 1962 0544 0E       		.uleb128 0xe
 1963 0545 04       		.byte	0x4
 1964 0546 4A050000 		.4byte	0x54a
 1965 054a 11       		.uleb128 0x11
 1966 054b 38050000 		.4byte	0x538
 1967 054f 0E       		.uleb128 0xe
 1968 0550 04       		.byte	0x4
 1969 0551 5E030000 		.4byte	0x35e
 1970 0555 15       		.uleb128 0x15
 1971 0556 2C030000 		.4byte	.LASF75
 1972 055a 01       		.byte	0x1
 1973 055b 69       		.byte	0x69
 1974 055c 01       		.byte	0x1
 1975 055d 00000000 		.4byte	.LFB62
 1976 0561 A4000000 		.4byte	.LFE62
 1977 0565 00000000 		.4byte	.LLST0
 1978 0569 8A050000 		.4byte	0x58a
 1979 056d 16       		.uleb128 0x16
 1980 056e AB010000 		.4byte	.LASF73
 1981 0572 01       		.byte	0x1
 1982 0573 69       		.byte	0x69
 1983 0574 EC040000 		.4byte	0x4ec
 1984 0578 02       		.byte	0x2
 1985 0579 91       		.byte	0x91
 1986 057a 74       		.sleb128 -12
 1987 057b 16       		.uleb128 0x16
 1988 057c B8010000 		.4byte	.LASF74
 1989 0580 01       		.byte	0x1
 1990 0581 69       		.byte	0x69
 1991 0582 86000000 		.4byte	0x86
 1992 0586 02       		.byte	0x2
 1993 0587 91       		.byte	0x91
 1994 0588 70       		.sleb128 -16
 1995 0589 00       		.byte	0x0
 1996 058a 15       		.uleb128 0x15
 1997 058b B6030000 		.4byte	.LASF76
 1998 058f 01       		.byte	0x1
 1999 0590 83       		.byte	0x83
 2000 0591 01       		.byte	0x1
 2001 0592 00000000 		.4byte	.LFB63
 2002 0596 1A000000 		.4byte	.LFE63
 2003 059a 2C000000 		.4byte	.LLST1
 2004 059e BF050000 		.4byte	0x5bf
 2005 05a2 16       		.uleb128 0x16
 2006 05a3 AB010000 		.4byte	.LASF73
 2007 05a7 01       		.byte	0x1
 2008 05a8 83       		.byte	0x83
 2009 05a9 EC040000 		.4byte	0x4ec
 2010 05ad 02       		.byte	0x2
 2011 05ae 91       		.byte	0x91
 2012 05af 74       		.sleb128 -12
 2013 05b0 16       		.uleb128 0x16
 2014 05b1 B8010000 		.4byte	.LASF74
 2015 05b5 01       		.byte	0x1
ARM GAS  C:\Users\z80\AppData\Local\Temp\ccOsHSOe.s 			page 37


 2016 05b6 83       		.byte	0x83
 2017 05b7 86000000 		.4byte	0x86
 2018 05bb 02       		.byte	0x2
 2019 05bc 91       		.byte	0x91
 2020 05bd 70       		.sleb128 -16
 2021 05be 00       		.byte	0x0
 2022 05bf 17       		.uleb128 0x17
 2023 05c0 01       		.byte	0x1
 2024 05c1 2F000000 		.4byte	.LASF97
 2025 05c5 01       		.byte	0x1
 2026 05c6 9E       		.byte	0x9e
 2027 05c7 01       		.byte	0x1
 2028 05c8 00000000 		.4byte	.LFB64
 2029 05cc C8000000 		.4byte	.LFE64
 2030 05d0 58000000 		.4byte	.LLST2
 2031 05d4 18       		.uleb128 0x18
 2032 05d5 01       		.byte	0x1
 2033 05d6 A8030000 		.4byte	.LASF77
 2034 05da 01       		.byte	0x1
 2035 05db E0       		.byte	0xe0
 2036 05dc 01       		.byte	0x1
 2037 05dd 00000000 		.4byte	.LFB65
 2038 05e1 C2010000 		.4byte	.LFE65
 2039 05e5 78000000 		.4byte	.LLST3
 2040 05e9 2C060000 		.4byte	0x62c
 2041 05ed 16       		.uleb128 0x16
 2042 05ee AB010000 		.4byte	.LASF73
 2043 05f2 01       		.byte	0x1
 2044 05f3 E0       		.byte	0xe0
 2045 05f4 EC040000 		.4byte	0x4ec
 2046 05f8 02       		.byte	0x2
 2047 05f9 91       		.byte	0x91
 2048 05fa 6C       		.sleb128 -20
 2049 05fb 19       		.uleb128 0x19
 2050 05fc 1E000000 		.4byte	.LBB2
 2051 0600 96000000 		.4byte	.LBE2
 2052 0604 15060000 		.4byte	0x615
 2053 0608 1A       		.uleb128 0x1a
 2054 0609 6200     		.ascii	"b\000"
 2055 060b 01       		.byte	0x1
 2056 060c E6       		.byte	0xe6
 2057 060d A6000000 		.4byte	0xa6
 2058 0611 02       		.byte	0x2
 2059 0612 91       		.byte	0x91
 2060 0613 74       		.sleb128 -12
 2061 0614 00       		.byte	0x0
 2062 0615 1B       		.uleb128 0x1b
 2063 0616 A4000000 		.4byte	.LBB3
 2064 061a 1C010000 		.4byte	.LBE3
 2065 061e 1A       		.uleb128 0x1a
 2066 061f 6200     		.ascii	"b\000"
 2067 0621 01       		.byte	0x1
 2068 0622 F6       		.byte	0xf6
 2069 0623 A6000000 		.4byte	0xa6
 2070 0627 02       		.byte	0x2
 2071 0628 91       		.byte	0x91
 2072 0629 70       		.sleb128 -16
ARM GAS  C:\Users\z80\AppData\Local\Temp\ccOsHSOe.s 			page 38


 2073 062a 00       		.byte	0x0
 2074 062b 00       		.byte	0x0
 2075 062c 1C       		.uleb128 0x1c
 2076 062d 01       		.byte	0x1
 2077 062e 7E030000 		.4byte	.LASF78
 2078 0632 01       		.byte	0x1
 2079 0633 3601     		.2byte	0x136
 2080 0635 01       		.byte	0x1
 2081 0636 00000000 		.4byte	.LFB66
 2082 063a 7C000000 		.4byte	.LFE66
 2083 063e A4000000 		.4byte	.LLST4
 2084 0642 56060000 		.4byte	0x656
 2085 0646 1D       		.uleb128 0x1d
 2086 0647 AB010000 		.4byte	.LASF73
 2087 064b 01       		.byte	0x1
 2088 064c 3601     		.2byte	0x136
 2089 064e EC040000 		.4byte	0x4ec
 2090 0652 02       		.byte	0x2
 2091 0653 91       		.byte	0x91
 2092 0654 74       		.sleb128 -12
 2093 0655 00       		.byte	0x0
 2094 0656 1C       		.uleb128 0x1c
 2095 0657 01       		.byte	0x1
 2096 0658 58000000 		.4byte	.LASF79
 2097 065c 01       		.byte	0x1
 2098 065d 5601     		.2byte	0x156
 2099 065f 01       		.byte	0x1
 2100 0660 00000000 		.4byte	.LFB67
 2101 0664 1E000000 		.4byte	.LFE67
 2102 0668 D0000000 		.4byte	.LLST5
 2103 066c 80060000 		.4byte	0x680
 2104 0670 1D       		.uleb128 0x1d
 2105 0671 AB010000 		.4byte	.LASF73
 2106 0675 01       		.byte	0x1
 2107 0676 5601     		.2byte	0x156
 2108 0678 EC040000 		.4byte	0x4ec
 2109 067c 02       		.byte	0x2
 2110 067d 91       		.byte	0x91
 2111 067e 7C       		.sleb128 -4
 2112 067f 00       		.byte	0x0
 2113 0680 1C       		.uleb128 0x1c
 2114 0681 01       		.byte	0x1
 2115 0682 67000000 		.4byte	.LASF80
 2116 0686 01       		.byte	0x1
 2117 0687 6301     		.2byte	0x163
 2118 0689 01       		.byte	0x1
 2119 068a 00000000 		.4byte	.LFB68
 2120 068e 1E000000 		.4byte	.LFE68
 2121 0692 F0000000 		.4byte	.LLST6
 2122 0696 AA060000 		.4byte	0x6aa
 2123 069a 1D       		.uleb128 0x1d
 2124 069b AB010000 		.4byte	.LASF73
 2125 069f 01       		.byte	0x1
 2126 06a0 6301     		.2byte	0x163
 2127 06a2 EC040000 		.4byte	0x4ec
 2128 06a6 02       		.byte	0x2
 2129 06a7 91       		.byte	0x91
ARM GAS  C:\Users\z80\AppData\Local\Temp\ccOsHSOe.s 			page 39


 2130 06a8 7C       		.sleb128 -4
 2131 06a9 00       		.byte	0x0
 2132 06aa 1C       		.uleb128 0x1c
 2133 06ab 01       		.byte	0x1
 2134 06ac D1020000 		.4byte	.LASF81
 2135 06b0 01       		.byte	0x1
 2136 06b1 7301     		.2byte	0x173
 2137 06b3 01       		.byte	0x1
 2138 06b4 00000000 		.4byte	.LFB69
 2139 06b8 7E000000 		.4byte	.LFE69
 2140 06bc 10010000 		.4byte	.LLST7
 2141 06c0 E1060000 		.4byte	0x6e1
 2142 06c4 1D       		.uleb128 0x1d
 2143 06c5 AB010000 		.4byte	.LASF73
 2144 06c9 01       		.byte	0x1
 2145 06ca 7301     		.2byte	0x173
 2146 06cc EC040000 		.4byte	0x4ec
 2147 06d0 02       		.byte	0x2
 2148 06d1 91       		.byte	0x91
 2149 06d2 7C       		.sleb128 -4
 2150 06d3 1E       		.uleb128 0x1e
 2151 06d4 6E00     		.ascii	"n\000"
 2152 06d6 01       		.byte	0x1
 2153 06d7 7301     		.2byte	0x173
 2154 06d9 30000000 		.4byte	0x30
 2155 06dd 02       		.byte	0x2
 2156 06de 91       		.byte	0x91
 2157 06df 78       		.sleb128 -8
 2158 06e0 00       		.byte	0x0
 2159 06e1 1C       		.uleb128 0x1c
 2160 06e2 01       		.byte	0x1
 2161 06e3 F7030000 		.4byte	.LASF82
 2162 06e7 01       		.byte	0x1
 2163 06e8 9001     		.2byte	0x190
 2164 06ea 01       		.byte	0x1
 2165 06eb 00000000 		.4byte	.LFB70
 2166 06ef 7E000000 		.4byte	.LFE70
 2167 06f3 30010000 		.4byte	.LLST8
 2168 06f7 36070000 		.4byte	0x736
 2169 06fb 1D       		.uleb128 0x1d
 2170 06fc AB010000 		.4byte	.LASF73
 2171 0700 01       		.byte	0x1
 2172 0701 9001     		.2byte	0x190
 2173 0703 EC040000 		.4byte	0x4ec
 2174 0707 02       		.byte	0x2
 2175 0708 91       		.byte	0x91
 2176 0709 7C       		.sleb128 -4
 2177 070a 1E       		.uleb128 0x1e
 2178 070b 6E00     		.ascii	"n\000"
 2179 070d 01       		.byte	0x1
 2180 070e 9001     		.2byte	0x190
 2181 0710 30000000 		.4byte	0x30
 2182 0714 02       		.byte	0x2
 2183 0715 91       		.byte	0x91
 2184 0716 78       		.sleb128 -8
 2185 0717 1D       		.uleb128 0x1d
 2186 0718 5F020000 		.4byte	.LASF83
ARM GAS  C:\Users\z80\AppData\Local\Temp\ccOsHSOe.s 			page 40


 2187 071c 01       		.byte	0x1
 2188 071d 9101     		.2byte	0x191
 2189 071f 36070000 		.4byte	0x736
 2190 0723 02       		.byte	0x2
 2191 0724 91       		.byte	0x91
 2192 0725 74       		.sleb128 -12
 2193 0726 1D       		.uleb128 0x1d
 2194 0727 08040000 		.4byte	.LASF84
 2195 072b 01       		.byte	0x1
 2196 072c 9101     		.2byte	0x191
 2197 072e B1000000 		.4byte	0xb1
 2198 0732 02       		.byte	0x2
 2199 0733 91       		.byte	0x91
 2200 0734 70       		.sleb128 -16
 2201 0735 00       		.byte	0x0
 2202 0736 0E       		.uleb128 0xe
 2203 0737 04       		.byte	0x4
 2204 0738 3C070000 		.4byte	0x73c
 2205 073c 1F       		.uleb128 0x1f
 2206 073d 1C       		.uleb128 0x1c
 2207 073e 01       		.byte	0x1
 2208 073f 87000000 		.4byte	.LASF85
 2209 0743 01       		.byte	0x1
 2210 0744 AC01     		.2byte	0x1ac
 2211 0746 01       		.byte	0x1
 2212 0747 00000000 		.4byte	.LFB71
 2213 074b 7E000000 		.4byte	.LFE71
 2214 074f 50010000 		.4byte	.LLST9
 2215 0753 83070000 		.4byte	0x783
 2216 0757 1D       		.uleb128 0x1d
 2217 0758 AB010000 		.4byte	.LASF73
 2218 075c 01       		.byte	0x1
 2219 075d AC01     		.2byte	0x1ac
 2220 075f EC040000 		.4byte	0x4ec
 2221 0763 02       		.byte	0x2
 2222 0764 91       		.byte	0x91
 2223 0765 7C       		.sleb128 -4
 2224 0766 1E       		.uleb128 0x1e
 2225 0767 6E00     		.ascii	"n\000"
 2226 0769 01       		.byte	0x1
 2227 076a AC01     		.2byte	0x1ac
 2228 076c 30000000 		.4byte	0x30
 2229 0770 02       		.byte	0x2
 2230 0771 91       		.byte	0x91
 2231 0772 78       		.sleb128 -8
 2232 0773 1D       		.uleb128 0x1d
 2233 0774 5F020000 		.4byte	.LASF83
 2234 0778 01       		.byte	0x1
 2235 0779 AC01     		.2byte	0x1ac
 2236 077b 36070000 		.4byte	0x736
 2237 077f 02       		.byte	0x2
 2238 0780 91       		.byte	0x91
 2239 0781 74       		.sleb128 -12
 2240 0782 00       		.byte	0x0
 2241 0783 1C       		.uleb128 0x1c
 2242 0784 01       		.byte	0x1
 2243 0785 DE010000 		.4byte	.LASF86
ARM GAS  C:\Users\z80\AppData\Local\Temp\ccOsHSOe.s 			page 41


 2244 0789 01       		.byte	0x1
 2245 078a C701     		.2byte	0x1c7
 2246 078c 01       		.byte	0x1
 2247 078d 00000000 		.4byte	.LFB72
 2248 0791 7E000000 		.4byte	.LFE72
 2249 0795 70010000 		.4byte	.LLST10
 2250 0799 C9070000 		.4byte	0x7c9
 2251 079d 1D       		.uleb128 0x1d
 2252 079e AB010000 		.4byte	.LASF73
 2253 07a2 01       		.byte	0x1
 2254 07a3 C701     		.2byte	0x1c7
 2255 07a5 EC040000 		.4byte	0x4ec
 2256 07a9 02       		.byte	0x2
 2257 07aa 91       		.byte	0x91
 2258 07ab 7C       		.sleb128 -4
 2259 07ac 1E       		.uleb128 0x1e
 2260 07ad 6E00     		.ascii	"n\000"
 2261 07af 01       		.byte	0x1
 2262 07b0 C701     		.2byte	0x1c7
 2263 07b2 30000000 		.4byte	0x30
 2264 07b6 02       		.byte	0x2
 2265 07b7 91       		.byte	0x91
 2266 07b8 78       		.sleb128 -8
 2267 07b9 1D       		.uleb128 0x1d
 2268 07ba 08040000 		.4byte	.LASF84
 2269 07be 01       		.byte	0x1
 2270 07bf C701     		.2byte	0x1c7
 2271 07c1 B1000000 		.4byte	0xb1
 2272 07c5 02       		.byte	0x2
 2273 07c6 91       		.byte	0x91
 2274 07c7 74       		.sleb128 -12
 2275 07c8 00       		.byte	0x0
 2276 07c9 20       		.uleb128 0x20
 2277 07ca 01       		.byte	0x1
 2278 07cb 1E020000 		.4byte	.LASF98
 2279 07cf 01       		.byte	0x1
 2280 07d0 E101     		.2byte	0x1e1
 2281 07d2 01       		.byte	0x1
 2282 07d3 62000000 		.4byte	0x62
 2283 07d7 00000000 		.4byte	.LFB73
 2284 07db 34000000 		.4byte	.LFE73
 2285 07df 90010000 		.4byte	.LLST11
 2286 07e3 06080000 		.4byte	0x806
 2287 07e7 1D       		.uleb128 0x1d
 2288 07e8 AB010000 		.4byte	.LASF73
 2289 07ec 01       		.byte	0x1
 2290 07ed E101     		.2byte	0x1e1
 2291 07ef EC040000 		.4byte	0x4ec
 2292 07f3 02       		.byte	0x2
 2293 07f4 91       		.byte	0x91
 2294 07f5 7C       		.sleb128 -4
 2295 07f6 1D       		.uleb128 0x1d
 2296 07f7 65020000 		.4byte	.LASF87
 2297 07fb 01       		.byte	0x1
 2298 07fc E101     		.2byte	0x1e1
 2299 07fe 62000000 		.4byte	0x62
 2300 0802 02       		.byte	0x2
ARM GAS  C:\Users\z80\AppData\Local\Temp\ccOsHSOe.s 			page 42


 2301 0803 91       		.byte	0x91
 2302 0804 7A       		.sleb128 -6
 2303 0805 00       		.byte	0x0
 2304 0806 21       		.uleb128 0x21
 2305 0807 15040000 		.4byte	.LASF88
 2306 080b 0A       		.byte	0xa
 2307 080c 9404     		.2byte	0x494
 2308 080e C7000000 		.4byte	0xc7
 2309 0812 01       		.byte	0x1
 2310 0813 01       		.byte	0x1
 2311 0814 22       		.uleb128 0x22
 2312 0815 C5030000 		.4byte	0x3c5
 2313 0819 24080000 		.4byte	0x824
 2314 081d 23       		.uleb128 0x23
 2315 081e B8000000 		.4byte	0xb8
 2316 0822 06       		.byte	0x6
 2317 0823 00       		.byte	0x0
 2318 0824 21       		.uleb128 0x21
 2319 0825 DC030000 		.4byte	.LASF89
 2320 0829 06       		.byte	0x6
 2321 082a 8201     		.2byte	0x182
 2322 082c 32080000 		.4byte	0x832
 2323 0830 01       		.byte	0x1
 2324 0831 01       		.byte	0x1
 2325 0832 11       		.uleb128 0x11
 2326 0833 14080000 		.4byte	0x814
 2327 0837 21       		.uleb128 0x21
 2328 0838 8B030000 		.4byte	.LASF90
 2329 083c 09       		.byte	0x9
 2330 083d 6701     		.2byte	0x167
 2331 083f 4B040000 		.4byte	0x44b
 2332 0843 01       		.byte	0x1
 2333 0844 01       		.byte	0x1
 2334 0845 21       		.uleb128 0x21
 2335 0846 91030000 		.4byte	.LASF91
 2336 084a 09       		.byte	0x9
 2337 084b 6B01     		.2byte	0x16b
 2338 084d 4B040000 		.4byte	0x44b
 2339 0851 01       		.byte	0x1
 2340 0852 01       		.byte	0x1
 2341 0853 24       		.uleb128 0x24
 2342 0854 4A010000 		.4byte	.LASF92
 2343 0858 01       		.byte	0x1
 2344 0859 5C       		.byte	0x5c
 2345 085a 62000000 		.4byte	0x62
 2346 085e 05       		.byte	0x5
 2347 085f 03       		.byte	0x3
 2348 0860 00000000 		.4byte	dummytx
 2349 0864 24       		.uleb128 0x24
 2350 0865 EF030000 		.4byte	.LASF93
 2351 0869 01       		.byte	0x1
 2352 086a 5D       		.byte	0x5d
 2353 086b 62000000 		.4byte	0x62
 2354 086f 05       		.byte	0x5
 2355 0870 03       		.byte	0x3
 2356 0871 00000000 		.4byte	dummyrx
 2357 0875 21       		.uleb128 0x21
ARM GAS  C:\Users\z80\AppData\Local\Temp\ccOsHSOe.s 			page 43


 2358 0876 15040000 		.4byte	.LASF88
 2359 087a 0A       		.byte	0xa
 2360 087b 9404     		.2byte	0x494
 2361 087d C7000000 		.4byte	0xc7
 2362 0881 01       		.byte	0x1
 2363 0882 01       		.byte	0x1
 2364 0883 21       		.uleb128 0x21
 2365 0884 DC030000 		.4byte	.LASF89
 2366 0888 06       		.byte	0x6
 2367 0889 8201     		.2byte	0x182
 2368 088b 91080000 		.4byte	0x891
 2369 088f 01       		.byte	0x1
 2370 0890 01       		.byte	0x1
 2371 0891 11       		.uleb128 0x11
 2372 0892 14080000 		.4byte	0x814
 2373 0896 25       		.uleb128 0x25
 2374 0897 8B030000 		.4byte	.LASF90
 2375 089b 01       		.byte	0x1
 2376 089c 4B       		.byte	0x4b
 2377 089d 4B040000 		.4byte	0x44b
 2378 08a1 01       		.byte	0x1
 2379 08a2 05       		.byte	0x5
 2380 08a3 03       		.byte	0x3
 2381 08a4 00000000 		.4byte	SPID1
 2382 08a8 25       		.uleb128 0x25
 2383 08a9 91030000 		.4byte	.LASF91
 2384 08ad 01       		.byte	0x1
 2385 08ae 50       		.byte	0x50
 2386 08af 4B040000 		.4byte	0x44b
 2387 08b3 01       		.byte	0x1
 2388 08b4 05       		.byte	0x5
 2389 08b5 03       		.byte	0x3
 2390 08b6 00000000 		.4byte	SPID2
 2391 08ba 00       		.byte	0x0
 2392              		.section	.debug_abbrev
 2393 0000 01       		.uleb128 0x1
 2394 0001 11       		.uleb128 0x11
 2395 0002 01       		.byte	0x1
 2396 0003 25       		.uleb128 0x25
 2397 0004 0E       		.uleb128 0xe
 2398 0005 13       		.uleb128 0x13
 2399 0006 0B       		.uleb128 0xb
 2400 0007 03       		.uleb128 0x3
 2401 0008 0E       		.uleb128 0xe
 2402 0009 1B       		.uleb128 0x1b
 2403 000a 0E       		.uleb128 0xe
 2404 000b 11       		.uleb128 0x11
 2405 000c 01       		.uleb128 0x1
 2406 000d 52       		.uleb128 0x52
 2407 000e 01       		.uleb128 0x1
 2408 000f 55       		.uleb128 0x55
 2409 0010 06       		.uleb128 0x6
 2410 0011 10       		.uleb128 0x10
 2411 0012 06       		.uleb128 0x6
 2412 0013 00       		.byte	0x0
 2413 0014 00       		.byte	0x0
 2414 0015 02       		.uleb128 0x2
ARM GAS  C:\Users\z80\AppData\Local\Temp\ccOsHSOe.s 			page 44


 2415 0016 24       		.uleb128 0x24
 2416 0017 00       		.byte	0x0
 2417 0018 0B       		.uleb128 0xb
 2418 0019 0B       		.uleb128 0xb
 2419 001a 3E       		.uleb128 0x3e
 2420 001b 0B       		.uleb128 0xb
 2421 001c 03       		.uleb128 0x3
 2422 001d 08       		.uleb128 0x8
 2423 001e 00       		.byte	0x0
 2424 001f 00       		.byte	0x0
 2425 0020 03       		.uleb128 0x3
 2426 0021 16       		.uleb128 0x16
 2427 0022 00       		.byte	0x0
 2428 0023 03       		.uleb128 0x3
 2429 0024 0E       		.uleb128 0xe
 2430 0025 3A       		.uleb128 0x3a
 2431 0026 0B       		.uleb128 0xb
 2432 0027 3B       		.uleb128 0x3b
 2433 0028 0B       		.uleb128 0xb
 2434 0029 49       		.uleb128 0x49
 2435 002a 13       		.uleb128 0x13
 2436 002b 00       		.byte	0x0
 2437 002c 00       		.byte	0x0
 2438 002d 04       		.uleb128 0x4
 2439 002e 24       		.uleb128 0x24
 2440 002f 00       		.byte	0x0
 2441 0030 0B       		.uleb128 0xb
 2442 0031 0B       		.uleb128 0xb
 2443 0032 3E       		.uleb128 0x3e
 2444 0033 0B       		.uleb128 0xb
 2445 0034 03       		.uleb128 0x3
 2446 0035 0E       		.uleb128 0xe
 2447 0036 00       		.byte	0x0
 2448 0037 00       		.byte	0x0
 2449 0038 05       		.uleb128 0x5
 2450 0039 0F       		.uleb128 0xf
 2451 003a 00       		.byte	0x0
 2452 003b 0B       		.uleb128 0xb
 2453 003c 0B       		.uleb128 0xb
 2454 003d 00       		.byte	0x0
 2455 003e 00       		.byte	0x0
 2456 003f 06       		.uleb128 0x6
 2457 0040 35       		.uleb128 0x35
 2458 0041 00       		.byte	0x0
 2459 0042 49       		.uleb128 0x49
 2460 0043 13       		.uleb128 0x13
 2461 0044 00       		.byte	0x0
 2462 0045 00       		.byte	0x0
 2463 0046 07       		.uleb128 0x7
 2464 0047 24       		.uleb128 0x24
 2465 0048 00       		.byte	0x0
 2466 0049 0B       		.uleb128 0xb
 2467 004a 0B       		.uleb128 0xb
 2468 004b 3E       		.uleb128 0x3e
 2469 004c 0B       		.uleb128 0xb
 2470 004d 00       		.byte	0x0
 2471 004e 00       		.byte	0x0
ARM GAS  C:\Users\z80\AppData\Local\Temp\ccOsHSOe.s 			page 45


 2472 004f 08       		.uleb128 0x8
 2473 0050 13       		.uleb128 0x13
 2474 0051 01       		.byte	0x1
 2475 0052 0B       		.uleb128 0xb
 2476 0053 0B       		.uleb128 0xb
 2477 0054 3A       		.uleb128 0x3a
 2478 0055 0B       		.uleb128 0xb
 2479 0056 3B       		.uleb128 0x3b
 2480 0057 05       		.uleb128 0x5
 2481 0058 01       		.uleb128 0x1
 2482 0059 13       		.uleb128 0x13
 2483 005a 00       		.byte	0x0
 2484 005b 00       		.byte	0x0
 2485 005c 09       		.uleb128 0x9
 2486 005d 0D       		.uleb128 0xd
 2487 005e 00       		.byte	0x0
 2488 005f 03       		.uleb128 0x3
 2489 0060 08       		.uleb128 0x8
 2490 0061 3A       		.uleb128 0x3a
 2491 0062 0B       		.uleb128 0xb
 2492 0063 3B       		.uleb128 0x3b
 2493 0064 05       		.uleb128 0x5
 2494 0065 49       		.uleb128 0x49
 2495 0066 13       		.uleb128 0x13
 2496 0067 38       		.uleb128 0x38
 2497 0068 0A       		.uleb128 0xa
 2498 0069 00       		.byte	0x0
 2499 006a 00       		.byte	0x0
 2500 006b 0A       		.uleb128 0xa
 2501 006c 0D       		.uleb128 0xd
 2502 006d 00       		.byte	0x0
 2503 006e 03       		.uleb128 0x3
 2504 006f 0E       		.uleb128 0xe
 2505 0070 3A       		.uleb128 0x3a
 2506 0071 0B       		.uleb128 0xb
 2507 0072 3B       		.uleb128 0x3b
 2508 0073 05       		.uleb128 0x5
 2509 0074 49       		.uleb128 0x49
 2510 0075 13       		.uleb128 0x13
 2511 0076 38       		.uleb128 0x38
 2512 0077 0A       		.uleb128 0xa
 2513 0078 00       		.byte	0x0
 2514 0079 00       		.byte	0x0
 2515 007a 0B       		.uleb128 0xb
 2516 007b 16       		.uleb128 0x16
 2517 007c 00       		.byte	0x0
 2518 007d 03       		.uleb128 0x3
 2519 007e 0E       		.uleb128 0xe
 2520 007f 3A       		.uleb128 0x3a
 2521 0080 0B       		.uleb128 0xb
 2522 0081 3B       		.uleb128 0x3b
 2523 0082 05       		.uleb128 0x5
 2524 0083 49       		.uleb128 0x49
 2525 0084 13       		.uleb128 0x13
 2526 0085 00       		.byte	0x0
 2527 0086 00       		.byte	0x0
 2528 0087 0C       		.uleb128 0xc
ARM GAS  C:\Users\z80\AppData\Local\Temp\ccOsHSOe.s 			page 46


 2529 0088 13       		.uleb128 0x13
 2530 0089 01       		.byte	0x1
 2531 008a 0B       		.uleb128 0xb
 2532 008b 0B       		.uleb128 0xb
 2533 008c 3A       		.uleb128 0x3a
 2534 008d 0B       		.uleb128 0xb
 2535 008e 3B       		.uleb128 0x3b
 2536 008f 0B       		.uleb128 0xb
 2537 0090 01       		.uleb128 0x1
 2538 0091 13       		.uleb128 0x13
 2539 0092 00       		.byte	0x0
 2540 0093 00       		.byte	0x0
 2541 0094 0D       		.uleb128 0xd
 2542 0095 0D       		.uleb128 0xd
 2543 0096 00       		.byte	0x0
 2544 0097 03       		.uleb128 0x3
 2545 0098 0E       		.uleb128 0xe
 2546 0099 3A       		.uleb128 0x3a
 2547 009a 0B       		.uleb128 0xb
 2548 009b 3B       		.uleb128 0x3b
 2549 009c 0B       		.uleb128 0xb
 2550 009d 49       		.uleb128 0x49
 2551 009e 13       		.uleb128 0x13
 2552 009f 38       		.uleb128 0x38
 2553 00a0 0A       		.uleb128 0xa
 2554 00a1 00       		.byte	0x0
 2555 00a2 00       		.byte	0x0
 2556 00a3 0E       		.uleb128 0xe
 2557 00a4 0F       		.uleb128 0xf
 2558 00a5 00       		.byte	0x0
 2559 00a6 0B       		.uleb128 0xb
 2560 00a7 0B       		.uleb128 0xb
 2561 00a8 49       		.uleb128 0x49
 2562 00a9 13       		.uleb128 0x13
 2563 00aa 00       		.byte	0x0
 2564 00ab 00       		.byte	0x0
 2565 00ac 0F       		.uleb128 0xf
 2566 00ad 15       		.uleb128 0x15
 2567 00ae 01       		.byte	0x1
 2568 00af 27       		.uleb128 0x27
 2569 00b0 0C       		.uleb128 0xc
 2570 00b1 01       		.uleb128 0x1
 2571 00b2 13       		.uleb128 0x13
 2572 00b3 00       		.byte	0x0
 2573 00b4 00       		.byte	0x0
 2574 00b5 10       		.uleb128 0x10
 2575 00b6 05       		.uleb128 0x5
 2576 00b7 00       		.byte	0x0
 2577 00b8 49       		.uleb128 0x49
 2578 00b9 13       		.uleb128 0x13
 2579 00ba 00       		.byte	0x0
 2580 00bb 00       		.byte	0x0
 2581 00bc 11       		.uleb128 0x11
 2582 00bd 26       		.uleb128 0x26
 2583 00be 00       		.byte	0x0
 2584 00bf 49       		.uleb128 0x49
 2585 00c0 13       		.uleb128 0x13
ARM GAS  C:\Users\z80\AppData\Local\Temp\ccOsHSOe.s 			page 47


 2586 00c1 00       		.byte	0x0
 2587 00c2 00       		.byte	0x0
 2588 00c3 12       		.uleb128 0x12
 2589 00c4 04       		.uleb128 0x4
 2590 00c5 01       		.byte	0x1
 2591 00c6 0B       		.uleb128 0xb
 2592 00c7 0B       		.uleb128 0xb
 2593 00c8 3A       		.uleb128 0x3a
 2594 00c9 0B       		.uleb128 0xb
 2595 00ca 3B       		.uleb128 0x3b
 2596 00cb 0B       		.uleb128 0xb
 2597 00cc 01       		.uleb128 0x1
 2598 00cd 13       		.uleb128 0x13
 2599 00ce 00       		.byte	0x0
 2600 00cf 00       		.byte	0x0
 2601 00d0 13       		.uleb128 0x13
 2602 00d1 28       		.uleb128 0x28
 2603 00d2 00       		.byte	0x0
 2604 00d3 03       		.uleb128 0x3
 2605 00d4 0E       		.uleb128 0xe
 2606 00d5 1C       		.uleb128 0x1c
 2607 00d6 0D       		.uleb128 0xd
 2608 00d7 00       		.byte	0x0
 2609 00d8 00       		.byte	0x0
 2610 00d9 14       		.uleb128 0x14
 2611 00da 13       		.uleb128 0x13
 2612 00db 01       		.byte	0x1
 2613 00dc 03       		.uleb128 0x3
 2614 00dd 0E       		.uleb128 0xe
 2615 00de 0B       		.uleb128 0xb
 2616 00df 0B       		.uleb128 0xb
 2617 00e0 3A       		.uleb128 0x3a
 2618 00e1 0B       		.uleb128 0xb
 2619 00e2 3B       		.uleb128 0x3b
 2620 00e3 05       		.uleb128 0x5
 2621 00e4 01       		.uleb128 0x1
 2622 00e5 13       		.uleb128 0x13
 2623 00e6 00       		.byte	0x0
 2624 00e7 00       		.byte	0x0
 2625 00e8 15       		.uleb128 0x15
 2626 00e9 2E       		.uleb128 0x2e
 2627 00ea 01       		.byte	0x1
 2628 00eb 03       		.uleb128 0x3
 2629 00ec 0E       		.uleb128 0xe
 2630 00ed 3A       		.uleb128 0x3a
 2631 00ee 0B       		.uleb128 0xb
 2632 00ef 3B       		.uleb128 0x3b
 2633 00f0 0B       		.uleb128 0xb
 2634 00f1 27       		.uleb128 0x27
 2635 00f2 0C       		.uleb128 0xc
 2636 00f3 11       		.uleb128 0x11
 2637 00f4 01       		.uleb128 0x1
 2638 00f5 12       		.uleb128 0x12
 2639 00f6 01       		.uleb128 0x1
 2640 00f7 40       		.uleb128 0x40
 2641 00f8 06       		.uleb128 0x6
 2642 00f9 01       		.uleb128 0x1
ARM GAS  C:\Users\z80\AppData\Local\Temp\ccOsHSOe.s 			page 48


 2643 00fa 13       		.uleb128 0x13
 2644 00fb 00       		.byte	0x0
 2645 00fc 00       		.byte	0x0
 2646 00fd 16       		.uleb128 0x16
 2647 00fe 05       		.uleb128 0x5
 2648 00ff 00       		.byte	0x0
 2649 0100 03       		.uleb128 0x3
 2650 0101 0E       		.uleb128 0xe
 2651 0102 3A       		.uleb128 0x3a
 2652 0103 0B       		.uleb128 0xb
 2653 0104 3B       		.uleb128 0x3b
 2654 0105 0B       		.uleb128 0xb
 2655 0106 49       		.uleb128 0x49
 2656 0107 13       		.uleb128 0x13
 2657 0108 02       		.uleb128 0x2
 2658 0109 0A       		.uleb128 0xa
 2659 010a 00       		.byte	0x0
 2660 010b 00       		.byte	0x0
 2661 010c 17       		.uleb128 0x17
 2662 010d 2E       		.uleb128 0x2e
 2663 010e 00       		.byte	0x0
 2664 010f 3F       		.uleb128 0x3f
 2665 0110 0C       		.uleb128 0xc
 2666 0111 03       		.uleb128 0x3
 2667 0112 0E       		.uleb128 0xe
 2668 0113 3A       		.uleb128 0x3a
 2669 0114 0B       		.uleb128 0xb
 2670 0115 3B       		.uleb128 0x3b
 2671 0116 0B       		.uleb128 0xb
 2672 0117 27       		.uleb128 0x27
 2673 0118 0C       		.uleb128 0xc
 2674 0119 11       		.uleb128 0x11
 2675 011a 01       		.uleb128 0x1
 2676 011b 12       		.uleb128 0x12
 2677 011c 01       		.uleb128 0x1
 2678 011d 40       		.uleb128 0x40
 2679 011e 06       		.uleb128 0x6
 2680 011f 00       		.byte	0x0
 2681 0120 00       		.byte	0x0
 2682 0121 18       		.uleb128 0x18
 2683 0122 2E       		.uleb128 0x2e
 2684 0123 01       		.byte	0x1
 2685 0124 3F       		.uleb128 0x3f
 2686 0125 0C       		.uleb128 0xc
 2687 0126 03       		.uleb128 0x3
 2688 0127 0E       		.uleb128 0xe
 2689 0128 3A       		.uleb128 0x3a
 2690 0129 0B       		.uleb128 0xb
 2691 012a 3B       		.uleb128 0x3b
 2692 012b 0B       		.uleb128 0xb
 2693 012c 27       		.uleb128 0x27
 2694 012d 0C       		.uleb128 0xc
 2695 012e 11       		.uleb128 0x11
 2696 012f 01       		.uleb128 0x1
 2697 0130 12       		.uleb128 0x12
 2698 0131 01       		.uleb128 0x1
 2699 0132 40       		.uleb128 0x40
ARM GAS  C:\Users\z80\AppData\Local\Temp\ccOsHSOe.s 			page 49


 2700 0133 06       		.uleb128 0x6
 2701 0134 01       		.uleb128 0x1
 2702 0135 13       		.uleb128 0x13
 2703 0136 00       		.byte	0x0
 2704 0137 00       		.byte	0x0
 2705 0138 19       		.uleb128 0x19
 2706 0139 0B       		.uleb128 0xb
 2707 013a 01       		.byte	0x1
 2708 013b 11       		.uleb128 0x11
 2709 013c 01       		.uleb128 0x1
 2710 013d 12       		.uleb128 0x12
 2711 013e 01       		.uleb128 0x1
 2712 013f 01       		.uleb128 0x1
 2713 0140 13       		.uleb128 0x13
 2714 0141 00       		.byte	0x0
 2715 0142 00       		.byte	0x0
 2716 0143 1A       		.uleb128 0x1a
 2717 0144 34       		.uleb128 0x34
 2718 0145 00       		.byte	0x0
 2719 0146 03       		.uleb128 0x3
 2720 0147 08       		.uleb128 0x8
 2721 0148 3A       		.uleb128 0x3a
 2722 0149 0B       		.uleb128 0xb
 2723 014a 3B       		.uleb128 0x3b
 2724 014b 0B       		.uleb128 0xb
 2725 014c 49       		.uleb128 0x49
 2726 014d 13       		.uleb128 0x13
 2727 014e 02       		.uleb128 0x2
 2728 014f 0A       		.uleb128 0xa
 2729 0150 00       		.byte	0x0
 2730 0151 00       		.byte	0x0
 2731 0152 1B       		.uleb128 0x1b
 2732 0153 0B       		.uleb128 0xb
 2733 0154 01       		.byte	0x1
 2734 0155 11       		.uleb128 0x11
 2735 0156 01       		.uleb128 0x1
 2736 0157 12       		.uleb128 0x12
 2737 0158 01       		.uleb128 0x1
 2738 0159 00       		.byte	0x0
 2739 015a 00       		.byte	0x0
 2740 015b 1C       		.uleb128 0x1c
 2741 015c 2E       		.uleb128 0x2e
 2742 015d 01       		.byte	0x1
 2743 015e 3F       		.uleb128 0x3f
 2744 015f 0C       		.uleb128 0xc
 2745 0160 03       		.uleb128 0x3
 2746 0161 0E       		.uleb128 0xe
 2747 0162 3A       		.uleb128 0x3a
 2748 0163 0B       		.uleb128 0xb
 2749 0164 3B       		.uleb128 0x3b
 2750 0165 05       		.uleb128 0x5
 2751 0166 27       		.uleb128 0x27
 2752 0167 0C       		.uleb128 0xc
 2753 0168 11       		.uleb128 0x11
 2754 0169 01       		.uleb128 0x1
 2755 016a 12       		.uleb128 0x12
 2756 016b 01       		.uleb128 0x1
ARM GAS  C:\Users\z80\AppData\Local\Temp\ccOsHSOe.s 			page 50


 2757 016c 40       		.uleb128 0x40
 2758 016d 06       		.uleb128 0x6
 2759 016e 01       		.uleb128 0x1
 2760 016f 13       		.uleb128 0x13
 2761 0170 00       		.byte	0x0
 2762 0171 00       		.byte	0x0
 2763 0172 1D       		.uleb128 0x1d
 2764 0173 05       		.uleb128 0x5
 2765 0174 00       		.byte	0x0
 2766 0175 03       		.uleb128 0x3
 2767 0176 0E       		.uleb128 0xe
 2768 0177 3A       		.uleb128 0x3a
 2769 0178 0B       		.uleb128 0xb
 2770 0179 3B       		.uleb128 0x3b
 2771 017a 05       		.uleb128 0x5
 2772 017b 49       		.uleb128 0x49
 2773 017c 13       		.uleb128 0x13
 2774 017d 02       		.uleb128 0x2
 2775 017e 0A       		.uleb128 0xa
 2776 017f 00       		.byte	0x0
 2777 0180 00       		.byte	0x0
 2778 0181 1E       		.uleb128 0x1e
 2779 0182 05       		.uleb128 0x5
 2780 0183 00       		.byte	0x0
 2781 0184 03       		.uleb128 0x3
 2782 0185 08       		.uleb128 0x8
 2783 0186 3A       		.uleb128 0x3a
 2784 0187 0B       		.uleb128 0xb
 2785 0188 3B       		.uleb128 0x3b
 2786 0189 05       		.uleb128 0x5
 2787 018a 49       		.uleb128 0x49
 2788 018b 13       		.uleb128 0x13
 2789 018c 02       		.uleb128 0x2
 2790 018d 0A       		.uleb128 0xa
 2791 018e 00       		.byte	0x0
 2792 018f 00       		.byte	0x0
 2793 0190 1F       		.uleb128 0x1f
 2794 0191 26       		.uleb128 0x26
 2795 0192 00       		.byte	0x0
 2796 0193 00       		.byte	0x0
 2797 0194 00       		.byte	0x0
 2798 0195 20       		.uleb128 0x20
 2799 0196 2E       		.uleb128 0x2e
 2800 0197 01       		.byte	0x1
 2801 0198 3F       		.uleb128 0x3f
 2802 0199 0C       		.uleb128 0xc
 2803 019a 03       		.uleb128 0x3
 2804 019b 0E       		.uleb128 0xe
 2805 019c 3A       		.uleb128 0x3a
 2806 019d 0B       		.uleb128 0xb
 2807 019e 3B       		.uleb128 0x3b
 2808 019f 05       		.uleb128 0x5
 2809 01a0 27       		.uleb128 0x27
 2810 01a1 0C       		.uleb128 0xc
 2811 01a2 49       		.uleb128 0x49
 2812 01a3 13       		.uleb128 0x13
 2813 01a4 11       		.uleb128 0x11
ARM GAS  C:\Users\z80\AppData\Local\Temp\ccOsHSOe.s 			page 51


 2814 01a5 01       		.uleb128 0x1
 2815 01a6 12       		.uleb128 0x12
 2816 01a7 01       		.uleb128 0x1
 2817 01a8 40       		.uleb128 0x40
 2818 01a9 06       		.uleb128 0x6
 2819 01aa 01       		.uleb128 0x1
 2820 01ab 13       		.uleb128 0x13
 2821 01ac 00       		.byte	0x0
 2822 01ad 00       		.byte	0x0
 2823 01ae 21       		.uleb128 0x21
 2824 01af 34       		.uleb128 0x34
 2825 01b0 00       		.byte	0x0
 2826 01b1 03       		.uleb128 0x3
 2827 01b2 0E       		.uleb128 0xe
 2828 01b3 3A       		.uleb128 0x3a
 2829 01b4 0B       		.uleb128 0xb
 2830 01b5 3B       		.uleb128 0x3b
 2831 01b6 05       		.uleb128 0x5
 2832 01b7 49       		.uleb128 0x49
 2833 01b8 13       		.uleb128 0x13
 2834 01b9 3F       		.uleb128 0x3f
 2835 01ba 0C       		.uleb128 0xc
 2836 01bb 3C       		.uleb128 0x3c
 2837 01bc 0C       		.uleb128 0xc
 2838 01bd 00       		.byte	0x0
 2839 01be 00       		.byte	0x0
 2840 01bf 22       		.uleb128 0x22
 2841 01c0 01       		.uleb128 0x1
 2842 01c1 01       		.byte	0x1
 2843 01c2 49       		.uleb128 0x49
 2844 01c3 13       		.uleb128 0x13
 2845 01c4 01       		.uleb128 0x1
 2846 01c5 13       		.uleb128 0x13
 2847 01c6 00       		.byte	0x0
 2848 01c7 00       		.byte	0x0
 2849 01c8 23       		.uleb128 0x23
 2850 01c9 21       		.uleb128 0x21
 2851 01ca 00       		.byte	0x0
 2852 01cb 49       		.uleb128 0x49
 2853 01cc 13       		.uleb128 0x13
 2854 01cd 2F       		.uleb128 0x2f
 2855 01ce 0B       		.uleb128 0xb
 2856 01cf 00       		.byte	0x0
 2857 01d0 00       		.byte	0x0
 2858 01d1 24       		.uleb128 0x24
 2859 01d2 34       		.uleb128 0x34
 2860 01d3 00       		.byte	0x0
 2861 01d4 03       		.uleb128 0x3
 2862 01d5 0E       		.uleb128 0xe
 2863 01d6 3A       		.uleb128 0x3a
 2864 01d7 0B       		.uleb128 0xb
 2865 01d8 3B       		.uleb128 0x3b
 2866 01d9 0B       		.uleb128 0xb
 2867 01da 49       		.uleb128 0x49
 2868 01db 13       		.uleb128 0x13
 2869 01dc 02       		.uleb128 0x2
 2870 01dd 0A       		.uleb128 0xa
ARM GAS  C:\Users\z80\AppData\Local\Temp\ccOsHSOe.s 			page 52


 2871 01de 00       		.byte	0x0
 2872 01df 00       		.byte	0x0
 2873 01e0 25       		.uleb128 0x25
 2874 01e1 34       		.uleb128 0x34
 2875 01e2 00       		.byte	0x0
 2876 01e3 03       		.uleb128 0x3
 2877 01e4 0E       		.uleb128 0xe
 2878 01e5 3A       		.uleb128 0x3a
 2879 01e6 0B       		.uleb128 0xb
 2880 01e7 3B       		.uleb128 0x3b
 2881 01e8 0B       		.uleb128 0xb
 2882 01e9 49       		.uleb128 0x49
 2883 01ea 13       		.uleb128 0x13
 2884 01eb 3F       		.uleb128 0x3f
 2885 01ec 0C       		.uleb128 0xc
 2886 01ed 02       		.uleb128 0x2
 2887 01ee 0A       		.uleb128 0xa
 2888 01ef 00       		.byte	0x0
 2889 01f0 00       		.byte	0x0
 2890 01f1 00       		.byte	0x0
 2891              		.section	.debug_pubnames,"",%progbits
 2892 0000 E7000000 		.4byte	0xe7
 2893 0004 0200     		.2byte	0x2
 2894 0006 00000000 		.4byte	.Ldebug_info0
 2895 000a BB080000 		.4byte	0x8bb
 2896 000e BF050000 		.4byte	0x5bf
 2897 0012 7370695F 		.ascii	"spi_lld_init\000"
 2897      6C6C645F 
 2897      696E6974 
 2897      00
 2898 001f D4050000 		.4byte	0x5d4
 2899 0023 7370695F 		.ascii	"spi_lld_start\000"
 2899      6C6C645F 
 2899      73746172 
 2899      7400
 2900 0031 2C060000 		.4byte	0x62c
 2901 0035 7370695F 		.ascii	"spi_lld_stop\000"
 2901      6C6C645F 
 2901      73746F70 
 2901      00
 2902 0042 56060000 		.4byte	0x656
 2903 0046 7370695F 		.ascii	"spi_lld_select\000"
 2903      6C6C645F 
 2903      73656C65 
 2903      637400
 2904 0055 80060000 		.4byte	0x680
 2905 0059 7370695F 		.ascii	"spi_lld_unselect\000"
 2905      6C6C645F 
 2905      756E7365 
 2905      6C656374 
 2905      00
 2906 006a AA060000 		.4byte	0x6aa
 2907 006e 7370695F 		.ascii	"spi_lld_ignore\000"
 2907      6C6C645F 
 2907      69676E6F 
 2907      726500
 2908 007d E1060000 		.4byte	0x6e1
ARM GAS  C:\Users\z80\AppData\Local\Temp\ccOsHSOe.s 			page 53


 2909 0081 7370695F 		.ascii	"spi_lld_exchange\000"
 2909      6C6C645F 
 2909      65786368 
 2909      616E6765 
 2909      00
 2910 0092 3D070000 		.4byte	0x73d
 2911 0096 7370695F 		.ascii	"spi_lld_send\000"
 2911      6C6C645F 
 2911      73656E64 
 2911      00
 2912 00a3 83070000 		.4byte	0x783
 2913 00a7 7370695F 		.ascii	"spi_lld_receive\000"
 2913      6C6C645F 
 2913      72656365 
 2913      69766500 
 2914 00b7 C9070000 		.4byte	0x7c9
 2915 00bb 7370695F 		.ascii	"spi_lld_polled_exchange\000"
 2915      6C6C645F 
 2915      706F6C6C 
 2915      65645F65 
 2915      78636861 
 2916 00d3 96080000 		.4byte	0x896
 2917 00d7 53504944 		.ascii	"SPID1\000"
 2917      3100
 2918 00dd A8080000 		.4byte	0x8a8
 2919 00e1 53504944 		.ascii	"SPID2\000"
 2919      3200
 2920 00e7 00000000 		.4byte	0x0
 2921              		.section	.debug_pubtypes,"",%progbits
 2922 0000 34010000 		.4byte	0x134
 2923 0004 0200     		.2byte	0x2
 2924 0006 00000000 		.4byte	.Ldebug_info0
 2925 000a BB080000 		.4byte	0x8bb
 2926 000e 30000000 		.4byte	0x30
 2927 0012 73697A65 		.ascii	"size_t\000"
 2927      5F7400
 2928 0019 49000000 		.4byte	0x49
 2929 001d 75696E74 		.ascii	"uint8_t\000"
 2929      385F7400 
 2930 0025 62000000 		.4byte	0x62
 2931 0029 75696E74 		.ascii	"uint16_t\000"
 2931      31365F74 
 2931      00
 2932 0032 74000000 		.4byte	0x74
 2933 0036 696E7433 		.ascii	"int32_t\000"
 2933      325F7400 
 2934 003e 86000000 		.4byte	0x86
 2935 0042 75696E74 		.ascii	"uint32_t\000"
 2935      33325F74 
 2935      00
 2936 004b A6000000 		.4byte	0xa6
 2937 004f 626F6F6C 		.ascii	"bool_t\000"
 2937      5F7400
 2938 0056 12010000 		.4byte	0x112
 2939 005a 444D415F 		.ascii	"DMA_Channel_TypeDef\000"
 2939      4368616E 
 2939      6E656C5F 
ARM GAS  C:\Users\z80\AppData\Local\Temp\ccOsHSOe.s 			page 54


 2939      54797065 
 2939      44656600 
 2940 006e 91010000 		.4byte	0x191
 2941 0072 4750494F 		.ascii	"GPIO_TypeDef\000"
 2941      5F547970 
 2941      65446566 
 2941      00
 2942 007f 3C020000 		.4byte	0x23c
 2943 0083 5243435F 		.ascii	"RCC_TypeDef\000"
 2943      54797065 
 2943      44656600 
 2944 008f 5E030000 		.4byte	0x35e
 2945 0093 5350495F 		.ascii	"SPI_TypeDef\000"
 2945      54797065 
 2945      44656600 
 2946 009f C5030000 		.4byte	0x3c5
 2947 00a3 73746D33 		.ascii	"stm32_dma_stream_t\000"
 2947      325F646D 
 2947      615F7374 
 2947      7265616D 
 2947      5F7400
 2948 00b6 D0030000 		.4byte	0x3d0
 2949 00ba 73746D33 		.ascii	"stm32_dmaisr_t\000"
 2949      325F646D 
 2949      61697372 
 2949      5F7400
 2950 00c9 F2030000 		.4byte	0x3f2
 2951 00cd 696F706F 		.ascii	"ioportmask_t\000"
 2951      72746D61 
 2951      736B5F74 
 2951      00
 2952 00da FD030000 		.4byte	0x3fd
 2953 00de 696F706F 		.ascii	"ioportid_t\000"
 2953      72746964 
 2953      5F7400
 2954 00e9 40040000 		.4byte	0x440
 2955 00ed 73706973 		.ascii	"spistate_t\000"
 2955      74617465 
 2955      5F7400
 2956 00f8 4B040000 		.4byte	0x44b
 2957 00fc 53504944 		.ascii	"SPIDriver\000"
 2957      72697665 
 2957      7200
 2958 0106 CE040000 		.4byte	0x4ce
 2959 010a 73706963 		.ascii	"spicallback_t\000"
 2959      616C6C62 
 2959      61636B5F 
 2959      7400
 2960 0118 38050000 		.4byte	0x538
 2961 011c 53504943 		.ascii	"SPIConfig\000"
 2961      6F6E6669 
 2961      6700
 2962 0126 57040000 		.4byte	0x457
 2963 012a 53504944 		.ascii	"SPIDriver\000"
 2963      72697665 
 2963      7200
 2964 0134 00000000 		.4byte	0x0
ARM GAS  C:\Users\z80\AppData\Local\Temp\ccOsHSOe.s 			page 55


 2965              		.section	.debug_aranges,"",%progbits
 2966 0000 74000000 		.4byte	0x74
 2967 0004 0200     		.2byte	0x2
 2968 0006 00000000 		.4byte	.Ldebug_info0
 2969 000a 04       		.byte	0x4
 2970 000b 00       		.byte	0x0
 2971 000c 0000     		.2byte	0x0
 2972 000e 0000     		.2byte	0x0
 2973 0010 00000000 		.4byte	.LFB62
 2974 0014 A4000000 		.4byte	.LFE62-.LFB62
 2975 0018 00000000 		.4byte	.LFB63
 2976 001c 1A000000 		.4byte	.LFE63-.LFB63
 2977 0020 00000000 		.4byte	.LFB64
 2978 0024 C8000000 		.4byte	.LFE64-.LFB64
 2979 0028 00000000 		.4byte	.LFB65
 2980 002c C2010000 		.4byte	.LFE65-.LFB65
 2981 0030 00000000 		.4byte	.LFB66
 2982 0034 7C000000 		.4byte	.LFE66-.LFB66
 2983 0038 00000000 		.4byte	.LFB67
 2984 003c 1E000000 		.4byte	.LFE67-.LFB67
 2985 0040 00000000 		.4byte	.LFB68
 2986 0044 1E000000 		.4byte	.LFE68-.LFB68
 2987 0048 00000000 		.4byte	.LFB69
 2988 004c 7E000000 		.4byte	.LFE69-.LFB69
 2989 0050 00000000 		.4byte	.LFB70
 2990 0054 7E000000 		.4byte	.LFE70-.LFB70
 2991 0058 00000000 		.4byte	.LFB71
 2992 005c 7E000000 		.4byte	.LFE71-.LFB71
 2993 0060 00000000 		.4byte	.LFB72
 2994 0064 7E000000 		.4byte	.LFE72-.LFB72
 2995 0068 00000000 		.4byte	.LFB73
 2996 006c 34000000 		.4byte	.LFE73-.LFB73
 2997 0070 00000000 		.4byte	0x0
 2998 0074 00000000 		.4byte	0x0
 2999              		.section	.debug_ranges,"",%progbits
 3000              	.Ldebug_ranges0:
 3001 0000 00000000 		.4byte	.LFB62
 3002 0004 A4000000 		.4byte	.LFE62
 3003 0008 00000000 		.4byte	.LFB63
 3004 000c 1A000000 		.4byte	.LFE63
 3005 0010 00000000 		.4byte	.LFB64
 3006 0014 C8000000 		.4byte	.LFE64
 3007 0018 00000000 		.4byte	.LFB65
 3008 001c C2010000 		.4byte	.LFE65
 3009 0020 00000000 		.4byte	.LFB66
 3010 0024 7C000000 		.4byte	.LFE66
 3011 0028 00000000 		.4byte	.LFB67
 3012 002c 1E000000 		.4byte	.LFE67
 3013 0030 00000000 		.4byte	.LFB68
 3014 0034 1E000000 		.4byte	.LFE68
 3015 0038 00000000 		.4byte	.LFB69
 3016 003c 7E000000 		.4byte	.LFE69
 3017 0040 00000000 		.4byte	.LFB70
 3018 0044 7E000000 		.4byte	.LFE70
 3019 0048 00000000 		.4byte	.LFB71
 3020 004c 7E000000 		.4byte	.LFE71
 3021 0050 00000000 		.4byte	.LFB72
ARM GAS  C:\Users\z80\AppData\Local\Temp\ccOsHSOe.s 			page 56


 3022 0054 7E000000 		.4byte	.LFE72
 3023 0058 00000000 		.4byte	.LFB73
 3024 005c 34000000 		.4byte	.LFE73
 3025 0060 00000000 		.4byte	0x0
 3026 0064 00000000 		.4byte	0x0
 3027              		.section	.debug_str,"MS",%progbits,1
 3028              	.LASF22:
 3029 0000 4750494F 		.ascii	"GPIO_TypeDef\000"
 3029      5F547970 
 3029      65446566 
 3029      00
 3030              	.LASF71:
 3031 000d 73737061 		.ascii	"sspad\000"
 3031      6400
 3032              	.LASF30:
 3033 0013 5243435F 		.ascii	"RCC_TypeDef\000"
 3033      54797065 
 3033      44656600 
 3034              	.LASF64:
 3035 001f 646D6172 		.ascii	"dmarx\000"
 3035      7800
 3036              	.LASF72:
 3037 0025 53504943 		.ascii	"SPIConfig\000"
 3037      6F6E6669 
 3037      6700
 3038              	.LASF97:
 3039 002f 7370695F 		.ascii	"spi_lld_init\000"
 3039      6C6C645F 
 3039      696E6974 
 3039      00
 3040              	.LASF62:
 3041 003c 73746174 		.ascii	"state\000"
 3041      6500
 3042              	.LASF5:
 3043 0042 73686F72 		.ascii	"short int\000"
 3043      7420696E 
 3043      7400
 3044              	.LASF2:
 3045 004c 73697A65 		.ascii	"size_t\000"
 3045      5F7400
 3046              	.LASF29:
 3047 0053 42444352 		.ascii	"BDCR\000"
 3047      00
 3048              	.LASF79:
 3049 0058 7370695F 		.ascii	"spi_lld_select\000"
 3049      6C6C645F 
 3049      73656C65 
 3049      637400
 3050              	.LASF80:
 3051 0067 7370695F 		.ascii	"spi_lld_unselect\000"
 3051      6C6C645F 
 3051      756E7365 
 3051      6C656374 
 3051      00
 3052              	.LASF41:
 3053 0078 49325343 		.ascii	"I2SCFGR\000"
 3053      46475200 
ARM GAS  C:\Users\z80\AppData\Local\Temp\ccOsHSOe.s 			page 57


 3054              	.LASF39:
 3055 0080 54584352 		.ascii	"TXCRCR\000"
 3055      435200
 3056              	.LASF85:
 3057 0087 7370695F 		.ascii	"spi_lld_send\000"
 3057      6C6C645F 
 3057      73656E64 
 3057      00
 3058              	.LASF95:
 3059 0094 2E2E2F63 		.ascii	"../chibios_2.4.x/os/hal/platforms/STM32/spi_lld.c\000"
 3059      68696269 
 3059      6F735F32 
 3059      2E342E78 
 3059      2F6F732F 
 3060              	.LASF63:
 3061 00c6 636F6E66 		.ascii	"config\000"
 3061      696700
 3062              	.LASF23:
 3063 00cd 43464752 		.ascii	"CFGR\000"
 3063      00
 3064              	.LASF67:
 3065 00d2 7478646D 		.ascii	"txdmamode\000"
 3065      616D6F64 
 3065      6500
 3066              	.LASF51:
 3067 00dc 73746D33 		.ascii	"stm32_dma_stream_t\000"
 3067      325F646D 
 3067      615F7374 
 3067      7265616D 
 3067      5F7400
 3068              	.LASF3:
 3069 00ef 75696E74 		.ascii	"uint8_t\000"
 3069      385F7400 
 3070              	.LASF28:
 3071 00f7 41504231 		.ascii	"APB1ENR\000"
 3071      454E5200 
 3072              	.LASF50:
 3073 00ff 76656374 		.ascii	"vector\000"
 3073      6F7200
 3074              	.LASF53:
 3075 0106 696F706F 		.ascii	"ioportmask_t\000"
 3075      72746D61 
 3075      736B5F74 
 3075      00
 3076              	.LASF42:
 3077 0113 52455345 		.ascii	"RESERVED7\000"
 3077      52564544 
 3077      3700
 3078              	.LASF1:
 3079 011d 7369676E 		.ascii	"signed char\000"
 3079      65642063 
 3079      68617200 
 3080              	.LASF49:
 3081 0129 73656C66 		.ascii	"selfindex\000"
 3081      696E6465 
 3081      7800
 3082              	.LASF12:
ARM GAS  C:\Users\z80\AppData\Local\Temp\ccOsHSOe.s 			page 58


 3083 0133 6C6F6E67 		.ascii	"long long int\000"
 3083      206C6F6E 
 3083      6720696E 
 3083      7400
 3084              	.LASF9:
 3085 0141 6C6F6E67 		.ascii	"long int\000"
 3085      20696E74 
 3085      00
 3086              	.LASF92:
 3087 014a 64756D6D 		.ascii	"dummytx\000"
 3087      79747800 
 3088              	.LASF20:
 3089 0152 42535252 		.ascii	"BSRR\000"
 3089      00
 3090              	.LASF26:
 3091 0157 41484245 		.ascii	"AHBENR\000"
 3091      4E5200
 3092              	.LASF25:
 3093 015e 41504231 		.ascii	"APB1RSTR\000"
 3093      52535452 
 3093      00
 3094              	.LASF24:
 3095 0167 41504232 		.ascii	"APB2RSTR\000"
 3095      52535452 
 3095      00
 3096              	.LASF68:
 3097 0170 73706963 		.ascii	"spicallback_t\000"
 3097      616C6C62 
 3097      61636B5F 
 3097      7400
 3098              	.LASF17:
 3099 017e 43504152 		.ascii	"CPAR\000"
 3099      00
 3100              	.LASF47:
 3101 0183 69666372 		.ascii	"ifcr\000"
 3101      00
 3102              	.LASF54:
 3103 0188 696F706F 		.ascii	"ioportid_t\000"
 3103      72746964 
 3103      5F7400
 3104              	.LASF66:
 3105 0193 7278646D 		.ascii	"rxdmamode\000"
 3105      616D6F64 
 3105      6500
 3106              	.LASF4:
 3107 019d 756E7369 		.ascii	"unsigned char\000"
 3107      676E6564 
 3107      20636861 
 3107      7200
 3108              	.LASF73:
 3109 01ab 73706970 		.ascii	"spip\000"
 3109      00
 3110              	.LASF27:
 3111 01b0 41504232 		.ascii	"APB2ENR\000"
 3111      454E5200 
 3112              	.LASF74:
 3113 01b8 666C6167 		.ascii	"flags\000"
ARM GAS  C:\Users\z80\AppData\Local\Temp\ccOsHSOe.s 			page 59


 3113      7300
 3114              	.LASF13:
 3115 01be 6C6F6E67 		.ascii	"long long unsigned int\000"
 3115      206C6F6E 
 3115      6720756E 
 3115      7369676E 
 3115      65642069 
 3116              	.LASF10:
 3117 01d5 75696E74 		.ascii	"uint32_t\000"
 3117      33325F74 
 3117      00
 3118              	.LASF86:
 3119 01de 7370695F 		.ascii	"spi_lld_receive\000"
 3119      6C6C645F 
 3119      72656365 
 3119      69766500 
 3120              	.LASF0:
 3121 01ee 756E7369 		.ascii	"unsigned int\000"
 3121      676E6564 
 3121      20696E74 
 3121      00
 3122              	.LASF55:
 3123 01fb 5350495F 		.ascii	"SPI_UNINIT\000"
 3123      554E494E 
 3123      495400
 3124              	.LASF11:
 3125 0206 6C6F6E67 		.ascii	"long unsigned int\000"
 3125      20756E73 
 3125      69676E65 
 3125      6420696E 
 3125      7400
 3126              	.LASF65:
 3127 0218 646D6174 		.ascii	"dmatx\000"
 3127      7800
 3128              	.LASF98:
 3129 021e 7370695F 		.ascii	"spi_lld_polled_exchange\000"
 3129      6C6C645F 
 3129      706F6C6C 
 3129      65645F65 
 3129      78636861 
 3130              	.LASF45:
 3131 0236 5350495F 		.ascii	"SPI_TypeDef\000"
 3131      54797065 
 3131      44656600 
 3132              	.LASF56:
 3133 0242 5350495F 		.ascii	"SPI_STOP\000"
 3133      53544F50 
 3133      00
 3134              	.LASF19:
 3135 024b 444D415F 		.ascii	"DMA_Channel_TypeDef\000"
 3135      4368616E 
 3135      6E656C5F 
 3135      54797065 
 3135      44656600 
 3136              	.LASF83:
 3137 025f 74786275 		.ascii	"txbuf\000"
 3137      6600
ARM GAS  C:\Users\z80\AppData\Local\Temp\ccOsHSOe.s 			page 60


 3138              	.LASF87:
 3139 0265 6672616D 		.ascii	"frame\000"
 3139      6500
 3140              	.LASF59:
 3141 026b 5350495F 		.ascii	"SPI_COMPLETE\000"
 3141      434F4D50 
 3141      4C455445 
 3141      00
 3142              	.LASF16:
 3143 0278 434E4454 		.ascii	"CNDTR\000"
 3143      5200
 3144              	.LASF15:
 3145 027e 63686172 		.ascii	"char\000"
 3145      00
 3146              	.LASF6:
 3147 0283 75696E74 		.ascii	"uint16_t\000"
 3147      31365F74 
 3147      00
 3148              	.LASF8:
 3149 028c 696E7433 		.ascii	"int32_t\000"
 3149      325F7400 
 3150              	.LASF14:
 3151 0294 626F6F6C 		.ascii	"bool_t\000"
 3151      5F7400
 3152              	.LASF57:
 3153 029b 5350495F 		.ascii	"SPI_READY\000"
 3153      52454144 
 3153      5900
 3154              	.LASF58:
 3155 02a5 5350495F 		.ascii	"SPI_ACTIVE\000"
 3155      41435449 
 3155      564500
 3156              	.LASF52:
 3157 02b0 73746D33 		.ascii	"stm32_dmaisr_t\000"
 3157      325F646D 
 3157      61697372 
 3157      5F7400
 3158              	.LASF61:
 3159 02bf 53504944 		.ascii	"SPIDriver\000"
 3159      72697665 
 3159      7200
 3160              	.LASF46:
 3161 02c9 6368616E 		.ascii	"channel\000"
 3161      6E656C00 
 3162              	.LASF81:
 3163 02d1 7370695F 		.ascii	"spi_lld_ignore\000"
 3163      6C6C645F 
 3163      69676E6F 
 3163      726500
 3164              	.LASF35:
 3165 02e0 43524350 		.ascii	"CRCPR\000"
 3165      5200
 3166              	.LASF31:
 3167 02e6 52455345 		.ascii	"RESERVED0\000"
 3167      52564544 
 3167      3000
 3168              	.LASF32:
ARM GAS  C:\Users\z80\AppData\Local\Temp\ccOsHSOe.s 			page 61


 3169 02f0 52455345 		.ascii	"RESERVED1\000"
 3169      52564544 
 3169      3100
 3170              	.LASF33:
 3171 02fa 52455345 		.ascii	"RESERVED2\000"
 3171      52564544 
 3171      3200
 3172              	.LASF34:
 3173 0304 52455345 		.ascii	"RESERVED3\000"
 3173      52564544 
 3173      3300
 3174              	.LASF36:
 3175 030e 52455345 		.ascii	"RESERVED4\000"
 3175      52564544 
 3175      3400
 3176              	.LASF38:
 3177 0318 52455345 		.ascii	"RESERVED5\000"
 3177      52564544 
 3177      3500
 3178              	.LASF40:
 3179 0322 52455345 		.ascii	"RESERVED6\000"
 3179      52564544 
 3179      3600
 3180              	.LASF75:
 3181 032c 7370695F 		.ascii	"spi_lld_serve_rx_interrupt\000"
 3181      6C6C645F 
 3181      73657276 
 3181      655F7278 
 3181      5F696E74 
 3182              	.LASF44:
 3183 0347 52455345 		.ascii	"RESERVED8\000"
 3183      52564544 
 3183      3800
 3184              	.LASF96:
 3185 0351 433A5C70 		.ascii	"C:\\projects\\digitizer.git\\firmware\\digitizer\000"
 3185      726F6A65 
 3185      6374735C 
 3185      64696769 
 3185      74697A65 
 3186              	.LASF78:
 3187 037e 7370695F 		.ascii	"spi_lld_stop\000"
 3187      6C6C645F 
 3187      73746F70 
 3187      00
 3188              	.LASF90:
 3189 038b 53504944 		.ascii	"SPID1\000"
 3189      3100
 3190              	.LASF91:
 3191 0391 53504944 		.ascii	"SPID2\000"
 3191      3200
 3192              	.LASF94:
 3193 0397 474E5520 		.ascii	"GNU C 4.5.0\000"
 3193      4320342E 
 3193      352E3000 
 3194              	.LASF18:
 3195 03a3 434D4152 		.ascii	"CMAR\000"
 3195      00
ARM GAS  C:\Users\z80\AppData\Local\Temp\ccOsHSOe.s 			page 62


 3196              	.LASF77:
 3197 03a8 7370695F 		.ascii	"spi_lld_start\000"
 3197      6C6C645F 
 3197      73746172 
 3197      7400
 3198              	.LASF76:
 3199 03b6 7370695F 		.ascii	"spi_lld_serve_tx_interrupt\000"
 3199      6C6C645F 
 3199      73657276 
 3199      655F7478 
 3199      5F696E74 
 3200              	.LASF60:
 3201 03d1 73706973 		.ascii	"spistate_t\000"
 3201      74617465 
 3201      5F7400
 3202              	.LASF89:
 3203 03dc 5F73746D 		.ascii	"_stm32_dma_streams\000"
 3203      33325F64 
 3203      6D615F73 
 3203      74726561 
 3203      6D7300
 3204              	.LASF93:
 3205 03ef 64756D6D 		.ascii	"dummyrx\000"
 3205      79727800 
 3206              	.LASF82:
 3207 03f7 7370695F 		.ascii	"spi_lld_exchange\000"
 3207      6C6C645F 
 3207      65786368 
 3207      616E6765 
 3207      00
 3208              	.LASF84:
 3209 0408 72786275 		.ascii	"rxbuf\000"
 3209      6600
 3210              	.LASF48:
 3211 040e 69736869 		.ascii	"ishift\000"
 3211      667400
 3212              	.LASF88:
 3213 0415 49544D5F 		.ascii	"ITM_RxBuffer\000"
 3213      52784275 
 3213      66666572 
 3213      00
 3214              	.LASF70:
 3215 0422 7373706F 		.ascii	"ssport\000"
 3215      727400
 3216              	.LASF69:
 3217 0429 656E645F 		.ascii	"end_cb\000"
 3217      636200
 3218              	.LASF43:
 3219 0430 49325350 		.ascii	"I2SPR\000"
 3219      5200
 3220              	.LASF21:
 3221 0436 4C434B52 		.ascii	"LCKR\000"
 3221      00
 3222              	.LASF7:
 3223 043b 73686F72 		.ascii	"short unsigned int\000"
 3223      7420756E 
 3223      7369676E 
ARM GAS  C:\Users\z80\AppData\Local\Temp\ccOsHSOe.s 			page 63


 3223      65642069 
 3223      6E7400
 3224              	.LASF37:
 3225 044e 52584352 		.ascii	"RXCRCR\000"
 3225      435200
 3226              		.ident	"GCC: (GNU) 4.5.0"
ARM GAS  C:\Users\z80\AppData\Local\Temp\ccOsHSOe.s 			page 64


DEFINED SYMBOLS
                            *ABS*:00000000 spi_lld.c
C:\Users\z80\AppData\Local\Temp\ccOsHSOe.s:28     .bss.SPID1:00000000 SPID1
C:\Users\z80\AppData\Local\Temp\ccOsHSOe.s:25     .bss.SPID1:00000000 $d
C:\Users\z80\AppData\Local\Temp\ccOsHSOe.s:35     .bss.SPID2:00000000 SPID2
C:\Users\z80\AppData\Local\Temp\ccOsHSOe.s:32     .bss.SPID2:00000000 $d
C:\Users\z80\AppData\Local\Temp\ccOsHSOe.s:38     .bss.dummytx:00000000 $d
C:\Users\z80\AppData\Local\Temp\ccOsHSOe.s:41     .bss.dummytx:00000000 dummytx
C:\Users\z80\AppData\Local\Temp\ccOsHSOe.s:44     .bss.dummyrx:00000000 $d
C:\Users\z80\AppData\Local\Temp\ccOsHSOe.s:47     .bss.dummyrx:00000000 dummyrx
C:\Users\z80\AppData\Local\Temp\ccOsHSOe.s:50     .text.spi_lld_serve_rx_interrupt:00000000 $t
C:\Users\z80\AppData\Local\Temp\ccOsHSOe.s:55     .text.spi_lld_serve_rx_interrupt:00000000 spi_lld_serve_rx_interrupt
C:\Users\z80\AppData\Local\Temp\ccOsHSOe.s:154    .text.spi_lld_serve_tx_interrupt:00000000 $t
C:\Users\z80\AppData\Local\Temp\ccOsHSOe.s:159    .text.spi_lld_serve_tx_interrupt:00000000 spi_lld_serve_tx_interrupt
C:\Users\z80\AppData\Local\Temp\ccOsHSOe.s:189    .text.spi_lld_init:00000000 $t
C:\Users\z80\AppData\Local\Temp\ccOsHSOe.s:195    .text.spi_lld_init:00000000 spi_lld_init
C:\Users\z80\AppData\Local\Temp\ccOsHSOe.s:276    .text.spi_lld_init:000000b8 $d
C:\Users\z80\AppData\Local\Temp\ccOsHSOe.s:284    .rodata:00000000 $d
C:\Users\z80\AppData\Local\Temp\ccOsHSOe.s:285    .rodata:00000000 .LC0
C:\Users\z80\AppData\Local\Temp\ccOsHSOe.s:288    .rodata:00000014 .LC1
C:\Users\z80\AppData\Local\Temp\ccOsHSOe.s:291    .rodata:00000028 .LC2
C:\Users\z80\AppData\Local\Temp\ccOsHSOe.s:294    .rodata:0000003c .LC3
C:\Users\z80\AppData\Local\Temp\ccOsHSOe.s:297    .text.spi_lld_start:00000000 $t
C:\Users\z80\AppData\Local\Temp\ccOsHSOe.s:303    .text.spi_lld_start:00000000 spi_lld_start
C:\Users\z80\AppData\Local\Temp\ccOsHSOe.s:537    .text.spi_lld_stop:00000000 $t
C:\Users\z80\AppData\Local\Temp\ccOsHSOe.s:543    .text.spi_lld_stop:00000000 spi_lld_stop
C:\Users\z80\AppData\Local\Temp\ccOsHSOe.s:614    .text.spi_lld_select:00000000 $t
C:\Users\z80\AppData\Local\Temp\ccOsHSOe.s:620    .text.spi_lld_select:00000000 spi_lld_select
C:\Users\z80\AppData\Local\Temp\ccOsHSOe.s:648    .text.spi_lld_unselect:00000000 $t
C:\Users\z80\AppData\Local\Temp\ccOsHSOe.s:654    .text.spi_lld_unselect:00000000 spi_lld_unselect
C:\Users\z80\AppData\Local\Temp\ccOsHSOe.s:682    .text.spi_lld_ignore:00000000 $t
C:\Users\z80\AppData\Local\Temp\ccOsHSOe.s:688    .text.spi_lld_ignore:00000000 spi_lld_ignore
C:\Users\z80\AppData\Local\Temp\ccOsHSOe.s:767    .text.spi_lld_exchange:00000000 $t
C:\Users\z80\AppData\Local\Temp\ccOsHSOe.s:773    .text.spi_lld_exchange:00000000 spi_lld_exchange
C:\Users\z80\AppData\Local\Temp\ccOsHSOe.s:854    .text.spi_lld_send:00000000 $t
C:\Users\z80\AppData\Local\Temp\ccOsHSOe.s:860    .text.spi_lld_send:00000000 spi_lld_send
C:\Users\z80\AppData\Local\Temp\ccOsHSOe.s:940    .text.spi_lld_receive:00000000 $t
C:\Users\z80\AppData\Local\Temp\ccOsHSOe.s:946    .text.spi_lld_receive:00000000 spi_lld_receive
C:\Users\z80\AppData\Local\Temp\ccOsHSOe.s:1026   .text.spi_lld_polled_exchange:00000000 $t
C:\Users\z80\AppData\Local\Temp\ccOsHSOe.s:1032   .text.spi_lld_polled_exchange:00000000 spi_lld_polled_exchange
                     .debug_frame:00000010 $d
C:\Users\z80\AppData\Local\Temp\ccOsHSOe.s:283    .text.spi_lld_init:000000c8 $t

UNDEFINED SYMBOLS
port_halt
spiObjectInit
_stm32_dma_streams
dmaStreamAllocate
chDbgPanic
dmaStreamRelease
