ARM GAS  C:\Users\z80\AppData\Local\Temp\ccGPz5cQ.s 			page 1


   1              		.syntax unified
   2              		.cpu cortex-m3
   3              		.fpu softvfp
   4              		.eabi_attribute 20, 1
   5              		.eabi_attribute 21, 1
   6              		.eabi_attribute 23, 3
   7              		.eabi_attribute 24, 1
   8              		.eabi_attribute 25, 1
   9              		.eabi_attribute 26, 1
  10              		.eabi_attribute 30, 6
  11              		.eabi_attribute 34, 1
  12              		.eabi_attribute 18, 4
  13              		.thumb
  14              		.file	"spi_lld.c"
  15              		.text
  16              	.Ltext0:
  17              		.cfi_sections	.debug_frame
  18              		.global	SPID1
  19              		.section	.bss.SPID1,"aw",%nobits
  20              		.align	2
  21              		.type	SPID1, %object
  22              		.size	SPID1, 28
  23              	SPID1:
  24 0000 00000000 		.space	28
  24      00000000 
  24      00000000 
  24      00000000 
  24      00000000 
  25              		.global	SPID2
  26              		.section	.bss.SPID2,"aw",%nobits
  27              		.align	2
  28              		.type	SPID2, %object
  29              		.size	SPID2, 28
  30              	SPID2:
  31 0000 00000000 		.space	28
  31      00000000 
  31      00000000 
  31      00000000 
  31      00000000 
  32              		.section	.bss.dummytx,"aw",%nobits
  33              		.align	1
  34              		.type	dummytx, %object
  35              		.size	dummytx, 2
  36              	dummytx:
  37 0000 0000     		.space	2
  38              		.section	.bss.dummyrx,"aw",%nobits
  39              		.align	1
  40              		.type	dummyrx, %object
  41              		.size	dummyrx, 2
  42              	dummyrx:
  43 0000 0000     		.space	2
  44              		.section	.text.spi_lld_serve_rx_interrupt,"ax",%progbits
  45              		.align	2
  46              		.p2align 4,,15
  47              		.thumb
  48              		.thumb_func
  49              		.type	spi_lld_serve_rx_interrupt, %function
ARM GAS  C:\Users\z80\AppData\Local\Temp\ccGPz5cQ.s 			page 2


  50              	spi_lld_serve_rx_interrupt:
  51              	.LFB62:
  52              		.file 1 "../chibios_2.4.x/os/hal/platforms/STM32/spi_lld.c"
  53              		.loc 1 105 0
  54              		.cfi_startproc
  55              		@ args = 0, pretend = 0, frame = 8
  56              		@ frame_needed = 0, uses_anonymous_args = 0
  57 0000 00B5     		push	{lr}
  58              	.LCFI0:
  59              		.cfi_def_cfa_offset 4
  60              		.cfi_offset 14, -4
  61 0002 83B0     		sub	sp, sp, #12
  62              	.LCFI1:
  63              		.cfi_def_cfa_offset 16
  64 0004 0190     		str	r0, [sp, #4]
  65 0006 0091     		str	r1, [sp, #0]
  66              		.loc 1 109 0
  67 0008 009B     		ldr	r3, [sp, #0]
  68 000a 03F00803 		and	r3, r3, #8
  69 000e 002B     		cmp	r3, #0
  70 0010 01D0     		beq	.L2
  71              		.loc 1 110 0
  72 0012 FFF7FEFF 		bl	port_halt
  73              	.L2:
  74              		.loc 1 117 0
  75 0016 019B     		ldr	r3, [sp, #4]
  76 0018 1B69     		ldr	r3, [r3, #16]
  77 001a 1B68     		ldr	r3, [r3, #0]
  78 001c 019A     		ldr	r2, [sp, #4]
  79 001e 1269     		ldr	r2, [r2, #16]
  80 0020 1268     		ldr	r2, [r2, #0]
  81 0022 1268     		ldr	r2, [r2, #0]
  82 0024 22F00102 		bic	r2, r2, #1
  83 0028 1A60     		str	r2, [r3, #0]
  84 002a 019B     		ldr	r3, [sp, #4]
  85 002c 1B69     		ldr	r3, [r3, #16]
  86 002e 5B68     		ldr	r3, [r3, #4]
  87 0030 019A     		ldr	r2, [sp, #4]
  88 0032 1269     		ldr	r2, [r2, #16]
  89 0034 127A     		ldrb	r2, [r2, #8]	@ zero_extendqisi2
  90 0036 4FF00F01 		mov	r1, #15
  91 003a 01FA02F2 		lsl	r2, r1, r2
  92 003e 1A60     		str	r2, [r3, #0]
  93              		.loc 1 118 0
  94 0040 019B     		ldr	r3, [sp, #4]
  95 0042 DB68     		ldr	r3, [r3, #12]
  96 0044 1B68     		ldr	r3, [r3, #0]
  97 0046 019A     		ldr	r2, [sp, #4]
  98 0048 D268     		ldr	r2, [r2, #12]
  99 004a 1268     		ldr	r2, [r2, #0]
 100 004c 1268     		ldr	r2, [r2, #0]
 101 004e 22F00102 		bic	r2, r2, #1
 102 0052 1A60     		str	r2, [r3, #0]
 103 0054 019B     		ldr	r3, [sp, #4]
 104 0056 DB68     		ldr	r3, [r3, #12]
 105 0058 5B68     		ldr	r3, [r3, #4]
 106 005a 019A     		ldr	r2, [sp, #4]
ARM GAS  C:\Users\z80\AppData\Local\Temp\ccGPz5cQ.s 			page 3


 107 005c D268     		ldr	r2, [r2, #12]
 108 005e 127A     		ldrb	r2, [r2, #8]	@ zero_extendqisi2
 109 0060 4FF00F01 		mov	r1, #15
 110 0064 01FA02F2 		lsl	r2, r1, r2
 111 0068 1A60     		str	r2, [r3, #0]
 112              		.loc 1 122 0
 113 006a 019B     		ldr	r3, [sp, #4]
 114 006c 5B68     		ldr	r3, [r3, #4]
 115 006e 1B68     		ldr	r3, [r3, #0]
 116 0070 002B     		cmp	r3, #0
 117 0072 11D0     		beq	.L3
 118              		.loc 1 122 0 is_stmt 0 discriminator 1
 119 0074 019B     		ldr	r3, [sp, #4]
 120 0076 4FF00402 		mov	r2, #4
 121 007a 1A70     		strb	r2, [r3, #0]
 122 007c 019B     		ldr	r3, [sp, #4]
 123 007e 5B68     		ldr	r3, [r3, #4]
 124 0080 1B68     		ldr	r3, [r3, #0]
 125 0082 0198     		ldr	r0, [sp, #4]
 126 0084 9847     		blx	r3
 127 0086 019B     		ldr	r3, [sp, #4]
 128 0088 1B78     		ldrb	r3, [r3, #0]	@ zero_extendqisi2
 129 008a 042B     		cmp	r3, #4
 130 008c 08D1     		bne	.L1
 131              		.loc 1 122 0 discriminator 3
 132 008e 019B     		ldr	r3, [sp, #4]
 133 0090 4FF00202 		mov	r2, #2
 134 0094 1A70     		strb	r2, [r3, #0]
 135 0096 03E0     		b	.L1
 136              	.L3:
 137              		.loc 1 122 0 discriminator 2
 138 0098 019B     		ldr	r3, [sp, #4]
 139 009a 4FF00202 		mov	r2, #2
 140 009e 1A70     		strb	r2, [r3, #0]
 141              	.L1:
 142              		.loc 1 123 0 is_stmt 1
 143 00a0 03B0     		add	sp, sp, #12
 144 00a2 00BD     		pop	{pc}
 145              		.cfi_endproc
 146              	.LFE62:
 147              		.size	spi_lld_serve_rx_interrupt, .-spi_lld_serve_rx_interrupt
 148 00a4 AFF30080 		.section	.text.spi_lld_serve_tx_interrupt,"ax",%progbits
 148      AFF30080 
 148      AFF30080 
 149              		.align	2
 150              		.p2align 4,,15
 151              		.thumb
 152              		.thumb_func
 153              		.type	spi_lld_serve_tx_interrupt, %function
 154              	spi_lld_serve_tx_interrupt:
 155              	.LFB63:
 156              		.loc 1 131 0
 157              		.cfi_startproc
 158              		@ args = 0, pretend = 0, frame = 8
 159              		@ frame_needed = 0, uses_anonymous_args = 0
 160 0000 00B5     		push	{lr}
 161              	.LCFI2:
ARM GAS  C:\Users\z80\AppData\Local\Temp\ccGPz5cQ.s 			page 4


 162              		.cfi_def_cfa_offset 4
 163              		.cfi_offset 14, -4
 164 0002 83B0     		sub	sp, sp, #12
 165              	.LCFI3:
 166              		.cfi_def_cfa_offset 16
 167 0004 0190     		str	r0, [sp, #4]
 168 0006 0091     		str	r1, [sp, #0]
 169              		.loc 1 136 0
 170 0008 009B     		ldr	r3, [sp, #0]
 171 000a 03F00803 		and	r3, r3, #8
 172 000e 002B     		cmp	r3, #0
 173 0010 01D0     		beq	.L5
 174              		.loc 1 137 0
 175 0012 FFF7FEFF 		bl	port_halt
 176              	.L5:
 177              		.loc 1 143 0
 178 0016 03B0     		add	sp, sp, #12
 179 0018 00BD     		pop	{pc}
 180              		.cfi_endproc
 181              	.LFE63:
 182              		.size	spi_lld_serve_tx_interrupt, .-spi_lld_serve_tx_interrupt
 183 001a 00BFAFF3 		.section	.text.spi_lld_init,"ax",%progbits
 183      0080
 184              		.align	2
 185              		.p2align 4,,15
 186              		.global	spi_lld_init
 187              		.thumb
 188              		.thumb_func
 189              		.type	spi_lld_init, %function
 190              	spi_lld_init:
 191              	.LFB64:
 192              		.loc 1 158 0
 193              		.cfi_startproc
 194              		@ args = 0, pretend = 0, frame = 0
 195              		@ frame_needed = 0, uses_anonymous_args = 0
 196 0000 08B5     		push	{r3, lr}
 197              	.LCFI4:
 198              		.cfi_def_cfa_offset 8
 199              		.cfi_offset 14, -4
 200              		.cfi_offset 3, -8
 201              		.loc 1 160 0
 202 0002 40F20003 		movw	r3, #:lower16:dummytx
 203 0006 C0F20003 		movt	r3, #:upper16:dummytx
 204 000a 4FF6FF72 		movw	r2, #65535
 205 000e 1A80     		strh	r2, [r3, #0]	@ movhi
 206              		.loc 1 163 0
 207 0010 40F20000 		movw	r0, #:lower16:SPID1
 208 0014 C0F20000 		movt	r0, #:upper16:SPID1
 209 0018 FFF7FEFF 		bl	spiObjectInit
 210              		.loc 1 164 0
 211 001c 40F20003 		movw	r3, #:lower16:SPID1
 212 0020 C0F20003 		movt	r3, #:upper16:SPID1
 213 0024 4FF44052 		mov	r2, #12288
 214 0028 C4F20102 		movt	r2, 16385
 215 002c 9A60     		str	r2, [r3, #8]
 216              		.loc 1 165 0
 217 002e 40F20003 		movw	r3, #:lower16:SPID1
ARM GAS  C:\Users\z80\AppData\Local\Temp\ccGPz5cQ.s 			page 5


 218 0032 C0F20003 		movt	r3, #:upper16:SPID1
 219 0036 204A     		ldr	r2, .L8
 220 0038 DA60     		str	r2, [r3, #12]
 221              		.loc 1 166 0
 222 003a 40F20003 		movw	r3, #:lower16:SPID1
 223 003e C0F20003 		movt	r3, #:upper16:SPID1
 224 0042 1E4A     		ldr	r2, .L8+4
 225 0044 1A61     		str	r2, [r3, #16]
 226              		.loc 1 167 0
 227 0046 40F20003 		movw	r3, #:lower16:SPID1
 228 004a C0F20003 		movt	r3, #:upper16:SPID1
 229 004e 41F20A02 		movw	r2, #4106
 230 0052 5A61     		str	r2, [r3, #20]
 231              		.loc 1 173 0
 232 0054 40F20003 		movw	r3, #:lower16:SPID1
 233 0058 C0F20003 		movt	r3, #:upper16:SPID1
 234 005c 41F21802 		movw	r2, #4120
 235 0060 9A61     		str	r2, [r3, #24]
 236              		.loc 1 181 0
 237 0062 40F20000 		movw	r0, #:lower16:SPID2
 238 0066 C0F20000 		movt	r0, #:upper16:SPID2
 239 006a FFF7FEFF 		bl	spiObjectInit
 240              		.loc 1 182 0
 241 006e 40F20003 		movw	r3, #:lower16:SPID2
 242 0072 C0F20003 		movt	r3, #:upper16:SPID2
 243 0076 4FF46052 		mov	r2, #14336
 244 007a C4F20002 		movt	r2, 16384
 245 007e 9A60     		str	r2, [r3, #8]
 246              		.loc 1 183 0
 247 0080 40F20003 		movw	r3, #:lower16:SPID2
 248 0084 C0F20003 		movt	r3, #:upper16:SPID2
 249 0088 0D4A     		ldr	r2, .L8+8
 250 008a DA60     		str	r2, [r3, #12]
 251              		.loc 1 184 0
 252 008c 40F20003 		movw	r3, #:lower16:SPID2
 253 0090 C0F20003 		movt	r3, #:upper16:SPID2
 254 0094 0B4A     		ldr	r2, .L8+12
 255 0096 1A61     		str	r2, [r3, #16]
 256              		.loc 1 185 0
 257 0098 40F20003 		movw	r3, #:lower16:SPID2
 258 009c C0F20003 		movt	r3, #:upper16:SPID2
 259 00a0 41F20A02 		movw	r2, #4106
 260 00a4 5A61     		str	r2, [r3, #20]
 261              		.loc 1 191 0
 262 00a6 40F20003 		movw	r3, #:lower16:SPID2
 263 00aa C0F20003 		movt	r3, #:upper16:SPID2
 264 00ae 41F21802 		movw	r2, #4120
 265 00b2 9A61     		str	r2, [r3, #24]
 266              		.loc 1 215 0
 267 00b4 08BD     		pop	{r3, pc}
 268              	.L9:
 269 00b6 00BF     		.align	2
 270              	.L8:
 271 00b8 0C000000 		.word	_stm32_dma_streams+12
 272 00bc 18000000 		.word	_stm32_dma_streams+24
 273 00c0 24000000 		.word	_stm32_dma_streams+36
 274 00c4 30000000 		.word	_stm32_dma_streams+48
ARM GAS  C:\Users\z80\AppData\Local\Temp\ccGPz5cQ.s 			page 6


 275              		.cfi_endproc
 276              	.LFE64:
 277              		.size	spi_lld_init, .-spi_lld_init
 278 00c8 AFF30080 		.section	.rodata
 278      AFF30080 
 279              		.align	2
 280              	.LC0:
 281 0000 7370695F 		.ascii	"spi_lld_start(), #1\000"
 281      6C6C645F 
 281      73746172 
 281      7428292C 
 281      20233100 
 282              		.align	2
 283              	.LC1:
 284 0014 7370695F 		.ascii	"spi_lld_start(), #2\000"
 284      6C6C645F 
 284      73746172 
 284      7428292C 
 284      20233200 
 285              		.align	2
 286              	.LC2:
 287 0028 7370695F 		.ascii	"spi_lld_start(), #3\000"
 287      6C6C645F 
 287      73746172 
 287      7428292C 
 287      20233300 
 288              		.align	2
 289              	.LC3:
 290 003c 7370695F 		.ascii	"spi_lld_start(), #4\000"
 290      6C6C645F 
 290      73746172 
 290      7428292C 
 290      20233400 
 291              		.section	.text.spi_lld_start,"ax",%progbits
 292              		.align	2
 293              		.p2align 4,,15
 294              		.global	spi_lld_start
 295              		.thumb
 296              		.thumb_func
 297              		.type	spi_lld_start, %function
 298              	spi_lld_start:
 299              	.LFB65:
 300              		.loc 1 224 0
 301              		.cfi_startproc
 302              		@ args = 0, pretend = 0, frame = 16
 303              		@ frame_needed = 0, uses_anonymous_args = 0
 304 0000 00B5     		push	{lr}
 305              	.LCFI5:
 306              		.cfi_def_cfa_offset 4
 307              		.cfi_offset 14, -4
 308 0002 85B0     		sub	sp, sp, #20
 309              	.LCFI6:
 310              		.cfi_def_cfa_offset 24
 311 0004 0190     		str	r0, [sp, #4]
 312              		.loc 1 227 0
 313 0006 019B     		ldr	r3, [sp, #4]
 314 0008 1B78     		ldrb	r3, [r3, #0]	@ zero_extendqisi2
ARM GAS  C:\Users\z80\AppData\Local\Temp\ccGPz5cQ.s 			page 7


 315 000a 012B     		cmp	r3, #1
 316 000c 40F08E80 		bne	.L11
 317              		.loc 1 229 0
 318 0010 019A     		ldr	r2, [sp, #4]
 319 0012 40F20003 		movw	r3, #:lower16:SPID1
 320 0016 C0F20003 		movt	r3, #:upper16:SPID1
 321 001a 9A42     		cmp	r2, r3
 322 001c 37D1     		bne	.L12
 323              	.LBB2:
 324              		.loc 1 231 0
 325 001e 019B     		ldr	r3, [sp, #4]
 326 0020 DB68     		ldr	r3, [r3, #12]
 327 0022 1846     		mov	r0, r3
 328 0024 4FF00A01 		mov	r1, #10
 329 0028 40F20002 		movw	r2, #:lower16:spi_lld_serve_rx_interrupt
 330 002c C0F20002 		movt	r2, #:upper16:spi_lld_serve_rx_interrupt
 331 0030 019B     		ldr	r3, [sp, #4]
 332 0032 FFF7FEFF 		bl	dmaStreamAllocate
 333 0036 0390     		str	r0, [sp, #12]
 334              		.loc 1 235 0
 335 0038 039B     		ldr	r3, [sp, #12]
 336 003a 002B     		cmp	r3, #0
 337 003c 05D0     		beq	.L13
 338              		.loc 1 235 0 is_stmt 0 discriminator 1
 339 003e 40F20000 		movw	r0, #:lower16:.LC0
 340 0042 C0F20000 		movt	r0, #:upper16:.LC0
 341 0046 FFF7FEFF 		bl	chDbgPanic
 342              	.L13:
 343              		.loc 1 236 0 is_stmt 1
 344 004a 019B     		ldr	r3, [sp, #4]
 345 004c 1B69     		ldr	r3, [r3, #16]
 346 004e 1846     		mov	r0, r3
 347 0050 4FF00A01 		mov	r1, #10
 348 0054 40F20002 		movw	r2, #:lower16:spi_lld_serve_tx_interrupt
 349 0058 C0F20002 		movt	r2, #:upper16:spi_lld_serve_tx_interrupt
 350 005c 019B     		ldr	r3, [sp, #4]
 351 005e FFF7FEFF 		bl	dmaStreamAllocate
 352 0062 0390     		str	r0, [sp, #12]
 353              		.loc 1 240 0
 354 0064 039B     		ldr	r3, [sp, #12]
 355 0066 002B     		cmp	r3, #0
 356 0068 05D0     		beq	.L14
 357              		.loc 1 240 0 is_stmt 0 discriminator 1
 358 006a 40F20000 		movw	r0, #:lower16:.LC1
 359 006e C0F20000 		movt	r0, #:upper16:.LC1
 360 0072 FFF7FEFF 		bl	chDbgPanic
 361              	.L14:
 362              		.loc 1 241 0 is_stmt 1
 363 0076 4FF48053 		mov	r3, #4096
 364 007a C4F20203 		movt	r3, 16386
 365 007e 4FF48052 		mov	r2, #4096
 366 0082 C4F20202 		movt	r2, 16386
 367 0086 9269     		ldr	r2, [r2, #24]
 368 0088 42F48052 		orr	r2, r2, #4096
 369 008c 9A61     		str	r2, [r3, #24]
 370              	.L12:
 371              	.LBE2:
ARM GAS  C:\Users\z80\AppData\Local\Temp\ccGPz5cQ.s 			page 8


 372              		.loc 1 245 0
 373 008e 019A     		ldr	r2, [sp, #4]
 374 0090 40F20003 		movw	r3, #:lower16:SPID2
 375 0094 C0F20003 		movt	r3, #:upper16:SPID2
 376 0098 9A42     		cmp	r2, r3
 377 009a 37D1     		bne	.L15
 378              	.LBB3:
 379              		.loc 1 247 0
 380 009c 019B     		ldr	r3, [sp, #4]
 381 009e DB68     		ldr	r3, [r3, #12]
 382 00a0 1846     		mov	r0, r3
 383 00a2 4FF00A01 		mov	r1, #10
 384 00a6 40F20002 		movw	r2, #:lower16:spi_lld_serve_rx_interrupt
 385 00aa C0F20002 		movt	r2, #:upper16:spi_lld_serve_rx_interrupt
 386 00ae 019B     		ldr	r3, [sp, #4]
 387 00b0 FFF7FEFF 		bl	dmaStreamAllocate
 388 00b4 0290     		str	r0, [sp, #8]
 389              		.loc 1 251 0
 390 00b6 029B     		ldr	r3, [sp, #8]
 391 00b8 002B     		cmp	r3, #0
 392 00ba 05D0     		beq	.L16
 393              		.loc 1 251 0 is_stmt 0 discriminator 1
 394 00bc 40F20000 		movw	r0, #:lower16:.LC2
 395 00c0 C0F20000 		movt	r0, #:upper16:.LC2
 396 00c4 FFF7FEFF 		bl	chDbgPanic
 397              	.L16:
 398              		.loc 1 252 0 is_stmt 1
 399 00c8 019B     		ldr	r3, [sp, #4]
 400 00ca 1B69     		ldr	r3, [r3, #16]
 401 00cc 1846     		mov	r0, r3
 402 00ce 4FF00A01 		mov	r1, #10
 403 00d2 40F20002 		movw	r2, #:lower16:spi_lld_serve_tx_interrupt
 404 00d6 C0F20002 		movt	r2, #:upper16:spi_lld_serve_tx_interrupt
 405 00da 019B     		ldr	r3, [sp, #4]
 406 00dc FFF7FEFF 		bl	dmaStreamAllocate
 407 00e0 0290     		str	r0, [sp, #8]
 408              		.loc 1 256 0
 409 00e2 029B     		ldr	r3, [sp, #8]
 410 00e4 002B     		cmp	r3, #0
 411 00e6 05D0     		beq	.L17
 412              		.loc 1 256 0 is_stmt 0 discriminator 1
 413 00e8 40F20000 		movw	r0, #:lower16:.LC3
 414 00ec C0F20000 		movt	r0, #:upper16:.LC3
 415 00f0 FFF7FEFF 		bl	chDbgPanic
 416              	.L17:
 417              		.loc 1 257 0 is_stmt 1
 418 00f4 4FF48053 		mov	r3, #4096
 419 00f8 C4F20203 		movt	r3, 16386
 420 00fc 4FF48052 		mov	r2, #4096
 421 0100 C4F20202 		movt	r2, 16386
 422 0104 D269     		ldr	r2, [r2, #28]
 423 0106 42F48042 		orr	r2, r2, #16384
 424 010a DA61     		str	r2, [r3, #28]
 425              	.L15:
 426              	.LBE3:
 427              		.loc 1 278 0
 428 010c 019B     		ldr	r3, [sp, #4]
ARM GAS  C:\Users\z80\AppData\Local\Temp\ccGPz5cQ.s 			page 9


 429 010e DB68     		ldr	r3, [r3, #12]
 430 0110 1B68     		ldr	r3, [r3, #0]
 431 0112 019A     		ldr	r2, [sp, #4]
 432 0114 9268     		ldr	r2, [r2, #8]
 433 0116 02F10C02 		add	r2, r2, #12
 434 011a 9A60     		str	r2, [r3, #8]
 435              		.loc 1 279 0
 436 011c 019B     		ldr	r3, [sp, #4]
 437 011e 1B69     		ldr	r3, [r3, #16]
 438 0120 1B68     		ldr	r3, [r3, #0]
 439 0122 019A     		ldr	r2, [sp, #4]
 440 0124 9268     		ldr	r2, [r2, #8]
 441 0126 02F10C02 		add	r2, r2, #12
 442 012a 9A60     		str	r2, [r3, #8]
 443              	.L11:
 444              		.loc 1 283 0
 445 012c 019B     		ldr	r3, [sp, #4]
 446 012e 5B68     		ldr	r3, [r3, #4]
 447 0130 5B89     		ldrh	r3, [r3, #10]
 448 0132 03F40063 		and	r3, r3, #2048
 449 0136 002B     		cmp	r3, #0
 450 0138 0CD1     		bne	.L18
 451              		.loc 1 284 0
 452 013a 019B     		ldr	r3, [sp, #4]
 453 013c 5B69     		ldr	r3, [r3, #20]
 454              		.loc 1 285 0
 455 013e 23F44062 		bic	r2, r3, #3072
 456              		.loc 1 284 0
 457 0142 019B     		ldr	r3, [sp, #4]
 458 0144 5A61     		str	r2, [r3, #20]
 459              		.loc 1 286 0
 460 0146 019B     		ldr	r3, [sp, #4]
 461 0148 9B69     		ldr	r3, [r3, #24]
 462              		.loc 1 287 0
 463 014a 23F44062 		bic	r2, r3, #3072
 464              		.loc 1 286 0
 465 014e 019B     		ldr	r3, [sp, #4]
 466 0150 9A61     		str	r2, [r3, #24]
 467 0152 0FE0     		b	.L19
 468              	.L18:
 469              		.loc 1 290 0
 470 0154 019B     		ldr	r3, [sp, #4]
 471 0156 5B69     		ldr	r3, [r3, #20]
 472 0158 23F45063 		bic	r3, r3, #3328
 473              		.loc 1 291 0
 474 015c 43F4A062 		orr	r2, r3, #1280
 475              		.loc 1 290 0
 476 0160 019B     		ldr	r3, [sp, #4]
 477 0162 5A61     		str	r2, [r3, #20]
 478              		.loc 1 292 0
 479 0164 019B     		ldr	r3, [sp, #4]
 480 0166 9B69     		ldr	r3, [r3, #24]
 481 0168 23F45063 		bic	r3, r3, #3328
 482              		.loc 1 293 0
 483 016c 43F4A062 		orr	r2, r3, #1280
 484              		.loc 1 292 0
 485 0170 019B     		ldr	r3, [sp, #4]
ARM GAS  C:\Users\z80\AppData\Local\Temp\ccGPz5cQ.s 			page 10


 486 0172 9A61     		str	r2, [r3, #24]
 487              	.L19:
 488              		.loc 1 296 0
 489 0174 019B     		ldr	r3, [sp, #4]
 490 0176 9B68     		ldr	r3, [r3, #8]
 491 0178 4FF00002 		mov	r2, #0
 492 017c 1A80     		strh	r2, [r3, #0]	@ movhi
 493              		.loc 1 297 0
 494 017e 019B     		ldr	r3, [sp, #4]
 495 0180 9B68     		ldr	r3, [r3, #8]
 496 0182 019A     		ldr	r2, [sp, #4]
 497 0184 5268     		ldr	r2, [r2, #4]
 498 0186 5289     		ldrh	r2, [r2, #10]
 499 0188 42F44172 		orr	r2, r2, #772
 500 018c 92B2     		uxth	r2, r2
 501 018e 1A80     		strh	r2, [r3, #0]	@ movhi
 502              		.loc 1 299 0
 503 0190 019B     		ldr	r3, [sp, #4]
 504 0192 9B68     		ldr	r3, [r3, #8]
 505 0194 4FF00702 		mov	r2, #7
 506 0198 9A80     		strh	r2, [r3, #4]	@ movhi
 507              		.loc 1 300 0
 508 019a 019B     		ldr	r3, [sp, #4]
 509 019c 9B68     		ldr	r3, [r3, #8]
 510 019e 019A     		ldr	r2, [sp, #4]
 511 01a0 9268     		ldr	r2, [r2, #8]
 512 01a2 1288     		ldrh	r2, [r2, #0]	@ movhi
 513 01a4 92B2     		uxth	r2, r2
 514 01a6 42F04002 		orr	r2, r2, #64
 515 01aa 92B2     		uxth	r2, r2
 516 01ac 1A80     		strh	r2, [r3, #0]	@ movhi
 517              		.loc 1 301 0
 518 01ae 05B0     		add	sp, sp, #20
 519 01b0 00BD     		pop	{pc}
 520              		.cfi_endproc
 521              	.LFE65:
 522              		.size	spi_lld_start, .-spi_lld_start
 523 01b2 00BFAFF3 		.section	.text.spi_lld_stop,"ax",%progbits
 523      0080AFF3 
 523      0080AFF3 
 523      0080
 524              		.align	2
 525              		.p2align 4,,15
 526              		.global	spi_lld_stop
 527              		.thumb
 528              		.thumb_func
 529              		.type	spi_lld_stop, %function
 530              	spi_lld_stop:
 531              	.LFB66:
 532              		.loc 1 310 0
 533              		.cfi_startproc
 534              		@ args = 0, pretend = 0, frame = 8
 535              		@ frame_needed = 0, uses_anonymous_args = 0
 536 0000 00B5     		push	{lr}
 537              	.LCFI7:
 538              		.cfi_def_cfa_offset 4
 539              		.cfi_offset 14, -4
ARM GAS  C:\Users\z80\AppData\Local\Temp\ccGPz5cQ.s 			page 11


 540 0002 83B0     		sub	sp, sp, #12
 541              	.LCFI8:
 542              		.cfi_def_cfa_offset 16
 543 0004 0190     		str	r0, [sp, #4]
 544              		.loc 1 313 0
 545 0006 019B     		ldr	r3, [sp, #4]
 546 0008 1B78     		ldrb	r3, [r3, #0]	@ zero_extendqisi2
 547 000a 022B     		cmp	r3, #2
 548 000c 34D1     		bne	.L20
 549              		.loc 1 316 0
 550 000e 019B     		ldr	r3, [sp, #4]
 551 0010 9B68     		ldr	r3, [r3, #8]
 552 0012 4FF00002 		mov	r2, #0
 553 0016 1A80     		strh	r2, [r3, #0]	@ movhi
 554              		.loc 1 317 0
 555 0018 019B     		ldr	r3, [sp, #4]
 556 001a DB68     		ldr	r3, [r3, #12]
 557 001c 1846     		mov	r0, r3
 558 001e FFF7FEFF 		bl	dmaStreamRelease
 559              		.loc 1 318 0
 560 0022 019B     		ldr	r3, [sp, #4]
 561 0024 1B69     		ldr	r3, [r3, #16]
 562 0026 1846     		mov	r0, r3
 563 0028 FFF7FEFF 		bl	dmaStreamRelease
 564              		.loc 1 321 0
 565 002c 019A     		ldr	r2, [sp, #4]
 566 002e 40F20003 		movw	r3, #:lower16:SPID1
 567 0032 C0F20003 		movt	r3, #:upper16:SPID1
 568 0036 9A42     		cmp	r2, r3
 569 0038 0BD1     		bne	.L22
 570              		.loc 1 322 0
 571 003a 4FF48053 		mov	r3, #4096
 572 003e C4F20203 		movt	r3, 16386
 573 0042 4FF48052 		mov	r2, #4096
 574 0046 C4F20202 		movt	r2, 16386
 575 004a 9269     		ldr	r2, [r2, #24]
 576 004c 22F48052 		bic	r2, r2, #4096
 577 0050 9A61     		str	r2, [r3, #24]
 578              	.L22:
 579              		.loc 1 325 0
 580 0052 019A     		ldr	r2, [sp, #4]
 581 0054 40F20003 		movw	r3, #:lower16:SPID2
 582 0058 C0F20003 		movt	r3, #:upper16:SPID2
 583 005c 9A42     		cmp	r2, r3
 584 005e 0BD1     		bne	.L20
 585              		.loc 1 326 0
 586 0060 4FF48053 		mov	r3, #4096
 587 0064 C4F20203 		movt	r3, 16386
 588 0068 4FF48052 		mov	r2, #4096
 589 006c C4F20202 		movt	r2, 16386
 590 0070 D269     		ldr	r2, [r2, #28]
 591 0072 22F48042 		bic	r2, r2, #16384
 592 0076 DA61     		str	r2, [r3, #28]
 593              	.L20:
 594              		.loc 1 333 0
 595 0078 03B0     		add	sp, sp, #12
 596 007a 00BD     		pop	{pc}
ARM GAS  C:\Users\z80\AppData\Local\Temp\ccGPz5cQ.s 			page 12


 597              		.cfi_endproc
 598              	.LFE66:
 599              		.size	spi_lld_stop, .-spi_lld_stop
 600 007c AFF30080 		.section	.text.spi_lld_select,"ax",%progbits
 601              		.align	2
 602              		.p2align 4,,15
 603              		.global	spi_lld_select
 604              		.thumb
 605              		.thumb_func
 606              		.type	spi_lld_select, %function
 607              	spi_lld_select:
 608              	.LFB67:
 609              		.loc 1 342 0
 610              		.cfi_startproc
 611              		@ args = 0, pretend = 0, frame = 8
 612              		@ frame_needed = 0, uses_anonymous_args = 0
 613              		@ link register save eliminated.
 614 0000 82B0     		sub	sp, sp, #8
 615              	.LCFI9:
 616              		.cfi_def_cfa_offset 8
 617 0002 0190     		str	r0, [sp, #4]
 618              		.loc 1 344 0
 619 0004 019B     		ldr	r3, [sp, #4]
 620 0006 5B68     		ldr	r3, [r3, #4]
 621 0008 5B68     		ldr	r3, [r3, #4]
 622 000a 019A     		ldr	r2, [sp, #4]
 623 000c 5268     		ldr	r2, [r2, #4]
 624 000e 1289     		ldrh	r2, [r2, #8]
 625 0010 4FF00101 		mov	r1, #1
 626 0014 01FA02F2 		lsl	r2, r1, r2
 627 0018 5A61     		str	r2, [r3, #20]
 628              		.loc 1 345 0
 629 001a 02B0     		add	sp, sp, #8
 630 001c 7047     		bx	lr
 631              		.cfi_endproc
 632              	.LFE67:
 633              		.size	spi_lld_select, .-spi_lld_select
 634 001e 00BF     		.section	.text.spi_lld_unselect,"ax",%progbits
 635              		.align	2
 636              		.p2align 4,,15
 637              		.global	spi_lld_unselect
 638              		.thumb
 639              		.thumb_func
 640              		.type	spi_lld_unselect, %function
 641              	spi_lld_unselect:
 642              	.LFB68:
 643              		.loc 1 355 0
 644              		.cfi_startproc
 645              		@ args = 0, pretend = 0, frame = 8
 646              		@ frame_needed = 0, uses_anonymous_args = 0
 647              		@ link register save eliminated.
 648 0000 82B0     		sub	sp, sp, #8
 649              	.LCFI10:
 650              		.cfi_def_cfa_offset 8
 651 0002 0190     		str	r0, [sp, #4]
 652              		.loc 1 357 0
 653 0004 019B     		ldr	r3, [sp, #4]
ARM GAS  C:\Users\z80\AppData\Local\Temp\ccGPz5cQ.s 			page 13


 654 0006 5B68     		ldr	r3, [r3, #4]
 655 0008 5B68     		ldr	r3, [r3, #4]
 656 000a 019A     		ldr	r2, [sp, #4]
 657 000c 5268     		ldr	r2, [r2, #4]
 658 000e 1289     		ldrh	r2, [r2, #8]
 659 0010 4FF00101 		mov	r1, #1
 660 0014 01FA02F2 		lsl	r2, r1, r2
 661 0018 1A61     		str	r2, [r3, #16]
 662              		.loc 1 358 0
 663 001a 02B0     		add	sp, sp, #8
 664 001c 7047     		bx	lr
 665              		.cfi_endproc
 666              	.LFE68:
 667              		.size	spi_lld_unselect, .-spi_lld_unselect
 668 001e 00BF     		.section	.text.spi_lld_ignore,"ax",%progbits
 669              		.align	2
 670              		.p2align 4,,15
 671              		.global	spi_lld_ignore
 672              		.thumb
 673              		.thumb_func
 674              		.type	spi_lld_ignore, %function
 675              	spi_lld_ignore:
 676              	.LFB69:
 677              		.loc 1 371 0
 678              		.cfi_startproc
 679              		@ args = 0, pretend = 0, frame = 8
 680              		@ frame_needed = 0, uses_anonymous_args = 0
 681              		@ link register save eliminated.
 682 0000 82B0     		sub	sp, sp, #8
 683              	.LCFI11:
 684              		.cfi_def_cfa_offset 8
 685 0002 0190     		str	r0, [sp, #4]
 686 0004 0091     		str	r1, [sp, #0]
 687              		.loc 1 373 0
 688 0006 019B     		ldr	r3, [sp, #4]
 689 0008 DB68     		ldr	r3, [r3, #12]
 690 000a 1A68     		ldr	r2, [r3, #0]
 691 000c 40F20003 		movw	r3, #:lower16:dummyrx
 692 0010 C0F20003 		movt	r3, #:upper16:dummyrx
 693 0014 D360     		str	r3, [r2, #12]
 694              		.loc 1 374 0
 695 0016 019B     		ldr	r3, [sp, #4]
 696 0018 DB68     		ldr	r3, [r3, #12]
 697 001a 1B68     		ldr	r3, [r3, #0]
 698 001c 009A     		ldr	r2, [sp, #0]
 699 001e 5A60     		str	r2, [r3, #4]
 700              		.loc 1 375 0
 701 0020 019B     		ldr	r3, [sp, #4]
 702 0022 DB68     		ldr	r3, [r3, #12]
 703 0024 1B68     		ldr	r3, [r3, #0]
 704 0026 019A     		ldr	r2, [sp, #4]
 705 0028 5269     		ldr	r2, [r2, #20]
 706 002a 1A60     		str	r2, [r3, #0]
 707              		.loc 1 377 0
 708 002c 019B     		ldr	r3, [sp, #4]
 709 002e 1B69     		ldr	r3, [r3, #16]
 710 0030 1A68     		ldr	r2, [r3, #0]
ARM GAS  C:\Users\z80\AppData\Local\Temp\ccGPz5cQ.s 			page 14


 711 0032 40F20003 		movw	r3, #:lower16:dummytx
 712 0036 C0F20003 		movt	r3, #:upper16:dummytx
 713 003a D360     		str	r3, [r2, #12]
 714              		.loc 1 378 0
 715 003c 019B     		ldr	r3, [sp, #4]
 716 003e 1B69     		ldr	r3, [r3, #16]
 717 0040 1B68     		ldr	r3, [r3, #0]
 718 0042 009A     		ldr	r2, [sp, #0]
 719 0044 5A60     		str	r2, [r3, #4]
 720              		.loc 1 379 0
 721 0046 019B     		ldr	r3, [sp, #4]
 722 0048 1B69     		ldr	r3, [r3, #16]
 723 004a 1B68     		ldr	r3, [r3, #0]
 724 004c 019A     		ldr	r2, [sp, #4]
 725 004e 9269     		ldr	r2, [r2, #24]
 726 0050 1A60     		str	r2, [r3, #0]
 727              		.loc 1 381 0
 728 0052 019B     		ldr	r3, [sp, #4]
 729 0054 DB68     		ldr	r3, [r3, #12]
 730 0056 1B68     		ldr	r3, [r3, #0]
 731 0058 019A     		ldr	r2, [sp, #4]
 732 005a D268     		ldr	r2, [r2, #12]
 733 005c 1268     		ldr	r2, [r2, #0]
 734 005e 1268     		ldr	r2, [r2, #0]
 735 0060 42F00102 		orr	r2, r2, #1
 736 0064 1A60     		str	r2, [r3, #0]
 737              		.loc 1 382 0
 738 0066 019B     		ldr	r3, [sp, #4]
 739 0068 1B69     		ldr	r3, [r3, #16]
 740 006a 1B68     		ldr	r3, [r3, #0]
 741 006c 019A     		ldr	r2, [sp, #4]
 742 006e 1269     		ldr	r2, [r2, #16]
 743 0070 1268     		ldr	r2, [r2, #0]
 744 0072 1268     		ldr	r2, [r2, #0]
 745 0074 42F00102 		orr	r2, r2, #1
 746 0078 1A60     		str	r2, [r3, #0]
 747              		.loc 1 383 0
 748 007a 02B0     		add	sp, sp, #8
 749 007c 7047     		bx	lr
 750              		.cfi_endproc
 751              	.LFE69:
 752              		.size	spi_lld_ignore, .-spi_lld_ignore
 753 007e 00BF     		.section	.text.spi_lld_exchange,"ax",%progbits
 754              		.align	2
 755              		.p2align 4,,15
 756              		.global	spi_lld_exchange
 757              		.thumb
 758              		.thumb_func
 759              		.type	spi_lld_exchange, %function
 760              	spi_lld_exchange:
 761              	.LFB70:
 762              		.loc 1 401 0
 763              		.cfi_startproc
 764              		@ args = 0, pretend = 0, frame = 16
 765              		@ frame_needed = 0, uses_anonymous_args = 0
 766              		@ link register save eliminated.
 767 0000 84B0     		sub	sp, sp, #16
ARM GAS  C:\Users\z80\AppData\Local\Temp\ccGPz5cQ.s 			page 15


 768              	.LCFI12:
 769              		.cfi_def_cfa_offset 16
 770 0002 0390     		str	r0, [sp, #12]
 771 0004 0291     		str	r1, [sp, #8]
 772 0006 0192     		str	r2, [sp, #4]
 773 0008 0093     		str	r3, [sp, #0]
 774              		.loc 1 403 0
 775 000a 039B     		ldr	r3, [sp, #12]
 776 000c DB68     		ldr	r3, [r3, #12]
 777 000e 1B68     		ldr	r3, [r3, #0]
 778 0010 009A     		ldr	r2, [sp, #0]
 779 0012 DA60     		str	r2, [r3, #12]
 780              		.loc 1 404 0
 781 0014 039B     		ldr	r3, [sp, #12]
 782 0016 DB68     		ldr	r3, [r3, #12]
 783 0018 1B68     		ldr	r3, [r3, #0]
 784 001a 029A     		ldr	r2, [sp, #8]
 785 001c 5A60     		str	r2, [r3, #4]
 786              		.loc 1 405 0
 787 001e 039B     		ldr	r3, [sp, #12]
 788 0020 DB68     		ldr	r3, [r3, #12]
 789 0022 1B68     		ldr	r3, [r3, #0]
 790 0024 039A     		ldr	r2, [sp, #12]
 791 0026 5269     		ldr	r2, [r2, #20]
 792 0028 42F08002 		orr	r2, r2, #128
 793 002c 1A60     		str	r2, [r3, #0]
 794              		.loc 1 407 0
 795 002e 039B     		ldr	r3, [sp, #12]
 796 0030 1B69     		ldr	r3, [r3, #16]
 797 0032 1B68     		ldr	r3, [r3, #0]
 798 0034 019A     		ldr	r2, [sp, #4]
 799 0036 DA60     		str	r2, [r3, #12]
 800              		.loc 1 408 0
 801 0038 039B     		ldr	r3, [sp, #12]
 802 003a 1B69     		ldr	r3, [r3, #16]
 803 003c 1B68     		ldr	r3, [r3, #0]
 804 003e 029A     		ldr	r2, [sp, #8]
 805 0040 5A60     		str	r2, [r3, #4]
 806              		.loc 1 409 0
 807 0042 039B     		ldr	r3, [sp, #12]
 808 0044 1B69     		ldr	r3, [r3, #16]
 809 0046 1B68     		ldr	r3, [r3, #0]
 810 0048 039A     		ldr	r2, [sp, #12]
 811 004a 9269     		ldr	r2, [r2, #24]
 812 004c 42F08002 		orr	r2, r2, #128
 813 0050 1A60     		str	r2, [r3, #0]
 814              		.loc 1 411 0
 815 0052 039B     		ldr	r3, [sp, #12]
 816 0054 DB68     		ldr	r3, [r3, #12]
 817 0056 1B68     		ldr	r3, [r3, #0]
 818 0058 039A     		ldr	r2, [sp, #12]
 819 005a D268     		ldr	r2, [r2, #12]
 820 005c 1268     		ldr	r2, [r2, #0]
 821 005e 1268     		ldr	r2, [r2, #0]
 822 0060 42F00102 		orr	r2, r2, #1
 823 0064 1A60     		str	r2, [r3, #0]
 824              		.loc 1 412 0
ARM GAS  C:\Users\z80\AppData\Local\Temp\ccGPz5cQ.s 			page 16


 825 0066 039B     		ldr	r3, [sp, #12]
 826 0068 1B69     		ldr	r3, [r3, #16]
 827 006a 1B68     		ldr	r3, [r3, #0]
 828 006c 039A     		ldr	r2, [sp, #12]
 829 006e 1269     		ldr	r2, [r2, #16]
 830 0070 1268     		ldr	r2, [r2, #0]
 831 0072 1268     		ldr	r2, [r2, #0]
 832 0074 42F00102 		orr	r2, r2, #1
 833 0078 1A60     		str	r2, [r3, #0]
 834              		.loc 1 413 0
 835 007a 04B0     		add	sp, sp, #16
 836 007c 7047     		bx	lr
 837              		.cfi_endproc
 838              	.LFE70:
 839              		.size	spi_lld_exchange, .-spi_lld_exchange
 840 007e 00BF     		.section	.text.spi_lld_send,"ax",%progbits
 841              		.align	2
 842              		.p2align 4,,15
 843              		.global	spi_lld_send
 844              		.thumb
 845              		.thumb_func
 846              		.type	spi_lld_send, %function
 847              	spi_lld_send:
 848              	.LFB71:
 849              		.loc 1 428 0
 850              		.cfi_startproc
 851              		@ args = 0, pretend = 0, frame = 16
 852              		@ frame_needed = 0, uses_anonymous_args = 0
 853              		@ link register save eliminated.
 854 0000 84B0     		sub	sp, sp, #16
 855              	.LCFI13:
 856              		.cfi_def_cfa_offset 16
 857 0002 0390     		str	r0, [sp, #12]
 858 0004 0291     		str	r1, [sp, #8]
 859 0006 0192     		str	r2, [sp, #4]
 860              		.loc 1 430 0
 861 0008 039B     		ldr	r3, [sp, #12]
 862 000a DB68     		ldr	r3, [r3, #12]
 863 000c 1A68     		ldr	r2, [r3, #0]
 864 000e 40F20003 		movw	r3, #:lower16:dummyrx
 865 0012 C0F20003 		movt	r3, #:upper16:dummyrx
 866 0016 D360     		str	r3, [r2, #12]
 867              		.loc 1 431 0
 868 0018 039B     		ldr	r3, [sp, #12]
 869 001a DB68     		ldr	r3, [r3, #12]
 870 001c 1B68     		ldr	r3, [r3, #0]
 871 001e 029A     		ldr	r2, [sp, #8]
 872 0020 5A60     		str	r2, [r3, #4]
 873              		.loc 1 432 0
 874 0022 039B     		ldr	r3, [sp, #12]
 875 0024 DB68     		ldr	r3, [r3, #12]
 876 0026 1B68     		ldr	r3, [r3, #0]
 877 0028 039A     		ldr	r2, [sp, #12]
 878 002a 5269     		ldr	r2, [r2, #20]
 879 002c 1A60     		str	r2, [r3, #0]
 880              		.loc 1 434 0
 881 002e 039B     		ldr	r3, [sp, #12]
ARM GAS  C:\Users\z80\AppData\Local\Temp\ccGPz5cQ.s 			page 17


 882 0030 1B69     		ldr	r3, [r3, #16]
 883 0032 1B68     		ldr	r3, [r3, #0]
 884 0034 019A     		ldr	r2, [sp, #4]
 885 0036 DA60     		str	r2, [r3, #12]
 886              		.loc 1 435 0
 887 0038 039B     		ldr	r3, [sp, #12]
 888 003a 1B69     		ldr	r3, [r3, #16]
 889 003c 1B68     		ldr	r3, [r3, #0]
 890 003e 029A     		ldr	r2, [sp, #8]
 891 0040 5A60     		str	r2, [r3, #4]
 892              		.loc 1 436 0
 893 0042 039B     		ldr	r3, [sp, #12]
 894 0044 1B69     		ldr	r3, [r3, #16]
 895 0046 1B68     		ldr	r3, [r3, #0]
 896 0048 039A     		ldr	r2, [sp, #12]
 897 004a 9269     		ldr	r2, [r2, #24]
 898 004c 42F08002 		orr	r2, r2, #128
 899 0050 1A60     		str	r2, [r3, #0]
 900              		.loc 1 438 0
 901 0052 039B     		ldr	r3, [sp, #12]
 902 0054 DB68     		ldr	r3, [r3, #12]
 903 0056 1B68     		ldr	r3, [r3, #0]
 904 0058 039A     		ldr	r2, [sp, #12]
 905 005a D268     		ldr	r2, [r2, #12]
 906 005c 1268     		ldr	r2, [r2, #0]
 907 005e 1268     		ldr	r2, [r2, #0]
 908 0060 42F00102 		orr	r2, r2, #1
 909 0064 1A60     		str	r2, [r3, #0]
 910              		.loc 1 439 0
 911 0066 039B     		ldr	r3, [sp, #12]
 912 0068 1B69     		ldr	r3, [r3, #16]
 913 006a 1B68     		ldr	r3, [r3, #0]
 914 006c 039A     		ldr	r2, [sp, #12]
 915 006e 1269     		ldr	r2, [r2, #16]
 916 0070 1268     		ldr	r2, [r2, #0]
 917 0072 1268     		ldr	r2, [r2, #0]
 918 0074 42F00102 		orr	r2, r2, #1
 919 0078 1A60     		str	r2, [r3, #0]
 920              		.loc 1 440 0
 921 007a 04B0     		add	sp, sp, #16
 922 007c 7047     		bx	lr
 923              		.cfi_endproc
 924              	.LFE71:
 925              		.size	spi_lld_send, .-spi_lld_send
 926 007e 00BF     		.section	.text.spi_lld_receive,"ax",%progbits
 927              		.align	2
 928              		.p2align 4,,15
 929              		.global	spi_lld_receive
 930              		.thumb
 931              		.thumb_func
 932              		.type	spi_lld_receive, %function
 933              	spi_lld_receive:
 934              	.LFB72:
 935              		.loc 1 455 0
 936              		.cfi_startproc
 937              		@ args = 0, pretend = 0, frame = 16
 938              		@ frame_needed = 0, uses_anonymous_args = 0
ARM GAS  C:\Users\z80\AppData\Local\Temp\ccGPz5cQ.s 			page 18


 939              		@ link register save eliminated.
 940 0000 84B0     		sub	sp, sp, #16
 941              	.LCFI14:
 942              		.cfi_def_cfa_offset 16
 943 0002 0390     		str	r0, [sp, #12]
 944 0004 0291     		str	r1, [sp, #8]
 945 0006 0192     		str	r2, [sp, #4]
 946              		.loc 1 457 0
 947 0008 039B     		ldr	r3, [sp, #12]
 948 000a DB68     		ldr	r3, [r3, #12]
 949 000c 1B68     		ldr	r3, [r3, #0]
 950 000e 019A     		ldr	r2, [sp, #4]
 951 0010 DA60     		str	r2, [r3, #12]
 952              		.loc 1 458 0
 953 0012 039B     		ldr	r3, [sp, #12]
 954 0014 DB68     		ldr	r3, [r3, #12]
 955 0016 1B68     		ldr	r3, [r3, #0]
 956 0018 029A     		ldr	r2, [sp, #8]
 957 001a 5A60     		str	r2, [r3, #4]
 958              		.loc 1 459 0
 959 001c 039B     		ldr	r3, [sp, #12]
 960 001e DB68     		ldr	r3, [r3, #12]
 961 0020 1B68     		ldr	r3, [r3, #0]
 962 0022 039A     		ldr	r2, [sp, #12]
 963 0024 5269     		ldr	r2, [r2, #20]
 964 0026 42F08002 		orr	r2, r2, #128
 965 002a 1A60     		str	r2, [r3, #0]
 966              		.loc 1 461 0
 967 002c 039B     		ldr	r3, [sp, #12]
 968 002e 1B69     		ldr	r3, [r3, #16]
 969 0030 1A68     		ldr	r2, [r3, #0]
 970 0032 40F20003 		movw	r3, #:lower16:dummytx
 971 0036 C0F20003 		movt	r3, #:upper16:dummytx
 972 003a D360     		str	r3, [r2, #12]
 973              		.loc 1 462 0
 974 003c 039B     		ldr	r3, [sp, #12]
 975 003e 1B69     		ldr	r3, [r3, #16]
 976 0040 1B68     		ldr	r3, [r3, #0]
 977 0042 029A     		ldr	r2, [sp, #8]
 978 0044 5A60     		str	r2, [r3, #4]
 979              		.loc 1 463 0
 980 0046 039B     		ldr	r3, [sp, #12]
 981 0048 1B69     		ldr	r3, [r3, #16]
 982 004a 1B68     		ldr	r3, [r3, #0]
 983 004c 039A     		ldr	r2, [sp, #12]
 984 004e 9269     		ldr	r2, [r2, #24]
 985 0050 1A60     		str	r2, [r3, #0]
 986              		.loc 1 465 0
 987 0052 039B     		ldr	r3, [sp, #12]
 988 0054 DB68     		ldr	r3, [r3, #12]
 989 0056 1B68     		ldr	r3, [r3, #0]
 990 0058 039A     		ldr	r2, [sp, #12]
 991 005a D268     		ldr	r2, [r2, #12]
 992 005c 1268     		ldr	r2, [r2, #0]
 993 005e 1268     		ldr	r2, [r2, #0]
 994 0060 42F00102 		orr	r2, r2, #1
 995 0064 1A60     		str	r2, [r3, #0]
ARM GAS  C:\Users\z80\AppData\Local\Temp\ccGPz5cQ.s 			page 19


 996              		.loc 1 466 0
 997 0066 039B     		ldr	r3, [sp, #12]
 998 0068 1B69     		ldr	r3, [r3, #16]
 999 006a 1B68     		ldr	r3, [r3, #0]
 1000 006c 039A     		ldr	r2, [sp, #12]
 1001 006e 1269     		ldr	r2, [r2, #16]
 1002 0070 1268     		ldr	r2, [r2, #0]
 1003 0072 1268     		ldr	r2, [r2, #0]
 1004 0074 42F00102 		orr	r2, r2, #1
 1005 0078 1A60     		str	r2, [r3, #0]
 1006              		.loc 1 467 0
 1007 007a 04B0     		add	sp, sp, #16
 1008 007c 7047     		bx	lr
 1009              		.cfi_endproc
 1010              	.LFE72:
 1011              		.size	spi_lld_receive, .-spi_lld_receive
 1012 007e 00BF     		.section	.text.spi_lld_polled_exchange,"ax",%progbits
 1013              		.align	2
 1014              		.p2align 4,,15
 1015              		.global	spi_lld_polled_exchange
 1016              		.thumb
 1017              		.thumb_func
 1018              		.type	spi_lld_polled_exchange, %function
 1019              	spi_lld_polled_exchange:
 1020              	.LFB73:
 1021              		.loc 1 481 0
 1022              		.cfi_startproc
 1023              		@ args = 0, pretend = 0, frame = 8
 1024              		@ frame_needed = 0, uses_anonymous_args = 0
 1025              		@ link register save eliminated.
 1026 0000 82B0     		sub	sp, sp, #8
 1027              	.LCFI15:
 1028              		.cfi_def_cfa_offset 8
 1029 0002 0190     		str	r0, [sp, #4]
 1030 0004 0B46     		mov	r3, r1
 1031 0006 ADF80230 		strh	r3, [sp, #2]	@ movhi
 1032              		.loc 1 483 0
 1033 000a 019B     		ldr	r3, [sp, #4]
 1034 000c 9B68     		ldr	r3, [r3, #8]
 1035 000e BDF80220 		ldrh	r2, [sp, #2]	@ movhi
 1036 0012 9A81     		strh	r2, [r3, #12]	@ movhi
 1037              		.loc 1 484 0
 1038 0014 00BF     		nop
 1039              	.L30:
 1040              		.loc 1 484 0 is_stmt 0 discriminator 1
 1041 0016 019B     		ldr	r3, [sp, #4]
 1042 0018 9B68     		ldr	r3, [r3, #8]
 1043 001a 1B89     		ldrh	r3, [r3, #8]	@ movhi
 1044 001c 9BB2     		uxth	r3, r3
 1045 001e 03F00103 		and	r3, r3, #1
 1046 0022 002B     		cmp	r3, #0
 1047 0024 F7D0     		beq	.L30
 1048              		.loc 1 486 0 is_stmt 1
 1049 0026 019B     		ldr	r3, [sp, #4]
 1050 0028 9B68     		ldr	r3, [r3, #8]
 1051 002a 9B89     		ldrh	r3, [r3, #12]	@ movhi
 1052 002c 9BB2     		uxth	r3, r3
ARM GAS  C:\Users\z80\AppData\Local\Temp\ccGPz5cQ.s 			page 20


 1053              		.loc 1 487 0
 1054 002e 1846     		mov	r0, r3
 1055 0030 02B0     		add	sp, sp, #8
 1056 0032 7047     		bx	lr
 1057              		.cfi_endproc
 1058              	.LFE73:
 1059              		.size	spi_lld_polled_exchange, .-spi_lld_polled_exchange
 1060 0034 AFF30080 		.text
 1060      AFF30080 
 1060      AFF30080 
 1061              	.Letext0:
 1062              		.file 2 "c:\\programs\\codesourcery\\2011.03-56\\bin\\../lib/gcc/arm-none-eabi/4.6.3/include/stdde
 1063              		.file 3 "c:\\programs\\codesourcery\\2011.03-56\\bin\\../lib/gcc/arm-none-eabi/4.6.3/../../../../a
 1064              		.file 4 "../chibios_2.4.x/os/ports/GCC/ARMCMx/chtypes.h"
 1065              		.file 5 "../chibios_2.4.x/os/hal/platforms/STM32F1xx/stm32f10x.h"
 1066              		.file 6 "../chibios_2.4.x/os/hal/platforms/STM32F1xx/stm32_dma.h"
 1067              		.file 7 "../chibios_2.4.x/os/hal/platforms/STM32/GPIOv1/pal_lld.h"
 1068              		.file 8 "../chibios_2.4.x/os/hal/include/spi.h"
 1069              		.file 9 "../chibios_2.4.x/os/hal/platforms/STM32/spi_lld.h"
 1070              		.file 10 "../chibios_2.4.x/os/ports/common/ARMCMx/CMSIS/include/core_cm3.h"