ARM GAS  C:\Users\z80\AppData\Local\Temp\ccE0jzLh.s 			page 1


   1              		.syntax unified
   2              		.cpu cortex-m3
   3              		.fpu softvfp
   4              		.eabi_attribute 20, 1
   5              		.eabi_attribute 21, 1
   6              		.eabi_attribute 23, 3
   7              		.eabi_attribute 24, 1
   8              		.eabi_attribute 25, 1
   9              		.eabi_attribute 26, 1
  10              		.eabi_attribute 30, 2
  11              		.eabi_attribute 34, 1
  12              		.eabi_attribute 18, 4
  13              		.thumb
  14              		.file	"stm32_dma.c"
  15              		.text
  16              	.Ltext0:
  17              		.cfi_sections	.debug_frame
  18              		.section	.text.Vector6C,"ax",%progbits
  19              		.align	2
  20              		.p2align 4,,15
  21              		.global	Vector6C
  22              		.thumb
  23              		.thumb_func
  24              		.type	Vector6C, %function
  25              	Vector6C:
  26              	.LFB62:
  27              		.file 1 "../chibios_2.4.x/os/hal/platforms/STM32F1xx/stm32_dma.c"
  28              		.loc 1 137 0
  29              		.cfi_startproc
  30              		@ args = 0, pretend = 0, frame = 0
  31              		@ frame_needed = 0, uses_anonymous_args = 0
  32 0000 10B5     		push	{r4, lr}
  33              	.LCFI0:
  34              		.cfi_def_cfa_offset 8
  35              		.cfi_offset 14, -4
  36              		.cfi_offset 4, -8
  37              		.loc 1 140 0
  38 0002 FFF7FEFF 		bl	dbg_check_enter_isr
  39              		.loc 1 144 0
  40 0006 40F20002 		movw	r2, #:lower16:.LANCHOR0
  41 000a C0F20002 		movt	r2, #:upper16:.LANCHOR0
  42              		.loc 1 142 0
  43 000e 0020     		movs	r0, #0
  44              		.loc 1 144 0
  45 0010 1368     		ldr	r3, [r2, #0]
  46              		.loc 1 142 0
  47 0012 C4F20200 		movt	r0, 16386
  48              		.loc 1 143 0
  49 0016 0F24     		movs	r4, #15
  50              		.loc 1 142 0
  51 0018 0168     		ldr	r1, [r0, #0]
  52              	.LVL0:
  53              		.loc 1 143 0
  54 001a 4460     		str	r4, [r0, #4]
  55              		.loc 1 144 0
  56 001c 13B1     		cbz	r3, .L2
  57              		.loc 1 145 0
ARM GAS  C:\Users\z80\AppData\Local\Temp\ccE0jzLh.s 			page 2


  58 001e 5068     		ldr	r0, [r2, #4]
  59 0020 2140     		ands	r1, r1, r4
  60              	.LVL1:
  61 0022 9847     		blx	r3
  62              	.LVL2:
  63              	.L2:
  64              		.loc 1 147 0
  65 0024 FFF7FEFF 		bl	dbg_check_leave_isr
  66              		.loc 1 148 0
  67 0028 BDE81040 		pop	{r4, lr}
  68              		.loc 1 147 0
  69 002c FFF7FEBF 		b	_port_irq_epilogue
  70              		.cfi_endproc
  71              	.LFE62:
  72              		.size	Vector6C, .-Vector6C
  73              		.section	.text.Vector70,"ax",%progbits
  74              		.align	2
  75              		.p2align 4,,15
  76              		.global	Vector70
  77              		.thumb
  78              		.thumb_func
  79              		.type	Vector70, %function
  80              	Vector70:
  81              	.LFB63:
  82              		.loc 1 155 0
  83              		.cfi_startproc
  84              		@ args = 0, pretend = 0, frame = 0
  85              		@ frame_needed = 0, uses_anonymous_args = 0
  86 0000 10B5     		push	{r4, lr}
  87              	.LCFI1:
  88              		.cfi_def_cfa_offset 8
  89              		.cfi_offset 14, -4
  90              		.cfi_offset 4, -8
  91              		.loc 1 158 0
  92 0002 FFF7FEFF 		bl	dbg_check_enter_isr
  93              		.loc 1 162 0
  94 0006 40F20002 		movw	r2, #:lower16:.LANCHOR0
  95 000a C0F20002 		movt	r2, #:upper16:.LANCHOR0
  96              		.loc 1 160 0
  97 000e 0020     		movs	r0, #0
  98              		.loc 1 162 0
  99 0010 9368     		ldr	r3, [r2, #8]
 100              		.loc 1 160 0
 101 0012 C4F20200 		movt	r0, 16386
 102              		.loc 1 161 0
 103 0016 F024     		movs	r4, #240
 104              		.loc 1 160 0
 105 0018 0168     		ldr	r1, [r0, #0]
 106              	.LVL3:
 107              		.loc 1 161 0
 108 001a 4460     		str	r4, [r0, #4]
 109              		.loc 1 162 0
 110 001c 1BB1     		cbz	r3, .L5
 111              		.loc 1 163 0
 112 001e D068     		ldr	r0, [r2, #12]
 113 0020 C1F30311 		ubfx	r1, r1, #4, #4
 114              	.LVL4:
ARM GAS  C:\Users\z80\AppData\Local\Temp\ccE0jzLh.s 			page 3


 115 0024 9847     		blx	r3
 116              	.L5:
 117              		.loc 1 165 0
 118 0026 FFF7FEFF 		bl	dbg_check_leave_isr
 119              		.loc 1 166 0
 120 002a BDE81040 		pop	{r4, lr}
 121              		.loc 1 165 0
 122 002e FFF7FEBF 		b	_port_irq_epilogue
 123              		.cfi_endproc
 124              	.LFE63:
 125              		.size	Vector70, .-Vector70
 126 0032 00BFAFF3 		.section	.text.Vector74,"ax",%progbits
 126      0080AFF3 
 126      0080AFF3 
 126      0080
 127              		.align	2
 128              		.p2align 4,,15
 129              		.global	Vector74
 130              		.thumb
 131              		.thumb_func
 132              		.type	Vector74, %function
 133              	Vector74:
 134              	.LFB64:
 135              		.loc 1 173 0
 136              		.cfi_startproc
 137              		@ args = 0, pretend = 0, frame = 0
 138              		@ frame_needed = 0, uses_anonymous_args = 0
 139 0000 10B5     		push	{r4, lr}
 140              	.LCFI2:
 141              		.cfi_def_cfa_offset 8
 142              		.cfi_offset 14, -4
 143              		.cfi_offset 4, -8
 144              		.loc 1 176 0
 145 0002 FFF7FEFF 		bl	dbg_check_enter_isr
 146              		.loc 1 180 0
 147 0006 40F20002 		movw	r2, #:lower16:.LANCHOR0
 148 000a C0F20002 		movt	r2, #:upper16:.LANCHOR0
 149              		.loc 1 178 0
 150 000e 0020     		movs	r0, #0
 151              		.loc 1 180 0
 152 0010 1369     		ldr	r3, [r2, #16]
 153              		.loc 1 178 0
 154 0012 C4F20200 		movt	r0, 16386
 155              		.loc 1 179 0
 156 0016 4FF47064 		mov	r4, #3840
 157              		.loc 1 178 0
 158 001a 0168     		ldr	r1, [r0, #0]
 159              	.LVL5:
 160              		.loc 1 179 0
 161 001c 4460     		str	r4, [r0, #4]
 162              		.loc 1 180 0
 163 001e 1BB1     		cbz	r3, .L7
 164              		.loc 1 181 0
 165 0020 5069     		ldr	r0, [r2, #20]
 166 0022 C1F30321 		ubfx	r1, r1, #8, #4
 167              	.LVL6:
 168 0026 9847     		blx	r3
ARM GAS  C:\Users\z80\AppData\Local\Temp\ccE0jzLh.s 			page 4


 169              	.L7:
 170              		.loc 1 183 0
 171 0028 FFF7FEFF 		bl	dbg_check_leave_isr
 172              		.loc 1 184 0
 173 002c BDE81040 		pop	{r4, lr}
 174              		.loc 1 183 0
 175 0030 FFF7FEBF 		b	_port_irq_epilogue
 176              		.cfi_endproc
 177              	.LFE64:
 178              		.size	Vector74, .-Vector74
 179 0034 AFF30080 		.section	.text.Vector78,"ax",%progbits
 179      AFF30080 
 179      AFF30080 
 180              		.align	2
 181              		.p2align 4,,15
 182              		.global	Vector78
 183              		.thumb
 184              		.thumb_func
 185              		.type	Vector78, %function
 186              	Vector78:
 187              	.LFB65:
 188              		.loc 1 191 0
 189              		.cfi_startproc
 190              		@ args = 0, pretend = 0, frame = 0
 191              		@ frame_needed = 0, uses_anonymous_args = 0
 192 0000 10B5     		push	{r4, lr}
 193              	.LCFI3:
 194              		.cfi_def_cfa_offset 8
 195              		.cfi_offset 14, -4
 196              		.cfi_offset 4, -8
 197              		.loc 1 194 0
 198 0002 FFF7FEFF 		bl	dbg_check_enter_isr
 199              		.loc 1 198 0
 200 0006 40F20002 		movw	r2, #:lower16:.LANCHOR0
 201 000a C0F20002 		movt	r2, #:upper16:.LANCHOR0
 202              		.loc 1 196 0
 203 000e 0020     		movs	r0, #0
 204              		.loc 1 198 0
 205 0010 9369     		ldr	r3, [r2, #24]
 206              		.loc 1 196 0
 207 0012 C4F20200 		movt	r0, 16386
 208              		.loc 1 197 0
 209 0016 4FF47044 		mov	r4, #61440
 210              		.loc 1 196 0
 211 001a 0168     		ldr	r1, [r0, #0]
 212              	.LVL7:
 213              		.loc 1 197 0
 214 001c 4460     		str	r4, [r0, #4]
 215              		.loc 1 198 0
 216 001e 1BB1     		cbz	r3, .L9
 217              		.loc 1 199 0
 218 0020 D069     		ldr	r0, [r2, #28]
 219 0022 C1F30331 		ubfx	r1, r1, #12, #4
 220              	.LVL8:
 221 0026 9847     		blx	r3
 222              	.L9:
 223              		.loc 1 201 0
ARM GAS  C:\Users\z80\AppData\Local\Temp\ccE0jzLh.s 			page 5


 224 0028 FFF7FEFF 		bl	dbg_check_leave_isr
 225              		.loc 1 202 0
 226 002c BDE81040 		pop	{r4, lr}
 227              		.loc 1 201 0
 228 0030 FFF7FEBF 		b	_port_irq_epilogue
 229              		.cfi_endproc
 230              	.LFE65:
 231              		.size	Vector78, .-Vector78
 232 0034 AFF30080 		.section	.text.Vector7C,"ax",%progbits
 232      AFF30080 
 232      AFF30080 
 233              		.align	2
 234              		.p2align 4,,15
 235              		.global	Vector7C
 236              		.thumb
 237              		.thumb_func
 238              		.type	Vector7C, %function
 239              	Vector7C:
 240              	.LFB66:
 241              		.loc 1 209 0
 242              		.cfi_startproc
 243              		@ args = 0, pretend = 0, frame = 0
 244              		@ frame_needed = 0, uses_anonymous_args = 0
 245 0000 10B5     		push	{r4, lr}
 246              	.LCFI4:
 247              		.cfi_def_cfa_offset 8
 248              		.cfi_offset 14, -4
 249              		.cfi_offset 4, -8
 250              		.loc 1 212 0
 251 0002 FFF7FEFF 		bl	dbg_check_enter_isr
 252              		.loc 1 216 0
 253 0006 40F20002 		movw	r2, #:lower16:.LANCHOR0
 254 000a C0F20002 		movt	r2, #:upper16:.LANCHOR0
 255              		.loc 1 214 0
 256 000e 0020     		movs	r0, #0
 257              		.loc 1 216 0
 258 0010 136A     		ldr	r3, [r2, #32]
 259              		.loc 1 214 0
 260 0012 C4F20200 		movt	r0, 16386
 261              		.loc 1 215 0
 262 0016 4FF47024 		mov	r4, #983040
 263              		.loc 1 214 0
 264 001a 0168     		ldr	r1, [r0, #0]
 265              	.LVL9:
 266              		.loc 1 215 0
 267 001c 4460     		str	r4, [r0, #4]
 268              		.loc 1 216 0
 269 001e 1BB1     		cbz	r3, .L11
 270              		.loc 1 217 0
 271 0020 506A     		ldr	r0, [r2, #36]
 272 0022 C1F30341 		ubfx	r1, r1, #16, #4
 273              	.LVL10:
 274 0026 9847     		blx	r3
 275              	.L11:
 276              		.loc 1 219 0
 277 0028 FFF7FEFF 		bl	dbg_check_leave_isr
 278              		.loc 1 220 0
ARM GAS  C:\Users\z80\AppData\Local\Temp\ccE0jzLh.s 			page 6


 279 002c BDE81040 		pop	{r4, lr}
 280              		.loc 1 219 0
 281 0030 FFF7FEBF 		b	_port_irq_epilogue
 282              		.cfi_endproc
 283              	.LFE66:
 284              		.size	Vector7C, .-Vector7C
 285 0034 AFF30080 		.section	.text.Vector80,"ax",%progbits
 285      AFF30080 
 285      AFF30080 
 286              		.align	2
 287              		.p2align 4,,15
 288              		.global	Vector80
 289              		.thumb
 290              		.thumb_func
 291              		.type	Vector80, %function
 292              	Vector80:
 293              	.LFB67:
 294              		.loc 1 227 0
 295              		.cfi_startproc
 296              		@ args = 0, pretend = 0, frame = 0
 297              		@ frame_needed = 0, uses_anonymous_args = 0
 298 0000 10B5     		push	{r4, lr}
 299              	.LCFI5:
 300              		.cfi_def_cfa_offset 8
 301              		.cfi_offset 14, -4
 302              		.cfi_offset 4, -8
 303              		.loc 1 230 0
 304 0002 FFF7FEFF 		bl	dbg_check_enter_isr
 305              		.loc 1 234 0
 306 0006 40F20002 		movw	r2, #:lower16:.LANCHOR0
 307 000a C0F20002 		movt	r2, #:upper16:.LANCHOR0
 308              		.loc 1 232 0
 309 000e 0020     		movs	r0, #0
 310              		.loc 1 234 0
 311 0010 936A     		ldr	r3, [r2, #40]
 312              		.loc 1 232 0
 313 0012 C4F20200 		movt	r0, 16386
 314              		.loc 1 233 0
 315 0016 4FF47004 		mov	r4, #15728640
 316              		.loc 1 232 0
 317 001a 0168     		ldr	r1, [r0, #0]
 318              	.LVL11:
 319              		.loc 1 233 0
 320 001c 4460     		str	r4, [r0, #4]
 321              		.loc 1 234 0
 322 001e 1BB1     		cbz	r3, .L13
 323              		.loc 1 235 0
 324 0020 D06A     		ldr	r0, [r2, #44]
 325 0022 C1F30351 		ubfx	r1, r1, #20, #4
 326              	.LVL12:
 327 0026 9847     		blx	r3
 328              	.L13:
 329              		.loc 1 237 0
 330 0028 FFF7FEFF 		bl	dbg_check_leave_isr
 331              		.loc 1 238 0
 332 002c BDE81040 		pop	{r4, lr}
 333              		.loc 1 237 0
ARM GAS  C:\Users\z80\AppData\Local\Temp\ccE0jzLh.s 			page 7


 334 0030 FFF7FEBF 		b	_port_irq_epilogue
 335              		.cfi_endproc
 336              	.LFE67:
 337              		.size	Vector80, .-Vector80
 338 0034 AFF30080 		.section	.text.Vector84,"ax",%progbits
 338      AFF30080 
 338      AFF30080 
 339              		.align	2
 340              		.p2align 4,,15
 341              		.global	Vector84
 342              		.thumb
 343              		.thumb_func
 344              		.type	Vector84, %function
 345              	Vector84:
 346              	.LFB68:
 347              		.loc 1 245 0
 348              		.cfi_startproc
 349              		@ args = 0, pretend = 0, frame = 0
 350              		@ frame_needed = 0, uses_anonymous_args = 0
 351 0000 10B5     		push	{r4, lr}
 352              	.LCFI6:
 353              		.cfi_def_cfa_offset 8
 354              		.cfi_offset 14, -4
 355              		.cfi_offset 4, -8
 356              		.loc 1 248 0
 357 0002 FFF7FEFF 		bl	dbg_check_enter_isr
 358              		.loc 1 252 0
 359 0006 40F20002 		movw	r2, #:lower16:.LANCHOR0
 360 000a C0F20002 		movt	r2, #:upper16:.LANCHOR0
 361              		.loc 1 250 0
 362 000e 0020     		movs	r0, #0
 363              		.loc 1 252 0
 364 0010 136B     		ldr	r3, [r2, #48]
 365              		.loc 1 250 0
 366 0012 C4F20200 		movt	r0, 16386
 367              		.loc 1 251 0
 368 0016 4FF07064 		mov	r4, #251658240
 369              		.loc 1 250 0
 370 001a 0168     		ldr	r1, [r0, #0]
 371              	.LVL13:
 372              		.loc 1 251 0
 373 001c 4460     		str	r4, [r0, #4]
 374              		.loc 1 252 0
 375 001e 1BB1     		cbz	r3, .L15
 376              		.loc 1 253 0
 377 0020 506B     		ldr	r0, [r2, #52]
 378 0022 C1F30361 		ubfx	r1, r1, #24, #4
 379              	.LVL14:
 380 0026 9847     		blx	r3
 381              	.L15:
 382              		.loc 1 255 0
 383 0028 FFF7FEFF 		bl	dbg_check_leave_isr
 384              		.loc 1 256 0
 385 002c BDE81040 		pop	{r4, lr}
 386              		.loc 1 255 0
 387 0030 FFF7FEBF 		b	_port_irq_epilogue
 388              		.cfi_endproc
ARM GAS  C:\Users\z80\AppData\Local\Temp\ccE0jzLh.s 			page 8


 389              	.LFE68:
 390              		.size	Vector84, .-Vector84
 391 0034 AFF30080 		.section	.text.dmaInit,"ax",%progbits
 391      AFF30080 
 391      AFF30080 
 392              		.align	2
 393              		.p2align 4,,15
 394              		.global	dmaInit
 395              		.thumb
 396              		.thumb_func
 397              		.type	dmaInit, %function
 398              	dmaInit:
 399              	.LFB69:
 400              		.loc 1 392 0
 401              		.cfi_startproc
 402              		@ args = 0, pretend = 0, frame = 0
 403              		@ frame_needed = 0, uses_anonymous_args = 0
 404              		@ link register save eliminated.
 405 0000 2DE9F003 		push	{r4, r5, r6, r7, r8, r9}
 406              	.LCFI7:
 407              		.cfi_def_cfa_offset 24
 408              		.cfi_offset 9, -4
 409              		.cfi_offset 8, -8
 410              		.cfi_offset 7, -12
 411              		.cfi_offset 6, -16
 412              		.cfi_offset 5, -20
 413              		.cfi_offset 4, -24
 414              		.loc 1 400 0
 415 0004 0020     		movs	r0, #0
 416              		.loc 1 395 0
 417 0006 40F20001 		movw	r1, #:lower16:.LANCHOR1
 418              		.loc 1 397 0
 419 000a 4FF00809 		mov	r9, #8
 420              		.loc 1 398 0
 421 000e 40F20002 		movw	r2, #:lower16:.LANCHOR0
 422              		.loc 1 397 0
 423 0012 4FF01C08 		mov	r8, #28
 424 0016 4FF0300C 		mov	ip, #48
 425 001a 4427     		movs	r7, #68
 426 001c 5826     		movs	r6, #88
 427 001e 6C25     		movs	r5, #108
 428 0020 8024     		movs	r4, #128
 429              		.loc 1 395 0
 430 0022 0346     		mov	r3, r0
 431              		.loc 1 398 0
 432 0024 C0F20002 		movt	r2, #:upper16:.LANCHOR0
 433              		.loc 1 395 0
 434 0028 C0F20001 		movt	r1, #:upper16:.LANCHOR1
 435              		.loc 1 397 0
 436 002c C4F20209 		movt	r9, 16386
 437 0030 C4F20208 		movt	r8, 16386
 438 0034 C4F2020C 		movt	ip, 16386
 439 0038 C4F20207 		movt	r7, 16386
 440 003c C4F20206 		movt	r6, 16386
 441 0040 C4F20205 		movt	r5, 16386
 442 0044 C4F20204 		movt	r4, 16386
 443              		.loc 1 395 0
ARM GAS  C:\Users\z80\AppData\Local\Temp\ccE0jzLh.s 			page 9


 444 0048 0B60     		str	r3, [r1, #0]
 445              	.LVL15:
 446              		.loc 1 400 0
 447 004a C4F20200 		movt	r0, 16386
 448              		.loc 1 397 0
 449 004e C9F80030 		str	r3, [r9, #0]
 450              		.loc 1 398 0
 451 0052 1360     		str	r3, [r2, #0]
 452              	.LVL16:
 453              		.loc 1 397 0
 454 0054 C8F80030 		str	r3, [r8, #0]
 455              		.loc 1 398 0
 456 0058 9360     		str	r3, [r2, #8]
 457              	.LVL17:
 458              		.loc 1 397 0
 459 005a CCF80030 		str	r3, [ip, #0]
 460              		.loc 1 398 0
 461 005e 1361     		str	r3, [r2, #16]
 462              	.LVL18:
 463              		.loc 1 397 0
 464 0060 3B60     		str	r3, [r7, #0]
 465              		.loc 1 398 0
 466 0062 9361     		str	r3, [r2, #24]
 467              	.LVL19:
 468              		.loc 1 397 0
 469 0064 3360     		str	r3, [r6, #0]
 470              		.loc 1 398 0
 471 0066 1362     		str	r3, [r2, #32]
 472              	.LVL20:
 473              		.loc 1 397 0
 474 0068 2B60     		str	r3, [r5, #0]
 475              		.loc 1 398 0
 476 006a 9362     		str	r3, [r2, #40]
 477              	.LVL21:
 478              		.loc 1 397 0
 479 006c 2360     		str	r3, [r4, #0]
 480              		.loc 1 398 0
 481 006e 1363     		str	r3, [r2, #48]
 482              	.LVL22:
 483              		.loc 1 400 0
 484 0070 4FF0FF33 		mov	r3, #-1
 485 0074 4360     		str	r3, [r0, #4]
 486              		.loc 1 404 0
 487 0076 BDE8F003 		pop	{r4, r5, r6, r7, r8, r9}
 488 007a 7047     		bx	lr
 489              		.cfi_endproc
 490              	.LFE69:
 491              		.size	dmaInit, .-dmaInit
 492 007c AFF30080 		.section	.text.dmaStreamAllocate,"ax",%progbits
 493              		.align	2
 494              		.p2align 4,,15
 495              		.global	dmaStreamAllocate
 496              		.thumb
 497              		.thumb_func
 498              		.type	dmaStreamAllocate, %function
 499              	dmaStreamAllocate:
 500              	.LFB70:
ARM GAS  C:\Users\z80\AppData\Local\Temp\ccE0jzLh.s 			page 10


 501              		.loc 1 433 0
 502              		.cfi_startproc
 503              		@ args = 0, pretend = 0, frame = 16
 504              		@ frame_needed = 0, uses_anonymous_args = 0
 505              	.LVL23:
 506 0000 2DE9F041 		push	{r4, r5, r6, r7, r8, lr}
 507              	.LCFI8:
 508              		.cfi_def_cfa_offset 24
 509              		.cfi_offset 14, -4
 510              		.cfi_offset 8, -8
 511              		.cfi_offset 7, -12
 512              		.cfi_offset 6, -16
 513              		.cfi_offset 5, -20
 514              		.cfi_offset 4, -24
 515              		.loc 1 435 0
 516 0004 0446     		mov	r4, r0
 517              		.loc 1 433 0
 518 0006 84B0     		sub	sp, sp, #16
 519              	.LCFI9:
 520              		.cfi_def_cfa_offset 40
 521              		.loc 1 435 0
 522 0008 0028     		cmp	r0, #0
 523 000a 40D0     		beq	.L23
 524              	.LVL24:
 525              	.L18:
 526              		.loc 1 438 0
 527 000c 677A     		ldrb	r7, [r4, #9]	@ zero_extendqisi2
 528 000e 0120     		movs	r0, #1
 529 0010 00FA07FC 		lsl	ip, r0, r7
 530 0014 40F20006 		movw	r6, #:lower16:.LANCHOR1
 531 0018 C0F20006 		movt	r6, #:upper16:.LANCHOR1
 532 001c 3568     		ldr	r5, [r6, #0]
 533 001e 1CEA050F 		tst	ip, r5
 534 0022 31D1     		bne	.L19
 535              		.loc 1 444 0
 536 0024 4CEA0505 		orr	r5, ip, r5
 537              		.loc 1 447 0
 538 0028 5FEA456C 		lsls	ip, r5, #25
 539              		.loc 1 448 0
 540 002c 18BF     		it	ne
 541 002e 4FF4805C 		movne	ip, #4096
 542              		.loc 1 442 0
 543 0032 40F20000 		movw	r0, #:lower16:.LANCHOR0
 544 0036 C0F20000 		movt	r0, #:upper16:.LANCHOR0
 545              		.loc 1 444 0
 546 003a 3560     		str	r5, [r6, #0]
 547              		.loc 1 448 0
 548 003c 18BF     		it	ne
 549 003e C4F2020C 		movtne	ip, 16386
 550              		.loc 1 443 0
 551 0042 00EBC708 		add	r8, r0, r7, lsl #3
 552              		.loc 1 442 0
 553 0046 40F83720 		str	r2, [r0, r7, lsl #3]
 554              		.loc 1 448 0
 555 004a 18BF     		it	ne
 556 004c DCF81400 		ldrne	r0, [ip, #20]
 557              		.loc 1 443 0
ARM GAS  C:\Users\z80\AppData\Local\Temp\ccE0jzLh.s 			page 11


 558 0050 C8F80430 		str	r3, [r8, #4]
 559              		.loc 1 448 0
 560 0054 18BF     		it	ne
 561 0056 40F00100 		orrne	r0, r0, #1
 562              		.loc 1 455 0
 563 005a 2368     		ldr	r3, [r4, #0]
 564              		.loc 1 448 0
 565 005c 18BF     		it	ne
 566 005e CCF81400 		strne	r0, [ip, #20]
 567              		.loc 1 455 0
 568 0062 1F68     		ldr	r7, [r3, #0]
 569 0064 6068     		ldr	r0, [r4, #4]
 570 0066 27F00105 		bic	r5, r7, #1
 571 006a 1D60     		str	r5, [r3, #0]
 572 006c 267A     		ldrb	r6, [r4, #8]	@ zero_extendqisi2
 573 006e 0F27     		movs	r7, #15
 574 0070 07FA06F6 		lsl	r6, r7, r6
 575              		.loc 1 456 0
 576 0074 0025     		movs	r5, #0
 577              		.loc 1 455 0
 578 0076 0660     		str	r6, [r0, #0]
 579              		.loc 1 456 0
 580 0078 1D60     		str	r5, [r3, #0]
 581              		.loc 1 462 0
 582 007a 1046     		mov	r0, r2
 583              		.loc 1 459 0
 584 007c 22B1     		cbz	r2, .L19
 585              		.loc 1 460 0
 586 007e A07A     		ldrb	r0, [r4, #10]	@ zero_extendqisi2
 587 0080 0901     		lsls	r1, r1, #4
 588 0082 FFF7FEFF 		bl	nvicEnableVector
 589              		.loc 1 462 0
 590 0086 2846     		mov	r0, r5
 591              	.L19:
 592              		.loc 1 463 0
 593 0088 04B0     		add	sp, sp, #16
 594 008a BDE8F081 		pop	{r4, r5, r6, r7, r8, pc}
 595              	.LVL25:
 596              	.L23:
 597              		.loc 1 435 0 discriminator 1
 598 008e 40F20000 		movw	r0, #:lower16:.LC0
 599 0092 C0F20000 		movt	r0, #:upper16:.LC0
 600 0096 0391     		str	r1, [sp, #12]
 601 0098 0292     		str	r2, [sp, #8]
 602 009a 0193     		str	r3, [sp, #4]
 603 009c FFF7FEFF 		bl	chDbgPanic
 604              	.LVL26:
 605 00a0 019B     		ldr	r3, [sp, #4]
 606 00a2 029A     		ldr	r2, [sp, #8]
 607 00a4 0399     		ldr	r1, [sp, #12]
 608 00a6 B1E7     		b	.L18
 609              		.cfi_endproc
 610              	.LFE70:
 611              		.size	dmaStreamAllocate, .-dmaStreamAllocate
 612 00a8 AFF30080 		.section	.text.dmaStreamRelease,"ax",%progbits
 612      AFF30080 
 613              		.align	2
ARM GAS  C:\Users\z80\AppData\Local\Temp\ccE0jzLh.s 			page 12


 614              		.p2align 4,,15
 615              		.global	dmaStreamRelease
 616              		.thumb
 617              		.thumb_func
 618              		.type	dmaStreamRelease, %function
 619              	dmaStreamRelease:
 620              	.LFB71:
 621              		.loc 1 478 0
 622              		.cfi_startproc
 623              		@ args = 0, pretend = 0, frame = 0
 624              		@ frame_needed = 0, uses_anonymous_args = 0
 625              	.LVL27:
 626 0000 38B5     		push	{r3, r4, r5, lr}
 627              	.LCFI10:
 628              		.cfi_def_cfa_offset 16
 629              		.cfi_offset 14, -4
 630              		.cfi_offset 5, -8
 631              		.cfi_offset 4, -12
 632              		.cfi_offset 3, -16
 633              		.loc 1 480 0
 634 0002 0546     		mov	r5, r0
 635 0004 48B3     		cbz	r0, .L28
 636              	.LVL28:
 637              	.L25:
 638              		.loc 1 483 0
 639 0006 697A     		ldrb	r1, [r5, #9]	@ zero_extendqisi2
 640 0008 0120     		movs	r0, #1
 641 000a 00FA01F2 		lsl	r2, r0, r1
 642 000e 40F20004 		movw	r4, #:lower16:.LANCHOR1
 643 0012 C0F20004 		movt	r4, #:upper16:.LANCHOR1
 644 0016 2368     		ldr	r3, [r4, #0]
 645 0018 1A42     		tst	r2, r3
 646 001a 17D0     		beq	.L29
 647              	.L26:
 648              		.loc 1 487 0
 649 001c A87A     		ldrb	r0, [r5, #10]	@ zero_extendqisi2
 650 001e FFF7FEFF 		bl	nvicDisableVector
 651              		.loc 1 490 0
 652 0022 95F809C0 		ldrb	ip, [r5, #9]	@ zero_extendqisi2
 653 0026 0122     		movs	r2, #1
 654 0028 02FA0CF0 		lsl	r0, r2, ip
 655 002c 2168     		ldr	r1, [r4, #0]
 656 002e 21EA0003 		bic	r3, r1, r0
 657              		.loc 1 493 0
 658 0032 5A06     		lsls	r2, r3, #25
 659              		.loc 1 490 0
 660 0034 2360     		str	r3, [r4, #0]
 661              		.loc 1 494 0
 662 0036 01BF     		itttt	eq
 663 0038 4FF48053 		moveq	r3, #4096
 664 003c C4F20203 		movteq	r3, 16386
 665 0040 5A69     		ldreq	r2, [r3, #20]
 666 0042 22F00102 		biceq	r2, r2, #1
 667 0046 08BF     		it	eq
 668 0048 5A61     		streq	r2, [r3, #20]
 669 004a 38BD     		pop	{r3, r4, r5, pc}
 670              	.L29:
ARM GAS  C:\Users\z80\AppData\Local\Temp\ccE0jzLh.s 			page 13


 671              		.loc 1 483 0 discriminator 1
 672 004c 40F20000 		movw	r0, #:lower16:.LC2
 673 0050 C0F20000 		movt	r0, #:upper16:.LC2
 674 0054 FFF7FEFF 		bl	chDbgPanic
 675 0058 E0E7     		b	.L26
 676              	.L28:
 677              		.loc 1 480 0 discriminator 1
 678 005a 40F20000 		movw	r0, #:lower16:.LC1
 679 005e C0F20000 		movt	r0, #:upper16:.LC1
 680 0062 FFF7FEFF 		bl	chDbgPanic
 681 0066 CEE7     		b	.L25
 682              		.cfi_endproc
 683              	.LFE71:
 684              		.size	dmaStreamRelease, .-dmaStreamRelease
 685              		.global	_stm32_dma_streams
 686 0068 AFF30080 		.section	.rodata.str1.4,"aMS",%progbits,1
 686      AFF30080 
 687              		.align	2
 688              	.LC0:
 689 0000 22646D61 		.ascii	"\"dmaAllocate\"()\000"
 689      416C6C6F 
 689      63617465 
 689      22282900 
 690              	.LC1:
 691 0010 22646D61 		.ascii	"\"dmaRelease\"()\000"
 691      52656C65 
 691      61736522 
 691      282900
 692 001f 00       		.space	1
 693              	.LC2:
 694 0020 646D6152 		.ascii	"dmaRelease(), #1\000"
 694      656C6561 
 694      73652829 
 694      2C202331 
 694      00
 695 0031 000000   		.section	.bss.dma_isr_redir,"aw",%nobits
 696              		.align	2
 697              		.set	.LANCHOR0,. + 0
 698              		.type	dma_isr_redir, %object
 699              		.size	dma_isr_redir, 56
 700              	dma_isr_redir:
 701 0000 00000000 		.space	56
 701      00000000 
 701      00000000 
 701      00000000 
 701      00000000 
 702              		.section	.rodata._stm32_dma_streams,"a",%progbits
 703              		.align	2
 704              		.type	_stm32_dma_streams, %object
 705              		.size	_stm32_dma_streams, 84
 706              	_stm32_dma_streams:
 707 0000 08000240 		.word	1073872904
 708 0004 04000240 		.word	1073872900
 709 0008 00       		.byte	0
 710 0009 00       		.byte	0
 711 000a 0B       		.byte	11
 712 000b 00       		.space	1
ARM GAS  C:\Users\z80\AppData\Local\Temp\ccE0jzLh.s 			page 14


 713 000c 1C000240 		.word	1073872924
 714 0010 04000240 		.word	1073872900
 715 0014 04       		.byte	4
 716 0015 01       		.byte	1
 717 0016 0C       		.byte	12
 718 0017 00       		.space	1
 719 0018 30000240 		.word	1073872944
 720 001c 04000240 		.word	1073872900
 721 0020 08       		.byte	8
 722 0021 02       		.byte	2
 723 0022 0D       		.byte	13
 724 0023 00       		.space	1
 725 0024 44000240 		.word	1073872964
 726 0028 04000240 		.word	1073872900
 727 002c 0C       		.byte	12
 728 002d 03       		.byte	3
 729 002e 0E       		.byte	14
 730 002f 00       		.space	1
 731 0030 58000240 		.word	1073872984
 732 0034 04000240 		.word	1073872900
 733 0038 10       		.byte	16
 734 0039 04       		.byte	4
 735 003a 0F       		.byte	15
 736 003b 00       		.space	1
 737 003c 6C000240 		.word	1073873004
 738 0040 04000240 		.word	1073872900
 739 0044 14       		.byte	20
 740 0045 05       		.byte	5
 741 0046 10       		.byte	16
 742 0047 00       		.space	1
 743 0048 80000240 		.word	1073873024
 744 004c 04000240 		.word	1073872900
 745 0050 18       		.byte	24
 746 0051 06       		.byte	6
 747 0052 11       		.byte	17
 748 0053 00       		.space	1
 749              		.section	.bss.dma_streams_mask,"aw",%nobits
 750              		.align	2
 751              		.set	.LANCHOR1,. + 0
 752              		.type	dma_streams_mask, %object
 753              		.size	dma_streams_mask, 4
 754              	dma_streams_mask:
 755 0000 00000000 		.space	4
 756              		.text
 757              	.Letext0:
 758              		.file 2 "c:\\programs\\codesourcery\\2011.03-56\\bin\\../lib/gcc/arm-none-eabi/4.6.3/../../../../a
 759              		.file 3 "../chibios_2.4.x/os/ports/GCC/ARMCMx/chtypes.h"
 760              		.file 4 "../chibios_2.4.x/os/hal/platforms/STM32F1xx/stm32f10x.h"
 761              		.file 5 "../chibios_2.4.x/os/hal/platforms/STM32F1xx/stm32_dma.h"
 762              		.file 6 "../chibios_2.4.x/os/ports/common/ARMCMx/CMSIS/include/core_cm3.h"