ARM GAS  C:\Users\z80\AppData\Local\Temp\ccenAslK.s 			page 1


   1              		.syntax unified
   2              		.cpu cortex-m3
   3              		.fpu softvfp
   4              		.eabi_attribute 20, 1
   5              		.eabi_attribute 21, 1
   6              		.eabi_attribute 23, 3
   7              		.eabi_attribute 24, 1
   8              		.eabi_attribute 25, 1
   9              		.eabi_attribute 26, 1
  10              		.eabi_attribute 30, 6
  11              		.eabi_attribute 34, 1
  12              		.eabi_attribute 18, 4
  13              		.thumb
  14              		.file	"syscalls.c"
  15              		.text
  16              	.Ltext0:
  17              		.cfi_sections	.debug_frame
  18              		.section	.text._read_r,"ax",%progbits
  19              		.align	2
  20              		.p2align 4,,15
  21              		.global	_read_r
  22              		.thumb
  23              		.thumb_func
  24              		.type	_read_r, %function
  25              	_read_r:
  26              	.LFB7:
  27              		.file 1 "../chibios_2.4.x/os/various/syscalls.c"
  28              		.loc 1 82 0
  29              		.cfi_startproc
  30              		@ args = 0, pretend = 0, frame = 16
  31              		@ frame_needed = 0, uses_anonymous_args = 0
  32              		@ link register save eliminated.
  33 0000 84B0     		sub	sp, sp, #16
  34              	.LCFI0:
  35              		.cfi_def_cfa_offset 16
  36 0002 0390     		str	r0, [sp, #12]
  37 0004 0291     		str	r1, [sp, #8]
  38 0006 0192     		str	r2, [sp, #4]
  39 0008 0093     		str	r3, [sp, #0]
  40              		.loc 1 95 0
  41 000a 039B     		ldr	r3, [sp, #12]
  42 000c 4FF01602 		mov	r2, #22
  43 0010 1A60     		str	r2, [r3, #0]
  44              		.loc 1 96 0
  45 0012 4FF0FF33 		mov	r3, #-1
  46              		.loc 1 98 0
  47 0016 1846     		mov	r0, r3
  48 0018 04B0     		add	sp, sp, #16
  49 001a 7047     		bx	lr
  50              		.cfi_endproc
  51              	.LFE7:
  52              		.size	_read_r, .-_read_r
  53 001c AFF30080 		.section	.text._lseek_r,"ax",%progbits
  54              		.align	2
  55              		.p2align 4,,15
  56              		.global	_lseek_r
  57              		.thumb
ARM GAS  C:\Users\z80\AppData\Local\Temp\ccenAslK.s 			page 2


  58              		.thumb_func
  59              		.type	_lseek_r, %function
  60              	_lseek_r:
  61              	.LFB8:
  62              		.loc 1 103 0
  63              		.cfi_startproc
  64              		@ args = 0, pretend = 0, frame = 16
  65              		@ frame_needed = 0, uses_anonymous_args = 0
  66              		@ link register save eliminated.
  67 0000 84B0     		sub	sp, sp, #16
  68              	.LCFI1:
  69              		.cfi_def_cfa_offset 16
  70 0002 0390     		str	r0, [sp, #12]
  71 0004 0291     		str	r1, [sp, #8]
  72 0006 0192     		str	r2, [sp, #4]
  73 0008 0093     		str	r3, [sp, #0]
  74              		.loc 1 109 0
  75 000a 4FF00003 		mov	r3, #0
  76              		.loc 1 110 0
  77 000e 1846     		mov	r0, r3
  78 0010 04B0     		add	sp, sp, #16
  79 0012 7047     		bx	lr
  80              		.cfi_endproc
  81              	.LFE8:
  82              		.size	_lseek_r, .-_lseek_r
  83 0014 AFF30080 		.section	.text._write_r,"ax",%progbits
  83      AFF30080 
  83      AFF30080 
  84              		.align	2
  85              		.p2align 4,,15
  86              		.global	_write_r
  87              		.thumb
  88              		.thumb_func
  89              		.type	_write_r, %function
  90              	_write_r:
  91              	.LFB9:
  92              		.loc 1 115 0
  93              		.cfi_startproc
  94              		@ args = 0, pretend = 0, frame = 16
  95              		@ frame_needed = 0, uses_anonymous_args = 0
  96              		@ link register save eliminated.
  97 0000 84B0     		sub	sp, sp, #16
  98              	.LCFI2:
  99              		.cfi_def_cfa_offset 16
 100 0002 0390     		str	r0, [sp, #12]
 101 0004 0291     		str	r1, [sp, #8]
 102 0006 0192     		str	r2, [sp, #4]
 103 0008 0093     		str	r3, [sp, #0]
 104              		.loc 1 126 0
 105 000a 009B     		ldr	r3, [sp, #0]
 106              		.loc 1 127 0
 107 000c 1846     		mov	r0, r3
 108 000e 04B0     		add	sp, sp, #16
 109 0010 7047     		bx	lr
 110              		.cfi_endproc
 111              	.LFE9:
 112              		.size	_write_r, .-_write_r
ARM GAS  C:\Users\z80\AppData\Local\Temp\ccenAslK.s 			page 3


 113 0012 00BFAFF3 		.section	.text._close_r,"ax",%progbits
 113      0080AFF3 
 113      0080AFF3 
 113      0080
 114              		.align	2
 115              		.p2align 4,,15
 116              		.global	_close_r
 117              		.thumb
 118              		.thumb_func
 119              		.type	_close_r, %function
 120              	_close_r:
 121              	.LFB10:
 122              		.loc 1 132 0
 123              		.cfi_startproc
 124              		@ args = 0, pretend = 0, frame = 8
 125              		@ frame_needed = 0, uses_anonymous_args = 0
 126              		@ link register save eliminated.
 127 0000 82B0     		sub	sp, sp, #8
 128              	.LCFI3:
 129              		.cfi_def_cfa_offset 8
 130 0002 0190     		str	r0, [sp, #4]
 131 0004 0091     		str	r1, [sp, #0]
 132              		.loc 1 136 0
 133 0006 4FF00003 		mov	r3, #0
 134              		.loc 1 137 0
 135 000a 1846     		mov	r0, r3
 136 000c 02B0     		add	sp, sp, #8
 137 000e 7047     		bx	lr
 138              		.cfi_endproc
 139              	.LFE10:
 140              		.size	_close_r, .-_close_r
 141              		.section	.rodata
 142              		.align	2
 143              	.LC0:
 144 0000 225F7362 		.ascii	"\"_sbrk_r\"()\000"
 144      726B5F72 
 144      22282900 
 145              		.section	.text._sbrk_r,"ax",%progbits
 146              		.align	2
 147              		.p2align 4,,15
 148              		.global	_sbrk_r
 149              		.thumb
 150              		.thumb_func
 151              		.type	_sbrk_r, %function
 152              	_sbrk_r:
 153              	.LFB11:
 154              		.loc 1 142 0
 155              		.cfi_startproc
 156              		@ args = 0, pretend = 0, frame = 16
 157              		@ frame_needed = 0, uses_anonymous_args = 0
 158 0000 00B5     		push	{lr}
 159              	.LCFI4:
 160              		.cfi_def_cfa_offset 4
 161              		.cfi_offset 14, -4
 162 0002 85B0     		sub	sp, sp, #20
 163              	.LCFI5:
 164              		.cfi_def_cfa_offset 24
ARM GAS  C:\Users\z80\AppData\Local\Temp\ccenAslK.s 			page 4


 165 0004 0190     		str	r0, [sp, #4]
 166 0006 0091     		str	r1, [sp, #0]
 167              		.loc 1 146 0
 168 0008 009B     		ldr	r3, [sp, #0]
 169 000a 002B     		cmp	r3, #0
 170 000c 05DC     		bgt	.L6
 171              		.loc 1 146 0 is_stmt 0 discriminator 1
 172 000e 40F20000 		movw	r0, #:lower16:.LC0
 173 0012 C0F20000 		movt	r0, #:upper16:.LC0
 174 0016 FFF7FEFF 		bl	chDbgPanic
 175              	.L6:
 176              		.loc 1 149 0 is_stmt 1
 177 001a 009B     		ldr	r3, [sp, #0]
 178 001c 1846     		mov	r0, r3
 179 001e FFF7FEFF 		bl	chCoreAlloc
 180 0022 0390     		str	r0, [sp, #12]
 181              		.loc 1 150 0
 182 0024 039B     		ldr	r3, [sp, #12]
 183 0026 002B     		cmp	r3, #0
 184 0028 06D1     		bne	.L7
 185              		.loc 1 151 0
 186 002a 019B     		ldr	r3, [sp, #4]
 187 002c 4FF00C02 		mov	r2, #12
 188 0030 1A60     		str	r2, [r3, #0]
 189              		.loc 1 152 0
 190 0032 4FF0FF33 		mov	r3, #-1
 191 0036 00E0     		b	.L8
 192              	.L7:
 193              		.loc 1 154 0
 194 0038 039B     		ldr	r3, [sp, #12]
 195              	.L8:
 196              		.loc 1 159 0
 197 003a 1846     		mov	r0, r3
 198 003c 05B0     		add	sp, sp, #20
 199 003e 00BD     		pop	{pc}
 200              		.cfi_endproc
 201              	.LFE11:
 202              		.size	_sbrk_r, .-_sbrk_r
 203              		.section	.text._fstat_r,"ax",%progbits
 204              		.align	2
 205              		.p2align 4,,15
 206              		.global	_fstat_r
 207              		.thumb
 208              		.thumb_func
 209              		.type	_fstat_r, %function
 210              	_fstat_r:
 211              	.LFB12:
 212              		.loc 1 164 0
 213              		.cfi_startproc
 214              		@ args = 0, pretend = 0, frame = 16
 215              		@ frame_needed = 0, uses_anonymous_args = 0
 216 0000 00B5     		push	{lr}
 217              	.LCFI6:
 218              		.cfi_def_cfa_offset 4
 219              		.cfi_offset 14, -4
 220 0002 85B0     		sub	sp, sp, #20
 221              	.LCFI7:
ARM GAS  C:\Users\z80\AppData\Local\Temp\ccenAslK.s 			page 5


 222              		.cfi_def_cfa_offset 24
 223 0004 0390     		str	r0, [sp, #12]
 224 0006 0291     		str	r1, [sp, #8]
 225 0008 0192     		str	r2, [sp, #4]
 226              		.loc 1 168 0
 227 000a 019B     		ldr	r3, [sp, #4]
 228 000c 4FF03C02 		mov	r2, #60
 229 0010 1846     		mov	r0, r3
 230 0012 4FF00001 		mov	r1, #0
 231 0016 1346     		mov	r3, r2
 232 0018 1A46     		mov	r2, r3
 233 001a FFF7FEFF 		bl	memset
 234              		.loc 1 169 0
 235 001e 019B     		ldr	r3, [sp, #4]
 236 0020 4FF40052 		mov	r2, #8192
 237 0024 5A60     		str	r2, [r3, #4]
 238              		.loc 1 170 0
 239 0026 4FF00003 		mov	r3, #0
 240              		.loc 1 171 0
 241 002a 1846     		mov	r0, r3
 242 002c 05B0     		add	sp, sp, #20
 243 002e 00BD     		pop	{pc}
 244              		.cfi_endproc
 245              	.LFE12:
 246              		.size	_fstat_r, .-_fstat_r
 247              		.section	.text._isatty_r,"ax",%progbits
 248              		.align	2
 249              		.p2align 4,,15
 250              		.global	_isatty_r
 251              		.thumb
 252              		.thumb_func
 253              		.type	_isatty_r, %function
 254              	_isatty_r:
 255              	.LFB13:
 256              		.loc 1 176 0
 257              		.cfi_startproc
 258              		@ args = 0, pretend = 0, frame = 8
 259              		@ frame_needed = 0, uses_anonymous_args = 0
 260              		@ link register save eliminated.
 261 0000 82B0     		sub	sp, sp, #8
 262              	.LCFI8:
 263              		.cfi_def_cfa_offset 8
 264 0002 0190     		str	r0, [sp, #4]
 265 0004 0091     		str	r1, [sp, #0]
 266              		.loc 1 180 0
 267 0006 4FF00103 		mov	r3, #1
 268              		.loc 1 181 0
 269 000a 1846     		mov	r0, r3
 270 000c 02B0     		add	sp, sp, #8
 271 000e 7047     		bx	lr
 272              		.cfi_endproc
 273              	.LFE13:
 274              		.size	_isatty_r, .-_isatty_r
 275              		.text
 276              	.Letext0:
 277              		.file 2 "c:\\programs\\codesourcery\\2011.03-56\\bin\\../lib/gcc/arm-none-eabi/4.6.3/include/stdde
 278              		.file 3 "c:\\programs\\codesourcery\\2011.03-56\\bin\\../lib/gcc/arm-none-eabi/4.6.3/../../../../a
ARM GAS  C:\Users\z80\AppData\Local\Temp\ccenAslK.s 			page 6


 279              		.file 4 "c:\\programs\\codesourcery\\2011.03-56\\bin\\../lib/gcc/arm-none-eabi/4.6.3/../../../../a
 280              		.file 5 "c:\\programs\\codesourcery\\2011.03-56\\bin\\../lib/gcc/arm-none-eabi/4.6.3/../../../../a
 281              		.file 6 "c:\\programs\\codesourcery\\2011.03-56\\bin\\../lib/gcc/arm-none-eabi/4.6.3/../../../../a
 282              		.file 7 "c:\\programs\\codesourcery\\2011.03-56\\bin\\../lib/gcc/arm-none-eabi/4.6.3/../../../../a
 283              		.section	.debug_info,"",%progbits
 284              	.Ldebug_info0:
 285 0000 300C0000 		.4byte	0xc30
 286 0004 0200     		.2byte	0x2
 287 0006 00000000 		.4byte	.Ldebug_abbrev0
 288 000a 04       		.byte	0x4
 289 000b 01       		.uleb128 0x1
 290 000c CC040000 		.4byte	.LASF153
 291 0010 01       		.byte	0x1
 292 0011 12030000 		.4byte	.LASF154
 293 0015 26020000 		.4byte	.LASF155
 294 0019 00000000 		.4byte	0
 295 001d 00000000 		.4byte	0
 296 0021 00000000 		.4byte	.Ldebug_ranges0+0
 297 0025 00000000 		.4byte	.Ldebug_line0
 298 0029 02       		.uleb128 0x2
 299 002a 8B010000 		.4byte	.LASF7
 300 002e 02       		.byte	0x2
 301 002f D4       		.byte	0xd4
 302 0030 34000000 		.4byte	0x34
 303 0034 03       		.uleb128 0x3
 304 0035 04       		.byte	0x4
 305 0036 07       		.byte	0x7
 306 0037 4D000000 		.4byte	.LASF0
 307 003b 03       		.uleb128 0x3
 308 003c 01       		.byte	0x1
 309 003d 06       		.byte	0x6
 310 003e 48050000 		.4byte	.LASF1
 311 0042 03       		.uleb128 0x3
 312 0043 01       		.byte	0x1
 313 0044 08       		.byte	0x8
 314 0045 E8040000 		.4byte	.LASF2
 315 0049 03       		.uleb128 0x3
 316 004a 02       		.byte	0x2
 317 004b 05       		.byte	0x5
 318 004c EC030000 		.4byte	.LASF3
 319 0050 03       		.uleb128 0x3
 320 0051 02       		.byte	0x2
 321 0052 07       		.byte	0x7
 322 0053 68050000 		.4byte	.LASF4
 323 0057 04       		.uleb128 0x4
 324 0058 04       		.byte	0x4
 325 0059 05       		.byte	0x5
 326 005a 696E7400 		.ascii	"int\000"
 327 005e 03       		.uleb128 0x3
 328 005f 08       		.byte	0x8
 329 0060 05       		.byte	0x5
 330 0061 DE020000 		.4byte	.LASF5
 331 0065 03       		.uleb128 0x3
 332 0066 08       		.byte	0x8
 333 0067 07       		.byte	0x7
 334 0068 19010000 		.4byte	.LASF6
 335 006c 02       		.uleb128 0x2
ARM GAS  C:\Users\z80\AppData\Local\Temp\ccenAslK.s 			page 7


 336 006d 7C000000 		.4byte	.LASF8
 337 0071 03       		.byte	0x3
 338 0072 07       		.byte	0x7
 339 0073 57000000 		.4byte	0x57
 340 0077 02       		.uleb128 0x2
 341 0078 8A050000 		.4byte	.LASF9
 342 007c 04       		.byte	0x4
 343 007d 10       		.byte	0x10
 344 007e 82000000 		.4byte	0x82
 345 0082 03       		.uleb128 0x3
 346 0083 04       		.byte	0x4
 347 0084 05       		.byte	0x5
 348 0085 F6030000 		.4byte	.LASF10
 349 0089 02       		.uleb128 0x2
 350 008a FC020000 		.4byte	.LASF11
 351 008e 04       		.byte	0x4
 352 008f 18       		.byte	0x18
 353 0090 49000000 		.4byte	0x49
 354 0094 02       		.uleb128 0x2
 355 0095 47040000 		.4byte	.LASF12
 356 0099 04       		.byte	0x4
 357 009a 1D       		.byte	0x1d
 358 009b 50000000 		.4byte	0x50
 359 009f 02       		.uleb128 0x2
 360 00a0 C4030000 		.4byte	.LASF13
 361 00a4 04       		.byte	0x4
 362 00a5 20       		.byte	0x20
 363 00a6 50000000 		.4byte	0x50
 364 00aa 02       		.uleb128 0x2
 365 00ab AA000000 		.4byte	.LASF14
 366 00af 04       		.byte	0x4
 367 00b0 2C       		.byte	0x2c
 368 00b1 82000000 		.4byte	0x82
 369 00b5 05       		.uleb128 0x5
 370 00b6 B9040000 		.4byte	.LASF15
 371 00ba 02       		.byte	0x2
 372 00bb 6101     		.2byte	0x161
 373 00bd 34000000 		.4byte	0x34
 374 00c1 06       		.uleb128 0x6
 375 00c2 04       		.byte	0x4
 376 00c3 04       		.byte	0x4
 377 00c4 46       		.byte	0x46
 378 00c5 E0000000 		.4byte	0xe0
 379 00c9 07       		.uleb128 0x7
 380 00ca 8A020000 		.4byte	.LASF16
 381 00ce 04       		.byte	0x4
 382 00cf 48       		.byte	0x48
 383 00d0 B5000000 		.4byte	0xb5
 384 00d4 07       		.uleb128 0x7
 385 00d5 1B040000 		.4byte	.LASF17
 386 00d9 04       		.byte	0x4
 387 00da 49       		.byte	0x49
 388 00db E0000000 		.4byte	0xe0
 389 00df 00       		.byte	0
 390 00e0 08       		.uleb128 0x8
 391 00e1 42000000 		.4byte	0x42
 392 00e5 F0000000 		.4byte	0xf0
ARM GAS  C:\Users\z80\AppData\Local\Temp\ccenAslK.s 			page 8


 393 00e9 09       		.uleb128 0x9
 394 00ea 34000000 		.4byte	0x34
 395 00ee 03       		.byte	0x3
 396 00ef 00       		.byte	0
 397 00f0 0A       		.uleb128 0xa
 398 00f1 08       		.byte	0x8
 399 00f2 04       		.byte	0x4
 400 00f3 43       		.byte	0x43
 401 00f4 15010000 		.4byte	0x115
 402 00f8 0B       		.uleb128 0xb
 403 00f9 F1000000 		.4byte	.LASF18
 404 00fd 04       		.byte	0x4
 405 00fe 45       		.byte	0x45
 406 00ff 57000000 		.4byte	0x57
 407 0103 02       		.byte	0x2
 408 0104 23       		.byte	0x23
 409 0105 00       		.uleb128 0
 410 0106 0B       		.uleb128 0xb
 411 0107 EC010000 		.4byte	.LASF19
 412 010b 04       		.byte	0x4
 413 010c 4A       		.byte	0x4a
 414 010d C1000000 		.4byte	0xc1
 415 0111 02       		.byte	0x2
 416 0112 23       		.byte	0x23
 417 0113 04       		.uleb128 0x4
 418 0114 00       		.byte	0
 419 0115 02       		.uleb128 0x2
 420 0116 64030000 		.4byte	.LASF20
 421 011a 04       		.byte	0x4
 422 011b 4B       		.byte	0x4b
 423 011c F0000000 		.4byte	0xf0
 424 0120 02       		.uleb128 0x2
 425 0121 73020000 		.4byte	.LASF21
 426 0125 04       		.byte	0x4
 427 0126 4F       		.byte	0x4f
 428 0127 6C000000 		.4byte	0x6c
 429 012b 0C       		.uleb128 0xc
 430 012c 04       		.byte	0x4
 431 012d 02       		.uleb128 0x2
 432 012e 0A030000 		.4byte	.LASF22
 433 0132 05       		.byte	0x5
 434 0133 15       		.byte	0x15
 435 0134 38010000 		.4byte	0x138
 436 0138 03       		.uleb128 0x3
 437 0139 04       		.byte	0x4
 438 013a 07       		.byte	0x7
 439 013b A0040000 		.4byte	.LASF23
 440 013f 0D       		.uleb128 0xd
 441 0140 BF000000 		.4byte	.LASF28
 442 0144 18       		.byte	0x18
 443 0145 05       		.byte	0x5
 444 0146 2C       		.byte	0x2c
 445 0147 9E010000 		.4byte	0x19e
 446 014b 0B       		.uleb128 0xb
 447 014c B6010000 		.4byte	.LASF24
 448 0150 05       		.byte	0x5
 449 0151 2E       		.byte	0x2e
ARM GAS  C:\Users\z80\AppData\Local\Temp\ccenAslK.s 			page 9


 450 0152 9E010000 		.4byte	0x19e
 451 0156 02       		.byte	0x2
 452 0157 23       		.byte	0x23
 453 0158 00       		.uleb128 0
 454 0159 0E       		.uleb128 0xe
 455 015a 5F6B00   		.ascii	"_k\000"
 456 015d 05       		.byte	0x5
 457 015e 2F       		.byte	0x2f
 458 015f 57000000 		.4byte	0x57
 459 0163 02       		.byte	0x2
 460 0164 23       		.byte	0x23
 461 0165 04       		.uleb128 0x4
 462 0166 0B       		.uleb128 0xb
 463 0167 60040000 		.4byte	.LASF25
 464 016b 05       		.byte	0x5
 465 016c 2F       		.byte	0x2f
 466 016d 57000000 		.4byte	0x57
 467 0171 02       		.byte	0x2
 468 0172 23       		.byte	0x23
 469 0173 08       		.uleb128 0x8
 470 0174 0B       		.uleb128 0xb
 471 0175 FF030000 		.4byte	.LASF26
 472 0179 05       		.byte	0x5
 473 017a 2F       		.byte	0x2f
 474 017b 57000000 		.4byte	0x57
 475 017f 02       		.byte	0x2
 476 0180 23       		.byte	0x23
 477 0181 0C       		.uleb128 0xc
 478 0182 0B       		.uleb128 0xb
 479 0183 4F010000 		.4byte	.LASF27
 480 0187 05       		.byte	0x5
 481 0188 2F       		.byte	0x2f
 482 0189 57000000 		.4byte	0x57
 483 018d 02       		.byte	0x2
 484 018e 23       		.byte	0x23
 485 018f 10       		.uleb128 0x10
 486 0190 0E       		.uleb128 0xe
 487 0191 5F7800   		.ascii	"_x\000"
 488 0194 05       		.byte	0x5
 489 0195 30       		.byte	0x30
 490 0196 A4010000 		.4byte	0x1a4
 491 019a 02       		.byte	0x2
 492 019b 23       		.byte	0x23
 493 019c 14       		.uleb128 0x14
 494 019d 00       		.byte	0
 495 019e 0F       		.uleb128 0xf
 496 019f 04       		.byte	0x4
 497 01a0 3F010000 		.4byte	0x13f
 498 01a4 08       		.uleb128 0x8
 499 01a5 2D010000 		.4byte	0x12d
 500 01a9 B4010000 		.4byte	0x1b4
 501 01ad 09       		.uleb128 0x9
 502 01ae 34000000 		.4byte	0x34
 503 01b2 00       		.byte	0
 504 01b3 00       		.byte	0
 505 01b4 0D       		.uleb128 0xd
 506 01b5 95040000 		.4byte	.LASF29
ARM GAS  C:\Users\z80\AppData\Local\Temp\ccenAslK.s 			page 10


 507 01b9 24       		.byte	0x24
 508 01ba 05       		.byte	0x5
 509 01bb 34       		.byte	0x34
 510 01bc 3F020000 		.4byte	0x23f
 511 01c0 0B       		.uleb128 0xb
 512 01c1 92010000 		.4byte	.LASF30
 513 01c5 05       		.byte	0x5
 514 01c6 36       		.byte	0x36
 515 01c7 57000000 		.4byte	0x57
 516 01cb 02       		.byte	0x2
 517 01cc 23       		.byte	0x23
 518 01cd 00       		.uleb128 0
 519 01ce 0B       		.uleb128 0xb
 520 01cf F9000000 		.4byte	.LASF31
 521 01d3 05       		.byte	0x5
 522 01d4 37       		.byte	0x37
 523 01d5 57000000 		.4byte	0x57
 524 01d9 02       		.byte	0x2
 525 01da 23       		.byte	0x23
 526 01db 04       		.uleb128 0x4
 527 01dc 0B       		.uleb128 0xb
 528 01dd DF000000 		.4byte	.LASF32
 529 01e1 05       		.byte	0x5
 530 01e2 38       		.byte	0x38
 531 01e3 57000000 		.4byte	0x57
 532 01e7 02       		.byte	0x2
 533 01e8 23       		.byte	0x23
 534 01e9 08       		.uleb128 0x8
 535 01ea 0B       		.uleb128 0xb
 536 01eb 1C020000 		.4byte	.LASF33
 537 01ef 05       		.byte	0x5
 538 01f0 39       		.byte	0x39
 539 01f1 57000000 		.4byte	0x57
 540 01f5 02       		.byte	0x2
 541 01f6 23       		.byte	0x23
 542 01f7 0C       		.uleb128 0xc
 543 01f8 0B       		.uleb128 0xb
 544 01f9 B2030000 		.4byte	.LASF34
 545 01fd 05       		.byte	0x5
 546 01fe 3A       		.byte	0x3a
 547 01ff 57000000 		.4byte	0x57
 548 0203 02       		.byte	0x2
 549 0204 23       		.byte	0x23
 550 0205 10       		.uleb128 0x10
 551 0206 0B       		.uleb128 0xb
 552 0207 22040000 		.4byte	.LASF35
 553 020b 05       		.byte	0x5
 554 020c 3B       		.byte	0x3b
 555 020d 57000000 		.4byte	0x57
 556 0211 02       		.byte	0x2
 557 0212 23       		.byte	0x23
 558 0213 14       		.uleb128 0x14
 559 0214 0B       		.uleb128 0xb
 560 0215 C7000000 		.4byte	.LASF36
 561 0219 05       		.byte	0x5
 562 021a 3C       		.byte	0x3c
 563 021b 57000000 		.4byte	0x57
ARM GAS  C:\Users\z80\AppData\Local\Temp\ccenAslK.s 			page 11


 564 021f 02       		.byte	0x2
 565 0220 23       		.byte	0x23
 566 0221 18       		.uleb128 0x18
 567 0222 0B       		.uleb128 0xb
 568 0223 9B010000 		.4byte	.LASF37
 569 0227 05       		.byte	0x5
 570 0228 3D       		.byte	0x3d
 571 0229 57000000 		.4byte	0x57
 572 022d 02       		.byte	0x2
 573 022e 23       		.byte	0x23
 574 022f 1C       		.uleb128 0x1c
 575 0230 0B       		.uleb128 0xb
 576 0231 76030000 		.4byte	.LASF38
 577 0235 05       		.byte	0x5
 578 0236 3E       		.byte	0x3e
 579 0237 57000000 		.4byte	0x57
 580 023b 02       		.byte	0x2
 581 023c 23       		.byte	0x23
 582 023d 20       		.uleb128 0x20
 583 023e 00       		.byte	0
 584 023f 10       		.uleb128 0x10
 585 0240 06000000 		.4byte	.LASF39
 586 0244 0801     		.2byte	0x108
 587 0246 05       		.byte	0x5
 588 0247 47       		.byte	0x47
 589 0248 88020000 		.4byte	0x288
 590 024c 0B       		.uleb128 0xb
 591 024d 40050000 		.4byte	.LASF40
 592 0251 05       		.byte	0x5
 593 0252 48       		.byte	0x48
 594 0253 88020000 		.4byte	0x288
 595 0257 02       		.byte	0x2
 596 0258 23       		.byte	0x23
 597 0259 00       		.uleb128 0
 598 025a 0B       		.uleb128 0xb
 599 025b C0040000 		.4byte	.LASF41
 600 025f 05       		.byte	0x5
 601 0260 49       		.byte	0x49
 602 0261 88020000 		.4byte	0x288
 603 0265 03       		.byte	0x3
 604 0266 23       		.byte	0x23
 605 0267 8001     		.uleb128 0x80
 606 0269 0B       		.uleb128 0xb
 607 026a 7B050000 		.4byte	.LASF42
 608 026e 05       		.byte	0x5
 609 026f 4B       		.byte	0x4b
 610 0270 2D010000 		.4byte	0x12d
 611 0274 03       		.byte	0x3
 612 0275 23       		.byte	0x23
 613 0276 8002     		.uleb128 0x100
 614 0278 0B       		.uleb128 0xb
 615 0279 A7050000 		.4byte	.LASF43
 616 027d 05       		.byte	0x5
 617 027e 4E       		.byte	0x4e
 618 027f 2D010000 		.4byte	0x12d
 619 0283 03       		.byte	0x3
 620 0284 23       		.byte	0x23
ARM GAS  C:\Users\z80\AppData\Local\Temp\ccenAslK.s 			page 12


 621 0285 8402     		.uleb128 0x104
 622 0287 00       		.byte	0
 623 0288 08       		.uleb128 0x8
 624 0289 2B010000 		.4byte	0x12b
 625 028d 98020000 		.4byte	0x298
 626 0291 09       		.uleb128 0x9
 627 0292 34000000 		.4byte	0x34
 628 0296 1F       		.byte	0x1f
 629 0297 00       		.byte	0
 630 0298 0D       		.uleb128 0xd
 631 0299 DB030000 		.4byte	.LASF44
 632 029d 8C       		.byte	0x8c
 633 029e 05       		.byte	0x5
 634 029f 52       		.byte	0x52
 635 02a0 DE020000 		.4byte	0x2de
 636 02a4 0B       		.uleb128 0xb
 637 02a5 B6010000 		.4byte	.LASF24
 638 02a9 05       		.byte	0x5
 639 02aa 53       		.byte	0x53
 640 02ab DE020000 		.4byte	0x2de
 641 02af 02       		.byte	0x2
 642 02b0 23       		.byte	0x23
 643 02b1 00       		.uleb128 0
 644 02b2 0B       		.uleb128 0xb
 645 02b3 AA010000 		.4byte	.LASF45
 646 02b7 05       		.byte	0x5
 647 02b8 54       		.byte	0x54
 648 02b9 57000000 		.4byte	0x57
 649 02bd 02       		.byte	0x2
 650 02be 23       		.byte	0x23
 651 02bf 04       		.uleb128 0x4
 652 02c0 0B       		.uleb128 0xb
 653 02c1 B2000000 		.4byte	.LASF46
 654 02c5 05       		.byte	0x5
 655 02c6 55       		.byte	0x55
 656 02c7 E4020000 		.4byte	0x2e4
 657 02cb 02       		.byte	0x2
 658 02cc 23       		.byte	0x23
 659 02cd 08       		.uleb128 0x8
 660 02ce 0B       		.uleb128 0xb
 661 02cf 96020000 		.4byte	.LASF47
 662 02d3 05       		.byte	0x5
 663 02d4 56       		.byte	0x56
 664 02d5 FC020000 		.4byte	0x2fc
 665 02d9 03       		.byte	0x3
 666 02da 23       		.byte	0x23
 667 02db 8801     		.uleb128 0x88
 668 02dd 00       		.byte	0
 669 02de 0F       		.uleb128 0xf
 670 02df 04       		.byte	0x4
 671 02e0 98020000 		.4byte	0x298
 672 02e4 08       		.uleb128 0x8
 673 02e5 F6020000 		.4byte	0x2f6
 674 02e9 F4020000 		.4byte	0x2f4
 675 02ed 09       		.uleb128 0x9
 676 02ee 34000000 		.4byte	0x34
 677 02f2 1F       		.byte	0x1f
ARM GAS  C:\Users\z80\AppData\Local\Temp\ccenAslK.s 			page 13


 678 02f3 00       		.byte	0
 679 02f4 11       		.uleb128 0x11
 680 02f5 01       		.byte	0x1
 681 02f6 0F       		.uleb128 0xf
 682 02f7 04       		.byte	0x4
 683 02f8 F4020000 		.4byte	0x2f4
 684 02fc 0F       		.uleb128 0xf
 685 02fd 04       		.byte	0x4
 686 02fe 3F020000 		.4byte	0x23f
 687 0302 0D       		.uleb128 0xd
 688 0303 08050000 		.4byte	.LASF48
 689 0307 08       		.byte	0x8
 690 0308 05       		.byte	0x5
 691 0309 69       		.byte	0x69
 692 030a 2B030000 		.4byte	0x32b
 693 030e 0B       		.uleb128 0xb
 694 030f EC020000 		.4byte	.LASF49
 695 0313 05       		.byte	0x5
 696 0314 6A       		.byte	0x6a
 697 0315 2B030000 		.4byte	0x32b
 698 0319 02       		.byte	0x2
 699 031a 23       		.byte	0x23
 700 031b 00       		.uleb128 0
 701 031c 0B       		.uleb128 0xb
 702 031d 84050000 		.4byte	.LASF50
 703 0321 05       		.byte	0x5
 704 0322 6B       		.byte	0x6b
 705 0323 57000000 		.4byte	0x57
 706 0327 02       		.byte	0x2
 707 0328 23       		.byte	0x23
 708 0329 04       		.uleb128 0x4
 709 032a 00       		.byte	0
 710 032b 0F       		.uleb128 0xf
 711 032c 04       		.byte	0x4
 712 032d 42000000 		.4byte	0x42
 713 0331 12       		.uleb128 0x12
 714 0332 5B050000 		.4byte	.LASF51
 715 0336 F0       		.byte	0xf0
 716 0337 05       		.byte	0x5
 717 0338 7B01     		.2byte	0x17b
 718 033a AB040000 		.4byte	0x4ab
 719 033e 13       		.uleb128 0x13
 720 033f 75000000 		.4byte	.LASF52
 721 0343 05       		.byte	0x5
 722 0344 7F01     		.2byte	0x17f
 723 0346 57000000 		.4byte	0x57
 724 034a 02       		.byte	0x2
 725 034b 23       		.byte	0x23
 726 034c 00       		.uleb128 0
 727 034d 13       		.uleb128 0x13
 728 034e C8020000 		.4byte	.LASF53
 729 0352 05       		.byte	0x5
 730 0353 8401     		.2byte	0x184
 731 0355 1A070000 		.4byte	0x71a
 732 0359 02       		.byte	0x2
 733 035a 23       		.byte	0x23
 734 035b 04       		.uleb128 0x4
ARM GAS  C:\Users\z80\AppData\Local\Temp\ccenAslK.s 			page 14


 735 035c 13       		.uleb128 0x13
 736 035d A2000000 		.4byte	.LASF54
 737 0361 05       		.byte	0x5
 738 0362 8401     		.2byte	0x184
 739 0364 1A070000 		.4byte	0x71a
 740 0368 02       		.byte	0x2
 741 0369 23       		.byte	0x23
 742 036a 08       		.uleb128 0x8
 743 036b 13       		.uleb128 0x13
 744 036c C6050000 		.4byte	.LASF55
 745 0370 05       		.byte	0x5
 746 0371 8401     		.2byte	0x184
 747 0373 1A070000 		.4byte	0x71a
 748 0377 02       		.byte	0x2
 749 0378 23       		.byte	0x23
 750 0379 0C       		.uleb128 0xc
 751 037a 13       		.uleb128 0x13
 752 037b A5010000 		.4byte	.LASF56
 753 037f 05       		.byte	0x5
 754 0380 8601     		.2byte	0x186
 755 0382 57000000 		.4byte	0x57
 756 0386 02       		.byte	0x2
 757 0387 23       		.byte	0x23
 758 0388 10       		.uleb128 0x10
 759 0389 13       		.uleb128 0x13
 760 038a 79010000 		.4byte	.LASF57
 761 038e 05       		.byte	0x5
 762 038f 8801     		.2byte	0x188
 763 0391 2A060000 		.4byte	0x62a
 764 0395 02       		.byte	0x2
 765 0396 23       		.byte	0x23
 766 0397 14       		.uleb128 0x14
 767 0398 13       		.uleb128 0x13
 768 0399 B6020000 		.4byte	.LASF58
 769 039d 05       		.byte	0x5
 770 039e 8A01     		.2byte	0x18a
 771 03a0 57000000 		.4byte	0x57
 772 03a4 02       		.byte	0x2
 773 03a5 23       		.byte	0x23
 774 03a6 18       		.uleb128 0x18
 775 03a7 13       		.uleb128 0x13
 776 03a8 72040000 		.4byte	.LASF59
 777 03ac 05       		.byte	0x5
 778 03ad 8C01     		.2byte	0x18c
 779 03af 57000000 		.4byte	0x57
 780 03b3 02       		.byte	0x2
 781 03b4 23       		.byte	0x23
 782 03b5 1C       		.uleb128 0x1c
 783 03b6 13       		.uleb128 0x13
 784 03b7 05040000 		.4byte	.LASF60
 785 03bb 05       		.byte	0x5
 786 03bc 8D01     		.2byte	0x18d
 787 03be 5C060000 		.4byte	0x65c
 788 03c2 02       		.byte	0x2
 789 03c3 23       		.byte	0x23
 790 03c4 20       		.uleb128 0x20
 791 03c5 14       		.uleb128 0x14
ARM GAS  C:\Users\z80\AppData\Local\Temp\ccenAslK.s 			page 15


 792 03c6 5F6D7000 		.ascii	"_mp\000"
 793 03ca 05       		.byte	0x5
 794 03cb 8F01     		.2byte	0x18f
 795 03cd 8D080000 		.4byte	0x88d
 796 03d1 02       		.byte	0x2
 797 03d2 23       		.byte	0x23
 798 03d3 24       		.uleb128 0x24
 799 03d4 13       		.uleb128 0x13
 800 03d5 5A030000 		.4byte	.LASF61
 801 03d9 05       		.byte	0x5
 802 03da 9101     		.2byte	0x191
 803 03dc 9F080000 		.4byte	0x89f
 804 03e0 02       		.byte	0x2
 805 03e1 23       		.byte	0x23
 806 03e2 28       		.uleb128 0x28
 807 03e3 13       		.uleb128 0x13
 808 03e4 CF020000 		.4byte	.LASF62
 809 03e8 05       		.byte	0x5
 810 03e9 9301     		.2byte	0x193
 811 03eb 57000000 		.4byte	0x57
 812 03ef 02       		.byte	0x2
 813 03f0 23       		.byte	0x23
 814 03f1 2C       		.uleb128 0x2c
 815 03f2 13       		.uleb128 0x13
 816 03f3 58040000 		.4byte	.LASF63
 817 03f7 05       		.byte	0x5
 818 03f8 9601     		.2byte	0x196
 819 03fa 57000000 		.4byte	0x57
 820 03fe 02       		.byte	0x2
 821 03ff 23       		.byte	0x23
 822 0400 30       		.uleb128 0x30
 823 0401 13       		.uleb128 0x13
 824 0402 E0040000 		.4byte	.LASF64
 825 0406 05       		.byte	0x5
 826 0407 9701     		.2byte	0x197
 827 0409 2A060000 		.4byte	0x62a
 828 040d 02       		.byte	0x2
 829 040e 23       		.byte	0x23
 830 040f 34       		.uleb128 0x34
 831 0410 13       		.uleb128 0x13
 832 0411 33000000 		.4byte	.LASF65
 833 0415 05       		.byte	0x5
 834 0416 9901     		.2byte	0x199
 835 0418 A5080000 		.4byte	0x8a5
 836 041c 02       		.byte	0x2
 837 041d 23       		.byte	0x23
 838 041e 38       		.uleb128 0x38
 839 041f 13       		.uleb128 0x13
 840 0420 38040000 		.4byte	.LASF66
 841 0424 05       		.byte	0x5
 842 0425 9A01     		.2byte	0x19a
 843 0427 AB080000 		.4byte	0x8ab
 844 042b 02       		.byte	0x2
 845 042c 23       		.byte	0x23
 846 042d 3C       		.uleb128 0x3c
 847 042e 13       		.uleb128 0x13
 848 042f 3A010000 		.4byte	.LASF67
ARM GAS  C:\Users\z80\AppData\Local\Temp\ccenAslK.s 			page 16


 849 0433 05       		.byte	0x5
 850 0434 9B01     		.2byte	0x19b
 851 0436 2A060000 		.4byte	0x62a
 852 043a 02       		.byte	0x2
 853 043b 23       		.byte	0x23
 854 043c 40       		.uleb128 0x40
 855 043d 13       		.uleb128 0x13
 856 043e 53020000 		.4byte	.LASF68
 857 0442 05       		.byte	0x5
 858 0443 9E01     		.2byte	0x19e
 859 0445 BD080000 		.4byte	0x8bd
 860 0449 02       		.byte	0x2
 861 044a 23       		.byte	0x23
 862 044b 44       		.uleb128 0x44
 863 044c 13       		.uleb128 0x13
 864 044d DB030000 		.4byte	.LASF44
 865 0451 05       		.byte	0x5
 866 0452 A101     		.2byte	0x1a1
 867 0454 DE020000 		.4byte	0x2de
 868 0458 02       		.byte	0x2
 869 0459 23       		.byte	0x23
 870 045a 48       		.uleb128 0x48
 871 045b 13       		.uleb128 0x13
 872 045c CC030000 		.4byte	.LASF69
 873 0460 05       		.byte	0x5
 874 0461 A201     		.2byte	0x1a2
 875 0463 98020000 		.4byte	0x298
 876 0467 02       		.byte	0x2
 877 0468 23       		.byte	0x23
 878 0469 4C       		.uleb128 0x4c
 879 046a 13       		.uleb128 0x13
 880 046b 1D050000 		.4byte	.LASF70
 881 046f 05       		.byte	0x5
 882 0470 A401     		.2byte	0x1a4
 883 0472 D9060000 		.4byte	0x6d9
 884 0476 03       		.byte	0x3
 885 0477 23       		.byte	0x23
 886 0478 D801     		.uleb128 0xd8
 887 047a 13       		.uleb128 0x13
 888 047b 02010000 		.4byte	.LASF71
 889 047f 05       		.byte	0x5
 890 0480 A501     		.2byte	0x1a5
 891 0482 1A070000 		.4byte	0x71a
 892 0486 03       		.byte	0x3
 893 0487 23       		.byte	0x23
 894 0488 E401     		.uleb128 0xe4
 895 048a 13       		.uleb128 0x13
 896 048b 00000000 		.4byte	.LASF72
 897 048f 05       		.byte	0x5
 898 0490 A601     		.2byte	0x1a6
 899 0492 C9080000 		.4byte	0x8c9
 900 0496 03       		.byte	0x3
 901 0497 23       		.byte	0x23
 902 0498 E801     		.uleb128 0xe8
 903 049a 13       		.uleb128 0x13
 904 049b 41000000 		.4byte	.LASF73
 905 049f 05       		.byte	0x5
ARM GAS  C:\Users\z80\AppData\Local\Temp\ccenAslK.s 			page 17


 906 04a0 A701     		.2byte	0x1a7
 907 04a2 2A060000 		.4byte	0x62a
 908 04a6 03       		.byte	0x3
 909 04a7 23       		.byte	0x23
 910 04a8 EC01     		.uleb128 0xec
 911 04aa 00       		.byte	0
 912 04ab 0F       		.uleb128 0xf
 913 04ac 04       		.byte	0x4
 914 04ad 31030000 		.4byte	0x331
 915 04b1 0D       		.uleb128 0xd
 916 04b2 47010000 		.4byte	.LASF74
 917 04b6 68       		.byte	0x68
 918 04b7 05       		.byte	0x5
 919 04b8 B3       		.byte	0xb3
 920 04b9 0B060000 		.4byte	0x60b
 921 04bd 0E       		.uleb128 0xe
 922 04be 5F7000   		.ascii	"_p\000"
 923 04c1 05       		.byte	0x5
 924 04c2 B4       		.byte	0xb4
 925 04c3 2B030000 		.4byte	0x32b
 926 04c7 02       		.byte	0x2
 927 04c8 23       		.byte	0x23
 928 04c9 00       		.uleb128 0
 929 04ca 0E       		.uleb128 0xe
 930 04cb 5F7200   		.ascii	"_r\000"
 931 04ce 05       		.byte	0x5
 932 04cf B5       		.byte	0xb5
 933 04d0 57000000 		.4byte	0x57
 934 04d4 02       		.byte	0x2
 935 04d5 23       		.byte	0x23
 936 04d6 04       		.uleb128 0x4
 937 04d7 0E       		.uleb128 0xe
 938 04d8 5F7700   		.ascii	"_w\000"
 939 04db 05       		.byte	0x5
 940 04dc B6       		.byte	0xb6
 941 04dd 57000000 		.4byte	0x57
 942 04e1 02       		.byte	0x2
 943 04e2 23       		.byte	0x23
 944 04e3 08       		.uleb128 0x8
 945 04e4 0B       		.uleb128 0xb
 946 04e5 6E000000 		.4byte	.LASF75
 947 04e9 05       		.byte	0x5
 948 04ea B7       		.byte	0xb7
 949 04eb 49000000 		.4byte	0x49
 950 04ef 02       		.byte	0x2
 951 04f0 23       		.byte	0x23
 952 04f1 0C       		.uleb128 0xc
 953 04f2 0B       		.uleb128 0xb
 954 04f3 54030000 		.4byte	.LASF76
 955 04f7 05       		.byte	0x5
 956 04f8 B8       		.byte	0xb8
 957 04f9 49000000 		.4byte	0x49
 958 04fd 02       		.byte	0x2
 959 04fe 23       		.byte	0x23
 960 04ff 0E       		.uleb128 0xe
 961 0500 0E       		.uleb128 0xe
 962 0501 5F626600 		.ascii	"_bf\000"
ARM GAS  C:\Users\z80\AppData\Local\Temp\ccenAslK.s 			page 18


 963 0505 05       		.byte	0x5
 964 0506 B9       		.byte	0xb9
 965 0507 02030000 		.4byte	0x302
 966 050b 02       		.byte	0x2
 967 050c 23       		.byte	0x23
 968 050d 10       		.uleb128 0x10
 969 050e 0B       		.uleb128 0xb
 970 050f 65000000 		.4byte	.LASF77
 971 0513 05       		.byte	0x5
 972 0514 BA       		.byte	0xba
 973 0515 57000000 		.4byte	0x57
 974 0519 02       		.byte	0x2
 975 051a 23       		.byte	0x23
 976 051b 18       		.uleb128 0x18
 977 051c 0B       		.uleb128 0xb
 978 051d 15040000 		.4byte	.LASF78
 979 0521 05       		.byte	0x5
 980 0522 BD       		.byte	0xbd
 981 0523 AB040000 		.4byte	0x4ab
 982 0527 02       		.byte	0x2
 983 0528 23       		.byte	0x23
 984 0529 1C       		.uleb128 0x1c
 985 052a 0B       		.uleb128 0xb
 986 052b B7000000 		.4byte	.LASF79
 987 052f 05       		.byte	0x5
 988 0530 C1       		.byte	0xc1
 989 0531 2B010000 		.4byte	0x12b
 990 0535 02       		.byte	0x2
 991 0536 23       		.byte	0x23
 992 0537 20       		.uleb128 0x20
 993 0538 0B       		.uleb128 0xb
 994 0539 8E000000 		.4byte	.LASF80
 995 053d 05       		.byte	0x5
 996 053e C3       		.byte	0xc3
 997 053f 37060000 		.4byte	0x637
 998 0543 02       		.byte	0x2
 999 0544 23       		.byte	0x23
 1000 0545 24       		.uleb128 0x24
 1001 0546 0B       		.uleb128 0xb
 1002 0547 14000000 		.4byte	.LASF81
 1003 054b 05       		.byte	0x5
 1004 054c C5       		.byte	0xc5
 1005 054d 67060000 		.4byte	0x667
 1006 0551 02       		.byte	0x2
 1007 0552 23       		.byte	0x23
 1008 0553 28       		.uleb128 0x28
 1009 0554 0B       		.uleb128 0xb
 1010 0555 C0050000 		.4byte	.LASF82
 1011 0559 05       		.byte	0x5
 1012 055a C7       		.byte	0xc7
 1013 055b 8C060000 		.4byte	0x68c
 1014 055f 02       		.byte	0x2
 1015 0560 23       		.byte	0x23
 1016 0561 2C       		.uleb128 0x2c
 1017 0562 0B       		.uleb128 0xb
 1018 0563 AF020000 		.4byte	.LASF83
 1019 0567 05       		.byte	0x5
ARM GAS  C:\Users\z80\AppData\Local\Temp\ccenAslK.s 			page 19


 1020 0568 C8       		.byte	0xc8
 1021 0569 A7060000 		.4byte	0x6a7
 1022 056d 02       		.byte	0x2
 1023 056e 23       		.byte	0x23
 1024 056f 30       		.uleb128 0x30
 1025 0570 0E       		.uleb128 0xe
 1026 0571 5F756200 		.ascii	"_ub\000"
 1027 0575 05       		.byte	0x5
 1028 0576 CB       		.byte	0xcb
 1029 0577 02030000 		.4byte	0x302
 1030 057b 02       		.byte	0x2
 1031 057c 23       		.byte	0x23
 1032 057d 34       		.uleb128 0x34
 1033 057e 0E       		.uleb128 0xe
 1034 057f 5F757000 		.ascii	"_up\000"
 1035 0583 05       		.byte	0x5
 1036 0584 CC       		.byte	0xcc
 1037 0585 2B030000 		.4byte	0x32b
 1038 0589 02       		.byte	0x2
 1039 058a 23       		.byte	0x23
 1040 058b 3C       		.uleb128 0x3c
 1041 058c 0E       		.uleb128 0xe
 1042 058d 5F757200 		.ascii	"_ur\000"
 1043 0591 05       		.byte	0x5
 1044 0592 CD       		.byte	0xcd
 1045 0593 57000000 		.4byte	0x57
 1046 0597 02       		.byte	0x2
 1047 0598 23       		.byte	0x23
 1048 0599 40       		.uleb128 0x40
 1049 059a 0B       		.uleb128 0xb
 1050 059b CE050000 		.4byte	.LASF84
 1051 059f 05       		.byte	0x5
 1052 05a0 D0       		.byte	0xd0
 1053 05a1 AD060000 		.4byte	0x6ad
 1054 05a5 02       		.byte	0x2
 1055 05a6 23       		.byte	0x23
 1056 05a7 44       		.uleb128 0x44
 1057 05a8 0B       		.uleb128 0xb
 1058 05a9 91050000 		.4byte	.LASF85
 1059 05ad 05       		.byte	0x5
 1060 05ae D1       		.byte	0xd1
 1061 05af BD060000 		.4byte	0x6bd
 1062 05b3 02       		.byte	0x2
 1063 05b4 23       		.byte	0x23
 1064 05b5 47       		.uleb128 0x47
 1065 05b6 0E       		.uleb128 0xe
 1066 05b7 5F6C6200 		.ascii	"_lb\000"
 1067 05bb 05       		.byte	0x5
 1068 05bc D4       		.byte	0xd4
 1069 05bd 02030000 		.4byte	0x302
 1070 05c1 02       		.byte	0x2
 1071 05c2 23       		.byte	0x23
 1072 05c3 48       		.uleb128 0x48
 1073 05c4 0B       		.uleb128 0xb
 1074 05c5 8C040000 		.4byte	.LASF86
 1075 05c9 05       		.byte	0x5
 1076 05ca D7       		.byte	0xd7
ARM GAS  C:\Users\z80\AppData\Local\Temp\ccenAslK.s 			page 20


 1077 05cb 57000000 		.4byte	0x57
 1078 05cf 02       		.byte	0x2
 1079 05d0 23       		.byte	0x23
 1080 05d1 50       		.uleb128 0x50
 1081 05d2 0B       		.uleb128 0xb
 1082 05d3 6C010000 		.4byte	.LASF87
 1083 05d7 05       		.byte	0x5
 1084 05d8 D8       		.byte	0xd8
 1085 05d9 57000000 		.4byte	0x57
 1086 05dd 02       		.byte	0x2
 1087 05de 23       		.byte	0x23
 1088 05df 54       		.uleb128 0x54
 1089 05e0 0B       		.uleb128 0xb
 1090 05e1 9A040000 		.4byte	.LASF88
 1091 05e5 05       		.byte	0x5
 1092 05e6 DF       		.byte	0xdf
 1093 05e7 20010000 		.4byte	0x120
 1094 05eb 02       		.byte	0x2
 1095 05ec 23       		.byte	0x23
 1096 05ed 58       		.uleb128 0x58
 1097 05ee 0B       		.uleb128 0xb
 1098 05ef E3030000 		.4byte	.LASF89
 1099 05f3 05       		.byte	0x5
 1100 05f4 E1       		.byte	0xe1
 1101 05f5 15010000 		.4byte	0x115
 1102 05f9 02       		.byte	0x2
 1103 05fa 23       		.byte	0x23
 1104 05fb 5C       		.uleb128 0x5c
 1105 05fc 0B       		.uleb128 0xb
 1106 05fd 9F050000 		.4byte	.LASF90
 1107 0601 05       		.byte	0x5
 1108 0602 E2       		.byte	0xe2
 1109 0603 57000000 		.4byte	0x57
 1110 0607 02       		.byte	0x2
 1111 0608 23       		.byte	0x23
 1112 0609 64       		.uleb128 0x64
 1113 060a 00       		.byte	0
 1114 060b 15       		.uleb128 0x15
 1115 060c 01       		.byte	0x1
 1116 060d 57000000 		.4byte	0x57
 1117 0611 2A060000 		.4byte	0x62a
 1118 0615 16       		.uleb128 0x16
 1119 0616 AB040000 		.4byte	0x4ab
 1120 061a 16       		.uleb128 0x16
 1121 061b 2B010000 		.4byte	0x12b
 1122 061f 16       		.uleb128 0x16
 1123 0620 2A060000 		.4byte	0x62a
 1124 0624 16       		.uleb128 0x16
 1125 0625 57000000 		.4byte	0x57
 1126 0629 00       		.byte	0
 1127 062a 0F       		.uleb128 0xf
 1128 062b 04       		.byte	0x4
 1129 062c 30060000 		.4byte	0x630
 1130 0630 03       		.uleb128 0x3
 1131 0631 01       		.byte	0x1
 1132 0632 08       		.byte	0x8
 1133 0633 17020000 		.4byte	.LASF91
ARM GAS  C:\Users\z80\AppData\Local\Temp\ccenAslK.s 			page 21


 1134 0637 0F       		.uleb128 0xf
 1135 0638 04       		.byte	0x4
 1136 0639 0B060000 		.4byte	0x60b
 1137 063d 15       		.uleb128 0x15
 1138 063e 01       		.byte	0x1
 1139 063f 57000000 		.4byte	0x57
 1140 0643 5C060000 		.4byte	0x65c
 1141 0647 16       		.uleb128 0x16
 1142 0648 AB040000 		.4byte	0x4ab
 1143 064c 16       		.uleb128 0x16
 1144 064d 2B010000 		.4byte	0x12b
 1145 0651 16       		.uleb128 0x16
 1146 0652 5C060000 		.4byte	0x65c
 1147 0656 16       		.uleb128 0x16
 1148 0657 57000000 		.4byte	0x57
 1149 065b 00       		.byte	0
 1150 065c 0F       		.uleb128 0xf
 1151 065d 04       		.byte	0x4
 1152 065e 62060000 		.4byte	0x662
 1153 0662 17       		.uleb128 0x17
 1154 0663 30060000 		.4byte	0x630
 1155 0667 0F       		.uleb128 0xf
 1156 0668 04       		.byte	0x4
 1157 0669 3D060000 		.4byte	0x63d
 1158 066d 15       		.uleb128 0x15
 1159 066e 01       		.byte	0x1
 1160 066f AA000000 		.4byte	0xaa
 1161 0673 8C060000 		.4byte	0x68c
 1162 0677 16       		.uleb128 0x16
 1163 0678 AB040000 		.4byte	0x4ab
 1164 067c 16       		.uleb128 0x16
 1165 067d 2B010000 		.4byte	0x12b
 1166 0681 16       		.uleb128 0x16
 1167 0682 AA000000 		.4byte	0xaa
 1168 0686 16       		.uleb128 0x16
 1169 0687 57000000 		.4byte	0x57
 1170 068b 00       		.byte	0
 1171 068c 0F       		.uleb128 0xf
 1172 068d 04       		.byte	0x4
 1173 068e 6D060000 		.4byte	0x66d
 1174 0692 15       		.uleb128 0x15
 1175 0693 01       		.byte	0x1
 1176 0694 57000000 		.4byte	0x57
 1177 0698 A7060000 		.4byte	0x6a7
 1178 069c 16       		.uleb128 0x16
 1179 069d AB040000 		.4byte	0x4ab
 1180 06a1 16       		.uleb128 0x16
 1181 06a2 2B010000 		.4byte	0x12b
 1182 06a6 00       		.byte	0
 1183 06a7 0F       		.uleb128 0xf
 1184 06a8 04       		.byte	0x4
 1185 06a9 92060000 		.4byte	0x692
 1186 06ad 08       		.uleb128 0x8
 1187 06ae 42000000 		.4byte	0x42
 1188 06b2 BD060000 		.4byte	0x6bd
 1189 06b6 09       		.uleb128 0x9
 1190 06b7 34000000 		.4byte	0x34
ARM GAS  C:\Users\z80\AppData\Local\Temp\ccenAslK.s 			page 22


 1191 06bb 02       		.byte	0x2
 1192 06bc 00       		.byte	0
 1193 06bd 08       		.uleb128 0x8
 1194 06be 42000000 		.4byte	0x42
 1195 06c2 CD060000 		.4byte	0x6cd
 1196 06c6 09       		.uleb128 0x9
 1197 06c7 34000000 		.4byte	0x34
 1198 06cb 00       		.byte	0
 1199 06cc 00       		.byte	0
 1200 06cd 05       		.uleb128 0x5
 1201 06ce 65010000 		.4byte	.LASF92
 1202 06d2 05       		.byte	0x5
 1203 06d3 1E01     		.2byte	0x11e
 1204 06d5 B1040000 		.4byte	0x4b1
 1205 06d9 12       		.uleb128 0x12
 1206 06da 17050000 		.4byte	.LASF93
 1207 06de 0C       		.byte	0xc
 1208 06df 05       		.byte	0x5
 1209 06e0 2201     		.2byte	0x122
 1210 06e2 14070000 		.4byte	0x714
 1211 06e6 13       		.uleb128 0x13
 1212 06e7 B6010000 		.4byte	.LASF24
 1213 06eb 05       		.byte	0x5
 1214 06ec 2401     		.2byte	0x124
 1215 06ee 14070000 		.4byte	0x714
 1216 06f2 02       		.byte	0x2
 1217 06f3 23       		.byte	0x23
 1218 06f4 00       		.uleb128 0
 1219 06f5 13       		.uleb128 0x13
 1220 06f6 B2040000 		.4byte	.LASF94
 1221 06fa 05       		.byte	0x5
 1222 06fb 2501     		.2byte	0x125
 1223 06fd 57000000 		.4byte	0x57
 1224 0701 02       		.byte	0x2
 1225 0702 23       		.byte	0x23
 1226 0703 04       		.uleb128 0x4
 1227 0704 13       		.uleb128 0x13
 1228 0705 90020000 		.4byte	.LASF95
 1229 0709 05       		.byte	0x5
 1230 070a 2601     		.2byte	0x126
 1231 070c 1A070000 		.4byte	0x71a
 1232 0710 02       		.byte	0x2
 1233 0711 23       		.byte	0x23
 1234 0712 08       		.uleb128 0x8
 1235 0713 00       		.byte	0
 1236 0714 0F       		.uleb128 0xf
 1237 0715 04       		.byte	0x4
 1238 0716 D9060000 		.4byte	0x6d9
 1239 071a 0F       		.uleb128 0xf
 1240 071b 04       		.byte	0x4
 1241 071c CD060000 		.4byte	0x6cd
 1242 0720 12       		.uleb128 0x12
 1243 0721 07010000 		.4byte	.LASF96
 1244 0725 18       		.byte	0x18
 1245 0726 05       		.byte	0x5
 1246 0727 3E01     		.2byte	0x13e
 1247 0729 6A070000 		.4byte	0x76a
ARM GAS  C:\Users\z80\AppData\Local\Temp\ccenAslK.s 			page 23


 1248 072d 13       		.uleb128 0x13
 1249 072e AF050000 		.4byte	.LASF97
 1250 0732 05       		.byte	0x5
 1251 0733 3F01     		.2byte	0x13f
 1252 0735 6A070000 		.4byte	0x76a
 1253 0739 02       		.byte	0x2
 1254 073a 23       		.byte	0x23
 1255 073b 00       		.uleb128 0
 1256 073c 13       		.uleb128 0x13
 1257 073d 04030000 		.4byte	.LASF98
 1258 0741 05       		.byte	0x5
 1259 0742 4001     		.2byte	0x140
 1260 0744 6A070000 		.4byte	0x76a
 1261 0748 02       		.byte	0x2
 1262 0749 23       		.byte	0x23
 1263 074a 06       		.uleb128 0x6
 1264 074b 13       		.uleb128 0x13
 1265 074c 03050000 		.4byte	.LASF99
 1266 0750 05       		.byte	0x5
 1267 0751 4101     		.2byte	0x141
 1268 0753 50000000 		.4byte	0x50
 1269 0757 02       		.byte	0x2
 1270 0758 23       		.byte	0x23
 1271 0759 0C       		.uleb128 0xc
 1272 075a 13       		.uleb128 0x13
 1273 075b B5050000 		.4byte	.LASF100
 1274 075f 05       		.byte	0x5
 1275 0760 4401     		.2byte	0x144
 1276 0762 65000000 		.4byte	0x65
 1277 0766 02       		.byte	0x2
 1278 0767 23       		.byte	0x23
 1279 0768 10       		.uleb128 0x10
 1280 0769 00       		.byte	0
 1281 076a 08       		.uleb128 0x8
 1282 076b 50000000 		.4byte	0x50
 1283 076f 7A070000 		.4byte	0x77a
 1284 0773 09       		.uleb128 0x9
 1285 0774 34000000 		.4byte	0x34
 1286 0778 02       		.byte	0x2
 1287 0779 00       		.byte	0
 1288 077a 12       		.uleb128 0x12
 1289 077b 6F030000 		.4byte	.LASF101
 1290 077f 10       		.byte	0x10
 1291 0780 05       		.byte	0x5
 1292 0781 5F01     		.2byte	0x15f
 1293 0783 C4070000 		.4byte	0x7c4
 1294 0787 13       		.uleb128 0x13
 1295 0788 D1000000 		.4byte	.LASF102
 1296 078c 05       		.byte	0x5
 1297 078d 6201     		.2byte	0x162
 1298 078f 9E010000 		.4byte	0x19e
 1299 0793 02       		.byte	0x2
 1300 0794 23       		.byte	0x23
 1301 0795 00       		.uleb128 0
 1302 0796 13       		.uleb128 0x13
 1303 0797 0F010000 		.4byte	.LASF103
 1304 079b 05       		.byte	0x5
ARM GAS  C:\Users\z80\AppData\Local\Temp\ccenAslK.s 			page 24


 1305 079c 6301     		.2byte	0x163
 1306 079e 57000000 		.4byte	0x57
 1307 07a2 02       		.byte	0x2
 1308 07a3 23       		.byte	0x23
 1309 07a4 04       		.uleb128 0x4
 1310 07a5 13       		.uleb128 0x13
 1311 07a6 F4010000 		.4byte	.LASF104
 1312 07aa 05       		.byte	0x5
 1313 07ab 6401     		.2byte	0x164
 1314 07ad 9E010000 		.4byte	0x19e
 1315 07b1 02       		.byte	0x2
 1316 07b2 23       		.byte	0x23
 1317 07b3 08       		.uleb128 0x8
 1318 07b4 13       		.uleb128 0x13
 1319 07b5 F2020000 		.4byte	.LASF105
 1320 07b9 05       		.byte	0x5
 1321 07ba 6501     		.2byte	0x165
 1322 07bc C4070000 		.4byte	0x7c4
 1323 07c0 02       		.byte	0x2
 1324 07c1 23       		.byte	0x23
 1325 07c2 0C       		.uleb128 0xc
 1326 07c3 00       		.byte	0
 1327 07c4 0F       		.uleb128 0xf
 1328 07c5 04       		.byte	0x4
 1329 07c6 9E010000 		.4byte	0x19e
 1330 07ca 12       		.uleb128 0x12
 1331 07cb 2C040000 		.4byte	.LASF106
 1332 07cf 50       		.byte	0x50
 1333 07d0 05       		.byte	0x5
 1334 07d1 6901     		.2byte	0x169
 1335 07d3 7D080000 		.4byte	0x87d
 1336 07d7 13       		.uleb128 0x13
 1337 07d8 25050000 		.4byte	.LASF107
 1338 07dc 05       		.byte	0x5
 1339 07dd 6C01     		.2byte	0x16c
 1340 07df 2A060000 		.4byte	0x62a
 1341 07e3 02       		.byte	0x2
 1342 07e4 23       		.byte	0x23
 1343 07e5 00       		.uleb128 0
 1344 07e6 13       		.uleb128 0x13
 1345 07e7 0A020000 		.4byte	.LASF108
 1346 07eb 05       		.byte	0x5
 1347 07ec 6D01     		.2byte	0x16d
 1348 07ee 15010000 		.4byte	0x115
 1349 07f2 02       		.byte	0x2
 1350 07f3 23       		.byte	0x23
 1351 07f4 04       		.uleb128 0x4
 1352 07f5 13       		.uleb128 0x13
 1353 07f6 1B000000 		.4byte	.LASF109
 1354 07fa 05       		.byte	0x5
 1355 07fb 6E01     		.2byte	0x16e
 1356 07fd 15010000 		.4byte	0x115
 1357 0801 02       		.byte	0x2
 1358 0802 23       		.byte	0x23
 1359 0803 0C       		.uleb128 0xc
 1360 0804 13       		.uleb128 0x13
 1361 0805 32050000 		.4byte	.LASF110
ARM GAS  C:\Users\z80\AppData\Local\Temp\ccenAslK.s 			page 25


 1362 0809 05       		.byte	0x5
 1363 080a 6F01     		.2byte	0x16f
 1364 080c 15010000 		.4byte	0x115
 1365 0810 02       		.byte	0x2
 1366 0811 23       		.byte	0x23
 1367 0812 14       		.uleb128 0x14
 1368 0813 13       		.uleb128 0x13
 1369 0814 68040000 		.4byte	.LASF111
 1370 0818 05       		.byte	0x5
 1371 0819 7001     		.2byte	0x170
 1372 081b 7D080000 		.4byte	0x87d
 1373 081f 02       		.byte	0x2
 1374 0820 23       		.byte	0x23
 1375 0821 1C       		.uleb128 0x1c
 1376 0822 13       		.uleb128 0x13
 1377 0823 F6040000 		.4byte	.LASF112
 1378 0827 05       		.byte	0x5
 1379 0828 7101     		.2byte	0x171
 1380 082a 57000000 		.4byte	0x57
 1381 082e 02       		.byte	0x2
 1382 082f 23       		.byte	0x23
 1383 0830 24       		.uleb128 0x24
 1384 0831 13       		.uleb128 0x13
 1385 0832 94000000 		.4byte	.LASF113
 1386 0836 05       		.byte	0x5
 1387 0837 7201     		.2byte	0x172
 1388 0839 15010000 		.4byte	0x115
 1389 083d 02       		.byte	0x2
 1390 083e 23       		.byte	0x23
 1391 083f 28       		.uleb128 0x28
 1392 0840 13       		.uleb128 0x13
 1393 0841 5D020000 		.4byte	.LASF114
 1394 0845 05       		.byte	0x5
 1395 0846 7301     		.2byte	0x173
 1396 0848 15010000 		.4byte	0x115
 1397 084c 02       		.byte	0x2
 1398 084d 23       		.byte	0x23
 1399 084e 30       		.uleb128 0x30
 1400 084f 13       		.uleb128 0x13
 1401 0850 C4010000 		.4byte	.LASF115
 1402 0854 05       		.byte	0x5
 1403 0855 7401     		.2byte	0x174
 1404 0857 15010000 		.4byte	0x115
 1405 085b 02       		.byte	0x2
 1406 085c 23       		.byte	0x23
 1407 085d 38       		.uleb128 0x38
 1408 085e 13       		.uleb128 0x13
 1409 085f 39030000 		.4byte	.LASF116
 1410 0863 05       		.byte	0x5
 1411 0864 7501     		.2byte	0x175
 1412 0866 15010000 		.4byte	0x115
 1413 086a 02       		.byte	0x2
 1414 086b 23       		.byte	0x23
 1415 086c 40       		.uleb128 0x40
 1416 086d 13       		.uleb128 0x13
 1417 086e F9010000 		.4byte	.LASF117
 1418 0872 05       		.byte	0x5
ARM GAS  C:\Users\z80\AppData\Local\Temp\ccenAslK.s 			page 26


 1419 0873 7601     		.2byte	0x176
 1420 0875 15010000 		.4byte	0x115
 1421 0879 02       		.byte	0x2
 1422 087a 23       		.byte	0x23
 1423 087b 48       		.uleb128 0x48
 1424 087c 00       		.byte	0
 1425 087d 08       		.uleb128 0x8
 1426 087e 30060000 		.4byte	0x630
 1427 0882 8D080000 		.4byte	0x88d
 1428 0886 09       		.uleb128 0x9
 1429 0887 34000000 		.4byte	0x34
 1430 088b 07       		.byte	0x7
 1431 088c 00       		.byte	0
 1432 088d 0F       		.uleb128 0xf
 1433 088e 04       		.byte	0x4
 1434 088f 7A070000 		.4byte	0x77a
 1435 0893 18       		.uleb128 0x18
 1436 0894 01       		.byte	0x1
 1437 0895 9F080000 		.4byte	0x89f
 1438 0899 16       		.uleb128 0x16
 1439 089a AB040000 		.4byte	0x4ab
 1440 089e 00       		.byte	0
 1441 089f 0F       		.uleb128 0xf
 1442 08a0 04       		.byte	0x4
 1443 08a1 93080000 		.4byte	0x893
 1444 08a5 0F       		.uleb128 0xf
 1445 08a6 04       		.byte	0x4
 1446 08a7 20070000 		.4byte	0x720
 1447 08ab 0F       		.uleb128 0xf
 1448 08ac 04       		.byte	0x4
 1449 08ad B4010000 		.4byte	0x1b4
 1450 08b1 18       		.uleb128 0x18
 1451 08b2 01       		.byte	0x1
 1452 08b3 BD080000 		.4byte	0x8bd
 1453 08b7 16       		.uleb128 0x16
 1454 08b8 57000000 		.4byte	0x57
 1455 08bc 00       		.byte	0
 1456 08bd 0F       		.uleb128 0xf
 1457 08be 04       		.byte	0x4
 1458 08bf C3080000 		.4byte	0x8c3
 1459 08c3 0F       		.uleb128 0xf
 1460 08c4 04       		.byte	0x4
 1461 08c5 B1080000 		.4byte	0x8b1
 1462 08c9 0F       		.uleb128 0xf
 1463 08ca 04       		.byte	0x4
 1464 08cb CA070000 		.4byte	0x7ca
 1465 08cf 02       		.uleb128 0x2
 1466 08d0 A8020000 		.4byte	.LASF118
 1467 08d4 06       		.byte	0x6
 1468 08d5 6D       		.byte	0x6d
 1469 08d6 82000000 		.4byte	0x82
 1470 08da 02       		.uleb128 0x2
 1471 08db 84040000 		.4byte	.LASF119
 1472 08df 06       		.byte	0x6
 1473 08e0 7E       		.byte	0x7e
 1474 08e1 2A060000 		.4byte	0x62a
 1475 08e5 02       		.uleb128 0x2
ARM GAS  C:\Users\z80\AppData\Local\Temp\ccenAslK.s 			page 27


 1476 08e6 D9000000 		.4byte	.LASF120
 1477 08ea 06       		.byte	0x6
 1478 08eb 85       		.byte	0x85
 1479 08ec 50000000 		.4byte	0x50
 1480 08f0 02       		.uleb128 0x2
 1481 08f1 62050000 		.4byte	.LASF121
 1482 08f5 06       		.byte	0x6
 1483 08f6 A2       		.byte	0xa2
 1484 08f7 77000000 		.4byte	0x77
 1485 08fb 02       		.uleb128 0x2
 1486 08fc 4E030000 		.4byte	.LASF122
 1487 0900 06       		.byte	0x6
 1488 0901 A3       		.byte	0xa3
 1489 0902 89000000 		.4byte	0x89
 1490 0906 02       		.uleb128 0x2
 1491 0907 48030000 		.4byte	.LASF123
 1492 090b 06       		.byte	0x6
 1493 090c A4       		.byte	0xa4
 1494 090d 94000000 		.4byte	0x94
 1495 0911 02       		.uleb128 0x2
 1496 0912 D5030000 		.4byte	.LASF124
 1497 0916 06       		.byte	0x6
 1498 0917 A5       		.byte	0xa5
 1499 0918 9F000000 		.4byte	0x9f
 1500 091c 02       		.uleb128 0x2
 1501 091d 54050000 		.4byte	.LASF125
 1502 0921 06       		.byte	0x6
 1503 0922 BF       		.byte	0xbf
 1504 0923 34000000 		.4byte	0x34
 1505 0927 02       		.uleb128 0x2
 1506 0928 D8040000 		.4byte	.LASF126
 1507 092c 06       		.byte	0x6
 1508 092d C4       		.byte	0xc4
 1509 092e 50000000 		.4byte	0x50
 1510 0932 0D       		.uleb128 0xd
 1511 0933 74010000 		.4byte	.LASF127
 1512 0937 3C       		.byte	0x3c
 1513 0938 07       		.byte	0x7
 1514 0939 19       		.byte	0x19
 1515 093a 2D0A0000 		.4byte	0xa2d
 1516 093e 0B       		.uleb128 0xb
 1517 093f 84010000 		.4byte	.LASF128
 1518 0943 07       		.byte	0x7
 1519 0944 1B       		.byte	0x1b
 1520 0945 FB080000 		.4byte	0x8fb
 1521 0949 02       		.byte	0x2
 1522 094a 23       		.byte	0x23
 1523 094b 00       		.uleb128 0
 1524 094c 0B       		.uleb128 0xb
 1525 094d C1020000 		.4byte	.LASF129
 1526 0951 07       		.byte	0x7
 1527 0952 1C       		.byte	0x1c
 1528 0953 E5080000 		.4byte	0x8e5
 1529 0957 02       		.byte	0x2
 1530 0958 23       		.byte	0x23
 1531 0959 02       		.uleb128 0x2
 1532 095a 0B       		.uleb128 0xb
ARM GAS  C:\Users\z80\AppData\Local\Temp\ccenAslK.s 			page 28


 1533 095b BC010000 		.4byte	.LASF130
 1534 095f 07       		.byte	0x7
 1535 0960 1D       		.byte	0x1d
 1536 0961 1C090000 		.4byte	0x91c
 1537 0965 02       		.byte	0x2
 1538 0966 23       		.byte	0x23
 1539 0967 04       		.uleb128 0x4
 1540 0968 0B       		.uleb128 0xb
 1541 0969 D5010000 		.4byte	.LASF131
 1542 096d 07       		.byte	0x7
 1543 096e 1E       		.byte	0x1e
 1544 096f 27090000 		.4byte	0x927
 1545 0973 02       		.byte	0x2
 1546 0974 23       		.byte	0x23
 1547 0975 08       		.uleb128 0x8
 1548 0976 0B       		.uleb128 0xb
 1549 0977 6C020000 		.4byte	.LASF132
 1550 097b 07       		.byte	0x7
 1551 097c 1F       		.byte	0x1f
 1552 097d 06090000 		.4byte	0x906
 1553 0981 02       		.byte	0x2
 1554 0982 23       		.byte	0x23
 1555 0983 0A       		.uleb128 0xa
 1556 0984 0B       		.uleb128 0xb
 1557 0985 AF010000 		.4byte	.LASF133
 1558 0989 07       		.byte	0x7
 1559 098a 20       		.byte	0x20
 1560 098b 11090000 		.4byte	0x911
 1561 098f 02       		.byte	0x2
 1562 0990 23       		.byte	0x23
 1563 0991 0C       		.uleb128 0xc
 1564 0992 0B       		.uleb128 0xb
 1565 0993 97050000 		.4byte	.LASF134
 1566 0997 07       		.byte	0x7
 1567 0998 21       		.byte	0x21
 1568 0999 FB080000 		.4byte	0x8fb
 1569 099d 02       		.byte	0x2
 1570 099e 23       		.byte	0x23
 1571 099f 0E       		.uleb128 0xe
 1572 09a0 0B       		.uleb128 0xb
 1573 09a1 0F050000 		.4byte	.LASF135
 1574 09a5 07       		.byte	0x7
 1575 09a6 22       		.byte	0x22
 1576 09a7 F0080000 		.4byte	0x8f0
 1577 09ab 02       		.byte	0x2
 1578 09ac 23       		.byte	0x23
 1579 09ad 10       		.uleb128 0x10
 1580 09ae 0B       		.uleb128 0xb
 1581 09af 7C020000 		.4byte	.LASF136
 1582 09b3 07       		.byte	0x7
 1583 09b4 30       		.byte	0x30
 1584 09b5 CF080000 		.4byte	0x8cf
 1585 09b9 02       		.byte	0x2
 1586 09ba 23       		.byte	0x23
 1587 09bb 14       		.uleb128 0x14
 1588 09bc 0B       		.uleb128 0xb
 1589 09bd 81030000 		.4byte	.LASF137
ARM GAS  C:\Users\z80\AppData\Local\Temp\ccenAslK.s 			page 29


 1590 09c1 07       		.byte	0x7
 1591 09c2 31       		.byte	0x31
 1592 09c3 82000000 		.4byte	0x82
 1593 09c7 02       		.byte	0x2
 1594 09c8 23       		.byte	0x23
 1595 09c9 18       		.uleb128 0x18
 1596 09ca 0B       		.uleb128 0xb
 1597 09cb 5C010000 		.4byte	.LASF138
 1598 09cf 07       		.byte	0x7
 1599 09d0 32       		.byte	0x32
 1600 09d1 CF080000 		.4byte	0x8cf
 1601 09d5 02       		.byte	0x2
 1602 09d6 23       		.byte	0x23
 1603 09d7 1C       		.uleb128 0x1c
 1604 09d8 0B       		.uleb128 0xb
 1605 09d9 8B030000 		.4byte	.LASF139
 1606 09dd 07       		.byte	0x7
 1607 09de 33       		.byte	0x33
 1608 09df 82000000 		.4byte	0x82
 1609 09e3 02       		.byte	0x2
 1610 09e4 23       		.byte	0x23
 1611 09e5 20       		.uleb128 0x20
 1612 09e6 0B       		.uleb128 0xb
 1613 09e7 4F040000 		.4byte	.LASF140
 1614 09eb 07       		.byte	0x7
 1615 09ec 34       		.byte	0x34
 1616 09ed CF080000 		.4byte	0x8cf
 1617 09f1 02       		.byte	0x2
 1618 09f2 23       		.byte	0x23
 1619 09f3 24       		.uleb128 0x24
 1620 09f4 0B       		.uleb128 0xb
 1621 09f5 95030000 		.4byte	.LASF141
 1622 09f9 07       		.byte	0x7
 1623 09fa 35       		.byte	0x35
 1624 09fb 82000000 		.4byte	0x82
 1625 09ff 02       		.byte	0x2
 1626 0a00 23       		.byte	0x23
 1627 0a01 28       		.uleb128 0x28
 1628 0a02 0B       		.uleb128 0xb
 1629 0a03 5A000000 		.4byte	.LASF142
 1630 0a07 07       		.byte	0x7
 1631 0a08 36       		.byte	0x36
 1632 0a09 82000000 		.4byte	0x82
 1633 0a0d 02       		.byte	0x2
 1634 0a0e 23       		.byte	0x23
 1635 0a0f 2C       		.uleb128 0x2c
 1636 0a10 0B       		.uleb128 0xb
 1637 0a11 30010000 		.4byte	.LASF143
 1638 0a15 07       		.byte	0x7
 1639 0a16 37       		.byte	0x37
 1640 0a17 82000000 		.4byte	0x82
 1641 0a1b 02       		.byte	0x2
 1642 0a1c 23       		.byte	0x23
 1643 0a1d 30       		.uleb128 0x30
 1644 0a1e 0B       		.uleb128 0xb
 1645 0a1f 9F030000 		.4byte	.LASF144
 1646 0a23 07       		.byte	0x7
ARM GAS  C:\Users\z80\AppData\Local\Temp\ccenAslK.s 			page 30


 1647 0a24 38       		.byte	0x38
 1648 0a25 2D0A0000 		.4byte	0xa2d
 1649 0a29 02       		.byte	0x2
 1650 0a2a 23       		.byte	0x23
 1651 0a2b 34       		.uleb128 0x34
 1652 0a2c 00       		.byte	0
 1653 0a2d 08       		.uleb128 0x8
 1654 0a2e 82000000 		.4byte	0x82
 1655 0a32 3D0A0000 		.4byte	0xa3d
 1656 0a36 09       		.uleb128 0x9
 1657 0a37 34000000 		.4byte	0x34
 1658 0a3b 01       		.byte	0x1
 1659 0a3c 00       		.byte	0
 1660 0a3d 19       		.uleb128 0x19
 1661 0a3e 01       		.byte	0x1
 1662 0a3f E9000000 		.4byte	.LASF146
 1663 0a43 01       		.byte	0x1
 1664 0a44 51       		.byte	0x51
 1665 0a45 01       		.byte	0x1
 1666 0a46 57000000 		.4byte	0x57
 1667 0a4a 00000000 		.4byte	.LFB7
 1668 0a4e 1C000000 		.4byte	.LFE7
 1669 0a52 00000000 		.4byte	.LLST0
 1670 0a56 910A0000 		.4byte	0xa91
 1671 0a5a 1A       		.uleb128 0x1a
 1672 0a5b 7200     		.ascii	"r\000"
 1673 0a5d 01       		.byte	0x1
 1674 0a5e 51       		.byte	0x51
 1675 0a5f AB040000 		.4byte	0x4ab
 1676 0a63 02       		.byte	0x2
 1677 0a64 91       		.byte	0x91
 1678 0a65 7C       		.sleb128 -4
 1679 0a66 1B       		.uleb128 0x1b
 1680 0a67 85020000 		.4byte	.LASF145
 1681 0a6b 01       		.byte	0x1
 1682 0a6c 51       		.byte	0x51
 1683 0a6d 57000000 		.4byte	0x57
 1684 0a71 02       		.byte	0x2
 1685 0a72 91       		.byte	0x91
 1686 0a73 78       		.sleb128 -8
 1687 0a74 1A       		.uleb128 0x1a
 1688 0a75 70747200 		.ascii	"ptr\000"
 1689 0a79 01       		.byte	0x1
 1690 0a7a 51       		.byte	0x51
 1691 0a7b 2A060000 		.4byte	0x62a
 1692 0a7f 02       		.byte	0x2
 1693 0a80 91       		.byte	0x91
 1694 0a81 74       		.sleb128 -12
 1695 0a82 1A       		.uleb128 0x1a
 1696 0a83 6C656E00 		.ascii	"len\000"
 1697 0a87 01       		.byte	0x1
 1698 0a88 51       		.byte	0x51
 1699 0a89 57000000 		.4byte	0x57
 1700 0a8d 02       		.byte	0x2
 1701 0a8e 91       		.byte	0x91
 1702 0a8f 70       		.sleb128 -16
 1703 0a90 00       		.byte	0
ARM GAS  C:\Users\z80\AppData\Local\Temp\ccenAslK.s 			page 31


 1704 0a91 19       		.uleb128 0x19
 1705 0a92 01       		.byte	0x1
 1706 0a93 BB030000 		.4byte	.LASF147
 1707 0a97 01       		.byte	0x1
 1708 0a98 66       		.byte	0x66
 1709 0a99 01       		.byte	0x1
 1710 0a9a 57000000 		.4byte	0x57
 1711 0a9e 00000000 		.4byte	.LFB8
 1712 0aa2 14000000 		.4byte	.LFE8
 1713 0aa6 20000000 		.4byte	.LLST1
 1714 0aaa E50A0000 		.4byte	0xae5
 1715 0aae 1A       		.uleb128 0x1a
 1716 0aaf 7200     		.ascii	"r\000"
 1717 0ab1 01       		.byte	0x1
 1718 0ab2 66       		.byte	0x66
 1719 0ab3 AB040000 		.4byte	0x4ab
 1720 0ab7 02       		.byte	0x2
 1721 0ab8 91       		.byte	0x91
 1722 0ab9 7C       		.sleb128 -4
 1723 0aba 1B       		.uleb128 0x1b
 1724 0abb 85020000 		.4byte	.LASF145
 1725 0abf 01       		.byte	0x1
 1726 0ac0 66       		.byte	0x66
 1727 0ac1 57000000 		.4byte	0x57
 1728 0ac5 02       		.byte	0x2
 1729 0ac6 91       		.byte	0x91
 1730 0ac7 78       		.sleb128 -8
 1731 0ac8 1A       		.uleb128 0x1a
 1732 0ac9 70747200 		.ascii	"ptr\000"
 1733 0acd 01       		.byte	0x1
 1734 0ace 66       		.byte	0x66
 1735 0acf 57000000 		.4byte	0x57
 1736 0ad3 02       		.byte	0x2
 1737 0ad4 91       		.byte	0x91
 1738 0ad5 74       		.sleb128 -12
 1739 0ad6 1A       		.uleb128 0x1a
 1740 0ad7 64697200 		.ascii	"dir\000"
 1741 0adb 01       		.byte	0x1
 1742 0adc 66       		.byte	0x66
 1743 0add 57000000 		.4byte	0x57
 1744 0ae1 02       		.byte	0x2
 1745 0ae2 91       		.byte	0x91
 1746 0ae3 70       		.sleb128 -16
 1747 0ae4 00       		.byte	0
 1748 0ae5 19       		.uleb128 0x19
 1749 0ae6 01       		.byte	0x1
 1750 0ae7 38000000 		.4byte	.LASF148
 1751 0aeb 01       		.byte	0x1
 1752 0aec 72       		.byte	0x72
 1753 0aed 01       		.byte	0x1
 1754 0aee 57000000 		.4byte	0x57
 1755 0af2 00000000 		.4byte	.LFB9
 1756 0af6 12000000 		.4byte	.LFE9
 1757 0afa 40000000 		.4byte	.LLST2
 1758 0afe 390B0000 		.4byte	0xb39
 1759 0b02 1A       		.uleb128 0x1a
 1760 0b03 7200     		.ascii	"r\000"
ARM GAS  C:\Users\z80\AppData\Local\Temp\ccenAslK.s 			page 32


 1761 0b05 01       		.byte	0x1
 1762 0b06 72       		.byte	0x72
 1763 0b07 AB040000 		.4byte	0x4ab
 1764 0b0b 02       		.byte	0x2
 1765 0b0c 91       		.byte	0x91
 1766 0b0d 7C       		.sleb128 -4
 1767 0b0e 1B       		.uleb128 0x1b
 1768 0b0f 85020000 		.4byte	.LASF145
 1769 0b13 01       		.byte	0x1
 1770 0b14 72       		.byte	0x72
 1771 0b15 57000000 		.4byte	0x57
 1772 0b19 02       		.byte	0x2
 1773 0b1a 91       		.byte	0x91
 1774 0b1b 78       		.sleb128 -8
 1775 0b1c 1A       		.uleb128 0x1a
 1776 0b1d 70747200 		.ascii	"ptr\000"
 1777 0b21 01       		.byte	0x1
 1778 0b22 72       		.byte	0x72
 1779 0b23 2A060000 		.4byte	0x62a
 1780 0b27 02       		.byte	0x2
 1781 0b28 91       		.byte	0x91
 1782 0b29 74       		.sleb128 -12
 1783 0b2a 1A       		.uleb128 0x1a
 1784 0b2b 6C656E00 		.ascii	"len\000"
 1785 0b2f 01       		.byte	0x1
 1786 0b30 72       		.byte	0x72
 1787 0b31 57000000 		.4byte	0x57
 1788 0b35 02       		.byte	0x2
 1789 0b36 91       		.byte	0x91
 1790 0b37 70       		.sleb128 -16
 1791 0b38 00       		.byte	0
 1792 0b39 19       		.uleb128 0x19
 1793 0b3a 01       		.byte	0x1
 1794 0b3b A9030000 		.4byte	.LASF149
 1795 0b3f 01       		.byte	0x1
 1796 0b40 83       		.byte	0x83
 1797 0b41 01       		.byte	0x1
 1798 0b42 57000000 		.4byte	0x57
 1799 0b46 00000000 		.4byte	.LFB10
 1800 0b4a 10000000 		.4byte	.LFE10
 1801 0b4e 60000000 		.4byte	.LLST3
 1802 0b52 710B0000 		.4byte	0xb71
 1803 0b56 1A       		.uleb128 0x1a
 1804 0b57 7200     		.ascii	"r\000"
 1805 0b59 01       		.byte	0x1
 1806 0b5a 83       		.byte	0x83
 1807 0b5b AB040000 		.4byte	0x4ab
 1808 0b5f 02       		.byte	0x2
 1809 0b60 91       		.byte	0x91
 1810 0b61 7C       		.sleb128 -4
 1811 0b62 1B       		.uleb128 0x1b
 1812 0b63 85020000 		.4byte	.LASF145
 1813 0b67 01       		.byte	0x1
 1814 0b68 83       		.byte	0x83
 1815 0b69 57000000 		.4byte	0x57
 1816 0b6d 02       		.byte	0x2
 1817 0b6e 91       		.byte	0x91
ARM GAS  C:\Users\z80\AppData\Local\Temp\ccenAslK.s 			page 33


 1818 0b6f 78       		.sleb128 -8
 1819 0b70 00       		.byte	0
 1820 0b71 19       		.uleb128 0x19
 1821 0b72 01       		.byte	0x1
 1822 0b73 54010000 		.4byte	.LASF150
 1823 0b77 01       		.byte	0x1
 1824 0b78 8D       		.byte	0x8d
 1825 0b79 01       		.byte	0x1
 1826 0b7a DA080000 		.4byte	0x8da
 1827 0b7e 00000000 		.4byte	.LFB11
 1828 0b82 40000000 		.4byte	.LFE11
 1829 0b86 80000000 		.4byte	.LLST4
 1830 0b8a B50B0000 		.4byte	0xbb5
 1831 0b8e 1A       		.uleb128 0x1a
 1832 0b8f 7200     		.ascii	"r\000"
 1833 0b91 01       		.byte	0x1
 1834 0b92 8D       		.byte	0x8d
 1835 0b93 AB040000 		.4byte	0x4ab
 1836 0b97 02       		.byte	0x2
 1837 0b98 91       		.byte	0x91
 1838 0b99 6C       		.sleb128 -20
 1839 0b9a 1B       		.uleb128 0x1b
 1840 0b9b E7010000 		.4byte	.LASF151
 1841 0b9f 01       		.byte	0x1
 1842 0ba0 8D       		.byte	0x8d
 1843 0ba1 57000000 		.4byte	0x57
 1844 0ba5 02       		.byte	0x2
 1845 0ba6 91       		.byte	0x91
 1846 0ba7 68       		.sleb128 -24
 1847 0ba8 1C       		.uleb128 0x1c
 1848 0ba9 7000     		.ascii	"p\000"
 1849 0bab 01       		.byte	0x1
 1850 0bac 90       		.byte	0x90
 1851 0bad 2B010000 		.4byte	0x12b
 1852 0bb1 02       		.byte	0x2
 1853 0bb2 91       		.byte	0x91
 1854 0bb3 74       		.sleb128 -12
 1855 0bb4 00       		.byte	0
 1856 0bb5 19       		.uleb128 0x19
 1857 0bb6 01       		.byte	0x1
 1858 0bb7 DE010000 		.4byte	.LASF152
 1859 0bbb 01       		.byte	0x1
 1860 0bbc A3       		.byte	0xa3
 1861 0bbd 01       		.byte	0x1
 1862 0bbe 57000000 		.4byte	0x57
 1863 0bc2 00000000 		.4byte	.LFB12
 1864 0bc6 30000000 		.4byte	.LFE12
 1865 0bca AC000000 		.4byte	.LLST5
 1866 0bce FA0B0000 		.4byte	0xbfa
 1867 0bd2 1A       		.uleb128 0x1a
 1868 0bd3 7200     		.ascii	"r\000"
 1869 0bd5 01       		.byte	0x1
 1870 0bd6 A3       		.byte	0xa3
 1871 0bd7 AB040000 		.4byte	0x4ab
 1872 0bdb 02       		.byte	0x2
 1873 0bdc 91       		.byte	0x91
 1874 0bdd 74       		.sleb128 -12
ARM GAS  C:\Users\z80\AppData\Local\Temp\ccenAslK.s 			page 34


 1875 0bde 1B       		.uleb128 0x1b
 1876 0bdf 85020000 		.4byte	.LASF145
 1877 0be3 01       		.byte	0x1
 1878 0be4 A3       		.byte	0xa3
 1879 0be5 57000000 		.4byte	0x57
 1880 0be9 02       		.byte	0x2
 1881 0bea 91       		.byte	0x91
 1882 0beb 70       		.sleb128 -16
 1883 0bec 1A       		.uleb128 0x1a
 1884 0bed 737400   		.ascii	"st\000"
 1885 0bf0 01       		.byte	0x1
 1886 0bf1 A3       		.byte	0xa3
 1887 0bf2 FA0B0000 		.4byte	0xbfa
 1888 0bf6 02       		.byte	0x2
 1889 0bf7 91       		.byte	0x91
 1890 0bf8 6C       		.sleb128 -20
 1891 0bf9 00       		.byte	0
 1892 0bfa 0F       		.uleb128 0xf
 1893 0bfb 04       		.byte	0x4
 1894 0bfc 32090000 		.4byte	0x932
 1895 0c00 1D       		.uleb128 0x1d
 1896 0c01 01       		.byte	0x1
 1897 0c02 29000000 		.4byte	.LASF156
 1898 0c06 01       		.byte	0x1
 1899 0c07 AF       		.byte	0xaf
 1900 0c08 01       		.byte	0x1
 1901 0c09 57000000 		.4byte	0x57
 1902 0c0d 00000000 		.4byte	.LFB13
 1903 0c11 10000000 		.4byte	.LFE13
 1904 0c15 D8000000 		.4byte	.LLST6
 1905 0c19 1A       		.uleb128 0x1a
 1906 0c1a 7200     		.ascii	"r\000"
 1907 0c1c 01       		.byte	0x1
 1908 0c1d AF       		.byte	0xaf
 1909 0c1e AB040000 		.4byte	0x4ab
 1910 0c22 02       		.byte	0x2
 1911 0c23 91       		.byte	0x91
 1912 0c24 7C       		.sleb128 -4
 1913 0c25 1A       		.uleb128 0x1a
 1914 0c26 666400   		.ascii	"fd\000"
 1915 0c29 01       		.byte	0x1
 1916 0c2a AF       		.byte	0xaf
 1917 0c2b 57000000 		.4byte	0x57
 1918 0c2f 02       		.byte	0x2
 1919 0c30 91       		.byte	0x91
 1920 0c31 78       		.sleb128 -8
 1921 0c32 00       		.byte	0
 1922 0c33 00       		.byte	0
 1923              		.section	.debug_abbrev,"",%progbits
 1924              	.Ldebug_abbrev0:
 1925 0000 01       		.uleb128 0x1
 1926 0001 11       		.uleb128 0x11
 1927 0002 01       		.byte	0x1
 1928 0003 25       		.uleb128 0x25
 1929 0004 0E       		.uleb128 0xe
 1930 0005 13       		.uleb128 0x13
 1931 0006 0B       		.uleb128 0xb
ARM GAS  C:\Users\z80\AppData\Local\Temp\ccenAslK.s 			page 35


 1932 0007 03       		.uleb128 0x3
 1933 0008 0E       		.uleb128 0xe
 1934 0009 1B       		.uleb128 0x1b
 1935 000a 0E       		.uleb128 0xe
 1936 000b 11       		.uleb128 0x11
 1937 000c 01       		.uleb128 0x1
 1938 000d 52       		.uleb128 0x52
 1939 000e 01       		.uleb128 0x1
 1940 000f 55       		.uleb128 0x55
 1941 0010 06       		.uleb128 0x6
 1942 0011 10       		.uleb128 0x10
 1943 0012 06       		.uleb128 0x6
 1944 0013 00       		.byte	0
 1945 0014 00       		.byte	0
 1946 0015 02       		.uleb128 0x2
 1947 0016 16       		.uleb128 0x16
 1948 0017 00       		.byte	0
 1949 0018 03       		.uleb128 0x3
 1950 0019 0E       		.uleb128 0xe
 1951 001a 3A       		.uleb128 0x3a
 1952 001b 0B       		.uleb128 0xb
 1953 001c 3B       		.uleb128 0x3b
 1954 001d 0B       		.uleb128 0xb
 1955 001e 49       		.uleb128 0x49
 1956 001f 13       		.uleb128 0x13
 1957 0020 00       		.byte	0
 1958 0021 00       		.byte	0
 1959 0022 03       		.uleb128 0x3
 1960 0023 24       		.uleb128 0x24
 1961 0024 00       		.byte	0
 1962 0025 0B       		.uleb128 0xb
 1963 0026 0B       		.uleb128 0xb
 1964 0027 3E       		.uleb128 0x3e
 1965 0028 0B       		.uleb128 0xb
 1966 0029 03       		.uleb128 0x3
 1967 002a 0E       		.uleb128 0xe
 1968 002b 00       		.byte	0
 1969 002c 00       		.byte	0
 1970 002d 04       		.uleb128 0x4
 1971 002e 24       		.uleb128 0x24
 1972 002f 00       		.byte	0
 1973 0030 0B       		.uleb128 0xb
 1974 0031 0B       		.uleb128 0xb
 1975 0032 3E       		.uleb128 0x3e
 1976 0033 0B       		.uleb128 0xb
 1977 0034 03       		.uleb128 0x3
 1978 0035 08       		.uleb128 0x8
 1979 0036 00       		.byte	0
 1980 0037 00       		.byte	0
 1981 0038 05       		.uleb128 0x5
 1982 0039 16       		.uleb128 0x16
 1983 003a 00       		.byte	0
 1984 003b 03       		.uleb128 0x3
 1985 003c 0E       		.uleb128 0xe
 1986 003d 3A       		.uleb128 0x3a
 1987 003e 0B       		.uleb128 0xb
 1988 003f 3B       		.uleb128 0x3b
ARM GAS  C:\Users\z80\AppData\Local\Temp\ccenAslK.s 			page 36


 1989 0040 05       		.uleb128 0x5
 1990 0041 49       		.uleb128 0x49
 1991 0042 13       		.uleb128 0x13
 1992 0043 00       		.byte	0
 1993 0044 00       		.byte	0
 1994 0045 06       		.uleb128 0x6
 1995 0046 17       		.uleb128 0x17
 1996 0047 01       		.byte	0x1
 1997 0048 0B       		.uleb128 0xb
 1998 0049 0B       		.uleb128 0xb
 1999 004a 3A       		.uleb128 0x3a
 2000 004b 0B       		.uleb128 0xb
 2001 004c 3B       		.uleb128 0x3b
 2002 004d 0B       		.uleb128 0xb
 2003 004e 01       		.uleb128 0x1
 2004 004f 13       		.uleb128 0x13
 2005 0050 00       		.byte	0
 2006 0051 00       		.byte	0
 2007 0052 07       		.uleb128 0x7
 2008 0053 0D       		.uleb128 0xd
 2009 0054 00       		.byte	0
 2010 0055 03       		.uleb128 0x3
 2011 0056 0E       		.uleb128 0xe
 2012 0057 3A       		.uleb128 0x3a
 2013 0058 0B       		.uleb128 0xb
 2014 0059 3B       		.uleb128 0x3b
 2015 005a 0B       		.uleb128 0xb
 2016 005b 49       		.uleb128 0x49
 2017 005c 13       		.uleb128 0x13
 2018 005d 00       		.byte	0
 2019 005e 00       		.byte	0
 2020 005f 08       		.uleb128 0x8
 2021 0060 01       		.uleb128 0x1
 2022 0061 01       		.byte	0x1
 2023 0062 49       		.uleb128 0x49
 2024 0063 13       		.uleb128 0x13
 2025 0064 01       		.uleb128 0x1
 2026 0065 13       		.uleb128 0x13
 2027 0066 00       		.byte	0
 2028 0067 00       		.byte	0
 2029 0068 09       		.uleb128 0x9
 2030 0069 21       		.uleb128 0x21
 2031 006a 00       		.byte	0
 2032 006b 49       		.uleb128 0x49
 2033 006c 13       		.uleb128 0x13
 2034 006d 2F       		.uleb128 0x2f
 2035 006e 0B       		.uleb128 0xb
 2036 006f 00       		.byte	0
 2037 0070 00       		.byte	0
 2038 0071 0A       		.uleb128 0xa
 2039 0072 13       		.uleb128 0x13
 2040 0073 01       		.byte	0x1
 2041 0074 0B       		.uleb128 0xb
 2042 0075 0B       		.uleb128 0xb
 2043 0076 3A       		.uleb128 0x3a
 2044 0077 0B       		.uleb128 0xb
 2045 0078 3B       		.uleb128 0x3b
ARM GAS  C:\Users\z80\AppData\Local\Temp\ccenAslK.s 			page 37


 2046 0079 0B       		.uleb128 0xb
 2047 007a 01       		.uleb128 0x1
 2048 007b 13       		.uleb128 0x13
 2049 007c 00       		.byte	0
 2050 007d 00       		.byte	0
 2051 007e 0B       		.uleb128 0xb
 2052 007f 0D       		.uleb128 0xd
 2053 0080 00       		.byte	0
 2054 0081 03       		.uleb128 0x3
 2055 0082 0E       		.uleb128 0xe
 2056 0083 3A       		.uleb128 0x3a
 2057 0084 0B       		.uleb128 0xb
 2058 0085 3B       		.uleb128 0x3b
 2059 0086 0B       		.uleb128 0xb
 2060 0087 49       		.uleb128 0x49
 2061 0088 13       		.uleb128 0x13
 2062 0089 38       		.uleb128 0x38
 2063 008a 0A       		.uleb128 0xa
 2064 008b 00       		.byte	0
 2065 008c 00       		.byte	0
 2066 008d 0C       		.uleb128 0xc
 2067 008e 0F       		.uleb128 0xf
 2068 008f 00       		.byte	0
 2069 0090 0B       		.uleb128 0xb
 2070 0091 0B       		.uleb128 0xb
 2071 0092 00       		.byte	0
 2072 0093 00       		.byte	0
 2073 0094 0D       		.uleb128 0xd
 2074 0095 13       		.uleb128 0x13
 2075 0096 01       		.byte	0x1
 2076 0097 03       		.uleb128 0x3
 2077 0098 0E       		.uleb128 0xe
 2078 0099 0B       		.uleb128 0xb
 2079 009a 0B       		.uleb128 0xb
 2080 009b 3A       		.uleb128 0x3a
 2081 009c 0B       		.uleb128 0xb
 2082 009d 3B       		.uleb128 0x3b
 2083 009e 0B       		.uleb128 0xb
 2084 009f 01       		.uleb128 0x1
 2085 00a0 13       		.uleb128 0x13
 2086 00a1 00       		.byte	0
 2087 00a2 00       		.byte	0
 2088 00a3 0E       		.uleb128 0xe
 2089 00a4 0D       		.uleb128 0xd
 2090 00a5 00       		.byte	0
 2091 00a6 03       		.uleb128 0x3
 2092 00a7 08       		.uleb128 0x8
 2093 00a8 3A       		.uleb128 0x3a
 2094 00a9 0B       		.uleb128 0xb
 2095 00aa 3B       		.uleb128 0x3b
 2096 00ab 0B       		.uleb128 0xb
 2097 00ac 49       		.uleb128 0x49
 2098 00ad 13       		.uleb128 0x13
 2099 00ae 38       		.uleb128 0x38
 2100 00af 0A       		.uleb128 0xa
 2101 00b0 00       		.byte	0
 2102 00b1 00       		.byte	0
ARM GAS  C:\Users\z80\AppData\Local\Temp\ccenAslK.s 			page 38


 2103 00b2 0F       		.uleb128 0xf
 2104 00b3 0F       		.uleb128 0xf
 2105 00b4 00       		.byte	0
 2106 00b5 0B       		.uleb128 0xb
 2107 00b6 0B       		.uleb128 0xb
 2108 00b7 49       		.uleb128 0x49
 2109 00b8 13       		.uleb128 0x13
 2110 00b9 00       		.byte	0
 2111 00ba 00       		.byte	0
 2112 00bb 10       		.uleb128 0x10
 2113 00bc 13       		.uleb128 0x13
 2114 00bd 01       		.byte	0x1
 2115 00be 03       		.uleb128 0x3
 2116 00bf 0E       		.uleb128 0xe
 2117 00c0 0B       		.uleb128 0xb
 2118 00c1 05       		.uleb128 0x5
 2119 00c2 3A       		.uleb128 0x3a
 2120 00c3 0B       		.uleb128 0xb
 2121 00c4 3B       		.uleb128 0x3b
 2122 00c5 0B       		.uleb128 0xb
 2123 00c6 01       		.uleb128 0x1
 2124 00c7 13       		.uleb128 0x13
 2125 00c8 00       		.byte	0
 2126 00c9 00       		.byte	0
 2127 00ca 11       		.uleb128 0x11
 2128 00cb 15       		.uleb128 0x15
 2129 00cc 00       		.byte	0
 2130 00cd 27       		.uleb128 0x27
 2131 00ce 0C       		.uleb128 0xc
 2132 00cf 00       		.byte	0
 2133 00d0 00       		.byte	0
 2134 00d1 12       		.uleb128 0x12
 2135 00d2 13       		.uleb128 0x13
 2136 00d3 01       		.byte	0x1
 2137 00d4 03       		.uleb128 0x3
 2138 00d5 0E       		.uleb128 0xe
 2139 00d6 0B       		.uleb128 0xb
 2140 00d7 0B       		.uleb128 0xb
 2141 00d8 3A       		.uleb128 0x3a
 2142 00d9 0B       		.uleb128 0xb
 2143 00da 3B       		.uleb128 0x3b
 2144 00db 05       		.uleb128 0x5
 2145 00dc 01       		.uleb128 0x1
 2146 00dd 13       		.uleb128 0x13
 2147 00de 00       		.byte	0
 2148 00df 00       		.byte	0
 2149 00e0 13       		.uleb128 0x13
 2150 00e1 0D       		.uleb128 0xd
 2151 00e2 00       		.byte	0
 2152 00e3 03       		.uleb128 0x3
 2153 00e4 0E       		.uleb128 0xe
 2154 00e5 3A       		.uleb128 0x3a
 2155 00e6 0B       		.uleb128 0xb
 2156 00e7 3B       		.uleb128 0x3b
 2157 00e8 05       		.uleb128 0x5
 2158 00e9 49       		.uleb128 0x49
 2159 00ea 13       		.uleb128 0x13
ARM GAS  C:\Users\z80\AppData\Local\Temp\ccenAslK.s 			page 39


 2160 00eb 38       		.uleb128 0x38
 2161 00ec 0A       		.uleb128 0xa
 2162 00ed 00       		.byte	0
 2163 00ee 00       		.byte	0
 2164 00ef 14       		.uleb128 0x14
 2165 00f0 0D       		.uleb128 0xd
 2166 00f1 00       		.byte	0
 2167 00f2 03       		.uleb128 0x3
 2168 00f3 08       		.uleb128 0x8
 2169 00f4 3A       		.uleb128 0x3a
 2170 00f5 0B       		.uleb128 0xb
 2171 00f6 3B       		.uleb128 0x3b
 2172 00f7 05       		.uleb128 0x5
 2173 00f8 49       		.uleb128 0x49
 2174 00f9 13       		.uleb128 0x13
 2175 00fa 38       		.uleb128 0x38
 2176 00fb 0A       		.uleb128 0xa
 2177 00fc 00       		.byte	0
 2178 00fd 00       		.byte	0
 2179 00fe 15       		.uleb128 0x15
 2180 00ff 15       		.uleb128 0x15
 2181 0100 01       		.byte	0x1
 2182 0101 27       		.uleb128 0x27
 2183 0102 0C       		.uleb128 0xc
 2184 0103 49       		.uleb128 0x49
 2185 0104 13       		.uleb128 0x13
 2186 0105 01       		.uleb128 0x1
 2187 0106 13       		.uleb128 0x13
 2188 0107 00       		.byte	0
 2189 0108 00       		.byte	0
 2190 0109 16       		.uleb128 0x16
 2191 010a 05       		.uleb128 0x5
 2192 010b 00       		.byte	0
 2193 010c 49       		.uleb128 0x49
 2194 010d 13       		.uleb128 0x13
 2195 010e 00       		.byte	0
 2196 010f 00       		.byte	0
 2197 0110 17       		.uleb128 0x17
 2198 0111 26       		.uleb128 0x26
 2199 0112 00       		.byte	0
 2200 0113 49       		.uleb128 0x49
 2201 0114 13       		.uleb128 0x13
 2202 0115 00       		.byte	0
 2203 0116 00       		.byte	0
 2204 0117 18       		.uleb128 0x18
 2205 0118 15       		.uleb128 0x15
 2206 0119 01       		.byte	0x1
 2207 011a 27       		.uleb128 0x27
 2208 011b 0C       		.uleb128 0xc
 2209 011c 01       		.uleb128 0x1
 2210 011d 13       		.uleb128 0x13
 2211 011e 00       		.byte	0
 2212 011f 00       		.byte	0
 2213 0120 19       		.uleb128 0x19
 2214 0121 2E       		.uleb128 0x2e
 2215 0122 01       		.byte	0x1
 2216 0123 3F       		.uleb128 0x3f
ARM GAS  C:\Users\z80\AppData\Local\Temp\ccenAslK.s 			page 40


 2217 0124 0C       		.uleb128 0xc
 2218 0125 03       		.uleb128 0x3
 2219 0126 0E       		.uleb128 0xe
 2220 0127 3A       		.uleb128 0x3a
 2221 0128 0B       		.uleb128 0xb
 2222 0129 3B       		.uleb128 0x3b
 2223 012a 0B       		.uleb128 0xb
 2224 012b 27       		.uleb128 0x27
 2225 012c 0C       		.uleb128 0xc
 2226 012d 49       		.uleb128 0x49
 2227 012e 13       		.uleb128 0x13
 2228 012f 11       		.uleb128 0x11
 2229 0130 01       		.uleb128 0x1
 2230 0131 12       		.uleb128 0x12
 2231 0132 01       		.uleb128 0x1
 2232 0133 40       		.uleb128 0x40
 2233 0134 06       		.uleb128 0x6
 2234 0135 01       		.uleb128 0x1
 2235 0136 13       		.uleb128 0x13
 2236 0137 00       		.byte	0
 2237 0138 00       		.byte	0
 2238 0139 1A       		.uleb128 0x1a
 2239 013a 05       		.uleb128 0x5
 2240 013b 00       		.byte	0
 2241 013c 03       		.uleb128 0x3
 2242 013d 08       		.uleb128 0x8
 2243 013e 3A       		.uleb128 0x3a
 2244 013f 0B       		.uleb128 0xb
 2245 0140 3B       		.uleb128 0x3b
 2246 0141 0B       		.uleb128 0xb
 2247 0142 49       		.uleb128 0x49
 2248 0143 13       		.uleb128 0x13
 2249 0144 02       		.uleb128 0x2
 2250 0145 0A       		.uleb128 0xa
 2251 0146 00       		.byte	0
 2252 0147 00       		.byte	0
 2253 0148 1B       		.uleb128 0x1b
 2254 0149 05       		.uleb128 0x5
 2255 014a 00       		.byte	0
 2256 014b 03       		.uleb128 0x3
 2257 014c 0E       		.uleb128 0xe
 2258 014d 3A       		.uleb128 0x3a
 2259 014e 0B       		.uleb128 0xb
 2260 014f 3B       		.uleb128 0x3b
 2261 0150 0B       		.uleb128 0xb
 2262 0151 49       		.uleb128 0x49
 2263 0152 13       		.uleb128 0x13
 2264 0153 02       		.uleb128 0x2
 2265 0154 0A       		.uleb128 0xa
 2266 0155 00       		.byte	0
 2267 0156 00       		.byte	0
 2268 0157 1C       		.uleb128 0x1c
 2269 0158 34       		.uleb128 0x34
 2270 0159 00       		.byte	0
 2271 015a 03       		.uleb128 0x3
 2272 015b 08       		.uleb128 0x8
 2273 015c 3A       		.uleb128 0x3a
ARM GAS  C:\Users\z80\AppData\Local\Temp\ccenAslK.s 			page 41


 2274 015d 0B       		.uleb128 0xb
 2275 015e 3B       		.uleb128 0x3b
 2276 015f 0B       		.uleb128 0xb
 2277 0160 49       		.uleb128 0x49
 2278 0161 13       		.uleb128 0x13
 2279 0162 02       		.uleb128 0x2
 2280 0163 0A       		.uleb128 0xa
 2281 0164 00       		.byte	0
 2282 0165 00       		.byte	0
 2283 0166 1D       		.uleb128 0x1d
 2284 0167 2E       		.uleb128 0x2e
 2285 0168 01       		.byte	0x1
 2286 0169 3F       		.uleb128 0x3f
 2287 016a 0C       		.uleb128 0xc
 2288 016b 03       		.uleb128 0x3
 2289 016c 0E       		.uleb128 0xe
 2290 016d 3A       		.uleb128 0x3a
 2291 016e 0B       		.uleb128 0xb
 2292 016f 3B       		.uleb128 0x3b
 2293 0170 0B       		.uleb128 0xb
 2294 0171 27       		.uleb128 0x27
 2295 0172 0C       		.uleb128 0xc
 2296 0173 49       		.uleb128 0x49
 2297 0174 13       		.uleb128 0x13
 2298 0175 11       		.uleb128 0x11
 2299 0176 01       		.uleb128 0x1
 2300 0177 12       		.uleb128 0x12
 2301 0178 01       		.uleb128 0x1
 2302 0179 40       		.uleb128 0x40
 2303 017a 06       		.uleb128 0x6
 2304 017b 00       		.byte	0
 2305 017c 00       		.byte	0
 2306 017d 00       		.byte	0
 2307              		.section	.debug_loc,"",%progbits
 2308              	.Ldebug_loc0:
 2309              	.LLST0:
 2310 0000 00000000 		.4byte	.LFB7
 2311 0004 02000000 		.4byte	.LCFI0
 2312 0008 0200     		.2byte	0x2
 2313 000a 7D       		.byte	0x7d
 2314 000b 00       		.sleb128 0
 2315 000c 02000000 		.4byte	.LCFI0
 2316 0010 1C000000 		.4byte	.LFE7
 2317 0014 0200     		.2byte	0x2
 2318 0016 7D       		.byte	0x7d
 2319 0017 10       		.sleb128 16
 2320 0018 00000000 		.4byte	0
 2321 001c 00000000 		.4byte	0
 2322              	.LLST1:
 2323 0020 00000000 		.4byte	.LFB8
 2324 0024 02000000 		.4byte	.LCFI1
 2325 0028 0200     		.2byte	0x2
 2326 002a 7D       		.byte	0x7d
 2327 002b 00       		.sleb128 0
 2328 002c 02000000 		.4byte	.LCFI1
 2329 0030 14000000 		.4byte	.LFE8
 2330 0034 0200     		.2byte	0x2
ARM GAS  C:\Users\z80\AppData\Local\Temp\ccenAslK.s 			page 42


 2331 0036 7D       		.byte	0x7d
 2332 0037 10       		.sleb128 16
 2333 0038 00000000 		.4byte	0
 2334 003c 00000000 		.4byte	0
 2335              	.LLST2:
 2336 0040 00000000 		.4byte	.LFB9
 2337 0044 02000000 		.4byte	.LCFI2
 2338 0048 0200     		.2byte	0x2
 2339 004a 7D       		.byte	0x7d
 2340 004b 00       		.sleb128 0
 2341 004c 02000000 		.4byte	.LCFI2
 2342 0050 12000000 		.4byte	.LFE9
 2343 0054 0200     		.2byte	0x2
 2344 0056 7D       		.byte	0x7d
 2345 0057 10       		.sleb128 16
 2346 0058 00000000 		.4byte	0
 2347 005c 00000000 		.4byte	0
 2348              	.LLST3:
 2349 0060 00000000 		.4byte	.LFB10
 2350 0064 02000000 		.4byte	.LCFI3
 2351 0068 0200     		.2byte	0x2
 2352 006a 7D       		.byte	0x7d
 2353 006b 00       		.sleb128 0
 2354 006c 02000000 		.4byte	.LCFI3
 2355 0070 10000000 		.4byte	.LFE10
 2356 0074 0200     		.2byte	0x2
 2357 0076 7D       		.byte	0x7d
 2358 0077 08       		.sleb128 8
 2359 0078 00000000 		.4byte	0
 2360 007c 00000000 		.4byte	0
 2361              	.LLST4:
 2362 0080 00000000 		.4byte	.LFB11
 2363 0084 02000000 		.4byte	.LCFI4
 2364 0088 0200     		.2byte	0x2
 2365 008a 7D       		.byte	0x7d
 2366 008b 00       		.sleb128 0
 2367 008c 02000000 		.4byte	.LCFI4
 2368 0090 04000000 		.4byte	.LCFI5
 2369 0094 0200     		.2byte	0x2
 2370 0096 7D       		.byte	0x7d
 2371 0097 04       		.sleb128 4
 2372 0098 04000000 		.4byte	.LCFI5
 2373 009c 40000000 		.4byte	.LFE11
 2374 00a0 0200     		.2byte	0x2
 2375 00a2 7D       		.byte	0x7d
 2376 00a3 18       		.sleb128 24
 2377 00a4 00000000 		.4byte	0
 2378 00a8 00000000 		.4byte	0
 2379              	.LLST5:
 2380 00ac 00000000 		.4byte	.LFB12
 2381 00b0 02000000 		.4byte	.LCFI6
 2382 00b4 0200     		.2byte	0x2
 2383 00b6 7D       		.byte	0x7d
 2384 00b7 00       		.sleb128 0
 2385 00b8 02000000 		.4byte	.LCFI6
 2386 00bc 04000000 		.4byte	.LCFI7
 2387 00c0 0200     		.2byte	0x2
ARM GAS  C:\Users\z80\AppData\Local\Temp\ccenAslK.s 			page 43


 2388 00c2 7D       		.byte	0x7d
 2389 00c3 04       		.sleb128 4
 2390 00c4 04000000 		.4byte	.LCFI7
 2391 00c8 30000000 		.4byte	.LFE12
 2392 00cc 0200     		.2byte	0x2
 2393 00ce 7D       		.byte	0x7d
 2394 00cf 18       		.sleb128 24
 2395 00d0 00000000 		.4byte	0
 2396 00d4 00000000 		.4byte	0
 2397              	.LLST6:
 2398 00d8 00000000 		.4byte	.LFB13
 2399 00dc 02000000 		.4byte	.LCFI8
 2400 00e0 0200     		.2byte	0x2
 2401 00e2 7D       		.byte	0x7d
 2402 00e3 00       		.sleb128 0
 2403 00e4 02000000 		.4byte	.LCFI8
 2404 00e8 10000000 		.4byte	.LFE13
 2405 00ec 0200     		.2byte	0x2
 2406 00ee 7D       		.byte	0x7d
 2407 00ef 08       		.sleb128 8
 2408 00f0 00000000 		.4byte	0
 2409 00f4 00000000 		.4byte	0
 2410              		.section	.debug_aranges,"",%progbits
 2411 0000 4C000000 		.4byte	0x4c
 2412 0004 0200     		.2byte	0x2
 2413 0006 00000000 		.4byte	.Ldebug_info0
 2414 000a 04       		.byte	0x4
 2415 000b 00       		.byte	0
 2416 000c 0000     		.2byte	0
 2417 000e 0000     		.2byte	0
 2418 0010 00000000 		.4byte	.LFB7
 2419 0014 1C000000 		.4byte	.LFE7-.LFB7
 2420 0018 00000000 		.4byte	.LFB8
 2421 001c 14000000 		.4byte	.LFE8-.LFB8
 2422 0020 00000000 		.4byte	.LFB9
 2423 0024 12000000 		.4byte	.LFE9-.LFB9
 2424 0028 00000000 		.4byte	.LFB10
 2425 002c 10000000 		.4byte	.LFE10-.LFB10
 2426 0030 00000000 		.4byte	.LFB11
 2427 0034 40000000 		.4byte	.LFE11-.LFB11
 2428 0038 00000000 		.4byte	.LFB12
 2429 003c 30000000 		.4byte	.LFE12-.LFB12
 2430 0040 00000000 		.4byte	.LFB13
 2431 0044 10000000 		.4byte	.LFE13-.LFB13
 2432 0048 00000000 		.4byte	0
 2433 004c 00000000 		.4byte	0
 2434              		.section	.debug_ranges,"",%progbits
 2435              	.Ldebug_ranges0:
 2436 0000 00000000 		.4byte	.LFB7
 2437 0004 1C000000 		.4byte	.LFE7
 2438 0008 00000000 		.4byte	.LFB8
 2439 000c 14000000 		.4byte	.LFE8
 2440 0010 00000000 		.4byte	.LFB9
 2441 0014 12000000 		.4byte	.LFE9
 2442 0018 00000000 		.4byte	.LFB10
 2443 001c 10000000 		.4byte	.LFE10
 2444 0020 00000000 		.4byte	.LFB11
ARM GAS  C:\Users\z80\AppData\Local\Temp\ccenAslK.s 			page 44


 2445 0024 40000000 		.4byte	.LFE11
 2446 0028 00000000 		.4byte	.LFB12
 2447 002c 30000000 		.4byte	.LFE12
 2448 0030 00000000 		.4byte	.LFB13
 2449 0034 10000000 		.4byte	.LFE13
 2450 0038 00000000 		.4byte	0
 2451 003c 00000000 		.4byte	0
 2452              		.section	.debug_line,"",%progbits
 2453              	.Ldebug_line0:
 2454 0000 D2010000 		.section	.debug_str,"MS",%progbits,1
 2454      02003B01 
 2454      00000201 
 2454      FB0E0D00 
 2454      01010101 
 2455              	.LASF72:
 2456 0000 5F6D6973 		.ascii	"_misc\000"
 2456      6300
 2457              	.LASF39:
 2458 0006 5F6F6E5F 		.ascii	"_on_exit_args\000"
 2458      65786974 
 2458      5F617267 
 2458      7300
 2459              	.LASF81:
 2460 0014 5F777269 		.ascii	"_write\000"
 2460      746500
 2461              	.LASF109:
 2462 001b 5F776374 		.ascii	"_wctomb_state\000"
 2462      6F6D625F 
 2462      73746174 
 2462      6500
 2463              	.LASF156:
 2464 0029 5F697361 		.ascii	"_isatty_r\000"
 2464      7474795F 
 2464      7200
 2465              	.LASF65:
 2466 0033 5F723438 		.ascii	"_r48\000"
 2466      00
 2467              	.LASF148:
 2468 0038 5F777269 		.ascii	"_write_r\000"
 2468      74655F72 
 2468      00
 2469              	.LASF73:
 2470 0041 5F736967 		.ascii	"_signal_buf\000"
 2470      6E616C5F 
 2470      62756600 
 2471              	.LASF0:
 2472 004d 756E7369 		.ascii	"unsigned int\000"
 2472      676E6564 
 2472      20696E74 
 2472      00
 2473              	.LASF142:
 2474 005a 73745F62 		.ascii	"st_blksize\000"
 2474      6C6B7369 
 2474      7A6500
 2475              	.LASF77:
 2476 0065 5F6C6266 		.ascii	"_lbfsize\000"
 2476      73697A65 
ARM GAS  C:\Users\z80\AppData\Local\Temp\ccenAslK.s 			page 45


 2476      00
 2477              	.LASF75:
 2478 006e 5F666C61 		.ascii	"_flags\000"
 2478      677300
 2479              	.LASF52:
 2480 0075 5F657272 		.ascii	"_errno\000"
 2480      6E6F00
 2481              	.LASF8:
 2482 007c 5F4C4F43 		.ascii	"_LOCK_RECURSIVE_T\000"
 2482      4B5F5245 
 2482      43555253 
 2482      4956455F 
 2482      5400
 2483              	.LASF80:
 2484 008e 5F726561 		.ascii	"_read\000"
 2484      6400
 2485              	.LASF113:
 2486 0094 5F6D6272 		.ascii	"_mbrlen_state\000"
 2486      6C656E5F 
 2486      73746174 
 2486      6500
 2487              	.LASF54:
 2488 00a2 5F737464 		.ascii	"_stdout\000"
 2488      6F757400 
 2489              	.LASF14:
 2490 00aa 5F66706F 		.ascii	"_fpos_t\000"
 2490      735F7400 
 2491              	.LASF46:
 2492 00b2 5F666E73 		.ascii	"_fns\000"
 2492      00
 2493              	.LASF79:
 2494 00b7 5F636F6F 		.ascii	"_cookie\000"
 2494      6B696500 
 2495              	.LASF28:
 2496 00bf 5F426967 		.ascii	"_Bigint\000"
 2496      696E7400 
 2497              	.LASF36:
 2498 00c7 5F5F746D 		.ascii	"__tm_wday\000"
 2498      5F776461 
 2498      7900
 2499              	.LASF102:
 2500 00d1 5F726573 		.ascii	"_result\000"
 2500      756C7400 
 2501              	.LASF120:
 2502 00d9 696E6F5F 		.ascii	"ino_t\000"
 2502      7400
 2503              	.LASF32:
 2504 00df 5F5F746D 		.ascii	"__tm_hour\000"
 2504      5F686F75 
 2504      7200
 2505              	.LASF146:
 2506 00e9 5F726561 		.ascii	"_read_r\000"
 2506      645F7200 
 2507              	.LASF18:
 2508 00f1 5F5F636F 		.ascii	"__count\000"
 2508      756E7400 
 2509              	.LASF31:
ARM GAS  C:\Users\z80\AppData\Local\Temp\ccenAslK.s 			page 46


 2510 00f9 5F5F746D 		.ascii	"__tm_min\000"
 2510      5F6D696E 
 2510      00
 2511              	.LASF71:
 2512 0102 5F5F7366 		.ascii	"__sf\000"
 2512      00
 2513              	.LASF96:
 2514 0107 5F72616E 		.ascii	"_rand48\000"
 2514      64343800 
 2515              	.LASF103:
 2516 010f 5F726573 		.ascii	"_result_k\000"
 2516      756C745F 
 2516      6B00
 2517              	.LASF6:
 2518 0119 6C6F6E67 		.ascii	"long long unsigned int\000"
 2518      206C6F6E 
 2518      6720756E 
 2518      7369676E 
 2518      65642069 
 2519              	.LASF143:
 2520 0130 73745F62 		.ascii	"st_blocks\000"
 2520      6C6F636B 
 2520      7300
 2521              	.LASF67:
 2522 013a 5F617363 		.ascii	"_asctime_buf\000"
 2522      74696D65 
 2522      5F627566 
 2522      00
 2523              	.LASF74:
 2524 0147 5F5F7346 		.ascii	"__sFILE\000"
 2524      494C4500 
 2525              	.LASF27:
 2526 014f 5F776473 		.ascii	"_wds\000"
 2526      00
 2527              	.LASF150:
 2528 0154 5F736272 		.ascii	"_sbrk_r\000"
 2528      6B5F7200 
 2529              	.LASF138:
 2530 015c 73745F6D 		.ascii	"st_mtime\000"
 2530      74696D65 
 2530      00
 2531              	.LASF92:
 2532 0165 5F5F4649 		.ascii	"__FILE\000"
 2532      4C4500
 2533              	.LASF87:
 2534 016c 5F6F6666 		.ascii	"_offset\000"
 2534      73657400 
 2535              	.LASF127:
 2536 0174 73746174 		.ascii	"stat\000"
 2536      00
 2537              	.LASF57:
 2538 0179 5F656D65 		.ascii	"_emergency\000"
 2538      7267656E 
 2538      637900
 2539              	.LASF128:
 2540 0184 73745F64 		.ascii	"st_dev\000"
 2540      657600
ARM GAS  C:\Users\z80\AppData\Local\Temp\ccenAslK.s 			page 47


 2541              	.LASF7:
 2542 018b 73697A65 		.ascii	"size_t\000"
 2542      5F7400
 2543              	.LASF30:
 2544 0192 5F5F746D 		.ascii	"__tm_sec\000"
 2544      5F736563 
 2544      00
 2545              	.LASF37:
 2546 019b 5F5F746D 		.ascii	"__tm_yday\000"
 2546      5F796461 
 2546      7900
 2547              	.LASF56:
 2548 01a5 5F696E63 		.ascii	"_inc\000"
 2548      00
 2549              	.LASF45:
 2550 01aa 5F696E64 		.ascii	"_ind\000"
 2550      00
 2551              	.LASF133:
 2552 01af 73745F67 		.ascii	"st_gid\000"
 2552      696400
 2553              	.LASF24:
 2554 01b6 5F6E6578 		.ascii	"_next\000"
 2554      7400
 2555              	.LASF130:
 2556 01bc 73745F6D 		.ascii	"st_mode\000"
 2556      6F646500 
 2557              	.LASF115:
 2558 01c4 5F6D6273 		.ascii	"_mbsrtowcs_state\000"
 2558      72746F77 
 2558      63735F73 
 2558      74617465 
 2558      00
 2559              	.LASF131:
 2560 01d5 73745F6E 		.ascii	"st_nlink\000"
 2560      6C696E6B 
 2560      00
 2561              	.LASF152:
 2562 01de 5F667374 		.ascii	"_fstat_r\000"
 2562      61745F72 
 2562      00
 2563              	.LASF151:
 2564 01e7 696E6372 		.ascii	"incr\000"
 2564      00
 2565              	.LASF19:
 2566 01ec 5F5F7661 		.ascii	"__value\000"
 2566      6C756500 
 2567              	.LASF104:
 2568 01f4 5F703573 		.ascii	"_p5s\000"
 2568      00
 2569              	.LASF117:
 2570 01f9 5F776373 		.ascii	"_wcsrtombs_state\000"
 2570      72746F6D 
 2570      62735F73 
 2570      74617465 
 2570      00
 2571              	.LASF108:
 2572 020a 5F6D626C 		.ascii	"_mblen_state\000"
ARM GAS  C:\Users\z80\AppData\Local\Temp\ccenAslK.s 			page 48


 2572      656E5F73 
 2572      74617465 
 2572      00
 2573              	.LASF91:
 2574 0217 63686172 		.ascii	"char\000"
 2574      00
 2575              	.LASF33:
 2576 021c 5F5F746D 		.ascii	"__tm_mday\000"
 2576      5F6D6461 
 2576      7900
 2577              	.LASF155:
 2578 0226 433A5C70 		.ascii	"C:\\projects\\digitizer.git\\firmware\\digitizer\000"
 2578      726F6A65 
 2578      6374735C 
 2578      64696769 
 2578      74697A65 
 2579              	.LASF68:
 2580 0253 5F736967 		.ascii	"_sig_func\000"
 2580      5F66756E 
 2580      6300
 2581              	.LASF114:
 2582 025d 5F6D6272 		.ascii	"_mbrtowc_state\000"
 2582      746F7763 
 2582      5F737461 
 2582      746500
 2583              	.LASF132:
 2584 026c 73745F75 		.ascii	"st_uid\000"
 2584      696400
 2585              	.LASF21:
 2586 0273 5F666C6F 		.ascii	"_flock_t\000"
 2586      636B5F74 
 2586      00
 2587              	.LASF136:
 2588 027c 73745F61 		.ascii	"st_atime\000"
 2588      74696D65 
 2588      00
 2589              	.LASF145:
 2590 0285 66696C65 		.ascii	"file\000"
 2590      00
 2591              	.LASF16:
 2592 028a 5F5F7763 		.ascii	"__wch\000"
 2592      6800
 2593              	.LASF95:
 2594 0290 5F696F62 		.ascii	"_iobs\000"
 2594      7300
 2595              	.LASF47:
 2596 0296 5F6F6E5F 		.ascii	"_on_exit_args_ptr\000"
 2596      65786974 
 2596      5F617267 
 2596      735F7074 
 2596      7200
 2597              	.LASF118:
 2598 02a8 74696D65 		.ascii	"time_t\000"
 2598      5F7400
 2599              	.LASF83:
 2600 02af 5F636C6F 		.ascii	"_close\000"
 2600      736500
ARM GAS  C:\Users\z80\AppData\Local\Temp\ccenAslK.s 			page 49


 2601              	.LASF58:
 2602 02b6 5F5F7364 		.ascii	"__sdidinit\000"
 2602      6964696E 
 2602      697400
 2603              	.LASF129:
 2604 02c1 73745F69 		.ascii	"st_ino\000"
 2604      6E6F00
 2605              	.LASF53:
 2606 02c8 5F737464 		.ascii	"_stdin\000"
 2606      696E00
 2607              	.LASF62:
 2608 02cf 5F67616D 		.ascii	"_gamma_signgam\000"
 2608      6D615F73 
 2608      69676E67 
 2608      616D00
 2609              	.LASF5:
 2610 02de 6C6F6E67 		.ascii	"long long int\000"
 2610      206C6F6E 
 2610      6720696E 
 2610      7400
 2611              	.LASF49:
 2612 02ec 5F626173 		.ascii	"_base\000"
 2612      6500
 2613              	.LASF105:
 2614 02f2 5F667265 		.ascii	"_freelist\000"
 2614      656C6973 
 2614      7400
 2615              	.LASF11:
 2616 02fc 5F5F6465 		.ascii	"__dev_t\000"
 2616      765F7400 
 2617              	.LASF98:
 2618 0304 5F6D756C 		.ascii	"_mult\000"
 2618      7400
 2619              	.LASF22:
 2620 030a 5F5F554C 		.ascii	"__ULong\000"
 2620      6F6E6700 
 2621              	.LASF154:
 2622 0312 2E2E2F63 		.ascii	"../chibios_2.4.x/os/various/syscalls.c\000"
 2622      68696269 
 2622      6F735F32 
 2622      2E342E78 
 2622      2F6F732F 
 2623              	.LASF116:
 2624 0339 5F776372 		.ascii	"_wcrtomb_state\000"
 2624      746F6D62 
 2624      5F737461 
 2624      746500
 2625              	.LASF123:
 2626 0348 7569645F 		.ascii	"uid_t\000"
 2626      7400
 2627              	.LASF122:
 2628 034e 6465765F 		.ascii	"dev_t\000"
 2628      7400
 2629              	.LASF76:
 2630 0354 5F66696C 		.ascii	"_file\000"
 2630      6500
 2631              	.LASF61:
ARM GAS  C:\Users\z80\AppData\Local\Temp\ccenAslK.s 			page 50


 2632 035a 5F5F636C 		.ascii	"__cleanup\000"
 2632      65616E75 
 2632      7000
 2633              	.LASF20:
 2634 0364 5F6D6273 		.ascii	"_mbstate_t\000"
 2634      74617465 
 2634      5F7400
 2635              	.LASF101:
 2636 036f 5F6D7072 		.ascii	"_mprec\000"
 2636      656300
 2637              	.LASF38:
 2638 0376 5F5F746D 		.ascii	"__tm_isdst\000"
 2638      5F697364 
 2638      737400
 2639              	.LASF137:
 2640 0381 73745F73 		.ascii	"st_spare1\000"
 2640      70617265 
 2640      3100
 2641              	.LASF139:
 2642 038b 73745F73 		.ascii	"st_spare2\000"
 2642      70617265 
 2642      3200
 2643              	.LASF141:
 2644 0395 73745F73 		.ascii	"st_spare3\000"
 2644      70617265 
 2644      3300
 2645              	.LASF144:
 2646 039f 73745F73 		.ascii	"st_spare4\000"
 2646      70617265 
 2646      3400
 2647              	.LASF149:
 2648 03a9 5F636C6F 		.ascii	"_close_r\000"
 2648      73655F72 
 2648      00
 2649              	.LASF34:
 2650 03b2 5F5F746D 		.ascii	"__tm_mon\000"
 2650      5F6D6F6E 
 2650      00
 2651              	.LASF147:
 2652 03bb 5F6C7365 		.ascii	"_lseek_r\000"
 2652      656B5F72 
 2652      00
 2653              	.LASF13:
 2654 03c4 5F5F6769 		.ascii	"__gid_t\000"
 2654      645F7400 
 2655              	.LASF69:
 2656 03cc 5F617465 		.ascii	"_atexit0\000"
 2656      78697430 
 2656      00
 2657              	.LASF124:
 2658 03d5 6769645F 		.ascii	"gid_t\000"
 2658      7400
 2659              	.LASF44:
 2660 03db 5F617465 		.ascii	"_atexit\000"
 2660      78697400 
 2661              	.LASF89:
 2662 03e3 5F6D6273 		.ascii	"_mbstate\000"
ARM GAS  C:\Users\z80\AppData\Local\Temp\ccenAslK.s 			page 51


 2662      74617465 
 2662      00
 2663              	.LASF3:
 2664 03ec 73686F72 		.ascii	"short int\000"
 2664      7420696E 
 2664      7400
 2665              	.LASF10:
 2666 03f6 6C6F6E67 		.ascii	"long int\000"
 2666      20696E74 
 2666      00
 2667              	.LASF26:
 2668 03ff 5F736967 		.ascii	"_sign\000"
 2668      6E00
 2669              	.LASF60:
 2670 0405 5F637572 		.ascii	"_current_locale\000"
 2670      72656E74 
 2670      5F6C6F63 
 2670      616C6500 
 2671              	.LASF78:
 2672 0415 5F646174 		.ascii	"_data\000"
 2672      6100
 2673              	.LASF17:
 2674 041b 5F5F7763 		.ascii	"__wchb\000"
 2674      686200
 2675              	.LASF35:
 2676 0422 5F5F746D 		.ascii	"__tm_year\000"
 2676      5F796561 
 2676      7200
 2677              	.LASF106:
 2678 042c 5F6D6973 		.ascii	"_misc_reent\000"
 2678      635F7265 
 2678      656E7400 
 2679              	.LASF66:
 2680 0438 5F6C6F63 		.ascii	"_localtime_buf\000"
 2680      616C7469 
 2680      6D655F62 
 2680      756600
 2681              	.LASF12:
 2682 0447 5F5F7569 		.ascii	"__uid_t\000"
 2682      645F7400 
 2683              	.LASF140:
 2684 044f 73745F63 		.ascii	"st_ctime\000"
 2684      74696D65 
 2684      00
 2685              	.LASF63:
 2686 0458 5F637674 		.ascii	"_cvtlen\000"
 2686      6C656E00 
 2687              	.LASF25:
 2688 0460 5F6D6178 		.ascii	"_maxwds\000"
 2688      77647300 
 2689              	.LASF111:
 2690 0468 5F6C3634 		.ascii	"_l64a_buf\000"
 2690      615F6275 
 2690      6600
 2691              	.LASF59:
 2692 0472 5F637572 		.ascii	"_current_category\000"
 2692      72656E74 
ARM GAS  C:\Users\z80\AppData\Local\Temp\ccenAslK.s 			page 52


 2692      5F636174 
 2692      65676F72 
 2692      7900
 2693              	.LASF119:
 2694 0484 63616464 		.ascii	"caddr_t\000"
 2694      725F7400 
 2695              	.LASF86:
 2696 048c 5F626C6B 		.ascii	"_blksize\000"
 2696      73697A65 
 2696      00
 2697              	.LASF29:
 2698 0495 5F5F746D 		.ascii	"__tm\000"
 2698      00
 2699              	.LASF88:
 2700 049a 5F6C6F63 		.ascii	"_lock\000"
 2700      6B00
 2701              	.LASF23:
 2702 04a0 6C6F6E67 		.ascii	"long unsigned int\000"
 2702      20756E73 
 2702      69676E65 
 2702      6420696E 
 2702      7400
 2703              	.LASF94:
 2704 04b2 5F6E696F 		.ascii	"_niobs\000"
 2704      627300
 2705              	.LASF15:
 2706 04b9 77696E74 		.ascii	"wint_t\000"
 2706      5F7400
 2707              	.LASF41:
 2708 04c0 5F64736F 		.ascii	"_dso_handle\000"
 2708      5F68616E 
 2708      646C6500 
 2709              	.LASF153:
 2710 04cc 474E5520 		.ascii	"GNU C 4.6.3\000"
 2710      4320342E 
 2710      362E3300 
 2711              	.LASF126:
 2712 04d8 6E6C696E 		.ascii	"nlink_t\000"
 2712      6B5F7400 
 2713              	.LASF64:
 2714 04e0 5F637674 		.ascii	"_cvtbuf\000"
 2714      62756600 
 2715              	.LASF2:
 2716 04e8 756E7369 		.ascii	"unsigned char\000"
 2716      676E6564 
 2716      20636861 
 2716      7200
 2717              	.LASF112:
 2718 04f6 5F676574 		.ascii	"_getdate_err\000"
 2718      64617465 
 2718      5F657272 
 2718      00
 2719              	.LASF99:
 2720 0503 5F616464 		.ascii	"_add\000"
 2720      00
 2721              	.LASF48:
 2722 0508 5F5F7362 		.ascii	"__sbuf\000"
ARM GAS  C:\Users\z80\AppData\Local\Temp\ccenAslK.s 			page 53


 2722      756600
 2723              	.LASF135:
 2724 050f 73745F73 		.ascii	"st_size\000"
 2724      697A6500 
 2725              	.LASF93:
 2726 0517 5F676C75 		.ascii	"_glue\000"
 2726      6500
 2727              	.LASF70:
 2728 051d 5F5F7367 		.ascii	"__sglue\000"
 2728      6C756500 
 2729              	.LASF107:
 2730 0525 5F737472 		.ascii	"_strtok_last\000"
 2730      746F6B5F 
 2730      6C617374 
 2730      00
 2731              	.LASF110:
 2732 0532 5F6D6274 		.ascii	"_mbtowc_state\000"
 2732      6F77635F 
 2732      73746174 
 2732      6500
 2733              	.LASF40:
 2734 0540 5F666E61 		.ascii	"_fnargs\000"
 2734      72677300 
 2735              	.LASF1:
 2736 0548 7369676E 		.ascii	"signed char\000"
 2736      65642063 
 2736      68617200 
 2737              	.LASF125:
 2738 0554 6D6F6465 		.ascii	"mode_t\000"
 2738      5F7400
 2739              	.LASF51:
 2740 055b 5F726565 		.ascii	"_reent\000"
 2740      6E7400
 2741              	.LASF121:
 2742 0562 6F66665F 		.ascii	"off_t\000"
 2742      7400
 2743              	.LASF4:
 2744 0568 73686F72 		.ascii	"short unsigned int\000"
 2744      7420756E 
 2744      7369676E 
 2744      65642069 
 2744      6E7400
 2745              	.LASF42:
 2746 057b 5F666E74 		.ascii	"_fntypes\000"
 2746      79706573 
 2746      00
 2747              	.LASF50:
 2748 0584 5F73697A 		.ascii	"_size\000"
 2748      6500
 2749              	.LASF9:
 2750 058a 5F6F6666 		.ascii	"_off_t\000"
 2750      5F7400
 2751              	.LASF85:
 2752 0591 5F6E6275 		.ascii	"_nbuf\000"
 2752      6600
 2753              	.LASF134:
 2754 0597 73745F72 		.ascii	"st_rdev\000"
ARM GAS  C:\Users\z80\AppData\Local\Temp\ccenAslK.s 			page 54


 2754      64657600 
 2755              	.LASF90:
 2756 059f 5F666C61 		.ascii	"_flags2\000"
 2756      67733200 
 2757              	.LASF43:
 2758 05a7 5F69735F 		.ascii	"_is_cxa\000"
 2758      63786100 
 2759              	.LASF97:
 2760 05af 5F736565 		.ascii	"_seed\000"
 2760      6400
 2761              	.LASF100:
 2762 05b5 5F72616E 		.ascii	"_rand_next\000"
 2762      645F6E65 
 2762      787400
 2763              	.LASF82:
 2764 05c0 5F736565 		.ascii	"_seek\000"
 2764      6B00
 2765              	.LASF55:
 2766 05c6 5F737464 		.ascii	"_stderr\000"
 2766      65727200 
 2767              	.LASF84:
 2768 05ce 5F756275 		.ascii	"_ubuf\000"
 2768      6600
 2769              		.ident	"GCC: (Sourcery CodeBench Lite 2012.03-56) 4.6.3"
ARM GAS  C:\Users\z80\AppData\Local\Temp\ccenAslK.s 			page 55


DEFINED SYMBOLS
                            *ABS*:00000000 syscalls.c
C:\Users\z80\AppData\Local\Temp\ccenAslK.s:19     .text._read_r:00000000 $t
C:\Users\z80\AppData\Local\Temp\ccenAslK.s:25     .text._read_r:00000000 _read_r
C:\Users\z80\AppData\Local\Temp\ccenAslK.s:54     .text._lseek_r:00000000 $t
C:\Users\z80\AppData\Local\Temp\ccenAslK.s:60     .text._lseek_r:00000000 _lseek_r
C:\Users\z80\AppData\Local\Temp\ccenAslK.s:84     .text._write_r:00000000 $t
C:\Users\z80\AppData\Local\Temp\ccenAslK.s:90     .text._write_r:00000000 _write_r
C:\Users\z80\AppData\Local\Temp\ccenAslK.s:114    .text._close_r:00000000 $t
C:\Users\z80\AppData\Local\Temp\ccenAslK.s:120    .text._close_r:00000000 _close_r
C:\Users\z80\AppData\Local\Temp\ccenAslK.s:142    .rodata:00000000 $d
C:\Users\z80\AppData\Local\Temp\ccenAslK.s:143    .rodata:00000000 .LC0
C:\Users\z80\AppData\Local\Temp\ccenAslK.s:146    .text._sbrk_r:00000000 $t
C:\Users\z80\AppData\Local\Temp\ccenAslK.s:152    .text._sbrk_r:00000000 _sbrk_r
C:\Users\z80\AppData\Local\Temp\ccenAslK.s:204    .text._fstat_r:00000000 $t
C:\Users\z80\AppData\Local\Temp\ccenAslK.s:210    .text._fstat_r:00000000 _fstat_r
C:\Users\z80\AppData\Local\Temp\ccenAslK.s:248    .text._isatty_r:00000000 $t
C:\Users\z80\AppData\Local\Temp\ccenAslK.s:254    .text._isatty_r:00000000 _isatty_r
                     .debug_frame:00000010 $d

UNDEFINED SYMBOLS
chDbgPanic
chCoreAlloc
memset
