ARM GAS  C:\Users\z80\AppData\Local\Temp\cclZliZY.s 			page 1


   1              		.syntax unified
   2              		.cpu cortex-m3
   3              		.fpu softvfp
   4              		.eabi_attribute 20, 1
   5              		.eabi_attribute 21, 1
   6              		.eabi_attribute 23, 3
   7              		.eabi_attribute 24, 1
   8              		.eabi_attribute 25, 1
   9              		.eabi_attribute 26, 1
  10              		.eabi_attribute 30, 2
  11              		.eabi_attribute 34, 1
  12              		.eabi_attribute 18, 4
  13              		.thumb
  14              		.file	"testmbox.c"
  15              		.text
  16              	.Ltext0:
  17              		.cfi_sections	.debug_frame
  18              		.section	.text.mbox1_setup,"ax",%progbits
  19              		.align	2
  20              		.p2align 4,,15
  21              		.thumb
  22              		.thumb_func
  23              		.type	mbox1_setup, %function
  24              	mbox1_setup:
  25              	.LFB7:
  26              		.file 1 "../chibios_2.4.x/test/testmbox.c"
  27              		.loc 1 82 0
  28              		.cfi_startproc
  29              		@ args = 0, pretend = 0, frame = 0
  30              		@ frame_needed = 0, uses_anonymous_args = 0
  31              		@ link register save eliminated.
  32              		.loc 1 84 0
  33 0000 40F20000 		movw	r0, #:lower16:.LANCHOR0
  34 0004 40F20001 		movw	r1, #:lower16:test
  35 0008 C0F20000 		movt	r0, #:upper16:.LANCHOR0
  36 000c C0F20001 		movt	r1, #:upper16:test
  37 0010 0522     		movs	r2, #5
  38              		.loc 1 85 0
  39              		.loc 1 84 0
  40 0012 FFF7FEBF 		b	chMBInit
  41              		.cfi_endproc
  42              	.LFE7:
  43              		.size	mbox1_setup, .-mbox1_setup
  44 0016 00BFAFF3 		.section	.text.mbox1_execute,"ax",%progbits
  44      0080AFF3 
  44      0080
  45              		.align	2
  46              		.p2align 4,,15
  47              		.thumb
  48              		.thumb_func
  49              		.type	mbox1_execute, %function
  50              	mbox1_execute:
  51              	.LFB8:
  52              		.loc 1 87 0
  53              		.cfi_startproc
  54              		@ args = 0, pretend = 0, frame = 8
  55              		@ frame_needed = 0, uses_anonymous_args = 0
ARM GAS  C:\Users\z80\AppData\Local\Temp\cclZliZY.s 			page 2


  56 0000 70B5     		push	{r4, r5, r6, lr}
  57              	.LCFI0:
  58              		.cfi_def_cfa_offset 16
  59              		.cfi_offset 14, -4
  60              		.cfi_offset 6, -8
  61              		.cfi_offset 5, -12
  62              		.cfi_offset 4, -16
  63              		.loc 1 94 0
  64 0002 40F20004 		movw	r4, #:lower16:.LANCHOR0
  65 0006 C0F20004 		movt	r4, #:upper16:.LANCHOR0
  66 000a 636A     		ldr	r3, [r4, #36]
  67 000c 0120     		movs	r0, #1
  68 000e A3F10502 		sub	r2, r3, #5
  69 0012 5142     		rsbs	r1, r2, #0
  70              		.loc 1 87 0
  71 0014 82B0     		sub	sp, sp, #8
  72              	.LCFI1:
  73              		.cfi_def_cfa_offset 24
  74              		.loc 1 94 0
  75 0016 41EB0201 		adc	r1, r1, r2
  76 001a FFF7FEFF 		bl	_test_assert
  77 001e 0028     		cmp	r0, #0
  78 0020 45D1     		bne	.L2
  79              		.loc 1 100 0
  80 0022 4221     		movs	r1, #66
  81 0024 2046     		mov	r0, r4
  82 0026 4FF0FF32 		mov	r2, #-1
  83 002a FFF7FEFF 		bl	chMBPost
  84              	.LVL0:
  85              		.loc 1 101 0
  86 002e D0F10101 		rsbs	r1, r0, #1
  87 0032 38BF     		it	cc
  88 0034 0021     		movcc	r1, #0
  89 0036 0220     		movs	r0, #2
  90              	.LVL1:
  91 0038 FFF7FEFF 		bl	_test_assert
  92 003c B8BB     		cbnz	r0, .L2
  93              	.LVL2:
  94              		.loc 1 100 0
  95 003e 4321     		movs	r1, #67
  96 0040 2046     		mov	r0, r4
  97 0042 4FF0FF32 		mov	r2, #-1
  98 0046 FFF7FEFF 		bl	chMBPost
  99              	.LVL3:
 100              		.loc 1 101 0
 101 004a D0F10101 		rsbs	r1, r0, #1
 102 004e 38BF     		it	cc
 103 0050 0021     		movcc	r1, #0
 104 0052 0220     		movs	r0, #2
 105              	.LVL4:
 106 0054 FFF7FEFF 		bl	_test_assert
 107 0058 48BB     		cbnz	r0, .L2
 108              	.LVL5:
 109              		.loc 1 100 0
 110 005a 4421     		movs	r1, #68
 111 005c 2046     		mov	r0, r4
 112 005e 4FF0FF32 		mov	r2, #-1
ARM GAS  C:\Users\z80\AppData\Local\Temp\cclZliZY.s 			page 3


 113 0062 FFF7FEFF 		bl	chMBPost
 114              	.LVL6:
 115              		.loc 1 101 0
 116 0066 D0F10101 		rsbs	r1, r0, #1
 117 006a 38BF     		it	cc
 118 006c 0021     		movcc	r1, #0
 119 006e 0220     		movs	r0, #2
 120              	.LVL7:
 121 0070 FFF7FEFF 		bl	_test_assert
 122 0074 D8B9     		cbnz	r0, .L2
 123              	.LVL8:
 124              		.loc 1 100 0
 125 0076 4521     		movs	r1, #69
 126 0078 2046     		mov	r0, r4
 127 007a 4FF0FF32 		mov	r2, #-1
 128 007e FFF7FEFF 		bl	chMBPost
 129              	.LVL9:
 130              		.loc 1 101 0
 131 0082 D0F10101 		rsbs	r1, r0, #1
 132 0086 38BF     		it	cc
 133 0088 0021     		movcc	r1, #0
 134 008a 0220     		movs	r0, #2
 135              	.LVL10:
 136 008c FFF7FEFF 		bl	_test_assert
 137 0090 68B9     		cbnz	r0, .L2
 138              	.LVL11:
 139              		.loc 1 103 0
 140 0092 4121     		movs	r1, #65
 141 0094 2046     		mov	r0, r4
 142 0096 4FF0FF32 		mov	r2, #-1
 143 009a FFF7FEFF 		bl	chMBPostAhead
 144              	.LVL12:
 145              		.loc 1 104 0
 146 009e D0F10101 		rsbs	r1, r0, #1
 147 00a2 38BF     		it	cc
 148 00a4 0021     		movcc	r1, #0
 149 00a6 0320     		movs	r0, #3
 150              	.LVL13:
 151 00a8 FFF7FEFF 		bl	_test_assert
 152 00ac 08B1     		cbz	r0, .L25
 153              	.LVL14:
 154              	.L2:
 155              		.loc 1 231 0
 156 00ae 02B0     		add	sp, sp, #8
 157 00b0 70BD     		pop	{r4, r5, r6, pc}
 158              	.LVL15:
 159              	.L25:
 160              	.LBB116:
 161              	.LBB117:
 162              		.loc 1 109 0
 163 00b2 5821     		movs	r1, #88
 164 00b4 0122     		movs	r2, #1
 165 00b6 2046     		mov	r0, r4
 166 00b8 FFF7FEFF 		bl	chMBPost
 167              	.LVL16:
 168              		.loc 1 110 0
 169 00bc A0F1FF35 		sub	r5, r0, #-1
ARM GAS  C:\Users\z80\AppData\Local\Temp\cclZliZY.s 			page 4


 170 00c0 6842     		rsbs	r0, r5, #0
 171              	.LVL17:
 172 00c2 40EB0501 		adc	r1, r0, r5
 173 00c6 0420     		movs	r0, #4
 174 00c8 FFF7FEFF 		bl	_test_assert
 175 00cc 0546     		mov	r5, r0
 176              	.LVL18:
 177 00ce 0028     		cmp	r0, #0
 178 00d0 EDD1     		bne	.L2
 179              	.LBB118:
 180              		.loc 1 111 0
 181 00d2 2023     		movs	r3, #32
 182              	.LVL19:
 183              	@ 111 "../chibios_2.4.x/test/testmbox.c" 1
 184 00d4 83F31188 		msr     BASEPRI, r3
 185              	@ 0 "" 2
 186              	.LVL20:
 187              		.thumb
 188              	.LBE118:
 189 00d8 FFF7FEFF 		bl	dbg_check_lock
 190              	.LVL21:
 191              		.loc 1 112 0
 192 00dc 5821     		movs	r1, #88
 193 00de 2046     		mov	r0, r4
 194 00e0 FFF7FEFF 		bl	chMBPostI
 195 00e4 0646     		mov	r6, r0
 196              	.LVL22:
 197              		.loc 1 113 0
 198 00e6 FFF7FEFF 		bl	dbg_check_unlock
 199              	.LVL23:
 200              	.LBB119:
 201 00ea 2B46     		mov	r3, r5
 202              	.LVL24:
 203              	@ 113 "../chibios_2.4.x/test/testmbox.c" 1
 204 00ec 83F31188 		msr     BASEPRI, r3
 205              	@ 0 "" 2
 206              	.LVL25:
 207              		.thumb
 208              	.LBE119:
 209              		.loc 1 114 0
 210 00f0 A6F1FF31 		sub	r1, r6, #-1
 211 00f4 0520     		movs	r0, #5
 212 00f6 D1F1000C 		rsbs	ip, r1, #0
 213 00fa 4CEB0101 		adc	r1, ip, r1
 214 00fe FFF7FEFF 		bl	_test_assert
 215              	.LVL26:
 216 0102 0028     		cmp	r0, #0
 217 0104 D3D1     		bne	.L2
 218              		.loc 1 115 0
 219 0106 5821     		movs	r1, #88
 220 0108 0122     		movs	r2, #1
 221 010a 2046     		mov	r0, r4
 222 010c FFF7FEFF 		bl	chMBPostAhead
 223              	.LVL27:
 224              		.loc 1 116 0
 225 0110 A0F1FF33 		sub	r3, r0, #-1
 226 0114 5A42     		rsbs	r2, r3, #0
ARM GAS  C:\Users\z80\AppData\Local\Temp\cclZliZY.s 			page 5


 227 0116 42EB0301 		adc	r1, r2, r3
 228 011a 0620     		movs	r0, #6
 229              	.LVL28:
 230 011c FFF7FEFF 		bl	_test_assert
 231              	.LVL29:
 232 0120 0546     		mov	r5, r0
 233 0122 0028     		cmp	r0, #0
 234 0124 C3D1     		bne	.L2
 235              	.LBB120:
 236              		.loc 1 117 0
 237 0126 2023     		movs	r3, #32
 238              	.LVL30:
 239              	@ 117 "../chibios_2.4.x/test/testmbox.c" 1
 240 0128 83F31188 		msr     BASEPRI, r3
 241              	@ 0 "" 2
 242              	.LVL31:
 243              		.thumb
 244              	.LBE120:
 245 012c FFF7FEFF 		bl	dbg_check_lock
 246              	.LVL32:
 247              		.loc 1 118 0
 248 0130 5821     		movs	r1, #88
 249 0132 2046     		mov	r0, r4
 250 0134 FFF7FEFF 		bl	chMBPostAheadI
 251 0138 0646     		mov	r6, r0
 252              	.LVL33:
 253              		.loc 1 119 0
 254 013a FFF7FEFF 		bl	dbg_check_unlock
 255              	.LVL34:
 256              	.LBB121:
 257 013e 2B46     		mov	r3, r5
 258              	.LVL35:
 259              	@ 119 "../chibios_2.4.x/test/testmbox.c" 1
 260 0140 83F31188 		msr     BASEPRI, r3
 261              	@ 0 "" 2
 262              	.LVL36:
 263              		.thumb
 264              	.LBE121:
 265              		.loc 1 120 0
 266 0144 A6F1FF31 		sub	r1, r6, #-1
 267 0148 0720     		movs	r0, #7
 268 014a D1F1000C 		rsbs	ip, r1, #0
 269 014e 4CEB0101 		adc	r1, ip, r1
 270 0152 FFF7FEFF 		bl	_test_assert
 271              	.LVL37:
 272 0156 0028     		cmp	r0, #0
 273 0158 A9D1     		bne	.L2
 274              	.LBB122:
 275              		.loc 1 125 0
 276 015a 2023     		movs	r3, #32
 277              	.LVL38:
 278              	@ 125 "../chibios_2.4.x/test/testmbox.c" 1
 279 015c 83F31188 		msr     BASEPRI, r3
 280              	@ 0 "" 2
 281              	.LVL39:
 282              		.thumb
 283              	.LBE122:
ARM GAS  C:\Users\z80\AppData\Local\Temp\cclZliZY.s 			page 6


 284 0160 FFF7FEFF 		bl	dbg_check_lock
 285              	.LVL40:
 286 0164 646A     		ldr	r4, [r4, #36]
 287 0166 0820     		movs	r0, #8
 288 0168 D4F10101 		rsbs	r1, r4, #1
 289 016c 38BF     		it	cc
 290 016e 0021     		movcc	r1, #0
 291 0170 FFF7FEFF 		bl	_test_assert
 292 0174 40F20004 		movw	r4, #:lower16:.LANCHOR0
 293 0178 0646     		mov	r6, r0
 294              	.LVL41:
 295 017a C0F20004 		movt	r4, #:upper16:.LANCHOR0
 296 017e 0028     		cmp	r0, #0
 297 0180 40F02F83 		bne	.L19
 298 0184 FFF7FEFF 		bl	dbg_check_unlock
 299              	.LBB123:
 300 0188 3346     		mov	r3, r6
 301              	.LVL42:
 302              	@ 125 "../chibios_2.4.x/test/testmbox.c" 1
 303 018a 83F31188 		msr     BASEPRI, r3
 304              	@ 0 "" 2
 305              	.LVL43:
 306              		.thumb
 307              	.LBE123:
 308              	.LBB124:
 309              		.loc 1 126 0
 310 018e 2023     		movs	r3, #32
 311              	.LVL44:
 312              	@ 126 "../chibios_2.4.x/test/testmbox.c" 1
 313 0190 83F31188 		msr     BASEPRI, r3
 314              	@ 0 "" 2
 315              	.LVL45:
 316              		.thumb
 317              	.LBE124:
 318 0194 FFF7FEFF 		bl	dbg_check_lock
 319              	.LVL46:
 320 0198 A369     		ldr	r3, [r4, #24]
 321 019a 0920     		movs	r0, #9
 322 019c A3F10505 		sub	r5, r3, #5
 323 01a0 6A42     		rsbs	r2, r5, #0
 324 01a2 42EB0501 		adc	r1, r2, r5
 325 01a6 FFF7FEFF 		bl	_test_assert
 326 01aa 0546     		mov	r5, r0
 327 01ac 0028     		cmp	r0, #0
 328 01ae 40F01E83 		bne	.L23
 329 01b2 FFF7FEFF 		bl	dbg_check_unlock
 330              	.LBB125:
 331 01b6 2B46     		mov	r3, r5
 332              	.LVL47:
 333              	@ 126 "../chibios_2.4.x/test/testmbox.c" 1
 334 01b8 83F31188 		msr     BASEPRI, r3
 335              	@ 0 "" 2
 336              	.LVL48:
 337              		.thumb
 338              	.LBE125:
 339              	.LBB126:
 340              		.loc 1 127 0
ARM GAS  C:\Users\z80\AppData\Local\Temp\cclZliZY.s 			page 7


 341 01bc 2023     		movs	r3, #32
 342              	.LVL49:
 343              	@ 127 "../chibios_2.4.x/test/testmbox.c" 1
 344 01be 83F31188 		msr     BASEPRI, r3
 345              	@ 0 "" 2
 346              	.LVL50:
 347              		.thumb
 348              	.LBE126:
 349 01c2 FFF7FEFF 		bl	dbg_check_lock
 350              	.LVL51:
 351 01c6 E268     		ldr	r2, [r4, #12]
 352 01c8 A368     		ldr	r3, [r4, #8]
 353 01ca 0A20     		movs	r0, #10
 354 01cc D11A     		subs	r1, r2, r3
 355 01ce 4E42     		rsbs	r6, r1, #0
 356 01d0 46EB0101 		adc	r1, r6, r1
 357 01d4 FFF7FEFF 		bl	_test_assert
 358 01d8 0646     		mov	r6, r0
 359 01da 0028     		cmp	r0, #0
 360 01dc 40F00D83 		bne	.L22
 361 01e0 FFF7FEFF 		bl	dbg_check_unlock
 362              	.LBB127:
 363 01e4 3346     		mov	r3, r6
 364              	.LVL52:
 365              	@ 127 "../chibios_2.4.x/test/testmbox.c" 1
 366 01e6 83F31188 		msr     BASEPRI, r3
 367              	@ 0 "" 2
 368              	.LVL53:
 369              		.thumb
 370              	.LBE127:
 371              		.loc 1 133 0
 372 01ea 4FF0FF32 		mov	r2, #-1
 373 01ee 01A9     		add	r1, sp, #4
 374 01f0 2046     		mov	r0, r4
 375 01f2 FFF7FEFF 		bl	chMBFetch
 376              	.LVL54:
 377              		.loc 1 134 0
 378 01f6 D0F10101 		rsbs	r1, r0, #1
 379 01fa 38BF     		it	cc
 380 01fc 0021     		movcc	r1, #0
 381 01fe 0B20     		movs	r0, #11
 382              	.LVL55:
 383 0200 FFF7FEFF 		bl	_test_assert
 384 0204 0028     		cmp	r0, #0
 385 0206 7FF452AF 		bne	.L2
 386              		.loc 1 135 0
 387 020a 9DF80400 		ldrb	r0, [sp, #4]	@ zero_extendqisi2
 388 020e FFF7FEFF 		bl	test_emit_token
 389              	.LVL56:
 390              		.loc 1 133 0
 391 0212 01A9     		add	r1, sp, #4
 392 0214 2046     		mov	r0, r4
 393 0216 4FF0FF32 		mov	r2, #-1
 394 021a FFF7FEFF 		bl	chMBFetch
 395              	.LVL57:
 396              		.loc 1 134 0
 397 021e D0F10101 		rsbs	r1, r0, #1
ARM GAS  C:\Users\z80\AppData\Local\Temp\cclZliZY.s 			page 8


 398 0222 38BF     		it	cc
 399 0224 0021     		movcc	r1, #0
 400 0226 0B20     		movs	r0, #11
 401              	.LVL58:
 402 0228 FFF7FEFF 		bl	_test_assert
 403 022c 0028     		cmp	r0, #0
 404 022e 7FF43EAF 		bne	.L2
 405              		.loc 1 135 0
 406 0232 9DF80400 		ldrb	r0, [sp, #4]	@ zero_extendqisi2
 407 0236 FFF7FEFF 		bl	test_emit_token
 408              	.LVL59:
 409              		.loc 1 133 0
 410 023a 01A9     		add	r1, sp, #4
 411 023c 2046     		mov	r0, r4
 412 023e 4FF0FF32 		mov	r2, #-1
 413 0242 FFF7FEFF 		bl	chMBFetch
 414              	.LVL60:
 415              		.loc 1 134 0
 416 0246 D0F10101 		rsbs	r1, r0, #1
 417 024a 38BF     		it	cc
 418 024c 0021     		movcc	r1, #0
 419 024e 0B20     		movs	r0, #11
 420              	.LVL61:
 421 0250 FFF7FEFF 		bl	_test_assert
 422 0254 0028     		cmp	r0, #0
 423 0256 7FF42AAF 		bne	.L2
 424              		.loc 1 135 0
 425 025a 9DF80400 		ldrb	r0, [sp, #4]	@ zero_extendqisi2
 426 025e FFF7FEFF 		bl	test_emit_token
 427              	.LVL62:
 428              		.loc 1 133 0
 429 0262 01A9     		add	r1, sp, #4
 430 0264 2046     		mov	r0, r4
 431 0266 4FF0FF32 		mov	r2, #-1
 432 026a FFF7FEFF 		bl	chMBFetch
 433              	.LVL63:
 434              		.loc 1 134 0
 435 026e D0F10101 		rsbs	r1, r0, #1
 436 0272 38BF     		it	cc
 437 0274 0021     		movcc	r1, #0
 438 0276 0B20     		movs	r0, #11
 439              	.LVL64:
 440 0278 FFF7FEFF 		bl	_test_assert
 441 027c 0028     		cmp	r0, #0
 442 027e 7FF416AF 		bne	.L2
 443              		.loc 1 135 0
 444 0282 9DF80400 		ldrb	r0, [sp, #4]	@ zero_extendqisi2
 445 0286 FFF7FEFF 		bl	test_emit_token
 446              	.LVL65:
 447              		.loc 1 133 0
 448 028a 01A9     		add	r1, sp, #4
 449 028c 2046     		mov	r0, r4
 450 028e 4FF0FF32 		mov	r2, #-1
 451 0292 FFF7FEFF 		bl	chMBFetch
 452              	.LVL66:
 453              		.loc 1 134 0
 454 0296 D0F10101 		rsbs	r1, r0, #1
ARM GAS  C:\Users\z80\AppData\Local\Temp\cclZliZY.s 			page 9


 455 029a 38BF     		it	cc
 456 029c 0021     		movcc	r1, #0
 457 029e 0B20     		movs	r0, #11
 458              	.LVL67:
 459 02a0 FFF7FEFF 		bl	_test_assert
 460 02a4 0028     		cmp	r0, #0
 461 02a6 7FF402AF 		bne	.L2
 462              		.loc 1 135 0
 463 02aa 9DF80400 		ldrb	r0, [sp, #4]	@ zero_extendqisi2
 464 02ae FFF7FEFF 		bl	test_emit_token
 465              	.LVL68:
 466              		.loc 1 137 0
 467 02b2 40F20001 		movw	r1, #:lower16:.LC0
 468 02b6 0C20     		movs	r0, #12
 469 02b8 C0F20001 		movt	r1, #:upper16:.LC0
 470 02bc FFF7FEFF 		bl	_test_assert_sequence
 471 02c0 0028     		cmp	r0, #0
 472 02c2 7FF4F4AE 		bne	.L2
 473              		.loc 1 142 0
 474 02c6 4721     		movs	r1, #71
 475 02c8 2046     		mov	r0, r4
 476 02ca 4FF0FF32 		mov	r2, #-1
 477 02ce FFF7FEFF 		bl	chMBPost
 478              	.LVL69:
 479              		.loc 1 143 0
 480 02d2 D0F10101 		rsbs	r1, r0, #1
 481 02d6 38BF     		it	cc
 482 02d8 0021     		movcc	r1, #0
 483 02da 0D20     		movs	r0, #13
 484              	.LVL70:
 485 02dc FFF7FEFF 		bl	_test_assert
 486 02e0 0028     		cmp	r0, #0
 487 02e2 7FF4E4AE 		bne	.L2
 488              		.loc 1 144 0
 489 02e6 40F20004 		movw	r4, #:lower16:.LANCHOR0
 490 02ea C0F20004 		movt	r4, #:upper16:.LANCHOR0
 491 02ee 01A9     		add	r1, sp, #4
 492 02f0 2046     		mov	r0, r4
 493 02f2 4FF0FF32 		mov	r2, #-1
 494 02f6 FFF7FEFF 		bl	chMBFetch
 495              	.LVL71:
 496              		.loc 1 145 0
 497 02fa D0F10101 		rsbs	r1, r0, #1
 498 02fe 38BF     		it	cc
 499 0300 0021     		movcc	r1, #0
 500 0302 0E20     		movs	r0, #14
 501              	.LVL72:
 502 0304 FFF7FEFF 		bl	_test_assert
 503 0308 0028     		cmp	r0, #0
 504 030a 7FF4D0AE 		bne	.L2
 505              		.loc 1 146 0
 506 030e 2368     		ldr	r3, [r4, #0]
 507 0310 A268     		ldr	r2, [r4, #8]
 508 0312 0F20     		movs	r0, #15
 509 0314 991A     		subs	r1, r3, r2
 510 0316 D1F1000E 		rsbs	lr, r1, #0
 511 031a 4EEB0101 		adc	r1, lr, r1
ARM GAS  C:\Users\z80\AppData\Local\Temp\cclZliZY.s 			page 10


 512 031e FFF7FEFF 		bl	_test_assert
 513 0322 0028     		cmp	r0, #0
 514 0324 7FF4C3AE 		bne	.L2
 515              		.loc 1 147 0
 516 0328 2268     		ldr	r2, [r4, #0]
 517 032a E368     		ldr	r3, [r4, #12]
 518 032c 1020     		movs	r0, #16
 519 032e D11A     		subs	r1, r2, r3
 520 0330 D1F1000E 		rsbs	lr, r1, #0
 521 0334 4EEB0101 		adc	r1, lr, r1
 522 0338 FFF7FEFF 		bl	_test_assert
 523 033c 0028     		cmp	r0, #0
 524 033e 7FF4B6AE 		bne	.L2
 525              		.loc 1 152 0
 526 0342 0122     		movs	r2, #1
 527 0344 01A9     		add	r1, sp, #4
 528 0346 2046     		mov	r0, r4
 529 0348 FFF7FEFF 		bl	chMBFetch
 530              	.LVL73:
 531              		.loc 1 153 0
 532 034c A0F1FF35 		sub	r5, r0, #-1
 533 0350 6842     		rsbs	r0, r5, #0
 534              	.LVL74:
 535 0352 40EB0501 		adc	r1, r0, r5
 536 0356 1120     		movs	r0, #17
 537 0358 FFF7FEFF 		bl	_test_assert
 538 035c 0546     		mov	r5, r0
 539              	.LVL75:
 540 035e 0028     		cmp	r0, #0
 541 0360 7FF4A5AE 		bne	.L2
 542              	.LBB128:
 543              		.loc 1 154 0
 544 0364 2023     		movs	r3, #32
 545              	.LVL76:
 546              	@ 154 "../chibios_2.4.x/test/testmbox.c" 1
 547 0366 83F31188 		msr     BASEPRI, r3
 548              	@ 0 "" 2
 549              	.LVL77:
 550              		.thumb
 551              	.LBE128:
 552 036a FFF7FEFF 		bl	dbg_check_lock
 553              	.LVL78:
 554              		.loc 1 155 0
 555 036e 01A9     		add	r1, sp, #4
 556 0370 2046     		mov	r0, r4
 557 0372 FFF7FEFF 		bl	chMBFetchI
 558 0376 0646     		mov	r6, r0
 559              	.LVL79:
 560              		.loc 1 156 0
 561 0378 FFF7FEFF 		bl	dbg_check_unlock
 562              	.LVL80:
 563              	.LBB129:
 564 037c 2B46     		mov	r3, r5
 565              	.LVL81:
 566              	@ 156 "../chibios_2.4.x/test/testmbox.c" 1
 567 037e 83F31188 		msr     BASEPRI, r3
 568              	@ 0 "" 2
ARM GAS  C:\Users\z80\AppData\Local\Temp\cclZliZY.s 			page 11


 569              	.LVL82:
 570              		.thumb
 571              	.LBE129:
 572              		.loc 1 157 0
 573 0382 A6F1FF31 		sub	r1, r6, #-1
 574 0386 1220     		movs	r0, #18
 575 0388 D1F1000C 		rsbs	ip, r1, #0
 576 038c 4CEB0101 		adc	r1, ip, r1
 577 0390 FFF7FEFF 		bl	_test_assert
 578              	.LVL83:
 579 0394 0546     		mov	r5, r0
 580 0396 0028     		cmp	r0, #0
 581 0398 7FF489AE 		bne	.L2
 582              	.LBB130:
 583              		.loc 1 162 0
 584 039c 2023     		movs	r3, #32
 585              	.LVL84:
 586              	@ 162 "../chibios_2.4.x/test/testmbox.c" 1
 587 039e 83F31188 		msr     BASEPRI, r3
 588              	@ 0 "" 2
 589              	.LVL85:
 590              		.thumb
 591              	.LBE130:
 592 03a2 FFF7FEFF 		bl	dbg_check_lock
 593              	.LVL86:
 594 03a6 636A     		ldr	r3, [r4, #36]
 595 03a8 1320     		movs	r0, #19
 596 03aa A3F10502 		sub	r2, r3, #5
 597 03ae 5642     		rsbs	r6, r2, #0
 598              	.LVL87:
 599 03b0 46EB0201 		adc	r1, r6, r2
 600 03b4 FFF7FEFF 		bl	_test_assert
 601 03b8 0646     		mov	r6, r0
 602 03ba 0028     		cmp	r0, #0
 603 03bc 40F01D82 		bne	.L22
 604 03c0 FFF7FEFF 		bl	dbg_check_unlock
 605              	.LBB131:
 606 03c4 3346     		mov	r3, r6
 607              	.LVL88:
 608              	@ 162 "../chibios_2.4.x/test/testmbox.c" 1
 609 03c6 83F31188 		msr     BASEPRI, r3
 610              	@ 0 "" 2
 611              	.LVL89:
 612              		.thumb
 613              	.LBE131:
 614              	.LBB132:
 615              		.loc 1 163 0
 616 03ca 2023     		movs	r3, #32
 617              	.LVL90:
 618              	@ 163 "../chibios_2.4.x/test/testmbox.c" 1
 619 03cc 83F31188 		msr     BASEPRI, r3
 620              	@ 0 "" 2
 621              	.LVL91:
 622              		.thumb
 623              	.LBE132:
 624 03d0 FFF7FEFF 		bl	dbg_check_lock
 625              	.LVL92:
ARM GAS  C:\Users\z80\AppData\Local\Temp\cclZliZY.s 			page 12


 626 03d4 A569     		ldr	r5, [r4, #24]
 627 03d6 1420     		movs	r0, #20
 628 03d8 D5F10101 		rsbs	r1, r5, #1
 629 03dc 38BF     		it	cc
 630 03de 0021     		movcc	r1, #0
 631 03e0 FFF7FEFF 		bl	_test_assert
 632 03e4 0546     		mov	r5, r0
 633 03e6 0028     		cmp	r0, #0
 634 03e8 40F00182 		bne	.L23
 635 03ec FFF7FEFF 		bl	dbg_check_unlock
 636              	.LBB133:
 637 03f0 2B46     		mov	r3, r5
 638              	.LVL93:
 639              	@ 163 "../chibios_2.4.x/test/testmbox.c" 1
 640 03f2 83F31188 		msr     BASEPRI, r3
 641              	@ 0 "" 2
 642              	.LVL94:
 643              		.thumb
 644              	.LBE133:
 645              	.LBB134:
 646              		.loc 1 164 0
 647 03f6 2023     		movs	r3, #32
 648              	.LVL95:
 649              	@ 164 "../chibios_2.4.x/test/testmbox.c" 1
 650 03f8 83F31188 		msr     BASEPRI, r3
 651              	@ 0 "" 2
 652              	.LVL96:
 653              		.thumb
 654              	.LBE134:
 655 03fc FFF7FEFF 		bl	dbg_check_lock
 656              	.LVL97:
 657 0400 A668     		ldr	r6, [r4, #8]
 658 0402 E268     		ldr	r2, [r4, #12]
 659 0404 1520     		movs	r0, #21
 660 0406 911B     		subs	r1, r2, r6
 661 0408 D1F1000C 		rsbs	ip, r1, #0
 662 040c 4CEB0101 		adc	r1, ip, r1
 663 0410 FFF7FEFF 		bl	_test_assert
 664 0414 0646     		mov	r6, r0
 665 0416 0028     		cmp	r0, #0
 666 0418 40F0EF81 		bne	.L22
 667 041c FFF7FEFF 		bl	dbg_check_unlock
 668              	.LBB135:
 669 0420 3346     		mov	r3, r6
 670              	.LVL98:
 671              	@ 164 "../chibios_2.4.x/test/testmbox.c" 1
 672 0422 83F31188 		msr     BASEPRI, r3
 673              	@ 0 "" 2
 674              	.LVL99:
 675              		.thumb
 676              	.LBE135:
 677              	.LBB136:
 678              		.loc 1 169 0
 679 0426 2023     		movs	r3, #32
 680              	.LVL100:
 681              	@ 169 "../chibios_2.4.x/test/testmbox.c" 1
 682 0428 83F31188 		msr     BASEPRI, r3
ARM GAS  C:\Users\z80\AppData\Local\Temp\cclZliZY.s 			page 13


 683              	@ 0 "" 2
 684              	.LVL101:
 685              		.thumb
 686              	.LBE136:
 687 042c FFF7FEFF 		bl	dbg_check_lock
 688              	.LVL102:
 689              		.loc 1 170 0
 690 0430 4121     		movs	r1, #65
 691 0432 2046     		mov	r0, r4
 692 0434 FFF7FEFF 		bl	chMBPostI
 693              	.LVL103:
 694              		.loc 1 171 0
 695 0438 D0F10101 		rsbs	r1, r0, #1
 696 043c 38BF     		it	cc
 697 043e 0021     		movcc	r1, #0
 698 0440 1620     		movs	r0, #22
 699              	.LVL104:
 700 0442 FFF7FEFF 		bl	_test_assert
 701 0446 0028     		cmp	r0, #0
 702 0448 7FF431AE 		bne	.L2
 703              		.loc 1 172 0
 704 044c 4221     		movs	r1, #66
 705 044e 2046     		mov	r0, r4
 706 0450 FFF7FEFF 		bl	chMBPostI
 707              	.LVL105:
 708              		.loc 1 173 0
 709 0454 D0F10101 		rsbs	r1, r0, #1
 710 0458 38BF     		it	cc
 711 045a 0021     		movcc	r1, #0
 712 045c 1720     		movs	r0, #23
 713              	.LVL106:
 714 045e FFF7FEFF 		bl	_test_assert
 715 0462 0028     		cmp	r0, #0
 716 0464 7FF423AE 		bne	.L2
 717              		.loc 1 174 0
 718 0468 40F20004 		movw	r4, #:lower16:.LANCHOR0
 719 046c C0F20004 		movt	r4, #:upper16:.LANCHOR0
 720 0470 4321     		movs	r1, #67
 721 0472 2046     		mov	r0, r4
 722 0474 FFF7FEFF 		bl	chMBPostI
 723              	.LVL107:
 724              		.loc 1 175 0
 725 0478 D0F10101 		rsbs	r1, r0, #1
 726 047c 38BF     		it	cc
 727 047e 0021     		movcc	r1, #0
 728 0480 1820     		movs	r0, #24
 729              	.LVL108:
 730 0482 FFF7FEFF 		bl	_test_assert
 731 0486 0028     		cmp	r0, #0
 732 0488 7FF411AE 		bne	.L2
 733              		.loc 1 176 0
 734 048c 4421     		movs	r1, #68
 735 048e 2046     		mov	r0, r4
 736 0490 FFF7FEFF 		bl	chMBPostI
 737              	.LVL109:
 738              		.loc 1 177 0
 739 0494 D0F10101 		rsbs	r1, r0, #1
ARM GAS  C:\Users\z80\AppData\Local\Temp\cclZliZY.s 			page 14


 740 0498 38BF     		it	cc
 741 049a 0021     		movcc	r1, #0
 742 049c 1920     		movs	r0, #25
 743              	.LVL110:
 744 049e FFF7FEFF 		bl	_test_assert
 745 04a2 0546     		mov	r5, r0
 746 04a4 0028     		cmp	r0, #0
 747 04a6 7FF402AE 		bne	.L2
 748              		.loc 1 178 0
 749 04aa 4521     		movs	r1, #69
 750 04ac 2046     		mov	r0, r4
 751 04ae FFF7FEFF 		bl	chMBPostI
 752 04b2 0646     		mov	r6, r0
 753              	.LVL111:
 754              		.loc 1 179 0
 755 04b4 FFF7FEFF 		bl	dbg_check_unlock
 756              	.LVL112:
 757              	.LBB137:
 758 04b8 2B46     		mov	r3, r5
 759              	.LVL113:
 760              	@ 179 "../chibios_2.4.x/test/testmbox.c" 1
 761 04ba 83F31188 		msr     BASEPRI, r3
 762              	@ 0 "" 2
 763              	.LVL114:
 764              		.thumb
 765              	.LBE137:
 766              		.loc 1 180 0
 767 04be 1A20     		movs	r0, #26
 768 04c0 D6F10101 		rsbs	r1, r6, #1
 769 04c4 38BF     		it	cc
 770 04c6 0021     		movcc	r1, #0
 771 04c8 FFF7FEFF 		bl	_test_assert
 772              	.LVL115:
 773 04cc 0028     		cmp	r0, #0
 774 04ce 7FF4EEAD 		bne	.L2
 775              		.loc 1 181 0
 776 04d2 A368     		ldr	r3, [r4, #8]
 777 04d4 E268     		ldr	r2, [r4, #12]
 778 04d6 1B20     		movs	r0, #27
 779 04d8 D11A     		subs	r1, r2, r3
 780 04da 4B42     		rsbs	r3, r1, #0
 781 04dc 43EB0101 		adc	r1, r3, r1
 782 04e0 FFF7FEFF 		bl	_test_assert
 783 04e4 0028     		cmp	r0, #0
 784 04e6 7FF4E2AD 		bne	.L2
 785 04ea 0525     		movs	r5, #5
 786              	.LVL116:
 787              	.L10:
 788              	.LBB138:
 789              		.loc 1 183 0
 790 04ec 2023     		movs	r3, #32
 791              	.LVL117:
 792              	@ 183 "../chibios_2.4.x/test/testmbox.c" 1
 793 04ee 83F31188 		msr     BASEPRI, r3
 794              	@ 0 "" 2
 795              	.LVL118:
 796              		.thumb
ARM GAS  C:\Users\z80\AppData\Local\Temp\cclZliZY.s 			page 15


 797              	.LBE138:
 798              		.loc 1 184 0
 799 04f2 40F20004 		movw	r4, #:lower16:.LANCHOR0
 800 04f6 C0F20004 		movt	r4, #:upper16:.LANCHOR0
 801              		.loc 1 183 0
 802 04fa FFF7FEFF 		bl	dbg_check_lock
 803              	.LVL119:
 804              		.loc 1 184 0
 805 04fe 01A9     		add	r1, sp, #4
 806 0500 2046     		mov	r0, r4
 807 0502 FFF7FEFF 		bl	chMBFetchI
 808 0506 0646     		mov	r6, r0
 809              	.LVL120:
 810              		.loc 1 185 0
 811 0508 FFF7FEFF 		bl	dbg_check_unlock
 812              	.LVL121:
 813              	.LBB139:
 814 050c 0023     		movs	r3, #0
 815              	.LVL122:
 816              	@ 185 "../chibios_2.4.x/test/testmbox.c" 1
 817 050e 83F31188 		msr     BASEPRI, r3
 818              	@ 0 "" 2
 819              	.LVL123:
 820              		.thumb
 821              	.LBE139:
 822              		.loc 1 186 0
 823 0512 F11A     		subs	r1, r6, r3
 824              	.LVL124:
 825 0514 1C20     		movs	r0, #28
 826 0516 D1F1000C 		rsbs	ip, r1, #0
 827 051a 4CEB0101 		adc	r1, ip, r1
 828 051e FFF7FEFF 		bl	_test_assert
 829 0522 0028     		cmp	r0, #0
 830 0524 7FF4C3AD 		bne	.L2
 831              		.loc 1 187 0
 832 0528 9DF80400 		ldrb	r0, [sp, #4]	@ zero_extendqisi2
 833 052c FFF7FEFF 		bl	test_emit_token
 834              		.loc 1 182 0
 835 0530 013D     		subs	r5, r5, #1
 836 0532 DBD1     		bne	.L10
 837              		.loc 1 189 0
 838 0534 40F20001 		movw	r1, #:lower16:.LC0
 839 0538 1D20     		movs	r0, #29
 840 053a C0F20001 		movt	r1, #:upper16:.LC0
 841 053e FFF7FEFF 		bl	_test_assert_sequence
 842 0542 0028     		cmp	r0, #0
 843 0544 7FF4B3AD 		bne	.L2
 844              	.LBB140:
 845              		.loc 1 190 0
 846 0548 2023     		movs	r3, #32
 847              	.LVL125:
 848              	@ 190 "../chibios_2.4.x/test/testmbox.c" 1
 849 054a 83F31188 		msr     BASEPRI, r3
 850              	@ 0 "" 2
 851              	.LVL126:
 852              		.thumb
 853              	.LBE140:
ARM GAS  C:\Users\z80\AppData\Local\Temp\cclZliZY.s 			page 16


 854 054e FFF7FEFF 		bl	dbg_check_lock
 855              	.LVL127:
 856 0552 616A     		ldr	r1, [r4, #36]
 857 0554 1E20     		movs	r0, #30
 858 0556 A1F10502 		sub	r2, r1, #5
 859 055a 5342     		rsbs	r3, r2, #0
 860 055c 43EB0201 		adc	r1, r3, r2
 861 0560 FFF7FEFF 		bl	_test_assert
 862 0564 0028     		cmp	r0, #0
 863 0566 40F04881 		bne	.L22
 864 056a FFF7FEFF 		bl	dbg_check_unlock
 865              	.LBB141:
 866 056e 2B46     		mov	r3, r5
 867              	.LVL128:
 868              	@ 190 "../chibios_2.4.x/test/testmbox.c" 1
 869 0570 83F31188 		msr     BASEPRI, r3
 870              	@ 0 "" 2
 871              	.LVL129:
 872              		.thumb
 873              	.LBE141:
 874              	.LBB142:
 875              		.loc 1 191 0
 876 0574 2023     		movs	r3, #32
 877              	.LVL130:
 878              	@ 191 "../chibios_2.4.x/test/testmbox.c" 1
 879 0576 83F31188 		msr     BASEPRI, r3
 880              	@ 0 "" 2
 881              	.LVL131:
 882              		.thumb
 883              	.LBE142:
 884 057a FFF7FEFF 		bl	dbg_check_lock
 885              	.LVL132:
 886 057e A369     		ldr	r3, [r4, #24]
 887 0580 1F20     		movs	r0, #31
 888 0582 D3F10101 		rsbs	r1, r3, #1
 889 0586 38BF     		it	cc
 890 0588 0021     		movcc	r1, #0
 891 058a FFF7FEFF 		bl	_test_assert
 892 058e 0028     		cmp	r0, #0
 893 0590 40F03381 		bne	.L22
 894 0594 FFF7FEFF 		bl	dbg_check_unlock
 895              	.LBB143:
 896 0598 2B46     		mov	r3, r5
 897              	.LVL133:
 898              	@ 191 "../chibios_2.4.x/test/testmbox.c" 1
 899 059a 83F31188 		msr     BASEPRI, r3
 900              	@ 0 "" 2
 901              	.LVL134:
 902              		.thumb
 903              	.LBE143:
 904              		.loc 1 192 0
 905 059e E268     		ldr	r2, [r4, #12]
 906 05a0 A368     		ldr	r3, [r4, #8]
 907              	.LVL135:
 908 05a2 2020     		movs	r0, #32
 909 05a4 D11A     		subs	r1, r2, r3
 910 05a6 4A42     		rsbs	r2, r1, #0
ARM GAS  C:\Users\z80\AppData\Local\Temp\cclZliZY.s 			page 17


 911 05a8 42EB0101 		adc	r1, r2, r1
 912 05ac FFF7FEFF 		bl	_test_assert
 913 05b0 0028     		cmp	r0, #0
 914 05b2 7FF47CAD 		bne	.L2
 915              	.LBB144:
 916              		.loc 1 194 0
 917 05b6 2023     		movs	r3, #32
 918              	.LVL136:
 919              	@ 194 "../chibios_2.4.x/test/testmbox.c" 1
 920 05b8 83F31188 		msr     BASEPRI, r3
 921              	@ 0 "" 2
 922              	.LVL137:
 923              		.thumb
 924              	.LBE144:
 925 05bc FFF7FEFF 		bl	dbg_check_lock
 926              	.LVL138:
 927              		.loc 1 195 0
 928 05c0 4521     		movs	r1, #69
 929 05c2 2046     		mov	r0, r4
 930 05c4 FFF7FEFF 		bl	chMBPostAheadI
 931              	.LVL139:
 932              		.loc 1 196 0
 933 05c8 D0F10101 		rsbs	r1, r0, #1
 934 05cc 38BF     		it	cc
 935 05ce 0021     		movcc	r1, #0
 936 05d0 2120     		movs	r0, #33
 937              	.LVL140:
 938 05d2 FFF7FEFF 		bl	_test_assert
 939 05d6 0028     		cmp	r0, #0
 940 05d8 7FF469AD 		bne	.L2
 941              		.loc 1 197 0
 942 05dc 4421     		movs	r1, #68
 943 05de 2046     		mov	r0, r4
 944 05e0 FFF7FEFF 		bl	chMBPostAheadI
 945              	.LVL141:
 946              		.loc 1 198 0
 947 05e4 D0F10101 		rsbs	r1, r0, #1
 948 05e8 38BF     		it	cc
 949 05ea 0021     		movcc	r1, #0
 950 05ec 2220     		movs	r0, #34
 951              	.LVL142:
 952 05ee FFF7FEFF 		bl	_test_assert
 953 05f2 0028     		cmp	r0, #0
 954 05f4 7FF45BAD 		bne	.L2
 955              		.loc 1 199 0
 956 05f8 4321     		movs	r1, #67
 957 05fa 2046     		mov	r0, r4
 958 05fc FFF7FEFF 		bl	chMBPostAheadI
 959              	.LVL143:
 960              		.loc 1 200 0
 961 0600 D0F10101 		rsbs	r1, r0, #1
 962 0604 38BF     		it	cc
 963 0606 0021     		movcc	r1, #0
 964 0608 2320     		movs	r0, #35
 965              	.LVL144:
 966 060a FFF7FEFF 		bl	_test_assert
 967 060e 0028     		cmp	r0, #0
ARM GAS  C:\Users\z80\AppData\Local\Temp\cclZliZY.s 			page 18


 968 0610 7FF44DAD 		bne	.L2
 969              		.loc 1 201 0
 970 0614 4221     		movs	r1, #66
 971 0616 2046     		mov	r0, r4
 972 0618 FFF7FEFF 		bl	chMBPostAheadI
 973              	.LVL145:
 974              		.loc 1 202 0
 975 061c D0F10101 		rsbs	r1, r0, #1
 976 0620 38BF     		it	cc
 977 0622 0021     		movcc	r1, #0
 978 0624 2420     		movs	r0, #36
 979              	.LVL146:
 980 0626 FFF7FEFF 		bl	_test_assert
 981 062a 0028     		cmp	r0, #0
 982 062c 7FF43FAD 		bne	.L2
 983              		.loc 1 203 0
 984 0630 40F20004 		movw	r4, #:lower16:.LANCHOR0
 985 0634 C0F20004 		movt	r4, #:upper16:.LANCHOR0
 986 0638 4121     		movs	r1, #65
 987 063a 2046     		mov	r0, r4
 988 063c FFF7FEFF 		bl	chMBPostAheadI
 989 0640 0546     		mov	r5, r0
 990              	.LVL147:
 991              		.loc 1 204 0
 992 0642 FFF7FEFF 		bl	dbg_check_unlock
 993              	.LVL148:
 994              	.LBB145:
 995 0646 0023     		movs	r3, #0
 996              	.LVL149:
 997              	@ 204 "../chibios_2.4.x/test/testmbox.c" 1
 998 0648 83F31188 		msr     BASEPRI, r3
 999              	@ 0 "" 2
 1000              	.LVL150:
 1001              		.thumb
 1002              	.LBE145:
 1003              		.loc 1 205 0
 1004 064c EB1A     		subs	r3, r5, r3
 1005              	.LVL151:
 1006 064e 2520     		movs	r0, #37
 1007 0650 5942     		rsbs	r1, r3, #0
 1008 0652 41EB0301 		adc	r1, r1, r3
 1009 0656 FFF7FEFF 		bl	_test_assert
 1010 065a 0028     		cmp	r0, #0
 1011 065c 7FF427AD 		bne	.L2
 1012              		.loc 1 206 0
 1013 0660 E268     		ldr	r2, [r4, #12]
 1014 0662 A368     		ldr	r3, [r4, #8]
 1015 0664 2620     		movs	r0, #38
 1016 0666 D11A     		subs	r1, r2, r3
 1017 0668 4A42     		rsbs	r2, r1, #0
 1018 066a 42EB0101 		adc	r1, r2, r1
 1019 066e FFF7FEFF 		bl	_test_assert
 1020 0672 0028     		cmp	r0, #0
 1021 0674 7FF41BAD 		bne	.L2
 1022 0678 0525     		movs	r5, #5
 1023              	.LVL152:
 1024              	.L13:
ARM GAS  C:\Users\z80\AppData\Local\Temp\cclZliZY.s 			page 19


 1025              	.LBB146:
 1026              		.loc 1 208 0
 1027 067a 2023     		movs	r3, #32
 1028              	.LVL153:
 1029              	@ 208 "../chibios_2.4.x/test/testmbox.c" 1
 1030 067c 83F31188 		msr     BASEPRI, r3
 1031              	@ 0 "" 2
 1032              	.LVL154:
 1033              		.thumb
 1034              	.LBE146:
 1035              		.loc 1 209 0
 1036 0680 40F20004 		movw	r4, #:lower16:.LANCHOR0
 1037 0684 C0F20004 		movt	r4, #:upper16:.LANCHOR0
 1038              		.loc 1 208 0
 1039 0688 FFF7FEFF 		bl	dbg_check_lock
 1040              	.LVL155:
 1041              		.loc 1 209 0
 1042 068c 01A9     		add	r1, sp, #4
 1043 068e 2046     		mov	r0, r4
 1044 0690 FFF7FEFF 		bl	chMBFetchI
 1045 0694 0646     		mov	r6, r0
 1046              	.LVL156:
 1047              		.loc 1 210 0
 1048 0696 FFF7FEFF 		bl	dbg_check_unlock
 1049              	.LVL157:
 1050              	.LBB147:
 1051 069a 0023     		movs	r3, #0
 1052              	.LVL158:
 1053              	@ 210 "../chibios_2.4.x/test/testmbox.c" 1
 1054 069c 83F31188 		msr     BASEPRI, r3
 1055              	@ 0 "" 2
 1056              	.LVL159:
 1057              		.thumb
 1058              	.LBE147:
 1059              		.loc 1 211 0
 1060 06a0 F11A     		subs	r1, r6, r3
 1061              	.LVL160:
 1062 06a2 2720     		movs	r0, #39
 1063 06a4 D1F1000C 		rsbs	ip, r1, #0
 1064 06a8 4CEB0101 		adc	r1, ip, r1
 1065 06ac FFF7FEFF 		bl	_test_assert
 1066 06b0 0028     		cmp	r0, #0
 1067 06b2 7FF4FCAC 		bne	.L2
 1068              		.loc 1 212 0
 1069 06b6 9DF80400 		ldrb	r0, [sp, #4]	@ zero_extendqisi2
 1070 06ba FFF7FEFF 		bl	test_emit_token
 1071              		.loc 1 207 0
 1072 06be 013D     		subs	r5, r5, #1
 1073 06c0 DBD1     		bne	.L13
 1074              		.loc 1 214 0
 1075 06c2 40F20001 		movw	r1, #:lower16:.LC0
 1076 06c6 2820     		movs	r0, #40
 1077 06c8 C0F20001 		movt	r1, #:upper16:.LC0
 1078 06cc FFF7FEFF 		bl	_test_assert_sequence
 1079 06d0 0028     		cmp	r0, #0
 1080 06d2 7FF4ECAC 		bne	.L2
 1081              	.LBB148:
ARM GAS  C:\Users\z80\AppData\Local\Temp\cclZliZY.s 			page 20


 1082              		.loc 1 215 0
 1083 06d6 2023     		movs	r3, #32
 1084              	.LVL161:
 1085              	@ 215 "../chibios_2.4.x/test/testmbox.c" 1
 1086 06d8 83F31188 		msr     BASEPRI, r3
 1087              	@ 0 "" 2
 1088              	.LVL162:
 1089              		.thumb
 1090              	.LBE148:
 1091 06dc FFF7FEFF 		bl	dbg_check_lock
 1092              	.LVL163:
 1093 06e0 616A     		ldr	r1, [r4, #36]
 1094 06e2 2920     		movs	r0, #41
 1095 06e4 A1F10503 		sub	r3, r1, #5
 1096 06e8 5A42     		rsbs	r2, r3, #0
 1097 06ea 42EB0301 		adc	r1, r2, r3
 1098 06ee FFF7FEFF 		bl	_test_assert
 1099 06f2 0028     		cmp	r0, #0
 1100 06f4 40F08180 		bne	.L22
 1101 06f8 FFF7FEFF 		bl	dbg_check_unlock
 1102              	.LBB149:
 1103 06fc 2B46     		mov	r3, r5
 1104              	.LVL164:
 1105              	@ 215 "../chibios_2.4.x/test/testmbox.c" 1
 1106 06fe 83F31188 		msr     BASEPRI, r3
 1107              	@ 0 "" 2
 1108              	.LVL165:
 1109              		.thumb
 1110              	.LBE149:
 1111              	.LBB150:
 1112              		.loc 1 216 0
 1113 0702 2023     		movs	r3, #32
 1114              	.LVL166:
 1115              	@ 216 "../chibios_2.4.x/test/testmbox.c" 1
 1116 0704 83F31188 		msr     BASEPRI, r3
 1117              	@ 0 "" 2
 1118              	.LVL167:
 1119              		.thumb
 1120              	.LBE150:
 1121 0708 FFF7FEFF 		bl	dbg_check_lock
 1122              	.LVL168:
 1123 070c A269     		ldr	r2, [r4, #24]
 1124 070e 2A20     		movs	r0, #42
 1125 0710 D2F10101 		rsbs	r1, r2, #1
 1126 0714 38BF     		it	cc
 1127 0716 0021     		movcc	r1, #0
 1128 0718 FFF7FEFF 		bl	_test_assert
 1129 071c 0028     		cmp	r0, #0
 1130 071e 6CD1     		bne	.L22
 1131 0720 FFF7FEFF 		bl	dbg_check_unlock
 1132              	.LBB151:
 1133 0724 2B46     		mov	r3, r5
 1134              	.LVL169:
 1135              	@ 216 "../chibios_2.4.x/test/testmbox.c" 1
 1136 0726 83F31188 		msr     BASEPRI, r3
 1137              	@ 0 "" 2
 1138              	.LVL170:
ARM GAS  C:\Users\z80\AppData\Local\Temp\cclZliZY.s 			page 21


 1139              		.thumb
 1140              	.LBE151:
 1141              		.loc 1 217 0
 1142 072a A368     		ldr	r3, [r4, #8]
 1143              	.LVL171:
 1144 072c E268     		ldr	r2, [r4, #12]
 1145 072e 2B20     		movs	r0, #43
 1146 0730 D11A     		subs	r1, r2, r3
 1147 0732 4B42     		rsbs	r3, r1, #0
 1148 0734 43EB0101 		adc	r1, r3, r1
 1149 0738 FFF7FEFF 		bl	_test_assert
 1150 073c 0028     		cmp	r0, #0
 1151 073e 7FF4B6AC 		bne	.L2
 1152              		.loc 1 222 0
 1153 0742 2046     		mov	r0, r4
 1154 0744 FFF7FEFF 		bl	chMBReset
 1155              	.LBB152:
 1156              		.loc 1 227 0
 1157 0748 2023     		movs	r3, #32
 1158              	.LVL172:
 1159              	@ 227 "../chibios_2.4.x/test/testmbox.c" 1
 1160 074a 83F31188 		msr     BASEPRI, r3
 1161              	@ 0 "" 2
 1162              	.LVL173:
 1163              		.thumb
 1164              	.LBE152:
 1165 074e FFF7FEFF 		bl	dbg_check_lock
 1166              	.LVL174:
 1167 0752 626A     		ldr	r2, [r4, #36]
 1168 0754 2C20     		movs	r0, #44
 1169 0756 A2F10501 		sub	r1, r2, #5
 1170 075a D1F1000C 		rsbs	ip, r1, #0
 1171 075e 4CEB0101 		adc	r1, ip, r1
 1172 0762 FFF7FEFF 		bl	_test_assert
 1173 0766 0028     		cmp	r0, #0
 1174 0768 47D1     		bne	.L22
 1175 076a FFF7FEFF 		bl	dbg_check_unlock
 1176              	.LBB153:
 1177 076e 2B46     		mov	r3, r5
 1178              	.LVL175:
 1179              	@ 227 "../chibios_2.4.x/test/testmbox.c" 1
 1180 0770 83F31188 		msr     BASEPRI, r3
 1181              	@ 0 "" 2
 1182              	.LVL176:
 1183              		.thumb
 1184              	.LBE153:
 1185              	.LBB154:
 1186              		.loc 1 228 0
 1187 0774 2023     		movs	r3, #32
 1188              	.LVL177:
 1189              	@ 228 "../chibios_2.4.x/test/testmbox.c" 1
 1190 0776 83F31188 		msr     BASEPRI, r3
 1191              	@ 0 "" 2
 1192              	.LVL178:
 1193              		.thumb
 1194              	.LBE154:
 1195 077a FFF7FEFF 		bl	dbg_check_lock
ARM GAS  C:\Users\z80\AppData\Local\Temp\cclZliZY.s 			page 22


 1196              	.LVL179:
 1197 077e A369     		ldr	r3, [r4, #24]
 1198 0780 2D20     		movs	r0, #45
 1199 0782 D3F10101 		rsbs	r1, r3, #1
 1200 0786 38BF     		it	cc
 1201 0788 0021     		movcc	r1, #0
 1202 078a FFF7FEFF 		bl	_test_assert
 1203 078e A0BB     		cbnz	r0, .L22
 1204 0790 FFF7FEFF 		bl	dbg_check_unlock
 1205              	.LBB155:
 1206 0794 2B46     		mov	r3, r5
 1207              	.LVL180:
 1208              	@ 228 "../chibios_2.4.x/test/testmbox.c" 1
 1209 0796 83F31188 		msr     BASEPRI, r3
 1210              	@ 0 "" 2
 1211              	.LVL181:
 1212              		.thumb
 1213              	.LBE155:
 1214              	.LBB156:
 1215              		.loc 1 229 0
 1216 079a 2023     		movs	r3, #32
 1217              	.LVL182:
 1218              	@ 229 "../chibios_2.4.x/test/testmbox.c" 1
 1219 079c 83F31188 		msr     BASEPRI, r3
 1220              	@ 0 "" 2
 1221              	.LVL183:
 1222              		.thumb
 1223              	.LBE156:
 1224 07a0 FFF7FEFF 		bl	dbg_check_lock
 1225              	.LVL184:
 1226 07a4 2268     		ldr	r2, [r4, #0]
 1227 07a6 A368     		ldr	r3, [r4, #8]
 1228 07a8 2E20     		movs	r0, #46
 1229 07aa D11A     		subs	r1, r2, r3
 1230 07ac D1F1000C 		rsbs	ip, r1, #0
 1231 07b0 4CEB0101 		adc	r1, ip, r1
 1232 07b4 FFF7FEFF 		bl	_test_assert
 1233 07b8 F8B9     		cbnz	r0, .L22
 1234 07ba FFF7FEFF 		bl	dbg_check_unlock
 1235              	.LBB157:
 1236 07be 2B46     		mov	r3, r5
 1237              	.LVL185:
 1238              	@ 229 "../chibios_2.4.x/test/testmbox.c" 1
 1239 07c0 83F31188 		msr     BASEPRI, r3
 1240              	@ 0 "" 2
 1241              	.LVL186:
 1242              		.thumb
 1243              	.LBE157:
 1244              	.LBB158:
 1245              		.loc 1 230 0
 1246 07c4 2023     		movs	r3, #32
 1247              	.LVL187:
 1248              	@ 230 "../chibios_2.4.x/test/testmbox.c" 1
 1249 07c6 83F31188 		msr     BASEPRI, r3
 1250              	@ 0 "" 2
 1251              	.LVL188:
 1252              		.thumb
ARM GAS  C:\Users\z80\AppData\Local\Temp\cclZliZY.s 			page 23


 1253              	.LBE158:
 1254 07ca FFF7FEFF 		bl	dbg_check_lock
 1255              	.LVL189:
 1256 07ce 2368     		ldr	r3, [r4, #0]
 1257 07d0 E268     		ldr	r2, [r4, #12]
 1258 07d2 2F20     		movs	r0, #47
 1259 07d4 991A     		subs	r1, r3, r2
 1260 07d6 D1F1000C 		rsbs	ip, r1, #0
 1261 07da 4CEB0101 		adc	r1, ip, r1
 1262 07de FFF7FEFF 		bl	_test_assert
 1263              	.LVL190:
 1264              	.L19:
 1265 07e2 FFF7FEFF 		bl	dbg_check_unlock
 1266              	.LBB159:
 1267 07e6 0023     		movs	r3, #0
 1268              	@ 230 "../chibios_2.4.x/test/testmbox.c" 1
 1269 07e8 83F31188 		msr     BASEPRI, r3
 1270              	@ 0 "" 2
 1271              	.LVL191:
 1272              		.thumb
 1273 07ec 5FE4     		b	.L2
 1274              	.LVL192:
 1275              	.L23:
 1276              	.LBE159:
 1277              		.loc 1 163 0
 1278 07ee FFF7FEFF 		bl	dbg_check_unlock
 1279              	.LBB160:
 1280 07f2 3346     		mov	r3, r6
 1281              	@ 163 "../chibios_2.4.x/test/testmbox.c" 1
 1282 07f4 83F31188 		msr     BASEPRI, r3
 1283              	@ 0 "" 2
 1284              	.LVL193:
 1285              		.thumb
 1286 07f8 59E4     		b	.L2
 1287              	.LVL194:
 1288              	.L22:
 1289              	.LBE160:
 1290              		.loc 1 229 0
 1291 07fa FFF7FEFF 		bl	dbg_check_unlock
 1292              	.LBB161:
 1293 07fe 2B46     		mov	r3, r5
 1294              	@ 229 "../chibios_2.4.x/test/testmbox.c" 1
 1295 0800 83F31188 		msr     BASEPRI, r3
 1296              	@ 0 "" 2
 1297              	.LVL195:
 1298              		.thumb
 1299 0804 53E4     		b	.L2
 1300              	.LBE161:
 1301              	.LBE117:
 1302              	.LBE116:
 1303              		.cfi_endproc
 1304              	.LFE8:
 1305              		.size	mbox1_execute, .-mbox1_execute
 1306              		.global	patternmbox
 1307              		.global	testmbox1
 1308 0806 00BFAFF3 		.section	.data.mb1,"aw",%progbits
 1308      0080AFF3 
ARM GAS  C:\Users\z80\AppData\Local\Temp\cclZliZY.s 			page 24


 1308      0080
 1309              		.align	2
 1310              		.set	.LANCHOR0,. + 0
 1311              		.type	mb1, %object
 1312              		.size	mb1, 40
 1313              	mb1:
 1314 0000 00000000 		.word	test
 1315 0004 14000000 		.word	test+20
 1316 0008 00000000 		.word	test
 1317 000c 00000000 		.word	test
 1318 0010 10000000 		.word	mb1+16
 1319 0014 10000000 		.word	mb1+16
 1320 0018 00000000 		.word	0
 1321 001c 1C000000 		.word	mb1+28
 1322 0020 1C000000 		.word	mb1+28
 1323 0024 05000000 		.word	5
 1324              		.section	.rodata.patternmbox,"a",%progbits
 1325              		.align	2
 1326              		.type	patternmbox, %object
 1327              		.size	patternmbox, 8
 1328              	patternmbox:
 1329 0000 00000000 		.word	testmbox1
 1330 0004 00000000 		.word	0
 1331              		.section	.rodata.str1.4,"aMS",%progbits,1
 1332              		.align	2
 1333              	.LC0:
 1334 0000 41424344 		.ascii	"ABCDE\000"
 1334      4500
 1335 0006 0000     		.space	2
 1336              	.LC1:
 1337 0008 4D61696C 		.ascii	"Mailboxes, queuing and timeouts\000"
 1337      626F7865 
 1337      732C2071 
 1337      75657569 
 1337      6E672061 
 1338              		.section	.rodata.testmbox1,"a",%progbits
 1339              		.align	2
 1340              		.type	testmbox1, %object
 1341              		.size	testmbox1, 16
 1342              	testmbox1:
 1343 0000 08000000 		.word	.LC1
 1344 0004 00000000 		.word	mbox1_setup
 1345 0008 00000000 		.word	0
 1346 000c 00000000 		.word	mbox1_execute
 1347              		.text
 1348              	.Letext0:
 1349              		.file 2 "c:\\programs\\codesourcery\\2011.03-56\\bin\\../lib/gcc/arm-none-eabi/4.6.3/../../../../a
 1350              		.file 3 "../chibios_2.4.x/os/ports/GCC/ARMCMx/chtypes.h"
 1351              		.file 4 "../chibios_2.4.x/os/kernel/include/chlists.h"
 1352              		.file 5 "../chibios_2.4.x/os/kernel/include/chthreads.h"
 1353              		.file 6 "../chibios_2.4.x/os/ports/GCC/ARMCMx/chcore_v7m.h"
 1354              		.file 7 "../chibios_2.4.x/os/kernel/include/chsem.h"
 1355              		.file 8 "../chibios_2.4.x/os/kernel/include/chmtx.h"
 1356              		.file 9 "../chibios_2.4.x/os/kernel/include/chmboxes.h"
 1357              		.file 10 "../chibios_2.4.x/test/test.h"