ARM GAS  C:\Users\z80\AppData\Local\Temp\ccRmy9tc.s 			page 1


   1              		.syntax unified
   2              		.cpu cortex-m3
   3              		.fpu softvfp
   4              		.eabi_attribute 20, 1
   5              		.eabi_attribute 21, 1
   6              		.eabi_attribute 23, 3
   7              		.eabi_attribute 24, 1
   8              		.eabi_attribute 25, 1
   9              		.eabi_attribute 26, 1
  10              		.eabi_attribute 30, 2
  11              		.eabi_attribute 34, 1
  12              		.eabi_attribute 18, 4
  13              		.thumb
  14              		.file	"testqueues.c"
  15              		.text
  16              	.Ltext0:
  17              		.cfi_sections	.debug_frame
  18              		.section	.text.notify,"ax",%progbits
  19              		.align	2
  20              		.p2align 4,,15
  21              		.thumb
  22              		.thumb_func
  23              		.type	notify, %function
  24              	notify:
  25              	.LFB7:
  26              		.file 1 "../chibios_2.4.x/test/testqueues.c"
  27              		.loc 1 68 0
  28              		.cfi_startproc
  29              		@ args = 0, pretend = 0, frame = 0
  30              		@ frame_needed = 0, uses_anonymous_args = 0
  31              		@ link register save eliminated.
  32              	.LVL0:
  33              		.loc 1 70 0
  34 0000 7047     		bx	lr
  35              		.cfi_endproc
  36              	.LFE7:
  37              		.size	notify, .-notify
  38 0002 00BFAFF3 		.section	.text.thread2,"ax",%progbits
  38      0080AFF3 
  38      0080AFF3 
  38      0080
  39              		.align	2
  40              		.p2align 4,,15
  41              		.thumb
  42              		.thumb_func
  43              		.type	thread2, %function
  44              	thread2:
  45              	.LFB12:
  46              		.loc 1 181 0
  47              		.cfi_startproc
  48              		@ args = 0, pretend = 0, frame = 0
  49              		@ frame_needed = 0, uses_anonymous_args = 0
  50              	.LVL1:
  51              		.loc 1 184 0
  52 0000 40F20000 		movw	r0, #:lower16:.LANCHOR0
  53              	.LVL2:
  54              		.loc 1 181 0
ARM GAS  C:\Users\z80\AppData\Local\Temp\ccRmy9tc.s 			page 2


  55 0004 08B5     		push	{r3, lr}
  56              	.LCFI0:
  57              		.cfi_def_cfa_offset 8
  58              		.cfi_offset 14, -4
  59              		.cfi_offset 3, -8
  60              		.loc 1 184 0
  61 0006 0021     		movs	r1, #0
  62 0008 6422     		movs	r2, #100
  63 000a C0F20000 		movt	r0, #:upper16:.LANCHOR0
  64 000e FFF7FEFF 		bl	chOQPutTimeout
  65              		.loc 1 186 0
  66 0012 0020     		movs	r0, #0
  67 0014 08BD     		pop	{r3, pc}
  68              		.cfi_endproc
  69              	.LFE12:
  70              		.size	thread2, .-thread2
  71 0016 00BFAFF3 		.section	.text.queues2_setup,"ax",%progbits
  71      0080AFF3 
  71      0080
  72              		.align	2
  73              		.p2align 4,,15
  74              		.thumb
  75              		.thumb_func
  76              		.type	queues2_setup, %function
  77              	queues2_setup:
  78              	.LFB11:
  79              		.loc 1 176 0
  80              		.cfi_startproc
  81              		@ args = 0, pretend = 0, frame = 0
  82              		@ frame_needed = 0, uses_anonymous_args = 0
  83              		@ link register save eliminated.
  84              		.loc 1 178 0
  85 0000 40F20002 		movw	r2, #:lower16:wa
  86 0004 C0F20002 		movt	r2, #:upper16:wa
  87 0008 1168     		ldr	r1, [r2, #0]
  88 000a 40F20000 		movw	r0, #:lower16:.LANCHOR0
  89 000e 40F20003 		movw	r3, #:lower16:notify
  90 0012 C0F20000 		movt	r0, #:upper16:.LANCHOR0
  91 0016 0422     		movs	r2, #4
  92 0018 C0F20003 		movt	r3, #:upper16:notify
  93              		.loc 1 179 0
  94              		.loc 1 178 0
  95 001c FFF7FEBF 		b	chOQInit
  96              		.cfi_endproc
  97              	.LFE11:
  98              		.size	queues2_setup, .-queues2_setup
  99              		.section	.text.thread1,"ax",%progbits
 100              		.align	2
 101              		.p2align 4,,15
 102              		.thumb
 103              		.thumb_func
 104              		.type	thread1, %function
 105              	thread1:
 106              	.LFB9:
 107              		.loc 1 94 0
 108              		.cfi_startproc
 109              		@ args = 0, pretend = 0, frame = 0
ARM GAS  C:\Users\z80\AppData\Local\Temp\ccRmy9tc.s 			page 3


 110              		@ frame_needed = 0, uses_anonymous_args = 0
 111              	.LVL3:
 112              		.loc 1 97 0
 113 0000 40F20000 		movw	r0, #:lower16:.LANCHOR1
 114              	.LVL4:
 115              		.loc 1 94 0
 116 0004 08B5     		push	{r3, lr}
 117              	.LCFI1:
 118              		.cfi_def_cfa_offset 8
 119              		.cfi_offset 14, -4
 120              		.cfi_offset 3, -8
 121              		.loc 1 97 0
 122 0006 6421     		movs	r1, #100
 123 0008 C0F20000 		movt	r0, #:upper16:.LANCHOR1
 124 000c FFF7FEFF 		bl	chIQGetTimeout
 125              		.loc 1 99 0
 126 0010 0020     		movs	r0, #0
 127 0012 08BD     		pop	{r3, pc}
 128              		.cfi_endproc
 129              	.LFE9:
 130              		.size	thread1, .-thread1
 131 0014 AFF30080 		.section	.text.queues1_setup,"ax",%progbits
 131      AFF30080 
 131      AFF30080 
 132              		.align	2
 133              		.p2align 4,,15
 134              		.thumb
 135              		.thumb_func
 136              		.type	queues1_setup, %function
 137              	queues1_setup:
 138              	.LFB8:
 139              		.loc 1 89 0
 140              		.cfi_startproc
 141              		@ args = 0, pretend = 0, frame = 0
 142              		@ frame_needed = 0, uses_anonymous_args = 0
 143              		@ link register save eliminated.
 144              		.loc 1 91 0
 145 0000 40F20002 		movw	r2, #:lower16:wa
 146 0004 C0F20002 		movt	r2, #:upper16:wa
 147 0008 1168     		ldr	r1, [r2, #0]
 148 000a 40F20000 		movw	r0, #:lower16:.LANCHOR1
 149 000e 40F20003 		movw	r3, #:lower16:notify
 150 0012 C0F20000 		movt	r0, #:upper16:.LANCHOR1
 151 0016 0422     		movs	r2, #4
 152 0018 C0F20003 		movt	r3, #:upper16:notify
 153              		.loc 1 92 0
 154              		.loc 1 91 0
 155 001c FFF7FEBF 		b	chIQInit
 156              		.cfi_endproc
 157              	.LFE8:
 158              		.size	queues1_setup, .-queues1_setup
 159              		.section	.text.queues2_execute,"ax",%progbits
 160              		.align	2
 161              		.p2align 4,,15
 162              		.thumb
 163              		.thumb_func
 164              		.type	queues2_execute, %function
ARM GAS  C:\Users\z80\AppData\Local\Temp\ccRmy9tc.s 			page 4


 165              	queues2_execute:
 166              	.LFB13:
 167              		.loc 1 188 0
 168              		.cfi_startproc
 169              		@ args = 0, pretend = 0, frame = 0
 170              		@ frame_needed = 0, uses_anonymous_args = 0
 171 0000 2DE9F041 		push	{r4, r5, r6, r7, r8, lr}
 172              	.LCFI2:
 173              		.cfi_def_cfa_offset 24
 174              		.cfi_offset 14, -4
 175              		.cfi_offset 8, -8
 176              		.cfi_offset 7, -12
 177              		.cfi_offset 6, -16
 178              		.cfi_offset 5, -20
 179              		.cfi_offset 4, -24
 180              	.LBB96:
 181              		.loc 1 193 0
 182 0004 2023     		movs	r3, #32
 183              	.LVL5:
 184              	.LBE96:
 185              		.loc 1 188 0
 186 0006 82B0     		sub	sp, sp, #8
 187              	.LCFI3:
 188              		.cfi_def_cfa_offset 32
 189              	.LBB97:
 190              		.loc 1 193 0
 191              	@ 193 "../chibios_2.4.x/test/testqueues.c" 1
 192 0008 83F31188 		msr     BASEPRI, r3
 193              	@ 0 "" 2
 194              	.LVL6:
 195              		.thumb
 196              	.LBE97:
 197 000c 40F20005 		movw	r5, #:lower16:.LANCHOR0
 198 0010 C0F20005 		movt	r5, #:upper16:.LANCHOR0
 199 0014 FFF7FEFF 		bl	dbg_check_lock
 200              	.LVL7:
 201 0018 6A69     		ldr	r2, [r5, #20]
 202 001a AB69     		ldr	r3, [r5, #24]
 203 001c 0021     		movs	r1, #0
 204 001e 9A42     		cmp	r2, r3
 205 0020 00F09A81 		beq	.L24
 206              	.L7:
 207              		.loc 1 193 0 is_stmt 0 discriminator 4
 208 0024 0120     		movs	r0, #1
 209 0026 FFF7FEFF 		bl	_test_assert
 210 002a 0646     		mov	r6, r0
 211 002c 0028     		cmp	r0, #0
 212 002e 40F08581 		bne	.L21
 213              	.LBB98:
 214              	.LBB99:
 215              		.loc 1 193 0
 216 0032 FFF7FEFF 		bl	dbg_check_unlock
 217              	.LBB100:
 218 0036 3346     		mov	r3, r6
 219              	.LVL8:
 220              	@ 193 "../chibios_2.4.x/test/testqueues.c" 1
 221 0038 83F31188 		msr     BASEPRI, r3
ARM GAS  C:\Users\z80\AppData\Local\Temp\ccRmy9tc.s 			page 5


 222              	@ 0 "" 2
 223              	.LVL9:
 224              		.thumb
 225              	.LBE100:
 226              		.loc 1 197 0 is_stmt 1
 227 003c 40F20004 		movw	r4, #:lower16:.LANCHOR0
 228 0040 C0F20004 		movt	r4, #:upper16:.LANCHOR0
 229 0044 4121     		movs	r1, #65
 230 0046 2046     		mov	r0, r4
 231 0048 4FF0FF32 		mov	r2, #-1
 232 004c FFF7FEFF 		bl	chOQPutTimeout
 233              	.LVL10:
 234 0050 4221     		movs	r1, #66
 235 0052 2046     		mov	r0, r4
 236 0054 4FF0FF32 		mov	r2, #-1
 237 0058 FFF7FEFF 		bl	chOQPutTimeout
 238              	.LVL11:
 239 005c 4321     		movs	r1, #67
 240 005e 2046     		mov	r0, r4
 241 0060 4FF0FF32 		mov	r2, #-1
 242 0064 FFF7FEFF 		bl	chOQPutTimeout
 243              	.LVL12:
 244 0068 2046     		mov	r0, r4
 245 006a 4421     		movs	r1, #68
 246 006c 4FF0FF32 		mov	r2, #-1
 247 0070 FFF7FEFF 		bl	chOQPutTimeout
 248              	.LVL13:
 249              	.LBB101:
 250              		.loc 1 198 0
 251 0074 2023     		movs	r3, #32
 252              	.LVL14:
 253              	@ 198 "../chibios_2.4.x/test/testqueues.c" 1
 254 0076 83F31188 		msr     BASEPRI, r3
 255              	@ 0 "" 2
 256              	.LVL15:
 257              		.thumb
 258              	.LBE101:
 259 007a FFF7FEFF 		bl	dbg_check_lock
 260              	.LVL16:
 261 007e AD68     		ldr	r5, [r5, #8]
 262 0080 0220     		movs	r0, #2
 263 0082 D5F10101 		rsbs	r1, r5, #1
 264 0086 38BF     		it	cc
 265 0088 0021     		movcc	r1, #0
 266 008a FFF7FEFF 		bl	_test_assert
 267 008e 0546     		mov	r5, r0
 268 0090 0028     		cmp	r0, #0
 269 0092 40F05B81 		bne	.L25
 270 0096 FFF7FEFF 		bl	dbg_check_unlock
 271              	.LBB102:
 272 009a 2B46     		mov	r3, r5
 273              	.LVL17:
 274              	@ 198 "../chibios_2.4.x/test/testqueues.c" 1
 275 009c 83F31188 		msr     BASEPRI, r3
 276              	@ 0 "" 2
 277              	.LVL18:
 278              		.thumb
ARM GAS  C:\Users\z80\AppData\Local\Temp\ccRmy9tc.s 			page 6


 279              	.LBE102:
 280              	.LBB103:
 281              	.LBB104:
 282              		.loc 1 204 0
 283 00a0 2023     		movs	r3, #32
 284              	.LVL19:
 285              	@ 204 "../chibios_2.4.x/test/testqueues.c" 1
 286 00a2 83F31188 		msr     BASEPRI, r3
 287              	@ 0 "" 2
 288              	.LVL20:
 289              		.thumb
 290              	.LBE104:
 291 00a6 FFF7FEFF 		bl	dbg_check_lock
 292              	.LVL21:
 293              		.loc 1 205 0
 294 00aa 2046     		mov	r0, r4
 295 00ac FFF7FEFF 		bl	chOQGetI
 296 00b0 0646     		mov	r6, r0
 297              	.LVL22:
 298              		.loc 1 206 0
 299 00b2 FFF7FEFF 		bl	dbg_check_unlock
 300              	.LVL23:
 301              	.LBB105:
 302 00b6 2B46     		mov	r3, r5
 303              	.LVL24:
 304              	@ 206 "../chibios_2.4.x/test/testqueues.c" 1
 305 00b8 83F31188 		msr     BASEPRI, r3
 306              	@ 0 "" 2
 307              	.LVL25:
 308              		.thumb
 309              	.LBE105:
 310              		.loc 1 207 0
 311 00bc F0B2     		uxtb	r0, r6
 312 00be FFF7FEFF 		bl	test_emit_token
 313              	.LVL26:
 314              	.LBB106:
 315              		.loc 1 204 0
 316 00c2 2023     		movs	r3, #32
 317              	@ 204 "../chibios_2.4.x/test/testqueues.c" 1
 318 00c4 83F31188 		msr     BASEPRI, r3
 319              	@ 0 "" 2
 320              	.LVL27:
 321              		.thumb
 322              	.LBE106:
 323 00c8 FFF7FEFF 		bl	dbg_check_lock
 324              	.LVL28:
 325              		.loc 1 205 0
 326 00cc 2046     		mov	r0, r4
 327 00ce FFF7FEFF 		bl	chOQGetI
 328 00d2 0646     		mov	r6, r0
 329              	.LVL29:
 330              		.loc 1 206 0
 331 00d4 FFF7FEFF 		bl	dbg_check_unlock
 332              	.LVL30:
 333              	.LBB107:
 334 00d8 2B46     		mov	r3, r5
 335              	@ 206 "../chibios_2.4.x/test/testqueues.c" 1
ARM GAS  C:\Users\z80\AppData\Local\Temp\ccRmy9tc.s 			page 7


 336 00da 83F31188 		msr     BASEPRI, r3
 337              	@ 0 "" 2
 338              	.LVL31:
 339              		.thumb
 340              	.LBE107:
 341              		.loc 1 207 0
 342 00de F0B2     		uxtb	r0, r6
 343 00e0 FFF7FEFF 		bl	test_emit_token
 344              	.LVL32:
 345              	.LBB108:
 346              		.loc 1 204 0
 347 00e4 2023     		movs	r3, #32
 348              	@ 204 "../chibios_2.4.x/test/testqueues.c" 1
 349 00e6 83F31188 		msr     BASEPRI, r3
 350              	@ 0 "" 2
 351              	.LVL33:
 352              		.thumb
 353              	.LBE108:
 354 00ea FFF7FEFF 		bl	dbg_check_lock
 355              	.LVL34:
 356              		.loc 1 205 0
 357 00ee 2046     		mov	r0, r4
 358 00f0 FFF7FEFF 		bl	chOQGetI
 359 00f4 0646     		mov	r6, r0
 360              	.LVL35:
 361              		.loc 1 206 0
 362 00f6 FFF7FEFF 		bl	dbg_check_unlock
 363              	.LVL36:
 364              	.LBB109:
 365 00fa 2B46     		mov	r3, r5
 366              	@ 206 "../chibios_2.4.x/test/testqueues.c" 1
 367 00fc 83F31188 		msr     BASEPRI, r3
 368              	@ 0 "" 2
 369              	.LVL37:
 370              		.thumb
 371              	.LBE109:
 372              		.loc 1 207 0
 373 0100 F0B2     		uxtb	r0, r6
 374 0102 FFF7FEFF 		bl	test_emit_token
 375              	.LVL38:
 376              	.LBB110:
 377              		.loc 1 204 0
 378 0106 2023     		movs	r3, #32
 379              	@ 204 "../chibios_2.4.x/test/testqueues.c" 1
 380 0108 83F31188 		msr     BASEPRI, r3
 381              	@ 0 "" 2
 382              	.LVL39:
 383              		.thumb
 384              	.LBE110:
 385 010c FFF7FEFF 		bl	dbg_check_lock
 386              	.LVL40:
 387              		.loc 1 205 0
 388 0110 2046     		mov	r0, r4
 389 0112 FFF7FEFF 		bl	chOQGetI
 390 0116 0646     		mov	r6, r0
 391              	.LVL41:
 392              		.loc 1 206 0
ARM GAS  C:\Users\z80\AppData\Local\Temp\ccRmy9tc.s 			page 8


 393 0118 FFF7FEFF 		bl	dbg_check_unlock
 394              	.LVL42:
 395              	.LBB111:
 396 011c 2B46     		mov	r3, r5
 397              	@ 206 "../chibios_2.4.x/test/testqueues.c" 1
 398 011e 83F31188 		msr     BASEPRI, r3
 399              	@ 0 "" 2
 400              	.LVL43:
 401              		.thumb
 402              	.LBE111:
 403              		.loc 1 207 0
 404 0122 F0B2     		uxtb	r0, r6
 405 0124 FFF7FEFF 		bl	test_emit_token
 406              	.LVL44:
 407              	.LBE103:
 408              	.LBB112:
 409              		.loc 1 209 0
 410 0128 2023     		movs	r3, #32
 411              	.LVL45:
 412              	@ 209 "../chibios_2.4.x/test/testqueues.c" 1
 413 012a 83F31188 		msr     BASEPRI, r3
 414              	@ 0 "" 2
 415              	.LVL46:
 416              		.thumb
 417              	.LBE112:
 418 012e FFF7FEFF 		bl	dbg_check_lock
 419              	.LVL47:
 420 0132 6069     		ldr	r0, [r4, #20]
 421 0134 A269     		ldr	r2, [r4, #24]
 422 0136 9042     		cmp	r0, r2
 423 0138 18BF     		it	ne
 424 013a 2946     		movne	r1, r5
 425 013c 00F01181 		beq	.L26
 426              	.L11:
 427 0140 0320     		movs	r0, #3
 428 0142 FFF7FEFF 		bl	_test_assert
 429 0146 0446     		mov	r4, r0
 430 0148 0028     		cmp	r0, #0
 431 014a 40F0F780 		bne	.L21
 432 014e FFF7FEFF 		bl	dbg_check_unlock
 433              	.LBB113:
 434 0152 2346     		mov	r3, r4
 435              	.LVL48:
 436              	@ 209 "../chibios_2.4.x/test/testqueues.c" 1
 437 0154 83F31188 		msr     BASEPRI, r3
 438              	@ 0 "" 2
 439              	.LVL49:
 440              		.thumb
 441              	.LBE113:
 442              		.loc 1 210 0
 443 0158 40F20001 		movw	r1, #:lower16:.LC0
 444 015c 0420     		movs	r0, #4
 445 015e C0F20001 		movt	r1, #:upper16:.LC0
 446 0162 FFF7FEFF 		bl	_test_assert_sequence
 447              	.LVL50:
 448 0166 0546     		mov	r5, r0
 449 0168 0028     		cmp	r0, #0
ARM GAS  C:\Users\z80\AppData\Local\Temp\ccRmy9tc.s 			page 9


 450 016a 40F0EC80 		bne	.L6
 451              	.LBB114:
 452              		.loc 1 211 0
 453 016e 2023     		movs	r3, #32
 454              	.LVL51:
 455              	@ 211 "../chibios_2.4.x/test/testqueues.c" 1
 456 0170 83F31188 		msr     BASEPRI, r3
 457              	@ 0 "" 2
 458              	.LVL52:
 459              		.thumb
 460              	.LBE114:
 461 0174 40F20004 		movw	r4, #:lower16:.LANCHOR0
 462 0178 C0F20004 		movt	r4, #:upper16:.LANCHOR0
 463 017c FFF7FEFF 		bl	dbg_check_lock
 464              	.LVL53:
 465 0180 2046     		mov	r0, r4
 466 0182 FFF7FEFF 		bl	chOQGetI
 467 0186 0330     		adds	r0, r0, #3
 468 0188 14BF     		ite	ne
 469 018a 0021     		movne	r1, #0
 470 018c 0121     		moveq	r1, #1
 471 018e 0520     		movs	r0, #5
 472 0190 FFF7FEFF 		bl	_test_assert
 473 0194 0646     		mov	r6, r0
 474              	.LVL54:
 475 0196 0028     		cmp	r0, #0
 476 0198 40F0E880 		bne	.L22
 477 019c FFF7FEFF 		bl	dbg_check_unlock
 478              	.LBB115:
 479 01a0 3346     		mov	r3, r6
 480              	.LVL55:
 481              	@ 211 "../chibios_2.4.x/test/testqueues.c" 1
 482 01a2 83F31188 		msr     BASEPRI, r3
 483              	@ 0 "" 2
 484              	.LVL56:
 485              		.thumb
 486              	.LBE115:
 487              		.loc 1 214 0
 488 01a6 40F20005 		movw	r5, #:lower16:wa
 489 01aa C0F20005 		movt	r5, #:upper16:wa
 490 01ae 6E68     		ldr	r6, [r5, #4]
 491 01b0 0822     		movs	r2, #8
 492 01b2 3146     		mov	r1, r6
 493 01b4 2046     		mov	r0, r4
 494 01b6 FFF7FEFF 		bl	chOQWriteTimeout
 495              	.LVL57:
 496              		.loc 1 215 0
 497 01ba A0F10401 		sub	r1, r0, #4
 498 01be 4B42     		rsbs	r3, r1, #0
 499 01c0 43EB0101 		adc	r1, r3, r1
 500 01c4 0620     		movs	r0, #6
 501              	.LVL58:
 502 01c6 FFF7FEFF 		bl	_test_assert
 503 01ca 8046     		mov	r8, r0
 504 01cc 0028     		cmp	r0, #0
 505 01ce 40F0BA80 		bne	.L6
 506              	.LBB116:
ARM GAS  C:\Users\z80\AppData\Local\Temp\ccRmy9tc.s 			page 10


 507              		.loc 1 216 0
 508 01d2 2023     		movs	r3, #32
 509              	.LVL59:
 510              	@ 216 "../chibios_2.4.x/test/testqueues.c" 1
 511 01d4 83F31188 		msr     BASEPRI, r3
 512              	@ 0 "" 2
 513              	.LVL60:
 514              		.thumb
 515              	.LBE116:
 516 01d8 FFF7FEFF 		bl	dbg_check_lock
 517              	.LVL61:
 518 01dc A768     		ldr	r7, [r4, #8]
 519 01de 0720     		movs	r0, #7
 520 01e0 D7F10101 		rsbs	r1, r7, #1
 521 01e4 38BF     		it	cc
 522 01e6 0021     		movcc	r1, #0
 523 01e8 FFF7FEFF 		bl	_test_assert
 524 01ec 0746     		mov	r7, r0
 525 01ee 0028     		cmp	r0, #0
 526 01f0 40F0C280 		bne	.L27
 527 01f4 FFF7FEFF 		bl	dbg_check_unlock
 528              	.LBB117:
 529 01f8 3B46     		mov	r3, r7
 530              	.LVL62:
 531              	@ 216 "../chibios_2.4.x/test/testqueues.c" 1
 532 01fa 83F31188 		msr     BASEPRI, r3
 533              	@ 0 "" 2
 534              	.LVL63:
 535              		.thumb
 536              	.LBE117:
 537              		.loc 1 217 0
 538 01fe 40F20000 		movw	r0, #:lower16:rlist
 539 0202 C0F20000 		movt	r0, #:upper16:rlist
 540 0206 C369     		ldr	r3, [r0, #28]
 541              	.LVL64:
 542 0208 2868     		ldr	r0, [r5, #0]
 543 020a 9D68     		ldr	r5, [r3, #8]
 544 020c 40F20003 		movw	r3, #:lower16:thread2
 545 0210 4FF49871 		mov	r1, #304
 546 0214 6A1C     		adds	r2, r5, #1
 547 0216 C0F20003 		movt	r3, #:upper16:thread2
 548 021a 0097     		str	r7, [sp, #0]
 549 021c FFF7FEFF 		bl	chThdCreateStatic
 550 0220 40F2000C 		movw	ip, #:lower16:threads
 551 0224 C0F2000C 		movt	ip, #:upper16:threads
 552 0228 CCF80000 		str	r0, [ip, #0]
 553              	.LBB118:
 554              		.loc 1 218 0
 555 022c 2023     		movs	r3, #32
 556              	.LVL65:
 557              	@ 218 "../chibios_2.4.x/test/testqueues.c" 1
 558 022e 83F31188 		msr     BASEPRI, r3
 559              	@ 0 "" 2
 560              	.LVL66:
 561              		.thumb
 562              	.LBE118:
 563 0232 FFF7FEFF 		bl	dbg_check_lock
ARM GAS  C:\Users\z80\AppData\Local\Temp\ccRmy9tc.s 			page 11


 564              	.LVL67:
 565 0236 2169     		ldr	r1, [r4, #16]
 566 0238 E268     		ldr	r2, [r4, #12]
 567 023a A568     		ldr	r5, [r4, #8]
 568 023c 881A     		subs	r0, r1, r2
 569 023e 431B     		subs	r3, r0, r5
 570 0240 A3F10402 		sub	r2, r3, #4
 571 0244 0820     		movs	r0, #8
 572 0246 5542     		rsbs	r5, r2, #0
 573 0248 45EB0201 		adc	r1, r5, r2
 574 024c FFF7FEFF 		bl	_test_assert
 575 0250 0546     		mov	r5, r0
 576 0252 0028     		cmp	r0, #0
 577 0254 40F09680 		bne	.L28
 578 0258 FFF7FEFF 		bl	dbg_check_unlock
 579              	.LBB119:
 580 025c 2B46     		mov	r3, r5
 581              	.LVL68:
 582              	@ 218 "../chibios_2.4.x/test/testqueues.c" 1
 583 025e 83F31188 		msr     BASEPRI, r3
 584              	@ 0 "" 2
 585              	.LVL69:
 586              		.thumb
 587              	.LBE119:
 588              		.loc 1 219 0
 589 0262 FFF7FEFF 		bl	test_wait_threads
 590              	.LVL70:
 591              	.LBB120:
 592              		.loc 1 222 0
 593 0266 2023     		movs	r3, #32
 594              	.LVL71:
 595              	@ 222 "../chibios_2.4.x/test/testqueues.c" 1
 596 0268 83F31188 		msr     BASEPRI, r3
 597              	@ 0 "" 2
 598              	.LVL72:
 599              		.thumb
 600              	.LBE120:
 601 026c FFF7FEFF 		bl	dbg_check_lock
 602              	.LVL73:
 603              		.loc 1 223 0
 604 0270 2046     		mov	r0, r4
 605 0272 FFF7FEFF 		bl	chOQResetI
 606              		.loc 1 224 0
 607 0276 FFF7FEFF 		bl	dbg_check_unlock
 608              	.LBB121:
 609 027a 2B46     		mov	r3, r5
 610              	.LVL74:
 611              	@ 224 "../chibios_2.4.x/test/testqueues.c" 1
 612 027c 83F31188 		msr     BASEPRI, r3
 613              	@ 0 "" 2
 614              	.LVL75:
 615              		.thumb
 616              	.LBE121:
 617              	.LBB122:
 618              		.loc 1 225 0
 619 0280 2023     		movs	r3, #32
 620              	.LVL76:
ARM GAS  C:\Users\z80\AppData\Local\Temp\ccRmy9tc.s 			page 12


 621              	@ 225 "../chibios_2.4.x/test/testqueues.c" 1
 622 0282 83F31188 		msr     BASEPRI, r3
 623              	@ 0 "" 2
 624              	.LVL77:
 625              		.thumb
 626              	.LBE122:
 627 0286 FFF7FEFF 		bl	dbg_check_lock
 628              	.LVL78:
 629 028a 2069     		ldr	r0, [r4, #16]
 630 028c E168     		ldr	r1, [r4, #12]
 631 028e A368     		ldr	r3, [r4, #8]
 632 0290 421A     		subs	r2, r0, r1
 633 0292 D71A     		subs	r7, r2, r3
 634 0294 0920     		movs	r0, #9
 635 0296 7942     		rsbs	r1, r7, #0
 636 0298 41EB0701 		adc	r1, r1, r7
 637 029c FFF7FEFF 		bl	_test_assert
 638 02a0 0746     		mov	r7, r0
 639 02a2 0028     		cmp	r0, #0
 640 02a4 62D1     		bne	.L22
 641 02a6 FFF7FEFF 		bl	dbg_check_unlock
 642              	.LBB123:
 643 02aa 3B46     		mov	r3, r7
 644              	.LVL79:
 645              	@ 225 "../chibios_2.4.x/test/testqueues.c" 1
 646 02ac 83F31188 		msr     BASEPRI, r3
 647              	@ 0 "" 2
 648              	.LVL80:
 649              		.thumb
 650              	.LBE123:
 651              		.loc 1 228 0
 652 02b0 0222     		movs	r2, #2
 653 02b2 3146     		mov	r1, r6
 654 02b4 2046     		mov	r0, r4
 655 02b6 FFF7FEFF 		bl	chOQWriteTimeout
 656              	.LVL81:
 657              		.loc 1 229 0
 658 02ba A0F10203 		sub	r3, r0, #2
 659 02be 5A42     		rsbs	r2, r3, #0
 660 02c0 42EB0301 		adc	r1, r2, r3
 661 02c4 0A20     		movs	r0, #10
 662              	.LVL82:
 663 02c6 FFF7FEFF 		bl	_test_assert
 664              	.LVL83:
 665 02ca 0346     		mov	r3, r0
 666 02cc 0028     		cmp	r0, #0
 667 02ce 3AD1     		bne	.L6
 668              		.loc 1 230 0
 669 02d0 3146     		mov	r1, r6
 670 02d2 0222     		movs	r2, #2
 671 02d4 2046     		mov	r0, r4
 672 02d6 FFF7FEFF 		bl	chOQWriteTimeout
 673              	.LVL84:
 674              		.loc 1 231 0
 675 02da A0F10201 		sub	r1, r0, #2
 676 02de 4842     		rsbs	r0, r1, #0
 677              	.LVL85:
ARM GAS  C:\Users\z80\AppData\Local\Temp\ccRmy9tc.s 			page 13


 678 02e0 40EB0101 		adc	r1, r0, r1
 679              	.LVL86:
 680 02e4 0B20     		movs	r0, #11
 681 02e6 FFF7FEFF 		bl	_test_assert
 682 02ea 0028     		cmp	r0, #0
 683 02ec 2BD1     		bne	.L6
 684              	.LBB124:
 685              		.loc 1 232 0
 686 02ee 2023     		movs	r3, #32
 687              	.LVL87:
 688              	@ 232 "../chibios_2.4.x/test/testqueues.c" 1
 689 02f0 83F31188 		msr     BASEPRI, r3
 690              	@ 0 "" 2
 691              	.LVL88:
 692              		.thumb
 693              	.LBE124:
 694 02f4 FFF7FEFF 		bl	dbg_check_lock
 695              	.LVL89:
 696 02f8 A268     		ldr	r2, [r4, #8]
 697 02fa 0C20     		movs	r0, #12
 698 02fc D2F10101 		rsbs	r1, r2, #1
 699 0300 38BF     		it	cc
 700 0302 0021     		movcc	r1, #0
 701 0304 FFF7FEFF 		bl	_test_assert
 702 0308 C0B9     		cbnz	r0, .L21
 703 030a FFF7FEFF 		bl	dbg_check_unlock
 704              	.LBB125:
 705 030e 0023     		movs	r3, #0
 706              	.LVL90:
 707              	@ 232 "../chibios_2.4.x/test/testqueues.c" 1
 708 0310 83F31188 		msr     BASEPRI, r3
 709              	@ 0 "" 2
 710              	.LVL91:
 711              		.thumb
 712              	.LBE125:
 713              		.loc 1 235 0
 714 0314 40F20000 		movw	r0, #:lower16:.LANCHOR0
 715 0318 1946     		mov	r1, r3
 716 031a 0A22     		movs	r2, #10
 717 031c C0F20000 		movt	r0, #:upper16:.LANCHOR0
 718 0320 FFF7FEFF 		bl	chOQPutTimeout
 719              	.LVL92:
 720 0324 A0F1FF3C 		sub	ip, r0, #-1
 721 0328 DCF10000 		rsbs	r0, ip, #0
 722 032c 40EB0C01 		adc	r1, r0, ip
 723 0330 0D20     		movs	r0, #13
 724              	.LBE99:
 725              	.LBE98:
 726              		.loc 1 236 0
 727 0332 02B0     		add	sp, sp, #8
 728 0334 BDE8F041 		pop	{r4, r5, r6, r7, r8, lr}
 729              	.LBB134:
 730              	.LBB131:
 731              		.loc 1 235 0
 732 0338 FFF7FEBF 		b	_test_assert
 733              	.LVL93:
 734              	.L21:
ARM GAS  C:\Users\z80\AppData\Local\Temp\ccRmy9tc.s 			page 14


 735              		.loc 1 232 0
 736 033c FFF7FEFF 		bl	dbg_check_unlock
 737              	.LBB126:
 738 0340 0023     		movs	r3, #0
 739              	.LVL94:
 740              	@ 232 "../chibios_2.4.x/test/testqueues.c" 1
 741 0342 83F31188 		msr     BASEPRI, r3
 742              	@ 0 "" 2
 743              	.LVL95:
 744              		.thumb
 745              	.L6:
 746              	.LBE126:
 747              	.LBE131:
 748              	.LBE134:
 749              		.loc 1 236 0
 750 0346 02B0     		add	sp, sp, #8
 751 0348 BDE8F081 		pop	{r4, r5, r6, r7, r8, pc}
 752              	.LVL96:
 753              	.L25:
 754              	.LBB135:
 755              	.LBB132:
 756              		.loc 1 198 0
 757 034c FFF7FEFF 		bl	dbg_check_unlock
 758              	.LBB127:
 759 0350 3346     		mov	r3, r6
 760              	@ 198 "../chibios_2.4.x/test/testqueues.c" 1
 761 0352 83F31188 		msr     BASEPRI, r3
 762              	@ 0 "" 2
 763              	.LVL97:
 764              		.thumb
 765 0356 F6E7     		b	.L6
 766              	.LVL98:
 767              	.L24:
 768              	.LBE127:
 769              	.LBE132:
 770              	.LBE135:
 771              		.loc 1 188 0 discriminator 1
 772 0358 A968     		ldr	r1, [r5, #8]
 773 035a 0031     		adds	r1, r1, #0
 774 035c 18BF     		it	ne
 775 035e 0121     		movne	r1, #1
 776 0360 60E6     		b	.L7
 777              	.LVL99:
 778              	.L26:
 779              	.LBB136:
 780              	.LBB133:
 781              		.loc 1 188 0 is_stmt 0
 782 0362 A468     		ldr	r4, [r4, #8]
 783 0364 211C     		adds	r1, r4, #0
 784 0366 18BF     		it	ne
 785 0368 0121     		movne	r1, #1
 786 036a E9E6     		b	.L11
 787              	.LVL100:
 788              	.L22:
 789              		.loc 1 225 0 is_stmt 1
 790 036c FFF7FEFF 		bl	dbg_check_unlock
 791              	.LBB128:
ARM GAS  C:\Users\z80\AppData\Local\Temp\ccRmy9tc.s 			page 15


 792 0370 2B46     		mov	r3, r5
 793              	@ 225 "../chibios_2.4.x/test/testqueues.c" 1
 794 0372 83F31188 		msr     BASEPRI, r3
 795              	@ 0 "" 2
 796              	.LVL101:
 797              		.thumb
 798 0376 E6E7     		b	.L6
 799              	.LVL102:
 800              	.L27:
 801              	.LBE128:
 802              		.loc 1 216 0
 803 0378 FFF7FEFF 		bl	dbg_check_unlock
 804              	.LBB129:
 805 037c 4346     		mov	r3, r8
 806              	@ 216 "../chibios_2.4.x/test/testqueues.c" 1
 807 037e 83F31188 		msr     BASEPRI, r3
 808              	@ 0 "" 2
 809              	.LVL103:
 810              		.thumb
 811 0382 E0E7     		b	.L6
 812              	.LVL104:
 813              	.L28:
 814              	.LBE129:
 815              		.loc 1 218 0
 816 0384 FFF7FEFF 		bl	dbg_check_unlock
 817              	.LBB130:
 818 0388 3B46     		mov	r3, r7
 819              	@ 218 "../chibios_2.4.x/test/testqueues.c" 1
 820 038a 83F31188 		msr     BASEPRI, r3
 821              	@ 0 "" 2
 822              	.LVL105:
 823              		.thumb
 824 038e DAE7     		b	.L6
 825              	.LBE130:
 826              	.LBE133:
 827              	.LBE136:
 828              		.cfi_endproc
 829              	.LFE13:
 830              		.size	queues2_execute, .-queues2_execute
 831              		.section	.text.queues1_execute,"ax",%progbits
 832              		.align	2
 833              		.p2align 4,,15
 834              		.thumb
 835              		.thumb_func
 836              		.type	queues1_execute, %function
 837              	queues1_execute:
 838              	.LFB10:
 839              		.loc 1 101 0
 840              		.cfi_startproc
 841              		@ args = 0, pretend = 0, frame = 0
 842              		@ frame_needed = 0, uses_anonymous_args = 0
 843 0000 2DE9F043 		push	{r4, r5, r6, r7, r8, r9, lr}
 844              	.LCFI4:
 845              		.cfi_def_cfa_offset 28
 846              		.cfi_offset 14, -4
 847              		.cfi_offset 9, -8
 848              		.cfi_offset 8, -12
ARM GAS  C:\Users\z80\AppData\Local\Temp\ccRmy9tc.s 			page 16


 849              		.cfi_offset 7, -16
 850              		.cfi_offset 6, -20
 851              		.cfi_offset 5, -24
 852              		.cfi_offset 4, -28
 853              	.LBB173:
 854              		.loc 1 106 0
 855 0004 2023     		movs	r3, #32
 856              	.LVL106:
 857              	.LBE173:
 858              		.loc 1 101 0
 859 0006 83B0     		sub	sp, sp, #12
 860              	.LCFI5:
 861              		.cfi_def_cfa_offset 40
 862              	.LBB174:
 863              		.loc 1 106 0
 864              	@ 106 "../chibios_2.4.x/test/testqueues.c" 1
 865 0008 83F31188 		msr     BASEPRI, r3
 866              	@ 0 "" 2
 867              	.LVL107:
 868              		.thumb
 869              	.LBE174:
 870 000c 40F20004 		movw	r4, #:lower16:.LANCHOR1
 871 0010 C0F20004 		movt	r4, #:upper16:.LANCHOR1
 872 0014 FFF7FEFF 		bl	dbg_check_lock
 873              	.LVL108:
 874 0018 A168     		ldr	r1, [r4, #8]
 875 001a 0120     		movs	r0, #1
 876 001c D1F10101 		rsbs	r1, r1, #1
 877 0020 38BF     		it	cc
 878 0022 0021     		movcc	r1, #0
 879 0024 FFF7FEFF 		bl	_test_assert
 880 0028 0546     		mov	r5, r0
 881 002a 0028     		cmp	r0, #0
 882 002c 40F09581 		bne	.L41
 883              	.LBB175:
 884              	.LBB176:
 885 0030 FFF7FEFF 		bl	dbg_check_unlock
 886              	.LBB177:
 887 0034 2B46     		mov	r3, r5
 888              	.LVL109:
 889              	@ 106 "../chibios_2.4.x/test/testqueues.c" 1
 890 0036 83F31188 		msr     BASEPRI, r3
 891              	@ 0 "" 2
 892              	.LVL110:
 893              		.thumb
 894              	.LBE177:
 895              	.LBB178:
 896              		.loc 1 109 0
 897 003a 2023     		movs	r3, #32
 898              	.LVL111:
 899              	@ 109 "../chibios_2.4.x/test/testqueues.c" 1
 900 003c 83F31188 		msr     BASEPRI, r3
 901              	@ 0 "" 2
 902              	.LVL112:
 903              		.thumb
 904              	.LBE178:
 905 0040 FFF7FEFF 		bl	dbg_check_lock
ARM GAS  C:\Users\z80\AppData\Local\Temp\ccRmy9tc.s 			page 17


 906              	.LVL113:
 907              		.loc 1 111 0
 908 0044 4121     		movs	r1, #65
 909 0046 2046     		mov	r0, r4
 910 0048 FFF7FEFF 		bl	chIQPutI
 911              	.LVL114:
 912 004c 4221     		movs	r1, #66
 913 004e 2046     		mov	r0, r4
 914 0050 FFF7FEFF 		bl	chIQPutI
 915              	.LVL115:
 916 0054 4321     		movs	r1, #67
 917 0056 2046     		mov	r0, r4
 918 0058 FFF7FEFF 		bl	chIQPutI
 919              	.LVL116:
 920 005c 4421     		movs	r1, #68
 921 005e 2046     		mov	r0, r4
 922 0060 FFF7FEFF 		bl	chIQPutI
 923              	.LVL117:
 924              		.loc 1 112 0
 925 0064 FFF7FEFF 		bl	dbg_check_unlock
 926              	.LBB179:
 927 0068 2B46     		mov	r3, r5
 928              	.LVL118:
 929              	@ 112 "../chibios_2.4.x/test/testqueues.c" 1
 930 006a 83F31188 		msr     BASEPRI, r3
 931              	@ 0 "" 2
 932              	.LVL119:
 933              		.thumb
 934              	.LBE179:
 935              	.LBB180:
 936              		.loc 1 113 0
 937 006e 2023     		movs	r3, #32
 938              	.LVL120:
 939              	@ 113 "../chibios_2.4.x/test/testqueues.c" 1
 940 0070 83F31188 		msr     BASEPRI, r3
 941              	@ 0 "" 2
 942              	.LVL121:
 943              		.thumb
 944              	.LBE180:
 945 0074 FFF7FEFF 		bl	dbg_check_lock
 946              	.LVL122:
 947 0078 6269     		ldr	r2, [r4, #20]
 948 007a A369     		ldr	r3, [r4, #24]
 949 007c 9A42     		cmp	r2, r3
 950 007e 18BF     		it	ne
 951 0080 2946     		movne	r1, r5
 952 0082 00F07E81 		beq	.L43
 953              	.L32:
 954 0086 0220     		movs	r0, #2
 955 0088 FFF7FEFF 		bl	_test_assert
 956 008c 0646     		mov	r6, r0
 957 008e 0028     		cmp	r0, #0
 958 0090 40F06381 		bne	.L41
 959 0094 FFF7FEFF 		bl	dbg_check_unlock
 960              	.LBB181:
 961 0098 3346     		mov	r3, r6
 962              	.LVL123:
ARM GAS  C:\Users\z80\AppData\Local\Temp\ccRmy9tc.s 			page 18


 963              	@ 113 "../chibios_2.4.x/test/testqueues.c" 1
 964 009a 83F31188 		msr     BASEPRI, r3
 965              	@ 0 "" 2
 966              	.LVL124:
 967              		.thumb
 968              	.LBE181:
 969              	.LBB182:
 970              		.loc 1 114 0
 971 009e 2023     		movs	r3, #32
 972              	.LVL125:
 973              	@ 114 "../chibios_2.4.x/test/testqueues.c" 1
 974 00a0 83F31188 		msr     BASEPRI, r3
 975              	@ 0 "" 2
 976              	.LVL126:
 977              		.thumb
 978              	.LBE182:
 979 00a4 40F20005 		movw	r5, #:lower16:.LANCHOR1
 980 00a8 C0F20005 		movt	r5, #:upper16:.LANCHOR1
 981 00ac FFF7FEFF 		bl	dbg_check_lock
 982              	.LVL127:
 983 00b0 3146     		mov	r1, r6
 984 00b2 2846     		mov	r0, r5
 985 00b4 FFF7FEFF 		bl	chIQPutI
 986 00b8 0430     		adds	r0, r0, #4
 987 00ba 14BF     		ite	ne
 988 00bc 0021     		movne	r1, #0
 989 00be 0121     		moveq	r1, #1
 990 00c0 0320     		movs	r0, #3
 991 00c2 FFF7FEFF 		bl	_test_assert
 992 00c6 0746     		mov	r7, r0
 993 00c8 0028     		cmp	r0, #0
 994 00ca 40F05481 		bne	.L44
 995 00ce FFF7FEFF 		bl	dbg_check_unlock
 996              	.LBB183:
 997 00d2 3B46     		mov	r3, r7
 998              	.LVL128:
 999              	@ 114 "../chibios_2.4.x/test/testqueues.c" 1
 1000 00d4 83F31188 		msr     BASEPRI, r3
 1001              	@ 0 "" 2
 1002              	.LVL129:
 1003              		.thumb
 1004              	.LBE183:
 1005              		.loc 1 118 0
 1006 00d8 4FF0FF31 		mov	r1, #-1
 1007 00dc 2846     		mov	r0, r5
 1008 00de FFF7FEFF 		bl	chIQGetTimeout
 1009              	.LVL130:
 1010 00e2 C0B2     		uxtb	r0, r0
 1011 00e4 FFF7FEFF 		bl	test_emit_token
 1012              	.LVL131:
 1013 00e8 4FF0FF31 		mov	r1, #-1
 1014 00ec 2846     		mov	r0, r5
 1015 00ee FFF7FEFF 		bl	chIQGetTimeout
 1016 00f2 C0B2     		uxtb	r0, r0
 1017 00f4 FFF7FEFF 		bl	test_emit_token
 1018              	.LVL132:
 1019 00f8 4FF0FF31 		mov	r1, #-1
ARM GAS  C:\Users\z80\AppData\Local\Temp\ccRmy9tc.s 			page 19


 1020 00fc 2846     		mov	r0, r5
 1021 00fe FFF7FEFF 		bl	chIQGetTimeout
 1022 0102 C0B2     		uxtb	r0, r0
 1023 0104 FFF7FEFF 		bl	test_emit_token
 1024              	.LVL133:
 1025 0108 4FF0FF31 		mov	r1, #-1
 1026 010c 2846     		mov	r0, r5
 1027 010e FFF7FEFF 		bl	chIQGetTimeout
 1028 0112 C0B2     		uxtb	r0, r0
 1029 0114 FFF7FEFF 		bl	test_emit_token
 1030              	.LVL134:
 1031              	.LBB184:
 1032              		.loc 1 119 0
 1033 0118 2023     		movs	r3, #32
 1034              	.LVL135:
 1035              	@ 119 "../chibios_2.4.x/test/testqueues.c" 1
 1036 011a 83F31188 		msr     BASEPRI, r3
 1037              	@ 0 "" 2
 1038              	.LVL136:
 1039              		.thumb
 1040              	.LBE184:
 1041 011e FFF7FEFF 		bl	dbg_check_lock
 1042              	.LVL137:
 1043 0122 AE68     		ldr	r6, [r5, #8]
 1044 0124 0420     		movs	r0, #4
 1045 0126 D6F10101 		rsbs	r1, r6, #1
 1046 012a 38BF     		it	cc
 1047 012c 0021     		movcc	r1, #0
 1048 012e FFF7FEFF 		bl	_test_assert
 1049 0132 0646     		mov	r6, r0
 1050 0134 0028     		cmp	r0, #0
 1051 0136 40F01881 		bne	.L45
 1052 013a FFF7FEFF 		bl	dbg_check_unlock
 1053              	.LBB185:
 1054 013e 3346     		mov	r3, r6
 1055              	.LVL138:
 1056              	@ 119 "../chibios_2.4.x/test/testqueues.c" 1
 1057 0140 83F31188 		msr     BASEPRI, r3
 1058              	@ 0 "" 2
 1059              	.LVL139:
 1060              		.thumb
 1061              	.LBE185:
 1062              		.loc 1 120 0
 1063 0144 40F20001 		movw	r1, #:lower16:.LC0
 1064 0148 0520     		movs	r0, #5
 1065 014a C0F20001 		movt	r1, #:upper16:.LC0
 1066 014e FFF7FEFF 		bl	_test_assert_sequence
 1067              	.LVL140:
 1068 0152 0646     		mov	r6, r0
 1069 0154 0028     		cmp	r0, #0
 1070 0156 40F00581 		bne	.L29
 1071              	.LBB186:
 1072              		.loc 1 123 0
 1073 015a 2023     		movs	r3, #32
 1074              	.LVL141:
 1075              	@ 123 "../chibios_2.4.x/test/testqueues.c" 1
 1076 015c 83F31188 		msr     BASEPRI, r3
ARM GAS  C:\Users\z80\AppData\Local\Temp\ccRmy9tc.s 			page 20


 1077              	@ 0 "" 2
 1078              	.LVL142:
 1079              		.thumb
 1080              	.LBE186:
 1081 0160 FFF7FEFF 		bl	dbg_check_lock
 1082              	.LVL143:
 1083              		.loc 1 125 0
 1084 0164 4121     		movs	r1, #65
 1085 0166 2846     		mov	r0, r5
 1086 0168 FFF7FEFF 		bl	chIQPutI
 1087              	.LVL144:
 1088 016c 4221     		movs	r1, #66
 1089 016e 2846     		mov	r0, r5
 1090 0170 FFF7FEFF 		bl	chIQPutI
 1091              	.LVL145:
 1092 0174 4321     		movs	r1, #67
 1093 0176 2846     		mov	r0, r5
 1094 0178 FFF7FEFF 		bl	chIQPutI
 1095              	.LVL146:
 1096 017c 4421     		movs	r1, #68
 1097 017e 2846     		mov	r0, r5
 1098 0180 FFF7FEFF 		bl	chIQPutI
 1099              	.LVL147:
 1100              		.loc 1 126 0
 1101 0184 FFF7FEFF 		bl	dbg_check_unlock
 1102              	.LBB187:
 1103 0188 3346     		mov	r3, r6
 1104              	.LVL148:
 1105              	@ 126 "../chibios_2.4.x/test/testqueues.c" 1
 1106 018a 83F31188 		msr     BASEPRI, r3
 1107              	@ 0 "" 2
 1108              	.LVL149:
 1109              		.thumb
 1110              	.LBE187:
 1111              		.loc 1 129 0
 1112 018e 40F20006 		movw	r6, #:lower16:wa
 1113 0192 C0F20006 		movt	r6, #:upper16:wa
 1114 0196 7768     		ldr	r7, [r6, #4]
 1115 0198 0822     		movs	r2, #8
 1116 019a 3946     		mov	r1, r7
 1117 019c 2846     		mov	r0, r5
 1118 019e FFF7FEFF 		bl	chIQReadTimeout
 1119              	.LVL150:
 1120              		.loc 1 130 0
 1121 01a2 A0F10401 		sub	r1, r0, #4
 1122 01a6 D1F10008 		rsbs	r8, r1, #0
 1123 01aa 48EB0101 		adc	r1, r8, r1
 1124 01ae 0620     		movs	r0, #6
 1125              	.LVL151:
 1126 01b0 FFF7FEFF 		bl	_test_assert
 1127 01b4 8046     		mov	r8, r0
 1128 01b6 0028     		cmp	r0, #0
 1129 01b8 40F0D480 		bne	.L29
 1130              	.LBB188:
 1131              		.loc 1 131 0
 1132 01bc 2023     		movs	r3, #32
 1133              	.LVL152:
ARM GAS  C:\Users\z80\AppData\Local\Temp\ccRmy9tc.s 			page 21


 1134              	@ 131 "../chibios_2.4.x/test/testqueues.c" 1
 1135 01be 83F31188 		msr     BASEPRI, r3
 1136              	@ 0 "" 2
 1137              	.LVL153:
 1138              		.thumb
 1139              	.LBE188:
 1140 01c2 FFF7FEFF 		bl	dbg_check_lock
 1141              	.LVL154:
 1142 01c6 AA68     		ldr	r2, [r5, #8]
 1143 01c8 0720     		movs	r0, #7
 1144 01ca D2F10101 		rsbs	r1, r2, #1
 1145 01ce 38BF     		it	cc
 1146 01d0 0021     		movcc	r1, #0
 1147 01d2 FFF7FEFF 		bl	_test_assert
 1148 01d6 8146     		mov	r9, r0
 1149 01d8 0028     		cmp	r0, #0
 1150 01da 40F0D780 		bne	.L42
 1151 01de FFF7FEFF 		bl	dbg_check_unlock
 1152              	.LBB189:
 1153 01e2 4B46     		mov	r3, r9
 1154              	.LVL155:
 1155              	@ 131 "../chibios_2.4.x/test/testqueues.c" 1
 1156 01e4 83F31188 		msr     BASEPRI, r3
 1157              	@ 0 "" 2
 1158              	.LVL156:
 1159              		.thumb
 1160              	.LBE189:
 1161              	.LBB190:
 1162              		.loc 1 134 0
 1163 01e8 2023     		movs	r3, #32
 1164              	.LVL157:
 1165              	@ 134 "../chibios_2.4.x/test/testqueues.c" 1
 1166 01ea 83F31188 		msr     BASEPRI, r3
 1167              	@ 0 "" 2
 1168              	.LVL158:
 1169              		.thumb
 1170              	.LBE190:
 1171 01ee FFF7FEFF 		bl	dbg_check_lock
 1172              	.LVL159:
 1173              		.loc 1 136 0
 1174 01f2 4121     		movs	r1, #65
 1175 01f4 2846     		mov	r0, r5
 1176 01f6 FFF7FEFF 		bl	chIQPutI
 1177              	.LVL160:
 1178 01fa 4221     		movs	r1, #66
 1179 01fc 2846     		mov	r0, r5
 1180 01fe FFF7FEFF 		bl	chIQPutI
 1181              	.LVL161:
 1182 0202 4321     		movs	r1, #67
 1183 0204 2846     		mov	r0, r5
 1184 0206 FFF7FEFF 		bl	chIQPutI
 1185              	.LVL162:
 1186 020a 4421     		movs	r1, #68
 1187 020c 2846     		mov	r0, r5
 1188 020e FFF7FEFF 		bl	chIQPutI
 1189              	.LVL163:
 1190              		.loc 1 137 0
ARM GAS  C:\Users\z80\AppData\Local\Temp\ccRmy9tc.s 			page 22


 1191 0212 FFF7FEFF 		bl	dbg_check_unlock
 1192              	.LBB191:
 1193 0216 4B46     		mov	r3, r9
 1194              	.LVL164:
 1195              	@ 137 "../chibios_2.4.x/test/testqueues.c" 1
 1196 0218 83F31188 		msr     BASEPRI, r3
 1197              	@ 0 "" 2
 1198              	.LVL165:
 1199              		.thumb
 1200              	.LBE191:
 1201              		.loc 1 140 0
 1202 021c 0222     		movs	r2, #2
 1203 021e 3946     		mov	r1, r7
 1204 0220 2846     		mov	r0, r5
 1205 0222 FFF7FEFF 		bl	chIQReadTimeout
 1206              	.LVL166:
 1207              		.loc 1 141 0
 1208 0226 A0F10200 		sub	r0, r0, #2
 1209              	.LVL167:
 1210 022a 4342     		rsbs	r3, r0, #0
 1211 022c 43EB0001 		adc	r1, r3, r0
 1212 0230 0820     		movs	r0, #8
 1213              	.LVL168:
 1214 0232 FFF7FEFF 		bl	_test_assert
 1215 0236 0028     		cmp	r0, #0
 1216 0238 40F09480 		bne	.L29
 1217              		.loc 1 142 0
 1218 023c 0222     		movs	r2, #2
 1219 023e 0346     		mov	r3, r0
 1220 0240 3946     		mov	r1, r7
 1221 0242 2846     		mov	r0, r5
 1222 0244 FFF7FEFF 		bl	chIQReadTimeout
 1223              	.LVL169:
 1224              		.loc 1 143 0
 1225 0248 A0F10201 		sub	r1, r0, #2
 1226 024c D1F1000C 		rsbs	ip, r1, #0
 1227 0250 4CEB0101 		adc	r1, ip, r1
 1228 0254 0920     		movs	r0, #9
 1229              	.LVL170:
 1230 0256 FFF7FEFF 		bl	_test_assert
 1231 025a 8046     		mov	r8, r0
 1232 025c 0028     		cmp	r0, #0
 1233 025e 40F08180 		bne	.L29
 1234              	.LBB192:
 1235              		.loc 1 144 0
 1236 0262 2023     		movs	r3, #32
 1237              	.LVL171:
 1238              	@ 144 "../chibios_2.4.x/test/testqueues.c" 1
 1239 0264 83F31188 		msr     BASEPRI, r3
 1240              	@ 0 "" 2
 1241              	.LVL172:
 1242              		.thumb
 1243              	.LBE192:
 1244 0268 FFF7FEFF 		bl	dbg_check_lock
 1245              	.LVL173:
 1246 026c AF68     		ldr	r7, [r5, #8]
 1247 026e 0A20     		movs	r0, #10
ARM GAS  C:\Users\z80\AppData\Local\Temp\ccRmy9tc.s 			page 23


 1248 0270 D7F10101 		rsbs	r1, r7, #1
 1249 0274 38BF     		it	cc
 1250 0276 0021     		movcc	r1, #0
 1251 0278 FFF7FEFF 		bl	_test_assert
 1252 027c 0746     		mov	r7, r0
 1253 027e 0028     		cmp	r0, #0
 1254 0280 40F08480 		bne	.L42
 1255 0284 FFF7FEFF 		bl	dbg_check_unlock
 1256              	.LBB193:
 1257 0288 3B46     		mov	r3, r7
 1258              	.LVL174:
 1259              	@ 144 "../chibios_2.4.x/test/testqueues.c" 1
 1260 028a 83F31188 		msr     BASEPRI, r3
 1261              	@ 0 "" 2
 1262              	.LVL175:
 1263              		.thumb
 1264              	.LBE193:
 1265              	.LBB194:
 1266              		.loc 1 147 0
 1267 028e 2023     		movs	r3, #32
 1268              	.LVL176:
 1269              	@ 147 "../chibios_2.4.x/test/testqueues.c" 1
 1270 0290 83F31188 		msr     BASEPRI, r3
 1271              	@ 0 "" 2
 1272              	.LVL177:
 1273              		.thumb
 1274              	.LBE194:
 1275 0294 FFF7FEFF 		bl	dbg_check_lock
 1276              	.LVL178:
 1277              		.loc 1 148 0
 1278 0298 3946     		mov	r1, r7
 1279 029a 2846     		mov	r0, r5
 1280 029c FFF7FEFF 		bl	chIQPutI
 1281              		.loc 1 149 0
 1282 02a0 2846     		mov	r0, r5
 1283 02a2 FFF7FEFF 		bl	chIQResetI
 1284              		.loc 1 150 0
 1285 02a6 FFF7FEFF 		bl	dbg_check_unlock
 1286              	.LBB195:
 1287 02aa 3B46     		mov	r3, r7
 1288              	.LVL179:
 1289              	@ 150 "../chibios_2.4.x/test/testqueues.c" 1
 1290 02ac 83F31188 		msr     BASEPRI, r3
 1291              	@ 0 "" 2
 1292              	.LVL180:
 1293              		.thumb
 1294              	.LBE195:
 1295              	.LBB196:
 1296              		.loc 1 151 0
 1297 02b0 2023     		movs	r3, #32
 1298              	.LVL181:
 1299              	@ 151 "../chibios_2.4.x/test/testqueues.c" 1
 1300 02b2 83F31188 		msr     BASEPRI, r3
 1301              	@ 0 "" 2
 1302              	.LVL182:
 1303              		.thumb
 1304              	.LBE196:
ARM GAS  C:\Users\z80\AppData\Local\Temp\ccRmy9tc.s 			page 24


 1305 02b6 FFF7FEFF 		bl	dbg_check_lock
 1306              	.LVL183:
 1307 02ba AA68     		ldr	r2, [r5, #8]
 1308 02bc 0B20     		movs	r0, #11
 1309 02be D2F10101 		rsbs	r1, r2, #1
 1310 02c2 38BF     		it	cc
 1311 02c4 0021     		movcc	r1, #0
 1312 02c6 FFF7FEFF 		bl	_test_assert
 1313 02ca 0028     		cmp	r0, #0
 1314 02cc 45D1     		bne	.L41
 1315 02ce FFF7FEFF 		bl	dbg_check_unlock
 1316              	.LBB197:
 1317 02d2 0023     		movs	r3, #0
 1318              	.LVL184:
 1319              	@ 151 "../chibios_2.4.x/test/testqueues.c" 1
 1320 02d4 83F31188 		msr     BASEPRI, r3
 1321              	@ 0 "" 2
 1322              	.LVL185:
 1323              		.thumb
 1324              	.LBE197:
 1325              		.loc 1 152 0
 1326 02d8 40F20005 		movw	r5, #:lower16:rlist
 1327 02dc C0F20005 		movt	r5, #:upper16:rlist
 1328 02e0 E869     		ldr	r0, [r5, #28]
 1329 02e2 1D46     		mov	r5, r3
 1330 02e4 8268     		ldr	r2, [r0, #8]
 1331 02e6 40F20003 		movw	r3, #:lower16:thread1
 1332              	.LVL186:
 1333 02ea 3068     		ldr	r0, [r6, #0]
 1334 02ec 4FF49871 		mov	r1, #304
 1335 02f0 0132     		adds	r2, r2, #1
 1336 02f2 C0F20003 		movt	r3, #:upper16:thread1
 1337 02f6 0095     		str	r5, [sp, #0]
 1338 02f8 FFF7FEFF 		bl	chThdCreateStatic
 1339 02fc 40F2000C 		movw	ip, #:lower16:threads
 1340 0300 C0F2000C 		movt	ip, #:upper16:threads
 1341 0304 CCF80000 		str	r0, [ip, #0]
 1342              	.LBB198:
 1343              		.loc 1 153 0
 1344 0308 2023     		movs	r3, #32
 1345              	.LVL187:
 1346              	@ 153 "../chibios_2.4.x/test/testqueues.c" 1
 1347 030a 83F31188 		msr     BASEPRI, r3
 1348              	@ 0 "" 2
 1349              	.LVL188:
 1350              		.thumb
 1351              	.LBE198:
 1352 030e FFF7FEFF 		bl	dbg_check_lock
 1353              	.LVL189:
 1354 0312 A168     		ldr	r1, [r4, #8]
 1355 0314 0C20     		movs	r0, #12
 1356 0316 4B1B     		subs	r3, r1, r5
 1357 0318 5C42     		rsbs	r4, r3, #0
 1358 031a 44EB0301 		adc	r1, r4, r3
 1359 031e FFF7FEFF 		bl	_test_assert
 1360 0322 0446     		mov	r4, r0
 1361 0324 0028     		cmp	r0, #0
ARM GAS  C:\Users\z80\AppData\Local\Temp\ccRmy9tc.s 			page 25


 1362 0326 37D1     		bne	.L46
 1363 0328 FFF7FEFF 		bl	dbg_check_unlock
 1364              	.LBB199:
 1365 032c 2346     		mov	r3, r4
 1366              	.LVL190:
 1367              	@ 153 "../chibios_2.4.x/test/testqueues.c" 1
 1368 032e 83F31188 		msr     BASEPRI, r3
 1369              	@ 0 "" 2
 1370              	.LVL191:
 1371              		.thumb
 1372              	.LBE199:
 1373              		.loc 1 154 0
 1374 0332 FFF7FEFF 		bl	test_wait_threads
 1375              	.LVL192:
 1376              		.loc 1 157 0
 1377 0336 40F20000 		movw	r0, #:lower16:.LANCHOR1
 1378 033a 0A21     		movs	r1, #10
 1379 033c C0F20000 		movt	r0, #:upper16:.LANCHOR1
 1380 0340 FFF7FEFF 		bl	chIQGetTimeout
 1381 0344 A0F1FF33 		sub	r3, r0, #-1
 1382 0348 5942     		rsbs	r1, r3, #0
 1383 034a 41EB0301 		adc	r1, r1, r3
 1384 034e 0D20     		movs	r0, #13
 1385              	.LBE176:
 1386              	.LBE175:
 1387              		.loc 1 158 0
 1388 0350 03B0     		add	sp, sp, #12
 1389 0352 BDE8F043 		pop	{r4, r5, r6, r7, r8, r9, lr}
 1390              	.LBB207:
 1391              	.LBB205:
 1392              		.loc 1 157 0
 1393 0356 FFF7FEBF 		b	_test_assert
 1394              	.LVL193:
 1395              	.L41:
 1396              		.loc 1 151 0
 1397 035a FFF7FEFF 		bl	dbg_check_unlock
 1398              	.LBB200:
 1399 035e 0023     		movs	r3, #0
 1400              	.LVL194:
 1401              	@ 151 "../chibios_2.4.x/test/testqueues.c" 1
 1402 0360 83F31188 		msr     BASEPRI, r3
 1403              	@ 0 "" 2
 1404              	.LVL195:
 1405              		.thumb
 1406              	.L29:
 1407              	.LBE200:
 1408              	.LBE205:
 1409              	.LBE207:
 1410              		.loc 1 158 0
 1411 0364 03B0     		add	sp, sp, #12
 1412 0366 BDE8F083 		pop	{r4, r5, r6, r7, r8, r9, pc}
 1413              	.LVL196:
 1414              	.L45:
 1415              	.LBB208:
 1416              	.LBB206:
 1417              		.loc 1 119 0
 1418 036a FFF7FEFF 		bl	dbg_check_unlock
ARM GAS  C:\Users\z80\AppData\Local\Temp\ccRmy9tc.s 			page 26


 1419              	.LBB201:
 1420 036e 3B46     		mov	r3, r7
 1421              	@ 119 "../chibios_2.4.x/test/testqueues.c" 1
 1422 0370 83F31188 		msr     BASEPRI, r3
 1423              	@ 0 "" 2
 1424              	.LVL197:
 1425              		.thumb
 1426 0374 F6E7     		b	.L29
 1427              	.LVL198:
 1428              	.L44:
 1429              	.LBE201:
 1430              		.loc 1 114 0
 1431 0376 FFF7FEFF 		bl	dbg_check_unlock
 1432              	.LBB202:
 1433 037a 3346     		mov	r3, r6
 1434              	@ 114 "../chibios_2.4.x/test/testqueues.c" 1
 1435 037c 83F31188 		msr     BASEPRI, r3
 1436              	@ 0 "" 2
 1437              	.LVL199:
 1438              		.thumb
 1439 0380 F0E7     		b	.L29
 1440              	.LVL200:
 1441              	.L43:
 1442              	.LBE202:
 1443              		.loc 1 101 0
 1444 0382 A068     		ldr	r0, [r4, #8]
 1445 0384 011C     		adds	r1, r0, #0
 1446 0386 18BF     		it	ne
 1447 0388 0121     		movne	r1, #1
 1448 038a 7CE6     		b	.L32
 1449              	.L42:
 1450              		.loc 1 144 0
 1451 038c FFF7FEFF 		bl	dbg_check_unlock
 1452              	.LBB203:
 1453 0390 4346     		mov	r3, r8
 1454              	@ 144 "../chibios_2.4.x/test/testqueues.c" 1
 1455 0392 83F31188 		msr     BASEPRI, r3
 1456              	@ 0 "" 2
 1457              	.LVL201:
 1458              		.thumb
 1459 0396 E5E7     		b	.L29
 1460              	.LVL202:
 1461              	.L46:
 1462              	.LBE203:
 1463              		.loc 1 153 0
 1464 0398 FFF7FEFF 		bl	dbg_check_unlock
 1465              	.LBB204:
 1466 039c 2B46     		mov	r3, r5
 1467              	@ 153 "../chibios_2.4.x/test/testqueues.c" 1
 1468 039e 83F31188 		msr     BASEPRI, r3
 1469              	@ 0 "" 2
 1470              	.LVL203:
 1471              		.thumb
 1472 03a2 DFE7     		b	.L29
 1473              	.LBE204:
 1474              	.LBE206:
 1475              	.LBE208:
ARM GAS  C:\Users\z80\AppData\Local\Temp\ccRmy9tc.s 			page 27


 1476              		.cfi_endproc
 1477              	.LFE10:
 1478              		.size	queues1_execute, .-queues1_execute
 1479              		.global	patternqueues
 1480              		.global	testqueues2
 1481              		.global	testqueues1
 1482 03a4 AFF30080 		.section	.rodata.testqueues1,"a",%progbits
 1482      AFF30080 
 1482      AFF30080 
 1483              		.align	2
 1484              		.type	testqueues1, %object
 1485              		.size	testqueues1, 16
 1486              	testqueues1:
 1487 0000 20000000 		.word	.LC2
 1488 0004 00000000 		.word	queues1_setup
 1489 0008 00000000 		.word	0
 1490 000c 00000000 		.word	queues1_execute
 1491              		.section	.rodata.testqueues2,"a",%progbits
 1492              		.align	2
 1493              		.type	testqueues2, %object
 1494              		.size	testqueues2, 16
 1495              	testqueues2:
 1496 0000 08000000 		.word	.LC1
 1497 0004 00000000 		.word	queues2_setup
 1498 0008 00000000 		.word	0
 1499 000c 00000000 		.word	queues2_execute
 1500              		.section	.rodata.str1.4,"aMS",%progbits,1
 1501              		.align	2
 1502              	.LC0:
 1503 0000 41424344 		.ascii	"ABCD\000"
 1503      00
 1504 0005 000000   		.space	3
 1505              	.LC1:
 1506 0008 51756575 		.ascii	"Queues, output queues\000"
 1506      65732C20 
 1506      6F757470 
 1506      75742071 
 1506      75657565 
 1507 001e 0000     		.space	2
 1508              	.LC2:
 1509 0020 51756575 		.ascii	"Queues, input queues\000"
 1509      65732C20 
 1509      696E7075 
 1509      74207175 
 1509      65756573 
 1510 0035 000000   		.section	.rodata.patternqueues,"a",%progbits
 1511              		.align	2
 1512              		.type	patternqueues, %object
 1513              		.size	patternqueues, 12
 1514              	patternqueues:
 1515 0000 00000000 		.word	testqueues1
 1516 0004 00000000 		.word	testqueues2
 1517 0008 00000000 		.word	0
 1518              		.section	.data.oq,"aw",%progbits
 1519              		.align	2
 1520              		.set	.LANCHOR0,. + 0
 1521              		.type	oq, %object
ARM GAS  C:\Users\z80\AppData\Local\Temp\ccRmy9tc.s 			page 28


 1522              		.size	oq, 32
 1523              	oq:
 1524 0000 00000000 		.word	oq
 1525 0004 00000000 		.word	oq
 1526 0008 04000000 		.word	4
 1527 000c 30010000 		.word	test+304
 1528 0010 34010000 		.word	test+308
 1529 0014 30010000 		.word	test+304
 1530 0018 30010000 		.word	test+304
 1531 001c 00000000 		.word	notify
 1532              		.section	.data.iq,"aw",%progbits
 1533              		.align	2
 1534              		.set	.LANCHOR1,. + 0
 1535              		.type	iq, %object
 1536              		.size	iq, 32
 1537              	iq:
 1538 0000 00000000 		.word	iq
 1539 0004 00000000 		.word	iq
 1540 0008 00000000 		.word	0
 1541 000c 00000000 		.word	test
 1542 0010 04000000 		.word	test+4
 1543 0014 00000000 		.word	test
 1544 0018 00000000 		.word	test
 1545 001c 00000000 		.word	notify
 1546              		.text
 1547              	.Letext0:
 1548              		.file 2 "c:\\programs\\codesourcery\\2011.03-56\\bin\\../lib/gcc/arm-none-eabi/4.6.3/include/stdde
 1549              		.file 3 "c:\\programs\\codesourcery\\2011.03-56\\bin\\../lib/gcc/arm-none-eabi/4.6.3/../../../../a
 1550              		.file 4 "../chibios_2.4.x/os/ports/GCC/ARMCMx/chtypes.h"
 1551              		.file 5 "../chibios_2.4.x/os/kernel/include/chlists.h"
 1552              		.file 6 "../chibios_2.4.x/os/kernel/include/chthreads.h"
 1553              		.file 7 "../chibios_2.4.x/os/ports/GCC/ARMCMx/chcore_v7m.h"
 1554              		.file 8 "../chibios_2.4.x/os/kernel/include/chschd.h"
 1555              		.file 9 "../chibios_2.4.x/os/kernel/include/chmtx.h"
 1556              		.file 10 "../chibios_2.4.x/os/kernel/include/chqueues.h"
 1557              		.file 11 "../chibios_2.4.x/test/test.h"
 1558              		.section	.debug_info,"",%progbits
 1559              	.Ldebug_info0:
 1560 0000 E9100000 		.4byte	0x10e9
 1561 0004 0200     		.2byte	0x2
 1562 0006 00000000 		.4byte	.Ldebug_abbrev0
 1563 000a 04       		.byte	0x4
 1564 000b 01       		.uleb128 0x1
 1565 000c FB020000 		.4byte	.LASF92
 1566 0010 01       		.byte	0x1
 1567 0011 AC030000 		.4byte	.LASF93
 1568 0015 A4000000 		.4byte	.LASF94
 1569 0019 00000000 		.4byte	0
 1570 001d 00000000 		.4byte	0
 1571 0021 10010000 		.4byte	.Ldebug_ranges0+0x110
 1572 0025 00000000 		.4byte	.Ldebug_line0
 1573 0029 02       		.uleb128 0x2
 1574 002a 04       		.byte	0x4
 1575 002b 05       		.byte	0x5
 1576 002c 696E7400 		.ascii	"int\000"
 1577 0030 03       		.uleb128 0x3
 1578 0031 06000000 		.4byte	.LASF2
ARM GAS  C:\Users\z80\AppData\Local\Temp\ccRmy9tc.s 			page 29


 1579 0035 02       		.byte	0x2
 1580 0036 D4       		.byte	0xd4
 1581 0037 3B000000 		.4byte	0x3b
 1582 003b 04       		.uleb128 0x4
 1583 003c 04       		.byte	0x4
 1584 003d 07       		.byte	0x7
 1585 003e 1E010000 		.4byte	.LASF0
 1586 0042 04       		.uleb128 0x4
 1587 0043 01       		.byte	0x1
 1588 0044 06       		.byte	0x6
 1589 0045 89000000 		.4byte	.LASF1
 1590 0049 03       		.uleb128 0x3
 1591 004a 74030000 		.4byte	.LASF3
 1592 004e 03       		.byte	0x3
 1593 004f 2A       		.byte	0x2a
 1594 0050 54000000 		.4byte	0x54
 1595 0054 04       		.uleb128 0x4
 1596 0055 01       		.byte	0x1
 1597 0056 08       		.byte	0x8
 1598 0057 80020000 		.4byte	.LASF4
 1599 005b 04       		.uleb128 0x4
 1600 005c 02       		.byte	0x2
 1601 005d 05       		.byte	0x5
 1602 005e 98020000 		.4byte	.LASF5
 1603 0062 04       		.uleb128 0x4
 1604 0063 02       		.byte	0x2
 1605 0064 07       		.byte	0x7
 1606 0065 53010000 		.4byte	.LASF6
 1607 0069 03       		.uleb128 0x3
 1608 006a 78020000 		.4byte	.LASF7
 1609 006e 03       		.byte	0x3
 1610 006f 4F       		.byte	0x4f
 1611 0070 74000000 		.4byte	0x74
 1612 0074 04       		.uleb128 0x4
 1613 0075 04       		.byte	0x4
 1614 0076 05       		.byte	0x5
 1615 0077 D1000000 		.4byte	.LASF8
 1616 007b 03       		.uleb128 0x3
 1617 007c EA020000 		.4byte	.LASF9
 1618 0080 03       		.byte	0x3
 1619 0081 50       		.byte	0x50
 1620 0082 86000000 		.4byte	0x86
 1621 0086 04       		.uleb128 0x4
 1622 0087 04       		.byte	0x4
 1623 0088 07       		.byte	0x7
 1624 0089 2B010000 		.4byte	.LASF10
 1625 008d 04       		.uleb128 0x4
 1626 008e 08       		.byte	0x8
 1627 008f 05       		.byte	0x5
 1628 0090 7B000000 		.4byte	.LASF11
 1629 0094 03       		.uleb128 0x3
 1630 0095 14000000 		.4byte	.LASF12
 1631 0099 03       		.byte	0x3
 1632 009a 78       		.byte	0x78
 1633 009b 9F000000 		.4byte	0x9f
 1634 009f 04       		.uleb128 0x4
 1635 00a0 08       		.byte	0x8
ARM GAS  C:\Users\z80\AppData\Local\Temp\ccRmy9tc.s 			page 30


 1636 00a1 07       		.byte	0x7
 1637 00a2 37000000 		.4byte	.LASF13
 1638 00a6 03       		.uleb128 0x3
 1639 00a7 95000000 		.4byte	.LASF14
 1640 00ab 04       		.byte	0x4
 1641 00ac 2E       		.byte	0x2e
 1642 00ad 69000000 		.4byte	0x69
 1643 00b1 03       		.uleb128 0x3
 1644 00b2 88010000 		.4byte	.LASF15
 1645 00b6 04       		.byte	0x4
 1646 00b7 2F       		.byte	0x2f
 1647 00b8 49000000 		.4byte	0x49
 1648 00bc 03       		.uleb128 0x3
 1649 00bd DA000000 		.4byte	.LASF16
 1650 00c1 04       		.byte	0x4
 1651 00c2 30       		.byte	0x30
 1652 00c3 49000000 		.4byte	0x49
 1653 00c7 03       		.uleb128 0x3
 1654 00c8 68020000 		.4byte	.LASF17
 1655 00cc 04       		.byte	0x4
 1656 00cd 32       		.byte	0x32
 1657 00ce 7B000000 		.4byte	0x7b
 1658 00d2 03       		.uleb128 0x3
 1659 00d3 82010000 		.4byte	.LASF18
 1660 00d7 04       		.byte	0x4
 1661 00d8 33       		.byte	0x33
 1662 00d9 69000000 		.4byte	0x69
 1663 00dd 03       		.uleb128 0x3
 1664 00de 9C010000 		.4byte	.LASF19
 1665 00e2 04       		.byte	0x4
 1666 00e3 35       		.byte	0x35
 1667 00e4 7B000000 		.4byte	0x7b
 1668 00e8 03       		.uleb128 0x3
 1669 00e9 20030000 		.4byte	.LASF20
 1670 00ed 04       		.byte	0x4
 1671 00ee 36       		.byte	0x36
 1672 00ef 7B000000 		.4byte	0x7b
 1673 00f3 03       		.uleb128 0x3
 1674 00f4 0D010000 		.4byte	.LASF21
 1675 00f8 04       		.byte	0x4
 1676 00f9 37       		.byte	0x37
 1677 00fa 69000000 		.4byte	0x69
 1678 00fe 03       		.uleb128 0x3
 1679 00ff CF020000 		.4byte	.LASF22
 1680 0103 05       		.byte	0x5
 1681 0104 2A       		.byte	0x2a
 1682 0105 09010000 		.4byte	0x109
 1683 0109 05       		.uleb128 0x5
 1684 010a CF020000 		.4byte	.LASF22
 1685 010e 48       		.byte	0x48
 1686 010f 06       		.byte	0x6
 1687 0110 5E       		.byte	0x5e
 1688 0111 12020000 		.4byte	0x212
 1689 0115 06       		.uleb128 0x6
 1690 0116 C0020000 		.4byte	.LASF23
 1691 011a 06       		.byte	0x6
 1692 011b 5F       		.byte	0x5f
ARM GAS  C:\Users\z80\AppData\Local\Temp\ccRmy9tc.s 			page 31


 1693 011c 37020000 		.4byte	0x237
 1694 0120 02       		.byte	0x2
 1695 0121 23       		.byte	0x23
 1696 0122 00       		.uleb128 0
 1697 0123 06       		.uleb128 0x6
 1698 0124 59020000 		.4byte	.LASF24
 1699 0128 06       		.byte	0x6
 1700 0129 61       		.byte	0x61
 1701 012a 37020000 		.4byte	0x237
 1702 012e 02       		.byte	0x2
 1703 012f 23       		.byte	0x23
 1704 0130 04       		.uleb128 0x4
 1705 0131 06       		.uleb128 0x6
 1706 0132 6A000000 		.4byte	.LASF25
 1707 0136 06       		.byte	0x6
 1708 0137 63       		.byte	0x63
 1709 0138 C7000000 		.4byte	0xc7
 1710 013c 02       		.byte	0x2
 1711 013d 23       		.byte	0x23
 1712 013e 08       		.uleb128 0x8
 1713 013f 06       		.uleb128 0x6
 1714 0140 9C030000 		.4byte	.LASF26
 1715 0144 06       		.byte	0x6
 1716 0145 64       		.byte	0x64
 1717 0146 0F030000 		.4byte	0x30f
 1718 014a 02       		.byte	0x2
 1719 014b 23       		.byte	0x23
 1720 014c 0C       		.uleb128 0xc
 1721 014d 06       		.uleb128 0x6
 1722 014e F4000000 		.4byte	.LASF27
 1723 0152 06       		.byte	0x6
 1724 0153 66       		.byte	0x66
 1725 0154 37020000 		.4byte	0x237
 1726 0158 02       		.byte	0x2
 1727 0159 23       		.byte	0x23
 1728 015a 10       		.uleb128 0x10
 1729 015b 06       		.uleb128 0x6
 1730 015c FE010000 		.4byte	.LASF28
 1731 0160 06       		.byte	0x6
 1732 0161 67       		.byte	0x67
 1733 0162 37020000 		.4byte	0x237
 1734 0166 02       		.byte	0x2
 1735 0167 23       		.byte	0x23
 1736 0168 14       		.uleb128 0x14
 1737 0169 06       		.uleb128 0x6
 1738 016a 83030000 		.4byte	.LASF29
 1739 016e 06       		.byte	0x6
 1740 016f 6E       		.byte	0x6e
 1741 0170 2A040000 		.4byte	0x42a
 1742 0174 02       		.byte	0x2
 1743 0175 23       		.byte	0x23
 1744 0176 18       		.uleb128 0x18
 1745 0177 06       		.uleb128 0x6
 1746 0178 13010000 		.4byte	.LASF30
 1747 017c 06       		.byte	0x6
 1748 017d 74       		.byte	0x74
 1749 017e 3C040000 		.4byte	0x43c
ARM GAS  C:\Users\z80\AppData\Local\Temp\ccRmy9tc.s 			page 32


 1750 0182 02       		.byte	0x2
 1751 0183 23       		.byte	0x23
 1752 0184 1C       		.uleb128 0x1c
 1753 0185 06       		.uleb128 0x6
 1754 0186 A2020000 		.4byte	.LASF31
 1755 018a 06       		.byte	0x6
 1756 018b 79       		.byte	0x79
 1757 018c BC000000 		.4byte	0xbc
 1758 0190 02       		.byte	0x2
 1759 0191 23       		.byte	0x23
 1760 0192 20       		.uleb128 0x20
 1761 0193 06       		.uleb128 0x6
 1762 0194 C7020000 		.4byte	.LASF32
 1763 0198 06       		.byte	0x6
 1764 0199 7D       		.byte	0x7d
 1765 019a B1000000 		.4byte	0xb1
 1766 019e 02       		.byte	0x2
 1767 019f 23       		.byte	0x23
 1768 01a0 21       		.uleb128 0x21
 1769 01a1 06       		.uleb128 0x6
 1770 01a2 3C030000 		.4byte	.LASF33
 1771 01a6 06       		.byte	0x6
 1772 01a7 89       		.byte	0x89
 1773 01a8 32030000 		.4byte	0x332
 1774 01ac 02       		.byte	0x2
 1775 01ad 23       		.byte	0x23
 1776 01ae 24       		.uleb128 0x24
 1777 01af 07       		.uleb128 0x7
 1778 01b0 705F7500 		.ascii	"p_u\000"
 1779 01b4 06       		.byte	0x6
 1780 01b5 AE       		.byte	0xae
 1781 01b6 F5030000 		.4byte	0x3f5
 1782 01ba 02       		.byte	0x2
 1783 01bb 23       		.byte	0x23
 1784 01bc 28       		.uleb128 0x28
 1785 01bd 06       		.uleb128 0x6
 1786 01be A2030000 		.4byte	.LASF34
 1787 01c2 06       		.byte	0x6
 1788 01c3 B3       		.byte	0xb3
 1789 01c4 5F020000 		.4byte	0x25f
 1790 01c8 02       		.byte	0x2
 1791 01c9 23       		.byte	0x23
 1792 01ca 2C       		.uleb128 0x2c
 1793 01cb 06       		.uleb128 0x6
 1794 01cc 4A030000 		.4byte	.LASF35
 1795 01d0 06       		.byte	0x6
 1796 01d1 B9       		.byte	0xb9
 1797 01d2 3D020000 		.4byte	0x23d
 1798 01d6 02       		.byte	0x2
 1799 01d7 23       		.byte	0x23
 1800 01d8 30       		.uleb128 0x30
 1801 01d9 06       		.uleb128 0x6
 1802 01da 00000000 		.4byte	.LASF36
 1803 01de 06       		.byte	0x6
 1804 01df BD       		.byte	0xbd
 1805 01e0 D2000000 		.4byte	0xd2
 1806 01e4 02       		.byte	0x2
ARM GAS  C:\Users\z80\AppData\Local\Temp\ccRmy9tc.s 			page 33


 1807 01e5 23       		.byte	0x23
 1808 01e6 38       		.uleb128 0x38
 1809 01e7 06       		.uleb128 0x6
 1810 01e8 DF020000 		.4byte	.LASF37
 1811 01ec 06       		.byte	0x6
 1812 01ed C3       		.byte	0xc3
 1813 01ee DD000000 		.4byte	0xdd
 1814 01f2 02       		.byte	0x2
 1815 01f3 23       		.byte	0x23
 1816 01f4 3C       		.uleb128 0x3c
 1817 01f5 06       		.uleb128 0x6
 1818 01f6 8E020000 		.4byte	.LASF38
 1819 01fa 06       		.byte	0x6
 1820 01fb CA       		.byte	0xca
 1821 01fc 42040000 		.4byte	0x442
 1822 0200 02       		.byte	0x2
 1823 0201 23       		.byte	0x23
 1824 0202 40       		.uleb128 0x40
 1825 0203 06       		.uleb128 0x6
 1826 0204 2A030000 		.4byte	.LASF39
 1827 0208 06       		.byte	0x6
 1828 0209 CE       		.byte	0xce
 1829 020a C7000000 		.4byte	0xc7
 1830 020e 02       		.byte	0x2
 1831 020f 23       		.byte	0x23
 1832 0210 44       		.uleb128 0x44
 1833 0211 00       		.byte	0
 1834 0212 08       		.uleb128 0x8
 1835 0213 08       		.byte	0x8
 1836 0214 05       		.byte	0x5
 1837 0215 61       		.byte	0x61
 1838 0216 37020000 		.4byte	0x237
 1839 021a 06       		.uleb128 0x6
 1840 021b C0020000 		.4byte	.LASF23
 1841 021f 05       		.byte	0x5
 1842 0220 62       		.byte	0x62
 1843 0221 37020000 		.4byte	0x237
 1844 0225 02       		.byte	0x2
 1845 0226 23       		.byte	0x23
 1846 0227 00       		.uleb128 0
 1847 0228 06       		.uleb128 0x6
 1848 0229 59020000 		.4byte	.LASF24
 1849 022d 05       		.byte	0x5
 1850 022e 64       		.byte	0x64
 1851 022f 37020000 		.4byte	0x237
 1852 0233 02       		.byte	0x2
 1853 0234 23       		.byte	0x23
 1854 0235 04       		.uleb128 0x4
 1855 0236 00       		.byte	0
 1856 0237 09       		.uleb128 0x9
 1857 0238 04       		.byte	0x4
 1858 0239 FE000000 		.4byte	0xfe
 1859 023d 03       		.uleb128 0x3
 1860 023e 1C020000 		.4byte	.LASF40
 1861 0242 05       		.byte	0x5
 1862 0243 66       		.byte	0x66
 1863 0244 12020000 		.4byte	0x212
ARM GAS  C:\Users\z80\AppData\Local\Temp\ccRmy9tc.s 			page 34


 1864 0248 08       		.uleb128 0x8
 1865 0249 04       		.byte	0x4
 1866 024a 05       		.byte	0x5
 1867 024b 6B       		.byte	0x6b
 1868 024c 5F020000 		.4byte	0x25f
 1869 0250 06       		.uleb128 0x6
 1870 0251 C0020000 		.4byte	.LASF23
 1871 0255 05       		.byte	0x5
 1872 0256 6D       		.byte	0x6d
 1873 0257 37020000 		.4byte	0x237
 1874 025b 02       		.byte	0x2
 1875 025c 23       		.byte	0x23
 1876 025d 00       		.uleb128 0
 1877 025e 00       		.byte	0
 1878 025f 03       		.uleb128 0x3
 1879 0260 90010000 		.4byte	.LASF41
 1880 0264 05       		.byte	0x5
 1881 0265 70       		.byte	0x70
 1882 0266 48020000 		.4byte	0x248
 1883 026a 03       		.uleb128 0x3
 1884 026b 04010000 		.4byte	.LASF42
 1885 026f 07       		.byte	0x7
 1886 0270 D7       		.byte	0xd7
 1887 0271 75020000 		.4byte	0x275
 1888 0275 0A       		.uleb128 0xa
 1889 0276 04       		.byte	0x4
 1890 0277 03       		.uleb128 0x3
 1891 0278 C6010000 		.4byte	.LASF43
 1892 027c 07       		.byte	0x7
 1893 027d DD       		.byte	0xdd
 1894 027e 94000000 		.4byte	0x94
 1895 0282 05       		.uleb128 0x5
 1896 0283 43030000 		.4byte	.LASF44
 1897 0287 24       		.byte	0x24
 1898 0288 07       		.byte	0x7
 1899 0289 FE       		.byte	0xfe
 1900 028a 0F030000 		.4byte	0x30f
 1901 028e 0B       		.uleb128 0xb
 1902 028f 723400   		.ascii	"r4\000"
 1903 0292 07       		.byte	0x7
 1904 0293 1101     		.2byte	0x111
 1905 0295 6A020000 		.4byte	0x26a
 1906 0299 02       		.byte	0x2
 1907 029a 23       		.byte	0x23
 1908 029b 00       		.uleb128 0
 1909 029c 0B       		.uleb128 0xb
 1910 029d 723500   		.ascii	"r5\000"
 1911 02a0 07       		.byte	0x7
 1912 02a1 1201     		.2byte	0x112
 1913 02a3 6A020000 		.4byte	0x26a
 1914 02a7 02       		.byte	0x2
 1915 02a8 23       		.byte	0x23
 1916 02a9 04       		.uleb128 0x4
 1917 02aa 0B       		.uleb128 0xb
 1918 02ab 723600   		.ascii	"r6\000"
 1919 02ae 07       		.byte	0x7
 1920 02af 1301     		.2byte	0x113
ARM GAS  C:\Users\z80\AppData\Local\Temp\ccRmy9tc.s 			page 35


 1921 02b1 6A020000 		.4byte	0x26a
 1922 02b5 02       		.byte	0x2
 1923 02b6 23       		.byte	0x23
 1924 02b7 08       		.uleb128 0x8
 1925 02b8 0B       		.uleb128 0xb
 1926 02b9 723700   		.ascii	"r7\000"
 1927 02bc 07       		.byte	0x7
 1928 02bd 1401     		.2byte	0x114
 1929 02bf 6A020000 		.4byte	0x26a
 1930 02c3 02       		.byte	0x2
 1931 02c4 23       		.byte	0x23
 1932 02c5 0C       		.uleb128 0xc
 1933 02c6 0B       		.uleb128 0xb
 1934 02c7 723800   		.ascii	"r8\000"
 1935 02ca 07       		.byte	0x7
 1936 02cb 1501     		.2byte	0x115
 1937 02cd 6A020000 		.4byte	0x26a
 1938 02d1 02       		.byte	0x2
 1939 02d2 23       		.byte	0x23
 1940 02d3 10       		.uleb128 0x10
 1941 02d4 0B       		.uleb128 0xb
 1942 02d5 723900   		.ascii	"r9\000"
 1943 02d8 07       		.byte	0x7
 1944 02d9 1601     		.2byte	0x116
 1945 02db 6A020000 		.4byte	0x26a
 1946 02df 02       		.byte	0x2
 1947 02e0 23       		.byte	0x23
 1948 02e1 14       		.uleb128 0x14
 1949 02e2 0B       		.uleb128 0xb
 1950 02e3 72313000 		.ascii	"r10\000"
 1951 02e7 07       		.byte	0x7
 1952 02e8 1701     		.2byte	0x117
 1953 02ea 6A020000 		.4byte	0x26a
 1954 02ee 02       		.byte	0x2
 1955 02ef 23       		.byte	0x23
 1956 02f0 18       		.uleb128 0x18
 1957 02f1 0B       		.uleb128 0xb
 1958 02f2 72313100 		.ascii	"r11\000"
 1959 02f6 07       		.byte	0x7
 1960 02f7 1801     		.2byte	0x118
 1961 02f9 6A020000 		.4byte	0x26a
 1962 02fd 02       		.byte	0x2
 1963 02fe 23       		.byte	0x23
 1964 02ff 1C       		.uleb128 0x1c
 1965 0300 0B       		.uleb128 0xb
 1966 0301 6C7200   		.ascii	"lr\000"
 1967 0304 07       		.byte	0x7
 1968 0305 1901     		.2byte	0x119
 1969 0307 6A020000 		.4byte	0x26a
 1970 030b 02       		.byte	0x2
 1971 030c 23       		.byte	0x23
 1972 030d 20       		.uleb128 0x20
 1973 030e 00       		.byte	0
 1974 030f 0C       		.uleb128 0xc
 1975 0310 4B010000 		.4byte	.LASF45
 1976 0314 04       		.byte	0x4
 1977 0315 07       		.byte	0x7
ARM GAS  C:\Users\z80\AppData\Local\Temp\ccRmy9tc.s 			page 36


 1978 0316 2301     		.2byte	0x123
 1979 0318 2C030000 		.4byte	0x32c
 1980 031c 0B       		.uleb128 0xb
 1981 031d 72313300 		.ascii	"r13\000"
 1982 0321 07       		.byte	0x7
 1983 0322 2401     		.2byte	0x124
 1984 0324 2C030000 		.4byte	0x32c
 1985 0328 02       		.byte	0x2
 1986 0329 23       		.byte	0x23
 1987 032a 00       		.uleb128 0
 1988 032b 00       		.byte	0
 1989 032c 09       		.uleb128 0x9
 1990 032d 04       		.byte	0x4
 1991 032e 82020000 		.4byte	0x282
 1992 0332 0D       		.uleb128 0xd
 1993 0333 E8000000 		.4byte	0xe8
 1994 0337 08       		.uleb128 0x8
 1995 0338 20       		.byte	0x20
 1996 0339 08       		.byte	0x8
 1997 033a 5E       		.byte	0x5e
 1998 033b A2030000 		.4byte	0x3a2
 1999 033f 06       		.uleb128 0x6
 2000 0340 F3020000 		.4byte	.LASF46
 2001 0344 08       		.byte	0x8
 2002 0345 5F       		.byte	0x5f
 2003 0346 3D020000 		.4byte	0x23d
 2004 034a 02       		.byte	0x2
 2005 034b 23       		.byte	0x23
 2006 034c 00       		.uleb128 0
 2007 034d 06       		.uleb128 0x6
 2008 034e B2020000 		.4byte	.LASF47
 2009 0352 08       		.byte	0x8
 2010 0353 60       		.byte	0x60
 2011 0354 C7000000 		.4byte	0xc7
 2012 0358 02       		.byte	0x2
 2013 0359 23       		.byte	0x23
 2014 035a 08       		.uleb128 0x8
 2015 035b 06       		.uleb128 0x6
 2016 035c 16020000 		.4byte	.LASF48
 2017 0360 08       		.byte	0x8
 2018 0361 62       		.byte	0x62
 2019 0362 0F030000 		.4byte	0x30f
 2020 0366 02       		.byte	0x2
 2021 0367 23       		.byte	0x23
 2022 0368 0C       		.uleb128 0xc
 2023 0369 06       		.uleb128 0x6
 2024 036a FC000000 		.4byte	.LASF49
 2025 036e 08       		.byte	0x8
 2026 036f 65       		.byte	0x65
 2027 0370 37020000 		.4byte	0x237
 2028 0374 02       		.byte	0x2
 2029 0375 23       		.byte	0x23
 2030 0376 10       		.uleb128 0x10
 2031 0377 06       		.uleb128 0x6
 2032 0378 39020000 		.4byte	.LASF50
 2033 037c 08       		.byte	0x8
 2034 037d 66       		.byte	0x66
ARM GAS  C:\Users\z80\AppData\Local\Temp\ccRmy9tc.s 			page 37


 2035 037e 37020000 		.4byte	0x237
 2036 0382 02       		.byte	0x2
 2037 0383 23       		.byte	0x23
 2038 0384 14       		.uleb128 0x14
 2039 0385 06       		.uleb128 0x6
 2040 0386 8A030000 		.4byte	.LASF51
 2041 038a 08       		.byte	0x8
 2042 038b 6A       		.byte	0x6a
 2043 038c F3000000 		.4byte	0xf3
 2044 0390 02       		.byte	0x2
 2045 0391 23       		.byte	0x23
 2046 0392 18       		.uleb128 0x18
 2047 0393 06       		.uleb128 0x6
 2048 0394 2F020000 		.4byte	.LASF52
 2049 0398 08       		.byte	0x8
 2050 0399 6C       		.byte	0x6c
 2051 039a 37020000 		.4byte	0x237
 2052 039e 02       		.byte	0x2
 2053 039f 23       		.byte	0x23
 2054 03a0 1C       		.uleb128 0x1c
 2055 03a1 00       		.byte	0
 2056 03a2 03       		.uleb128 0x3
 2057 03a3 5B030000 		.4byte	.LASF53
 2058 03a7 08       		.byte	0x8
 2059 03a8 6E       		.byte	0x6e
 2060 03a9 37030000 		.4byte	0x337
 2061 03ad 05       		.uleb128 0x5
 2062 03ae B3010000 		.4byte	.LASF54
 2063 03b2 10       		.byte	0x10
 2064 03b3 09       		.byte	0x9
 2065 03b4 2C       		.byte	0x2c
 2066 03b5 E4030000 		.4byte	0x3e4
 2067 03b9 06       		.uleb128 0x6
 2068 03ba 9C000000 		.4byte	.LASF55
 2069 03be 09       		.byte	0x9
 2070 03bf 2D       		.byte	0x2d
 2071 03c0 3D020000 		.4byte	0x23d
 2072 03c4 02       		.byte	0x2
 2073 03c5 23       		.byte	0x23
 2074 03c6 00       		.uleb128 0
 2075 03c7 06       		.uleb128 0x6
 2076 03c8 94030000 		.4byte	.LASF56
 2077 03cc 09       		.byte	0x9
 2078 03cd 2F       		.byte	0x2f
 2079 03ce 37020000 		.4byte	0x237
 2080 03d2 02       		.byte	0x2
 2081 03d3 23       		.byte	0x23
 2082 03d4 08       		.uleb128 0x8
 2083 03d5 06       		.uleb128 0x6
 2084 03d6 19030000 		.4byte	.LASF57
 2085 03da 09       		.byte	0x9
 2086 03db 31       		.byte	0x31
 2087 03dc E4030000 		.4byte	0x3e4
 2088 03e0 02       		.byte	0x2
 2089 03e1 23       		.byte	0x23
 2090 03e2 0C       		.uleb128 0xc
 2091 03e3 00       		.byte	0
ARM GAS  C:\Users\z80\AppData\Local\Temp\ccRmy9tc.s 			page 38


 2092 03e4 09       		.uleb128 0x9
 2093 03e5 04       		.byte	0x4
 2094 03e6 AD030000 		.4byte	0x3ad
 2095 03ea 03       		.uleb128 0x3
 2096 03eb B3010000 		.4byte	.LASF54
 2097 03ef 09       		.byte	0x9
 2098 03f0 33       		.byte	0x33
 2099 03f1 AD030000 		.4byte	0x3ad
 2100 03f5 0E       		.uleb128 0xe
 2101 03f6 04       		.byte	0x4
 2102 03f7 06       		.byte	0x6
 2103 03f8 90       		.byte	0x90
 2104 03f9 2A040000 		.4byte	0x42a
 2105 03fd 0F       		.uleb128 0xf
 2106 03fe 0D000000 		.4byte	.LASF58
 2107 0402 06       		.byte	0x6
 2108 0403 97       		.byte	0x97
 2109 0404 D2000000 		.4byte	0xd2
 2110 0408 0F       		.uleb128 0xf
 2111 0409 4E000000 		.4byte	.LASF59
 2112 040d 06       		.byte	0x6
 2113 040e 9E       		.byte	0x9e
 2114 040f D2000000 		.4byte	0xd2
 2115 0413 0F       		.uleb128 0xf
 2116 0414 7C030000 		.4byte	.LASF60
 2117 0418 06       		.byte	0x6
 2118 0419 A5       		.byte	0xa5
 2119 041a 75020000 		.4byte	0x275
 2120 041e 0F       		.uleb128 0xf
 2121 041f B9020000 		.4byte	.LASF61
 2122 0423 06       		.byte	0x6
 2123 0424 AC       		.byte	0xac
 2124 0425 DD000000 		.4byte	0xdd
 2125 0429 00       		.byte	0
 2126 042a 09       		.uleb128 0x9
 2127 042b 04       		.byte	0x4
 2128 042c 30040000 		.4byte	0x430
 2129 0430 10       		.uleb128 0x10
 2130 0431 35040000 		.4byte	0x435
 2131 0435 04       		.uleb128 0x4
 2132 0436 01       		.byte	0x1
 2133 0437 08       		.byte	0x8
 2134 0438 07030000 		.4byte	.LASF62
 2135 043c 09       		.uleb128 0x9
 2136 043d 04       		.byte	0x4
 2137 043e 77020000 		.4byte	0x277
 2138 0442 09       		.uleb128 0x9
 2139 0443 04       		.byte	0x4
 2140 0444 EA030000 		.4byte	0x3ea
 2141 0448 03       		.uleb128 0x3
 2142 0449 B9010000 		.4byte	.LASF63
 2143 044d 0A       		.byte	0xa
 2144 044e 37       		.byte	0x37
 2145 044f 53040000 		.4byte	0x453
 2146 0453 05       		.uleb128 0x5
 2147 0454 B9010000 		.4byte	.LASF63
 2148 0458 20       		.byte	0x20
ARM GAS  C:\Users\z80\AppData\Local\Temp\ccRmy9tc.s 			page 39


 2149 0459 0A       		.byte	0xa
 2150 045a 45       		.byte	0x45
 2151 045b C2040000 		.4byte	0x4c2
 2152 045f 06       		.uleb128 0x6
 2153 0460 71000000 		.4byte	.LASF64
 2154 0464 0A       		.byte	0xa
 2155 0465 46       		.byte	0x46
 2156 0466 3D020000 		.4byte	0x23d
 2157 046a 02       		.byte	0x2
 2158 046b 23       		.byte	0x23
 2159 046c 00       		.uleb128 0
 2160 046d 06       		.uleb128 0x6
 2161 046e E8010000 		.4byte	.LASF65
 2162 0472 0A       		.byte	0xa
 2163 0473 47       		.byte	0x47
 2164 0474 30000000 		.4byte	0x30
 2165 0478 02       		.byte	0x2
 2166 0479 23       		.byte	0x23
 2167 047a 08       		.uleb128 0x8
 2168 047b 06       		.uleb128 0x6
 2169 047c E3000000 		.4byte	.LASF66
 2170 0480 0A       		.byte	0xa
 2171 0481 48       		.byte	0x48
 2172 0482 E5040000 		.4byte	0x4e5
 2173 0486 02       		.byte	0x2
 2174 0487 23       		.byte	0x23
 2175 0488 0C       		.uleb128 0xc
 2176 0489 06       		.uleb128 0x6
 2177 048a 55030000 		.4byte	.LASF67
 2178 048e 0A       		.byte	0xa
 2179 048f 49       		.byte	0x49
 2180 0490 E5040000 		.4byte	0x4e5
 2181 0494 02       		.byte	0x2
 2182 0495 23       		.byte	0x23
 2183 0496 10       		.uleb128 0x10
 2184 0497 06       		.uleb128 0x6
 2185 0498 EC000000 		.4byte	.LASF68
 2186 049c 0A       		.byte	0xa
 2187 049d 4B       		.byte	0x4b
 2188 049e E5040000 		.4byte	0x4e5
 2189 04a2 02       		.byte	0x2
 2190 04a3 23       		.byte	0x23
 2191 04a4 14       		.uleb128 0x14
 2192 04a5 06       		.uleb128 0x6
 2193 04a6 70020000 		.4byte	.LASF69
 2194 04aa 0A       		.byte	0xa
 2195 04ab 4C       		.byte	0x4c
 2196 04ac E5040000 		.4byte	0x4e5
 2197 04b0 02       		.byte	0x2
 2198 04b1 23       		.byte	0x23
 2199 04b2 18       		.uleb128 0x18
 2200 04b3 06       		.uleb128 0x6
 2201 04b4 65030000 		.4byte	.LASF70
 2202 04b8 0A       		.byte	0xa
 2203 04b9 4D       		.byte	0x4d
 2204 04ba C2040000 		.4byte	0x4c2
 2205 04be 02       		.byte	0x2
ARM GAS  C:\Users\z80\AppData\Local\Temp\ccRmy9tc.s 			page 40


 2206 04bf 23       		.byte	0x23
 2207 04c0 1C       		.uleb128 0x1c
 2208 04c1 00       		.byte	0
 2209 04c2 03       		.uleb128 0x3
 2210 04c3 4F020000 		.4byte	.LASF71
 2211 04c7 0A       		.byte	0xa
 2212 04c8 3A       		.byte	0x3a
 2213 04c9 CD040000 		.4byte	0x4cd
 2214 04cd 09       		.uleb128 0x9
 2215 04ce 04       		.byte	0x4
 2216 04cf D3040000 		.4byte	0x4d3
 2217 04d3 11       		.uleb128 0x11
 2218 04d4 01       		.byte	0x1
 2219 04d5 DF040000 		.4byte	0x4df
 2220 04d9 12       		.uleb128 0x12
 2221 04da DF040000 		.4byte	0x4df
 2222 04de 00       		.byte	0
 2223 04df 09       		.uleb128 0x9
 2224 04e0 04       		.byte	0x4
 2225 04e1 48040000 		.4byte	0x448
 2226 04e5 09       		.uleb128 0x9
 2227 04e6 04       		.byte	0x4
 2228 04e7 49000000 		.4byte	0x49
 2229 04eb 03       		.uleb128 0x3
 2230 04ec A8010000 		.4byte	.LASF72
 2231 04f0 0A       		.byte	0xa
 2232 04f1 76       		.byte	0x76
 2233 04f2 48040000 		.4byte	0x448
 2234 04f6 03       		.uleb128 0x3
 2235 04f7 1D000000 		.4byte	.LASF73
 2236 04fb 0A       		.byte	0xa
 2237 04fc E6       		.byte	0xe6
 2238 04fd 48040000 		.4byte	0x448
 2239 0501 05       		.uleb128 0x5
 2240 0502 D6020000 		.4byte	.LASF74
 2241 0506 10       		.byte	0x10
 2242 0507 0B       		.byte	0xb
 2243 0508 46       		.byte	0x46
 2244 0509 46050000 		.4byte	0x546
 2245 050d 06       		.uleb128 0x6
 2246 050e 46010000 		.4byte	.LASF75
 2247 0512 0B       		.byte	0xb
 2248 0513 47       		.byte	0x47
 2249 0514 2A040000 		.4byte	0x42a
 2250 0518 02       		.byte	0x2
 2251 0519 23       		.byte	0x23
 2252 051a 00       		.uleb128 0
 2253 051b 06       		.uleb128 0x6
 2254 051c 29020000 		.4byte	.LASF76
 2255 0520 0B       		.byte	0xb
 2256 0521 48       		.byte	0x48
 2257 0522 48050000 		.4byte	0x548
 2258 0526 02       		.byte	0x2
 2259 0527 23       		.byte	0x23
 2260 0528 04       		.uleb128 0x4
 2261 0529 06       		.uleb128 0x6
 2262 052a 3D010000 		.4byte	.LASF77
ARM GAS  C:\Users\z80\AppData\Local\Temp\ccRmy9tc.s 			page 41


 2263 052e 0B       		.byte	0xb
 2264 052f 49       		.byte	0x49
 2265 0530 48050000 		.4byte	0x548
 2266 0534 02       		.byte	0x2
 2267 0535 23       		.byte	0x23
 2268 0536 08       		.uleb128 0x8
 2269 0537 06       		.uleb128 0x6
 2270 0538 60020000 		.4byte	.LASF78
 2271 053c 0B       		.byte	0xb
 2272 053d 4A       		.byte	0x4a
 2273 053e 48050000 		.4byte	0x548
 2274 0542 02       		.byte	0x2
 2275 0543 23       		.byte	0x23
 2276 0544 0C       		.uleb128 0xc
 2277 0545 00       		.byte	0
 2278 0546 13       		.uleb128 0x13
 2279 0547 01       		.byte	0x1
 2280 0548 09       		.uleb128 0x9
 2281 0549 04       		.byte	0x4
 2282 054a 46050000 		.4byte	0x546
 2283 054e 14       		.uleb128 0x14
 2284 054f F005     		.2byte	0x5f0
 2285 0551 0B       		.byte	0xb
 2286 0552 4F       		.byte	0x4f
 2287 0553 9D050000 		.4byte	0x59d
 2288 0557 07       		.uleb128 0x7
 2289 0558 543000   		.ascii	"T0\000"
 2290 055b 0B       		.byte	0xb
 2291 055c 50       		.byte	0x50
 2292 055d 9D050000 		.4byte	0x59d
 2293 0561 02       		.byte	0x2
 2294 0562 23       		.byte	0x23
 2295 0563 00       		.uleb128 0
 2296 0564 07       		.uleb128 0x7
 2297 0565 543100   		.ascii	"T1\000"
 2298 0568 0B       		.byte	0xb
 2299 0569 51       		.byte	0x51
 2300 056a 9D050000 		.4byte	0x59d
 2301 056e 03       		.byte	0x3
 2302 056f 23       		.byte	0x23
 2303 0570 B002     		.uleb128 0x130
 2304 0572 07       		.uleb128 0x7
 2305 0573 543200   		.ascii	"T2\000"
 2306 0576 0B       		.byte	0xb
 2307 0577 52       		.byte	0x52
 2308 0578 9D050000 		.4byte	0x59d
 2309 057c 03       		.byte	0x3
 2310 057d 23       		.byte	0x23
 2311 057e E004     		.uleb128 0x260
 2312 0580 07       		.uleb128 0x7
 2313 0581 543300   		.ascii	"T3\000"
 2314 0584 0B       		.byte	0xb
 2315 0585 53       		.byte	0x53
 2316 0586 9D050000 		.4byte	0x59d
 2317 058a 03       		.byte	0x3
 2318 058b 23       		.byte	0x23
 2319 058c 9007     		.uleb128 0x390
ARM GAS  C:\Users\z80\AppData\Local\Temp\ccRmy9tc.s 			page 42


 2320 058e 07       		.uleb128 0x7
 2321 058f 543400   		.ascii	"T4\000"
 2322 0592 0B       		.byte	0xb
 2323 0593 54       		.byte	0x54
 2324 0594 9D050000 		.4byte	0x59d
 2325 0598 03       		.byte	0x3
 2326 0599 23       		.byte	0x23
 2327 059a C009     		.uleb128 0x4c0
 2328 059c 00       		.byte	0
 2329 059d 15       		.uleb128 0x15
 2330 059e 77020000 		.4byte	0x277
 2331 05a2 AD050000 		.4byte	0x5ad
 2332 05a6 16       		.uleb128 0x16
 2333 05a7 3B000000 		.4byte	0x3b
 2334 05ab 25       		.byte	0x25
 2335 05ac 00       		.byte	0
 2336 05ad 17       		.uleb128 0x17
 2337 05ae 0C030000 		.4byte	.LASF95
 2338 05b2 F005     		.2byte	0x5f0
 2339 05b4 0B       		.byte	0xb
 2340 05b5 4E       		.byte	0x4e
 2341 05b6 D0050000 		.4byte	0x5d0
 2342 05ba 18       		.uleb128 0x18
 2343 05bb 776100   		.ascii	"wa\000"
 2344 05be 0B       		.byte	0xb
 2345 05bf 55       		.byte	0x55
 2346 05c0 4E050000 		.4byte	0x54e
 2347 05c4 0F       		.uleb128 0xf
 2348 05c5 35030000 		.4byte	.LASF79
 2349 05c9 0B       		.byte	0xb
 2350 05ca 56       		.byte	0x56
 2351 05cb D0050000 		.4byte	0x5d0
 2352 05cf 00       		.byte	0
 2353 05d0 15       		.uleb128 0x15
 2354 05d1 49000000 		.4byte	0x49
 2355 05d5 E1050000 		.4byte	0x5e1
 2356 05d9 19       		.uleb128 0x19
 2357 05da 3B000000 		.4byte	0x3b
 2358 05de EF05     		.2byte	0x5ef
 2359 05e0 00       		.byte	0
 2360 05e1 1A       		.uleb128 0x1a
 2361 05e2 D8010000 		.4byte	.LASF80
 2362 05e6 01       		.byte	0x1
 2363 05e7 BC       		.byte	0xbc
 2364 05e8 01       		.byte	0x1
 2365 05e9 01       		.byte	0x1
 2366 05ea E4070000 		.4byte	0x7e4
 2367 05ee 1B       		.uleb128 0x1b
 2368 05ef 6900     		.ascii	"i\000"
 2369 05f1 01       		.byte	0x1
 2370 05f2 BD       		.byte	0xbd
 2371 05f3 3B000000 		.4byte	0x3b
 2372 05f7 1B       		.uleb128 0x1b
 2373 05f8 6E00     		.ascii	"n\000"
 2374 05fa 01       		.byte	0x1
 2375 05fb BE       		.byte	0xbe
 2376 05fc 30000000 		.4byte	0x30
ARM GAS  C:\Users\z80\AppData\Local\Temp\ccRmy9tc.s 			page 43


 2377 0600 1C       		.uleb128 0x1c
 2378 0601 11060000 		.4byte	0x611
 2379 0605 1B       		.uleb128 0x1b
 2380 0606 746D7000 		.ascii	"tmp\000"
 2381 060a 01       		.byte	0x1
 2382 060b C1       		.byte	0xc1
 2383 060c 7B000000 		.4byte	0x7b
 2384 0610 00       		.byte	0
 2385 0611 1C       		.uleb128 0x1c
 2386 0612 22060000 		.4byte	0x622
 2387 0616 1B       		.uleb128 0x1b
 2388 0617 746D7000 		.ascii	"tmp\000"
 2389 061b 01       		.byte	0x1
 2390 061c C1       		.byte	0xc1
 2391 061d 7B000000 		.4byte	0x7b
 2392 0621 00       		.byte	0
 2393 0622 1C       		.uleb128 0x1c
 2394 0623 33060000 		.4byte	0x633
 2395 0627 1B       		.uleb128 0x1b
 2396 0628 746D7000 		.ascii	"tmp\000"
 2397 062c 01       		.byte	0x1
 2398 062d C1       		.byte	0xc1
 2399 062e 7B000000 		.4byte	0x7b
 2400 0632 00       		.byte	0
 2401 0633 1C       		.uleb128 0x1c
 2402 0634 44060000 		.4byte	0x644
 2403 0638 1B       		.uleb128 0x1b
 2404 0639 746D7000 		.ascii	"tmp\000"
 2405 063d 01       		.byte	0x1
 2406 063e C6       		.byte	0xc6
 2407 063f 7B000000 		.4byte	0x7b
 2408 0643 00       		.byte	0
 2409 0644 1C       		.uleb128 0x1c
 2410 0645 55060000 		.4byte	0x655
 2411 0649 1B       		.uleb128 0x1b
 2412 064a 746D7000 		.ascii	"tmp\000"
 2413 064e 01       		.byte	0x1
 2414 064f C6       		.byte	0xc6
 2415 0650 7B000000 		.4byte	0x7b
 2416 0654 00       		.byte	0
 2417 0655 1C       		.uleb128 0x1c
 2418 0656 66060000 		.4byte	0x666
 2419 065a 1B       		.uleb128 0x1b
 2420 065b 746D7000 		.ascii	"tmp\000"
 2421 065f 01       		.byte	0x1
 2422 0660 C6       		.byte	0xc6
 2423 0661 7B000000 		.4byte	0x7b
 2424 0665 00       		.byte	0
 2425 0666 1C       		.uleb128 0x1c
 2426 0667 93060000 		.4byte	0x693
 2427 066b 1B       		.uleb128 0x1b
 2428 066c 6300     		.ascii	"c\000"
 2429 066e 01       		.byte	0x1
 2430 066f CA       		.byte	0xca
 2431 0670 35040000 		.4byte	0x435
 2432 0674 1C       		.uleb128 0x1c
 2433 0675 85060000 		.4byte	0x685
ARM GAS  C:\Users\z80\AppData\Local\Temp\ccRmy9tc.s 			page 44


 2434 0679 1B       		.uleb128 0x1b
 2435 067a 746D7000 		.ascii	"tmp\000"
 2436 067e 01       		.byte	0x1
 2437 067f CC       		.byte	0xcc
 2438 0680 7B000000 		.4byte	0x7b
 2439 0684 00       		.byte	0
 2440 0685 1D       		.uleb128 0x1d
 2441 0686 1B       		.uleb128 0x1b
 2442 0687 746D7000 		.ascii	"tmp\000"
 2443 068b 01       		.byte	0x1
 2444 068c CE       		.byte	0xce
 2445 068d 7B000000 		.4byte	0x7b
 2446 0691 00       		.byte	0
 2447 0692 00       		.byte	0
 2448 0693 1C       		.uleb128 0x1c
 2449 0694 A4060000 		.4byte	0x6a4
 2450 0698 1B       		.uleb128 0x1b
 2451 0699 746D7000 		.ascii	"tmp\000"
 2452 069d 01       		.byte	0x1
 2453 069e D1       		.byte	0xd1
 2454 069f 7B000000 		.4byte	0x7b
 2455 06a3 00       		.byte	0
 2456 06a4 1C       		.uleb128 0x1c
 2457 06a5 B5060000 		.4byte	0x6b5
 2458 06a9 1B       		.uleb128 0x1b
 2459 06aa 746D7000 		.ascii	"tmp\000"
 2460 06ae 01       		.byte	0x1
 2461 06af D1       		.byte	0xd1
 2462 06b0 7B000000 		.4byte	0x7b
 2463 06b4 00       		.byte	0
 2464 06b5 1C       		.uleb128 0x1c
 2465 06b6 C6060000 		.4byte	0x6c6
 2466 06ba 1B       		.uleb128 0x1b
 2467 06bb 746D7000 		.ascii	"tmp\000"
 2468 06bf 01       		.byte	0x1
 2469 06c0 D1       		.byte	0xd1
 2470 06c1 7B000000 		.4byte	0x7b
 2471 06c5 00       		.byte	0
 2472 06c6 1C       		.uleb128 0x1c
 2473 06c7 D7060000 		.4byte	0x6d7
 2474 06cb 1B       		.uleb128 0x1b
 2475 06cc 746D7000 		.ascii	"tmp\000"
 2476 06d0 01       		.byte	0x1
 2477 06d1 D3       		.byte	0xd3
 2478 06d2 7B000000 		.4byte	0x7b
 2479 06d6 00       		.byte	0
 2480 06d7 1C       		.uleb128 0x1c
 2481 06d8 E8060000 		.4byte	0x6e8
 2482 06dc 1B       		.uleb128 0x1b
 2483 06dd 746D7000 		.ascii	"tmp\000"
 2484 06e1 01       		.byte	0x1
 2485 06e2 D3       		.byte	0xd3
 2486 06e3 7B000000 		.4byte	0x7b
 2487 06e7 00       		.byte	0
 2488 06e8 1C       		.uleb128 0x1c
 2489 06e9 F9060000 		.4byte	0x6f9
 2490 06ed 1B       		.uleb128 0x1b
ARM GAS  C:\Users\z80\AppData\Local\Temp\ccRmy9tc.s 			page 45


 2491 06ee 746D7000 		.ascii	"tmp\000"
 2492 06f2 01       		.byte	0x1
 2493 06f3 D3       		.byte	0xd3
 2494 06f4 7B000000 		.4byte	0x7b
 2495 06f8 00       		.byte	0
 2496 06f9 1C       		.uleb128 0x1c
 2497 06fa 0A070000 		.4byte	0x70a
 2498 06fe 1B       		.uleb128 0x1b
 2499 06ff 746D7000 		.ascii	"tmp\000"
 2500 0703 01       		.byte	0x1
 2501 0704 D8       		.byte	0xd8
 2502 0705 7B000000 		.4byte	0x7b
 2503 0709 00       		.byte	0
 2504 070a 1C       		.uleb128 0x1c
 2505 070b 1B070000 		.4byte	0x71b
 2506 070f 1B       		.uleb128 0x1b
 2507 0710 746D7000 		.ascii	"tmp\000"
 2508 0714 01       		.byte	0x1
 2509 0715 D8       		.byte	0xd8
 2510 0716 7B000000 		.4byte	0x7b
 2511 071a 00       		.byte	0
 2512 071b 1C       		.uleb128 0x1c
 2513 071c 2C070000 		.4byte	0x72c
 2514 0720 1B       		.uleb128 0x1b
 2515 0721 746D7000 		.ascii	"tmp\000"
 2516 0725 01       		.byte	0x1
 2517 0726 D8       		.byte	0xd8
 2518 0727 7B000000 		.4byte	0x7b
 2519 072b 00       		.byte	0
 2520 072c 1C       		.uleb128 0x1c
 2521 072d 3D070000 		.4byte	0x73d
 2522 0731 1B       		.uleb128 0x1b
 2523 0732 746D7000 		.ascii	"tmp\000"
 2524 0736 01       		.byte	0x1
 2525 0737 DA       		.byte	0xda
 2526 0738 7B000000 		.4byte	0x7b
 2527 073c 00       		.byte	0
 2528 073d 1C       		.uleb128 0x1c
 2529 073e 4E070000 		.4byte	0x74e
 2530 0742 1B       		.uleb128 0x1b
 2531 0743 746D7000 		.ascii	"tmp\000"
 2532 0747 01       		.byte	0x1
 2533 0748 DA       		.byte	0xda
 2534 0749 7B000000 		.4byte	0x7b
 2535 074d 00       		.byte	0
 2536 074e 1C       		.uleb128 0x1c
 2537 074f 5F070000 		.4byte	0x75f
 2538 0753 1B       		.uleb128 0x1b
 2539 0754 746D7000 		.ascii	"tmp\000"
 2540 0758 01       		.byte	0x1
 2541 0759 DA       		.byte	0xda
 2542 075a 7B000000 		.4byte	0x7b
 2543 075e 00       		.byte	0
 2544 075f 1C       		.uleb128 0x1c
 2545 0760 70070000 		.4byte	0x770
 2546 0764 1B       		.uleb128 0x1b
 2547 0765 746D7000 		.ascii	"tmp\000"
ARM GAS  C:\Users\z80\AppData\Local\Temp\ccRmy9tc.s 			page 46


 2548 0769 01       		.byte	0x1
 2549 076a DE       		.byte	0xde
 2550 076b 7B000000 		.4byte	0x7b
 2551 076f 00       		.byte	0
 2552 0770 1C       		.uleb128 0x1c
 2553 0771 81070000 		.4byte	0x781
 2554 0775 1B       		.uleb128 0x1b
 2555 0776 746D7000 		.ascii	"tmp\000"
 2556 077a 01       		.byte	0x1
 2557 077b E0       		.byte	0xe0
 2558 077c 7B000000 		.4byte	0x7b
 2559 0780 00       		.byte	0
 2560 0781 1C       		.uleb128 0x1c
 2561 0782 92070000 		.4byte	0x792
 2562 0786 1B       		.uleb128 0x1b
 2563 0787 746D7000 		.ascii	"tmp\000"
 2564 078b 01       		.byte	0x1
 2565 078c E1       		.byte	0xe1
 2566 078d 7B000000 		.4byte	0x7b
 2567 0791 00       		.byte	0
 2568 0792 1C       		.uleb128 0x1c
 2569 0793 A3070000 		.4byte	0x7a3
 2570 0797 1B       		.uleb128 0x1b
 2571 0798 746D7000 		.ascii	"tmp\000"
 2572 079c 01       		.byte	0x1
 2573 079d E1       		.byte	0xe1
 2574 079e 7B000000 		.4byte	0x7b
 2575 07a2 00       		.byte	0
 2576 07a3 1C       		.uleb128 0x1c
 2577 07a4 B4070000 		.4byte	0x7b4
 2578 07a8 1B       		.uleb128 0x1b
 2579 07a9 746D7000 		.ascii	"tmp\000"
 2580 07ad 01       		.byte	0x1
 2581 07ae E1       		.byte	0xe1
 2582 07af 7B000000 		.4byte	0x7b
 2583 07b3 00       		.byte	0
 2584 07b4 1C       		.uleb128 0x1c
 2585 07b5 C5070000 		.4byte	0x7c5
 2586 07b9 1B       		.uleb128 0x1b
 2587 07ba 746D7000 		.ascii	"tmp\000"
 2588 07be 01       		.byte	0x1
 2589 07bf E8       		.byte	0xe8
 2590 07c0 7B000000 		.4byte	0x7b
 2591 07c4 00       		.byte	0
 2592 07c5 1C       		.uleb128 0x1c
 2593 07c6 D6070000 		.4byte	0x7d6
 2594 07ca 1B       		.uleb128 0x1b
 2595 07cb 746D7000 		.ascii	"tmp\000"
 2596 07cf 01       		.byte	0x1
 2597 07d0 E8       		.byte	0xe8
 2598 07d1 7B000000 		.4byte	0x7b
 2599 07d5 00       		.byte	0
 2600 07d6 1D       		.uleb128 0x1d
 2601 07d7 1B       		.uleb128 0x1b
 2602 07d8 746D7000 		.ascii	"tmp\000"
 2603 07dc 01       		.byte	0x1
 2604 07dd E8       		.byte	0xe8
ARM GAS  C:\Users\z80\AppData\Local\Temp\ccRmy9tc.s 			page 47


 2605 07de 7B000000 		.4byte	0x7b
 2606 07e2 00       		.byte	0
 2607 07e3 00       		.byte	0
 2608 07e4 1A       		.uleb128 0x1a
 2609 07e5 66010000 		.4byte	.LASF81
 2610 07e9 01       		.byte	0x1
 2611 07ea 65       		.byte	0x65
 2612 07eb 01       		.byte	0x1
 2613 07ec 01       		.byte	0x1
 2614 07ed 200A0000 		.4byte	0xa20
 2615 07f1 1B       		.uleb128 0x1b
 2616 07f2 6900     		.ascii	"i\000"
 2617 07f4 01       		.byte	0x1
 2618 07f5 66       		.byte	0x66
 2619 07f6 3B000000 		.4byte	0x3b
 2620 07fa 1B       		.uleb128 0x1b
 2621 07fb 6E00     		.ascii	"n\000"
 2622 07fd 01       		.byte	0x1
 2623 07fe 67       		.byte	0x67
 2624 07ff 30000000 		.4byte	0x30
 2625 0803 1C       		.uleb128 0x1c
 2626 0804 14080000 		.4byte	0x814
 2627 0808 1B       		.uleb128 0x1b
 2628 0809 746D7000 		.ascii	"tmp\000"
 2629 080d 01       		.byte	0x1
 2630 080e 6A       		.byte	0x6a
 2631 080f 7B000000 		.4byte	0x7b
 2632 0813 00       		.byte	0
 2633 0814 1C       		.uleb128 0x1c
 2634 0815 25080000 		.4byte	0x825
 2635 0819 1B       		.uleb128 0x1b
 2636 081a 746D7000 		.ascii	"tmp\000"
 2637 081e 01       		.byte	0x1
 2638 081f 6A       		.byte	0x6a
 2639 0820 7B000000 		.4byte	0x7b
 2640 0824 00       		.byte	0
 2641 0825 1C       		.uleb128 0x1c
 2642 0826 36080000 		.4byte	0x836
 2643 082a 1B       		.uleb128 0x1b
 2644 082b 746D7000 		.ascii	"tmp\000"
 2645 082f 01       		.byte	0x1
 2646 0830 6A       		.byte	0x6a
 2647 0831 7B000000 		.4byte	0x7b
 2648 0835 00       		.byte	0
 2649 0836 1C       		.uleb128 0x1c
 2650 0837 47080000 		.4byte	0x847
 2651 083b 1B       		.uleb128 0x1b
 2652 083c 746D7000 		.ascii	"tmp\000"
 2653 0840 01       		.byte	0x1
 2654 0841 6D       		.byte	0x6d
 2655 0842 7B000000 		.4byte	0x7b
 2656 0846 00       		.byte	0
 2657 0847 1C       		.uleb128 0x1c
 2658 0848 58080000 		.4byte	0x858
 2659 084c 1B       		.uleb128 0x1b
 2660 084d 746D7000 		.ascii	"tmp\000"
 2661 0851 01       		.byte	0x1
ARM GAS  C:\Users\z80\AppData\Local\Temp\ccRmy9tc.s 			page 48


 2662 0852 70       		.byte	0x70
 2663 0853 7B000000 		.4byte	0x7b
 2664 0857 00       		.byte	0
 2665 0858 1C       		.uleb128 0x1c
 2666 0859 69080000 		.4byte	0x869
 2667 085d 1B       		.uleb128 0x1b
 2668 085e 746D7000 		.ascii	"tmp\000"
 2669 0862 01       		.byte	0x1
 2670 0863 71       		.byte	0x71
 2671 0864 7B000000 		.4byte	0x7b
 2672 0868 00       		.byte	0
 2673 0869 1C       		.uleb128 0x1c
 2674 086a 7A080000 		.4byte	0x87a
 2675 086e 1B       		.uleb128 0x1b
 2676 086f 746D7000 		.ascii	"tmp\000"
 2677 0873 01       		.byte	0x1
 2678 0874 71       		.byte	0x71
 2679 0875 7B000000 		.4byte	0x7b
 2680 0879 00       		.byte	0
 2681 087a 1C       		.uleb128 0x1c
 2682 087b 8B080000 		.4byte	0x88b
 2683 087f 1B       		.uleb128 0x1b
 2684 0880 746D7000 		.ascii	"tmp\000"
 2685 0884 01       		.byte	0x1
 2686 0885 71       		.byte	0x71
 2687 0886 7B000000 		.4byte	0x7b
 2688 088a 00       		.byte	0
 2689 088b 1C       		.uleb128 0x1c
 2690 088c 9C080000 		.4byte	0x89c
 2691 0890 1B       		.uleb128 0x1b
 2692 0891 746D7000 		.ascii	"tmp\000"
 2693 0895 01       		.byte	0x1
 2694 0896 72       		.byte	0x72
 2695 0897 7B000000 		.4byte	0x7b
 2696 089b 00       		.byte	0
 2697 089c 1C       		.uleb128 0x1c
 2698 089d AD080000 		.4byte	0x8ad
 2699 08a1 1B       		.uleb128 0x1b
 2700 08a2 746D7000 		.ascii	"tmp\000"
 2701 08a6 01       		.byte	0x1
 2702 08a7 72       		.byte	0x72
 2703 08a8 7B000000 		.4byte	0x7b
 2704 08ac 00       		.byte	0
 2705 08ad 1C       		.uleb128 0x1c
 2706 08ae BE080000 		.4byte	0x8be
 2707 08b2 1B       		.uleb128 0x1b
 2708 08b3 746D7000 		.ascii	"tmp\000"
 2709 08b7 01       		.byte	0x1
 2710 08b8 72       		.byte	0x72
 2711 08b9 7B000000 		.4byte	0x7b
 2712 08bd 00       		.byte	0
 2713 08be 1C       		.uleb128 0x1c
 2714 08bf CF080000 		.4byte	0x8cf
 2715 08c3 1B       		.uleb128 0x1b
 2716 08c4 746D7000 		.ascii	"tmp\000"
 2717 08c8 01       		.byte	0x1
 2718 08c9 77       		.byte	0x77
ARM GAS  C:\Users\z80\AppData\Local\Temp\ccRmy9tc.s 			page 49


 2719 08ca 7B000000 		.4byte	0x7b
 2720 08ce 00       		.byte	0
 2721 08cf 1C       		.uleb128 0x1c
 2722 08d0 E0080000 		.4byte	0x8e0
 2723 08d4 1B       		.uleb128 0x1b
 2724 08d5 746D7000 		.ascii	"tmp\000"
 2725 08d9 01       		.byte	0x1
 2726 08da 77       		.byte	0x77
 2727 08db 7B000000 		.4byte	0x7b
 2728 08df 00       		.byte	0
 2729 08e0 1C       		.uleb128 0x1c
 2730 08e1 F1080000 		.4byte	0x8f1
 2731 08e5 1B       		.uleb128 0x1b
 2732 08e6 746D7000 		.ascii	"tmp\000"
 2733 08ea 01       		.byte	0x1
 2734 08eb 77       		.byte	0x77
 2735 08ec 7B000000 		.4byte	0x7b
 2736 08f0 00       		.byte	0
 2737 08f1 1C       		.uleb128 0x1c
 2738 08f2 02090000 		.4byte	0x902
 2739 08f6 1B       		.uleb128 0x1b
 2740 08f7 746D7000 		.ascii	"tmp\000"
 2741 08fb 01       		.byte	0x1
 2742 08fc 7B       		.byte	0x7b
 2743 08fd 7B000000 		.4byte	0x7b
 2744 0901 00       		.byte	0
 2745 0902 1C       		.uleb128 0x1c
 2746 0903 13090000 		.4byte	0x913
 2747 0907 1B       		.uleb128 0x1b
 2748 0908 746D7000 		.ascii	"tmp\000"
 2749 090c 01       		.byte	0x1
 2750 090d 7E       		.byte	0x7e
 2751 090e 7B000000 		.4byte	0x7b
 2752 0912 00       		.byte	0
 2753 0913 1C       		.uleb128 0x1c
 2754 0914 24090000 		.4byte	0x924
 2755 0918 1B       		.uleb128 0x1b
 2756 0919 746D7000 		.ascii	"tmp\000"
 2757 091d 01       		.byte	0x1
 2758 091e 83       		.byte	0x83
 2759 091f 7B000000 		.4byte	0x7b
 2760 0923 00       		.byte	0
 2761 0924 1C       		.uleb128 0x1c
 2762 0925 35090000 		.4byte	0x935
 2763 0929 1B       		.uleb128 0x1b
 2764 092a 746D7000 		.ascii	"tmp\000"
 2765 092e 01       		.byte	0x1
 2766 092f 83       		.byte	0x83
 2767 0930 7B000000 		.4byte	0x7b
 2768 0934 00       		.byte	0
 2769 0935 1C       		.uleb128 0x1c
 2770 0936 46090000 		.4byte	0x946
 2771 093a 1B       		.uleb128 0x1b
 2772 093b 746D7000 		.ascii	"tmp\000"
 2773 093f 01       		.byte	0x1
 2774 0940 83       		.byte	0x83
 2775 0941 7B000000 		.4byte	0x7b
ARM GAS  C:\Users\z80\AppData\Local\Temp\ccRmy9tc.s 			page 50


 2776 0945 00       		.byte	0
 2777 0946 1C       		.uleb128 0x1c
 2778 0947 57090000 		.4byte	0x957
 2779 094b 1B       		.uleb128 0x1b
 2780 094c 746D7000 		.ascii	"tmp\000"
 2781 0950 01       		.byte	0x1
 2782 0951 86       		.byte	0x86
 2783 0952 7B000000 		.4byte	0x7b
 2784 0956 00       		.byte	0
 2785 0957 1C       		.uleb128 0x1c
 2786 0958 68090000 		.4byte	0x968
 2787 095c 1B       		.uleb128 0x1b
 2788 095d 746D7000 		.ascii	"tmp\000"
 2789 0961 01       		.byte	0x1
 2790 0962 89       		.byte	0x89
 2791 0963 7B000000 		.4byte	0x7b
 2792 0967 00       		.byte	0
 2793 0968 1C       		.uleb128 0x1c
 2794 0969 79090000 		.4byte	0x979
 2795 096d 1B       		.uleb128 0x1b
 2796 096e 746D7000 		.ascii	"tmp\000"
 2797 0972 01       		.byte	0x1
 2798 0973 90       		.byte	0x90
 2799 0974 7B000000 		.4byte	0x7b
 2800 0978 00       		.byte	0
 2801 0979 1C       		.uleb128 0x1c
 2802 097a 8A090000 		.4byte	0x98a
 2803 097e 1B       		.uleb128 0x1b
 2804 097f 746D7000 		.ascii	"tmp\000"
 2805 0983 01       		.byte	0x1
 2806 0984 90       		.byte	0x90
 2807 0985 7B000000 		.4byte	0x7b
 2808 0989 00       		.byte	0
 2809 098a 1C       		.uleb128 0x1c
 2810 098b 9B090000 		.4byte	0x99b
 2811 098f 1B       		.uleb128 0x1b
 2812 0990 746D7000 		.ascii	"tmp\000"
 2813 0994 01       		.byte	0x1
 2814 0995 90       		.byte	0x90
 2815 0996 7B000000 		.4byte	0x7b
 2816 099a 00       		.byte	0
 2817 099b 1C       		.uleb128 0x1c
 2818 099c AC090000 		.4byte	0x9ac
 2819 09a0 1B       		.uleb128 0x1b
 2820 09a1 746D7000 		.ascii	"tmp\000"
 2821 09a5 01       		.byte	0x1
 2822 09a6 93       		.byte	0x93
 2823 09a7 7B000000 		.4byte	0x7b
 2824 09ab 00       		.byte	0
 2825 09ac 1C       		.uleb128 0x1c
 2826 09ad BD090000 		.4byte	0x9bd
 2827 09b1 1B       		.uleb128 0x1b
 2828 09b2 746D7000 		.ascii	"tmp\000"
 2829 09b6 01       		.byte	0x1
 2830 09b7 96       		.byte	0x96
 2831 09b8 7B000000 		.4byte	0x7b
 2832 09bc 00       		.byte	0
ARM GAS  C:\Users\z80\AppData\Local\Temp\ccRmy9tc.s 			page 51


 2833 09bd 1C       		.uleb128 0x1c
 2834 09be CE090000 		.4byte	0x9ce
 2835 09c2 1B       		.uleb128 0x1b
 2836 09c3 746D7000 		.ascii	"tmp\000"
 2837 09c7 01       		.byte	0x1
 2838 09c8 97       		.byte	0x97
 2839 09c9 7B000000 		.4byte	0x7b
 2840 09cd 00       		.byte	0
 2841 09ce 1C       		.uleb128 0x1c
 2842 09cf DF090000 		.4byte	0x9df
 2843 09d3 1B       		.uleb128 0x1b
 2844 09d4 746D7000 		.ascii	"tmp\000"
 2845 09d8 01       		.byte	0x1
 2846 09d9 97       		.byte	0x97
 2847 09da 7B000000 		.4byte	0x7b
 2848 09de 00       		.byte	0
 2849 09df 1C       		.uleb128 0x1c
 2850 09e0 F0090000 		.4byte	0x9f0
 2851 09e4 1B       		.uleb128 0x1b
 2852 09e5 746D7000 		.ascii	"tmp\000"
 2853 09e9 01       		.byte	0x1
 2854 09ea 97       		.byte	0x97
 2855 09eb 7B000000 		.4byte	0x7b
 2856 09ef 00       		.byte	0
 2857 09f0 1C       		.uleb128 0x1c
 2858 09f1 010A0000 		.4byte	0xa01
 2859 09f5 1B       		.uleb128 0x1b
 2860 09f6 746D7000 		.ascii	"tmp\000"
 2861 09fa 01       		.byte	0x1
 2862 09fb 99       		.byte	0x99
 2863 09fc 7B000000 		.4byte	0x7b
 2864 0a00 00       		.byte	0
 2865 0a01 1C       		.uleb128 0x1c
 2866 0a02 120A0000 		.4byte	0xa12
 2867 0a06 1B       		.uleb128 0x1b
 2868 0a07 746D7000 		.ascii	"tmp\000"
 2869 0a0b 01       		.byte	0x1
 2870 0a0c 99       		.byte	0x99
 2871 0a0d 7B000000 		.4byte	0x7b
 2872 0a11 00       		.byte	0
 2873 0a12 1D       		.uleb128 0x1d
 2874 0a13 1B       		.uleb128 0x1b
 2875 0a14 746D7000 		.ascii	"tmp\000"
 2876 0a18 01       		.byte	0x1
 2877 0a19 99       		.byte	0x99
 2878 0a1a 7B000000 		.4byte	0x7b
 2879 0a1e 00       		.byte	0
 2880 0a1f 00       		.byte	0
 2881 0a20 1E       		.uleb128 0x1e
 2882 0a21 D1010000 		.4byte	.LASF96
 2883 0a25 01       		.byte	0x1
 2884 0a26 44       		.byte	0x44
 2885 0a27 01       		.byte	0x1
 2886 0a28 00000000 		.4byte	.LFB7
 2887 0a2c 02000000 		.4byte	.LFE7
 2888 0a30 02       		.byte	0x2
 2889 0a31 7D       		.byte	0x7d
ARM GAS  C:\Users\z80\AppData\Local\Temp\ccRmy9tc.s 			page 52


 2890 0a32 00       		.sleb128 0
 2891 0a33 440A0000 		.4byte	0xa44
 2892 0a37 1F       		.uleb128 0x1f
 2893 0a38 717000   		.ascii	"qp\000"
 2894 0a3b 01       		.byte	0x1
 2895 0a3c 44       		.byte	0x44
 2896 0a3d DF040000 		.4byte	0x4df
 2897 0a41 01       		.byte	0x1
 2898 0a42 50       		.byte	0x50
 2899 0a43 00       		.byte	0
 2900 0a44 20       		.uleb128 0x20
 2901 0a45 0E020000 		.4byte	.LASF82
 2902 0a49 01       		.byte	0x1
 2903 0a4a B5       		.byte	0xb5
 2904 0a4b 01       		.byte	0x1
 2905 0a4c D2000000 		.4byte	0xd2
 2906 0a50 00000000 		.4byte	.LFB12
 2907 0a54 16000000 		.4byte	.LFE12
 2908 0a58 00000000 		.4byte	.LLST0
 2909 0a5c 6E0A0000 		.4byte	0xa6e
 2910 0a60 21       		.uleb128 0x21
 2911 0a61 7000     		.ascii	"p\000"
 2912 0a63 01       		.byte	0x1
 2913 0a64 B5       		.byte	0xb5
 2914 0a65 75020000 		.4byte	0x275
 2915 0a69 20000000 		.4byte	.LLST1
 2916 0a6d 00       		.byte	0
 2917 0a6e 22       		.uleb128 0x22
 2918 0a6f 57000000 		.4byte	.LASF84
 2919 0a73 01       		.byte	0x1
 2920 0a74 B0       		.byte	0xb0
 2921 0a75 01       		.byte	0x1
 2922 0a76 00000000 		.4byte	.LFB11
 2923 0a7a 20000000 		.4byte	.LFE11
 2924 0a7e 02       		.byte	0x2
 2925 0a7f 7D       		.byte	0x7d
 2926 0a80 00       		.sleb128 0
 2927 0a81 20       		.uleb128 0x20
 2928 0a82 06020000 		.4byte	.LASF83
 2929 0a86 01       		.byte	0x1
 2930 0a87 5E       		.byte	0x5e
 2931 0a88 01       		.byte	0x1
 2932 0a89 D2000000 		.4byte	0xd2
 2933 0a8d 00000000 		.4byte	.LFB9
 2934 0a91 14000000 		.4byte	.LFE9
 2935 0a95 33000000 		.4byte	.LLST2
 2936 0a99 AB0A0000 		.4byte	0xaab
 2937 0a9d 21       		.uleb128 0x21
 2938 0a9e 7000     		.ascii	"p\000"
 2939 0aa0 01       		.byte	0x1
 2940 0aa1 5E       		.byte	0x5e
 2941 0aa2 75020000 		.4byte	0x275
 2942 0aa6 53000000 		.4byte	.LLST3
 2943 0aaa 00       		.byte	0
 2944 0aab 22       		.uleb128 0x22
 2945 0aac 41020000 		.4byte	.LASF85
 2946 0ab0 01       		.byte	0x1
ARM GAS  C:\Users\z80\AppData\Local\Temp\ccRmy9tc.s 			page 53


 2947 0ab1 59       		.byte	0x59
 2948 0ab2 01       		.byte	0x1
 2949 0ab3 00000000 		.4byte	.LFB8
 2950 0ab7 20000000 		.4byte	.LFE8
 2951 0abb 02       		.byte	0x2
 2952 0abc 7D       		.byte	0x7d
 2953 0abd 00       		.sleb128 0
 2954 0abe 23       		.uleb128 0x23
 2955 0abf E1050000 		.4byte	0x5e1
 2956 0ac3 00000000 		.4byte	.LFB13
 2957 0ac7 90030000 		.4byte	.LFE13
 2958 0acb 66000000 		.4byte	.LLST4
 2959 0acf 480D0000 		.4byte	0xd48
 2960 0ad3 24       		.uleb128 0x24
 2961 0ad4 EE050000 		.4byte	0x5ee
 2962 0ad8 24       		.uleb128 0x24
 2963 0ad9 F7050000 		.4byte	0x5f7
 2964 0add 25       		.uleb128 0x25
 2965 0ade 00000000 		.4byte	.Ldebug_ranges0+0
 2966 0ae2 F00A0000 		.4byte	0xaf0
 2967 0ae6 26       		.uleb128 0x26
 2968 0ae7 05060000 		.4byte	0x605
 2969 0aeb 92000000 		.4byte	.LLST5
 2970 0aef 00       		.byte	0
 2971 0af0 27       		.uleb128 0x27
 2972 0af1 E1050000 		.4byte	0x5e1
 2973 0af5 32000000 		.4byte	.LBB98
 2974 0af9 18000000 		.4byte	.Ldebug_ranges0+0x18
 2975 0afd 01       		.byte	0x1
 2976 0afe BC       		.byte	0xbc
 2977 0aff 28       		.uleb128 0x28
 2978 0b00 40000000 		.4byte	.Ldebug_ranges0+0x40
 2979 0b04 26       		.uleb128 0x26
 2980 0b05 EE050000 		.4byte	0x5ee
 2981 0b09 A5000000 		.4byte	.LLST6
 2982 0b0d 26       		.uleb128 0x26
 2983 0b0e F7050000 		.4byte	0x5f7
 2984 0b12 3D010000 		.4byte	.LLST7
 2985 0b16 29       		.uleb128 0x29
 2986 0b17 36000000 		.4byte	.LBB100
 2987 0b1b 3C000000 		.4byte	.LBE100
 2988 0b1f 2D0B0000 		.4byte	0xb2d
 2989 0b23 26       		.uleb128 0x26
 2990 0b24 27060000 		.4byte	0x627
 2991 0b28 80010000 		.4byte	.LLST8
 2992 0b2c 00       		.byte	0
 2993 0b2d 29       		.uleb128 0x29
 2994 0b2e 74000000 		.4byte	.LBB101
 2995 0b32 7A000000 		.4byte	.LBE101
 2996 0b36 440B0000 		.4byte	0xb44
 2997 0b3a 26       		.uleb128 0x26
 2998 0b3b 38060000 		.4byte	0x638
 2999 0b3f 93010000 		.4byte	.LLST9
 3000 0b43 00       		.byte	0
 3001 0b44 29       		.uleb128 0x29
 3002 0b45 9A000000 		.4byte	.LBB102
 3003 0b49 A0000000 		.4byte	.LBE102
ARM GAS  C:\Users\z80\AppData\Local\Temp\ccRmy9tc.s 			page 54


 3004 0b4d 5B0B0000 		.4byte	0xb5b
 3005 0b51 26       		.uleb128 0x26
 3006 0b52 5A060000 		.4byte	0x65a
 3007 0b56 A6010000 		.4byte	.LLST10
 3008 0b5a 00       		.byte	0
 3009 0b5b 29       		.uleb128 0x29
 3010 0b5c A0000000 		.4byte	.LBB103
 3011 0b60 28010000 		.4byte	.LBE103
 3012 0b64 940B0000 		.4byte	0xb94
 3013 0b68 26       		.uleb128 0x26
 3014 0b69 6B060000 		.4byte	0x66b
 3015 0b6d B9010000 		.4byte	.LLST11
 3016 0b71 25       		.uleb128 0x25
 3017 0b72 68000000 		.4byte	.Ldebug_ranges0+0x68
 3018 0b76 840B0000 		.4byte	0xb84
 3019 0b7a 26       		.uleb128 0x26
 3020 0b7b 79060000 		.4byte	0x679
 3021 0b7f 24020000 		.4byte	.LLST12
 3022 0b83 00       		.byte	0
 3023 0b84 28       		.uleb128 0x28
 3024 0b85 90000000 		.4byte	.Ldebug_ranges0+0x90
 3025 0b89 26       		.uleb128 0x26
 3026 0b8a 86060000 		.4byte	0x686
 3027 0b8e 58020000 		.4byte	.LLST13
 3028 0b92 00       		.byte	0
 3029 0b93 00       		.byte	0
 3030 0b94 29       		.uleb128 0x29
 3031 0b95 28010000 		.4byte	.LBB112
 3032 0b99 2E010000 		.4byte	.LBE112
 3033 0b9d AB0B0000 		.4byte	0xbab
 3034 0ba1 26       		.uleb128 0x26
 3035 0ba2 98060000 		.4byte	0x698
 3036 0ba6 8C020000 		.4byte	.LLST14
 3037 0baa 00       		.byte	0
 3038 0bab 29       		.uleb128 0x29
 3039 0bac 52010000 		.4byte	.LBB113
 3040 0bb0 58010000 		.4byte	.LBE113
 3041 0bb4 C20B0000 		.4byte	0xbc2
 3042 0bb8 26       		.uleb128 0x26
 3043 0bb9 BA060000 		.4byte	0x6ba
 3044 0bbd 9F020000 		.4byte	.LLST15
 3045 0bc1 00       		.byte	0
 3046 0bc2 29       		.uleb128 0x29
 3047 0bc3 6E010000 		.4byte	.LBB114
 3048 0bc7 74010000 		.4byte	.LBE114
 3049 0bcb D90B0000 		.4byte	0xbd9
 3050 0bcf 26       		.uleb128 0x26
 3051 0bd0 CB060000 		.4byte	0x6cb
 3052 0bd4 B2020000 		.4byte	.LLST16
 3053 0bd8 00       		.byte	0
 3054 0bd9 29       		.uleb128 0x29
 3055 0bda A0010000 		.4byte	.LBB115
 3056 0bde A6010000 		.4byte	.LBE115
 3057 0be2 F00B0000 		.4byte	0xbf0
 3058 0be6 26       		.uleb128 0x26
 3059 0be7 ED060000 		.4byte	0x6ed
 3060 0beb C5020000 		.4byte	.LLST17
ARM GAS  C:\Users\z80\AppData\Local\Temp\ccRmy9tc.s 			page 55


 3061 0bef 00       		.byte	0
 3062 0bf0 29       		.uleb128 0x29
 3063 0bf1 D2010000 		.4byte	.LBB116
 3064 0bf5 D8010000 		.4byte	.LBE116
 3065 0bf9 070C0000 		.4byte	0xc07
 3066 0bfd 26       		.uleb128 0x26
 3067 0bfe FE060000 		.4byte	0x6fe
 3068 0c02 D8020000 		.4byte	.LLST18
 3069 0c06 00       		.byte	0
 3070 0c07 29       		.uleb128 0x29
 3071 0c08 F8010000 		.4byte	.LBB117
 3072 0c0c FE010000 		.4byte	.LBE117
 3073 0c10 1E0C0000 		.4byte	0xc1e
 3074 0c14 26       		.uleb128 0x26
 3075 0c15 20070000 		.4byte	0x720
 3076 0c19 EB020000 		.4byte	.LLST19
 3077 0c1d 00       		.byte	0
 3078 0c1e 29       		.uleb128 0x29
 3079 0c1f 2C020000 		.4byte	.LBB118
 3080 0c23 32020000 		.4byte	.LBE118
 3081 0c27 350C0000 		.4byte	0xc35
 3082 0c2b 26       		.uleb128 0x26
 3083 0c2c 31070000 		.4byte	0x731
 3084 0c30 FE020000 		.4byte	.LLST20
 3085 0c34 00       		.byte	0
 3086 0c35 29       		.uleb128 0x29
 3087 0c36 5C020000 		.4byte	.LBB119
 3088 0c3a 62020000 		.4byte	.LBE119
 3089 0c3e 4C0C0000 		.4byte	0xc4c
 3090 0c42 26       		.uleb128 0x26
 3091 0c43 53070000 		.4byte	0x753
 3092 0c47 11030000 		.4byte	.LLST21
 3093 0c4b 00       		.byte	0
 3094 0c4c 29       		.uleb128 0x29
 3095 0c4d 66020000 		.4byte	.LBB120
 3096 0c51 6C020000 		.4byte	.LBE120
 3097 0c55 630C0000 		.4byte	0xc63
 3098 0c59 26       		.uleb128 0x26
 3099 0c5a 64070000 		.4byte	0x764
 3100 0c5e 24030000 		.4byte	.LLST22
 3101 0c62 00       		.byte	0
 3102 0c63 29       		.uleb128 0x29
 3103 0c64 7A020000 		.4byte	.LBB121
 3104 0c68 80020000 		.4byte	.LBE121
 3105 0c6c 7A0C0000 		.4byte	0xc7a
 3106 0c70 26       		.uleb128 0x26
 3107 0c71 75070000 		.4byte	0x775
 3108 0c75 37030000 		.4byte	.LLST23
 3109 0c79 00       		.byte	0
 3110 0c7a 29       		.uleb128 0x29
 3111 0c7b 80020000 		.4byte	.LBB122
 3112 0c7f 86020000 		.4byte	.LBE122
 3113 0c83 910C0000 		.4byte	0xc91
 3114 0c87 26       		.uleb128 0x26
 3115 0c88 86070000 		.4byte	0x786
 3116 0c8c 4A030000 		.4byte	.LLST24
 3117 0c90 00       		.byte	0
ARM GAS  C:\Users\z80\AppData\Local\Temp\ccRmy9tc.s 			page 56


 3118 0c91 29       		.uleb128 0x29
 3119 0c92 AA020000 		.4byte	.LBB123
 3120 0c96 B0020000 		.4byte	.LBE123
 3121 0c9a A80C0000 		.4byte	0xca8
 3122 0c9e 26       		.uleb128 0x26
 3123 0c9f A8070000 		.4byte	0x7a8
 3124 0ca3 5D030000 		.4byte	.LLST25
 3125 0ca7 00       		.byte	0
 3126 0ca8 29       		.uleb128 0x29
 3127 0ca9 EE020000 		.4byte	.LBB124
 3128 0cad F4020000 		.4byte	.LBE124
 3129 0cb1 BF0C0000 		.4byte	0xcbf
 3130 0cb5 26       		.uleb128 0x26
 3131 0cb6 B9070000 		.4byte	0x7b9
 3132 0cba 70030000 		.4byte	.LLST26
 3133 0cbe 00       		.byte	0
 3134 0cbf 29       		.uleb128 0x29
 3135 0cc0 0E030000 		.4byte	.LBB125
 3136 0cc4 14030000 		.4byte	.LBE125
 3137 0cc8 D60C0000 		.4byte	0xcd6
 3138 0ccc 26       		.uleb128 0x26
 3139 0ccd D7070000 		.4byte	0x7d7
 3140 0cd1 83030000 		.4byte	.LLST27
 3141 0cd5 00       		.byte	0
 3142 0cd6 29       		.uleb128 0x29
 3143 0cd7 40030000 		.4byte	.LBB126
 3144 0cdb 46030000 		.4byte	.LBE126
 3145 0cdf ED0C0000 		.4byte	0xced
 3146 0ce3 26       		.uleb128 0x26
 3147 0ce4 CA070000 		.4byte	0x7ca
 3148 0ce8 96030000 		.4byte	.LLST28
 3149 0cec 00       		.byte	0
 3150 0ced 29       		.uleb128 0x29
 3151 0cee 50030000 		.4byte	.LBB127
 3152 0cf2 58030000 		.4byte	.LBE127
 3153 0cf6 040D0000 		.4byte	0xd04
 3154 0cfa 26       		.uleb128 0x26
 3155 0cfb 49060000 		.4byte	0x649
 3156 0cff A9030000 		.4byte	.LLST29
 3157 0d03 00       		.byte	0
 3158 0d04 29       		.uleb128 0x29
 3159 0d05 70030000 		.4byte	.LBB128
 3160 0d09 78030000 		.4byte	.LBE128
 3161 0d0d 1B0D0000 		.4byte	0xd1b
 3162 0d11 26       		.uleb128 0x26
 3163 0d12 97070000 		.4byte	0x797
 3164 0d16 C7030000 		.4byte	.LLST30
 3165 0d1a 00       		.byte	0
 3166 0d1b 29       		.uleb128 0x29
 3167 0d1c 7C030000 		.4byte	.LBB129
 3168 0d20 84030000 		.4byte	.LBE129
 3169 0d24 320D0000 		.4byte	0xd32
 3170 0d28 26       		.uleb128 0x26
 3171 0d29 0F070000 		.4byte	0x70f
 3172 0d2d E5030000 		.4byte	.LLST31
 3173 0d31 00       		.byte	0
 3174 0d32 2A       		.uleb128 0x2a
ARM GAS  C:\Users\z80\AppData\Local\Temp\ccRmy9tc.s 			page 57


 3175 0d33 88030000 		.4byte	.LBB130
 3176 0d37 90030000 		.4byte	.LBE130
 3177 0d3b 26       		.uleb128 0x26
 3178 0d3c 42070000 		.4byte	0x742
 3179 0d40 03040000 		.4byte	.LLST32
 3180 0d44 00       		.byte	0
 3181 0d45 00       		.byte	0
 3182 0d46 00       		.byte	0
 3183 0d47 00       		.byte	0
 3184 0d48 23       		.uleb128 0x23
 3185 0d49 E4070000 		.4byte	0x7e4
 3186 0d4d 00000000 		.4byte	.LFB10
 3187 0d51 A4030000 		.4byte	.LFE10
 3188 0d55 21040000 		.4byte	.LLST33
 3189 0d59 23100000 		.4byte	0x1023
 3190 0d5d 24       		.uleb128 0x24
 3191 0d5e F1070000 		.4byte	0x7f1
 3192 0d62 24       		.uleb128 0x24
 3193 0d63 FA070000 		.4byte	0x7fa
 3194 0d67 25       		.uleb128 0x25
 3195 0d68 B8000000 		.4byte	.Ldebug_ranges0+0xb8
 3196 0d6c 7A0D0000 		.4byte	0xd7a
 3197 0d70 26       		.uleb128 0x26
 3198 0d71 08080000 		.4byte	0x808
 3199 0d75 4D040000 		.4byte	.LLST34
 3200 0d79 00       		.byte	0
 3201 0d7a 27       		.uleb128 0x27
 3202 0d7b E4070000 		.4byte	0x7e4
 3203 0d7f 30000000 		.4byte	.LBB175
 3204 0d83 D0000000 		.4byte	.Ldebug_ranges0+0xd0
 3205 0d87 01       		.byte	0x1
 3206 0d88 65       		.byte	0x65
 3207 0d89 28       		.uleb128 0x28
 3208 0d8a F0000000 		.4byte	.Ldebug_ranges0+0xf0
 3209 0d8e 26       		.uleb128 0x26
 3210 0d8f F1070000 		.4byte	0x7f1
 3211 0d93 60040000 		.4byte	.LLST35
 3212 0d97 26       		.uleb128 0x26
 3213 0d98 FA070000 		.4byte	0x7fa
 3214 0d9c 64050000 		.4byte	.LLST36
 3215 0da0 29       		.uleb128 0x29
 3216 0da1 34000000 		.4byte	.LBB177
 3217 0da5 3A000000 		.4byte	.LBE177
 3218 0da9 B70D0000 		.4byte	0xdb7
 3219 0dad 26       		.uleb128 0x26
 3220 0dae 2A080000 		.4byte	0x82a
 3221 0db2 9A050000 		.4byte	.LLST37
 3222 0db6 00       		.byte	0
 3223 0db7 29       		.uleb128 0x29
 3224 0db8 3A000000 		.4byte	.LBB178
 3225 0dbc 40000000 		.4byte	.LBE178
 3226 0dc0 CE0D0000 		.4byte	0xdce
 3227 0dc4 26       		.uleb128 0x26
 3228 0dc5 3B080000 		.4byte	0x83b
 3229 0dc9 AD050000 		.4byte	.LLST38
 3230 0dcd 00       		.byte	0
 3231 0dce 29       		.uleb128 0x29
ARM GAS  C:\Users\z80\AppData\Local\Temp\ccRmy9tc.s 			page 58


 3232 0dcf 68000000 		.4byte	.LBB179
 3233 0dd3 6E000000 		.4byte	.LBE179
 3234 0dd7 E50D0000 		.4byte	0xde5
 3235 0ddb 26       		.uleb128 0x26
 3236 0ddc 4C080000 		.4byte	0x84c
 3237 0de0 C0050000 		.4byte	.LLST39
 3238 0de4 00       		.byte	0
 3239 0de5 29       		.uleb128 0x29
 3240 0de6 6E000000 		.4byte	.LBB180
 3241 0dea 74000000 		.4byte	.LBE180
 3242 0dee FC0D0000 		.4byte	0xdfc
 3243 0df2 26       		.uleb128 0x26
 3244 0df3 5D080000 		.4byte	0x85d
 3245 0df7 D3050000 		.4byte	.LLST40
 3246 0dfb 00       		.byte	0
 3247 0dfc 29       		.uleb128 0x29
 3248 0dfd 98000000 		.4byte	.LBB181
 3249 0e01 9E000000 		.4byte	.LBE181
 3250 0e05 130E0000 		.4byte	0xe13
 3251 0e09 26       		.uleb128 0x26
 3252 0e0a 7F080000 		.4byte	0x87f
 3253 0e0e E6050000 		.4byte	.LLST41
 3254 0e12 00       		.byte	0
 3255 0e13 29       		.uleb128 0x29
 3256 0e14 9E000000 		.4byte	.LBB182
 3257 0e18 A4000000 		.4byte	.LBE182
 3258 0e1c 2A0E0000 		.4byte	0xe2a
 3259 0e20 26       		.uleb128 0x26
 3260 0e21 90080000 		.4byte	0x890
 3261 0e25 F9050000 		.4byte	.LLST42
 3262 0e29 00       		.byte	0
 3263 0e2a 29       		.uleb128 0x29
 3264 0e2b D2000000 		.4byte	.LBB183
 3265 0e2f D8000000 		.4byte	.LBE183
 3266 0e33 410E0000 		.4byte	0xe41
 3267 0e37 26       		.uleb128 0x26
 3268 0e38 B2080000 		.4byte	0x8b2
 3269 0e3c 0C060000 		.4byte	.LLST43
 3270 0e40 00       		.byte	0
 3271 0e41 29       		.uleb128 0x29
 3272 0e42 18010000 		.4byte	.LBB184
 3273 0e46 1E010000 		.4byte	.LBE184
 3274 0e4a 580E0000 		.4byte	0xe58
 3275 0e4e 26       		.uleb128 0x26
 3276 0e4f C3080000 		.4byte	0x8c3
 3277 0e53 1F060000 		.4byte	.LLST44
 3278 0e57 00       		.byte	0
 3279 0e58 29       		.uleb128 0x29
 3280 0e59 3E010000 		.4byte	.LBB185
 3281 0e5d 44010000 		.4byte	.LBE185
 3282 0e61 6F0E0000 		.4byte	0xe6f
 3283 0e65 26       		.uleb128 0x26
 3284 0e66 E5080000 		.4byte	0x8e5
 3285 0e6a 32060000 		.4byte	.LLST45
 3286 0e6e 00       		.byte	0
 3287 0e6f 29       		.uleb128 0x29
 3288 0e70 5A010000 		.4byte	.LBB186
ARM GAS  C:\Users\z80\AppData\Local\Temp\ccRmy9tc.s 			page 59


 3289 0e74 60010000 		.4byte	.LBE186
 3290 0e78 860E0000 		.4byte	0xe86
 3291 0e7c 26       		.uleb128 0x26
 3292 0e7d F6080000 		.4byte	0x8f6
 3293 0e81 45060000 		.4byte	.LLST46
 3294 0e85 00       		.byte	0
 3295 0e86 29       		.uleb128 0x29
 3296 0e87 88010000 		.4byte	.LBB187
 3297 0e8b 8E010000 		.4byte	.LBE187
 3298 0e8f 9D0E0000 		.4byte	0xe9d
 3299 0e93 26       		.uleb128 0x26
 3300 0e94 07090000 		.4byte	0x907
 3301 0e98 58060000 		.4byte	.LLST47
 3302 0e9c 00       		.byte	0
 3303 0e9d 29       		.uleb128 0x29
 3304 0e9e BC010000 		.4byte	.LBB188
 3305 0ea2 C2010000 		.4byte	.LBE188
 3306 0ea6 B40E0000 		.4byte	0xeb4
 3307 0eaa 26       		.uleb128 0x26
 3308 0eab 18090000 		.4byte	0x918
 3309 0eaf 6B060000 		.4byte	.LLST48
 3310 0eb3 00       		.byte	0
 3311 0eb4 29       		.uleb128 0x29
 3312 0eb5 E2010000 		.4byte	.LBB189
 3313 0eb9 E8010000 		.4byte	.LBE189
 3314 0ebd CB0E0000 		.4byte	0xecb
 3315 0ec1 26       		.uleb128 0x26
 3316 0ec2 3A090000 		.4byte	0x93a
 3317 0ec6 7E060000 		.4byte	.LLST49
 3318 0eca 00       		.byte	0
 3319 0ecb 29       		.uleb128 0x29
 3320 0ecc E8010000 		.4byte	.LBB190
 3321 0ed0 EE010000 		.4byte	.LBE190
 3322 0ed4 E20E0000 		.4byte	0xee2
 3323 0ed8 26       		.uleb128 0x26
 3324 0ed9 4B090000 		.4byte	0x94b
 3325 0edd 91060000 		.4byte	.LLST50
 3326 0ee1 00       		.byte	0
 3327 0ee2 29       		.uleb128 0x29
 3328 0ee3 16020000 		.4byte	.LBB191
 3329 0ee7 1C020000 		.4byte	.LBE191
 3330 0eeb F90E0000 		.4byte	0xef9
 3331 0eef 26       		.uleb128 0x26
 3332 0ef0 5C090000 		.4byte	0x95c
 3333 0ef4 A4060000 		.4byte	.LLST51
 3334 0ef8 00       		.byte	0
 3335 0ef9 29       		.uleb128 0x29
 3336 0efa 62020000 		.4byte	.LBB192
 3337 0efe 68020000 		.4byte	.LBE192
 3338 0f02 100F0000 		.4byte	0xf10
 3339 0f06 26       		.uleb128 0x26
 3340 0f07 6D090000 		.4byte	0x96d
 3341 0f0b B7060000 		.4byte	.LLST52
 3342 0f0f 00       		.byte	0
 3343 0f10 29       		.uleb128 0x29
 3344 0f11 88020000 		.4byte	.LBB193
 3345 0f15 8E020000 		.4byte	.LBE193
ARM GAS  C:\Users\z80\AppData\Local\Temp\ccRmy9tc.s 			page 60


 3346 0f19 270F0000 		.4byte	0xf27
 3347 0f1d 26       		.uleb128 0x26
 3348 0f1e 8F090000 		.4byte	0x98f
 3349 0f22 CA060000 		.4byte	.LLST53
 3350 0f26 00       		.byte	0
 3351 0f27 29       		.uleb128 0x29
 3352 0f28 8E020000 		.4byte	.LBB194
 3353 0f2c 94020000 		.4byte	.LBE194
 3354 0f30 3E0F0000 		.4byte	0xf3e
 3355 0f34 26       		.uleb128 0x26
 3356 0f35 A0090000 		.4byte	0x9a0
 3357 0f39 DD060000 		.4byte	.LLST54
 3358 0f3d 00       		.byte	0
 3359 0f3e 29       		.uleb128 0x29
 3360 0f3f AA020000 		.4byte	.LBB195
 3361 0f43 B0020000 		.4byte	.LBE195
 3362 0f47 550F0000 		.4byte	0xf55
 3363 0f4b 26       		.uleb128 0x26
 3364 0f4c B1090000 		.4byte	0x9b1
 3365 0f50 F0060000 		.4byte	.LLST55
 3366 0f54 00       		.byte	0
 3367 0f55 29       		.uleb128 0x29
 3368 0f56 B0020000 		.4byte	.LBB196
 3369 0f5a B6020000 		.4byte	.LBE196
 3370 0f5e 6C0F0000 		.4byte	0xf6c
 3371 0f62 26       		.uleb128 0x26
 3372 0f63 C2090000 		.4byte	0x9c2
 3373 0f67 03070000 		.4byte	.LLST56
 3374 0f6b 00       		.byte	0
 3375 0f6c 29       		.uleb128 0x29
 3376 0f6d D2020000 		.4byte	.LBB197
 3377 0f71 D8020000 		.4byte	.LBE197
 3378 0f75 830F0000 		.4byte	0xf83
 3379 0f79 26       		.uleb128 0x26
 3380 0f7a E4090000 		.4byte	0x9e4
 3381 0f7e 16070000 		.4byte	.LLST57
 3382 0f82 00       		.byte	0
 3383 0f83 29       		.uleb128 0x29
 3384 0f84 08030000 		.4byte	.LBB198
 3385 0f88 0E030000 		.4byte	.LBE198
 3386 0f8c 9A0F0000 		.4byte	0xf9a
 3387 0f90 26       		.uleb128 0x26
 3388 0f91 F5090000 		.4byte	0x9f5
 3389 0f95 29070000 		.4byte	.LLST58
 3390 0f99 00       		.byte	0
 3391 0f9a 29       		.uleb128 0x29
 3392 0f9b 2C030000 		.4byte	.LBB199
 3393 0f9f 32030000 		.4byte	.LBE199
 3394 0fa3 B10F0000 		.4byte	0xfb1
 3395 0fa7 26       		.uleb128 0x26
 3396 0fa8 130A0000 		.4byte	0xa13
 3397 0fac 3C070000 		.4byte	.LLST59
 3398 0fb0 00       		.byte	0
 3399 0fb1 29       		.uleb128 0x29
 3400 0fb2 5E030000 		.4byte	.LBB200
 3401 0fb6 64030000 		.4byte	.LBE200
 3402 0fba C80F0000 		.4byte	0xfc8
ARM GAS  C:\Users\z80\AppData\Local\Temp\ccRmy9tc.s 			page 61


 3403 0fbe 26       		.uleb128 0x26
 3404 0fbf D3090000 		.4byte	0x9d3
 3405 0fc3 4F070000 		.4byte	.LLST60
 3406 0fc7 00       		.byte	0
 3407 0fc8 29       		.uleb128 0x29
 3408 0fc9 6E030000 		.4byte	.LBB201
 3409 0fcd 76030000 		.4byte	.LBE201
 3410 0fd1 DF0F0000 		.4byte	0xfdf
 3411 0fd5 26       		.uleb128 0x26
 3412 0fd6 D4080000 		.4byte	0x8d4
 3413 0fda 62070000 		.4byte	.LLST61
 3414 0fde 00       		.byte	0
 3415 0fdf 29       		.uleb128 0x29
 3416 0fe0 7A030000 		.4byte	.LBB202
 3417 0fe4 82030000 		.4byte	.LBE202
 3418 0fe8 F60F0000 		.4byte	0xff6
 3419 0fec 26       		.uleb128 0x26
 3420 0fed A1080000 		.4byte	0x8a1
 3421 0ff1 80070000 		.4byte	.LLST62
 3422 0ff5 00       		.byte	0
 3423 0ff6 29       		.uleb128 0x29
 3424 0ff7 90030000 		.4byte	.LBB203
 3425 0ffb 98030000 		.4byte	.LBE203
 3426 0fff 0D100000 		.4byte	0x100d
 3427 1003 26       		.uleb128 0x26
 3428 1004 7E090000 		.4byte	0x97e
 3429 1008 9E070000 		.4byte	.LLST63
 3430 100c 00       		.byte	0
 3431 100d 2A       		.uleb128 0x2a
 3432 100e 9C030000 		.4byte	.LBB204
 3433 1012 A4030000 		.4byte	.LBE204
 3434 1016 26       		.uleb128 0x26
 3435 1017 060A0000 		.4byte	0xa06
 3436 101b BC070000 		.4byte	.LLST64
 3437 101f 00       		.byte	0
 3438 1020 00       		.byte	0
 3439 1021 00       		.byte	0
 3440 1022 00       		.byte	0
 3441 1023 2B       		.uleb128 0x2b
 3442 1024 697100   		.ascii	"iq\000"
 3443 1027 01       		.byte	0x1
 3444 1028 4D       		.byte	0x4d
 3445 1029 EB040000 		.4byte	0x4eb
 3446 102d 05       		.byte	0x5
 3447 102e 03       		.byte	0x3
 3448 102f 00000000 		.4byte	iq
 3449 1033 2B       		.uleb128 0x2b
 3450 1034 6F7100   		.ascii	"oq\000"
 3451 1037 01       		.byte	0x1
 3452 1038 4E       		.byte	0x4e
 3453 1039 F6040000 		.4byte	0x4f6
 3454 103d 05       		.byte	0x5
 3455 103e 03       		.byte	0x3
 3456 103f 00000000 		.4byte	oq
 3457 1043 2C       		.uleb128 0x2c
 3458 1044 6E030000 		.4byte	.LASF86
 3459 1048 08       		.byte	0x8
ARM GAS  C:\Users\z80\AppData\Local\Temp\ccRmy9tc.s 			page 62


 3460 1049 72       		.byte	0x72
 3461 104a A2030000 		.4byte	0x3a2
 3462 104e 01       		.byte	0x1
 3463 104f 01       		.byte	0x1
 3464 1050 15       		.uleb128 0x15
 3465 1051 37020000 		.4byte	0x237
 3466 1055 60100000 		.4byte	0x1060
 3467 1059 16       		.uleb128 0x16
 3468 105a 3B000000 		.4byte	0x3b
 3469 105e 04       		.byte	0x4
 3470 105f 00       		.byte	0
 3471 1060 2C       		.uleb128 0x2c
 3472 1061 AA020000 		.4byte	.LASF87
 3473 1065 0B       		.byte	0xb
 3474 1066 B0       		.byte	0xb0
 3475 1067 50100000 		.4byte	0x1050
 3476 106b 01       		.byte	0x1
 3477 106c 01       		.byte	0x1
 3478 106d 2C       		.uleb128 0x2c
 3479 106e 65000000 		.4byte	.LASF88
 3480 1072 0B       		.byte	0xb
 3481 1073 B1       		.byte	0xb1
 3482 1074 AD050000 		.4byte	0x5ad
 3483 1078 01       		.byte	0x1
 3484 1079 01       		.byte	0x1
 3485 107a 15       		.uleb128 0x15
 3486 107b 75020000 		.4byte	0x275
 3487 107f 85100000 		.4byte	0x1085
 3488 1083 2D       		.uleb128 0x2d
 3489 1084 00       		.byte	0
 3490 1085 2E       		.uleb128 0x2e
 3491 1086 776100   		.ascii	"wa\000"
 3492 1089 0B       		.byte	0xb
 3493 108a B2       		.byte	0xb2
 3494 108b 91100000 		.4byte	0x1091
 3495 108f 01       		.byte	0x1
 3496 1090 01       		.byte	0x1
 3497 1091 10       		.uleb128 0x10
 3498 1092 7A100000 		.4byte	0x107a
 3499 1096 2F       		.uleb128 0x2f
 3500 1097 76010000 		.4byte	.LASF89
 3501 109b 01       		.byte	0x1
 3502 109c A0       		.byte	0xa0
 3503 109d A8100000 		.4byte	0x10a8
 3504 10a1 01       		.byte	0x1
 3505 10a2 05       		.byte	0x5
 3506 10a3 03       		.byte	0x3
 3507 10a4 00000000 		.4byte	testqueues1
 3508 10a8 10       		.uleb128 0x10
 3509 10a9 01050000 		.4byte	0x501
 3510 10ad 2F       		.uleb128 0x2f
 3511 10ae F2010000 		.4byte	.LASF90
 3512 10b2 01       		.byte	0x1
 3513 10b3 EE       		.byte	0xee
 3514 10b4 A8100000 		.4byte	0x10a8
 3515 10b8 01       		.byte	0x1
 3516 10b9 05       		.byte	0x5
ARM GAS  C:\Users\z80\AppData\Local\Temp\ccRmy9tc.s 			page 63


 3517 10ba 03       		.byte	0x3
 3518 10bb 00000000 		.4byte	testqueues2
 3519 10bf 15       		.uleb128 0x15
 3520 10c0 CF100000 		.4byte	0x10cf
 3521 10c4 CF100000 		.4byte	0x10cf
 3522 10c8 16       		.uleb128 0x16
 3523 10c9 3B000000 		.4byte	0x3b
 3524 10cd 02       		.byte	0x2
 3525 10ce 00       		.byte	0
 3526 10cf 09       		.uleb128 0x9
 3527 10d0 04       		.byte	0x4
 3528 10d1 A8100000 		.4byte	0x10a8
 3529 10d5 2F       		.uleb128 0x2f
 3530 10d6 29000000 		.4byte	.LASF91
 3531 10da 01       		.byte	0x1
 3532 10db F9       		.byte	0xf9
 3533 10dc E7100000 		.4byte	0x10e7
 3534 10e0 01       		.byte	0x1
 3535 10e1 05       		.byte	0x5
 3536 10e2 03       		.byte	0x3
 3537 10e3 00000000 		.4byte	patternqueues
 3538 10e7 10       		.uleb128 0x10
 3539 10e8 BF100000 		.4byte	0x10bf
 3540 10ec 00       		.byte	0
 3541              		.section	.debug_abbrev,"",%progbits
 3542              	.Ldebug_abbrev0:
 3543 0000 01       		.uleb128 0x1
 3544 0001 11       		.uleb128 0x11
 3545 0002 01       		.byte	0x1
 3546 0003 25       		.uleb128 0x25
 3547 0004 0E       		.uleb128 0xe
 3548 0005 13       		.uleb128 0x13
 3549 0006 0B       		.uleb128 0xb
 3550 0007 03       		.uleb128 0x3
 3551 0008 0E       		.uleb128 0xe
 3552 0009 1B       		.uleb128 0x1b
 3553 000a 0E       		.uleb128 0xe
 3554 000b 11       		.uleb128 0x11
 3555 000c 01       		.uleb128 0x1
 3556 000d 52       		.uleb128 0x52
 3557 000e 01       		.uleb128 0x1
 3558 000f 55       		.uleb128 0x55
 3559 0010 06       		.uleb128 0x6
 3560 0011 10       		.uleb128 0x10
 3561 0012 06       		.uleb128 0x6
 3562 0013 00       		.byte	0
 3563 0014 00       		.byte	0
 3564 0015 02       		.uleb128 0x2
 3565 0016 24       		.uleb128 0x24
 3566 0017 00       		.byte	0
 3567 0018 0B       		.uleb128 0xb
 3568 0019 0B       		.uleb128 0xb
 3569 001a 3E       		.uleb128 0x3e
 3570 001b 0B       		.uleb128 0xb
 3571 001c 03       		.uleb128 0x3
 3572 001d 08       		.uleb128 0x8
 3573 001e 00       		.byte	0
ARM GAS  C:\Users\z80\AppData\Local\Temp\ccRmy9tc.s 			page 64


 3574 001f 00       		.byte	0
 3575 0020 03       		.uleb128 0x3
 3576 0021 16       		.uleb128 0x16
 3577 0022 00       		.byte	0
 3578 0023 03       		.uleb128 0x3
 3579 0024 0E       		.uleb128 0xe
 3580 0025 3A       		.uleb128 0x3a
 3581 0026 0B       		.uleb128 0xb
 3582 0027 3B       		.uleb128 0x3b
 3583 0028 0B       		.uleb128 0xb
 3584 0029 49       		.uleb128 0x49
 3585 002a 13       		.uleb128 0x13
 3586 002b 00       		.byte	0
 3587 002c 00       		.byte	0
 3588 002d 04       		.uleb128 0x4
 3589 002e 24       		.uleb128 0x24
 3590 002f 00       		.byte	0
 3591 0030 0B       		.uleb128 0xb
 3592 0031 0B       		.uleb128 0xb
 3593 0032 3E       		.uleb128 0x3e
 3594 0033 0B       		.uleb128 0xb
 3595 0034 03       		.uleb128 0x3
 3596 0035 0E       		.uleb128 0xe
 3597 0036 00       		.byte	0
 3598 0037 00       		.byte	0
 3599 0038 05       		.uleb128 0x5
 3600 0039 13       		.uleb128 0x13
 3601 003a 01       		.byte	0x1
 3602 003b 03       		.uleb128 0x3
 3603 003c 0E       		.uleb128 0xe
 3604 003d 0B       		.uleb128 0xb
 3605 003e 0B       		.uleb128 0xb
 3606 003f 3A       		.uleb128 0x3a
 3607 0040 0B       		.uleb128 0xb
 3608 0041 3B       		.uleb128 0x3b
 3609 0042 0B       		.uleb128 0xb
 3610 0043 01       		.uleb128 0x1
 3611 0044 13       		.uleb128 0x13
 3612 0045 00       		.byte	0
 3613 0046 00       		.byte	0
 3614 0047 06       		.uleb128 0x6
 3615 0048 0D       		.uleb128 0xd
 3616 0049 00       		.byte	0
 3617 004a 03       		.uleb128 0x3
 3618 004b 0E       		.uleb128 0xe
 3619 004c 3A       		.uleb128 0x3a
 3620 004d 0B       		.uleb128 0xb
 3621 004e 3B       		.uleb128 0x3b
 3622 004f 0B       		.uleb128 0xb
 3623 0050 49       		.uleb128 0x49
 3624 0051 13       		.uleb128 0x13
 3625 0052 38       		.uleb128 0x38
 3626 0053 0A       		.uleb128 0xa
 3627 0054 00       		.byte	0
 3628 0055 00       		.byte	0
 3629 0056 07       		.uleb128 0x7
 3630 0057 0D       		.uleb128 0xd
ARM GAS  C:\Users\z80\AppData\Local\Temp\ccRmy9tc.s 			page 65


 3631 0058 00       		.byte	0
 3632 0059 03       		.uleb128 0x3
 3633 005a 08       		.uleb128 0x8
 3634 005b 3A       		.uleb128 0x3a
 3635 005c 0B       		.uleb128 0xb
 3636 005d 3B       		.uleb128 0x3b
 3637 005e 0B       		.uleb128 0xb
 3638 005f 49       		.uleb128 0x49
 3639 0060 13       		.uleb128 0x13
 3640 0061 38       		.uleb128 0x38
 3641 0062 0A       		.uleb128 0xa
 3642 0063 00       		.byte	0
 3643 0064 00       		.byte	0
 3644 0065 08       		.uleb128 0x8
 3645 0066 13       		.uleb128 0x13
 3646 0067 01       		.byte	0x1
 3647 0068 0B       		.uleb128 0xb
 3648 0069 0B       		.uleb128 0xb
 3649 006a 3A       		.uleb128 0x3a
 3650 006b 0B       		.uleb128 0xb
 3651 006c 3B       		.uleb128 0x3b
 3652 006d 0B       		.uleb128 0xb
 3653 006e 01       		.uleb128 0x1
 3654 006f 13       		.uleb128 0x13
 3655 0070 00       		.byte	0
 3656 0071 00       		.byte	0
 3657 0072 09       		.uleb128 0x9
 3658 0073 0F       		.uleb128 0xf
 3659 0074 00       		.byte	0
 3660 0075 0B       		.uleb128 0xb
 3661 0076 0B       		.uleb128 0xb
 3662 0077 49       		.uleb128 0x49
 3663 0078 13       		.uleb128 0x13
 3664 0079 00       		.byte	0
 3665 007a 00       		.byte	0
 3666 007b 0A       		.uleb128 0xa
 3667 007c 0F       		.uleb128 0xf
 3668 007d 00       		.byte	0
 3669 007e 0B       		.uleb128 0xb
 3670 007f 0B       		.uleb128 0xb
 3671 0080 00       		.byte	0
 3672 0081 00       		.byte	0
 3673 0082 0B       		.uleb128 0xb
 3674 0083 0D       		.uleb128 0xd
 3675 0084 00       		.byte	0
 3676 0085 03       		.uleb128 0x3
 3677 0086 08       		.uleb128 0x8
 3678 0087 3A       		.uleb128 0x3a
 3679 0088 0B       		.uleb128 0xb
 3680 0089 3B       		.uleb128 0x3b
 3681 008a 05       		.uleb128 0x5
 3682 008b 49       		.uleb128 0x49
 3683 008c 13       		.uleb128 0x13
 3684 008d 38       		.uleb128 0x38
 3685 008e 0A       		.uleb128 0xa
 3686 008f 00       		.byte	0
 3687 0090 00       		.byte	0
ARM GAS  C:\Users\z80\AppData\Local\Temp\ccRmy9tc.s 			page 66


 3688 0091 0C       		.uleb128 0xc
 3689 0092 13       		.uleb128 0x13
 3690 0093 01       		.byte	0x1
 3691 0094 03       		.uleb128 0x3
 3692 0095 0E       		.uleb128 0xe
 3693 0096 0B       		.uleb128 0xb
 3694 0097 0B       		.uleb128 0xb
 3695 0098 3A       		.uleb128 0x3a
 3696 0099 0B       		.uleb128 0xb
 3697 009a 3B       		.uleb128 0x3b
 3698 009b 05       		.uleb128 0x5
 3699 009c 01       		.uleb128 0x1
 3700 009d 13       		.uleb128 0x13
 3701 009e 00       		.byte	0
 3702 009f 00       		.byte	0
 3703 00a0 0D       		.uleb128 0xd
 3704 00a1 35       		.uleb128 0x35
 3705 00a2 00       		.byte	0
 3706 00a3 49       		.uleb128 0x49
 3707 00a4 13       		.uleb128 0x13
 3708 00a5 00       		.byte	0
 3709 00a6 00       		.byte	0
 3710 00a7 0E       		.uleb128 0xe
 3711 00a8 17       		.uleb128 0x17
 3712 00a9 01       		.byte	0x1
 3713 00aa 0B       		.uleb128 0xb
 3714 00ab 0B       		.uleb128 0xb
 3715 00ac 3A       		.uleb128 0x3a
 3716 00ad 0B       		.uleb128 0xb
 3717 00ae 3B       		.uleb128 0x3b
 3718 00af 0B       		.uleb128 0xb
 3719 00b0 01       		.uleb128 0x1
 3720 00b1 13       		.uleb128 0x13
 3721 00b2 00       		.byte	0
 3722 00b3 00       		.byte	0
 3723 00b4 0F       		.uleb128 0xf
 3724 00b5 0D       		.uleb128 0xd
 3725 00b6 00       		.byte	0
 3726 00b7 03       		.uleb128 0x3
 3727 00b8 0E       		.uleb128 0xe
 3728 00b9 3A       		.uleb128 0x3a
 3729 00ba 0B       		.uleb128 0xb
 3730 00bb 3B       		.uleb128 0x3b
 3731 00bc 0B       		.uleb128 0xb
 3732 00bd 49       		.uleb128 0x49
 3733 00be 13       		.uleb128 0x13
 3734 00bf 00       		.byte	0
 3735 00c0 00       		.byte	0
 3736 00c1 10       		.uleb128 0x10
 3737 00c2 26       		.uleb128 0x26
 3738 00c3 00       		.byte	0
 3739 00c4 49       		.uleb128 0x49
 3740 00c5 13       		.uleb128 0x13
 3741 00c6 00       		.byte	0
 3742 00c7 00       		.byte	0
 3743 00c8 11       		.uleb128 0x11
 3744 00c9 15       		.uleb128 0x15
ARM GAS  C:\Users\z80\AppData\Local\Temp\ccRmy9tc.s 			page 67


 3745 00ca 01       		.byte	0x1
 3746 00cb 27       		.uleb128 0x27
 3747 00cc 0C       		.uleb128 0xc
 3748 00cd 01       		.uleb128 0x1
 3749 00ce 13       		.uleb128 0x13
 3750 00cf 00       		.byte	0
 3751 00d0 00       		.byte	0
 3752 00d1 12       		.uleb128 0x12
 3753 00d2 05       		.uleb128 0x5
 3754 00d3 00       		.byte	0
 3755 00d4 49       		.uleb128 0x49
 3756 00d5 13       		.uleb128 0x13
 3757 00d6 00       		.byte	0
 3758 00d7 00       		.byte	0
 3759 00d8 13       		.uleb128 0x13
 3760 00d9 15       		.uleb128 0x15
 3761 00da 00       		.byte	0
 3762 00db 27       		.uleb128 0x27
 3763 00dc 0C       		.uleb128 0xc
 3764 00dd 00       		.byte	0
 3765 00de 00       		.byte	0
 3766 00df 14       		.uleb128 0x14
 3767 00e0 13       		.uleb128 0x13
 3768 00e1 01       		.byte	0x1
 3769 00e2 0B       		.uleb128 0xb
 3770 00e3 05       		.uleb128 0x5
 3771 00e4 3A       		.uleb128 0x3a
 3772 00e5 0B       		.uleb128 0xb
 3773 00e6 3B       		.uleb128 0x3b
 3774 00e7 0B       		.uleb128 0xb
 3775 00e8 01       		.uleb128 0x1
 3776 00e9 13       		.uleb128 0x13
 3777 00ea 00       		.byte	0
 3778 00eb 00       		.byte	0
 3779 00ec 15       		.uleb128 0x15
 3780 00ed 01       		.uleb128 0x1
 3781 00ee 01       		.byte	0x1
 3782 00ef 49       		.uleb128 0x49
 3783 00f0 13       		.uleb128 0x13
 3784 00f1 01       		.uleb128 0x1
 3785 00f2 13       		.uleb128 0x13
 3786 00f3 00       		.byte	0
 3787 00f4 00       		.byte	0
 3788 00f5 16       		.uleb128 0x16
 3789 00f6 21       		.uleb128 0x21
 3790 00f7 00       		.byte	0
 3791 00f8 49       		.uleb128 0x49
 3792 00f9 13       		.uleb128 0x13
 3793 00fa 2F       		.uleb128 0x2f
 3794 00fb 0B       		.uleb128 0xb
 3795 00fc 00       		.byte	0
 3796 00fd 00       		.byte	0
 3797 00fe 17       		.uleb128 0x17
 3798 00ff 17       		.uleb128 0x17
 3799 0100 01       		.byte	0x1
 3800 0101 03       		.uleb128 0x3
 3801 0102 0E       		.uleb128 0xe
ARM GAS  C:\Users\z80\AppData\Local\Temp\ccRmy9tc.s 			page 68


 3802 0103 0B       		.uleb128 0xb
 3803 0104 05       		.uleb128 0x5
 3804 0105 3A       		.uleb128 0x3a
 3805 0106 0B       		.uleb128 0xb
 3806 0107 3B       		.uleb128 0x3b
 3807 0108 0B       		.uleb128 0xb
 3808 0109 01       		.uleb128 0x1
 3809 010a 13       		.uleb128 0x13
 3810 010b 00       		.byte	0
 3811 010c 00       		.byte	0
 3812 010d 18       		.uleb128 0x18
 3813 010e 0D       		.uleb128 0xd
 3814 010f 00       		.byte	0
 3815 0110 03       		.uleb128 0x3
 3816 0111 08       		.uleb128 0x8
 3817 0112 3A       		.uleb128 0x3a
 3818 0113 0B       		.uleb128 0xb
 3819 0114 3B       		.uleb128 0x3b
 3820 0115 0B       		.uleb128 0xb
 3821 0116 49       		.uleb128 0x49
 3822 0117 13       		.uleb128 0x13
 3823 0118 00       		.byte	0
 3824 0119 00       		.byte	0
 3825 011a 19       		.uleb128 0x19
 3826 011b 21       		.uleb128 0x21
 3827 011c 00       		.byte	0
 3828 011d 49       		.uleb128 0x49
 3829 011e 13       		.uleb128 0x13
 3830 011f 2F       		.uleb128 0x2f
 3831 0120 05       		.uleb128 0x5
 3832 0121 00       		.byte	0
 3833 0122 00       		.byte	0
 3834 0123 1A       		.uleb128 0x1a
 3835 0124 2E       		.uleb128 0x2e
 3836 0125 01       		.byte	0x1
 3837 0126 03       		.uleb128 0x3
 3838 0127 0E       		.uleb128 0xe
 3839 0128 3A       		.uleb128 0x3a
 3840 0129 0B       		.uleb128 0xb
 3841 012a 3B       		.uleb128 0x3b
 3842 012b 0B       		.uleb128 0xb
 3843 012c 27       		.uleb128 0x27
 3844 012d 0C       		.uleb128 0xc
 3845 012e 20       		.uleb128 0x20
 3846 012f 0B       		.uleb128 0xb
 3847 0130 01       		.uleb128 0x1
 3848 0131 13       		.uleb128 0x13
 3849 0132 00       		.byte	0
 3850 0133 00       		.byte	0
 3851 0134 1B       		.uleb128 0x1b
 3852 0135 34       		.uleb128 0x34
 3853 0136 00       		.byte	0
 3854 0137 03       		.uleb128 0x3
 3855 0138 08       		.uleb128 0x8
 3856 0139 3A       		.uleb128 0x3a
 3857 013a 0B       		.uleb128 0xb
 3858 013b 3B       		.uleb128 0x3b
ARM GAS  C:\Users\z80\AppData\Local\Temp\ccRmy9tc.s 			page 69


 3859 013c 0B       		.uleb128 0xb
 3860 013d 49       		.uleb128 0x49
 3861 013e 13       		.uleb128 0x13
 3862 013f 00       		.byte	0
 3863 0140 00       		.byte	0
 3864 0141 1C       		.uleb128 0x1c
 3865 0142 0B       		.uleb128 0xb
 3866 0143 01       		.byte	0x1
 3867 0144 01       		.uleb128 0x1
 3868 0145 13       		.uleb128 0x13
 3869 0146 00       		.byte	0
 3870 0147 00       		.byte	0
 3871 0148 1D       		.uleb128 0x1d
 3872 0149 0B       		.uleb128 0xb
 3873 014a 01       		.byte	0x1
 3874 014b 00       		.byte	0
 3875 014c 00       		.byte	0
 3876 014d 1E       		.uleb128 0x1e
 3877 014e 2E       		.uleb128 0x2e
 3878 014f 01       		.byte	0x1
 3879 0150 03       		.uleb128 0x3
 3880 0151 0E       		.uleb128 0xe
 3881 0152 3A       		.uleb128 0x3a
 3882 0153 0B       		.uleb128 0xb
 3883 0154 3B       		.uleb128 0x3b
 3884 0155 0B       		.uleb128 0xb
 3885 0156 27       		.uleb128 0x27
 3886 0157 0C       		.uleb128 0xc
 3887 0158 11       		.uleb128 0x11
 3888 0159 01       		.uleb128 0x1
 3889 015a 12       		.uleb128 0x12
 3890 015b 01       		.uleb128 0x1
 3891 015c 40       		.uleb128 0x40
 3892 015d 0A       		.uleb128 0xa
 3893 015e 01       		.uleb128 0x1
 3894 015f 13       		.uleb128 0x13
 3895 0160 00       		.byte	0
 3896 0161 00       		.byte	0
 3897 0162 1F       		.uleb128 0x1f
 3898 0163 05       		.uleb128 0x5
 3899 0164 00       		.byte	0
 3900 0165 03       		.uleb128 0x3
 3901 0166 08       		.uleb128 0x8
 3902 0167 3A       		.uleb128 0x3a
 3903 0168 0B       		.uleb128 0xb
 3904 0169 3B       		.uleb128 0x3b
 3905 016a 0B       		.uleb128 0xb
 3906 016b 49       		.uleb128 0x49
 3907 016c 13       		.uleb128 0x13
 3908 016d 02       		.uleb128 0x2
 3909 016e 0A       		.uleb128 0xa
 3910 016f 00       		.byte	0
 3911 0170 00       		.byte	0
 3912 0171 20       		.uleb128 0x20
 3913 0172 2E       		.uleb128 0x2e
 3914 0173 01       		.byte	0x1
 3915 0174 03       		.uleb128 0x3
ARM GAS  C:\Users\z80\AppData\Local\Temp\ccRmy9tc.s 			page 70


 3916 0175 0E       		.uleb128 0xe
 3917 0176 3A       		.uleb128 0x3a
 3918 0177 0B       		.uleb128 0xb
 3919 0178 3B       		.uleb128 0x3b
 3920 0179 0B       		.uleb128 0xb
 3921 017a 27       		.uleb128 0x27
 3922 017b 0C       		.uleb128 0xc
 3923 017c 49       		.uleb128 0x49
 3924 017d 13       		.uleb128 0x13
 3925 017e 11       		.uleb128 0x11
 3926 017f 01       		.uleb128 0x1
 3927 0180 12       		.uleb128 0x12
 3928 0181 01       		.uleb128 0x1
 3929 0182 40       		.uleb128 0x40
 3930 0183 06       		.uleb128 0x6
 3931 0184 01       		.uleb128 0x1
 3932 0185 13       		.uleb128 0x13
 3933 0186 00       		.byte	0
 3934 0187 00       		.byte	0
 3935 0188 21       		.uleb128 0x21
 3936 0189 05       		.uleb128 0x5
 3937 018a 00       		.byte	0
 3938 018b 03       		.uleb128 0x3
 3939 018c 08       		.uleb128 0x8
 3940 018d 3A       		.uleb128 0x3a
 3941 018e 0B       		.uleb128 0xb
 3942 018f 3B       		.uleb128 0x3b
 3943 0190 0B       		.uleb128 0xb
 3944 0191 49       		.uleb128 0x49
 3945 0192 13       		.uleb128 0x13
 3946 0193 02       		.uleb128 0x2
 3947 0194 06       		.uleb128 0x6
 3948 0195 00       		.byte	0
 3949 0196 00       		.byte	0
 3950 0197 22       		.uleb128 0x22
 3951 0198 2E       		.uleb128 0x2e
 3952 0199 00       		.byte	0
 3953 019a 03       		.uleb128 0x3
 3954 019b 0E       		.uleb128 0xe
 3955 019c 3A       		.uleb128 0x3a
 3956 019d 0B       		.uleb128 0xb
 3957 019e 3B       		.uleb128 0x3b
 3958 019f 0B       		.uleb128 0xb
 3959 01a0 27       		.uleb128 0x27
 3960 01a1 0C       		.uleb128 0xc
 3961 01a2 11       		.uleb128 0x11
 3962 01a3 01       		.uleb128 0x1
 3963 01a4 12       		.uleb128 0x12
 3964 01a5 01       		.uleb128 0x1
 3965 01a6 40       		.uleb128 0x40
 3966 01a7 0A       		.uleb128 0xa
 3967 01a8 00       		.byte	0
 3968 01a9 00       		.byte	0
 3969 01aa 23       		.uleb128 0x23
 3970 01ab 2E       		.uleb128 0x2e
 3971 01ac 01       		.byte	0x1
 3972 01ad 31       		.uleb128 0x31
ARM GAS  C:\Users\z80\AppData\Local\Temp\ccRmy9tc.s 			page 71


 3973 01ae 13       		.uleb128 0x13
 3974 01af 11       		.uleb128 0x11
 3975 01b0 01       		.uleb128 0x1
 3976 01b1 12       		.uleb128 0x12
 3977 01b2 01       		.uleb128 0x1
 3978 01b3 40       		.uleb128 0x40
 3979 01b4 06       		.uleb128 0x6
 3980 01b5 01       		.uleb128 0x1
 3981 01b6 13       		.uleb128 0x13
 3982 01b7 00       		.byte	0
 3983 01b8 00       		.byte	0
 3984 01b9 24       		.uleb128 0x24
 3985 01ba 34       		.uleb128 0x34
 3986 01bb 00       		.byte	0
 3987 01bc 31       		.uleb128 0x31
 3988 01bd 13       		.uleb128 0x13
 3989 01be 00       		.byte	0
 3990 01bf 00       		.byte	0
 3991 01c0 25       		.uleb128 0x25
 3992 01c1 0B       		.uleb128 0xb
 3993 01c2 01       		.byte	0x1
 3994 01c3 55       		.uleb128 0x55
 3995 01c4 06       		.uleb128 0x6
 3996 01c5 01       		.uleb128 0x1
 3997 01c6 13       		.uleb128 0x13
 3998 01c7 00       		.byte	0
 3999 01c8 00       		.byte	0
 4000 01c9 26       		.uleb128 0x26
 4001 01ca 34       		.uleb128 0x34
 4002 01cb 00       		.byte	0
 4003 01cc 31       		.uleb128 0x31
 4004 01cd 13       		.uleb128 0x13
 4005 01ce 02       		.uleb128 0x2
 4006 01cf 06       		.uleb128 0x6
 4007 01d0 00       		.byte	0
 4008 01d1 00       		.byte	0
 4009 01d2 27       		.uleb128 0x27
 4010 01d3 1D       		.uleb128 0x1d
 4011 01d4 01       		.byte	0x1
 4012 01d5 31       		.uleb128 0x31
 4013 01d6 13       		.uleb128 0x13
 4014 01d7 52       		.uleb128 0x52
 4015 01d8 01       		.uleb128 0x1
 4016 01d9 55       		.uleb128 0x55
 4017 01da 06       		.uleb128 0x6
 4018 01db 58       		.uleb128 0x58
 4019 01dc 0B       		.uleb128 0xb
 4020 01dd 59       		.uleb128 0x59
 4021 01de 0B       		.uleb128 0xb
 4022 01df 00       		.byte	0
 4023 01e0 00       		.byte	0
 4024 01e1 28       		.uleb128 0x28
 4025 01e2 0B       		.uleb128 0xb
 4026 01e3 01       		.byte	0x1
 4027 01e4 55       		.uleb128 0x55
 4028 01e5 06       		.uleb128 0x6
 4029 01e6 00       		.byte	0
ARM GAS  C:\Users\z80\AppData\Local\Temp\ccRmy9tc.s 			page 72


 4030 01e7 00       		.byte	0
 4031 01e8 29       		.uleb128 0x29
 4032 01e9 0B       		.uleb128 0xb
 4033 01ea 01       		.byte	0x1
 4034 01eb 11       		.uleb128 0x11
 4035 01ec 01       		.uleb128 0x1
 4036 01ed 12       		.uleb128 0x12
 4037 01ee 01       		.uleb128 0x1
 4038 01ef 01       		.uleb128 0x1
 4039 01f0 13       		.uleb128 0x13
 4040 01f1 00       		.byte	0
 4041 01f2 00       		.byte	0
 4042 01f3 2A       		.uleb128 0x2a
 4043 01f4 0B       		.uleb128 0xb
 4044 01f5 01       		.byte	0x1
 4045 01f6 11       		.uleb128 0x11
 4046 01f7 01       		.uleb128 0x1
 4047 01f8 12       		.uleb128 0x12
 4048 01f9 01       		.uleb128 0x1
 4049 01fa 00       		.byte	0
 4050 01fb 00       		.byte	0
 4051 01fc 2B       		.uleb128 0x2b
 4052 01fd 34       		.uleb128 0x34
 4053 01fe 00       		.byte	0
 4054 01ff 03       		.uleb128 0x3
 4055 0200 08       		.uleb128 0x8
 4056 0201 3A       		.uleb128 0x3a
 4057 0202 0B       		.uleb128 0xb
 4058 0203 3B       		.uleb128 0x3b
 4059 0204 0B       		.uleb128 0xb
 4060 0205 49       		.uleb128 0x49
 4061 0206 13       		.uleb128 0x13
 4062 0207 02       		.uleb128 0x2
 4063 0208 0A       		.uleb128 0xa
 4064 0209 00       		.byte	0
 4065 020a 00       		.byte	0
 4066 020b 2C       		.uleb128 0x2c
 4067 020c 34       		.uleb128 0x34
 4068 020d 00       		.byte	0
 4069 020e 03       		.uleb128 0x3
 4070 020f 0E       		.uleb128 0xe
 4071 0210 3A       		.uleb128 0x3a
 4072 0211 0B       		.uleb128 0xb
 4073 0212 3B       		.uleb128 0x3b
 4074 0213 0B       		.uleb128 0xb
 4075 0214 49       		.uleb128 0x49
 4076 0215 13       		.uleb128 0x13
 4077 0216 3F       		.uleb128 0x3f
 4078 0217 0C       		.uleb128 0xc
 4079 0218 3C       		.uleb128 0x3c
 4080 0219 0C       		.uleb128 0xc
 4081 021a 00       		.byte	0
 4082 021b 00       		.byte	0
 4083 021c 2D       		.uleb128 0x2d
 4084 021d 21       		.uleb128 0x21
 4085 021e 00       		.byte	0
 4086 021f 00       		.byte	0
ARM GAS  C:\Users\z80\AppData\Local\Temp\ccRmy9tc.s 			page 73


 4087 0220 00       		.byte	0
 4088 0221 2E       		.uleb128 0x2e
 4089 0222 34       		.uleb128 0x34
 4090 0223 00       		.byte	0
 4091 0224 03       		.uleb128 0x3
 4092 0225 08       		.uleb128 0x8
 4093 0226 3A       		.uleb128 0x3a
 4094 0227 0B       		.uleb128 0xb
 4095 0228 3B       		.uleb128 0x3b
 4096 0229 0B       		.uleb128 0xb
 4097 022a 49       		.uleb128 0x49
 4098 022b 13       		.uleb128 0x13
 4099 022c 3F       		.uleb128 0x3f
 4100 022d 0C       		.uleb128 0xc
 4101 022e 3C       		.uleb128 0x3c
 4102 022f 0C       		.uleb128 0xc
 4103 0230 00       		.byte	0
 4104 0231 00       		.byte	0
 4105 0232 2F       		.uleb128 0x2f
 4106 0233 34       		.uleb128 0x34
 4107 0234 00       		.byte	0
 4108 0235 03       		.uleb128 0x3
 4109 0236 0E       		.uleb128 0xe
 4110 0237 3A       		.uleb128 0x3a
 4111 0238 0B       		.uleb128 0xb
 4112 0239 3B       		.uleb128 0x3b
 4113 023a 0B       		.uleb128 0xb
 4114 023b 49       		.uleb128 0x49
 4115 023c 13       		.uleb128 0x13
 4116 023d 3F       		.uleb128 0x3f
 4117 023e 0C       		.uleb128 0xc
 4118 023f 02       		.uleb128 0x2
 4119 0240 0A       		.uleb128 0xa
 4120 0241 00       		.byte	0
 4121 0242 00       		.byte	0
 4122 0243 00       		.byte	0
 4123              		.section	.debug_loc,"",%progbits
 4124              	.Ldebug_loc0:
 4125              	.LLST0:
 4126 0000 00000000 		.4byte	.LFB12
 4127 0004 06000000 		.4byte	.LCFI0
 4128 0008 0200     		.2byte	0x2
 4129 000a 7D       		.byte	0x7d
 4130 000b 00       		.sleb128 0
 4131 000c 06000000 		.4byte	.LCFI0
 4132 0010 16000000 		.4byte	.LFE12
 4133 0014 0200     		.2byte	0x2
 4134 0016 7D       		.byte	0x7d
 4135 0017 08       		.sleb128 8
 4136 0018 00000000 		.4byte	0
 4137 001c 00000000 		.4byte	0
 4138              	.LLST1:
 4139 0020 00000000 		.4byte	.LVL1
 4140 0024 04000000 		.4byte	.LVL2
 4141 0028 0100     		.2byte	0x1
 4142 002a 50       		.byte	0x50
 4143 002b 00000000 		.4byte	0
ARM GAS  C:\Users\z80\AppData\Local\Temp\ccRmy9tc.s 			page 74


 4144 002f 00000000 		.4byte	0
 4145              	.LLST2:
 4146 0033 00000000 		.4byte	.LFB9
 4147 0037 06000000 		.4byte	.LCFI1
 4148 003b 0200     		.2byte	0x2
 4149 003d 7D       		.byte	0x7d
 4150 003e 00       		.sleb128 0
 4151 003f 06000000 		.4byte	.LCFI1
 4152 0043 14000000 		.4byte	.LFE9
 4153 0047 0200     		.2byte	0x2
 4154 0049 7D       		.byte	0x7d
 4155 004a 08       		.sleb128 8
 4156 004b 00000000 		.4byte	0
 4157 004f 00000000 		.4byte	0
 4158              	.LLST3:
 4159 0053 00000000 		.4byte	.LVL3
 4160 0057 04000000 		.4byte	.LVL4
 4161 005b 0100     		.2byte	0x1
 4162 005d 50       		.byte	0x50
 4163 005e 00000000 		.4byte	0
 4164 0062 00000000 		.4byte	0
 4165              	.LLST4:
 4166 0066 00000000 		.4byte	.LFB13
 4167 006a 04000000 		.4byte	.LCFI2
 4168 006e 0200     		.2byte	0x2
 4169 0070 7D       		.byte	0x7d
 4170 0071 00       		.sleb128 0
 4171 0072 04000000 		.4byte	.LCFI2
 4172 0076 08000000 		.4byte	.LCFI3
 4173 007a 0200     		.2byte	0x2
 4174 007c 7D       		.byte	0x7d
 4175 007d 18       		.sleb128 24
 4176 007e 08000000 		.4byte	.LCFI3
 4177 0082 90030000 		.4byte	.LFE13
 4178 0086 0200     		.2byte	0x2
 4179 0088 7D       		.byte	0x7d
 4180 0089 20       		.sleb128 32
 4181 008a 00000000 		.4byte	0
 4182 008e 00000000 		.4byte	0
 4183              	.LLST5:
 4184 0092 0C000000 		.4byte	.LVL6
 4185 0096 17000000 		.4byte	.LVL7-1
 4186 009a 0100     		.2byte	0x1
 4187 009c 53       		.byte	0x53
 4188 009d 00000000 		.4byte	0
 4189 00a1 00000000 		.4byte	0
 4190              	.LLST6:
 4191 00a5 3C000000 		.4byte	.LVL9
 4192 00a9 50000000 		.4byte	.LVL10
 4193 00ad 0200     		.2byte	0x2
 4194 00af 30       		.byte	0x30
 4195 00b0 9F       		.byte	0x9f
 4196 00b1 50000000 		.4byte	.LVL10
 4197 00b5 5C000000 		.4byte	.LVL11
 4198 00b9 0200     		.2byte	0x2
 4199 00bb 31       		.byte	0x31
 4200 00bc 9F       		.byte	0x9f
ARM GAS  C:\Users\z80\AppData\Local\Temp\ccRmy9tc.s 			page 75


 4201 00bd 5C000000 		.4byte	.LVL11
 4202 00c1 68000000 		.4byte	.LVL12
 4203 00c5 0200     		.2byte	0x2
 4204 00c7 32       		.byte	0x32
 4205 00c8 9F       		.byte	0x9f
 4206 00c9 68000000 		.4byte	.LVL12
 4207 00cd 74000000 		.4byte	.LVL13
 4208 00d1 0200     		.2byte	0x2
 4209 00d3 33       		.byte	0x33
 4210 00d4 9F       		.byte	0x9f
 4211 00d5 74000000 		.4byte	.LVL13
 4212 00d9 A0000000 		.4byte	.LVL18
 4213 00dd 0200     		.2byte	0x2
 4214 00df 34       		.byte	0x34
 4215 00e0 9F       		.byte	0x9f
 4216 00e1 A0000000 		.4byte	.LVL18
 4217 00e5 C2000000 		.4byte	.LVL26
 4218 00e9 0200     		.2byte	0x2
 4219 00eb 30       		.byte	0x30
 4220 00ec 9F       		.byte	0x9f
 4221 00ed C2000000 		.4byte	.LVL26
 4222 00f1 E4000000 		.4byte	.LVL32
 4223 00f5 0200     		.2byte	0x2
 4224 00f7 31       		.byte	0x31
 4225 00f8 9F       		.byte	0x9f
 4226 00f9 E4000000 		.4byte	.LVL32
 4227 00fd 06010000 		.4byte	.LVL38
 4228 0101 0200     		.2byte	0x2
 4229 0103 32       		.byte	0x32
 4230 0104 9F       		.byte	0x9f
 4231 0105 06010000 		.4byte	.LVL38
 4232 0109 28010000 		.4byte	.LVL44
 4233 010d 0200     		.2byte	0x2
 4234 010f 33       		.byte	0x33
 4235 0110 9F       		.byte	0x9f
 4236 0111 28010000 		.4byte	.LVL44
 4237 0115 3C030000 		.4byte	.LVL93
 4238 0119 0200     		.2byte	0x2
 4239 011b 34       		.byte	0x34
 4240 011c 9F       		.byte	0x9f
 4241 011d 4C030000 		.4byte	.LVL96
 4242 0121 58030000 		.4byte	.LVL98
 4243 0125 0200     		.2byte	0x2
 4244 0127 34       		.byte	0x34
 4245 0128 9F       		.byte	0x9f
 4246 0129 62030000 		.4byte	.LVL99
 4247 012d 90030000 		.4byte	.LFE13
 4248 0131 0200     		.2byte	0x2
 4249 0133 34       		.byte	0x34
 4250 0134 9F       		.byte	0x9f
 4251 0135 00000000 		.4byte	0
 4252 0139 00000000 		.4byte	0
 4253              	.LLST7:
 4254 013d BA010000 		.4byte	.LVL57
 4255 0141 C6010000 		.4byte	.LVL58
 4256 0145 0100     		.2byte	0x1
 4257 0147 50       		.byte	0x50
ARM GAS  C:\Users\z80\AppData\Local\Temp\ccRmy9tc.s 			page 76


 4258 0148 BA020000 		.4byte	.LVL81
 4259 014c C6020000 		.4byte	.LVL82
 4260 0150 0100     		.2byte	0x1
 4261 0152 50       		.byte	0x50
 4262 0153 C6020000 		.4byte	.LVL82
 4263 0157 C9020000 		.4byte	.LVL83-1
 4264 015b 0300     		.2byte	0x3
 4265 015d 73       		.byte	0x73
 4266 015e 02       		.sleb128 2
 4267 015f 9F       		.byte	0x9f
 4268 0160 DA020000 		.4byte	.LVL84
 4269 0164 E0020000 		.4byte	.LVL85
 4270 0168 0100     		.2byte	0x1
 4271 016a 50       		.byte	0x50
 4272 016b E0020000 		.4byte	.LVL85
 4273 016f E4020000 		.4byte	.LVL86
 4274 0173 0300     		.2byte	0x3
 4275 0175 71       		.byte	0x71
 4276 0176 02       		.sleb128 2
 4277 0177 9F       		.byte	0x9f
 4278 0178 00000000 		.4byte	0
 4279 017c 00000000 		.4byte	0
 4280              	.LLST8:
 4281 0180 3C000000 		.4byte	.LVL9
 4282 0184 4F000000 		.4byte	.LVL10-1
 4283 0188 0100     		.2byte	0x1
 4284 018a 53       		.byte	0x53
 4285 018b 00000000 		.4byte	0
 4286 018f 00000000 		.4byte	0
 4287              	.LLST9:
 4288 0193 7A000000 		.4byte	.LVL15
 4289 0197 7D000000 		.4byte	.LVL16-1
 4290 019b 0100     		.2byte	0x1
 4291 019d 53       		.byte	0x53
 4292 019e 00000000 		.4byte	0
 4293 01a2 00000000 		.4byte	0
 4294              	.LLST10:
 4295 01a6 A0000000 		.4byte	.LVL18
 4296 01aa A2000000 		.4byte	.LVL19
 4297 01ae 0100     		.2byte	0x1
 4298 01b0 53       		.byte	0x53
 4299 01b1 00000000 		.4byte	0
 4300 01b5 00000000 		.4byte	0
 4301              	.LLST11:
 4302 01b9 B2000000 		.4byte	.LVL22
 4303 01bd B5000000 		.4byte	.LVL23-1
 4304 01c1 0100     		.2byte	0x1
 4305 01c3 50       		.byte	0x50
 4306 01c4 B5000000 		.4byte	.LVL23-1
 4307 01c8 D4000000 		.4byte	.LVL29
 4308 01cc 0100     		.2byte	0x1
 4309 01ce 56       		.byte	0x56
 4310 01cf D4000000 		.4byte	.LVL29
 4311 01d3 D7000000 		.4byte	.LVL30-1
 4312 01d7 0100     		.2byte	0x1
 4313 01d9 50       		.byte	0x50
 4314 01da D7000000 		.4byte	.LVL30-1
ARM GAS  C:\Users\z80\AppData\Local\Temp\ccRmy9tc.s 			page 77


 4315 01de F6000000 		.4byte	.LVL35
 4316 01e2 0100     		.2byte	0x1
 4317 01e4 56       		.byte	0x56
 4318 01e5 F6000000 		.4byte	.LVL35
 4319 01e9 F9000000 		.4byte	.LVL36-1
 4320 01ed 0100     		.2byte	0x1
 4321 01ef 50       		.byte	0x50
 4322 01f0 F9000000 		.4byte	.LVL36-1
 4323 01f4 18010000 		.4byte	.LVL41
 4324 01f8 0100     		.2byte	0x1
 4325 01fa 56       		.byte	0x56
 4326 01fb 18010000 		.4byte	.LVL41
 4327 01ff 1B010000 		.4byte	.LVL42-1
 4328 0203 0100     		.2byte	0x1
 4329 0205 50       		.byte	0x50
 4330 0206 1B010000 		.4byte	.LVL42-1
 4331 020a 96010000 		.4byte	.LVL54
 4332 020e 0100     		.2byte	0x1
 4333 0210 56       		.byte	0x56
 4334 0211 62030000 		.4byte	.LVL99
 4335 0215 6C030000 		.4byte	.LVL100
 4336 0219 0100     		.2byte	0x1
 4337 021b 56       		.byte	0x56
 4338 021c 00000000 		.4byte	0
 4339 0220 00000000 		.4byte	0
 4340              	.LLST12:
 4341 0224 A6000000 		.4byte	.LVL20
 4342 0228 A9000000 		.4byte	.LVL21-1
 4343 022c 0100     		.2byte	0x1
 4344 022e 53       		.byte	0x53
 4345 022f C8000000 		.4byte	.LVL27
 4346 0233 CB000000 		.4byte	.LVL28-1
 4347 0237 0100     		.2byte	0x1
 4348 0239 53       		.byte	0x53
 4349 023a EA000000 		.4byte	.LVL33
 4350 023e ED000000 		.4byte	.LVL34-1
 4351 0242 0100     		.2byte	0x1
 4352 0244 53       		.byte	0x53
 4353 0245 0C010000 		.4byte	.LVL39
 4354 0249 0F010000 		.4byte	.LVL40-1
 4355 024d 0100     		.2byte	0x1
 4356 024f 53       		.byte	0x53
 4357 0250 00000000 		.4byte	0
 4358 0254 00000000 		.4byte	0
 4359              	.LLST13:
 4360 0258 BC000000 		.4byte	.LVL25
 4361 025c C1000000 		.4byte	.LVL26-1
 4362 0260 0100     		.2byte	0x1
 4363 0262 53       		.byte	0x53
 4364 0263 DE000000 		.4byte	.LVL31
 4365 0267 E3000000 		.4byte	.LVL32-1
 4366 026b 0100     		.2byte	0x1
 4367 026d 53       		.byte	0x53
 4368 026e 00010000 		.4byte	.LVL37
 4369 0272 05010000 		.4byte	.LVL38-1
 4370 0276 0100     		.2byte	0x1
 4371 0278 53       		.byte	0x53
ARM GAS  C:\Users\z80\AppData\Local\Temp\ccRmy9tc.s 			page 78


 4372 0279 22010000 		.4byte	.LVL43
 4373 027d 27010000 		.4byte	.LVL44-1
 4374 0281 0100     		.2byte	0x1
 4375 0283 53       		.byte	0x53
 4376 0284 00000000 		.4byte	0
 4377 0288 00000000 		.4byte	0
 4378              	.LLST14:
 4379 028c 2E010000 		.4byte	.LVL46
 4380 0290 31010000 		.4byte	.LVL47-1
 4381 0294 0100     		.2byte	0x1
 4382 0296 53       		.byte	0x53
 4383 0297 00000000 		.4byte	0
 4384 029b 00000000 		.4byte	0
 4385              	.LLST15:
 4386 029f 58010000 		.4byte	.LVL49
 4387 02a3 65010000 		.4byte	.LVL50-1
 4388 02a7 0100     		.2byte	0x1
 4389 02a9 53       		.byte	0x53
 4390 02aa 00000000 		.4byte	0
 4391 02ae 00000000 		.4byte	0
 4392              	.LLST16:
 4393 02b2 74010000 		.4byte	.LVL52
 4394 02b6 7F010000 		.4byte	.LVL53-1
 4395 02ba 0100     		.2byte	0x1
 4396 02bc 53       		.byte	0x53
 4397 02bd 00000000 		.4byte	0
 4398 02c1 00000000 		.4byte	0
 4399              	.LLST17:
 4400 02c5 A6010000 		.4byte	.LVL56
 4401 02c9 B9010000 		.4byte	.LVL57-1
 4402 02cd 0100     		.2byte	0x1
 4403 02cf 53       		.byte	0x53
 4404 02d0 00000000 		.4byte	0
 4405 02d4 00000000 		.4byte	0
 4406              	.LLST18:
 4407 02d8 D8010000 		.4byte	.LVL60
 4408 02dc DB010000 		.4byte	.LVL61-1
 4409 02e0 0100     		.2byte	0x1
 4410 02e2 53       		.byte	0x53
 4411 02e3 00000000 		.4byte	0
 4412 02e7 00000000 		.4byte	0
 4413              	.LLST19:
 4414 02eb FE010000 		.4byte	.LVL63
 4415 02ef 08020000 		.4byte	.LVL64
 4416 02f3 0100     		.2byte	0x1
 4417 02f5 53       		.byte	0x53
 4418 02f6 00000000 		.4byte	0
 4419 02fa 00000000 		.4byte	0
 4420              	.LLST20:
 4421 02fe 32020000 		.4byte	.LVL66
 4422 0302 35020000 		.4byte	.LVL67-1
 4423 0306 0100     		.2byte	0x1
 4424 0308 53       		.byte	0x53
 4425 0309 00000000 		.4byte	0
 4426 030d 00000000 		.4byte	0
 4427              	.LLST21:
 4428 0311 62020000 		.4byte	.LVL69
ARM GAS  C:\Users\z80\AppData\Local\Temp\ccRmy9tc.s 			page 79


 4429 0315 65020000 		.4byte	.LVL70-1
 4430 0319 0100     		.2byte	0x1
 4431 031b 53       		.byte	0x53
 4432 031c 00000000 		.4byte	0
 4433 0320 00000000 		.4byte	0
 4434              	.LLST22:
 4435 0324 6C020000 		.4byte	.LVL72
 4436 0328 6F020000 		.4byte	.LVL73-1
 4437 032c 0100     		.2byte	0x1
 4438 032e 53       		.byte	0x53
 4439 032f 00000000 		.4byte	0
 4440 0333 00000000 		.4byte	0
 4441              	.LLST23:
 4442 0337 80020000 		.4byte	.LVL75
 4443 033b 82020000 		.4byte	.LVL76
 4444 033f 0100     		.2byte	0x1
 4445 0341 53       		.byte	0x53
 4446 0342 00000000 		.4byte	0
 4447 0346 00000000 		.4byte	0
 4448              	.LLST24:
 4449 034a 86020000 		.4byte	.LVL77
 4450 034e 89020000 		.4byte	.LVL78-1
 4451 0352 0100     		.2byte	0x1
 4452 0354 53       		.byte	0x53
 4453 0355 00000000 		.4byte	0
 4454 0359 00000000 		.4byte	0
 4455              	.LLST25:
 4456 035d B0020000 		.4byte	.LVL80
 4457 0361 B9020000 		.4byte	.LVL81-1
 4458 0365 0100     		.2byte	0x1
 4459 0367 53       		.byte	0x53
 4460 0368 00000000 		.4byte	0
 4461 036c 00000000 		.4byte	0
 4462              	.LLST26:
 4463 0370 F4020000 		.4byte	.LVL88
 4464 0374 F7020000 		.4byte	.LVL89-1
 4465 0378 0100     		.2byte	0x1
 4466 037a 53       		.byte	0x53
 4467 037b 00000000 		.4byte	0
 4468 037f 00000000 		.4byte	0
 4469              	.LLST27:
 4470 0383 14030000 		.4byte	.LVL91
 4471 0387 23030000 		.4byte	.LVL92-1
 4472 038b 0100     		.2byte	0x1
 4473 038d 53       		.byte	0x53
 4474 038e 00000000 		.4byte	0
 4475 0392 00000000 		.4byte	0
 4476              	.LLST28:
 4477 0396 46030000 		.4byte	.LVL95
 4478 039a 4C030000 		.4byte	.LVL96
 4479 039e 0100     		.2byte	0x1
 4480 03a0 53       		.byte	0x53
 4481 03a1 00000000 		.4byte	0
 4482 03a5 00000000 		.4byte	0
 4483              	.LLST29:
 4484 03a9 46030000 		.4byte	.LVL95
 4485 03ad 4C030000 		.4byte	.LVL96
ARM GAS  C:\Users\z80\AppData\Local\Temp\ccRmy9tc.s 			page 80


 4486 03b1 0100     		.2byte	0x1
 4487 03b3 53       		.byte	0x53
 4488 03b4 56030000 		.4byte	.LVL97
 4489 03b8 58030000 		.4byte	.LVL98
 4490 03bc 0100     		.2byte	0x1
 4491 03be 53       		.byte	0x53
 4492 03bf 00000000 		.4byte	0
 4493 03c3 00000000 		.4byte	0
 4494              	.LLST30:
 4495 03c7 46030000 		.4byte	.LVL95
 4496 03cb 4C030000 		.4byte	.LVL96
 4497 03cf 0100     		.2byte	0x1
 4498 03d1 53       		.byte	0x53
 4499 03d2 76030000 		.4byte	.LVL101
 4500 03d6 78030000 		.4byte	.LVL102
 4501 03da 0100     		.2byte	0x1
 4502 03dc 53       		.byte	0x53
 4503 03dd 00000000 		.4byte	0
 4504 03e1 00000000 		.4byte	0
 4505              	.LLST31:
 4506 03e5 46030000 		.4byte	.LVL95
 4507 03e9 4C030000 		.4byte	.LVL96
 4508 03ed 0100     		.2byte	0x1
 4509 03ef 53       		.byte	0x53
 4510 03f0 82030000 		.4byte	.LVL103
 4511 03f4 84030000 		.4byte	.LVL104
 4512 03f8 0100     		.2byte	0x1
 4513 03fa 53       		.byte	0x53
 4514 03fb 00000000 		.4byte	0
 4515 03ff 00000000 		.4byte	0
 4516              	.LLST32:
 4517 0403 46030000 		.4byte	.LVL95
 4518 0407 4C030000 		.4byte	.LVL96
 4519 040b 0100     		.2byte	0x1
 4520 040d 53       		.byte	0x53
 4521 040e 8E030000 		.4byte	.LVL105
 4522 0412 90030000 		.4byte	.LFE13
 4523 0416 0100     		.2byte	0x1
 4524 0418 53       		.byte	0x53
 4525 0419 00000000 		.4byte	0
 4526 041d 00000000 		.4byte	0
 4527              	.LLST33:
 4528 0421 00000000 		.4byte	.LFB10
 4529 0425 04000000 		.4byte	.LCFI4
 4530 0429 0200     		.2byte	0x2
 4531 042b 7D       		.byte	0x7d
 4532 042c 00       		.sleb128 0
 4533 042d 04000000 		.4byte	.LCFI4
 4534 0431 08000000 		.4byte	.LCFI5
 4535 0435 0200     		.2byte	0x2
 4536 0437 7D       		.byte	0x7d
 4537 0438 1C       		.sleb128 28
 4538 0439 08000000 		.4byte	.LCFI5
 4539 043d A4030000 		.4byte	.LFE10
 4540 0441 0200     		.2byte	0x2
 4541 0443 7D       		.byte	0x7d
 4542 0444 28       		.sleb128 40
ARM GAS  C:\Users\z80\AppData\Local\Temp\ccRmy9tc.s 			page 81


 4543 0445 00000000 		.4byte	0
 4544 0449 00000000 		.4byte	0
 4545              	.LLST34:
 4546 044d 0C000000 		.4byte	.LVL107
 4547 0451 17000000 		.4byte	.LVL108-1
 4548 0455 0100     		.2byte	0x1
 4549 0457 53       		.byte	0x53
 4550 0458 00000000 		.4byte	0
 4551 045c 00000000 		.4byte	0
 4552              	.LLST35:
 4553 0460 44000000 		.4byte	.LVL113
 4554 0464 4C000000 		.4byte	.LVL114
 4555 0468 0200     		.2byte	0x2
 4556 046a 30       		.byte	0x30
 4557 046b 9F       		.byte	0x9f
 4558 046c 4C000000 		.4byte	.LVL114
 4559 0470 54000000 		.4byte	.LVL115
 4560 0474 0200     		.2byte	0x2
 4561 0476 31       		.byte	0x31
 4562 0477 9F       		.byte	0x9f
 4563 0478 54000000 		.4byte	.LVL115
 4564 047c 5C000000 		.4byte	.LVL116
 4565 0480 0200     		.2byte	0x2
 4566 0482 32       		.byte	0x32
 4567 0483 9F       		.byte	0x9f
 4568 0484 5C000000 		.4byte	.LVL116
 4569 0488 64000000 		.4byte	.LVL117
 4570 048c 0200     		.2byte	0x2
 4571 048e 33       		.byte	0x33
 4572 048f 9F       		.byte	0x9f
 4573 0490 64000000 		.4byte	.LVL117
 4574 0494 D8000000 		.4byte	.LVL129
 4575 0498 0200     		.2byte	0x2
 4576 049a 34       		.byte	0x34
 4577 049b 9F       		.byte	0x9f
 4578 049c D8000000 		.4byte	.LVL129
 4579 04a0 E8000000 		.4byte	.LVL131
 4580 04a4 0200     		.2byte	0x2
 4581 04a6 30       		.byte	0x30
 4582 04a7 9F       		.byte	0x9f
 4583 04a8 E8000000 		.4byte	.LVL131
 4584 04ac F8000000 		.4byte	.LVL132
 4585 04b0 0200     		.2byte	0x2
 4586 04b2 31       		.byte	0x31
 4587 04b3 9F       		.byte	0x9f
 4588 04b4 F8000000 		.4byte	.LVL132
 4589 04b8 08010000 		.4byte	.LVL133
 4590 04bc 0200     		.2byte	0x2
 4591 04be 32       		.byte	0x32
 4592 04bf 9F       		.byte	0x9f
 4593 04c0 08010000 		.4byte	.LVL133
 4594 04c4 18010000 		.4byte	.LVL134
 4595 04c8 0200     		.2byte	0x2
 4596 04ca 33       		.byte	0x33
 4597 04cb 9F       		.byte	0x9f
 4598 04cc 18010000 		.4byte	.LVL134
 4599 04d0 64010000 		.4byte	.LVL143
ARM GAS  C:\Users\z80\AppData\Local\Temp\ccRmy9tc.s 			page 82


 4600 04d4 0200     		.2byte	0x2
 4601 04d6 34       		.byte	0x34
 4602 04d7 9F       		.byte	0x9f
 4603 04d8 64010000 		.4byte	.LVL143
 4604 04dc 6C010000 		.4byte	.LVL144
 4605 04e0 0200     		.2byte	0x2
 4606 04e2 30       		.byte	0x30
 4607 04e3 9F       		.byte	0x9f
 4608 04e4 6C010000 		.4byte	.LVL144
 4609 04e8 74010000 		.4byte	.LVL145
 4610 04ec 0200     		.2byte	0x2
 4611 04ee 31       		.byte	0x31
 4612 04ef 9F       		.byte	0x9f
 4613 04f0 74010000 		.4byte	.LVL145
 4614 04f4 7C010000 		.4byte	.LVL146
 4615 04f8 0200     		.2byte	0x2
 4616 04fa 32       		.byte	0x32
 4617 04fb 9F       		.byte	0x9f
 4618 04fc 7C010000 		.4byte	.LVL146
 4619 0500 84010000 		.4byte	.LVL147
 4620 0504 0200     		.2byte	0x2
 4621 0506 33       		.byte	0x33
 4622 0507 9F       		.byte	0x9f
 4623 0508 84010000 		.4byte	.LVL147
 4624 050c F2010000 		.4byte	.LVL159
 4625 0510 0200     		.2byte	0x2
 4626 0512 34       		.byte	0x34
 4627 0513 9F       		.byte	0x9f
 4628 0514 F2010000 		.4byte	.LVL159
 4629 0518 FA010000 		.4byte	.LVL160
 4630 051c 0200     		.2byte	0x2
 4631 051e 30       		.byte	0x30
 4632 051f 9F       		.byte	0x9f
 4633 0520 FA010000 		.4byte	.LVL160
 4634 0524 02020000 		.4byte	.LVL161
 4635 0528 0200     		.2byte	0x2
 4636 052a 31       		.byte	0x31
 4637 052b 9F       		.byte	0x9f
 4638 052c 02020000 		.4byte	.LVL161
 4639 0530 0A020000 		.4byte	.LVL162
 4640 0534 0200     		.2byte	0x2
 4641 0536 32       		.byte	0x32
 4642 0537 9F       		.byte	0x9f
 4643 0538 0A020000 		.4byte	.LVL162
 4644 053c 12020000 		.4byte	.LVL163
 4645 0540 0200     		.2byte	0x2
 4646 0542 33       		.byte	0x33
 4647 0543 9F       		.byte	0x9f
 4648 0544 12020000 		.4byte	.LVL163
 4649 0548 5A030000 		.4byte	.LVL193
 4650 054c 0200     		.2byte	0x2
 4651 054e 34       		.byte	0x34
 4652 054f 9F       		.byte	0x9f
 4653 0550 6A030000 		.4byte	.LVL196
 4654 0554 A4030000 		.4byte	.LFE10
 4655 0558 0200     		.2byte	0x2
 4656 055a 34       		.byte	0x34
ARM GAS  C:\Users\z80\AppData\Local\Temp\ccRmy9tc.s 			page 83


 4657 055b 9F       		.byte	0x9f
 4658 055c 00000000 		.4byte	0
 4659 0560 00000000 		.4byte	0
 4660              	.LLST36:
 4661 0564 A2010000 		.4byte	.LVL150
 4662 0568 B0010000 		.4byte	.LVL151
 4663 056c 0100     		.2byte	0x1
 4664 056e 50       		.byte	0x50
 4665 056f 26020000 		.4byte	.LVL166
 4666 0573 2A020000 		.4byte	.LVL167
 4667 0577 0100     		.2byte	0x1
 4668 0579 50       		.byte	0x50
 4669 057a 2A020000 		.4byte	.LVL167
 4670 057e 32020000 		.4byte	.LVL168
 4671 0582 0300     		.2byte	0x3
 4672 0584 70       		.byte	0x70
 4673 0585 02       		.sleb128 2
 4674 0586 9F       		.byte	0x9f
 4675 0587 48020000 		.4byte	.LVL169
 4676 058b 56020000 		.4byte	.LVL170
 4677 058f 0100     		.2byte	0x1
 4678 0591 50       		.byte	0x50
 4679 0592 00000000 		.4byte	0
 4680 0596 00000000 		.4byte	0
 4681              	.LLST37:
 4682 059a 3A000000 		.4byte	.LVL110
 4683 059e 3C000000 		.4byte	.LVL111
 4684 05a2 0100     		.2byte	0x1
 4685 05a4 53       		.byte	0x53
 4686 05a5 00000000 		.4byte	0
 4687 05a9 00000000 		.4byte	0
 4688              	.LLST38:
 4689 05ad 40000000 		.4byte	.LVL112
 4690 05b1 43000000 		.4byte	.LVL113-1
 4691 05b5 0100     		.2byte	0x1
 4692 05b7 53       		.byte	0x53
 4693 05b8 00000000 		.4byte	0
 4694 05bc 00000000 		.4byte	0
 4695              	.LLST39:
 4696 05c0 6E000000 		.4byte	.LVL119
 4697 05c4 70000000 		.4byte	.LVL120
 4698 05c8 0100     		.2byte	0x1
 4699 05ca 53       		.byte	0x53
 4700 05cb 00000000 		.4byte	0
 4701 05cf 00000000 		.4byte	0
 4702              	.LLST40:
 4703 05d3 74000000 		.4byte	.LVL121
 4704 05d7 77000000 		.4byte	.LVL122-1
 4705 05db 0100     		.2byte	0x1
 4706 05dd 53       		.byte	0x53
 4707 05de 00000000 		.4byte	0
 4708 05e2 00000000 		.4byte	0
 4709              	.LLST41:
 4710 05e6 9E000000 		.4byte	.LVL124
 4711 05ea A0000000 		.4byte	.LVL125
 4712 05ee 0100     		.2byte	0x1
 4713 05f0 53       		.byte	0x53
ARM GAS  C:\Users\z80\AppData\Local\Temp\ccRmy9tc.s 			page 84


 4714 05f1 00000000 		.4byte	0
 4715 05f5 00000000 		.4byte	0
 4716              	.LLST42:
 4717 05f9 A4000000 		.4byte	.LVL126
 4718 05fd AF000000 		.4byte	.LVL127-1
 4719 0601 0100     		.2byte	0x1
 4720 0603 53       		.byte	0x53
 4721 0604 00000000 		.4byte	0
 4722 0608 00000000 		.4byte	0
 4723              	.LLST43:
 4724 060c D8000000 		.4byte	.LVL129
 4725 0610 E1000000 		.4byte	.LVL130-1
 4726 0614 0100     		.2byte	0x1
 4727 0616 53       		.byte	0x53
 4728 0617 00000000 		.4byte	0
 4729 061b 00000000 		.4byte	0
 4730              	.LLST44:
 4731 061f 1E010000 		.4byte	.LVL136
 4732 0623 21010000 		.4byte	.LVL137-1
 4733 0627 0100     		.2byte	0x1
 4734 0629 53       		.byte	0x53
 4735 062a 00000000 		.4byte	0
 4736 062e 00000000 		.4byte	0
 4737              	.LLST45:
 4738 0632 44010000 		.4byte	.LVL139
 4739 0636 51010000 		.4byte	.LVL140-1
 4740 063a 0100     		.2byte	0x1
 4741 063c 53       		.byte	0x53
 4742 063d 00000000 		.4byte	0
 4743 0641 00000000 		.4byte	0
 4744              	.LLST46:
 4745 0645 60010000 		.4byte	.LVL142
 4746 0649 63010000 		.4byte	.LVL143-1
 4747 064d 0100     		.2byte	0x1
 4748 064f 53       		.byte	0x53
 4749 0650 00000000 		.4byte	0
 4750 0654 00000000 		.4byte	0
 4751              	.LLST47:
 4752 0658 8E010000 		.4byte	.LVL149
 4753 065c A1010000 		.4byte	.LVL150-1
 4754 0660 0100     		.2byte	0x1
 4755 0662 53       		.byte	0x53
 4756 0663 00000000 		.4byte	0
 4757 0667 00000000 		.4byte	0
 4758              	.LLST48:
 4759 066b C2010000 		.4byte	.LVL153
 4760 066f C5010000 		.4byte	.LVL154-1
 4761 0673 0100     		.2byte	0x1
 4762 0675 53       		.byte	0x53
 4763 0676 00000000 		.4byte	0
 4764 067a 00000000 		.4byte	0
 4765              	.LLST49:
 4766 067e E8010000 		.4byte	.LVL156
 4767 0682 EA010000 		.4byte	.LVL157
 4768 0686 0100     		.2byte	0x1
 4769 0688 53       		.byte	0x53
 4770 0689 00000000 		.4byte	0
ARM GAS  C:\Users\z80\AppData\Local\Temp\ccRmy9tc.s 			page 85


 4771 068d 00000000 		.4byte	0
 4772              	.LLST50:
 4773 0691 EE010000 		.4byte	.LVL158
 4774 0695 F1010000 		.4byte	.LVL159-1
 4775 0699 0100     		.2byte	0x1
 4776 069b 53       		.byte	0x53
 4777 069c 00000000 		.4byte	0
 4778 06a0 00000000 		.4byte	0
 4779              	.LLST51:
 4780 06a4 1C020000 		.4byte	.LVL165
 4781 06a8 25020000 		.4byte	.LVL166-1
 4782 06ac 0100     		.2byte	0x1
 4783 06ae 53       		.byte	0x53
 4784 06af 00000000 		.4byte	0
 4785 06b3 00000000 		.4byte	0
 4786              	.LLST52:
 4787 06b7 68020000 		.4byte	.LVL172
 4788 06bb 6B020000 		.4byte	.LVL173-1
 4789 06bf 0100     		.2byte	0x1
 4790 06c1 53       		.byte	0x53
 4791 06c2 00000000 		.4byte	0
 4792 06c6 00000000 		.4byte	0
 4793              	.LLST53:
 4794 06ca 8E020000 		.4byte	.LVL175
 4795 06ce 90020000 		.4byte	.LVL176
 4796 06d2 0100     		.2byte	0x1
 4797 06d4 53       		.byte	0x53
 4798 06d5 00000000 		.4byte	0
 4799 06d9 00000000 		.4byte	0
 4800              	.LLST54:
 4801 06dd 94020000 		.4byte	.LVL177
 4802 06e1 97020000 		.4byte	.LVL178-1
 4803 06e5 0100     		.2byte	0x1
 4804 06e7 53       		.byte	0x53
 4805 06e8 00000000 		.4byte	0
 4806 06ec 00000000 		.4byte	0
 4807              	.LLST55:
 4808 06f0 B0020000 		.4byte	.LVL180
 4809 06f4 B2020000 		.4byte	.LVL181
 4810 06f8 0100     		.2byte	0x1
 4811 06fa 53       		.byte	0x53
 4812 06fb 00000000 		.4byte	0
 4813 06ff 00000000 		.4byte	0
 4814              	.LLST56:
 4815 0703 B6020000 		.4byte	.LVL182
 4816 0707 B9020000 		.4byte	.LVL183-1
 4817 070b 0100     		.2byte	0x1
 4818 070d 53       		.byte	0x53
 4819 070e 00000000 		.4byte	0
 4820 0712 00000000 		.4byte	0
 4821              	.LLST57:
 4822 0716 D8020000 		.4byte	.LVL185
 4823 071a EA020000 		.4byte	.LVL186
 4824 071e 0100     		.2byte	0x1
 4825 0720 53       		.byte	0x53
 4826 0721 00000000 		.4byte	0
 4827 0725 00000000 		.4byte	0
ARM GAS  C:\Users\z80\AppData\Local\Temp\ccRmy9tc.s 			page 86


 4828              	.LLST58:
 4829 0729 0E030000 		.4byte	.LVL188
 4830 072d 11030000 		.4byte	.LVL189-1
 4831 0731 0100     		.2byte	0x1
 4832 0733 53       		.byte	0x53
 4833 0734 00000000 		.4byte	0
 4834 0738 00000000 		.4byte	0
 4835              	.LLST59:
 4836 073c 32030000 		.4byte	.LVL191
 4837 0740 35030000 		.4byte	.LVL192-1
 4838 0744 0100     		.2byte	0x1
 4839 0746 53       		.byte	0x53
 4840 0747 00000000 		.4byte	0
 4841 074b 00000000 		.4byte	0
 4842              	.LLST60:
 4843 074f 64030000 		.4byte	.LVL195
 4844 0753 6A030000 		.4byte	.LVL196
 4845 0757 0100     		.2byte	0x1
 4846 0759 53       		.byte	0x53
 4847 075a 00000000 		.4byte	0
 4848 075e 00000000 		.4byte	0
 4849              	.LLST61:
 4850 0762 64030000 		.4byte	.LVL195
 4851 0766 6A030000 		.4byte	.LVL196
 4852 076a 0100     		.2byte	0x1
 4853 076c 53       		.byte	0x53
 4854 076d 74030000 		.4byte	.LVL197
 4855 0771 76030000 		.4byte	.LVL198
 4856 0775 0100     		.2byte	0x1
 4857 0777 53       		.byte	0x53
 4858 0778 00000000 		.4byte	0
 4859 077c 00000000 		.4byte	0
 4860              	.LLST62:
 4861 0780 64030000 		.4byte	.LVL195
 4862 0784 6A030000 		.4byte	.LVL196
 4863 0788 0100     		.2byte	0x1
 4864 078a 53       		.byte	0x53
 4865 078b 80030000 		.4byte	.LVL199
 4866 078f 82030000 		.4byte	.LVL200
 4867 0793 0100     		.2byte	0x1
 4868 0795 53       		.byte	0x53
 4869 0796 00000000 		.4byte	0
 4870 079a 00000000 		.4byte	0
 4871              	.LLST63:
 4872 079e 64030000 		.4byte	.LVL195
 4873 07a2 6A030000 		.4byte	.LVL196
 4874 07a6 0100     		.2byte	0x1
 4875 07a8 53       		.byte	0x53
 4876 07a9 96030000 		.4byte	.LVL201
 4877 07ad 98030000 		.4byte	.LVL202
 4878 07b1 0100     		.2byte	0x1
 4879 07b3 53       		.byte	0x53
 4880 07b4 00000000 		.4byte	0
 4881 07b8 00000000 		.4byte	0
 4882              	.LLST64:
 4883 07bc 64030000 		.4byte	.LVL195
 4884 07c0 6A030000 		.4byte	.LVL196
ARM GAS  C:\Users\z80\AppData\Local\Temp\ccRmy9tc.s 			page 87


 4885 07c4 0100     		.2byte	0x1
 4886 07c6 53       		.byte	0x53
 4887 07c7 A2030000 		.4byte	.LVL203
 4888 07cb A4030000 		.4byte	.LFE10
 4889 07cf 0100     		.2byte	0x1
 4890 07d1 53       		.byte	0x53
 4891 07d2 00000000 		.4byte	0
 4892 07d6 00000000 		.4byte	0
 4893              		.section	.debug_aranges,"",%progbits
 4894 0000 4C000000 		.4byte	0x4c
 4895 0004 0200     		.2byte	0x2
 4896 0006 00000000 		.4byte	.Ldebug_info0
 4897 000a 04       		.byte	0x4
 4898 000b 00       		.byte	0
 4899 000c 0000     		.2byte	0
 4900 000e 0000     		.2byte	0
 4901 0010 00000000 		.4byte	.LFB7
 4902 0014 02000000 		.4byte	.LFE7-.LFB7
 4903 0018 00000000 		.4byte	.LFB12
 4904 001c 16000000 		.4byte	.LFE12-.LFB12
 4905 0020 00000000 		.4byte	.LFB11
 4906 0024 20000000 		.4byte	.LFE11-.LFB11
 4907 0028 00000000 		.4byte	.LFB9
 4908 002c 14000000 		.4byte	.LFE9-.LFB9
 4909 0030 00000000 		.4byte	.LFB8
 4910 0034 20000000 		.4byte	.LFE8-.LFB8
 4911 0038 00000000 		.4byte	.LFB13
 4912 003c 90030000 		.4byte	.LFE13-.LFB13
 4913 0040 00000000 		.4byte	.LFB10
 4914 0044 A4030000 		.4byte	.LFE10-.LFB10
 4915 0048 00000000 		.4byte	0
 4916 004c 00000000 		.4byte	0
 4917              		.section	.debug_ranges,"",%progbits
 4918              	.Ldebug_ranges0:
 4919 0000 04000000 		.4byte	.LBB96
 4920 0004 06000000 		.4byte	.LBE96
 4921 0008 08000000 		.4byte	.LBB97
 4922 000c 0C000000 		.4byte	.LBE97
 4923 0010 00000000 		.4byte	0
 4924 0014 00000000 		.4byte	0
 4925 0018 32000000 		.4byte	.LBB98
 4926 001c 32030000 		.4byte	.LBE98
 4927 0020 38030000 		.4byte	.LBB134
 4928 0024 46030000 		.4byte	.LBE134
 4929 0028 4C030000 		.4byte	.LBB135
 4930 002c 58030000 		.4byte	.LBE135
 4931 0030 62030000 		.4byte	.LBB136
 4932 0034 90030000 		.4byte	.LBE136
 4933 0038 00000000 		.4byte	0
 4934 003c 00000000 		.4byte	0
 4935 0040 32000000 		.4byte	.LBB99
 4936 0044 32030000 		.4byte	.LBE99
 4937 0048 38030000 		.4byte	.LBB131
 4938 004c 46030000 		.4byte	.LBE131
 4939 0050 4C030000 		.4byte	.LBB132
 4940 0054 58030000 		.4byte	.LBE132
 4941 0058 62030000 		.4byte	.LBB133
ARM GAS  C:\Users\z80\AppData\Local\Temp\ccRmy9tc.s 			page 88


 4942 005c 90030000 		.4byte	.LBE133
 4943 0060 00000000 		.4byte	0
 4944 0064 00000000 		.4byte	0
 4945 0068 A0000000 		.4byte	.LBB104
 4946 006c A6000000 		.4byte	.LBE104
 4947 0070 C2000000 		.4byte	.LBB106
 4948 0074 C8000000 		.4byte	.LBE106
 4949 0078 E4000000 		.4byte	.LBB108
 4950 007c EA000000 		.4byte	.LBE108
 4951 0080 06010000 		.4byte	.LBB110
 4952 0084 0C010000 		.4byte	.LBE110
 4953 0088 00000000 		.4byte	0
 4954 008c 00000000 		.4byte	0
 4955 0090 B6000000 		.4byte	.LBB105
 4956 0094 BC000000 		.4byte	.LBE105
 4957 0098 D8000000 		.4byte	.LBB107
 4958 009c DE000000 		.4byte	.LBE107
 4959 00a0 FA000000 		.4byte	.LBB109
 4960 00a4 00010000 		.4byte	.LBE109
 4961 00a8 1C010000 		.4byte	.LBB111
 4962 00ac 22010000 		.4byte	.LBE111
 4963 00b0 00000000 		.4byte	0
 4964 00b4 00000000 		.4byte	0
 4965 00b8 04000000 		.4byte	.LBB173
 4966 00bc 06000000 		.4byte	.LBE173
 4967 00c0 08000000 		.4byte	.LBB174
 4968 00c4 0C000000 		.4byte	.LBE174
 4969 00c8 00000000 		.4byte	0
 4970 00cc 00000000 		.4byte	0
 4971 00d0 30000000 		.4byte	.LBB175
 4972 00d4 50030000 		.4byte	.LBE175
 4973 00d8 56030000 		.4byte	.LBB207
 4974 00dc 64030000 		.4byte	.LBE207
 4975 00e0 6A030000 		.4byte	.LBB208
 4976 00e4 A4030000 		.4byte	.LBE208
 4977 00e8 00000000 		.4byte	0
 4978 00ec 00000000 		.4byte	0
 4979 00f0 30000000 		.4byte	.LBB176
 4980 00f4 50030000 		.4byte	.LBE176
 4981 00f8 56030000 		.4byte	.LBB205
 4982 00fc 64030000 		.4byte	.LBE205
 4983 0100 6A030000 		.4byte	.LBB206
 4984 0104 A4030000 		.4byte	.LBE206
 4985 0108 00000000 		.4byte	0
 4986 010c 00000000 		.4byte	0
 4987 0110 00000000 		.4byte	.LFB7
 4988 0114 02000000 		.4byte	.LFE7
 4989 0118 00000000 		.4byte	.LFB12
 4990 011c 16000000 		.4byte	.LFE12
 4991 0120 00000000 		.4byte	.LFB11
 4992 0124 20000000 		.4byte	.LFE11
 4993 0128 00000000 		.4byte	.LFB9
 4994 012c 14000000 		.4byte	.LFE9
 4995 0130 00000000 		.4byte	.LFB8
 4996 0134 20000000 		.4byte	.LFE8
 4997 0138 00000000 		.4byte	.LFB13
 4998 013c 90030000 		.4byte	.LFE13
ARM GAS  C:\Users\z80\AppData\Local\Temp\ccRmy9tc.s 			page 89


 4999 0140 00000000 		.4byte	.LFB10
 5000 0144 A4030000 		.4byte	.LFE10
 5001 0148 00000000 		.4byte	0
 5002 014c 00000000 		.4byte	0
 5003              		.section	.debug_line,"",%progbits
 5004              	.Ldebug_line0:
 5005 0000 CE020000 		.section	.debug_str,"MS",%progbits,1
 5005      0200B901 
 5005      00000201 
 5005      FB0E0D00 
 5005      01010101 
 5006              	.LASF36:
 5007 0000 705F6D73 		.ascii	"p_msg\000"
 5007      6700
 5008              	.LASF2:
 5009 0006 73697A65 		.ascii	"size_t\000"
 5009      5F7400
 5010              	.LASF58:
 5011 000d 7264796D 		.ascii	"rdymsg\000"
 5011      736700
 5012              	.LASF12:
 5013 0014 75696E74 		.ascii	"uint64_t\000"
 5013      36345F74 
 5013      00
 5014              	.LASF73:
 5015 001d 4F757470 		.ascii	"OutputQueue\000"
 5015      75745175 
 5015      65756500 
 5016              	.LASF91:
 5017 0029 70617474 		.ascii	"patternqueues\000"
 5017      65726E71 
 5017      75657565 
 5017      7300
 5018              	.LASF13:
 5019 0037 6C6F6E67 		.ascii	"long long unsigned int\000"
 5019      206C6F6E 
 5019      6720756E 
 5019      7369676E 
 5019      65642069 
 5020              	.LASF59:
 5021 004e 65786974 		.ascii	"exitcode\000"
 5021      636F6465 
 5021      00
 5022              	.LASF84:
 5023 0057 71756575 		.ascii	"queues2_setup\000"
 5023      6573325F 
 5023      73657475 
 5023      7000
 5024              	.LASF88:
 5025 0065 74657374 		.ascii	"test\000"
 5025      00
 5026              	.LASF25:
 5027 006a 705F7072 		.ascii	"p_prio\000"
 5027      696F00
 5028              	.LASF64:
 5029 0071 715F7761 		.ascii	"q_waiting\000"
 5029      6974696E 
ARM GAS  C:\Users\z80\AppData\Local\Temp\ccRmy9tc.s 			page 90


 5029      6700
 5030              	.LASF11:
 5031 007b 6C6F6E67 		.ascii	"long long int\000"
 5031      206C6F6E 
 5031      6720696E 
 5031      7400
 5032              	.LASF1:
 5033 0089 7369676E 		.ascii	"signed char\000"
 5033      65642063 
 5033      68617200 
 5034              	.LASF14:
 5035 0095 626F6F6C 		.ascii	"bool_t\000"
 5035      5F7400
 5036              	.LASF55:
 5037 009c 6D5F7175 		.ascii	"m_queue\000"
 5037      65756500 
 5038              	.LASF94:
 5039 00a4 433A5C70 		.ascii	"C:\\projects\\digitizer.git\\firmware\\digitizer\000"
 5039      726F6A65 
 5039      6374735C 
 5039      64696769 
 5039      74697A65 
 5040              	.LASF8:
 5041 00d1 6C6F6E67 		.ascii	"long int\000"
 5041      20696E74 
 5041      00
 5042              	.LASF16:
 5043 00da 74737461 		.ascii	"tstate_t\000"
 5043      74655F74 
 5043      00
 5044              	.LASF66:
 5045 00e3 715F6275 		.ascii	"q_buffer\000"
 5045      66666572 
 5045      00
 5046              	.LASF68:
 5047 00ec 715F7772 		.ascii	"q_wrptr\000"
 5047      70747200 
 5048              	.LASF27:
 5049 00f4 705F6E65 		.ascii	"p_newer\000"
 5049      77657200 
 5050              	.LASF49:
 5051 00fc 725F6E65 		.ascii	"r_newer\000"
 5051      77657200 
 5052              	.LASF42:
 5053 0104 72656761 		.ascii	"regarm_t\000"
 5053      726D5F74 
 5053      00
 5054              	.LASF21:
 5055 010d 636E745F 		.ascii	"cnt_t\000"
 5055      7400
 5056              	.LASF30:
 5057 0113 705F7374 		.ascii	"p_stklimit\000"
 5057      6B6C696D 
 5057      697400
 5058              	.LASF0:
 5059 011e 756E7369 		.ascii	"unsigned int\000"
 5059      676E6564 
ARM GAS  C:\Users\z80\AppData\Local\Temp\ccRmy9tc.s 			page 91


 5059      20696E74 
 5059      00
 5060              	.LASF10:
 5061 012b 6C6F6E67 		.ascii	"long unsigned int\000"
 5061      20756E73 
 5061      69676E65 
 5061      6420696E 
 5061      7400
 5062              	.LASF77:
 5063 013d 74656172 		.ascii	"teardown\000"
 5063      646F776E 
 5063      00
 5064              	.LASF75:
 5065 0146 6E616D65 		.ascii	"name\000"
 5065      00
 5066              	.LASF45:
 5067 014b 636F6E74 		.ascii	"context\000"
 5067      65787400 
 5068              	.LASF6:
 5069 0153 73686F72 		.ascii	"short unsigned int\000"
 5069      7420756E 
 5069      7369676E 
 5069      65642069 
 5069      6E7400
 5070              	.LASF81:
 5071 0166 71756575 		.ascii	"queues1_execute\000"
 5071      6573315F 
 5071      65786563 
 5071      75746500 
 5072              	.LASF89:
 5073 0176 74657374 		.ascii	"testqueues1\000"
 5073      71756575 
 5073      65733100 
 5074              	.LASF18:
 5075 0182 6D73675F 		.ascii	"msg_t\000"
 5075      7400
 5076              	.LASF15:
 5077 0188 746D6F64 		.ascii	"tmode_t\000"
 5077      655F7400 
 5078              	.LASF41:
 5079 0190 54687265 		.ascii	"ThreadsList\000"
 5079      6164734C 
 5079      69737400 
 5080              	.LASF19:
 5081 019c 6576656E 		.ascii	"eventmask_t\000"
 5081      746D6173 
 5081      6B5F7400 
 5082              	.LASF72:
 5083 01a8 496E7075 		.ascii	"InputQueue\000"
 5083      74517565 
 5083      756500
 5084              	.LASF54:
 5085 01b3 4D757465 		.ascii	"Mutex\000"
 5085      7800
 5086              	.LASF63:
 5087 01b9 47656E65 		.ascii	"GenericQueue\000"
 5087      72696351 
ARM GAS  C:\Users\z80\AppData\Local\Temp\ccRmy9tc.s 			page 92


 5087      75657565 
 5087      00
 5088              	.LASF43:
 5089 01c6 73746B61 		.ascii	"stkalign_t\000"
 5089      6C69676E 
 5089      5F7400
 5090              	.LASF96:
 5091 01d1 6E6F7469 		.ascii	"notify\000"
 5091      667900
 5092              	.LASF80:
 5093 01d8 71756575 		.ascii	"queues2_execute\000"
 5093      6573325F 
 5093      65786563 
 5093      75746500 
 5094              	.LASF65:
 5095 01e8 715F636F 		.ascii	"q_counter\000"
 5095      756E7465 
 5095      7200
 5096              	.LASF90:
 5097 01f2 74657374 		.ascii	"testqueues2\000"
 5097      71756575 
 5097      65733200 
 5098              	.LASF28:
 5099 01fe 705F6F6C 		.ascii	"p_older\000"
 5099      64657200 
 5100              	.LASF83:
 5101 0206 74687265 		.ascii	"thread1\000"
 5101      61643100 
 5102              	.LASF82:
 5103 020e 74687265 		.ascii	"thread2\000"
 5103      61643200 
 5104              	.LASF48:
 5105 0216 725F6374 		.ascii	"r_ctx\000"
 5105      7800
 5106              	.LASF40:
 5107 021c 54687265 		.ascii	"ThreadsQueue\000"
 5107      61647351 
 5107      75657565 
 5107      00
 5108              	.LASF76:
 5109 0229 73657475 		.ascii	"setup\000"
 5109      7000
 5110              	.LASF52:
 5111 022f 725F6375 		.ascii	"r_current\000"
 5111      7272656E 
 5111      7400
 5112              	.LASF50:
 5113 0239 725F6F6C 		.ascii	"r_older\000"
 5113      64657200 
 5114              	.LASF85:
 5115 0241 71756575 		.ascii	"queues1_setup\000"
 5115      6573315F 
 5115      73657475 
 5115      7000
 5116              	.LASF71:
 5117 024f 716E6F74 		.ascii	"qnotify_t\000"
 5117      6966795F 
ARM GAS  C:\Users\z80\AppData\Local\Temp\ccRmy9tc.s 			page 93


 5117      7400
 5118              	.LASF24:
 5119 0259 705F7072 		.ascii	"p_prev\000"
 5119      657600
 5120              	.LASF78:
 5121 0260 65786563 		.ascii	"execute\000"
 5121      75746500 
 5122              	.LASF17:
 5123 0268 74707269 		.ascii	"tprio_t\000"
 5123      6F5F7400 
 5124              	.LASF69:
 5125 0270 715F7264 		.ascii	"q_rdptr\000"
 5125      70747200 
 5126              	.LASF7:
 5127 0278 696E7433 		.ascii	"int32_t\000"
 5127      325F7400 
 5128              	.LASF4:
 5129 0280 756E7369 		.ascii	"unsigned char\000"
 5129      676E6564 
 5129      20636861 
 5129      7200
 5130              	.LASF38:
 5131 028e 705F6D74 		.ascii	"p_mtxlist\000"
 5131      786C6973 
 5131      7400
 5132              	.LASF5:
 5133 0298 73686F72 		.ascii	"short int\000"
 5133      7420696E 
 5133      7400
 5134              	.LASF31:
 5135 02a2 705F7374 		.ascii	"p_state\000"
 5135      61746500 
 5136              	.LASF87:
 5137 02aa 74687265 		.ascii	"threads\000"
 5137      61647300 
 5138              	.LASF47:
 5139 02b2 725F7072 		.ascii	"r_prio\000"
 5139      696F00
 5140              	.LASF61:
 5141 02b9 65776D61 		.ascii	"ewmask\000"
 5141      736B00
 5142              	.LASF23:
 5143 02c0 705F6E65 		.ascii	"p_next\000"
 5143      787400
 5144              	.LASF32:
 5145 02c7 705F666C 		.ascii	"p_flags\000"
 5145      61677300 
 5146              	.LASF22:
 5147 02cf 54687265 		.ascii	"Thread\000"
 5147      616400
 5148              	.LASF74:
 5149 02d6 74657374 		.ascii	"testcase\000"
 5149      63617365 
 5149      00
 5150              	.LASF37:
 5151 02df 705F6570 		.ascii	"p_epending\000"
 5151      656E6469 
ARM GAS  C:\Users\z80\AppData\Local\Temp\ccRmy9tc.s 			page 94


 5151      6E6700
 5152              	.LASF9:
 5153 02ea 75696E74 		.ascii	"uint32_t\000"
 5153      33325F74 
 5153      00
 5154              	.LASF46:
 5155 02f3 725F7175 		.ascii	"r_queue\000"
 5155      65756500 
 5156              	.LASF92:
 5157 02fb 474E5520 		.ascii	"GNU C 4.6.3\000"
 5157      4320342E 
 5157      362E3300 
 5158              	.LASF62:
 5159 0307 63686172 		.ascii	"char\000"
 5159      00
 5160              	.LASF95:
 5161 030c 74657374 		.ascii	"test_buffers\000"
 5161      5F627566 
 5161      66657273 
 5161      00
 5162              	.LASF57:
 5163 0319 6D5F6E65 		.ascii	"m_next\000"
 5163      787400
 5164              	.LASF20:
 5165 0320 73797374 		.ascii	"systime_t\000"
 5165      696D655F 
 5165      7400
 5166              	.LASF39:
 5167 032a 705F7265 		.ascii	"p_realprio\000"
 5167      616C7072 
 5167      696F00
 5168              	.LASF79:
 5169 0335 62756666 		.ascii	"buffer\000"
 5169      657200
 5170              	.LASF33:
 5171 033c 705F7469 		.ascii	"p_time\000"
 5171      6D6500
 5172              	.LASF44:
 5173 0343 696E7463 		.ascii	"intctx\000"
 5173      747800
 5174              	.LASF35:
 5175 034a 705F6D73 		.ascii	"p_msgqueue\000"
 5175      67717565 
 5175      756500
 5176              	.LASF67:
 5177 0355 715F746F 		.ascii	"q_top\000"
 5177      7000
 5178              	.LASF53:
 5179 035b 52656164 		.ascii	"ReadyList\000"
 5179      794C6973 
 5179      7400
 5180              	.LASF70:
 5181 0365 715F6E6F 		.ascii	"q_notify\000"
 5181      74696679 
 5181      00
 5182              	.LASF86:
 5183 036e 726C6973 		.ascii	"rlist\000"
ARM GAS  C:\Users\z80\AppData\Local\Temp\ccRmy9tc.s 			page 95


 5183      7400
 5184              	.LASF3:
 5185 0374 75696E74 		.ascii	"uint8_t\000"
 5185      385F7400 
 5186              	.LASF60:
 5187 037c 77746F62 		.ascii	"wtobjp\000"
 5187      6A7000
 5188              	.LASF29:
 5189 0383 705F6E61 		.ascii	"p_name\000"
 5189      6D6500
 5190              	.LASF51:
 5191 038a 725F7072 		.ascii	"r_preempt\000"
 5191      65656D70 
 5191      7400
 5192              	.LASF56:
 5193 0394 6D5F6F77 		.ascii	"m_owner\000"
 5193      6E657200 
 5194              	.LASF26:
 5195 039c 705F6374 		.ascii	"p_ctx\000"
 5195      7800
 5196              	.LASF34:
 5197 03a2 705F7761 		.ascii	"p_waiting\000"
 5197      6974696E 
 5197      6700
 5198              	.LASF93:
 5199 03ac 2E2E2F63 		.ascii	"../chibios_2.4.x/test/testqueues.c\000"
 5199      68696269 
 5199      6F735F32 
 5199      2E342E78 
 5199      2F746573 
 5200              		.ident	"GCC: (Sourcery CodeBench Lite 2012.03-56) 4.6.3"
ARM GAS  C:\Users\z80\AppData\Local\Temp\ccRmy9tc.s 			page 96


DEFINED SYMBOLS
                            *ABS*:00000000 testqueues.c
C:\Users\z80\AppData\Local\Temp\ccRmy9tc.s:19     .text.notify:00000000 $t
C:\Users\z80\AppData\Local\Temp\ccRmy9tc.s:24     .text.notify:00000000 notify
C:\Users\z80\AppData\Local\Temp\ccRmy9tc.s:39     .text.thread2:00000000 $t
C:\Users\z80\AppData\Local\Temp\ccRmy9tc.s:44     .text.thread2:00000000 thread2
C:\Users\z80\AppData\Local\Temp\ccRmy9tc.s:1520   .data.oq:00000000 .LANCHOR0
C:\Users\z80\AppData\Local\Temp\ccRmy9tc.s:72     .text.queues2_setup:00000000 $t
C:\Users\z80\AppData\Local\Temp\ccRmy9tc.s:77     .text.queues2_setup:00000000 queues2_setup
C:\Users\z80\AppData\Local\Temp\ccRmy9tc.s:100    .text.thread1:00000000 $t
C:\Users\z80\AppData\Local\Temp\ccRmy9tc.s:105    .text.thread1:00000000 thread1
C:\Users\z80\AppData\Local\Temp\ccRmy9tc.s:1534   .data.iq:00000000 .LANCHOR1
C:\Users\z80\AppData\Local\Temp\ccRmy9tc.s:132    .text.queues1_setup:00000000 $t
C:\Users\z80\AppData\Local\Temp\ccRmy9tc.s:137    .text.queues1_setup:00000000 queues1_setup
C:\Users\z80\AppData\Local\Temp\ccRmy9tc.s:160    .text.queues2_execute:00000000 $t
C:\Users\z80\AppData\Local\Temp\ccRmy9tc.s:165    .text.queues2_execute:00000000 queues2_execute
C:\Users\z80\AppData\Local\Temp\ccRmy9tc.s:1502   .rodata.str1.4:00000000 .LC0
C:\Users\z80\AppData\Local\Temp\ccRmy9tc.s:832    .text.queues1_execute:00000000 $t
C:\Users\z80\AppData\Local\Temp\ccRmy9tc.s:837    .text.queues1_execute:00000000 queues1_execute
C:\Users\z80\AppData\Local\Temp\ccRmy9tc.s:1514   .rodata.patternqueues:00000000 patternqueues
C:\Users\z80\AppData\Local\Temp\ccRmy9tc.s:1495   .rodata.testqueues2:00000000 testqueues2
C:\Users\z80\AppData\Local\Temp\ccRmy9tc.s:1486   .rodata.testqueues1:00000000 testqueues1
C:\Users\z80\AppData\Local\Temp\ccRmy9tc.s:1483   .rodata.testqueues1:00000000 $d
C:\Users\z80\AppData\Local\Temp\ccRmy9tc.s:1492   .rodata.testqueues2:00000000 $d
C:\Users\z80\AppData\Local\Temp\ccRmy9tc.s:1501   .rodata.str1.4:00000000 $d
C:\Users\z80\AppData\Local\Temp\ccRmy9tc.s:1511   .rodata.patternqueues:00000000 $d
C:\Users\z80\AppData\Local\Temp\ccRmy9tc.s:1519   .data.oq:00000000 $d
C:\Users\z80\AppData\Local\Temp\ccRmy9tc.s:1523   .data.oq:00000000 oq
C:\Users\z80\AppData\Local\Temp\ccRmy9tc.s:1533   .data.iq:00000000 $d
C:\Users\z80\AppData\Local\Temp\ccRmy9tc.s:1537   .data.iq:00000000 iq
                     .debug_frame:00000010 $d

UNDEFINED SYMBOLS
chOQPutTimeout
wa
chOQInit
chIQGetTimeout
chIQInit
dbg_check_lock
_test_assert
dbg_check_unlock
chOQGetI
test_emit_token
_test_assert_sequence
chOQWriteTimeout
rlist
chThdCreateStatic
threads
test_wait_threads
chOQResetI
chIQPutI
chIQReadTimeout
chIQResetI
test
