ARM GAS  C:\Users\z80\AppData\Local\Temp\ccxNTS1s.s 			page 1


   1              		.syntax unified
   2              		.cpu cortex-m3
   3              		.fpu softvfp
   4              		.eabi_attribute 20, 1
   5              		.eabi_attribute 21, 1
   6              		.eabi_attribute 23, 3
   7              		.eabi_attribute 24, 1
   8              		.eabi_attribute 25, 1
   9              		.eabi_attribute 26, 1
  10              		.eabi_attribute 30, 6
  11              		.eabi_attribute 34, 1
  12              		.eabi_attribute 18, 4
  13              		.thumb
  14              		.file	"test.c"
  15              		.text
  16              	.Ltext0:
  17              		.cfi_sections	.debug_frame
  18              		.section	.data.patterns,"aw",%progbits
  19              		.align	2
  20              		.type	patterns, %object
  21              		.size	patterns, 48
  22              	patterns:
  23 0000 00000000 		.word	patternthd
  24 0004 00000000 		.word	patternsem
  25 0008 00000000 		.word	patternmtx
  26 000c 00000000 		.word	patternmsg
  27 0010 00000000 		.word	patternmbox
  28 0014 00000000 		.word	patternevt
  29 0018 00000000 		.word	patternheap
  30 001c 00000000 		.word	patternpools
  31 0020 00000000 		.word	patterndyn
  32 0024 00000000 		.word	patternqueues
  33 0028 00000000 		.word	patternbmk
  34 002c 00000000 		.word	0
  35              		.section	.bss.local_fail,"aw",%nobits
  36              		.align	2
  37              		.type	local_fail, %object
  38              		.size	local_fail, 4
  39              	local_fail:
  40 0000 00000000 		.space	4
  41              		.section	.bss.global_fail,"aw",%nobits
  42              		.align	2
  43              		.type	global_fail, %object
  44              		.size	global_fail, 4
  45              	global_fail:
  46 0000 00000000 		.space	4
  47              		.section	.bss.failpoint,"aw",%nobits
  48              		.align	2
  49              		.type	failpoint, %object
  50              		.size	failpoint, 4
  51              	failpoint:
  52 0000 00000000 		.space	4
  53              		.section	.bss.tokens_buffer,"aw",%nobits
  54              		.align	2
  55              		.type	tokens_buffer, %object
  56              		.size	tokens_buffer, 16
  57              	tokens_buffer:
ARM GAS  C:\Users\z80\AppData\Local\Temp\ccxNTS1s.s 			page 2


  58 0000 00000000 		.space	16
  58      00000000 
  58      00000000 
  58      00000000 
  59              		.section	.bss.tokp,"aw",%nobits
  60              		.align	2
  61              		.type	tokp, %object
  62              		.size	tokp, 4
  63              	tokp:
  64 0000 00000000 		.space	4
  65              		.global	test
  66              		.section	.bss.test,"aw",%nobits
  67              		.align	3
  68              		.type	test, %object
  69              		.size	test, 1520
  70              	test:
  71 0000 00000000 		.space	1520
  71      00000000 
  71      00000000 
  71      00000000 
  71      00000000 
  72              		.global	threads
  73              		.section	.bss.threads,"aw",%nobits
  74              		.align	2
  75              		.type	threads, %object
  76              		.size	threads, 20
  77              	threads:
  78 0000 00000000 		.space	20
  78      00000000 
  78      00000000 
  78      00000000 
  78      00000000 
  79              		.global	wa
  80              		.section	.rodata.wa,"a",%progbits
  81              		.align	2
  82              		.type	wa, %object
  83              		.size	wa, 20
  84              	wa:
  85 0000 00000000 		.word	test
  86 0004 30010000 		.word	test+304
  87 0008 60020000 		.word	test+608
  88 000c 90030000 		.word	test+912
  89 0010 C0040000 		.word	test+1216
  90              		.section	.bss.chp,"aw",%nobits
  91              		.align	2
  92              		.type	chp, %object
  93              		.size	chp, 4
  94              	chp:
  95 0000 00000000 		.space	4
  96              		.section	.text.test_printn,"ax",%progbits
  97              		.align	2
  98              		.p2align 4,,15
  99              		.global	test_printn
 100              		.thumb
 101              		.thumb_func
 102              		.type	test_printn, %function
 103              	test_printn:
ARM GAS  C:\Users\z80\AppData\Local\Temp\ccxNTS1s.s 			page 3


 104              	.LFB62:
 105              		.file 1 "../chibios_2.4.x/test/test.c"
 106              		.loc 1 102 0
 107              		.cfi_startproc
 108              		@ args = 0, pretend = 0, frame = 32
 109              		@ frame_needed = 0, uses_anonymous_args = 0
 110 0000 10B5     		push	{r4, lr}
 111              	.LCFI0:
 112              		.cfi_def_cfa_offset 8
 113              		.cfi_offset 14, -4
 114              		.cfi_offset 4, -8
 115 0002 88B0     		sub	sp, sp, #32
 116              	.LCFI1:
 117              		.cfi_def_cfa_offset 40
 118 0004 0190     		str	r0, [sp, #4]
 119              		.loc 1 105 0
 120 0006 019B     		ldr	r3, [sp, #4]
 121 0008 002B     		cmp	r3, #0
 122 000a 12D1     		bne	.L2
 123              		.loc 1 106 0
 124 000c 40F20003 		movw	r3, #:lower16:chp
 125 0010 C0F20003 		movt	r3, #:upper16:chp
 126 0014 1B68     		ldr	r3, [r3, #0]
 127 0016 1B68     		ldr	r3, [r3, #0]
 128 0018 1C69     		ldr	r4, [r3, #16]
 129 001a 40F20003 		movw	r3, #:lower16:chp
 130 001e C0F20003 		movt	r3, #:upper16:chp
 131 0022 1B68     		ldr	r3, [r3, #0]
 132 0024 1846     		mov	r0, r3
 133 0026 4FF03001 		mov	r1, #48
 134 002a 4FF0FF32 		mov	r2, #-1
 135 002e A047     		blx	r4
 136 0030 45E0     		b	.L1
 137              	.L2:
 138              		.loc 1 108 0
 139 0032 03AB     		add	r3, sp, #12
 140 0034 0793     		str	r3, [sp, #28]
 141              		.loc 1 109 0
 142 0036 23E0     		b	.L4
 143              	.L5:
 144              		.loc 1 110 0
 145 0038 0199     		ldr	r1, [sp, #4]
 146 003a 4CF6CD43 		movw	r3, #52429
 147 003e CCF6CC43 		movt	r3, 52428
 148 0042 A3FB0123 		umull	r2, r3, r3, r1
 149 0046 4FEAD302 		lsr	r2, r3, #3
 150 004a 1346     		mov	r3, r2
 151 004c 4FEA8303 		lsl	r3, r3, #2
 152 0050 9B18     		adds	r3, r3, r2
 153 0052 4FEA4303 		lsl	r3, r3, #1
 154 0056 CA1A     		subs	r2, r1, r3
 155 0058 D3B2     		uxtb	r3, r2
 156 005a 03F13003 		add	r3, r3, #48
 157 005e DAB2     		uxtb	r2, r3
 158 0060 079B     		ldr	r3, [sp, #28]
 159 0062 1A70     		strb	r2, [r3, #0]
 160 0064 079B     		ldr	r3, [sp, #28]
ARM GAS  C:\Users\z80\AppData\Local\Temp\ccxNTS1s.s 			page 4


 161 0066 03F10103 		add	r3, r3, #1
 162 006a 0793     		str	r3, [sp, #28]
 163 006c 019A     		ldr	r2, [sp, #4]
 164 006e 4CF6CD43 		movw	r3, #52429
 165 0072 CCF6CC43 		movt	r3, 52428
 166 0076 A3FB0213 		umull	r1, r3, r3, r2
 167 007a 4FEAD303 		lsr	r3, r3, #3
 168 007e 0193     		str	r3, [sp, #4]
 169              	.L4:
 170              		.loc 1 109 0 discriminator 1
 171 0080 019B     		ldr	r3, [sp, #4]
 172 0082 002B     		cmp	r3, #0
 173 0084 D8D1     		bne	.L5
 174              		.loc 1 111 0
 175 0086 16E0     		b	.L6
 176              	.L7:
 177              		.loc 1 112 0
 178 0088 40F20003 		movw	r3, #:lower16:chp
 179 008c C0F20003 		movt	r3, #:upper16:chp
 180 0090 1B68     		ldr	r3, [r3, #0]
 181 0092 1B68     		ldr	r3, [r3, #0]
 182 0094 1C69     		ldr	r4, [r3, #16]
 183 0096 40F20003 		movw	r3, #:lower16:chp
 184 009a C0F20003 		movt	r3, #:upper16:chp
 185 009e 1A68     		ldr	r2, [r3, #0]
 186 00a0 079B     		ldr	r3, [sp, #28]
 187 00a2 03F1FF33 		add	r3, r3, #-1
 188 00a6 0793     		str	r3, [sp, #28]
 189 00a8 079B     		ldr	r3, [sp, #28]
 190 00aa 1B78     		ldrb	r3, [r3, #0]	@ zero_extendqisi2
 191 00ac 1046     		mov	r0, r2
 192 00ae 1946     		mov	r1, r3
 193 00b0 4FF0FF32 		mov	r2, #-1
 194 00b4 A047     		blx	r4
 195              	.L6:
 196              		.loc 1 111 0 discriminator 1
 197 00b6 079A     		ldr	r2, [sp, #28]
 198 00b8 03AB     		add	r3, sp, #12
 199 00ba 9A42     		cmp	r2, r3
 200 00bc E4D8     		bhi	.L7
 201              	.L1:
 202              		.loc 1 114 0
 203 00be 08B0     		add	sp, sp, #32
 204 00c0 10BD     		pop	{r4, pc}
 205              		.cfi_endproc
 206              	.LFE62:
 207              		.size	test_printn, .-test_printn
 208 00c2 00BFAFF3 		.section	.text.test_print,"ax",%progbits
 208      0080AFF3 
 208      0080AFF3 
 208      0080
 209              		.align	2
 210              		.p2align 4,,15
 211              		.global	test_print
 212              		.thumb
 213              		.thumb_func
 214              		.type	test_print, %function
ARM GAS  C:\Users\z80\AppData\Local\Temp\ccxNTS1s.s 			page 5


 215              	test_print:
 216              	.LFB63:
 217              		.loc 1 121 0
 218              		.cfi_startproc
 219              		@ args = 0, pretend = 0, frame = 8
 220              		@ frame_needed = 0, uses_anonymous_args = 0
 221 0000 10B5     		push	{r4, lr}
 222              	.LCFI2:
 223              		.cfi_def_cfa_offset 8
 224              		.cfi_offset 14, -4
 225              		.cfi_offset 4, -8
 226 0002 82B0     		sub	sp, sp, #8
 227              	.LCFI3:
 228              		.cfi_def_cfa_offset 16
 229 0004 0190     		str	r0, [sp, #4]
 230              		.loc 1 123 0
 231 0006 16E0     		b	.L9
 232              	.L10:
 233              		.loc 1 124 0
 234 0008 40F20003 		movw	r3, #:lower16:chp
 235 000c C0F20003 		movt	r3, #:upper16:chp
 236 0010 1B68     		ldr	r3, [r3, #0]
 237 0012 1B68     		ldr	r3, [r3, #0]
 238 0014 1C69     		ldr	r4, [r3, #16]
 239 0016 40F20003 		movw	r3, #:lower16:chp
 240 001a C0F20003 		movt	r3, #:upper16:chp
 241 001e 1A68     		ldr	r2, [r3, #0]
 242 0020 019B     		ldr	r3, [sp, #4]
 243 0022 1B78     		ldrb	r3, [r3, #0]	@ zero_extendqisi2
 244 0024 0199     		ldr	r1, [sp, #4]
 245 0026 01F10101 		add	r1, r1, #1
 246 002a 0191     		str	r1, [sp, #4]
 247 002c 1046     		mov	r0, r2
 248 002e 1946     		mov	r1, r3
 249 0030 4FF0FF32 		mov	r2, #-1
 250 0034 A047     		blx	r4
 251              	.L9:
 252              		.loc 1 123 0 discriminator 1
 253 0036 019B     		ldr	r3, [sp, #4]
 254 0038 1B78     		ldrb	r3, [r3, #0]	@ zero_extendqisi2
 255 003a 002B     		cmp	r3, #0
 256 003c E4D1     		bne	.L10
 257              		.loc 1 125 0
 258 003e 02B0     		add	sp, sp, #8
 259 0040 10BD     		pop	{r4, pc}
 260              		.cfi_endproc
 261              	.LFE63:
 262              		.size	test_print, .-test_print
 263 0042 00BFAFF3 		.section	.text.test_println,"ax",%progbits
 263      0080AFF3 
 263      0080AFF3 
 263      0080
 264              		.align	2
 265              		.p2align 4,,15
 266              		.global	test_println
 267              		.thumb
 268              		.thumb_func
ARM GAS  C:\Users\z80\AppData\Local\Temp\ccxNTS1s.s 			page 6


 269              		.type	test_println, %function
 270              	test_println:
 271              	.LFB64:
 272              		.loc 1 132 0
 273              		.cfi_startproc
 274              		@ args = 0, pretend = 0, frame = 8
 275              		@ frame_needed = 0, uses_anonymous_args = 0
 276 0000 10B5     		push	{r4, lr}
 277              	.LCFI4:
 278              		.cfi_def_cfa_offset 8
 279              		.cfi_offset 14, -4
 280              		.cfi_offset 4, -8
 281 0002 82B0     		sub	sp, sp, #8
 282              	.LCFI5:
 283              		.cfi_def_cfa_offset 16
 284 0004 0190     		str	r0, [sp, #4]
 285              		.loc 1 134 0
 286 0006 0198     		ldr	r0, [sp, #4]
 287 0008 FFF7FEFF 		bl	test_print
 288              		.loc 1 135 0
 289 000c 40F20003 		movw	r3, #:lower16:chp
 290 0010 C0F20003 		movt	r3, #:upper16:chp
 291 0014 1B68     		ldr	r3, [r3, #0]
 292 0016 1B68     		ldr	r3, [r3, #0]
 293 0018 1C69     		ldr	r4, [r3, #16]
 294 001a 40F20003 		movw	r3, #:lower16:chp
 295 001e C0F20003 		movt	r3, #:upper16:chp
 296 0022 1B68     		ldr	r3, [r3, #0]
 297 0024 1846     		mov	r0, r3
 298 0026 4FF00D01 		mov	r1, #13
 299 002a 4FF0FF32 		mov	r2, #-1
 300 002e A047     		blx	r4
 301              		.loc 1 136 0
 302 0030 40F20003 		movw	r3, #:lower16:chp
 303 0034 C0F20003 		movt	r3, #:upper16:chp
 304 0038 1B68     		ldr	r3, [r3, #0]
 305 003a 1B68     		ldr	r3, [r3, #0]
 306 003c 1C69     		ldr	r4, [r3, #16]
 307 003e 40F20003 		movw	r3, #:lower16:chp
 308 0042 C0F20003 		movt	r3, #:upper16:chp
 309 0046 1B68     		ldr	r3, [r3, #0]
 310 0048 1846     		mov	r0, r3
 311 004a 4FF00A01 		mov	r1, #10
 312 004e 4FF0FF32 		mov	r2, #-1
 313 0052 A047     		blx	r4
 314              		.loc 1 137 0
 315 0054 02B0     		add	sp, sp, #8
 316 0056 10BD     		pop	{r4, pc}
 317              		.cfi_endproc
 318              	.LFE64:
 319              		.size	test_println, .-test_println
 320 0058 AFF30080 		.section	.text.clear_tokens,"ax",%progbits
 320      AFF30080 
 321              		.align	2
 322              		.p2align 4,,15
 323              		.thumb
 324              		.thumb_func
ARM GAS  C:\Users\z80\AppData\Local\Temp\ccxNTS1s.s 			page 7


 325              		.type	clear_tokens, %function
 326              	clear_tokens:
 327              	.LFB65:
 328              		.loc 1 142 0
 329              		.cfi_startproc
 330              		@ args = 0, pretend = 0, frame = 0
 331              		@ frame_needed = 0, uses_anonymous_args = 0
 332              		@ link register save eliminated.
 333              		.loc 1 144 0
 334 0000 40F20003 		movw	r3, #:lower16:tokp
 335 0004 C0F20003 		movt	r3, #:upper16:tokp
 336 0008 40F20002 		movw	r2, #:lower16:tokens_buffer
 337 000c C0F20002 		movt	r2, #:upper16:tokens_buffer
 338 0010 1A60     		str	r2, [r3, #0]
 339              		.loc 1 145 0
 340 0012 7047     		bx	lr
 341              		.cfi_endproc
 342              	.LFE65:
 343              		.size	clear_tokens, .-clear_tokens
 344 0014 AFF30080 		.section	.text.print_tokens,"ax",%progbits
 344      AFF30080 
 344      AFF30080 
 345              		.align	2
 346              		.p2align 4,,15
 347              		.thumb
 348              		.thumb_func
 349              		.type	print_tokens, %function
 350              	print_tokens:
 351              	.LFB66:
 352              		.loc 1 147 0
 353              		.cfi_startproc
 354              		@ args = 0, pretend = 0, frame = 8
 355              		@ frame_needed = 0, uses_anonymous_args = 0
 356 0000 10B5     		push	{r4, lr}
 357              	.LCFI6:
 358              		.cfi_def_cfa_offset 8
 359              		.cfi_offset 14, -4
 360              		.cfi_offset 4, -8
 361 0002 82B0     		sub	sp, sp, #8
 362              	.LCFI7:
 363              		.cfi_def_cfa_offset 16
 364              		.loc 1 148 0
 365 0004 40F20003 		movw	r3, #:lower16:tokens_buffer
 366 0008 C0F20003 		movt	r3, #:upper16:tokens_buffer
 367 000c 0193     		str	r3, [sp, #4]
 368              		.loc 1 150 0
 369 000e 16E0     		b	.L14
 370              	.L15:
 371              		.loc 1 151 0
 372 0010 40F20003 		movw	r3, #:lower16:chp
 373 0014 C0F20003 		movt	r3, #:upper16:chp
 374 0018 1B68     		ldr	r3, [r3, #0]
 375 001a 1B68     		ldr	r3, [r3, #0]
 376 001c 1C69     		ldr	r4, [r3, #16]
 377 001e 40F20003 		movw	r3, #:lower16:chp
 378 0022 C0F20003 		movt	r3, #:upper16:chp
 379 0026 1A68     		ldr	r2, [r3, #0]
ARM GAS  C:\Users\z80\AppData\Local\Temp\ccxNTS1s.s 			page 8


 380 0028 019B     		ldr	r3, [sp, #4]
 381 002a 1B78     		ldrb	r3, [r3, #0]	@ zero_extendqisi2
 382 002c 0199     		ldr	r1, [sp, #4]
 383 002e 01F10101 		add	r1, r1, #1
 384 0032 0191     		str	r1, [sp, #4]
 385 0034 1046     		mov	r0, r2
 386 0036 1946     		mov	r1, r3
 387 0038 4FF0FF32 		mov	r2, #-1
 388 003c A047     		blx	r4
 389              	.L14:
 390              		.loc 1 150 0 discriminator 1
 391 003e 40F20003 		movw	r3, #:lower16:tokp
 392 0042 C0F20003 		movt	r3, #:upper16:tokp
 393 0046 1B68     		ldr	r3, [r3, #0]
 394 0048 019A     		ldr	r2, [sp, #4]
 395 004a 9A42     		cmp	r2, r3
 396 004c E0D3     		bcc	.L15
 397              		.loc 1 152 0
 398 004e 02B0     		add	sp, sp, #8
 399 0050 10BD     		pop	{r4, pc}
 400              		.cfi_endproc
 401              	.LFE66:
 402              		.size	print_tokens, .-print_tokens
 403 0052 00BFAFF3 		.section	.text.test_emit_token,"ax",%progbits
 403      0080AFF3 
 403      0080AFF3 
 403      0080
 404              		.align	2
 405              		.p2align 4,,15
 406              		.global	test_emit_token
 407              		.thumb
 408              		.thumb_func
 409              		.type	test_emit_token, %function
 410              	test_emit_token:
 411              	.LFB67:
 412              		.loc 1 159 0
 413              		.cfi_startproc
 414              		@ args = 0, pretend = 0, frame = 8
 415              		@ frame_needed = 0, uses_anonymous_args = 0
 416 0000 00B5     		push	{lr}
 417              	.LCFI8:
 418              		.cfi_def_cfa_offset 4
 419              		.cfi_offset 14, -4
 420 0002 83B0     		sub	sp, sp, #12
 421              	.LCFI9:
 422              		.cfi_def_cfa_offset 16
 423 0004 0346     		mov	r3, r0
 424 0006 8DF80730 		strb	r3, [sp, #7]
 425              	.LBB2:
 426              		.loc 1 161 0
 427 000a 4FF02003 		mov	r3, #32
 428              	@ 161 "../chibios_2.4.x/test/test.c" 1
 429 000e 83F31188 		msr     BASEPRI, r3
 430              	@ 0 "" 2
 431              		.thumb
 432              	.LBE2:
 433 0012 FFF7FEFF 		bl	dbg_check_lock
ARM GAS  C:\Users\z80\AppData\Local\Temp\ccxNTS1s.s 			page 9


 434              		.loc 1 162 0
 435 0016 40F20003 		movw	r3, #:lower16:tokp
 436 001a C0F20003 		movt	r3, #:upper16:tokp
 437 001e 1B68     		ldr	r3, [r3, #0]
 438 0020 9DF80720 		ldrb	r2, [sp, #7]
 439 0024 1A70     		strb	r2, [r3, #0]
 440 0026 03F10102 		add	r2, r3, #1
 441 002a 40F20003 		movw	r3, #:lower16:tokp
 442 002e C0F20003 		movt	r3, #:upper16:tokp
 443 0032 1A60     		str	r2, [r3, #0]
 444              		.loc 1 163 0
 445 0034 FFF7FEFF 		bl	dbg_check_unlock
 446              	.LBB3:
 447 0038 4FF00003 		mov	r3, #0
 448              	@ 163 "../chibios_2.4.x/test/test.c" 1
 449 003c 83F31188 		msr     BASEPRI, r3
 450              	@ 0 "" 2
 451              		.thumb
 452              	.LBE3:
 453              		.loc 1 164 0
 454 0040 03B0     		add	sp, sp, #12
 455 0042 00BD     		pop	{pc}
 456              		.cfi_endproc
 457              	.LFE67:
 458              		.size	test_emit_token, .-test_emit_token
 459 0044 AFF30080 		.section	.text._test_fail,"ax",%progbits
 459      AFF30080 
 459      AFF30080 
 460              		.align	2
 461              		.p2align 4,,15
 462              		.global	_test_fail
 463              		.thumb
 464              		.thumb_func
 465              		.type	_test_fail, %function
 466              	_test_fail:
 467              	.LFB68:
 468              		.loc 1 169 0
 469              		.cfi_startproc
 470              		@ args = 0, pretend = 0, frame = 8
 471              		@ frame_needed = 0, uses_anonymous_args = 0
 472              		@ link register save eliminated.
 473 0000 82B0     		sub	sp, sp, #8
 474              	.LCFI10:
 475              		.cfi_def_cfa_offset 8
 476 0002 0190     		str	r0, [sp, #4]
 477              		.loc 1 171 0
 478 0004 40F20003 		movw	r3, #:lower16:local_fail
 479 0008 C0F20003 		movt	r3, #:upper16:local_fail
 480 000c 4FF00102 		mov	r2, #1
 481 0010 1A60     		str	r2, [r3, #0]
 482              		.loc 1 172 0
 483 0012 40F20003 		movw	r3, #:lower16:global_fail
 484 0016 C0F20003 		movt	r3, #:upper16:global_fail
 485 001a 4FF00102 		mov	r2, #1
 486 001e 1A60     		str	r2, [r3, #0]
 487              		.loc 1 173 0
 488 0020 40F20003 		movw	r3, #:lower16:failpoint
ARM GAS  C:\Users\z80\AppData\Local\Temp\ccxNTS1s.s 			page 10


 489 0024 C0F20003 		movt	r3, #:upper16:failpoint
 490 0028 019A     		ldr	r2, [sp, #4]
 491 002a 1A60     		str	r2, [r3, #0]
 492              		.loc 1 174 0
 493 002c 4FF00103 		mov	r3, #1
 494              		.loc 1 175 0
 495 0030 1846     		mov	r0, r3
 496 0032 02B0     		add	sp, sp, #8
 497 0034 7047     		bx	lr
 498              		.cfi_endproc
 499              	.LFE68:
 500              		.size	_test_fail, .-_test_fail
 501 0036 00BFAFF3 		.section	.text._test_assert,"ax",%progbits
 501      0080AFF3 
 501      0080
 502              		.align	2
 503              		.p2align 4,,15
 504              		.global	_test_assert
 505              		.thumb
 506              		.thumb_func
 507              		.type	_test_assert, %function
 508              	_test_assert:
 509              	.LFB69:
 510              		.loc 1 177 0
 511              		.cfi_startproc
 512              		@ args = 0, pretend = 0, frame = 8
 513              		@ frame_needed = 0, uses_anonymous_args = 0
 514 0000 00B5     		push	{lr}
 515              	.LCFI11:
 516              		.cfi_def_cfa_offset 4
 517              		.cfi_offset 14, -4
 518 0002 83B0     		sub	sp, sp, #12
 519              	.LCFI12:
 520              		.cfi_def_cfa_offset 16
 521 0004 0190     		str	r0, [sp, #4]
 522 0006 0091     		str	r1, [sp, #0]
 523              		.loc 1 179 0
 524 0008 009B     		ldr	r3, [sp, #0]
 525 000a 002B     		cmp	r3, #0
 526 000c 04D1     		bne	.L19
 527              		.loc 1 180 0
 528 000e 0198     		ldr	r0, [sp, #4]
 529 0010 FFF7FEFF 		bl	_test_fail
 530 0014 0346     		mov	r3, r0
 531 0016 01E0     		b	.L20
 532              	.L19:
 533              		.loc 1 181 0
 534 0018 4FF00003 		mov	r3, #0
 535              	.L20:
 536              		.loc 1 182 0
 537 001c 1846     		mov	r0, r3
 538 001e 03B0     		add	sp, sp, #12
 539 0020 00BD     		pop	{pc}
 540              		.cfi_endproc
 541              	.LFE69:
 542              		.size	_test_assert, .-_test_assert
 543 0022 00BFAFF3 		.section	.text._test_assert_sequence,"ax",%progbits
ARM GAS  C:\Users\z80\AppData\Local\Temp\ccxNTS1s.s 			page 11


 543      0080AFF3 
 543      0080AFF3 
 543      0080
 544              		.align	2
 545              		.p2align 4,,15
 546              		.global	_test_assert_sequence
 547              		.thumb
 548              		.thumb_func
 549              		.type	_test_assert_sequence, %function
 550              	_test_assert_sequence:
 551              	.LFB70:
 552              		.loc 1 184 0
 553              		.cfi_startproc
 554              		@ args = 0, pretend = 0, frame = 16
 555              		@ frame_needed = 0, uses_anonymous_args = 0
 556 0000 00B5     		push	{lr}
 557              	.LCFI13:
 558              		.cfi_def_cfa_offset 4
 559              		.cfi_offset 14, -4
 560 0002 85B0     		sub	sp, sp, #20
 561              	.LCFI14:
 562              		.cfi_def_cfa_offset 24
 563 0004 0190     		str	r0, [sp, #4]
 564 0006 0091     		str	r1, [sp, #0]
 565              		.loc 1 185 0
 566 0008 40F20003 		movw	r3, #:lower16:tokens_buffer
 567 000c C0F20003 		movt	r3, #:upper16:tokens_buffer
 568 0010 0393     		str	r3, [sp, #12]
 569              		.loc 1 186 0
 570 0012 17E0     		b	.L22
 571              	.L24:
 572              		.loc 1 187 0
 573 0014 039B     		ldr	r3, [sp, #12]
 574 0016 1A78     		ldrb	r2, [r3, #0]	@ zero_extendqisi2
 575 0018 009B     		ldr	r3, [sp, #0]
 576 001a 1B78     		ldrb	r3, [r3, #0]	@ zero_extendqisi2
 577 001c 9A42     		cmp	r2, r3
 578 001e 0CBF     		ite	eq
 579 0020 0023     		moveq	r3, #0
 580 0022 0123     		movne	r3, #1
 581 0024 DBB2     		uxtb	r3, r3
 582 0026 039A     		ldr	r2, [sp, #12]
 583 0028 02F10102 		add	r2, r2, #1
 584 002c 0392     		str	r2, [sp, #12]
 585 002e 009A     		ldr	r2, [sp, #0]
 586 0030 02F10102 		add	r2, r2, #1
 587 0034 0092     		str	r2, [sp, #0]
 588 0036 002B     		cmp	r3, #0
 589 0038 04D0     		beq	.L22
 590              		.loc 1 188 0
 591 003a 0198     		ldr	r0, [sp, #4]
 592 003c FFF7FEFF 		bl	_test_fail
 593 0040 0346     		mov	r3, r0
 594 0042 14E0     		b	.L23
 595              	.L22:
 596              		.loc 1 186 0 discriminator 1
 597 0044 40F20003 		movw	r3, #:lower16:tokp
ARM GAS  C:\Users\z80\AppData\Local\Temp\ccxNTS1s.s 			page 12


 598 0048 C0F20003 		movt	r3, #:upper16:tokp
 599 004c 1B68     		ldr	r3, [r3, #0]
 600 004e 039A     		ldr	r2, [sp, #12]
 601 0050 9A42     		cmp	r2, r3
 602 0052 DFD3     		bcc	.L24
 603              		.loc 1 190 0
 604 0054 009B     		ldr	r3, [sp, #0]
 605 0056 1B78     		ldrb	r3, [r3, #0]	@ zero_extendqisi2
 606 0058 002B     		cmp	r3, #0
 607 005a 04D0     		beq	.L25
 608              		.loc 1 191 0
 609 005c 0198     		ldr	r0, [sp, #4]
 610 005e FFF7FEFF 		bl	_test_fail
 611 0062 0346     		mov	r3, r0
 612 0064 03E0     		b	.L23
 613              	.L25:
 614              		.loc 1 192 0
 615 0066 FFF7FEFF 		bl	clear_tokens
 616              		.loc 1 193 0
 617 006a 4FF00003 		mov	r3, #0
 618              	.L23:
 619              		.loc 1 194 0
 620 006e 1846     		mov	r0, r3
 621 0070 05B0     		add	sp, sp, #20
 622 0072 00BD     		pop	{pc}
 623              		.cfi_endproc
 624              	.LFE70:
 625              		.size	_test_assert_sequence, .-_test_assert_sequence
 626 0074 AFF30080 		.section	.text._test_assert_time_window,"ax",%progbits
 626      AFF30080 
 626      AFF30080 
 627              		.align	2
 628              		.p2align 4,,15
 629              		.global	_test_assert_time_window
 630              		.thumb
 631              		.thumb_func
 632              		.type	_test_assert_time_window, %function
 633              	_test_assert_time_window:
 634              	.LFB71:
 635              		.loc 1 196 0
 636              		.cfi_startproc
 637              		@ args = 0, pretend = 0, frame = 16
 638              		@ frame_needed = 0, uses_anonymous_args = 0
 639 0000 00B5     		push	{lr}
 640              	.LCFI15:
 641              		.cfi_def_cfa_offset 4
 642              		.cfi_offset 14, -4
 643 0002 85B0     		sub	sp, sp, #20
 644              	.LCFI16:
 645              		.cfi_def_cfa_offset 24
 646 0004 0390     		str	r0, [sp, #12]
 647 0006 0291     		str	r1, [sp, #8]
 648 0008 0192     		str	r2, [sp, #4]
 649              		.loc 1 198 0
 650 000a 0298     		ldr	r0, [sp, #8]
 651 000c 0199     		ldr	r1, [sp, #4]
 652 000e FFF7FEFF 		bl	chTimeIsWithin
ARM GAS  C:\Users\z80\AppData\Local\Temp\ccxNTS1s.s 			page 13


 653 0012 0346     		mov	r3, r0
 654 0014 0398     		ldr	r0, [sp, #12]
 655 0016 1946     		mov	r1, r3
 656 0018 FFF7FEFF 		bl	_test_assert
 657 001c 0346     		mov	r3, r0
 658              		.loc 1 199 0
 659 001e 1846     		mov	r0, r3
 660 0020 05B0     		add	sp, sp, #20
 661 0022 00BD     		pop	{pc}
 662              		.cfi_endproc
 663              	.LFE71:
 664              		.size	_test_assert_time_window, .-_test_assert_time_window
 665 0024 AFF30080 		.section	.text.test_terminate_threads,"ax",%progbits
 665      AFF30080 
 665      AFF30080 
 666              		.align	2
 667              		.p2align 4,,15
 668              		.global	test_terminate_threads
 669              		.thumb
 670              		.thumb_func
 671              		.type	test_terminate_threads, %function
 672              	test_terminate_threads:
 673              	.LFB72:
 674              		.loc 1 208 0
 675              		.cfi_startproc
 676              		@ args = 0, pretend = 0, frame = 8
 677              		@ frame_needed = 0, uses_anonymous_args = 0
 678 0000 00B5     		push	{lr}
 679              	.LCFI17:
 680              		.cfi_def_cfa_offset 4
 681              		.cfi_offset 14, -4
 682 0002 83B0     		sub	sp, sp, #12
 683              	.LCFI18:
 684              		.cfi_def_cfa_offset 16
 685              		.loc 1 211 0
 686 0004 4FF00003 		mov	r3, #0
 687 0008 0193     		str	r3, [sp, #4]
 688 000a 16E0     		b	.L28
 689              	.L30:
 690              		.loc 1 212 0
 691 000c 40F20003 		movw	r3, #:lower16:threads
 692 0010 C0F20003 		movt	r3, #:upper16:threads
 693 0014 019A     		ldr	r2, [sp, #4]
 694 0016 53F82230 		ldr	r3, [r3, r2, lsl #2]
 695 001a 002B     		cmp	r3, #0
 696 001c 09D0     		beq	.L29
 697              		.loc 1 213 0
 698 001e 40F20003 		movw	r3, #:lower16:threads
 699 0022 C0F20003 		movt	r3, #:upper16:threads
 700 0026 019A     		ldr	r2, [sp, #4]
 701 0028 53F82230 		ldr	r3, [r3, r2, lsl #2]
 702 002c 1846     		mov	r0, r3
 703 002e FFF7FEFF 		bl	chThdTerminate
 704              	.L29:
 705              		.loc 1 211 0
 706 0032 019B     		ldr	r3, [sp, #4]
 707 0034 03F10103 		add	r3, r3, #1
ARM GAS  C:\Users\z80\AppData\Local\Temp\ccxNTS1s.s 			page 14


 708 0038 0193     		str	r3, [sp, #4]
 709              	.L28:
 710              		.loc 1 211 0 is_stmt 0 discriminator 1
 711 003a 019B     		ldr	r3, [sp, #4]
 712 003c 042B     		cmp	r3, #4
 713 003e E5DD     		ble	.L30
 714              		.loc 1 214 0 is_stmt 1
 715 0040 03B0     		add	sp, sp, #12
 716 0042 00BD     		pop	{pc}
 717              		.cfi_endproc
 718              	.LFE72:
 719              		.size	test_terminate_threads, .-test_terminate_threads
 720 0044 AFF30080 		.section	.text.test_wait_threads,"ax",%progbits
 720      AFF30080 
 720      AFF30080 
 721              		.align	2
 722              		.p2align 4,,15
 723              		.global	test_wait_threads
 724              		.thumb
 725              		.thumb_func
 726              		.type	test_wait_threads, %function
 727              	test_wait_threads:
 728              	.LFB73:
 729              		.loc 1 219 0
 730              		.cfi_startproc
 731              		@ args = 0, pretend = 0, frame = 8
 732              		@ frame_needed = 0, uses_anonymous_args = 0
 733 0000 00B5     		push	{lr}
 734              	.LCFI19:
 735              		.cfi_def_cfa_offset 4
 736              		.cfi_offset 14, -4
 737 0002 83B0     		sub	sp, sp, #12
 738              	.LCFI20:
 739              		.cfi_def_cfa_offset 16
 740              		.loc 1 222 0
 741 0004 4FF00003 		mov	r3, #0
 742 0008 0193     		str	r3, [sp, #4]
 743 000a 1FE0     		b	.L32
 744              	.L34:
 745              		.loc 1 223 0
 746 000c 40F20003 		movw	r3, #:lower16:threads
 747 0010 C0F20003 		movt	r3, #:upper16:threads
 748 0014 019A     		ldr	r2, [sp, #4]
 749 0016 53F82230 		ldr	r3, [r3, r2, lsl #2]
 750 001a 002B     		cmp	r3, #0
 751 001c 12D0     		beq	.L33
 752              		.loc 1 224 0
 753 001e 40F20003 		movw	r3, #:lower16:threads
 754 0022 C0F20003 		movt	r3, #:upper16:threads
 755 0026 019A     		ldr	r2, [sp, #4]
 756 0028 53F82230 		ldr	r3, [r3, r2, lsl #2]
 757 002c 1846     		mov	r0, r3
 758 002e FFF7FEFF 		bl	chThdWait
 759              		.loc 1 225 0
 760 0032 40F20003 		movw	r3, #:lower16:threads
 761 0036 C0F20003 		movt	r3, #:upper16:threads
 762 003a 019A     		ldr	r2, [sp, #4]
ARM GAS  C:\Users\z80\AppData\Local\Temp\ccxNTS1s.s 			page 15


 763 003c 4FF00001 		mov	r1, #0
 764 0040 43F82210 		str	r1, [r3, r2, lsl #2]
 765              	.L33:
 766              		.loc 1 222 0
 767 0044 019B     		ldr	r3, [sp, #4]
 768 0046 03F10103 		add	r3, r3, #1
 769 004a 0193     		str	r3, [sp, #4]
 770              	.L32:
 771              		.loc 1 222 0 is_stmt 0 discriminator 1
 772 004c 019B     		ldr	r3, [sp, #4]
 773 004e 042B     		cmp	r3, #4
 774 0050 DCDD     		ble	.L34
 775              		.loc 1 227 0 is_stmt 1
 776 0052 03B0     		add	sp, sp, #12
 777 0054 00BD     		pop	{pc}
 778              		.cfi_endproc
 779              	.LFE73:
 780              		.size	test_wait_threads, .-test_wait_threads
 781 0056 00BFAFF3 		.section	.text.test_cpu_pulse,"ax",%progbits
 781      0080AFF3 
 781      0080
 782              		.align	2
 783              		.p2align 4,,15
 784              		.global	test_cpu_pulse
 785              		.thumb
 786              		.thumb_func
 787              		.type	test_cpu_pulse, %function
 788              	test_cpu_pulse:
 789              	.LFB74:
 790              		.loc 1 236 0
 791              		.cfi_startproc
 792              		@ args = 0, pretend = 0, frame = 24
 793              		@ frame_needed = 0, uses_anonymous_args = 0
 794              		@ link register save eliminated.
 795 0000 86B0     		sub	sp, sp, #24
 796              	.LCFI21:
 797              		.cfi_def_cfa_offset 24
 798 0002 0190     		str	r0, [sp, #4]
 799              		.loc 1 239 0
 800 0004 40F20003 		movw	r3, #:lower16:rlist
 801 0008 C0F20003 		movt	r3, #:upper16:rlist
 802 000c DB69     		ldr	r3, [r3, #28]
 803 000e 5B6A     		ldr	r3, [r3, #36]
 804 0010 0593     		str	r3, [sp, #20]
 805              		.loc 1 240 0
 806 0012 019B     		ldr	r3, [sp, #4]
 807 0014 4FF4FA72 		mov	r2, #500
 808 0018 02FB03F3 		mul	r3, r2, r3
 809 001c A3F5FA72 		sub	r2, r3, #500
 810 0020 44F6D353 		movw	r3, #19923
 811 0024 C1F26203 		movt	r3, 4194
 812 0028 A3FB0213 		umull	r1, r3, r3, r2
 813 002c 4FEA9312 		lsr	r2, r3, #6
 814 0030 059B     		ldr	r3, [sp, #20]
 815 0032 D318     		adds	r3, r2, r3
 816 0034 03F10103 		add	r3, r3, #1
 817 0038 0493     		str	r3, [sp, #16]
ARM GAS  C:\Users\z80\AppData\Local\Temp\ccxNTS1s.s 			page 16


 818              	.L43:
 819              		.loc 1 242 0
 820 003a 40F20003 		movw	r3, #:lower16:rlist
 821 003e C0F20003 		movt	r3, #:upper16:rlist
 822 0042 DB69     		ldr	r3, [r3, #28]
 823 0044 5B6A     		ldr	r3, [r3, #36]
 824 0046 0393     		str	r3, [sp, #12]
 825              		.loc 1 247 0
 826 0048 049A     		ldr	r2, [sp, #16]
 827 004a 059B     		ldr	r3, [sp, #20]
 828 004c 9A42     		cmp	r2, r3
 829 004e 0ED9     		bls	.L36
 830              		.loc 1 247 0 is_stmt 0 discriminator 1
 831 0050 039A     		ldr	r2, [sp, #12]
 832 0052 059B     		ldr	r3, [sp, #20]
 833 0054 9A42     		cmp	r2, r3
 834 0056 06D3     		bcc	.L37
 835              		.loc 1 247 0 discriminator 3
 836 0058 039A     		ldr	r2, [sp, #12]
 837 005a 049B     		ldr	r3, [sp, #16]
 838 005c 9A42     		cmp	r2, r3
 839 005e 02D2     		bcs	.L37
 840              		.loc 1 247 0 discriminator 1
 841 0060 4FF00103 		mov	r3, #1
 842 0064 01E0     		b	.L38
 843              	.L37:
 844              		.loc 1 247 0 discriminator 4
 845 0066 4FF00003 		mov	r3, #0
 846              	.L38:
 847              		.loc 1 247 0 discriminator 5
 848 006a DBB2     		uxtb	r3, r3
 849 006c 0DE0     		b	.L39
 850              	.L36:
 851              		.loc 1 247 0 discriminator 2
 852 006e 039A     		ldr	r2, [sp, #12]
 853 0070 059B     		ldr	r3, [sp, #20]
 854 0072 9A42     		cmp	r2, r3
 855 0074 03D2     		bcs	.L40
 856              		.loc 1 248 0 is_stmt 1
 857 0076 039A     		ldr	r2, [sp, #12]
 858 0078 049B     		ldr	r3, [sp, #16]
 859 007a 9A42     		cmp	r2, r3
 860 007c 02D2     		bcs	.L41
 861              	.L40:
 862              		.loc 1 247 0 discriminator 6
 863 007e 4FF00103 		mov	r3, #1
 864 0082 01E0     		b	.L42
 865              	.L41:
 866              		.loc 1 247 0 is_stmt 0
 867 0084 4FF00003 		mov	r3, #0
 868              	.L42:
 869              		.loc 1 247 0 discriminator 7
 870 0088 DBB2     		uxtb	r3, r3
 871              	.L39:
 872              		.loc 1 248 0 is_stmt 1
 873 008a 002B     		cmp	r3, #0
 874 008c D5D1     		bne	.L43
ARM GAS  C:\Users\z80\AppData\Local\Temp\ccxNTS1s.s 			page 17


 875              		.loc 1 249 0
 876 008e 06B0     		add	sp, sp, #24
 877 0090 7047     		bx	lr
 878              		.cfi_endproc
 879              	.LFE74:
 880              		.size	test_cpu_pulse, .-test_cpu_pulse
 881 0092 00BFAFF3 		.section	.text.test_wait_tick,"ax",%progbits
 881      0080AFF3 
 881      0080AFF3 
 881      0080
 882              		.align	2
 883              		.p2align 4,,15
 884              		.global	test_wait_tick
 885              		.thumb
 886              		.thumb_func
 887              		.type	test_wait_tick, %function
 888              	test_wait_tick:
 889              	.LFB75:
 890              		.loc 1 257 0
 891              		.cfi_startproc
 892              		@ args = 0, pretend = 0, frame = 0
 893              		@ frame_needed = 0, uses_anonymous_args = 0
 894 0000 08B5     		push	{r3, lr}
 895              	.LCFI22:
 896              		.cfi_def_cfa_offset 8
 897              		.cfi_offset 14, -4
 898              		.cfi_offset 3, -8
 899              		.loc 1 259 0
 900 0002 4FF00100 		mov	r0, #1
 901 0006 FFF7FEFF 		bl	chThdSleep
 902              		.loc 1 260 0
 903 000a 40F20003 		movw	r3, #:lower16:vtlist
 904 000e C0F20003 		movt	r3, #:upper16:vtlist
 905 0012 DB68     		ldr	r3, [r3, #12]
 906              		.loc 1 261 0
 907 0014 1846     		mov	r0, r3
 908 0016 08BD     		pop	{r3, pc}
 909              		.cfi_endproc
 910              	.LFE75:
 911              		.size	test_wait_tick, .-test_wait_tick
 912              		.global	test_timer_done
 913 0018 AFF30080 		.section	.bss.test_timer_done,"aw",%nobits
 913      AFF30080 
 914              		.align	2
 915              		.type	test_timer_done, %object
 916              		.size	test_timer_done, 4
 917              	test_timer_done:
 918 0000 00000000 		.space	4
 919              		.section	.bss.vt,"aw",%nobits
 920              		.align	2
 921              		.type	vt, %object
 922              		.size	vt, 20
 923              	vt:
 924 0000 00000000 		.space	20
 924      00000000 
 924      00000000 
 924      00000000 
ARM GAS  C:\Users\z80\AppData\Local\Temp\ccxNTS1s.s 			page 18


 924      00000000 
 925              		.section	.text.tmr,"ax",%progbits
 926              		.align	2
 927              		.p2align 4,,15
 928              		.thumb
 929              		.thumb_func
 930              		.type	tmr, %function
 931              	tmr:
 932              	.LFB76:
 933              		.loc 1 273 0
 934              		.cfi_startproc
 935              		@ args = 0, pretend = 0, frame = 8
 936              		@ frame_needed = 0, uses_anonymous_args = 0
 937              		@ link register save eliminated.
 938 0000 82B0     		sub	sp, sp, #8
 939              	.LCFI23:
 940              		.cfi_def_cfa_offset 8
 941 0002 0190     		str	r0, [sp, #4]
 942              		.loc 1 276 0
 943 0004 40F20003 		movw	r3, #:lower16:test_timer_done
 944 0008 C0F20003 		movt	r3, #:upper16:test_timer_done
 945 000c 4FF00102 		mov	r2, #1
 946 0010 1A60     		str	r2, [r3, #0]
 947              		.loc 1 277 0
 948 0012 02B0     		add	sp, sp, #8
 949 0014 7047     		bx	lr
 950              		.cfi_endproc
 951              	.LFE76:
 952              		.size	tmr, .-tmr
 953 0016 00BFAFF3 		.section	.text.test_start_timer,"ax",%progbits
 953      0080AFF3 
 953      0080
 954              		.align	2
 955              		.p2align 4,,15
 956              		.global	test_start_timer
 957              		.thumb
 958              		.thumb_func
 959              		.type	test_start_timer, %function
 960              	test_start_timer:
 961              	.LFB77:
 962              		.loc 1 284 0
 963              		.cfi_startproc
 964              		@ args = 0, pretend = 0, frame = 16
 965              		@ frame_needed = 0, uses_anonymous_args = 0
 966 0000 00B5     		push	{lr}
 967              	.LCFI24:
 968              		.cfi_def_cfa_offset 4
 969              		.cfi_offset 14, -4
 970 0002 85B0     		sub	sp, sp, #20
 971              	.LCFI25:
 972              		.cfi_def_cfa_offset 24
 973 0004 0190     		str	r0, [sp, #4]
 974              		.loc 1 286 0
 975 0006 019B     		ldr	r3, [sp, #4]
 976 0008 4FF4FA72 		mov	r2, #500
 977 000c 02FB03F3 		mul	r3, r2, r3
 978 0010 A3F5FA72 		sub	r2, r3, #500
ARM GAS  C:\Users\z80\AppData\Local\Temp\ccxNTS1s.s 			page 19


 979 0014 44F6D353 		movw	r3, #19923
 980 0018 C1F26203 		movt	r3, 4194
 981 001c A3FB0213 		umull	r1, r3, r3, r2
 982 0020 4FEA9313 		lsr	r3, r3, #6
 983 0024 03F10103 		add	r3, r3, #1
 984 0028 0393     		str	r3, [sp, #12]
 985              		.loc 1 287 0
 986 002a 40F20003 		movw	r3, #:lower16:test_timer_done
 987 002e C0F20003 		movt	r3, #:upper16:test_timer_done
 988 0032 4FF00002 		mov	r2, #0
 989 0036 1A60     		str	r2, [r3, #0]
 990              	.LBB4:
 991              		.loc 1 288 0
 992 0038 4FF02003 		mov	r3, #32
 993              	@ 288 "../chibios_2.4.x/test/test.c" 1
 994 003c 83F31188 		msr     BASEPRI, r3
 995              	@ 0 "" 2
 996              		.thumb
 997              	.LBE4:
 998 0040 FFF7FEFF 		bl	dbg_check_lock
 999              		.loc 1 289 0
 1000 0044 40F20000 		movw	r0, #:lower16:vt
 1001 0048 C0F20000 		movt	r0, #:upper16:vt
 1002 004c 0399     		ldr	r1, [sp, #12]
 1003 004e 40F20002 		movw	r2, #:lower16:tmr
 1004 0052 C0F20002 		movt	r2, #:upper16:tmr
 1005 0056 4FF00003 		mov	r3, #0
 1006 005a FFF7FEFF 		bl	chVTSetI
 1007              		.loc 1 290 0
 1008 005e FFF7FEFF 		bl	dbg_check_unlock
 1009              	.LBB5:
 1010 0062 4FF00003 		mov	r3, #0
 1011              	@ 290 "../chibios_2.4.x/test/test.c" 1
 1012 0066 83F31188 		msr     BASEPRI, r3
 1013              	@ 0 "" 2
 1014              		.thumb
 1015              	.LBE5:
 1016              		.loc 1 291 0
 1017 006a 05B0     		add	sp, sp, #20
 1018 006c 00BD     		pop	{pc}
 1019              		.cfi_endproc
 1020              	.LFE77:
 1021              		.size	test_start_timer, .-test_start_timer
 1022 006e 00BF     		.section	.text.execute_test,"ax",%progbits
 1023              		.align	2
 1024              		.p2align 4,,15
 1025              		.thumb
 1026              		.thumb_func
 1027              		.type	execute_test, %function
 1028              	execute_test:
 1029              	.LFB78:
 1030              		.loc 1 296 0
 1031              		.cfi_startproc
 1032              		@ args = 0, pretend = 0, frame = 16
 1033              		@ frame_needed = 0, uses_anonymous_args = 0
 1034 0000 00B5     		push	{lr}
 1035              	.LCFI26:
ARM GAS  C:\Users\z80\AppData\Local\Temp\ccxNTS1s.s 			page 20


 1036              		.cfi_def_cfa_offset 4
 1037              		.cfi_offset 14, -4
 1038 0002 85B0     		sub	sp, sp, #20
 1039              	.LCFI27:
 1040              		.cfi_def_cfa_offset 24
 1041 0004 0190     		str	r0, [sp, #4]
 1042              		.loc 1 300 0
 1043 0006 FFF7FEFF 		bl	clear_tokens
 1044              		.loc 1 301 0
 1045 000a 40F20003 		movw	r3, #:lower16:local_fail
 1046 000e C0F20003 		movt	r3, #:upper16:local_fail
 1047 0012 4FF00002 		mov	r2, #0
 1048 0016 1A60     		str	r2, [r3, #0]
 1049              		.loc 1 302 0
 1050 0018 4FF00003 		mov	r3, #0
 1051 001c 0393     		str	r3, [sp, #12]
 1052 001e 0CE0     		b	.L48
 1053              	.L49:
 1054              		.loc 1 303 0 discriminator 2
 1055 0020 40F20003 		movw	r3, #:lower16:threads
 1056 0024 C0F20003 		movt	r3, #:upper16:threads
 1057 0028 039A     		ldr	r2, [sp, #12]
 1058 002a 4FF00001 		mov	r1, #0
 1059 002e 43F82210 		str	r1, [r3, r2, lsl #2]
 1060              		.loc 1 302 0 discriminator 2
 1061 0032 039B     		ldr	r3, [sp, #12]
 1062 0034 03F10103 		add	r3, r3, #1
 1063 0038 0393     		str	r3, [sp, #12]
 1064              	.L48:
 1065              		.loc 1 302 0 is_stmt 0 discriminator 1
 1066 003a 039B     		ldr	r3, [sp, #12]
 1067 003c 042B     		cmp	r3, #4
 1068 003e EFDD     		ble	.L49
 1069              		.loc 1 305 0 is_stmt 1
 1070 0040 019B     		ldr	r3, [sp, #4]
 1071 0042 5B68     		ldr	r3, [r3, #4]
 1072 0044 002B     		cmp	r3, #0
 1073 0046 02D0     		beq	.L50
 1074              		.loc 1 306 0
 1075 0048 019B     		ldr	r3, [sp, #4]
 1076 004a 5B68     		ldr	r3, [r3, #4]
 1077 004c 9847     		blx	r3
 1078              	.L50:
 1079              		.loc 1 307 0
 1080 004e 019B     		ldr	r3, [sp, #4]
 1081 0050 DB68     		ldr	r3, [r3, #12]
 1082 0052 9847     		blx	r3
 1083              		.loc 1 308 0
 1084 0054 019B     		ldr	r3, [sp, #4]
 1085 0056 9B68     		ldr	r3, [r3, #8]
 1086 0058 002B     		cmp	r3, #0
 1087 005a 02D0     		beq	.L51
 1088              		.loc 1 309 0
 1089 005c 019B     		ldr	r3, [sp, #4]
 1090 005e 9B68     		ldr	r3, [r3, #8]
 1091 0060 9847     		blx	r3
 1092              	.L51:
ARM GAS  C:\Users\z80\AppData\Local\Temp\ccxNTS1s.s 			page 21


 1093              		.loc 1 311 0
 1094 0062 FFF7FEFF 		bl	test_wait_threads
 1095              		.loc 1 312 0
 1096 0066 05B0     		add	sp, sp, #20
 1097 0068 00BD     		pop	{pc}
 1098              		.cfi_endproc
 1099              	.LFE78:
 1100              		.size	execute_test, .-execute_test
 1101 006a 00BFAFF3 		.section	.text.print_line,"ax",%progbits
 1101      0080
 1102              		.align	2
 1103              		.p2align 4,,15
 1104              		.thumb
 1105              		.thumb_func
 1106              		.type	print_line, %function
 1107              	print_line:
 1108              	.LFB79:
 1109              		.loc 1 314 0
 1110              		.cfi_startproc
 1111              		@ args = 0, pretend = 0, frame = 8
 1112              		@ frame_needed = 0, uses_anonymous_args = 0
 1113 0000 10B5     		push	{r4, lr}
 1114              	.LCFI28:
 1115              		.cfi_def_cfa_offset 8
 1116              		.cfi_offset 14, -4
 1117              		.cfi_offset 4, -8
 1118 0002 82B0     		sub	sp, sp, #8
 1119              	.LCFI29:
 1120              		.cfi_def_cfa_offset 16
 1121              		.loc 1 317 0
 1122 0004 4FF00003 		mov	r3, #0
 1123 0008 0193     		str	r3, [sp, #4]
 1124 000a 15E0     		b	.L53
 1125              	.L54:
 1126              		.loc 1 318 0 discriminator 2
 1127 000c 40F20003 		movw	r3, #:lower16:chp
 1128 0010 C0F20003 		movt	r3, #:upper16:chp
 1129 0014 1B68     		ldr	r3, [r3, #0]
 1130 0016 1B68     		ldr	r3, [r3, #0]
 1131 0018 1C69     		ldr	r4, [r3, #16]
 1132 001a 40F20003 		movw	r3, #:lower16:chp
 1133 001e C0F20003 		movt	r3, #:upper16:chp
 1134 0022 1B68     		ldr	r3, [r3, #0]
 1135 0024 1846     		mov	r0, r3
 1136 0026 4FF02D01 		mov	r1, #45
 1137 002a 4FF0FF32 		mov	r2, #-1
 1138 002e A047     		blx	r4
 1139              		.loc 1 317 0 discriminator 2
 1140 0030 019B     		ldr	r3, [sp, #4]
 1141 0032 03F10103 		add	r3, r3, #1
 1142 0036 0193     		str	r3, [sp, #4]
 1143              	.L53:
 1144              		.loc 1 317 0 is_stmt 0 discriminator 1
 1145 0038 019B     		ldr	r3, [sp, #4]
 1146 003a 4B2B     		cmp	r3, #75
 1147 003c E6D9     		bls	.L54
 1148              		.loc 1 319 0 is_stmt 1
ARM GAS  C:\Users\z80\AppData\Local\Temp\ccxNTS1s.s 			page 22


 1149 003e 40F20003 		movw	r3, #:lower16:chp
 1150 0042 C0F20003 		movt	r3, #:upper16:chp
 1151 0046 1B68     		ldr	r3, [r3, #0]
 1152 0048 1B68     		ldr	r3, [r3, #0]
 1153 004a 1C69     		ldr	r4, [r3, #16]
 1154 004c 40F20003 		movw	r3, #:lower16:chp
 1155 0050 C0F20003 		movt	r3, #:upper16:chp
 1156 0054 1B68     		ldr	r3, [r3, #0]
 1157 0056 1846     		mov	r0, r3
 1158 0058 4FF00D01 		mov	r1, #13
 1159 005c 4FF0FF32 		mov	r2, #-1
 1160 0060 A047     		blx	r4
 1161              		.loc 1 320 0
 1162 0062 40F20003 		movw	r3, #:lower16:chp
 1163 0066 C0F20003 		movt	r3, #:upper16:chp
 1164 006a 1B68     		ldr	r3, [r3, #0]
 1165 006c 1B68     		ldr	r3, [r3, #0]
 1166 006e 1C69     		ldr	r4, [r3, #16]
 1167 0070 40F20003 		movw	r3, #:lower16:chp
 1168 0074 C0F20003 		movt	r3, #:upper16:chp
 1169 0078 1B68     		ldr	r3, [r3, #0]
 1170 007a 1846     		mov	r0, r3
 1171 007c 4FF00A01 		mov	r1, #10
 1172 0080 4FF0FF32 		mov	r2, #-1
 1173 0084 A047     		blx	r4
 1174              		.loc 1 321 0
 1175 0086 02B0     		add	sp, sp, #8
 1176 0088 10BD     		pop	{r4, pc}
 1177              		.cfi_endproc
 1178              	.LFE79:
 1179              		.size	print_line, .-print_line
 1180 008a 00BFAFF3 		.section	.rodata
 1180      0080
 1181              		.align	2
 1182              	.LC0:
 1183 0000 00       		.ascii	"\000"
 1184 0001 000000   		.align	2
 1185              	.LC1:
 1186 0004 2A2A2A20 		.ascii	"*** ChibiOS/RT test suite\000"
 1186      43686962 
 1186      694F532F 
 1186      52542074 
 1186      65737420 
 1187 001e 0000     		.align	2
 1188              	.LC2:
 1189 0020 2A2A2A00 		.ascii	"***\000"
 1190              		.align	2
 1191              	.LC3:
 1192 0024 2A2A2A20 		.ascii	"*** Kernel:       \000"
 1192      4B65726E 
 1192      656C3A20 
 1192      20202020 
 1192      202000
 1193 0037 00       		.align	2
 1194              	.LC4:
 1195 0038 322E342E 		.ascii	"2.4.3\000"
 1195      3300
ARM GAS  C:\Users\z80\AppData\Local\Temp\ccxNTS1s.s 			page 23


 1196 003e 0000     		.align	2
 1197              	.LC5:
 1198 0040 2A2A2A20 		.ascii	"*** Compiled:     \000"
 1198      436F6D70 
 1198      696C6564 
 1198      3A202020 
 1198      202000
 1199 0053 00       		.align	2
 1200              	.LC6:
 1201 0054 41756720 		.ascii	"Aug 18 2015 - 16:31:41\000"
 1201      31382032 
 1201      30313520 
 1201      2D203136 
 1201      3A33313A 
 1202 006b 00       		.align	2
 1203              	.LC7:
 1204 006c 2A2A2A20 		.ascii	"*** Compiler:     \000"
 1204      436F6D70 
 1204      696C6572 
 1204      3A202020 
 1204      202000
 1205 007f 00       		.align	2
 1206              	.LC8:
 1207 0080 47434320 		.ascii	"GCC 4.6.3\000"
 1207      342E362E 
 1207      3300
 1208 008a 0000     		.align	2
 1209              	.LC9:
 1210 008c 2A2A2A20 		.ascii	"*** Architecture: \000"
 1210      41726368 
 1210      69746563 
 1210      74757265 
 1210      3A2000
 1211 009f 00       		.align	2
 1212              	.LC10:
 1213 00a0 41524D76 		.ascii	"ARMv7-M\000"
 1213      372D4D00 
 1214              		.align	2
 1215              	.LC11:
 1216 00a8 2A2A2A20 		.ascii	"*** Core Variant: \000"
 1216      436F7265 
 1216      20566172 
 1216      69616E74 
 1216      3A2000
 1217 00bb 00       		.align	2
 1218              	.LC12:
 1219 00bc 436F7274 		.ascii	"Cortex-M3\000"
 1219      65782D4D 
 1219      3300
 1220 00c6 0000     		.align	2
 1221              	.LC13:
 1222 00c8 2A2A2A20 		.ascii	"*** Port Info:    \000"
 1222      506F7274 
 1222      20496E66 
 1222      6F3A2020 
 1222      202000
 1223 00db 00       		.align	2
ARM GAS  C:\Users\z80\AppData\Local\Temp\ccxNTS1s.s 			page 24


 1224              	.LC14:
 1225 00dc 41647661 		.ascii	"Advanced kernel mode\000"
 1225      6E636564 
 1225      206B6572 
 1225      6E656C20 
 1225      6D6F6465 
 1226 00f1 000000   		.align	2
 1227              	.LC15:
 1228 00f4 2A2A2A20 		.ascii	"*** Platform:     \000"
 1228      506C6174 
 1228      666F726D 
 1228      3A202020 
 1228      202000
 1229 0107 00       		.align	2
 1230              	.LC16:
 1231 0108 53544D33 		.ascii	"STM32F1 Performance Line Medium Density\000"
 1231      32463120 
 1231      50657266 
 1231      6F726D61 
 1231      6E636520 
 1232              		.align	2
 1233              	.LC17:
 1234 0130 2A2A2A20 		.ascii	"*** Test Board:   \000"
 1234      54657374 
 1234      20426F61 
 1234      72643A20 
 1234      202000
 1235 0143 00       		.align	2
 1236              	.LC18:
 1237 0144 6D792063 		.ascii	"my ctrl-board\000"
 1237      74726C2D 
 1237      626F6172 
 1237      6400
 1238 0152 0000     		.align	2
 1239              	.LC19:
 1240 0154 2D2D2D20 		.ascii	"--- Test Case \000"
 1240      54657374 
 1240      20436173 
 1240      652000
 1241 0163 00       		.align	2
 1242              	.LC20:
 1243 0164 2E00     		.ascii	".\000"
 1244 0166 0000     		.align	2
 1245              	.LC21:
 1246 0168 202800   		.ascii	" (\000"
 1247 016b 00       		.align	2
 1248              	.LC22:
 1249 016c 2900     		.ascii	")\000"
 1250 016e 0000     		.align	2
 1251              	.LC23:
 1252 0170 2D2D2D20 		.ascii	"--- Result: FAILURE (#\000"
 1252      52657375 
 1252      6C743A20 
 1252      4641494C 
 1252      55524520 
 1253 0187 00       		.align	2
 1254              	.LC24:
ARM GAS  C:\Users\z80\AppData\Local\Temp\ccxNTS1s.s 			page 25


 1255 0188 205B00   		.ascii	" [\000"
 1256 018b 00       		.align	2
 1257              	.LC25:
 1258 018c 5D2900   		.ascii	"])\000"
 1259 018f 00       		.align	2
 1260              	.LC26:
 1261 0190 2D2D2D20 		.ascii	"--- Result: SUCCESS\000"
 1261      52657375 
 1261      6C743A20 
 1261      53554343 
 1261      45535300 
 1262              		.align	2
 1263              	.LC27:
 1264 01a4 46696E61 		.ascii	"Final result: \000"
 1264      6C207265 
 1264      73756C74 
 1264      3A2000
 1265 01b3 00       		.align	2
 1266              	.LC28:
 1267 01b4 4641494C 		.ascii	"FAILURE\000"
 1267      55524500 
 1268              		.align	2
 1269              	.LC29:
 1270 01bc 53554343 		.ascii	"SUCCESS\000"
 1270      45535300 
 1271              		.section	.text.TestThread,"ax",%progbits
 1272              		.align	2
 1273              		.p2align 4,,15
 1274              		.global	TestThread
 1275              		.thumb
 1276              		.thumb_func
 1277              		.type	TestThread, %function
 1278              	TestThread:
 1279              	.LFB80:
 1280              		.loc 1 329 0
 1281              		.cfi_startproc
 1282              		@ args = 0, pretend = 0, frame = 16
 1283              		@ frame_needed = 0, uses_anonymous_args = 0
 1284 0000 00B5     		push	{lr}
 1285              	.LCFI30:
 1286              		.cfi_def_cfa_offset 4
 1287              		.cfi_offset 14, -4
 1288 0002 85B0     		sub	sp, sp, #20
 1289              	.LCFI31:
 1290              		.cfi_def_cfa_offset 24
 1291 0004 0190     		str	r0, [sp, #4]
 1292              		.loc 1 332 0
 1293 0006 40F20003 		movw	r3, #:lower16:chp
 1294 000a C0F20003 		movt	r3, #:upper16:chp
 1295 000e 019A     		ldr	r2, [sp, #4]
 1296 0010 1A60     		str	r2, [r3, #0]
 1297              		.loc 1 333 0
 1298 0012 40F20000 		movw	r0, #:lower16:.LC0
 1299 0016 C0F20000 		movt	r0, #:upper16:.LC0
 1300 001a FFF7FEFF 		bl	test_println
 1301              		.loc 1 334 0
 1302 001e 40F20000 		movw	r0, #:lower16:.LC1
ARM GAS  C:\Users\z80\AppData\Local\Temp\ccxNTS1s.s 			page 26


 1303 0022 C0F20000 		movt	r0, #:upper16:.LC1
 1304 0026 FFF7FEFF 		bl	test_println
 1305              		.loc 1 335 0
 1306 002a 40F20000 		movw	r0, #:lower16:.LC2
 1307 002e C0F20000 		movt	r0, #:upper16:.LC2
 1308 0032 FFF7FEFF 		bl	test_println
 1309              		.loc 1 336 0
 1310 0036 40F20000 		movw	r0, #:lower16:.LC3
 1311 003a C0F20000 		movt	r0, #:upper16:.LC3
 1312 003e FFF7FEFF 		bl	test_print
 1313              		.loc 1 337 0
 1314 0042 40F20000 		movw	r0, #:lower16:.LC4
 1315 0046 C0F20000 		movt	r0, #:upper16:.LC4
 1316 004a FFF7FEFF 		bl	test_println
 1317              		.loc 1 338 0
 1318 004e 40F20000 		movw	r0, #:lower16:.LC5
 1319 0052 C0F20000 		movt	r0, #:upper16:.LC5
 1320 0056 FFF7FEFF 		bl	test_print
 1321              		.loc 1 339 0
 1322 005a 40F20000 		movw	r0, #:lower16:.LC6
 1323 005e C0F20000 		movt	r0, #:upper16:.LC6
 1324 0062 FFF7FEFF 		bl	test_println
 1325              		.loc 1 341 0
 1326 0066 40F20000 		movw	r0, #:lower16:.LC7
 1327 006a C0F20000 		movt	r0, #:upper16:.LC7
 1328 006e FFF7FEFF 		bl	test_print
 1329              		.loc 1 342 0
 1330 0072 40F20000 		movw	r0, #:lower16:.LC8
 1331 0076 C0F20000 		movt	r0, #:upper16:.LC8
 1332 007a FFF7FEFF 		bl	test_println
 1333              		.loc 1 344 0
 1334 007e 40F20000 		movw	r0, #:lower16:.LC9
 1335 0082 C0F20000 		movt	r0, #:upper16:.LC9
 1336 0086 FFF7FEFF 		bl	test_print
 1337              		.loc 1 345 0
 1338 008a 40F20000 		movw	r0, #:lower16:.LC10
 1339 008e C0F20000 		movt	r0, #:upper16:.LC10
 1340 0092 FFF7FEFF 		bl	test_println
 1341              		.loc 1 347 0
 1342 0096 40F20000 		movw	r0, #:lower16:.LC11
 1343 009a C0F20000 		movt	r0, #:upper16:.LC11
 1344 009e FFF7FEFF 		bl	test_print
 1345              		.loc 1 348 0
 1346 00a2 40F20000 		movw	r0, #:lower16:.LC12
 1347 00a6 C0F20000 		movt	r0, #:upper16:.LC12
 1348 00aa FFF7FEFF 		bl	test_println
 1349              		.loc 1 351 0
 1350 00ae 40F20000 		movw	r0, #:lower16:.LC13
 1351 00b2 C0F20000 		movt	r0, #:upper16:.LC13
 1352 00b6 FFF7FEFF 		bl	test_print
 1353              		.loc 1 352 0
 1354 00ba 40F20000 		movw	r0, #:lower16:.LC14
 1355 00be C0F20000 		movt	r0, #:upper16:.LC14
 1356 00c2 FFF7FEFF 		bl	test_println
 1357              		.loc 1 355 0
 1358 00c6 40F20000 		movw	r0, #:lower16:.LC15
 1359 00ca C0F20000 		movt	r0, #:upper16:.LC15
ARM GAS  C:\Users\z80\AppData\Local\Temp\ccxNTS1s.s 			page 27


 1360 00ce FFF7FEFF 		bl	test_print
 1361              		.loc 1 356 0
 1362 00d2 40F20000 		movw	r0, #:lower16:.LC16
 1363 00d6 C0F20000 		movt	r0, #:upper16:.LC16
 1364 00da FFF7FEFF 		bl	test_println
 1365              		.loc 1 359 0
 1366 00de 40F20000 		movw	r0, #:lower16:.LC17
 1367 00e2 C0F20000 		movt	r0, #:upper16:.LC17
 1368 00e6 FFF7FEFF 		bl	test_print
 1369              		.loc 1 360 0
 1370 00ea 40F20000 		movw	r0, #:lower16:.LC18
 1371 00ee C0F20000 		movt	r0, #:upper16:.LC18
 1372 00f2 FFF7FEFF 		bl	test_println
 1373              		.loc 1 362 0
 1374 00f6 40F20000 		movw	r0, #:lower16:.LC0
 1375 00fa C0F20000 		movt	r0, #:upper16:.LC0
 1376 00fe FFF7FEFF 		bl	test_println
 1377              		.loc 1 364 0
 1378 0102 40F20003 		movw	r3, #:lower16:global_fail
 1379 0106 C0F20003 		movt	r3, #:upper16:global_fail
 1380 010a 4FF00002 		mov	r2, #0
 1381 010e 1A60     		str	r2, [r3, #0]
 1382              		.loc 1 365 0
 1383 0110 4FF00003 		mov	r3, #0
 1384 0114 0393     		str	r3, [sp, #12]
 1385              		.loc 1 366 0
 1386 0116 8DE0     		b	.L56
 1387              	.L61:
 1388              		.loc 1 367 0
 1389 0118 4FF00003 		mov	r3, #0
 1390 011c 0293     		str	r3, [sp, #8]
 1391              		.loc 1 368 0
 1392 011e 76E0     		b	.L57
 1393              	.L60:
 1394              		.loc 1 369 0
 1395 0120 FFF7FEFF 		bl	print_line
 1396              		.loc 1 370 0
 1397 0124 40F20000 		movw	r0, #:lower16:.LC19
 1398 0128 C0F20000 		movt	r0, #:upper16:.LC19
 1399 012c FFF7FEFF 		bl	test_print
 1400              		.loc 1 371 0
 1401 0130 039B     		ldr	r3, [sp, #12]
 1402 0132 03F10103 		add	r3, r3, #1
 1403 0136 1846     		mov	r0, r3
 1404 0138 FFF7FEFF 		bl	test_printn
 1405              		.loc 1 372 0
 1406 013c 40F20000 		movw	r0, #:lower16:.LC20
 1407 0140 C0F20000 		movt	r0, #:upper16:.LC20
 1408 0144 FFF7FEFF 		bl	test_print
 1409              		.loc 1 373 0
 1410 0148 029B     		ldr	r3, [sp, #8]
 1411 014a 03F10103 		add	r3, r3, #1
 1412 014e 1846     		mov	r0, r3
 1413 0150 FFF7FEFF 		bl	test_printn
 1414              		.loc 1 374 0
 1415 0154 40F20000 		movw	r0, #:lower16:.LC21
 1416 0158 C0F20000 		movt	r0, #:upper16:.LC21
ARM GAS  C:\Users\z80\AppData\Local\Temp\ccxNTS1s.s 			page 28


 1417 015c FFF7FEFF 		bl	test_print
 1418              		.loc 1 375 0
 1419 0160 40F20003 		movw	r3, #:lower16:patterns
 1420 0164 C0F20003 		movt	r3, #:upper16:patterns
 1421 0168 039A     		ldr	r2, [sp, #12]
 1422 016a 53F82220 		ldr	r2, [r3, r2, lsl #2]
 1423 016e 029B     		ldr	r3, [sp, #8]
 1424 0170 4FEA8303 		lsl	r3, r3, #2
 1425 0174 D318     		adds	r3, r2, r3
 1426 0176 1B68     		ldr	r3, [r3, #0]
 1427 0178 1B68     		ldr	r3, [r3, #0]
 1428 017a 1846     		mov	r0, r3
 1429 017c FFF7FEFF 		bl	test_print
 1430              		.loc 1 376 0
 1431 0180 40F20000 		movw	r0, #:lower16:.LC22
 1432 0184 C0F20000 		movt	r0, #:upper16:.LC22
 1433 0188 FFF7FEFF 		bl	test_println
 1434              		.loc 1 378 0
 1435 018c 4FF06400 		mov	r0, #100
 1436 0190 FFF7FEFF 		bl	chThdSleep
 1437              		.loc 1 380 0
 1438 0194 40F20003 		movw	r3, #:lower16:patterns
 1439 0198 C0F20003 		movt	r3, #:upper16:patterns
 1440 019c 039A     		ldr	r2, [sp, #12]
 1441 019e 53F82220 		ldr	r2, [r3, r2, lsl #2]
 1442 01a2 029B     		ldr	r3, [sp, #8]
 1443 01a4 4FEA8303 		lsl	r3, r3, #2
 1444 01a8 D318     		adds	r3, r2, r3
 1445 01aa 1B68     		ldr	r3, [r3, #0]
 1446 01ac 1846     		mov	r0, r3
 1447 01ae FFF7FEFF 		bl	execute_test
 1448              		.loc 1 381 0
 1449 01b2 40F20003 		movw	r3, #:lower16:local_fail
 1450 01b6 C0F20003 		movt	r3, #:upper16:local_fail
 1451 01ba 1B68     		ldr	r3, [r3, #0]
 1452 01bc 002B     		cmp	r3, #0
 1453 01be 1CD0     		beq	.L58
 1454              		.loc 1 382 0
 1455 01c0 40F20000 		movw	r0, #:lower16:.LC23
 1456 01c4 C0F20000 		movt	r0, #:upper16:.LC23
 1457 01c8 FFF7FEFF 		bl	test_print
 1458              		.loc 1 383 0
 1459 01cc 40F20003 		movw	r3, #:lower16:failpoint
 1460 01d0 C0F20003 		movt	r3, #:upper16:failpoint
 1461 01d4 1B68     		ldr	r3, [r3, #0]
 1462 01d6 1846     		mov	r0, r3
 1463 01d8 FFF7FEFF 		bl	test_printn
 1464              		.loc 1 384 0
 1465 01dc 40F20000 		movw	r0, #:lower16:.LC24
 1466 01e0 C0F20000 		movt	r0, #:upper16:.LC24
 1467 01e4 FFF7FEFF 		bl	test_print
 1468              		.loc 1 385 0
 1469 01e8 FFF7FEFF 		bl	print_tokens
 1470              		.loc 1 386 0
 1471 01ec 40F20000 		movw	r0, #:lower16:.LC25
 1472 01f0 C0F20000 		movt	r0, #:upper16:.LC25
 1473 01f4 FFF7FEFF 		bl	test_println
ARM GAS  C:\Users\z80\AppData\Local\Temp\ccxNTS1s.s 			page 29


 1474 01f8 05E0     		b	.L59
 1475              	.L58:
 1476              		.loc 1 389 0
 1477 01fa 40F20000 		movw	r0, #:lower16:.LC26
 1478 01fe C0F20000 		movt	r0, #:upper16:.LC26
 1479 0202 FFF7FEFF 		bl	test_println
 1480              	.L59:
 1481              		.loc 1 390 0
 1482 0206 029B     		ldr	r3, [sp, #8]
 1483 0208 03F10103 		add	r3, r3, #1
 1484 020c 0293     		str	r3, [sp, #8]
 1485              	.L57:
 1486              		.loc 1 368 0 discriminator 1
 1487 020e 40F20003 		movw	r3, #:lower16:patterns
 1488 0212 C0F20003 		movt	r3, #:upper16:patterns
 1489 0216 039A     		ldr	r2, [sp, #12]
 1490 0218 53F82220 		ldr	r2, [r3, r2, lsl #2]
 1491 021c 029B     		ldr	r3, [sp, #8]
 1492 021e 4FEA8303 		lsl	r3, r3, #2
 1493 0222 D318     		adds	r3, r2, r3
 1494 0224 1B68     		ldr	r3, [r3, #0]
 1495 0226 002B     		cmp	r3, #0
 1496 0228 7FF47AAF 		bne	.L60
 1497              		.loc 1 392 0
 1498 022c 039B     		ldr	r3, [sp, #12]
 1499 022e 03F10103 		add	r3, r3, #1
 1500 0232 0393     		str	r3, [sp, #12]
 1501              	.L56:
 1502              		.loc 1 366 0 discriminator 1
 1503 0234 40F20003 		movw	r3, #:lower16:patterns
 1504 0238 C0F20003 		movt	r3, #:upper16:patterns
 1505 023c 039A     		ldr	r2, [sp, #12]
 1506 023e 53F82230 		ldr	r3, [r3, r2, lsl #2]
 1507 0242 002B     		cmp	r3, #0
 1508 0244 7FF468AF 		bne	.L61
 1509              		.loc 1 394 0
 1510 0248 FFF7FEFF 		bl	print_line
 1511              		.loc 1 395 0
 1512 024c 40F20000 		movw	r0, #:lower16:.LC0
 1513 0250 C0F20000 		movt	r0, #:upper16:.LC0
 1514 0254 FFF7FEFF 		bl	test_println
 1515              		.loc 1 396 0
 1516 0258 40F20000 		movw	r0, #:lower16:.LC27
 1517 025c C0F20000 		movt	r0, #:upper16:.LC27
 1518 0260 FFF7FEFF 		bl	test_print
 1519              		.loc 1 397 0
 1520 0264 40F20003 		movw	r3, #:lower16:global_fail
 1521 0268 C0F20003 		movt	r3, #:upper16:global_fail
 1522 026c 1B68     		ldr	r3, [r3, #0]
 1523 026e 002B     		cmp	r3, #0
 1524 0270 06D0     		beq	.L62
 1525              		.loc 1 398 0
 1526 0272 40F20000 		movw	r0, #:lower16:.LC28
 1527 0276 C0F20000 		movt	r0, #:upper16:.LC28
 1528 027a FFF7FEFF 		bl	test_println
 1529 027e 05E0     		b	.L63
 1530              	.L62:
ARM GAS  C:\Users\z80\AppData\Local\Temp\ccxNTS1s.s 			page 30


 1531              		.loc 1 400 0
 1532 0280 40F20000 		movw	r0, #:lower16:.LC29
 1533 0284 C0F20000 		movt	r0, #:upper16:.LC29
 1534 0288 FFF7FEFF 		bl	test_println
 1535              	.L63:
 1536              		.loc 1 402 0
 1537 028c 40F20003 		movw	r3, #:lower16:global_fail
 1538 0290 C0F20003 		movt	r3, #:upper16:global_fail
 1539 0294 1B68     		ldr	r3, [r3, #0]
 1540              		.loc 1 403 0
 1541 0296 1846     		mov	r0, r3
 1542 0298 05B0     		add	sp, sp, #20
 1543 029a 00BD     		pop	{pc}
 1544              		.cfi_endproc
 1545              	.LFE80:
 1546              		.size	TestThread, .-TestThread
 1547 029c AFF30080 		.text
 1548              	.Letext0:
 1549              		.file 2 "c:\\programs\\codesourcery\\2011.03-56\\bin\\../lib/gcc/arm-none-eabi/4.6.3/include/stdde
 1550              		.file 3 "c:\\programs\\codesourcery\\2011.03-56\\bin\\../lib/gcc/arm-none-eabi/4.6.3/../../../../a
 1551              		.file 4 "../chibios_2.4.x/os/ports/GCC/ARMCMx/chtypes.h"
 1552              		.file 5 "../chibios_2.4.x/os/kernel/include/chlists.h"
 1553              		.file 6 "../chibios_2.4.x/os/kernel/include/chthreads.h"
 1554              		.file 7 "../chibios_2.4.x/os/ports/GCC/ARMCMx/chcore_v7m.h"
 1555              		.file 8 "../chibios_2.4.x/os/kernel/include/chvt.h"
 1556              		.file 9 "../chibios_2.4.x/os/kernel/include/chschd.h"
 1557              		.file 10 "../chibios_2.4.x/os/kernel/include/chmtx.h"
 1558              		.file 11 "../chibios_2.4.x/os/kernel/include/chioch.h"
 1559              		.file 12 "../chibios_2.4.x/test/test.h"
 1560              		.file 13 "../chibios_2.4.x/os/ports/common/ARMCMx/CMSIS/include/core_cm3.h"
 1561              		.file 14 "../chibios_2.4.x/test/testthd.h"
 1562              		.file 15 "../chibios_2.4.x/test/testsem.h"
 1563              		.file 16 "../chibios_2.4.x/test/testmtx.h"
 1564              		.file 17 "../chibios_2.4.x/test/testmsg.h"
 1565              		.file 18 "../chibios_2.4.x/test/testmbox.h"
 1566              		.file 19 "../chibios_2.4.x/test/testevt.h"
 1567              		.file 20 "../chibios_2.4.x/test/testheap.h"
 1568              		.file 21 "../chibios_2.4.x/test/testpools.h"
 1569              		.file 22 "../chibios_2.4.x/test/testdyn.h"
 1570              		.file 23 "../chibios_2.4.x/test/testqueues.h"
 1571              		.file 24 "../chibios_2.4.x/test/testbmk.h"
 1572              		.section	.debug_info,"",%progbits
 1573              	.Ldebug_info0:
 1574 0000 C30D0000 		.4byte	0xdc3
 1575 0004 0200     		.2byte	0x2
 1576 0006 00000000 		.4byte	.Ldebug_abbrev0
 1577 000a 04       		.byte	0x4
 1578 000b 01       		.uleb128 0x1
 1579 000c 68040000 		.4byte	.LASF132
 1580 0010 01       		.byte	0x1
 1581 0011 E9020000 		.4byte	.LASF133
 1582 0015 00010000 		.4byte	.LASF134
 1583 0019 00000000 		.4byte	0
 1584 001d 00000000 		.4byte	0
 1585 0021 00000000 		.4byte	.Ldebug_ranges0+0
 1586 0025 00000000 		.4byte	.Ldebug_line0
 1587 0029 02       		.uleb128 0x2
ARM GAS  C:\Users\z80\AppData\Local\Temp\ccxNTS1s.s 			page 31


 1588 002a 04       		.byte	0x4
 1589 002b 05       		.byte	0x5
 1590 002c 696E7400 		.ascii	"int\000"
 1591 0030 03       		.uleb128 0x3
 1592 0031 0F000000 		.4byte	.LASF2
 1593 0035 02       		.byte	0x2
 1594 0036 D4       		.byte	0xd4
 1595 0037 3B000000 		.4byte	0x3b
 1596 003b 04       		.uleb128 0x4
 1597 003c 04       		.byte	0x4
 1598 003d 07       		.byte	0x7
 1599 003e F5010000 		.4byte	.LASF0
 1600 0042 04       		.uleb128 0x4
 1601 0043 01       		.byte	0x1
 1602 0044 06       		.byte	0x6
 1603 0045 C8000000 		.4byte	.LASF1
 1604 0049 03       		.uleb128 0x3
 1605 004a 1C050000 		.4byte	.LASF3
 1606 004e 03       		.byte	0x3
 1607 004f 2A       		.byte	0x2a
 1608 0050 54000000 		.4byte	0x54
 1609 0054 04       		.uleb128 0x4
 1610 0055 01       		.byte	0x1
 1611 0056 08       		.byte	0x8
 1612 0057 AA030000 		.4byte	.LASF4
 1613 005b 04       		.uleb128 0x4
 1614 005c 02       		.byte	0x2
 1615 005d 05       		.byte	0x5
 1616 005e DD030000 		.4byte	.LASF5
 1617 0062 04       		.uleb128 0x4
 1618 0063 02       		.byte	0x2
 1619 0064 07       		.byte	0x7
 1620 0065 41020000 		.4byte	.LASF6
 1621 0069 03       		.uleb128 0x3
 1622 006a A2030000 		.4byte	.LASF7
 1623 006e 03       		.byte	0x3
 1624 006f 4F       		.byte	0x4f
 1625 0070 74000000 		.4byte	0x74
 1626 0074 04       		.uleb128 0x4
 1627 0075 04       		.byte	0x4
 1628 0076 05       		.byte	0x5
 1629 0077 2D010000 		.4byte	.LASF8
 1630 007b 03       		.uleb128 0x3
 1631 007c 4B040000 		.4byte	.LASF9
 1632 0080 03       		.byte	0x3
 1633 0081 50       		.byte	0x50
 1634 0082 86000000 		.4byte	0x86
 1635 0086 04       		.uleb128 0x4
 1636 0087 04       		.byte	0x4
 1637 0088 07       		.byte	0x7
 1638 0089 74040000 		.4byte	.LASF10
 1639 008d 04       		.uleb128 0x4
 1640 008e 08       		.byte	0x8
 1641 008f 05       		.byte	0x5
 1642 0090 BA000000 		.4byte	.LASF11
 1643 0094 03       		.uleb128 0x3
 1644 0095 1D000000 		.4byte	.LASF12
ARM GAS  C:\Users\z80\AppData\Local\Temp\ccxNTS1s.s 			page 32


 1645 0099 03       		.byte	0x3
 1646 009a 78       		.byte	0x78
 1647 009b 9F000000 		.4byte	0x9f
 1648 009f 04       		.uleb128 0x4
 1649 00a0 08       		.byte	0x8
 1650 00a1 07       		.byte	0x7
 1651 00a2 48000000 		.4byte	.LASF13
 1652 00a6 03       		.uleb128 0x3
 1653 00a7 D4000000 		.4byte	.LASF14
 1654 00ab 04       		.byte	0x4
 1655 00ac 2E       		.byte	0x2e
 1656 00ad 69000000 		.4byte	0x69
 1657 00b1 03       		.uleb128 0x3
 1658 00b2 6C020000 		.4byte	.LASF15
 1659 00b6 04       		.byte	0x4
 1660 00b7 2F       		.byte	0x2f
 1661 00b8 49000000 		.4byte	0x49
 1662 00bc 03       		.uleb128 0x3
 1663 00bd 42010000 		.4byte	.LASF16
 1664 00c1 04       		.byte	0x4
 1665 00c2 30       		.byte	0x30
 1666 00c3 49000000 		.4byte	0x49
 1667 00c7 03       		.uleb128 0x3
 1668 00c8 9A030000 		.4byte	.LASF17
 1669 00cc 04       		.byte	0x4
 1670 00cd 32       		.byte	0x32
 1671 00ce 7B000000 		.4byte	0x7b
 1672 00d2 03       		.uleb128 0x3
 1673 00d3 54020000 		.4byte	.LASF18
 1674 00d7 04       		.byte	0x4
 1675 00d8 33       		.byte	0x33
 1676 00d9 69000000 		.4byte	0x69
 1677 00dd 03       		.uleb128 0x3
 1678 00de 8A020000 		.4byte	.LASF19
 1679 00e2 04       		.byte	0x4
 1680 00e3 35       		.byte	0x35
 1681 00e4 7B000000 		.4byte	0x7b
 1682 00e8 03       		.uleb128 0x3
 1683 00e9 A6040000 		.4byte	.LASF20
 1684 00ed 04       		.byte	0x4
 1685 00ee 36       		.byte	0x36
 1686 00ef 7B000000 		.4byte	0x7b
 1687 00f3 03       		.uleb128 0x3
 1688 00f4 E4010000 		.4byte	.LASF21
 1689 00f8 04       		.byte	0x4
 1690 00f9 37       		.byte	0x37
 1691 00fa 69000000 		.4byte	0x69
 1692 00fe 03       		.uleb128 0x3
 1693 00ff 30040000 		.4byte	.LASF22
 1694 0103 05       		.byte	0x5
 1695 0104 2A       		.byte	0x2a
 1696 0105 09010000 		.4byte	0x109
 1697 0109 05       		.uleb128 0x5
 1698 010a 30040000 		.4byte	.LASF22
 1699 010e 48       		.byte	0x48
 1700 010f 06       		.byte	0x6
 1701 0110 5E       		.byte	0x5e
ARM GAS  C:\Users\z80\AppData\Local\Temp\ccxNTS1s.s 			page 33


 1702 0111 12020000 		.4byte	0x212
 1703 0115 06       		.uleb128 0x6
 1704 0116 16040000 		.4byte	.LASF23
 1705 011a 06       		.byte	0x6
 1706 011b 5F       		.byte	0x5f
 1707 011c 37020000 		.4byte	0x237
 1708 0120 02       		.byte	0x2
 1709 0121 23       		.byte	0x23
 1710 0122 00       		.uleb128 0
 1711 0123 06       		.uleb128 0x6
 1712 0124 8B030000 		.4byte	.LASF24
 1713 0128 06       		.byte	0x6
 1714 0129 61       		.byte	0x61
 1715 012a 37020000 		.4byte	0x237
 1716 012e 02       		.byte	0x2
 1717 012f 23       		.byte	0x23
 1718 0130 04       		.uleb128 0x4
 1719 0131 06       		.uleb128 0x6
 1720 0132 93000000 		.4byte	.LASF25
 1721 0136 06       		.byte	0x6
 1722 0137 63       		.byte	0x63
 1723 0138 C7000000 		.4byte	0xc7
 1724 013c 02       		.byte	0x2
 1725 013d 23       		.byte	0x23
 1726 013e 08       		.uleb128 0x8
 1727 013f 06       		.uleb128 0x6
 1728 0140 36030000 		.4byte	.LASF26
 1729 0144 06       		.byte	0x6
 1730 0145 64       		.byte	0x64
 1731 0146 0F030000 		.4byte	0x30f
 1732 014a 02       		.byte	0x2
 1733 014b 23       		.byte	0x23
 1734 014c 0C       		.uleb128 0xc
 1735 014d 06       		.uleb128 0x6
 1736 014e 8E010000 		.4byte	.LASF27
 1737 0152 06       		.byte	0x6
 1738 0153 66       		.byte	0x66
 1739 0154 37020000 		.4byte	0x237
 1740 0158 02       		.byte	0x2
 1741 0159 23       		.byte	0x23
 1742 015a 10       		.uleb128 0x10
 1743 015b 06       		.uleb128 0x6
 1744 015c F7030000 		.4byte	.LASF28
 1745 0160 06       		.byte	0x6
 1746 0161 67       		.byte	0x67
 1747 0162 37020000 		.4byte	0x237
 1748 0166 02       		.byte	0x2
 1749 0167 23       		.byte	0x23
 1750 0168 14       		.uleb128 0x14
 1751 0169 06       		.uleb128 0x6
 1752 016a F8040000 		.4byte	.LASF29
 1753 016e 06       		.byte	0x6
 1754 016f 6E       		.byte	0x6e
 1755 0170 F7040000 		.4byte	0x4f7
 1756 0174 02       		.byte	0x2
 1757 0175 23       		.byte	0x23
 1758 0176 18       		.uleb128 0x18
ARM GAS  C:\Users\z80\AppData\Local\Temp\ccxNTS1s.s 			page 34


 1759 0177 06       		.uleb128 0x6
 1760 0178 EA010000 		.4byte	.LASF30
 1761 017c 06       		.byte	0x6
 1762 017d 74       		.byte	0x74
 1763 017e 09050000 		.4byte	0x509
 1764 0182 02       		.byte	0x2
 1765 0183 23       		.byte	0x23
 1766 0184 1C       		.uleb128 0x1c
 1767 0185 06       		.uleb128 0x6
 1768 0186 E7030000 		.4byte	.LASF31
 1769 018a 06       		.byte	0x6
 1770 018b 79       		.byte	0x79
 1771 018c BC000000 		.4byte	0xbc
 1772 0190 02       		.byte	0x2
 1773 0191 23       		.byte	0x23
 1774 0192 20       		.uleb128 0x20
 1775 0193 06       		.uleb128 0x6
 1776 0194 1D040000 		.4byte	.LASF32
 1777 0198 06       		.byte	0x6
 1778 0199 7D       		.byte	0x7d
 1779 019a B1000000 		.4byte	0xb1
 1780 019e 02       		.byte	0x2
 1781 019f 23       		.byte	0x23
 1782 01a0 21       		.uleb128 0x21
 1783 01a1 06       		.uleb128 0x6
 1784 01a2 7B010000 		.4byte	.LASF33
 1785 01a6 06       		.byte	0x6
 1786 01a7 89       		.byte	0x89
 1787 01a8 F4030000 		.4byte	0x3f4
 1788 01ac 02       		.byte	0x2
 1789 01ad 23       		.byte	0x23
 1790 01ae 24       		.uleb128 0x24
 1791 01af 07       		.uleb128 0x7
 1792 01b0 705F7500 		.ascii	"p_u\000"
 1793 01b4 06       		.byte	0x6
 1794 01b5 AE       		.byte	0xae
 1795 01b6 C2040000 		.4byte	0x4c2
 1796 01ba 02       		.byte	0x2
 1797 01bb 23       		.byte	0x23
 1798 01bc 28       		.uleb128 0x28
 1799 01bd 06       		.uleb128 0x6
 1800 01be C6020000 		.4byte	.LASF34
 1801 01c2 06       		.byte	0x6
 1802 01c3 B3       		.byte	0xb3
 1803 01c4 5F020000 		.4byte	0x25f
 1804 01c8 02       		.byte	0x2
 1805 01c9 23       		.byte	0x23
 1806 01ca 2C       		.uleb128 0x2c
 1807 01cb 06       		.uleb128 0x6
 1808 01cc 10020000 		.4byte	.LASF35
 1809 01d0 06       		.byte	0x6
 1810 01d1 B9       		.byte	0xb9
 1811 01d2 3D020000 		.4byte	0x23d
 1812 01d6 02       		.byte	0x2
 1813 01d7 23       		.byte	0x23
 1814 01d8 30       		.uleb128 0x30
 1815 01d9 06       		.uleb128 0x6
ARM GAS  C:\Users\z80\AppData\Local\Temp\ccxNTS1s.s 			page 35


 1816 01da D7040000 		.4byte	.LASF36
 1817 01de 06       		.byte	0x6
 1818 01df BD       		.byte	0xbd
 1819 01e0 D2000000 		.4byte	0xd2
 1820 01e4 02       		.byte	0x2
 1821 01e5 23       		.byte	0x23
 1822 01e6 38       		.uleb128 0x38
 1823 01e7 06       		.uleb128 0x6
 1824 01e8 40040000 		.4byte	.LASF37
 1825 01ec 06       		.byte	0x6
 1826 01ed C3       		.byte	0xc3
 1827 01ee DD000000 		.4byte	0xdd
 1828 01f2 02       		.byte	0x2
 1829 01f3 23       		.byte	0x23
 1830 01f4 3C       		.uleb128 0x3c
 1831 01f5 06       		.uleb128 0x6
 1832 01f6 80020000 		.4byte	.LASF38
 1833 01fa 06       		.byte	0x6
 1834 01fb CA       		.byte	0xca
 1835 01fc 0F050000 		.4byte	0x50f
 1836 0200 02       		.byte	0x2
 1837 0201 23       		.byte	0x23
 1838 0202 40       		.uleb128 0x40
 1839 0203 06       		.uleb128 0x6
 1840 0204 B0040000 		.4byte	.LASF39
 1841 0208 06       		.byte	0x6
 1842 0209 CE       		.byte	0xce
 1843 020a C7000000 		.4byte	0xc7
 1844 020e 02       		.byte	0x2
 1845 020f 23       		.byte	0x23
 1846 0210 44       		.uleb128 0x44
 1847 0211 00       		.byte	0
 1848 0212 08       		.uleb128 0x8
 1849 0213 08       		.byte	0x8
 1850 0214 05       		.byte	0x5
 1851 0215 61       		.byte	0x61
 1852 0216 37020000 		.4byte	0x237
 1853 021a 06       		.uleb128 0x6
 1854 021b 16040000 		.4byte	.LASF23
 1855 021f 05       		.byte	0x5
 1856 0220 62       		.byte	0x62
 1857 0221 37020000 		.4byte	0x237
 1858 0225 02       		.byte	0x2
 1859 0226 23       		.byte	0x23
 1860 0227 00       		.uleb128 0
 1861 0228 06       		.uleb128 0x6
 1862 0229 8B030000 		.4byte	.LASF24
 1863 022d 05       		.byte	0x5
 1864 022e 64       		.byte	0x64
 1865 022f 37020000 		.4byte	0x237
 1866 0233 02       		.byte	0x2
 1867 0234 23       		.byte	0x23
 1868 0235 04       		.uleb128 0x4
 1869 0236 00       		.byte	0
 1870 0237 09       		.uleb128 0x9
 1871 0238 04       		.byte	0x4
 1872 0239 FE000000 		.4byte	0xfe
ARM GAS  C:\Users\z80\AppData\Local\Temp\ccxNTS1s.s 			page 36


 1873 023d 03       		.uleb128 0x3
 1874 023e 29030000 		.4byte	.LASF40
 1875 0242 05       		.byte	0x5
 1876 0243 66       		.byte	0x66
 1877 0244 12020000 		.4byte	0x212
 1878 0248 08       		.uleb128 0x8
 1879 0249 04       		.byte	0x4
 1880 024a 05       		.byte	0x5
 1881 024b 6B       		.byte	0x6b
 1882 024c 5F020000 		.4byte	0x25f
 1883 0250 06       		.uleb128 0x6
 1884 0251 16040000 		.4byte	.LASF23
 1885 0255 05       		.byte	0x5
 1886 0256 6D       		.byte	0x6d
 1887 0257 37020000 		.4byte	0x237
 1888 025b 02       		.byte	0x2
 1889 025c 23       		.byte	0x23
 1890 025d 00       		.uleb128 0
 1891 025e 00       		.byte	0
 1892 025f 03       		.uleb128 0x3
 1893 0260 74020000 		.4byte	.LASF41
 1894 0264 05       		.byte	0x5
 1895 0265 70       		.byte	0x70
 1896 0266 48020000 		.4byte	0x248
 1897 026a 03       		.uleb128 0x3
 1898 026b BD010000 		.4byte	.LASF42
 1899 026f 07       		.byte	0x7
 1900 0270 D7       		.byte	0xd7
 1901 0271 75020000 		.4byte	0x275
 1902 0275 0A       		.uleb128 0xa
 1903 0276 04       		.byte	0x4
 1904 0277 03       		.uleb128 0x3
 1905 0278 9B020000 		.4byte	.LASF43
 1906 027c 07       		.byte	0x7
 1907 027d DD       		.byte	0xdd
 1908 027e 94000000 		.4byte	0x94
 1909 0282 05       		.uleb128 0x5
 1910 0283 DD040000 		.4byte	.LASF44
 1911 0287 24       		.byte	0x24
 1912 0288 07       		.byte	0x7
 1913 0289 FE       		.byte	0xfe
 1914 028a 0F030000 		.4byte	0x30f
 1915 028e 0B       		.uleb128 0xb
 1916 028f 723400   		.ascii	"r4\000"
 1917 0292 07       		.byte	0x7
 1918 0293 1101     		.2byte	0x111
 1919 0295 6A020000 		.4byte	0x26a
 1920 0299 02       		.byte	0x2
 1921 029a 23       		.byte	0x23
 1922 029b 00       		.uleb128 0
 1923 029c 0B       		.uleb128 0xb
 1924 029d 723500   		.ascii	"r5\000"
 1925 02a0 07       		.byte	0x7
 1926 02a1 1201     		.2byte	0x112
 1927 02a3 6A020000 		.4byte	0x26a
 1928 02a7 02       		.byte	0x2
 1929 02a8 23       		.byte	0x23
ARM GAS  C:\Users\z80\AppData\Local\Temp\ccxNTS1s.s 			page 37


 1930 02a9 04       		.uleb128 0x4
 1931 02aa 0B       		.uleb128 0xb
 1932 02ab 723600   		.ascii	"r6\000"
 1933 02ae 07       		.byte	0x7
 1934 02af 1301     		.2byte	0x113
 1935 02b1 6A020000 		.4byte	0x26a
 1936 02b5 02       		.byte	0x2
 1937 02b6 23       		.byte	0x23
 1938 02b7 08       		.uleb128 0x8
 1939 02b8 0B       		.uleb128 0xb
 1940 02b9 723700   		.ascii	"r7\000"
 1941 02bc 07       		.byte	0x7
 1942 02bd 1401     		.2byte	0x114
 1943 02bf 6A020000 		.4byte	0x26a
 1944 02c3 02       		.byte	0x2
 1945 02c4 23       		.byte	0x23
 1946 02c5 0C       		.uleb128 0xc
 1947 02c6 0B       		.uleb128 0xb
 1948 02c7 723800   		.ascii	"r8\000"
 1949 02ca 07       		.byte	0x7
 1950 02cb 1501     		.2byte	0x115
 1951 02cd 6A020000 		.4byte	0x26a
 1952 02d1 02       		.byte	0x2
 1953 02d2 23       		.byte	0x23
 1954 02d3 10       		.uleb128 0x10
 1955 02d4 0B       		.uleb128 0xb
 1956 02d5 723900   		.ascii	"r9\000"
 1957 02d8 07       		.byte	0x7
 1958 02d9 1601     		.2byte	0x116
 1959 02db 6A020000 		.4byte	0x26a
 1960 02df 02       		.byte	0x2
 1961 02e0 23       		.byte	0x23
 1962 02e1 14       		.uleb128 0x14
 1963 02e2 0B       		.uleb128 0xb
 1964 02e3 72313000 		.ascii	"r10\000"
 1965 02e7 07       		.byte	0x7
 1966 02e8 1701     		.2byte	0x117
 1967 02ea 6A020000 		.4byte	0x26a
 1968 02ee 02       		.byte	0x2
 1969 02ef 23       		.byte	0x23
 1970 02f0 18       		.uleb128 0x18
 1971 02f1 0B       		.uleb128 0xb
 1972 02f2 72313100 		.ascii	"r11\000"
 1973 02f6 07       		.byte	0x7
 1974 02f7 1801     		.2byte	0x118
 1975 02f9 6A020000 		.4byte	0x26a
 1976 02fd 02       		.byte	0x2
 1977 02fe 23       		.byte	0x23
 1978 02ff 1C       		.uleb128 0x1c
 1979 0300 0B       		.uleb128 0xb
 1980 0301 6C7200   		.ascii	"lr\000"
 1981 0304 07       		.byte	0x7
 1982 0305 1901     		.2byte	0x119
 1983 0307 6A020000 		.4byte	0x26a
 1984 030b 02       		.byte	0x2
 1985 030c 23       		.byte	0x23
 1986 030d 20       		.uleb128 0x20
ARM GAS  C:\Users\z80\AppData\Local\Temp\ccxNTS1s.s 			page 38


 1987 030e 00       		.byte	0
 1988 030f 0C       		.uleb128 0xc
 1989 0310 CF040000 		.4byte	.LASF45
 1990 0314 04       		.byte	0x4
 1991 0315 07       		.byte	0x7
 1992 0316 2301     		.2byte	0x123
 1993 0318 2C030000 		.4byte	0x32c
 1994 031c 0B       		.uleb128 0xb
 1995 031d 72313300 		.ascii	"r13\000"
 1996 0321 07       		.byte	0x7
 1997 0322 2401     		.2byte	0x124
 1998 0324 2C030000 		.4byte	0x32c
 1999 0328 02       		.byte	0x2
 2000 0329 23       		.byte	0x23
 2001 032a 00       		.uleb128 0
 2002 032b 00       		.byte	0
 2003 032c 09       		.uleb128 0x9
 2004 032d 04       		.byte	0x4
 2005 032e 82020000 		.4byte	0x282
 2006 0332 03       		.uleb128 0x3
 2007 0333 BB040000 		.4byte	.LASF46
 2008 0337 08       		.byte	0x8
 2009 0338 53       		.byte	0x53
 2010 0339 3D030000 		.4byte	0x33d
 2011 033d 09       		.uleb128 0x9
 2012 033e 04       		.byte	0x4
 2013 033f 43030000 		.4byte	0x343
 2014 0343 0D       		.uleb128 0xd
 2015 0344 01       		.byte	0x1
 2016 0345 4F030000 		.4byte	0x34f
 2017 0349 0E       		.uleb128 0xe
 2018 034a 75020000 		.4byte	0x275
 2019 034e 00       		.byte	0
 2020 034f 03       		.uleb128 0x3
 2021 0350 34020000 		.4byte	.LASF47
 2022 0354 08       		.byte	0x8
 2023 0355 58       		.byte	0x58
 2024 0356 5A030000 		.4byte	0x35a
 2025 035a 05       		.uleb128 0x5
 2026 035b 34020000 		.4byte	.LASF47
 2027 035f 14       		.byte	0x14
 2028 0360 08       		.byte	0x8
 2029 0361 5F       		.byte	0x5f
 2030 0362 AD030000 		.4byte	0x3ad
 2031 0366 06       		.uleb128 0x6
 2032 0367 02020000 		.4byte	.LASF48
 2033 036b 08       		.byte	0x8
 2034 036c 60       		.byte	0x60
 2035 036d AD030000 		.4byte	0x3ad
 2036 0371 02       		.byte	0x2
 2037 0372 23       		.byte	0x23
 2038 0373 00       		.uleb128 0
 2039 0374 06       		.uleb128 0x6
 2040 0375 C6010000 		.4byte	.LASF49
 2041 0379 08       		.byte	0x8
 2042 037a 62       		.byte	0x62
 2043 037b AD030000 		.4byte	0x3ad
ARM GAS  C:\Users\z80\AppData\Local\Temp\ccxNTS1s.s 			page 39


 2044 037f 02       		.byte	0x2
 2045 0380 23       		.byte	0x23
 2046 0381 04       		.uleb128 0x4
 2047 0382 06       		.uleb128 0x6
 2048 0383 BE020000 		.4byte	.LASF50
 2049 0387 08       		.byte	0x8
 2050 0388 64       		.byte	0x64
 2051 0389 E8000000 		.4byte	0xe8
 2052 038d 02       		.byte	0x2
 2053 038e 23       		.byte	0x23
 2054 038f 08       		.uleb128 0x8
 2055 0390 06       		.uleb128 0x6
 2056 0391 DB020000 		.4byte	.LASF51
 2057 0395 08       		.byte	0x8
 2058 0396 65       		.byte	0x65
 2059 0397 32030000 		.4byte	0x332
 2060 039b 02       		.byte	0x2
 2061 039c 23       		.byte	0x23
 2062 039d 0C       		.uleb128 0xc
 2063 039e 06       		.uleb128 0x6
 2064 039f E4040000 		.4byte	.LASF52
 2065 03a3 08       		.byte	0x8
 2066 03a4 67       		.byte	0x67
 2067 03a5 75020000 		.4byte	0x275
 2068 03a9 02       		.byte	0x2
 2069 03aa 23       		.byte	0x23
 2070 03ab 10       		.uleb128 0x10
 2071 03ac 00       		.byte	0
 2072 03ad 09       		.uleb128 0x9
 2073 03ae 04       		.byte	0x4
 2074 03af 4F030000 		.4byte	0x34f
 2075 03b3 08       		.uleb128 0x8
 2076 03b4 10       		.byte	0x10
 2077 03b5 08       		.byte	0x8
 2078 03b6 71       		.byte	0x71
 2079 03b7 F4030000 		.4byte	0x3f4
 2080 03bb 06       		.uleb128 0x6
 2081 03bc 02020000 		.4byte	.LASF48
 2082 03c0 08       		.byte	0x8
 2083 03c1 72       		.byte	0x72
 2084 03c2 AD030000 		.4byte	0x3ad
 2085 03c6 02       		.byte	0x2
 2086 03c7 23       		.byte	0x23
 2087 03c8 00       		.uleb128 0
 2088 03c9 06       		.uleb128 0x6
 2089 03ca C6010000 		.4byte	.LASF49
 2090 03ce 08       		.byte	0x8
 2091 03cf 74       		.byte	0x74
 2092 03d0 AD030000 		.4byte	0x3ad
 2093 03d4 02       		.byte	0x2
 2094 03d5 23       		.byte	0x23
 2095 03d6 04       		.uleb128 0x4
 2096 03d7 06       		.uleb128 0x6
 2097 03d8 BE020000 		.4byte	.LASF50
 2098 03dc 08       		.byte	0x8
 2099 03dd 76       		.byte	0x76
 2100 03de E8000000 		.4byte	0xe8
ARM GAS  C:\Users\z80\AppData\Local\Temp\ccxNTS1s.s 			page 40


 2101 03e2 02       		.byte	0x2
 2102 03e3 23       		.byte	0x23
 2103 03e4 08       		.uleb128 0x8
 2104 03e5 06       		.uleb128 0x6
 2105 03e6 58050000 		.4byte	.LASF53
 2106 03ea 08       		.byte	0x8
 2107 03eb 77       		.byte	0x77
 2108 03ec F4030000 		.4byte	0x3f4
 2109 03f0 02       		.byte	0x2
 2110 03f1 23       		.byte	0x23
 2111 03f2 0C       		.uleb128 0xc
 2112 03f3 00       		.byte	0
 2113 03f4 0F       		.uleb128 0xf
 2114 03f5 E8000000 		.4byte	0xe8
 2115 03f9 03       		.uleb128 0x3
 2116 03fa 77050000 		.4byte	.LASF54
 2117 03fe 08       		.byte	0x8
 2118 03ff 78       		.byte	0x78
 2119 0400 B3030000 		.4byte	0x3b3
 2120 0404 08       		.uleb128 0x8
 2121 0405 20       		.byte	0x20
 2122 0406 09       		.byte	0x9
 2123 0407 5E       		.byte	0x5e
 2124 0408 6F040000 		.4byte	0x46f
 2125 040c 06       		.uleb128 0x6
 2126 040d 54040000 		.4byte	.LASF55
 2127 0411 09       		.byte	0x9
 2128 0412 5F       		.byte	0x5f
 2129 0413 3D020000 		.4byte	0x23d
 2130 0417 02       		.byte	0x2
 2131 0418 23       		.byte	0x23
 2132 0419 00       		.uleb128 0
 2133 041a 06       		.uleb128 0x6
 2134 041b B7020000 		.4byte	.LASF56
 2135 041f 09       		.byte	0x9
 2136 0420 60       		.byte	0x60
 2137 0421 C7000000 		.4byte	0xc7
 2138 0425 02       		.byte	0x2
 2139 0426 23       		.byte	0x23
 2140 0427 08       		.uleb128 0x8
 2141 0428 06       		.uleb128 0x6
 2142 0429 23030000 		.4byte	.LASF57
 2143 042d 09       		.byte	0x9
 2144 042e 62       		.byte	0x62
 2145 042f 0F030000 		.4byte	0x30f
 2146 0433 02       		.byte	0x2
 2147 0434 23       		.byte	0x23
 2148 0435 0C       		.uleb128 0xc
 2149 0436 06       		.uleb128 0x6
 2150 0437 B5010000 		.4byte	.LASF58
 2151 043b 09       		.byte	0x9
 2152 043c 65       		.byte	0x65
 2153 043d 37020000 		.4byte	0x237
 2154 0441 02       		.byte	0x2
 2155 0442 23       		.byte	0x23
 2156 0443 10       		.uleb128 0x10
 2157 0444 06       		.uleb128 0x6
ARM GAS  C:\Users\z80\AppData\Local\Temp\ccxNTS1s.s 			page 41


 2158 0445 62030000 		.4byte	.LASF59
 2159 0449 09       		.byte	0x9
 2160 044a 66       		.byte	0x66
 2161 044b 37020000 		.4byte	0x237
 2162 044f 02       		.byte	0x2
 2163 0450 23       		.byte	0x23
 2164 0451 14       		.uleb128 0x14
 2165 0452 06       		.uleb128 0x6
 2166 0453 8A050000 		.4byte	.LASF60
 2167 0457 09       		.byte	0x9
 2168 0458 6A       		.byte	0x6a
 2169 0459 F3000000 		.4byte	0xf3
 2170 045d 02       		.byte	0x2
 2171 045e 23       		.byte	0x23
 2172 045f 18       		.uleb128 0x18
 2173 0460 06       		.uleb128 0x6
 2174 0461 58030000 		.4byte	.LASF61
 2175 0465 09       		.byte	0x9
 2176 0466 6C       		.byte	0x6c
 2177 0467 37020000 		.4byte	0x237
 2178 046b 02       		.byte	0x2
 2179 046c 23       		.byte	0x23
 2180 046d 1C       		.uleb128 0x1c
 2181 046e 00       		.byte	0
 2182 046f 03       		.uleb128 0x3
 2183 0470 FF040000 		.4byte	.LASF62
 2184 0474 09       		.byte	0x9
 2185 0475 6E       		.byte	0x6e
 2186 0476 04040000 		.4byte	0x404
 2187 047a 05       		.uleb128 0x5
 2188 047b E3020000 		.4byte	.LASF63
 2189 047f 10       		.byte	0x10
 2190 0480 0A       		.byte	0xa
 2191 0481 2C       		.byte	0x2c
 2192 0482 B1040000 		.4byte	0x4b1
 2193 0486 06       		.uleb128 0x6
 2194 0487 DB000000 		.4byte	.LASF64
 2195 048b 0A       		.byte	0xa
 2196 048c 2D       		.byte	0x2d
 2197 048d 3D020000 		.4byte	0x23d
 2198 0491 02       		.byte	0x2
 2199 0492 23       		.byte	0x23
 2200 0493 00       		.uleb128 0
 2201 0494 06       		.uleb128 0x6
 2202 0495 94050000 		.4byte	.LASF65
 2203 0499 0A       		.byte	0xa
 2204 049a 2F       		.byte	0x2f
 2205 049b 37020000 		.4byte	0x237
 2206 049f 02       		.byte	0x2
 2207 04a0 23       		.byte	0x23
 2208 04a1 08       		.uleb128 0x8
 2209 04a2 06       		.uleb128 0x6
 2210 04a3 9F040000 		.4byte	.LASF66
 2211 04a7 0A       		.byte	0xa
 2212 04a8 31       		.byte	0x31
 2213 04a9 B1040000 		.4byte	0x4b1
 2214 04ad 02       		.byte	0x2
ARM GAS  C:\Users\z80\AppData\Local\Temp\ccxNTS1s.s 			page 42


 2215 04ae 23       		.byte	0x23
 2216 04af 0C       		.uleb128 0xc
 2217 04b0 00       		.byte	0
 2218 04b1 09       		.uleb128 0x9
 2219 04b2 04       		.byte	0x4
 2220 04b3 7A040000 		.4byte	0x47a
 2221 04b7 03       		.uleb128 0x3
 2222 04b8 E3020000 		.4byte	.LASF63
 2223 04bc 0A       		.byte	0xa
 2224 04bd 33       		.byte	0x33
 2225 04be 7A040000 		.4byte	0x47a
 2226 04c2 10       		.uleb128 0x10
 2227 04c3 04       		.byte	0x4
 2228 04c4 06       		.byte	0x6
 2229 04c5 90       		.byte	0x90
 2230 04c6 F7040000 		.4byte	0x4f7
 2231 04ca 11       		.uleb128 0x11
 2232 04cb 16000000 		.4byte	.LASF67
 2233 04cf 06       		.byte	0x6
 2234 04d0 97       		.byte	0x97
 2235 04d1 D2000000 		.4byte	0xd2
 2236 04d5 11       		.uleb128 0x11
 2237 04d6 78000000 		.4byte	.LASF68
 2238 04da 06       		.byte	0x6
 2239 04db 9E       		.byte	0x9e
 2240 04dc D2000000 		.4byte	0xd2
 2241 04e0 11       		.uleb128 0x11
 2242 04e1 44050000 		.4byte	.LASF69
 2243 04e5 06       		.byte	0x6
 2244 04e6 A5       		.byte	0xa5
 2245 04e7 75020000 		.4byte	0x275
 2246 04eb 11       		.uleb128 0x11
 2247 04ec 0F040000 		.4byte	.LASF70
 2248 04f0 06       		.byte	0x6
 2249 04f1 AC       		.byte	0xac
 2250 04f2 DD000000 		.4byte	0xdd
 2251 04f6 00       		.byte	0
 2252 04f7 09       		.uleb128 0x9
 2253 04f8 04       		.byte	0x4
 2254 04f9 FD040000 		.4byte	0x4fd
 2255 04fd 12       		.uleb128 0x12
 2256 04fe 02050000 		.4byte	0x502
 2257 0502 04       		.uleb128 0x4
 2258 0503 01       		.byte	0x1
 2259 0504 08       		.byte	0x8
 2260 0505 86040000 		.4byte	.LASF71
 2261 0509 09       		.uleb128 0x9
 2262 050a 04       		.byte	0x4
 2263 050b 77020000 		.4byte	0x277
 2264 050f 09       		.uleb128 0x9
 2265 0510 04       		.byte	0x4
 2266 0511 B7040000 		.4byte	0x4b7
 2267 0515 09       		.uleb128 0x9
 2268 0516 04       		.byte	0x4
 2269 0517 49000000 		.4byte	0x49
 2270 051b 13       		.uleb128 0x13
 2271 051c 01       		.byte	0x1
ARM GAS  C:\Users\z80\AppData\Local\Temp\ccxNTS1s.s 			page 43


 2272 051d 30000000 		.4byte	0x30
 2273 0521 35050000 		.4byte	0x535
 2274 0525 0E       		.uleb128 0xe
 2275 0526 75020000 		.4byte	0x275
 2276 052a 0E       		.uleb128 0xe
 2277 052b 35050000 		.4byte	0x535
 2278 052f 0E       		.uleb128 0xe
 2279 0530 30000000 		.4byte	0x30
 2280 0534 00       		.byte	0
 2281 0535 09       		.uleb128 0x9
 2282 0536 04       		.byte	0x4
 2283 0537 3B050000 		.4byte	0x53b
 2284 053b 12       		.uleb128 0x12
 2285 053c 49000000 		.4byte	0x49
 2286 0540 09       		.uleb128 0x9
 2287 0541 04       		.byte	0x4
 2288 0542 1B050000 		.4byte	0x51b
 2289 0546 13       		.uleb128 0x13
 2290 0547 01       		.byte	0x1
 2291 0548 30000000 		.4byte	0x30
 2292 054c 60050000 		.4byte	0x560
 2293 0550 0E       		.uleb128 0xe
 2294 0551 75020000 		.4byte	0x275
 2295 0555 0E       		.uleb128 0xe
 2296 0556 15050000 		.4byte	0x515
 2297 055a 0E       		.uleb128 0xe
 2298 055b 30000000 		.4byte	0x30
 2299 055f 00       		.byte	0
 2300 0560 09       		.uleb128 0x9
 2301 0561 04       		.byte	0x4
 2302 0562 46050000 		.4byte	0x546
 2303 0566 05       		.uleb128 0x5
 2304 0567 5F000000 		.4byte	.LASF72
 2305 056b 20       		.byte	0x20
 2306 056c 0B       		.byte	0xb
 2307 056d 51       		.byte	0x51
 2308 056e E3050000 		.4byte	0x5e3
 2309 0572 06       		.uleb128 0x6
 2310 0573 B1020000 		.4byte	.LASF73
 2311 0577 0B       		.byte	0xb
 2312 0578 52       		.byte	0x52
 2313 0579 40050000 		.4byte	0x540
 2314 057d 02       		.byte	0x2
 2315 057e 23       		.byte	0x23
 2316 057f 00       		.uleb128 0
 2317 0580 06       		.uleb128 0x6
 2318 0581 80030000 		.4byte	.LASF74
 2319 0585 0B       		.byte	0xb
 2320 0586 52       		.byte	0x52
 2321 0587 60050000 		.4byte	0x560
 2322 058b 02       		.byte	0x2
 2323 058c 23       		.byte	0x23
 2324 058d 04       		.uleb128 0x4
 2325 058e 06       		.uleb128 0x6
 2326 058f 96010000 		.4byte	.LASF75
 2327 0593 0B       		.byte	0xb
 2328 0594 52       		.byte	0x52
ARM GAS  C:\Users\z80\AppData\Local\Temp\ccxNTS1s.s 			page 44


 2329 0595 F3050000 		.4byte	0x5f3
 2330 0599 02       		.byte	0x2
 2331 059a 23       		.byte	0x23
 2332 059b 08       		.uleb128 0x8
 2333 059c 06       		.uleb128 0x6
 2334 059d 63050000 		.4byte	.LASF76
 2335 05a1 0B       		.byte	0xb
 2336 05a2 52       		.byte	0x52
 2337 05a3 F3050000 		.4byte	0x5f3
 2338 05a7 02       		.byte	0x2
 2339 05a8 23       		.byte	0x23
 2340 05a9 0C       		.uleb128 0xc
 2341 05aa 07       		.uleb128 0x7
 2342 05ab 70757400 		.ascii	"put\000"
 2343 05af 0B       		.byte	0xb
 2344 05b0 52       		.byte	0x52
 2345 05b1 13060000 		.4byte	0x613
 2346 05b5 02       		.byte	0x2
 2347 05b6 23       		.byte	0x23
 2348 05b7 10       		.uleb128 0x10
 2349 05b8 07       		.uleb128 0x7
 2350 05b9 67657400 		.ascii	"get\000"
 2351 05bd 0B       		.byte	0xb
 2352 05be 52       		.byte	0x52
 2353 05bf 2E060000 		.4byte	0x62e
 2354 05c3 02       		.byte	0x2
 2355 05c4 23       		.byte	0x23
 2356 05c5 14       		.uleb128 0x14
 2357 05c6 06       		.uleb128 0x6
 2358 05c7 5A020000 		.4byte	.LASF77
 2359 05cb 0B       		.byte	0xb
 2360 05cc 52       		.byte	0x52
 2361 05cd 53060000 		.4byte	0x653
 2362 05d1 02       		.byte	0x2
 2363 05d2 23       		.byte	0x23
 2364 05d3 18       		.uleb128 0x18
 2365 05d4 06       		.uleb128 0x6
 2366 05d5 9A000000 		.4byte	.LASF78
 2367 05d9 0B       		.byte	0xb
 2368 05da 52       		.byte	0x52
 2369 05db 78060000 		.4byte	0x678
 2370 05df 02       		.byte	0x2
 2371 05e0 23       		.byte	0x23
 2372 05e1 1C       		.uleb128 0x1c
 2373 05e2 00       		.byte	0
 2374 05e3 13       		.uleb128 0x13
 2375 05e4 01       		.byte	0x1
 2376 05e5 A6000000 		.4byte	0xa6
 2377 05e9 F3050000 		.4byte	0x5f3
 2378 05ed 0E       		.uleb128 0xe
 2379 05ee 75020000 		.4byte	0x275
 2380 05f2 00       		.byte	0
 2381 05f3 09       		.uleb128 0x9
 2382 05f4 04       		.byte	0x4
 2383 05f5 E3050000 		.4byte	0x5e3
 2384 05f9 13       		.uleb128 0x13
 2385 05fa 01       		.byte	0x1
ARM GAS  C:\Users\z80\AppData\Local\Temp\ccxNTS1s.s 			page 45


 2386 05fb D2000000 		.4byte	0xd2
 2387 05ff 13060000 		.4byte	0x613
 2388 0603 0E       		.uleb128 0xe
 2389 0604 75020000 		.4byte	0x275
 2390 0608 0E       		.uleb128 0xe
 2391 0609 49000000 		.4byte	0x49
 2392 060d 0E       		.uleb128 0xe
 2393 060e E8000000 		.4byte	0xe8
 2394 0612 00       		.byte	0
 2395 0613 09       		.uleb128 0x9
 2396 0614 04       		.byte	0x4
 2397 0615 F9050000 		.4byte	0x5f9
 2398 0619 13       		.uleb128 0x13
 2399 061a 01       		.byte	0x1
 2400 061b D2000000 		.4byte	0xd2
 2401 061f 2E060000 		.4byte	0x62e
 2402 0623 0E       		.uleb128 0xe
 2403 0624 75020000 		.4byte	0x275
 2404 0628 0E       		.uleb128 0xe
 2405 0629 E8000000 		.4byte	0xe8
 2406 062d 00       		.byte	0
 2407 062e 09       		.uleb128 0x9
 2408 062f 04       		.byte	0x4
 2409 0630 19060000 		.4byte	0x619
 2410 0634 13       		.uleb128 0x13
 2411 0635 01       		.byte	0x1
 2412 0636 30000000 		.4byte	0x30
 2413 063a 53060000 		.4byte	0x653
 2414 063e 0E       		.uleb128 0xe
 2415 063f 75020000 		.4byte	0x275
 2416 0643 0E       		.uleb128 0xe
 2417 0644 35050000 		.4byte	0x535
 2418 0648 0E       		.uleb128 0xe
 2419 0649 30000000 		.4byte	0x30
 2420 064d 0E       		.uleb128 0xe
 2421 064e E8000000 		.4byte	0xe8
 2422 0652 00       		.byte	0
 2423 0653 09       		.uleb128 0x9
 2424 0654 04       		.byte	0x4
 2425 0655 34060000 		.4byte	0x634
 2426 0659 13       		.uleb128 0x13
 2427 065a 01       		.byte	0x1
 2428 065b 30000000 		.4byte	0x30
 2429 065f 78060000 		.4byte	0x678
 2430 0663 0E       		.uleb128 0xe
 2431 0664 75020000 		.4byte	0x275
 2432 0668 0E       		.uleb128 0xe
 2433 0669 15050000 		.4byte	0x515
 2434 066d 0E       		.uleb128 0xe
 2435 066e 30000000 		.4byte	0x30
 2436 0672 0E       		.uleb128 0xe
 2437 0673 E8000000 		.4byte	0xe8
 2438 0677 00       		.byte	0
 2439 0678 09       		.uleb128 0x9
 2440 0679 04       		.byte	0x4
 2441 067a 59060000 		.4byte	0x659
 2442 067e 08       		.uleb128 0x8
ARM GAS  C:\Users\z80\AppData\Local\Temp\ccxNTS1s.s 			page 46


 2443 067f 04       		.byte	0x4
 2444 0680 0B       		.byte	0xb
 2445 0681 5C       		.byte	0x5c
 2446 0682 95060000 		.4byte	0x695
 2447 0686 07       		.uleb128 0x7
 2448 0687 766D7400 		.ascii	"vmt\000"
 2449 068b 0B       		.byte	0xb
 2450 068c 5E       		.byte	0x5e
 2451 068d 95060000 		.4byte	0x695
 2452 0691 02       		.byte	0x2
 2453 0692 23       		.byte	0x23
 2454 0693 00       		.uleb128 0
 2455 0694 00       		.byte	0
 2456 0695 09       		.uleb128 0x9
 2457 0696 04       		.byte	0x4
 2458 0697 9B060000 		.4byte	0x69b
 2459 069b 12       		.uleb128 0x12
 2460 069c 66050000 		.4byte	0x566
 2461 06a0 03       		.uleb128 0x3
 2462 06a1 7E050000 		.4byte	.LASF79
 2463 06a5 0B       		.byte	0xb
 2464 06a6 60       		.byte	0x60
 2465 06a7 7E060000 		.4byte	0x67e
 2466 06ab 0F       		.uleb128 0xf
 2467 06ac 69000000 		.4byte	0x69
 2468 06b0 05       		.uleb128 0x5
 2469 06b1 37040000 		.4byte	.LASF80
 2470 06b5 10       		.byte	0x10
 2471 06b6 0C       		.byte	0xc
 2472 06b7 46       		.byte	0x46
 2473 06b8 F5060000 		.4byte	0x6f5
 2474 06bc 06       		.uleb128 0x6
 2475 06bd 2F020000 		.4byte	.LASF81
 2476 06c1 0C       		.byte	0xc
 2477 06c2 47       		.byte	0x47
 2478 06c3 F7040000 		.4byte	0x4f7
 2479 06c7 02       		.byte	0x2
 2480 06c8 23       		.byte	0x23
 2481 06c9 00       		.uleb128 0
 2482 06ca 06       		.uleb128 0x6
 2483 06cb 3C030000 		.4byte	.LASF82
 2484 06cf 0C       		.byte	0xc
 2485 06d0 48       		.byte	0x48
 2486 06d1 F7060000 		.4byte	0x6f7
 2487 06d5 02       		.byte	0x2
 2488 06d6 23       		.byte	0x23
 2489 06d7 04       		.uleb128 0x4
 2490 06d8 06       		.uleb128 0x6
 2491 06d9 2E050000 		.4byte	.LASF83
 2492 06dd 0C       		.byte	0xc
 2493 06de 49       		.byte	0x49
 2494 06df F7060000 		.4byte	0x6f7
 2495 06e3 02       		.byte	0x2
 2496 06e4 23       		.byte	0x23
 2497 06e5 08       		.uleb128 0x8
 2498 06e6 06       		.uleb128 0x6
 2499 06e7 92030000 		.4byte	.LASF84
ARM GAS  C:\Users\z80\AppData\Local\Temp\ccxNTS1s.s 			page 47


 2500 06eb 0C       		.byte	0xc
 2501 06ec 4A       		.byte	0x4a
 2502 06ed F7060000 		.4byte	0x6f7
 2503 06f1 02       		.byte	0x2
 2504 06f2 23       		.byte	0x23
 2505 06f3 0C       		.uleb128 0xc
 2506 06f4 00       		.byte	0
 2507 06f5 14       		.uleb128 0x14
 2508 06f6 01       		.byte	0x1
 2509 06f7 09       		.uleb128 0x9
 2510 06f8 04       		.byte	0x4
 2511 06f9 F5060000 		.4byte	0x6f5
 2512 06fd 15       		.uleb128 0x15
 2513 06fe F005     		.2byte	0x5f0
 2514 0700 0C       		.byte	0xc
 2515 0701 4F       		.byte	0x4f
 2516 0702 4C070000 		.4byte	0x74c
 2517 0706 07       		.uleb128 0x7
 2518 0707 543000   		.ascii	"T0\000"
 2519 070a 0C       		.byte	0xc
 2520 070b 50       		.byte	0x50
 2521 070c 4C070000 		.4byte	0x74c
 2522 0710 02       		.byte	0x2
 2523 0711 23       		.byte	0x23
 2524 0712 00       		.uleb128 0
 2525 0713 07       		.uleb128 0x7
 2526 0714 543100   		.ascii	"T1\000"
 2527 0717 0C       		.byte	0xc
 2528 0718 51       		.byte	0x51
 2529 0719 4C070000 		.4byte	0x74c
 2530 071d 03       		.byte	0x3
 2531 071e 23       		.byte	0x23
 2532 071f B002     		.uleb128 0x130
 2533 0721 07       		.uleb128 0x7
 2534 0722 543200   		.ascii	"T2\000"
 2535 0725 0C       		.byte	0xc
 2536 0726 52       		.byte	0x52
 2537 0727 4C070000 		.4byte	0x74c
 2538 072b 03       		.byte	0x3
 2539 072c 23       		.byte	0x23
 2540 072d E004     		.uleb128 0x260
 2541 072f 07       		.uleb128 0x7
 2542 0730 543300   		.ascii	"T3\000"
 2543 0733 0C       		.byte	0xc
 2544 0734 53       		.byte	0x53
 2545 0735 4C070000 		.4byte	0x74c
 2546 0739 03       		.byte	0x3
 2547 073a 23       		.byte	0x23
 2548 073b 9007     		.uleb128 0x390
 2549 073d 07       		.uleb128 0x7
 2550 073e 543400   		.ascii	"T4\000"
 2551 0741 0C       		.byte	0xc
 2552 0742 54       		.byte	0x54
 2553 0743 4C070000 		.4byte	0x74c
 2554 0747 03       		.byte	0x3
 2555 0748 23       		.byte	0x23
 2556 0749 C009     		.uleb128 0x4c0
ARM GAS  C:\Users\z80\AppData\Local\Temp\ccxNTS1s.s 			page 48


 2557 074b 00       		.byte	0
 2558 074c 16       		.uleb128 0x16
 2559 074d 77020000 		.4byte	0x277
 2560 0751 5C070000 		.4byte	0x75c
 2561 0755 17       		.uleb128 0x17
 2562 0756 3B000000 		.4byte	0x3b
 2563 075a 25       		.byte	0x25
 2564 075b 00       		.byte	0
 2565 075c 18       		.uleb128 0x18
 2566 075d EB040000 		.4byte	.LASF135
 2567 0761 F005     		.2byte	0x5f0
 2568 0763 0C       		.byte	0xc
 2569 0764 4E       		.byte	0x4e
 2570 0765 7F070000 		.4byte	0x77f
 2571 0769 19       		.uleb128 0x19
 2572 076a 776100   		.ascii	"wa\000"
 2573 076d 0C       		.byte	0xc
 2574 076e 55       		.byte	0x55
 2575 076f FD060000 		.4byte	0x6fd
 2576 0773 11       		.uleb128 0x11
 2577 0774 87010000 		.4byte	.LASF85
 2578 0778 0C       		.byte	0xc
 2579 0779 56       		.byte	0x56
 2580 077a 7F070000 		.4byte	0x77f
 2581 077e 00       		.byte	0
 2582 077f 16       		.uleb128 0x16
 2583 0780 49000000 		.4byte	0x49
 2584 0784 90070000 		.4byte	0x790
 2585 0788 1A       		.uleb128 0x1a
 2586 0789 3B000000 		.4byte	0x3b
 2587 078d EF05     		.2byte	0x5ef
 2588 078f 00       		.byte	0
 2589 0790 1B       		.uleb128 0x1b
 2590 0791 01       		.byte	0x1
 2591 0792 5C040000 		.4byte	.LASF86
 2592 0796 01       		.byte	0x1
 2593 0797 66       		.byte	0x66
 2594 0798 01       		.byte	0x1
 2595 0799 00000000 		.4byte	.LFB62
 2596 079d C2000000 		.4byte	.LFE62
 2597 07a1 00000000 		.4byte	.LLST0
 2598 07a5 D0070000 		.4byte	0x7d0
 2599 07a9 1C       		.uleb128 0x1c
 2600 07aa 6E00     		.ascii	"n\000"
 2601 07ac 01       		.byte	0x1
 2602 07ad 66       		.byte	0x66
 2603 07ae 7B000000 		.4byte	0x7b
 2604 07b2 02       		.byte	0x2
 2605 07b3 91       		.byte	0x91
 2606 07b4 5C       		.sleb128 -36
 2607 07b5 1D       		.uleb128 0x1d
 2608 07b6 62756600 		.ascii	"buf\000"
 2609 07ba 01       		.byte	0x1
 2610 07bb 67       		.byte	0x67
 2611 07bc D0070000 		.4byte	0x7d0
 2612 07c0 02       		.byte	0x2
 2613 07c1 91       		.byte	0x91
ARM GAS  C:\Users\z80\AppData\Local\Temp\ccxNTS1s.s 			page 49


 2614 07c2 64       		.sleb128 -28
 2615 07c3 1D       		.uleb128 0x1d
 2616 07c4 7000     		.ascii	"p\000"
 2617 07c6 01       		.byte	0x1
 2618 07c7 67       		.byte	0x67
 2619 07c8 E0070000 		.4byte	0x7e0
 2620 07cc 02       		.byte	0x2
 2621 07cd 91       		.byte	0x91
 2622 07ce 74       		.sleb128 -12
 2623 07cf 00       		.byte	0
 2624 07d0 16       		.uleb128 0x16
 2625 07d1 02050000 		.4byte	0x502
 2626 07d5 E0070000 		.4byte	0x7e0
 2627 07d9 17       		.uleb128 0x17
 2628 07da 3B000000 		.4byte	0x3b
 2629 07de 0F       		.byte	0xf
 2630 07df 00       		.byte	0
 2631 07e0 09       		.uleb128 0x9
 2632 07e1 04       		.byte	0x4
 2633 07e2 02050000 		.4byte	0x502
 2634 07e6 1B       		.uleb128 0x1b
 2635 07e7 01       		.byte	0x1
 2636 07e8 A6020000 		.4byte	.LASF87
 2637 07ec 01       		.byte	0x1
 2638 07ed 79       		.byte	0x79
 2639 07ee 01       		.byte	0x1
 2640 07ef 00000000 		.4byte	.LFB63
 2641 07f3 42000000 		.4byte	.LFE63
 2642 07f7 2C000000 		.4byte	.LLST1
 2643 07fb 0E080000 		.4byte	0x80e
 2644 07ff 1E       		.uleb128 0x1e
 2645 0800 96020000 		.4byte	.LASF88
 2646 0804 01       		.byte	0x1
 2647 0805 79       		.byte	0x79
 2648 0806 F7040000 		.4byte	0x4f7
 2649 080a 02       		.byte	0x2
 2650 080b 91       		.byte	0x91
 2651 080c 74       		.sleb128 -12
 2652 080d 00       		.byte	0
 2653 080e 1B       		.uleb128 0x1b
 2654 080f 01       		.byte	0x1
 2655 0810 F3000000 		.4byte	.LASF89
 2656 0814 01       		.byte	0x1
 2657 0815 84       		.byte	0x84
 2658 0816 01       		.byte	0x1
 2659 0817 00000000 		.4byte	.LFB64
 2660 081b 58000000 		.4byte	.LFE64
 2661 081f 58000000 		.4byte	.LLST2
 2662 0823 36080000 		.4byte	0x836
 2663 0827 1E       		.uleb128 0x1e
 2664 0828 96020000 		.4byte	.LASF88
 2665 082c 01       		.byte	0x1
 2666 082d 84       		.byte	0x84
 2667 082e F7040000 		.4byte	0x4f7
 2668 0832 02       		.byte	0x2
 2669 0833 91       		.byte	0x91
 2670 0834 74       		.sleb128 -12
ARM GAS  C:\Users\z80\AppData\Local\Temp\ccxNTS1s.s 			page 50


 2671 0835 00       		.byte	0
 2672 0836 1F       		.uleb128 0x1f
 2673 0837 37050000 		.4byte	.LASF136
 2674 083b 01       		.byte	0x1
 2675 083c 8E       		.byte	0x8e
 2676 083d 01       		.byte	0x1
 2677 083e 00000000 		.4byte	.LFB65
 2678 0842 14000000 		.4byte	.LFE65
 2679 0846 02       		.byte	0x2
 2680 0847 7D       		.byte	0x7d
 2681 0848 00       		.sleb128 0
 2682 0849 20       		.uleb128 0x20
 2683 084a D7010000 		.4byte	.LASF104
 2684 084e 01       		.byte	0x1
 2685 084f 93       		.byte	0x93
 2686 0850 01       		.byte	0x1
 2687 0851 00000000 		.4byte	.LFB66
 2688 0855 52000000 		.4byte	.LFE66
 2689 0859 84000000 		.4byte	.LLST3
 2690 085d 6F080000 		.4byte	0x86f
 2691 0861 1D       		.uleb128 0x1d
 2692 0862 637000   		.ascii	"cp\000"
 2693 0865 01       		.byte	0x1
 2694 0866 94       		.byte	0x94
 2695 0867 E0070000 		.4byte	0x7e0
 2696 086b 02       		.byte	0x2
 2697 086c 91       		.byte	0x91
 2698 086d 74       		.sleb128 -12
 2699 086e 00       		.byte	0
 2700 086f 1B       		.uleb128 0x1b
 2701 0870 01       		.byte	0x1
 2702 0871 E3000000 		.4byte	.LASF90
 2703 0875 01       		.byte	0x1
 2704 0876 9F       		.byte	0x9f
 2705 0877 01       		.byte	0x1
 2706 0878 00000000 		.4byte	.LFB67
 2707 087c 44000000 		.4byte	.LFE67
 2708 0880 B0000000 		.4byte	.LLST4
 2709 0884 C9080000 		.4byte	0x8c9
 2710 0888 1E       		.uleb128 0x1e
 2711 0889 85030000 		.4byte	.LASF91
 2712 088d 01       		.byte	0x1
 2713 088e 9F       		.byte	0x9f
 2714 088f 02050000 		.4byte	0x502
 2715 0893 02       		.byte	0x2
 2716 0894 91       		.byte	0x91
 2717 0895 77       		.sleb128 -9
 2718 0896 21       		.uleb128 0x21
 2719 0897 0A000000 		.4byte	.LBB2
 2720 089b 12000000 		.4byte	.LBE2
 2721 089f B1080000 		.4byte	0x8b1
 2722 08a3 1D       		.uleb128 0x1d
 2723 08a4 746D7000 		.ascii	"tmp\000"
 2724 08a8 01       		.byte	0x1
 2725 08a9 A1       		.byte	0xa1
 2726 08aa 7B000000 		.4byte	0x7b
 2727 08ae 01       		.byte	0x1
ARM GAS  C:\Users\z80\AppData\Local\Temp\ccxNTS1s.s 			page 51


 2728 08af 53       		.byte	0x53
 2729 08b0 00       		.byte	0
 2730 08b1 22       		.uleb128 0x22
 2731 08b2 38000000 		.4byte	.LBB3
 2732 08b6 40000000 		.4byte	.LBE3
 2733 08ba 1D       		.uleb128 0x1d
 2734 08bb 746D7000 		.ascii	"tmp\000"
 2735 08bf 01       		.byte	0x1
 2736 08c0 A3       		.byte	0xa3
 2737 08c1 7B000000 		.4byte	0x7b
 2738 08c5 01       		.byte	0x1
 2739 08c6 53       		.byte	0x53
 2740 08c7 00       		.byte	0
 2741 08c8 00       		.byte	0
 2742 08c9 23       		.uleb128 0x23
 2743 08ca 01       		.byte	0x1
 2744 08cb 61020000 		.4byte	.LASF93
 2745 08cf 01       		.byte	0x1
 2746 08d0 A9       		.byte	0xa9
 2747 08d1 01       		.byte	0x1
 2748 08d2 A6000000 		.4byte	0xa6
 2749 08d6 00000000 		.4byte	.LFB68
 2750 08da 36000000 		.4byte	.LFE68
 2751 08de DC000000 		.4byte	.LLST5
 2752 08e2 F5080000 		.4byte	0x8f5
 2753 08e6 1E       		.uleb128 0x1e
 2754 08e7 0A020000 		.4byte	.LASF92
 2755 08eb 01       		.byte	0x1
 2756 08ec A9       		.byte	0xa9
 2757 08ed 3B000000 		.4byte	0x3b
 2758 08f1 02       		.byte	0x2
 2759 08f2 91       		.byte	0x91
 2760 08f3 7C       		.sleb128 -4
 2761 08f4 00       		.byte	0
 2762 08f5 23       		.uleb128 0x23
 2763 08f6 01       		.byte	0x1
 2764 08f7 4B050000 		.4byte	.LASF94
 2765 08fb 01       		.byte	0x1
 2766 08fc B1       		.byte	0xb1
 2767 08fd 01       		.byte	0x1
 2768 08fe A6000000 		.4byte	0xa6
 2769 0902 00000000 		.4byte	.LFB69
 2770 0906 22000000 		.4byte	.LFE69
 2771 090a FC000000 		.4byte	.LLST6
 2772 090e 2F090000 		.4byte	0x92f
 2773 0912 1E       		.uleb128 0x1e
 2774 0913 0A020000 		.4byte	.LASF92
 2775 0917 01       		.byte	0x1
 2776 0918 B1       		.byte	0xb1
 2777 0919 3B000000 		.4byte	0x3b
 2778 091d 02       		.byte	0x2
 2779 091e 91       		.byte	0x91
 2780 091f 74       		.sleb128 -12
 2781 0920 1E       		.uleb128 0x1e
 2782 0921 6E000000 		.4byte	.LASF95
 2783 0925 01       		.byte	0x1
 2784 0926 B1       		.byte	0xb1
ARM GAS  C:\Users\z80\AppData\Local\Temp\ccxNTS1s.s 			page 52


 2785 0927 A6000000 		.4byte	0xa6
 2786 092b 02       		.byte	0x2
 2787 092c 91       		.byte	0x91
 2788 092d 70       		.sleb128 -16
 2789 092e 00       		.byte	0
 2790 092f 23       		.uleb128 0x23
 2791 0930 01       		.byte	0x1
 2792 0931 42030000 		.4byte	.LASF96
 2793 0935 01       		.byte	0x1
 2794 0936 B8       		.byte	0xb8
 2795 0937 01       		.byte	0x1
 2796 0938 A6000000 		.4byte	0xa6
 2797 093c 00000000 		.4byte	.LFB70
 2798 0940 74000000 		.4byte	.LFE70
 2799 0944 28010000 		.4byte	.LLST7
 2800 0948 76090000 		.4byte	0x976
 2801 094c 1E       		.uleb128 0x1e
 2802 094d 0A020000 		.4byte	.LASF92
 2803 0951 01       		.byte	0x1
 2804 0952 B8       		.byte	0xb8
 2805 0953 3B000000 		.4byte	0x3b
 2806 0957 02       		.byte	0x2
 2807 0958 91       		.byte	0x91
 2808 0959 6C       		.sleb128 -20
 2809 095a 1E       		.uleb128 0x1e
 2810 095b 1B020000 		.4byte	.LASF97
 2811 095f 01       		.byte	0x1
 2812 0960 B8       		.byte	0xb8
 2813 0961 E0070000 		.4byte	0x7e0
 2814 0965 02       		.byte	0x2
 2815 0966 91       		.byte	0x91
 2816 0967 68       		.sleb128 -24
 2817 0968 1D       		.uleb128 0x1d
 2818 0969 637000   		.ascii	"cp\000"
 2819 096c 01       		.byte	0x1
 2820 096d B9       		.byte	0xb9
 2821 096e E0070000 		.4byte	0x7e0
 2822 0972 02       		.byte	0x2
 2823 0973 91       		.byte	0x91
 2824 0974 74       		.sleb128 -12
 2825 0975 00       		.byte	0
 2826 0976 23       		.uleb128 0x23
 2827 0977 01       		.byte	0x1
 2828 0978 4B010000 		.4byte	.LASF98
 2829 097c 01       		.byte	0x1
 2830 097d C4       		.byte	0xc4
 2831 097e 01       		.byte	0x1
 2832 097f A6000000 		.4byte	0xa6
 2833 0983 00000000 		.4byte	.LFB71
 2834 0987 24000000 		.4byte	.LFE71
 2835 098b 54010000 		.4byte	.LLST8
 2836 098f BE090000 		.4byte	0x9be
 2837 0993 1E       		.uleb128 0x1e
 2838 0994 0A020000 		.4byte	.LASF92
 2839 0998 01       		.byte	0x1
 2840 0999 C4       		.byte	0xc4
 2841 099a 3B000000 		.4byte	0x3b
ARM GAS  C:\Users\z80\AppData\Local\Temp\ccxNTS1s.s 			page 53


 2842 099e 02       		.byte	0x2
 2843 099f 91       		.byte	0x91
 2844 09a0 74       		.sleb128 -12
 2845 09a1 1E       		.uleb128 0x1e
 2846 09a2 71050000 		.4byte	.LASF99
 2847 09a6 01       		.byte	0x1
 2848 09a7 C4       		.byte	0xc4
 2849 09a8 E8000000 		.4byte	0xe8
 2850 09ac 02       		.byte	0x2
 2851 09ad 91       		.byte	0x91
 2852 09ae 70       		.sleb128 -16
 2853 09af 1C       		.uleb128 0x1c
 2854 09b0 656E6400 		.ascii	"end\000"
 2855 09b4 01       		.byte	0x1
 2856 09b5 C4       		.byte	0xc4
 2857 09b6 E8000000 		.4byte	0xe8
 2858 09ba 02       		.byte	0x2
 2859 09bb 91       		.byte	0x91
 2860 09bc 6C       		.sleb128 -20
 2861 09bd 00       		.byte	0
 2862 09be 1B       		.uleb128 0x1b
 2863 09bf 01       		.byte	0x1
 2864 09c0 64010000 		.4byte	.LASF100
 2865 09c4 01       		.byte	0x1
 2866 09c5 D0       		.byte	0xd0
 2867 09c6 01       		.byte	0x1
 2868 09c7 00000000 		.4byte	.LFB72
 2869 09cb 44000000 		.4byte	.LFE72
 2870 09cf 80010000 		.4byte	.LLST9
 2871 09d3 E4090000 		.4byte	0x9e4
 2872 09d7 1D       		.uleb128 0x1d
 2873 09d8 6900     		.ascii	"i\000"
 2874 09da 01       		.byte	0x1
 2875 09db D1       		.byte	0xd1
 2876 09dc 29000000 		.4byte	0x29
 2877 09e0 02       		.byte	0x2
 2878 09e1 91       		.byte	0x91
 2879 09e2 74       		.sleb128 -12
 2880 09e3 00       		.byte	0
 2881 09e4 1B       		.uleb128 0x1b
 2882 09e5 01       		.byte	0x1
 2883 09e6 11030000 		.4byte	.LASF101
 2884 09ea 01       		.byte	0x1
 2885 09eb DB       		.byte	0xdb
 2886 09ec 01       		.byte	0x1
 2887 09ed 00000000 		.4byte	.LFB73
 2888 09f1 56000000 		.4byte	.LFE73
 2889 09f5 AC010000 		.4byte	.LLST10
 2890 09f9 0A0A0000 		.4byte	0xa0a
 2891 09fd 1D       		.uleb128 0x1d
 2892 09fe 6900     		.ascii	"i\000"
 2893 0a00 01       		.byte	0x1
 2894 0a01 DC       		.byte	0xdc
 2895 0a02 29000000 		.4byte	0x29
 2896 0a06 02       		.byte	0x2
 2897 0a07 91       		.byte	0x91
 2898 0a08 74       		.sleb128 -12
ARM GAS  C:\Users\z80\AppData\Local\Temp\ccxNTS1s.s 			page 54


 2899 0a09 00       		.byte	0
 2900 0a0a 1B       		.uleb128 0x1b
 2901 0a0b 01       		.byte	0x1
 2902 0a0c 00000000 		.4byte	.LASF102
 2903 0a10 01       		.byte	0x1
 2904 0a11 EC       		.byte	0xec
 2905 0a12 01       		.byte	0x1
 2906 0a13 00000000 		.4byte	.LFB74
 2907 0a17 92000000 		.4byte	.LFE74
 2908 0a1b D8010000 		.4byte	.LLST11
 2909 0a1f 5C0A0000 		.4byte	0xa5c
 2910 0a23 1E       		.uleb128 0x1e
 2911 0a24 CE010000 		.4byte	.LASF103
 2912 0a28 01       		.byte	0x1
 2913 0a29 EC       		.byte	0xec
 2914 0a2a 3B000000 		.4byte	0x3b
 2915 0a2e 02       		.byte	0x2
 2916 0a2f 91       		.byte	0x91
 2917 0a30 6C       		.sleb128 -20
 2918 0a31 24       		.uleb128 0x24
 2919 0a32 71050000 		.4byte	.LASF99
 2920 0a36 01       		.byte	0x1
 2921 0a37 ED       		.byte	0xed
 2922 0a38 E8000000 		.4byte	0xe8
 2923 0a3c 02       		.byte	0x2
 2924 0a3d 91       		.byte	0x91
 2925 0a3e 7C       		.sleb128 -4
 2926 0a3f 1D       		.uleb128 0x1d
 2927 0a40 656E6400 		.ascii	"end\000"
 2928 0a44 01       		.byte	0x1
 2929 0a45 ED       		.byte	0xed
 2930 0a46 E8000000 		.4byte	0xe8
 2931 0a4a 02       		.byte	0x2
 2932 0a4b 91       		.byte	0x91
 2933 0a4c 78       		.sleb128 -8
 2934 0a4d 1D       		.uleb128 0x1d
 2935 0a4e 6E6F7700 		.ascii	"now\000"
 2936 0a52 01       		.byte	0x1
 2937 0a53 ED       		.byte	0xed
 2938 0a54 E8000000 		.4byte	0xe8
 2939 0a58 02       		.byte	0x2
 2940 0a59 91       		.byte	0x91
 2941 0a5a 74       		.sleb128 -12
 2942 0a5b 00       		.byte	0
 2943 0a5c 25       		.uleb128 0x25
 2944 0a5d 01       		.byte	0x1
 2945 0a5e C3030000 		.4byte	.LASF137
 2946 0a62 01       		.byte	0x1
 2947 0a63 0101     		.2byte	0x101
 2948 0a65 01       		.byte	0x1
 2949 0a66 E8000000 		.4byte	0xe8
 2950 0a6a 00000000 		.4byte	.LFB75
 2951 0a6e 18000000 		.4byte	.LFE75
 2952 0a72 F8010000 		.4byte	.LLST12
 2953 0a76 26       		.uleb128 0x26
 2954 0a77 746D7200 		.ascii	"tmr\000"
 2955 0a7b 01       		.byte	0x1
ARM GAS  C:\Users\z80\AppData\Local\Temp\ccxNTS1s.s 			page 55


 2956 0a7c 1101     		.2byte	0x111
 2957 0a7e 01       		.byte	0x1
 2958 0a7f 00000000 		.4byte	.LFB76
 2959 0a83 16000000 		.4byte	.LFE76
 2960 0a87 18020000 		.4byte	.LLST13
 2961 0a8b 9D0A0000 		.4byte	0xa9d
 2962 0a8f 27       		.uleb128 0x27
 2963 0a90 7000     		.ascii	"p\000"
 2964 0a92 01       		.byte	0x1
 2965 0a93 1101     		.2byte	0x111
 2966 0a95 75020000 		.4byte	0x275
 2967 0a99 02       		.byte	0x2
 2968 0a9a 91       		.byte	0x91
 2969 0a9b 7C       		.sleb128 -4
 2970 0a9c 00       		.byte	0
 2971 0a9d 28       		.uleb128 0x28
 2972 0a9e 01       		.byte	0x1
 2973 0a9f A4010000 		.4byte	.LASF105
 2974 0aa3 01       		.byte	0x1
 2975 0aa4 1C01     		.2byte	0x11c
 2976 0aa6 01       		.byte	0x1
 2977 0aa7 00000000 		.4byte	.LFB77
 2978 0aab 6E000000 		.4byte	.LFE77
 2979 0aaf 38020000 		.4byte	.LLST14
 2980 0ab3 090B0000 		.4byte	0xb09
 2981 0ab7 27       		.uleb128 0x27
 2982 0ab8 6D7300   		.ascii	"ms\000"
 2983 0abb 01       		.byte	0x1
 2984 0abc 1C01     		.2byte	0x11c
 2985 0abe 3B000000 		.4byte	0x3b
 2986 0ac2 02       		.byte	0x2
 2987 0ac3 91       		.byte	0x91
 2988 0ac4 6C       		.sleb128 -20
 2989 0ac5 29       		.uleb128 0x29
 2990 0ac6 CE010000 		.4byte	.LASF103
 2991 0aca 01       		.byte	0x1
 2992 0acb 1E01     		.2byte	0x11e
 2993 0acd E8000000 		.4byte	0xe8
 2994 0ad1 02       		.byte	0x2
 2995 0ad2 91       		.byte	0x91
 2996 0ad3 74       		.sleb128 -12
 2997 0ad4 21       		.uleb128 0x21
 2998 0ad5 38000000 		.4byte	.LBB4
 2999 0ad9 40000000 		.4byte	.LBE4
 3000 0add F00A0000 		.4byte	0xaf0
 3001 0ae1 2A       		.uleb128 0x2a
 3002 0ae2 746D7000 		.ascii	"tmp\000"
 3003 0ae6 01       		.byte	0x1
 3004 0ae7 2001     		.2byte	0x120
 3005 0ae9 7B000000 		.4byte	0x7b
 3006 0aed 01       		.byte	0x1
 3007 0aee 53       		.byte	0x53
 3008 0aef 00       		.byte	0
 3009 0af0 22       		.uleb128 0x22
 3010 0af1 62000000 		.4byte	.LBB5
 3011 0af5 6A000000 		.4byte	.LBE5
 3012 0af9 2A       		.uleb128 0x2a
ARM GAS  C:\Users\z80\AppData\Local\Temp\ccxNTS1s.s 			page 56


 3013 0afa 746D7000 		.ascii	"tmp\000"
 3014 0afe 01       		.byte	0x1
 3015 0aff 2201     		.2byte	0x122
 3016 0b01 7B000000 		.4byte	0x7b
 3017 0b05 01       		.byte	0x1
 3018 0b06 53       		.byte	0x53
 3019 0b07 00       		.byte	0
 3020 0b08 00       		.byte	0
 3021 0b09 2B       		.uleb128 0x2b
 3022 0b0a 09050000 		.4byte	.LASF106
 3023 0b0e 01       		.byte	0x1
 3024 0b0f 2801     		.2byte	0x128
 3025 0b11 01       		.byte	0x1
 3026 0b12 00000000 		.4byte	.LFB78
 3027 0b16 6A000000 		.4byte	.LFE78
 3028 0b1a 64020000 		.4byte	.LLST15
 3029 0b1e 3F0B0000 		.4byte	0xb3f
 3030 0b22 27       		.uleb128 0x27
 3031 0b23 74637000 		.ascii	"tcp\000"
 3032 0b27 01       		.byte	0x1
 3033 0b28 2801     		.2byte	0x128
 3034 0b2a 3F0B0000 		.4byte	0xb3f
 3035 0b2e 02       		.byte	0x2
 3036 0b2f 91       		.byte	0x91
 3037 0b30 6C       		.sleb128 -20
 3038 0b31 2A       		.uleb128 0x2a
 3039 0b32 6900     		.ascii	"i\000"
 3040 0b34 01       		.byte	0x1
 3041 0b35 2901     		.2byte	0x129
 3042 0b37 29000000 		.4byte	0x29
 3043 0b3b 02       		.byte	0x2
 3044 0b3c 91       		.byte	0x91
 3045 0b3d 74       		.sleb128 -12
 3046 0b3e 00       		.byte	0
 3047 0b3f 09       		.uleb128 0x9
 3048 0b40 04       		.byte	0x4
 3049 0b41 450B0000 		.4byte	0xb45
 3050 0b45 12       		.uleb128 0x12
 3051 0b46 B0060000 		.4byte	0x6b0
 3052 0b4a 2B       		.uleb128 0x2b
 3053 0b4b 06030000 		.4byte	.LASF107
 3054 0b4f 01       		.byte	0x1
 3055 0b50 3A01     		.2byte	0x13a
 3056 0b52 01       		.byte	0x1
 3057 0b53 00000000 		.4byte	.LFB79
 3058 0b57 8A000000 		.4byte	.LFE79
 3059 0b5b 90020000 		.4byte	.LLST16
 3060 0b5f 710B0000 		.4byte	0xb71
 3061 0b63 2A       		.uleb128 0x2a
 3062 0b64 6900     		.ascii	"i\000"
 3063 0b66 01       		.byte	0x1
 3064 0b67 3B01     		.2byte	0x13b
 3065 0b69 3B000000 		.4byte	0x3b
 3066 0b6d 02       		.byte	0x2
 3067 0b6e 91       		.byte	0x91
 3068 0b6f 74       		.sleb128 -12
 3069 0b70 00       		.byte	0
ARM GAS  C:\Users\z80\AppData\Local\Temp\ccxNTS1s.s 			page 57


 3070 0b71 2C       		.uleb128 0x2c
 3071 0b72 01       		.byte	0x1
 3072 0b73 B8030000 		.4byte	.LASF108
 3073 0b77 01       		.byte	0x1
 3074 0b78 4901     		.2byte	0x149
 3075 0b7a 01       		.byte	0x1
 3076 0b7b D2000000 		.4byte	0xd2
 3077 0b7f 00000000 		.4byte	.LFB80
 3078 0b83 9C020000 		.4byte	.LFE80
 3079 0b87 BC020000 		.4byte	.LLST17
 3080 0b8b B70B0000 		.4byte	0xbb7
 3081 0b8f 27       		.uleb128 0x27
 3082 0b90 7000     		.ascii	"p\000"
 3083 0b92 01       		.byte	0x1
 3084 0b93 4901     		.2byte	0x149
 3085 0b95 75020000 		.4byte	0x275
 3086 0b99 02       		.byte	0x2
 3087 0b9a 91       		.byte	0x91
 3088 0b9b 6C       		.sleb128 -20
 3089 0b9c 2A       		.uleb128 0x2a
 3090 0b9d 6900     		.ascii	"i\000"
 3091 0b9f 01       		.byte	0x1
 3092 0ba0 4A01     		.2byte	0x14a
 3093 0ba2 29000000 		.4byte	0x29
 3094 0ba6 02       		.byte	0x2
 3095 0ba7 91       		.byte	0x91
 3096 0ba8 74       		.sleb128 -12
 3097 0ba9 2A       		.uleb128 0x2a
 3098 0baa 6A00     		.ascii	"j\000"
 3099 0bac 01       		.byte	0x1
 3100 0bad 4A01     		.2byte	0x14a
 3101 0baf 29000000 		.4byte	0x29
 3102 0bb3 02       		.byte	0x2
 3103 0bb4 91       		.byte	0x91
 3104 0bb5 70       		.sleb128 -16
 3105 0bb6 00       		.byte	0
 3106 0bb7 16       		.uleb128 0x16
 3107 0bb8 C70B0000 		.4byte	0xbc7
 3108 0bbc C70B0000 		.4byte	0xbc7
 3109 0bc0 17       		.uleb128 0x17
 3110 0bc1 3B000000 		.4byte	0x3b
 3111 0bc5 0B       		.byte	0xb
 3112 0bc6 00       		.byte	0
 3113 0bc7 09       		.uleb128 0x9
 3114 0bc8 04       		.byte	0x4
 3115 0bc9 CD0B0000 		.4byte	0xbcd
 3116 0bcd 12       		.uleb128 0x12
 3117 0bce 3F0B0000 		.4byte	0xb3f
 3118 0bd2 24       		.uleb128 0x24
 3119 0bd3 8B040000 		.4byte	.LASF109
 3120 0bd7 01       		.byte	0x1
 3121 0bd8 37       		.byte	0x37
 3122 0bd9 B70B0000 		.4byte	0xbb7
 3123 0bdd 05       		.byte	0x5
 3124 0bde 03       		.byte	0x3
 3125 0bdf 00000000 		.4byte	patterns
 3126 0be3 24       		.uleb128 0x24
ARM GAS  C:\Users\z80\AppData\Local\Temp\ccxNTS1s.s 			page 58


 3127 0be4 75030000 		.4byte	.LASF110
 3128 0be8 01       		.byte	0x1
 3129 0be9 46       		.byte	0x46
 3130 0bea A6000000 		.4byte	0xa6
 3131 0bee 05       		.byte	0x5
 3132 0bef 03       		.byte	0x3
 3133 0bf0 00000000 		.4byte	local_fail
 3134 0bf4 24       		.uleb128 0x24
 3135 0bf5 36010000 		.4byte	.LASF111
 3136 0bf9 01       		.byte	0x1
 3137 0bfa 46       		.byte	0x46
 3138 0bfb A6000000 		.4byte	0xa6
 3139 0bff 05       		.byte	0x5
 3140 0c00 03       		.byte	0x3
 3141 0c01 00000000 		.4byte	global_fail
 3142 0c05 24       		.uleb128 0x24
 3143 0c06 24050000 		.4byte	.LASF112
 3144 0c0a 01       		.byte	0x1
 3145 0c0b 47       		.byte	0x47
 3146 0c0c 3B000000 		.4byte	0x3b
 3147 0c10 05       		.byte	0x5
 3148 0c11 03       		.byte	0x3
 3149 0c12 00000000 		.4byte	failpoint
 3150 0c16 24       		.uleb128 0x24
 3151 0c17 AC000000 		.4byte	.LASF113
 3152 0c1b 01       		.byte	0x1
 3153 0c1c 48       		.byte	0x48
 3154 0c1d D0070000 		.4byte	0x7d0
 3155 0c21 05       		.byte	0x5
 3156 0c22 03       		.byte	0x3
 3157 0c23 00000000 		.4byte	tokens_buffer
 3158 0c27 24       		.uleb128 0x24
 3159 0c28 82010000 		.4byte	.LASF114
 3160 0c2c 01       		.byte	0x1
 3161 0c2d 49       		.byte	0x49
 3162 0c2e E0070000 		.4byte	0x7e0
 3163 0c32 05       		.byte	0x5
 3164 0c33 03       		.byte	0x3
 3165 0c34 00000000 		.4byte	tokp
 3166 0c38 1D       		.uleb128 0x1d
 3167 0c39 63687000 		.ascii	"chp\000"
 3168 0c3d 01       		.byte	0x1
 3169 0c3e 5F       		.byte	0x5f
 3170 0c3f 490C0000 		.4byte	0xc49
 3171 0c43 05       		.byte	0x5
 3172 0c44 03       		.byte	0x3
 3173 0c45 00000000 		.4byte	chp
 3174 0c49 09       		.uleb128 0x9
 3175 0c4a 04       		.byte	0x4
 3176 0c4b A0060000 		.4byte	0x6a0
 3177 0c4f 2A       		.uleb128 0x2a
 3178 0c50 767400   		.ascii	"vt\000"
 3179 0c53 01       		.byte	0x1
 3180 0c54 1001     		.2byte	0x110
 3181 0c56 4F030000 		.4byte	0x34f
 3182 0c5a 05       		.byte	0x5
 3183 0c5b 03       		.byte	0x3
ARM GAS  C:\Users\z80\AppData\Local\Temp\ccxNTS1s.s 			page 59


 3184 0c5c 00000000 		.4byte	vt
 3185 0c60 2D       		.uleb128 0x2d
 3186 0c61 26000000 		.4byte	.LASF115
 3187 0c65 08       		.byte	0x8
 3188 0c66 7A       		.byte	0x7a
 3189 0c67 F9030000 		.4byte	0x3f9
 3190 0c6b 01       		.byte	0x1
 3191 0c6c 01       		.byte	0x1
 3192 0c6d 2D       		.uleb128 0x2d
 3193 0c6e 16050000 		.4byte	.LASF116
 3194 0c72 09       		.byte	0x9
 3195 0c73 72       		.byte	0x72
 3196 0c74 6F040000 		.4byte	0x46f
 3197 0c78 01       		.byte	0x1
 3198 0c79 01       		.byte	0x1
 3199 0c7a 2E       		.uleb128 0x2e
 3200 0c7b 86000000 		.4byte	.LASF117
 3201 0c7f 0D       		.byte	0xd
 3202 0c80 9404     		.2byte	0x494
 3203 0c82 AB060000 		.4byte	0x6ab
 3204 0c86 01       		.byte	0x1
 3205 0c87 01       		.byte	0x1
 3206 0c88 16       		.uleb128 0x16
 3207 0c89 37020000 		.4byte	0x237
 3208 0c8d 980C0000 		.4byte	0xc98
 3209 0c91 17       		.uleb128 0x17
 3210 0c92 3B000000 		.4byte	0x3b
 3211 0c96 04       		.byte	0x4
 3212 0c97 00       		.byte	0
 3213 0c98 2F       		.uleb128 0x2f
 3214 0c99 EF030000 		.4byte	.LASF118
 3215 0c9d 01       		.byte	0x1
 3216 0c9e 54       		.byte	0x54
 3217 0c9f 880C0000 		.4byte	0xc88
 3218 0ca3 01       		.byte	0x1
 3219 0ca4 05       		.byte	0x5
 3220 0ca5 03       		.byte	0x3
 3221 0ca6 00000000 		.4byte	threads
 3222 0caa 2F       		.uleb128 0x2f
 3223 0cab 81000000 		.4byte	.LASF119
 3224 0caf 01       		.byte	0x1
 3225 0cb0 4F       		.byte	0x4f
 3226 0cb1 5C070000 		.4byte	0x75c
 3227 0cb5 01       		.byte	0x1
 3228 0cb6 05       		.byte	0x5
 3229 0cb7 03       		.byte	0x3
 3230 0cb8 00000000 		.4byte	test
 3231 0cbc 16       		.uleb128 0x16
 3232 0cbd 75020000 		.4byte	0x275
 3233 0cc1 CC0C0000 		.4byte	0xccc
 3234 0cc5 17       		.uleb128 0x17
 3235 0cc6 3B000000 		.4byte	0x3b
 3236 0cca 04       		.byte	0x4
 3237 0ccb 00       		.byte	0
 3238 0ccc 30       		.uleb128 0x30
 3239 0ccd 776100   		.ascii	"wa\000"
 3240 0cd0 01       		.byte	0x1
ARM GAS  C:\Users\z80\AppData\Local\Temp\ccxNTS1s.s 			page 60


 3241 0cd1 59       		.byte	0x59
 3242 0cd2 DD0C0000 		.4byte	0xcdd
 3243 0cd6 01       		.byte	0x1
 3244 0cd7 05       		.byte	0x5
 3245 0cd8 03       		.byte	0x3
 3246 0cd9 00000000 		.4byte	wa
 3247 0cdd 12       		.uleb128 0x12
 3248 0cde BC0C0000 		.4byte	0xcbc
 3249 0ce2 31       		.uleb128 0x31
 3250 0ce3 FF030000 		.4byte	.LASF120
 3251 0ce7 01       		.byte	0x1
 3252 0ce8 0E01     		.2byte	0x10e
 3253 0cea A6000000 		.4byte	0xa6
 3254 0cee 01       		.byte	0x1
 3255 0cef 05       		.byte	0x5
 3256 0cf0 03       		.byte	0x3
 3257 0cf1 00000000 		.4byte	test_timer_done
 3258 0cf5 16       		.uleb128 0x16
 3259 0cf6 3F0B0000 		.4byte	0xb3f
 3260 0cfa 000D0000 		.4byte	0xd00
 3261 0cfe 32       		.uleb128 0x32
 3262 0cff 00       		.byte	0
 3263 0d00 2D       		.uleb128 0x2d
 3264 0d01 94040000 		.4byte	.LASF121
 3265 0d05 0E       		.byte	0xe
 3266 0d06 1F       		.byte	0x1f
 3267 0d07 0D0D0000 		.4byte	0xd0d
 3268 0d0b 01       		.byte	0x1
 3269 0d0c 01       		.byte	0x1
 3270 0d0d 12       		.uleb128 0x12
 3271 0d0e F50C0000 		.4byte	0xcf5
 3272 0d12 2D       		.uleb128 0x2d
 3273 0d13 6A030000 		.4byte	.LASF122
 3274 0d17 0F       		.byte	0xf
 3275 0d18 1F       		.byte	0x1f
 3276 0d19 1F0D0000 		.4byte	0xd1f
 3277 0d1d 01       		.byte	0x1
 3278 0d1e 01       		.byte	0x1
 3279 0d1f 12       		.uleb128 0x12
 3280 0d20 F50C0000 		.4byte	0xcf5
 3281 0d24 2D       		.uleb128 0x2d
 3282 0d25 D2030000 		.4byte	.LASF123
 3283 0d29 10       		.byte	0x10
 3284 0d2a 1F       		.byte	0x1f
 3285 0d2b 310D0000 		.4byte	0xd31
 3286 0d2f 01       		.byte	0x1
 3287 0d30 01       		.byte	0x1
 3288 0d31 12       		.uleb128 0x12
 3289 0d32 F50C0000 		.4byte	0xcf5
 3290 0d36 2D       		.uleb128 0x2d
 3291 0d37 D0020000 		.4byte	.LASF124
 3292 0d3b 11       		.byte	0x11
 3293 0d3c 1F       		.byte	0x1f
 3294 0d3d 430D0000 		.4byte	0xd43
 3295 0d41 01       		.byte	0x1
 3296 0d42 01       		.byte	0x1
 3297 0d43 12       		.uleb128 0x12
ARM GAS  C:\Users\z80\AppData\Local\Temp\ccxNTS1s.s 			page 61


 3298 0d44 F50C0000 		.4byte	0xcf5
 3299 0d48 2D       		.uleb128 0x2d
 3300 0d49 9C050000 		.4byte	.LASF125
 3301 0d4d 12       		.byte	0x12
 3302 0d4e 1F       		.byte	0x1f
 3303 0d4f 550D0000 		.4byte	0xd55
 3304 0d53 01       		.byte	0x1
 3305 0d54 01       		.byte	0x1
 3306 0d55 12       		.uleb128 0x12
 3307 0d56 F50C0000 		.4byte	0xcf5
 3308 0d5a 2D       		.uleb128 0x2d
 3309 0d5b 24020000 		.4byte	.LASF126
 3310 0d5f 13       		.byte	0x13
 3311 0d60 1F       		.byte	0x1f
 3312 0d61 670D0000 		.4byte	0xd67
 3313 0d65 01       		.byte	0x1
 3314 0d66 01       		.byte	0x1
 3315 0d67 12       		.uleb128 0x12
 3316 0d68 F50C0000 		.4byte	0xcf5
 3317 0d6c 2D       		.uleb128 0x2d
 3318 0d6d A0000000 		.4byte	.LASF127
 3319 0d71 14       		.byte	0x14
 3320 0d72 1F       		.byte	0x1f
 3321 0d73 790D0000 		.4byte	0xd79
 3322 0d77 01       		.byte	0x1
 3323 0d78 01       		.byte	0x1
 3324 0d79 12       		.uleb128 0x12
 3325 0d7a F50C0000 		.4byte	0xcf5
 3326 0d7e 2D       		.uleb128 0x2d
 3327 0d7f 3B000000 		.4byte	.LASF128
 3328 0d83 15       		.byte	0x15
 3329 0d84 1F       		.byte	0x1f
 3330 0d85 8B0D0000 		.4byte	0xd8b
 3331 0d89 01       		.byte	0x1
 3332 0d8a 01       		.byte	0x1
 3333 0d8b 12       		.uleb128 0x12
 3334 0d8c F50C0000 		.4byte	0xcf5
 3335 0d90 2D       		.uleb128 0x2d
 3336 0d91 C4040000 		.4byte	.LASF129
 3337 0d95 16       		.byte	0x16
 3338 0d96 1F       		.byte	0x1f
 3339 0d97 9D0D0000 		.4byte	0xd9d
 3340 0d9b 01       		.byte	0x1
 3341 0d9c 01       		.byte	0x1
 3342 0d9d 12       		.uleb128 0x12
 3343 0d9e F50C0000 		.4byte	0xcf5
 3344 0da2 2D       		.uleb128 0x2d
 3345 0da3 2D000000 		.4byte	.LASF130
 3346 0da7 17       		.byte	0x17
 3347 0da8 1F       		.byte	0x1f
 3348 0da9 AF0D0000 		.4byte	0xdaf
 3349 0dad 01       		.byte	0x1
 3350 0dae 01       		.byte	0x1
 3351 0daf 12       		.uleb128 0x12
 3352 0db0 F50C0000 		.4byte	0xcf5
 3353 0db4 2D       		.uleb128 0x2d
 3354 0db5 25040000 		.4byte	.LASF131
ARM GAS  C:\Users\z80\AppData\Local\Temp\ccxNTS1s.s 			page 62


 3355 0db9 18       		.byte	0x18
 3356 0dba 1F       		.byte	0x1f
 3357 0dbb C10D0000 		.4byte	0xdc1
 3358 0dbf 01       		.byte	0x1
 3359 0dc0 01       		.byte	0x1
 3360 0dc1 12       		.uleb128 0x12
 3361 0dc2 F50C0000 		.4byte	0xcf5
 3362 0dc6 00       		.byte	0
 3363              		.section	.debug_abbrev,"",%progbits
 3364              	.Ldebug_abbrev0:
 3365 0000 01       		.uleb128 0x1
 3366 0001 11       		.uleb128 0x11
 3367 0002 01       		.byte	0x1
 3368 0003 25       		.uleb128 0x25
 3369 0004 0E       		.uleb128 0xe
 3370 0005 13       		.uleb128 0x13
 3371 0006 0B       		.uleb128 0xb
 3372 0007 03       		.uleb128 0x3
 3373 0008 0E       		.uleb128 0xe
 3374 0009 1B       		.uleb128 0x1b
 3375 000a 0E       		.uleb128 0xe
 3376 000b 11       		.uleb128 0x11
 3377 000c 01       		.uleb128 0x1
 3378 000d 52       		.uleb128 0x52
 3379 000e 01       		.uleb128 0x1
 3380 000f 55       		.uleb128 0x55
 3381 0010 06       		.uleb128 0x6
 3382 0011 10       		.uleb128 0x10
 3383 0012 06       		.uleb128 0x6
 3384 0013 00       		.byte	0
 3385 0014 00       		.byte	0
 3386 0015 02       		.uleb128 0x2
 3387 0016 24       		.uleb128 0x24
 3388 0017 00       		.byte	0
 3389 0018 0B       		.uleb128 0xb
 3390 0019 0B       		.uleb128 0xb
 3391 001a 3E       		.uleb128 0x3e
 3392 001b 0B       		.uleb128 0xb
 3393 001c 03       		.uleb128 0x3
 3394 001d 08       		.uleb128 0x8
 3395 001e 00       		.byte	0
 3396 001f 00       		.byte	0
 3397 0020 03       		.uleb128 0x3
 3398 0021 16       		.uleb128 0x16
 3399 0022 00       		.byte	0
 3400 0023 03       		.uleb128 0x3
 3401 0024 0E       		.uleb128 0xe
 3402 0025 3A       		.uleb128 0x3a
 3403 0026 0B       		.uleb128 0xb
 3404 0027 3B       		.uleb128 0x3b
 3405 0028 0B       		.uleb128 0xb
 3406 0029 49       		.uleb128 0x49
 3407 002a 13       		.uleb128 0x13
 3408 002b 00       		.byte	0
 3409 002c 00       		.byte	0
 3410 002d 04       		.uleb128 0x4
 3411 002e 24       		.uleb128 0x24
ARM GAS  C:\Users\z80\AppData\Local\Temp\ccxNTS1s.s 			page 63


 3412 002f 00       		.byte	0
 3413 0030 0B       		.uleb128 0xb
 3414 0031 0B       		.uleb128 0xb
 3415 0032 3E       		.uleb128 0x3e
 3416 0033 0B       		.uleb128 0xb
 3417 0034 03       		.uleb128 0x3
 3418 0035 0E       		.uleb128 0xe
 3419 0036 00       		.byte	0
 3420 0037 00       		.byte	0
 3421 0038 05       		.uleb128 0x5
 3422 0039 13       		.uleb128 0x13
 3423 003a 01       		.byte	0x1
 3424 003b 03       		.uleb128 0x3
 3425 003c 0E       		.uleb128 0xe
 3426 003d 0B       		.uleb128 0xb
 3427 003e 0B       		.uleb128 0xb
 3428 003f 3A       		.uleb128 0x3a
 3429 0040 0B       		.uleb128 0xb
 3430 0041 3B       		.uleb128 0x3b
 3431 0042 0B       		.uleb128 0xb
 3432 0043 01       		.uleb128 0x1
 3433 0044 13       		.uleb128 0x13
 3434 0045 00       		.byte	0
 3435 0046 00       		.byte	0
 3436 0047 06       		.uleb128 0x6
 3437 0048 0D       		.uleb128 0xd
 3438 0049 00       		.byte	0
 3439 004a 03       		.uleb128 0x3
 3440 004b 0E       		.uleb128 0xe
 3441 004c 3A       		.uleb128 0x3a
 3442 004d 0B       		.uleb128 0xb
 3443 004e 3B       		.uleb128 0x3b
 3444 004f 0B       		.uleb128 0xb
 3445 0050 49       		.uleb128 0x49
 3446 0051 13       		.uleb128 0x13
 3447 0052 38       		.uleb128 0x38
 3448 0053 0A       		.uleb128 0xa
 3449 0054 00       		.byte	0
 3450 0055 00       		.byte	0
 3451 0056 07       		.uleb128 0x7
 3452 0057 0D       		.uleb128 0xd
 3453 0058 00       		.byte	0
 3454 0059 03       		.uleb128 0x3
 3455 005a 08       		.uleb128 0x8
 3456 005b 3A       		.uleb128 0x3a
 3457 005c 0B       		.uleb128 0xb
 3458 005d 3B       		.uleb128 0x3b
 3459 005e 0B       		.uleb128 0xb
 3460 005f 49       		.uleb128 0x49
 3461 0060 13       		.uleb128 0x13
 3462 0061 38       		.uleb128 0x38
 3463 0062 0A       		.uleb128 0xa
 3464 0063 00       		.byte	0
 3465 0064 00       		.byte	0
 3466 0065 08       		.uleb128 0x8
 3467 0066 13       		.uleb128 0x13
 3468 0067 01       		.byte	0x1
ARM GAS  C:\Users\z80\AppData\Local\Temp\ccxNTS1s.s 			page 64


 3469 0068 0B       		.uleb128 0xb
 3470 0069 0B       		.uleb128 0xb
 3471 006a 3A       		.uleb128 0x3a
 3472 006b 0B       		.uleb128 0xb
 3473 006c 3B       		.uleb128 0x3b
 3474 006d 0B       		.uleb128 0xb
 3475 006e 01       		.uleb128 0x1
 3476 006f 13       		.uleb128 0x13
 3477 0070 00       		.byte	0
 3478 0071 00       		.byte	0
 3479 0072 09       		.uleb128 0x9
 3480 0073 0F       		.uleb128 0xf
 3481 0074 00       		.byte	0
 3482 0075 0B       		.uleb128 0xb
 3483 0076 0B       		.uleb128 0xb
 3484 0077 49       		.uleb128 0x49
 3485 0078 13       		.uleb128 0x13
 3486 0079 00       		.byte	0
 3487 007a 00       		.byte	0
 3488 007b 0A       		.uleb128 0xa
 3489 007c 0F       		.uleb128 0xf
 3490 007d 00       		.byte	0
 3491 007e 0B       		.uleb128 0xb
 3492 007f 0B       		.uleb128 0xb
 3493 0080 00       		.byte	0
 3494 0081 00       		.byte	0
 3495 0082 0B       		.uleb128 0xb
 3496 0083 0D       		.uleb128 0xd
 3497 0084 00       		.byte	0
 3498 0085 03       		.uleb128 0x3
 3499 0086 08       		.uleb128 0x8
 3500 0087 3A       		.uleb128 0x3a
 3501 0088 0B       		.uleb128 0xb
 3502 0089 3B       		.uleb128 0x3b
 3503 008a 05       		.uleb128 0x5
 3504 008b 49       		.uleb128 0x49
 3505 008c 13       		.uleb128 0x13
 3506 008d 38       		.uleb128 0x38
 3507 008e 0A       		.uleb128 0xa
 3508 008f 00       		.byte	0
 3509 0090 00       		.byte	0
 3510 0091 0C       		.uleb128 0xc
 3511 0092 13       		.uleb128 0x13
 3512 0093 01       		.byte	0x1
 3513 0094 03       		.uleb128 0x3
 3514 0095 0E       		.uleb128 0xe
 3515 0096 0B       		.uleb128 0xb
 3516 0097 0B       		.uleb128 0xb
 3517 0098 3A       		.uleb128 0x3a
 3518 0099 0B       		.uleb128 0xb
 3519 009a 3B       		.uleb128 0x3b
 3520 009b 05       		.uleb128 0x5
 3521 009c 01       		.uleb128 0x1
 3522 009d 13       		.uleb128 0x13
 3523 009e 00       		.byte	0
 3524 009f 00       		.byte	0
 3525 00a0 0D       		.uleb128 0xd
ARM GAS  C:\Users\z80\AppData\Local\Temp\ccxNTS1s.s 			page 65


 3526 00a1 15       		.uleb128 0x15
 3527 00a2 01       		.byte	0x1
 3528 00a3 27       		.uleb128 0x27
 3529 00a4 0C       		.uleb128 0xc
 3530 00a5 01       		.uleb128 0x1
 3531 00a6 13       		.uleb128 0x13
 3532 00a7 00       		.byte	0
 3533 00a8 00       		.byte	0
 3534 00a9 0E       		.uleb128 0xe
 3535 00aa 05       		.uleb128 0x5
 3536 00ab 00       		.byte	0
 3537 00ac 49       		.uleb128 0x49
 3538 00ad 13       		.uleb128 0x13
 3539 00ae 00       		.byte	0
 3540 00af 00       		.byte	0
 3541 00b0 0F       		.uleb128 0xf
 3542 00b1 35       		.uleb128 0x35
 3543 00b2 00       		.byte	0
 3544 00b3 49       		.uleb128 0x49
 3545 00b4 13       		.uleb128 0x13
 3546 00b5 00       		.byte	0
 3547 00b6 00       		.byte	0
 3548 00b7 10       		.uleb128 0x10
 3549 00b8 17       		.uleb128 0x17
 3550 00b9 01       		.byte	0x1
 3551 00ba 0B       		.uleb128 0xb
 3552 00bb 0B       		.uleb128 0xb
 3553 00bc 3A       		.uleb128 0x3a
 3554 00bd 0B       		.uleb128 0xb
 3555 00be 3B       		.uleb128 0x3b
 3556 00bf 0B       		.uleb128 0xb
 3557 00c0 01       		.uleb128 0x1
 3558 00c1 13       		.uleb128 0x13
 3559 00c2 00       		.byte	0
 3560 00c3 00       		.byte	0
 3561 00c4 11       		.uleb128 0x11
 3562 00c5 0D       		.uleb128 0xd
 3563 00c6 00       		.byte	0
 3564 00c7 03       		.uleb128 0x3
 3565 00c8 0E       		.uleb128 0xe
 3566 00c9 3A       		.uleb128 0x3a
 3567 00ca 0B       		.uleb128 0xb
 3568 00cb 3B       		.uleb128 0x3b
 3569 00cc 0B       		.uleb128 0xb
 3570 00cd 49       		.uleb128 0x49
 3571 00ce 13       		.uleb128 0x13
 3572 00cf 00       		.byte	0
 3573 00d0 00       		.byte	0
 3574 00d1 12       		.uleb128 0x12
 3575 00d2 26       		.uleb128 0x26
 3576 00d3 00       		.byte	0
 3577 00d4 49       		.uleb128 0x49
 3578 00d5 13       		.uleb128 0x13
 3579 00d6 00       		.byte	0
 3580 00d7 00       		.byte	0
 3581 00d8 13       		.uleb128 0x13
 3582 00d9 15       		.uleb128 0x15
ARM GAS  C:\Users\z80\AppData\Local\Temp\ccxNTS1s.s 			page 66


 3583 00da 01       		.byte	0x1
 3584 00db 27       		.uleb128 0x27
 3585 00dc 0C       		.uleb128 0xc
 3586 00dd 49       		.uleb128 0x49
 3587 00de 13       		.uleb128 0x13
 3588 00df 01       		.uleb128 0x1
 3589 00e0 13       		.uleb128 0x13
 3590 00e1 00       		.byte	0
 3591 00e2 00       		.byte	0
 3592 00e3 14       		.uleb128 0x14
 3593 00e4 15       		.uleb128 0x15
 3594 00e5 00       		.byte	0
 3595 00e6 27       		.uleb128 0x27
 3596 00e7 0C       		.uleb128 0xc
 3597 00e8 00       		.byte	0
 3598 00e9 00       		.byte	0
 3599 00ea 15       		.uleb128 0x15
 3600 00eb 13       		.uleb128 0x13
 3601 00ec 01       		.byte	0x1
 3602 00ed 0B       		.uleb128 0xb
 3603 00ee 05       		.uleb128 0x5
 3604 00ef 3A       		.uleb128 0x3a
 3605 00f0 0B       		.uleb128 0xb
 3606 00f1 3B       		.uleb128 0x3b
 3607 00f2 0B       		.uleb128 0xb
 3608 00f3 01       		.uleb128 0x1
 3609 00f4 13       		.uleb128 0x13
 3610 00f5 00       		.byte	0
 3611 00f6 00       		.byte	0
 3612 00f7 16       		.uleb128 0x16
 3613 00f8 01       		.uleb128 0x1
 3614 00f9 01       		.byte	0x1
 3615 00fa 49       		.uleb128 0x49
 3616 00fb 13       		.uleb128 0x13
 3617 00fc 01       		.uleb128 0x1
 3618 00fd 13       		.uleb128 0x13
 3619 00fe 00       		.byte	0
 3620 00ff 00       		.byte	0
 3621 0100 17       		.uleb128 0x17
 3622 0101 21       		.uleb128 0x21
 3623 0102 00       		.byte	0
 3624 0103 49       		.uleb128 0x49
 3625 0104 13       		.uleb128 0x13
 3626 0105 2F       		.uleb128 0x2f
 3627 0106 0B       		.uleb128 0xb
 3628 0107 00       		.byte	0
 3629 0108 00       		.byte	0
 3630 0109 18       		.uleb128 0x18
 3631 010a 17       		.uleb128 0x17
 3632 010b 01       		.byte	0x1
 3633 010c 03       		.uleb128 0x3
 3634 010d 0E       		.uleb128 0xe
 3635 010e 0B       		.uleb128 0xb
 3636 010f 05       		.uleb128 0x5
 3637 0110 3A       		.uleb128 0x3a
 3638 0111 0B       		.uleb128 0xb
 3639 0112 3B       		.uleb128 0x3b
ARM GAS  C:\Users\z80\AppData\Local\Temp\ccxNTS1s.s 			page 67


 3640 0113 0B       		.uleb128 0xb
 3641 0114 01       		.uleb128 0x1
 3642 0115 13       		.uleb128 0x13
 3643 0116 00       		.byte	0
 3644 0117 00       		.byte	0
 3645 0118 19       		.uleb128 0x19
 3646 0119 0D       		.uleb128 0xd
 3647 011a 00       		.byte	0
 3648 011b 03       		.uleb128 0x3
 3649 011c 08       		.uleb128 0x8
 3650 011d 3A       		.uleb128 0x3a
 3651 011e 0B       		.uleb128 0xb
 3652 011f 3B       		.uleb128 0x3b
 3653 0120 0B       		.uleb128 0xb
 3654 0121 49       		.uleb128 0x49
 3655 0122 13       		.uleb128 0x13
 3656 0123 00       		.byte	0
 3657 0124 00       		.byte	0
 3658 0125 1A       		.uleb128 0x1a
 3659 0126 21       		.uleb128 0x21
 3660 0127 00       		.byte	0
 3661 0128 49       		.uleb128 0x49
 3662 0129 13       		.uleb128 0x13
 3663 012a 2F       		.uleb128 0x2f
 3664 012b 05       		.uleb128 0x5
 3665 012c 00       		.byte	0
 3666 012d 00       		.byte	0
 3667 012e 1B       		.uleb128 0x1b
 3668 012f 2E       		.uleb128 0x2e
 3669 0130 01       		.byte	0x1
 3670 0131 3F       		.uleb128 0x3f
 3671 0132 0C       		.uleb128 0xc
 3672 0133 03       		.uleb128 0x3
 3673 0134 0E       		.uleb128 0xe
 3674 0135 3A       		.uleb128 0x3a
 3675 0136 0B       		.uleb128 0xb
 3676 0137 3B       		.uleb128 0x3b
 3677 0138 0B       		.uleb128 0xb
 3678 0139 27       		.uleb128 0x27
 3679 013a 0C       		.uleb128 0xc
 3680 013b 11       		.uleb128 0x11
 3681 013c 01       		.uleb128 0x1
 3682 013d 12       		.uleb128 0x12
 3683 013e 01       		.uleb128 0x1
 3684 013f 40       		.uleb128 0x40
 3685 0140 06       		.uleb128 0x6
 3686 0141 01       		.uleb128 0x1
 3687 0142 13       		.uleb128 0x13
 3688 0143 00       		.byte	0
 3689 0144 00       		.byte	0
 3690 0145 1C       		.uleb128 0x1c
 3691 0146 05       		.uleb128 0x5
 3692 0147 00       		.byte	0
 3693 0148 03       		.uleb128 0x3
 3694 0149 08       		.uleb128 0x8
 3695 014a 3A       		.uleb128 0x3a
 3696 014b 0B       		.uleb128 0xb
ARM GAS  C:\Users\z80\AppData\Local\Temp\ccxNTS1s.s 			page 68


 3697 014c 3B       		.uleb128 0x3b
 3698 014d 0B       		.uleb128 0xb
 3699 014e 49       		.uleb128 0x49
 3700 014f 13       		.uleb128 0x13
 3701 0150 02       		.uleb128 0x2
 3702 0151 0A       		.uleb128 0xa
 3703 0152 00       		.byte	0
 3704 0153 00       		.byte	0
 3705 0154 1D       		.uleb128 0x1d
 3706 0155 34       		.uleb128 0x34
 3707 0156 00       		.byte	0
 3708 0157 03       		.uleb128 0x3
 3709 0158 08       		.uleb128 0x8
 3710 0159 3A       		.uleb128 0x3a
 3711 015a 0B       		.uleb128 0xb
 3712 015b 3B       		.uleb128 0x3b
 3713 015c 0B       		.uleb128 0xb
 3714 015d 49       		.uleb128 0x49
 3715 015e 13       		.uleb128 0x13
 3716 015f 02       		.uleb128 0x2
 3717 0160 0A       		.uleb128 0xa
 3718 0161 00       		.byte	0
 3719 0162 00       		.byte	0
 3720 0163 1E       		.uleb128 0x1e
 3721 0164 05       		.uleb128 0x5
 3722 0165 00       		.byte	0
 3723 0166 03       		.uleb128 0x3
 3724 0167 0E       		.uleb128 0xe
 3725 0168 3A       		.uleb128 0x3a
 3726 0169 0B       		.uleb128 0xb
 3727 016a 3B       		.uleb128 0x3b
 3728 016b 0B       		.uleb128 0xb
 3729 016c 49       		.uleb128 0x49
 3730 016d 13       		.uleb128 0x13
 3731 016e 02       		.uleb128 0x2
 3732 016f 0A       		.uleb128 0xa
 3733 0170 00       		.byte	0
 3734 0171 00       		.byte	0
 3735 0172 1F       		.uleb128 0x1f
 3736 0173 2E       		.uleb128 0x2e
 3737 0174 00       		.byte	0
 3738 0175 03       		.uleb128 0x3
 3739 0176 0E       		.uleb128 0xe
 3740 0177 3A       		.uleb128 0x3a
 3741 0178 0B       		.uleb128 0xb
 3742 0179 3B       		.uleb128 0x3b
 3743 017a 0B       		.uleb128 0xb
 3744 017b 27       		.uleb128 0x27
 3745 017c 0C       		.uleb128 0xc
 3746 017d 11       		.uleb128 0x11
 3747 017e 01       		.uleb128 0x1
 3748 017f 12       		.uleb128 0x12
 3749 0180 01       		.uleb128 0x1
 3750 0181 40       		.uleb128 0x40
 3751 0182 0A       		.uleb128 0xa
 3752 0183 00       		.byte	0
 3753 0184 00       		.byte	0
ARM GAS  C:\Users\z80\AppData\Local\Temp\ccxNTS1s.s 			page 69


 3754 0185 20       		.uleb128 0x20
 3755 0186 2E       		.uleb128 0x2e
 3756 0187 01       		.byte	0x1
 3757 0188 03       		.uleb128 0x3
 3758 0189 0E       		.uleb128 0xe
 3759 018a 3A       		.uleb128 0x3a
 3760 018b 0B       		.uleb128 0xb
 3761 018c 3B       		.uleb128 0x3b
 3762 018d 0B       		.uleb128 0xb
 3763 018e 27       		.uleb128 0x27
 3764 018f 0C       		.uleb128 0xc
 3765 0190 11       		.uleb128 0x11
 3766 0191 01       		.uleb128 0x1
 3767 0192 12       		.uleb128 0x12
 3768 0193 01       		.uleb128 0x1
 3769 0194 40       		.uleb128 0x40
 3770 0195 06       		.uleb128 0x6
 3771 0196 01       		.uleb128 0x1
 3772 0197 13       		.uleb128 0x13
 3773 0198 00       		.byte	0
 3774 0199 00       		.byte	0
 3775 019a 21       		.uleb128 0x21
 3776 019b 0B       		.uleb128 0xb
 3777 019c 01       		.byte	0x1
 3778 019d 11       		.uleb128 0x11
 3779 019e 01       		.uleb128 0x1
 3780 019f 12       		.uleb128 0x12
 3781 01a0 01       		.uleb128 0x1
 3782 01a1 01       		.uleb128 0x1
 3783 01a2 13       		.uleb128 0x13
 3784 01a3 00       		.byte	0
 3785 01a4 00       		.byte	0
 3786 01a5 22       		.uleb128 0x22
 3787 01a6 0B       		.uleb128 0xb
 3788 01a7 01       		.byte	0x1
 3789 01a8 11       		.uleb128 0x11
 3790 01a9 01       		.uleb128 0x1
 3791 01aa 12       		.uleb128 0x12
 3792 01ab 01       		.uleb128 0x1
 3793 01ac 00       		.byte	0
 3794 01ad 00       		.byte	0
 3795 01ae 23       		.uleb128 0x23
 3796 01af 2E       		.uleb128 0x2e
 3797 01b0 01       		.byte	0x1
 3798 01b1 3F       		.uleb128 0x3f
 3799 01b2 0C       		.uleb128 0xc
 3800 01b3 03       		.uleb128 0x3
 3801 01b4 0E       		.uleb128 0xe
 3802 01b5 3A       		.uleb128 0x3a
 3803 01b6 0B       		.uleb128 0xb
 3804 01b7 3B       		.uleb128 0x3b
 3805 01b8 0B       		.uleb128 0xb
 3806 01b9 27       		.uleb128 0x27
 3807 01ba 0C       		.uleb128 0xc
 3808 01bb 49       		.uleb128 0x49
 3809 01bc 13       		.uleb128 0x13
 3810 01bd 11       		.uleb128 0x11
ARM GAS  C:\Users\z80\AppData\Local\Temp\ccxNTS1s.s 			page 70


 3811 01be 01       		.uleb128 0x1
 3812 01bf 12       		.uleb128 0x12
 3813 01c0 01       		.uleb128 0x1
 3814 01c1 40       		.uleb128 0x40
 3815 01c2 06       		.uleb128 0x6
 3816 01c3 01       		.uleb128 0x1
 3817 01c4 13       		.uleb128 0x13
 3818 01c5 00       		.byte	0
 3819 01c6 00       		.byte	0
 3820 01c7 24       		.uleb128 0x24
 3821 01c8 34       		.uleb128 0x34
 3822 01c9 00       		.byte	0
 3823 01ca 03       		.uleb128 0x3
 3824 01cb 0E       		.uleb128 0xe
 3825 01cc 3A       		.uleb128 0x3a
 3826 01cd 0B       		.uleb128 0xb
 3827 01ce 3B       		.uleb128 0x3b
 3828 01cf 0B       		.uleb128 0xb
 3829 01d0 49       		.uleb128 0x49
 3830 01d1 13       		.uleb128 0x13
 3831 01d2 02       		.uleb128 0x2
 3832 01d3 0A       		.uleb128 0xa
 3833 01d4 00       		.byte	0
 3834 01d5 00       		.byte	0
 3835 01d6 25       		.uleb128 0x25
 3836 01d7 2E       		.uleb128 0x2e
 3837 01d8 00       		.byte	0
 3838 01d9 3F       		.uleb128 0x3f
 3839 01da 0C       		.uleb128 0xc
 3840 01db 03       		.uleb128 0x3
 3841 01dc 0E       		.uleb128 0xe
 3842 01dd 3A       		.uleb128 0x3a
 3843 01de 0B       		.uleb128 0xb
 3844 01df 3B       		.uleb128 0x3b
 3845 01e0 05       		.uleb128 0x5
 3846 01e1 27       		.uleb128 0x27
 3847 01e2 0C       		.uleb128 0xc
 3848 01e3 49       		.uleb128 0x49
 3849 01e4 13       		.uleb128 0x13
 3850 01e5 11       		.uleb128 0x11
 3851 01e6 01       		.uleb128 0x1
 3852 01e7 12       		.uleb128 0x12
 3853 01e8 01       		.uleb128 0x1
 3854 01e9 40       		.uleb128 0x40
 3855 01ea 06       		.uleb128 0x6
 3856 01eb 00       		.byte	0
 3857 01ec 00       		.byte	0
 3858 01ed 26       		.uleb128 0x26
 3859 01ee 2E       		.uleb128 0x2e
 3860 01ef 01       		.byte	0x1
 3861 01f0 03       		.uleb128 0x3
 3862 01f1 08       		.uleb128 0x8
 3863 01f2 3A       		.uleb128 0x3a
 3864 01f3 0B       		.uleb128 0xb
 3865 01f4 3B       		.uleb128 0x3b
 3866 01f5 05       		.uleb128 0x5
 3867 01f6 27       		.uleb128 0x27
ARM GAS  C:\Users\z80\AppData\Local\Temp\ccxNTS1s.s 			page 71


 3868 01f7 0C       		.uleb128 0xc
 3869 01f8 11       		.uleb128 0x11
 3870 01f9 01       		.uleb128 0x1
 3871 01fa 12       		.uleb128 0x12
 3872 01fb 01       		.uleb128 0x1
 3873 01fc 40       		.uleb128 0x40
 3874 01fd 06       		.uleb128 0x6
 3875 01fe 01       		.uleb128 0x1
 3876 01ff 13       		.uleb128 0x13
 3877 0200 00       		.byte	0
 3878 0201 00       		.byte	0
 3879 0202 27       		.uleb128 0x27
 3880 0203 05       		.uleb128 0x5
 3881 0204 00       		.byte	0
 3882 0205 03       		.uleb128 0x3
 3883 0206 08       		.uleb128 0x8
 3884 0207 3A       		.uleb128 0x3a
 3885 0208 0B       		.uleb128 0xb
 3886 0209 3B       		.uleb128 0x3b
 3887 020a 05       		.uleb128 0x5
 3888 020b 49       		.uleb128 0x49
 3889 020c 13       		.uleb128 0x13
 3890 020d 02       		.uleb128 0x2
 3891 020e 0A       		.uleb128 0xa
 3892 020f 00       		.byte	0
 3893 0210 00       		.byte	0
 3894 0211 28       		.uleb128 0x28
 3895 0212 2E       		.uleb128 0x2e
 3896 0213 01       		.byte	0x1
 3897 0214 3F       		.uleb128 0x3f
 3898 0215 0C       		.uleb128 0xc
 3899 0216 03       		.uleb128 0x3
 3900 0217 0E       		.uleb128 0xe
 3901 0218 3A       		.uleb128 0x3a
 3902 0219 0B       		.uleb128 0xb
 3903 021a 3B       		.uleb128 0x3b
 3904 021b 05       		.uleb128 0x5
 3905 021c 27       		.uleb128 0x27
 3906 021d 0C       		.uleb128 0xc
 3907 021e 11       		.uleb128 0x11
 3908 021f 01       		.uleb128 0x1
 3909 0220 12       		.uleb128 0x12
 3910 0221 01       		.uleb128 0x1
 3911 0222 40       		.uleb128 0x40
 3912 0223 06       		.uleb128 0x6
 3913 0224 01       		.uleb128 0x1
 3914 0225 13       		.uleb128 0x13
 3915 0226 00       		.byte	0
 3916 0227 00       		.byte	0
 3917 0228 29       		.uleb128 0x29
 3918 0229 34       		.uleb128 0x34
 3919 022a 00       		.byte	0
 3920 022b 03       		.uleb128 0x3
 3921 022c 0E       		.uleb128 0xe
 3922 022d 3A       		.uleb128 0x3a
 3923 022e 0B       		.uleb128 0xb
 3924 022f 3B       		.uleb128 0x3b
ARM GAS  C:\Users\z80\AppData\Local\Temp\ccxNTS1s.s 			page 72


 3925 0230 05       		.uleb128 0x5
 3926 0231 49       		.uleb128 0x49
 3927 0232 13       		.uleb128 0x13
 3928 0233 02       		.uleb128 0x2
 3929 0234 0A       		.uleb128 0xa
 3930 0235 00       		.byte	0
 3931 0236 00       		.byte	0
 3932 0237 2A       		.uleb128 0x2a
 3933 0238 34       		.uleb128 0x34
 3934 0239 00       		.byte	0
 3935 023a 03       		.uleb128 0x3
 3936 023b 08       		.uleb128 0x8
 3937 023c 3A       		.uleb128 0x3a
 3938 023d 0B       		.uleb128 0xb
 3939 023e 3B       		.uleb128 0x3b
 3940 023f 05       		.uleb128 0x5
 3941 0240 49       		.uleb128 0x49
 3942 0241 13       		.uleb128 0x13
 3943 0242 02       		.uleb128 0x2
 3944 0243 0A       		.uleb128 0xa
 3945 0244 00       		.byte	0
 3946 0245 00       		.byte	0
 3947 0246 2B       		.uleb128 0x2b
 3948 0247 2E       		.uleb128 0x2e
 3949 0248 01       		.byte	0x1
 3950 0249 03       		.uleb128 0x3
 3951 024a 0E       		.uleb128 0xe
 3952 024b 3A       		.uleb128 0x3a
 3953 024c 0B       		.uleb128 0xb
 3954 024d 3B       		.uleb128 0x3b
 3955 024e 05       		.uleb128 0x5
 3956 024f 27       		.uleb128 0x27
 3957 0250 0C       		.uleb128 0xc
 3958 0251 11       		.uleb128 0x11
 3959 0252 01       		.uleb128 0x1
 3960 0253 12       		.uleb128 0x12
 3961 0254 01       		.uleb128 0x1
 3962 0255 40       		.uleb128 0x40
 3963 0256 06       		.uleb128 0x6
 3964 0257 01       		.uleb128 0x1
 3965 0258 13       		.uleb128 0x13
 3966 0259 00       		.byte	0
 3967 025a 00       		.byte	0
 3968 025b 2C       		.uleb128 0x2c
 3969 025c 2E       		.uleb128 0x2e
 3970 025d 01       		.byte	0x1
 3971 025e 3F       		.uleb128 0x3f
 3972 025f 0C       		.uleb128 0xc
 3973 0260 03       		.uleb128 0x3
 3974 0261 0E       		.uleb128 0xe
 3975 0262 3A       		.uleb128 0x3a
 3976 0263 0B       		.uleb128 0xb
 3977 0264 3B       		.uleb128 0x3b
 3978 0265 05       		.uleb128 0x5
 3979 0266 27       		.uleb128 0x27
 3980 0267 0C       		.uleb128 0xc
 3981 0268 49       		.uleb128 0x49
ARM GAS  C:\Users\z80\AppData\Local\Temp\ccxNTS1s.s 			page 73


 3982 0269 13       		.uleb128 0x13
 3983 026a 11       		.uleb128 0x11
 3984 026b 01       		.uleb128 0x1
 3985 026c 12       		.uleb128 0x12
 3986 026d 01       		.uleb128 0x1
 3987 026e 40       		.uleb128 0x40
 3988 026f 06       		.uleb128 0x6
 3989 0270 01       		.uleb128 0x1
 3990 0271 13       		.uleb128 0x13
 3991 0272 00       		.byte	0
 3992 0273 00       		.byte	0
 3993 0274 2D       		.uleb128 0x2d
 3994 0275 34       		.uleb128 0x34
 3995 0276 00       		.byte	0
 3996 0277 03       		.uleb128 0x3
 3997 0278 0E       		.uleb128 0xe
 3998 0279 3A       		.uleb128 0x3a
 3999 027a 0B       		.uleb128 0xb
 4000 027b 3B       		.uleb128 0x3b
 4001 027c 0B       		.uleb128 0xb
 4002 027d 49       		.uleb128 0x49
 4003 027e 13       		.uleb128 0x13
 4004 027f 3F       		.uleb128 0x3f
 4005 0280 0C       		.uleb128 0xc
 4006 0281 3C       		.uleb128 0x3c
 4007 0282 0C       		.uleb128 0xc
 4008 0283 00       		.byte	0
 4009 0284 00       		.byte	0
 4010 0285 2E       		.uleb128 0x2e
 4011 0286 34       		.uleb128 0x34
 4012 0287 00       		.byte	0
 4013 0288 03       		.uleb128 0x3
 4014 0289 0E       		.uleb128 0xe
 4015 028a 3A       		.uleb128 0x3a
 4016 028b 0B       		.uleb128 0xb
 4017 028c 3B       		.uleb128 0x3b
 4018 028d 05       		.uleb128 0x5
 4019 028e 49       		.uleb128 0x49
 4020 028f 13       		.uleb128 0x13
 4021 0290 3F       		.uleb128 0x3f
 4022 0291 0C       		.uleb128 0xc
 4023 0292 3C       		.uleb128 0x3c
 4024 0293 0C       		.uleb128 0xc
 4025 0294 00       		.byte	0
 4026 0295 00       		.byte	0
 4027 0296 2F       		.uleb128 0x2f
 4028 0297 34       		.uleb128 0x34
 4029 0298 00       		.byte	0
 4030 0299 03       		.uleb128 0x3
 4031 029a 0E       		.uleb128 0xe
 4032 029b 3A       		.uleb128 0x3a
 4033 029c 0B       		.uleb128 0xb
 4034 029d 3B       		.uleb128 0x3b
 4035 029e 0B       		.uleb128 0xb
 4036 029f 49       		.uleb128 0x49
 4037 02a0 13       		.uleb128 0x13
 4038 02a1 3F       		.uleb128 0x3f
ARM GAS  C:\Users\z80\AppData\Local\Temp\ccxNTS1s.s 			page 74


 4039 02a2 0C       		.uleb128 0xc
 4040 02a3 02       		.uleb128 0x2
 4041 02a4 0A       		.uleb128 0xa
 4042 02a5 00       		.byte	0
 4043 02a6 00       		.byte	0
 4044 02a7 30       		.uleb128 0x30
 4045 02a8 34       		.uleb128 0x34
 4046 02a9 00       		.byte	0
 4047 02aa 03       		.uleb128 0x3
 4048 02ab 08       		.uleb128 0x8
 4049 02ac 3A       		.uleb128 0x3a
 4050 02ad 0B       		.uleb128 0xb
 4051 02ae 3B       		.uleb128 0x3b
 4052 02af 0B       		.uleb128 0xb
 4053 02b0 49       		.uleb128 0x49
 4054 02b1 13       		.uleb128 0x13
 4055 02b2 3F       		.uleb128 0x3f
 4056 02b3 0C       		.uleb128 0xc
 4057 02b4 02       		.uleb128 0x2
 4058 02b5 0A       		.uleb128 0xa
 4059 02b6 00       		.byte	0
 4060 02b7 00       		.byte	0
 4061 02b8 31       		.uleb128 0x31
 4062 02b9 34       		.uleb128 0x34
 4063 02ba 00       		.byte	0
 4064 02bb 03       		.uleb128 0x3
 4065 02bc 0E       		.uleb128 0xe
 4066 02bd 3A       		.uleb128 0x3a
 4067 02be 0B       		.uleb128 0xb
 4068 02bf 3B       		.uleb128 0x3b
 4069 02c0 05       		.uleb128 0x5
 4070 02c1 49       		.uleb128 0x49
 4071 02c2 13       		.uleb128 0x13
 4072 02c3 3F       		.uleb128 0x3f
 4073 02c4 0C       		.uleb128 0xc
 4074 02c5 02       		.uleb128 0x2
 4075 02c6 0A       		.uleb128 0xa
 4076 02c7 00       		.byte	0
 4077 02c8 00       		.byte	0
 4078 02c9 32       		.uleb128 0x32
 4079 02ca 21       		.uleb128 0x21
 4080 02cb 00       		.byte	0
 4081 02cc 00       		.byte	0
 4082 02cd 00       		.byte	0
 4083 02ce 00       		.byte	0
 4084              		.section	.debug_loc,"",%progbits
 4085              	.Ldebug_loc0:
 4086              	.LLST0:
 4087 0000 00000000 		.4byte	.LFB62
 4088 0004 02000000 		.4byte	.LCFI0
 4089 0008 0200     		.2byte	0x2
 4090 000a 7D       		.byte	0x7d
 4091 000b 00       		.sleb128 0
 4092 000c 02000000 		.4byte	.LCFI0
 4093 0010 04000000 		.4byte	.LCFI1
 4094 0014 0200     		.2byte	0x2
 4095 0016 7D       		.byte	0x7d
ARM GAS  C:\Users\z80\AppData\Local\Temp\ccxNTS1s.s 			page 75


 4096 0017 08       		.sleb128 8
 4097 0018 04000000 		.4byte	.LCFI1
 4098 001c C2000000 		.4byte	.LFE62
 4099 0020 0200     		.2byte	0x2
 4100 0022 7D       		.byte	0x7d
 4101 0023 28       		.sleb128 40
 4102 0024 00000000 		.4byte	0
 4103 0028 00000000 		.4byte	0
 4104              	.LLST1:
 4105 002c 00000000 		.4byte	.LFB63
 4106 0030 02000000 		.4byte	.LCFI2
 4107 0034 0200     		.2byte	0x2
 4108 0036 7D       		.byte	0x7d
 4109 0037 00       		.sleb128 0
 4110 0038 02000000 		.4byte	.LCFI2
 4111 003c 04000000 		.4byte	.LCFI3
 4112 0040 0200     		.2byte	0x2
 4113 0042 7D       		.byte	0x7d
 4114 0043 08       		.sleb128 8
 4115 0044 04000000 		.4byte	.LCFI3
 4116 0048 42000000 		.4byte	.LFE63
 4117 004c 0200     		.2byte	0x2
 4118 004e 7D       		.byte	0x7d
 4119 004f 10       		.sleb128 16
 4120 0050 00000000 		.4byte	0
 4121 0054 00000000 		.4byte	0
 4122              	.LLST2:
 4123 0058 00000000 		.4byte	.LFB64
 4124 005c 02000000 		.4byte	.LCFI4
 4125 0060 0200     		.2byte	0x2
 4126 0062 7D       		.byte	0x7d
 4127 0063 00       		.sleb128 0
 4128 0064 02000000 		.4byte	.LCFI4
 4129 0068 04000000 		.4byte	.LCFI5
 4130 006c 0200     		.2byte	0x2
 4131 006e 7D       		.byte	0x7d
 4132 006f 08       		.sleb128 8
 4133 0070 04000000 		.4byte	.LCFI5
 4134 0074 58000000 		.4byte	.LFE64
 4135 0078 0200     		.2byte	0x2
 4136 007a 7D       		.byte	0x7d
 4137 007b 10       		.sleb128 16
 4138 007c 00000000 		.4byte	0
 4139 0080 00000000 		.4byte	0
 4140              	.LLST3:
 4141 0084 00000000 		.4byte	.LFB66
 4142 0088 02000000 		.4byte	.LCFI6
 4143 008c 0200     		.2byte	0x2
 4144 008e 7D       		.byte	0x7d
 4145 008f 00       		.sleb128 0
 4146 0090 02000000 		.4byte	.LCFI6
 4147 0094 04000000 		.4byte	.LCFI7
 4148 0098 0200     		.2byte	0x2
 4149 009a 7D       		.byte	0x7d
 4150 009b 08       		.sleb128 8
 4151 009c 04000000 		.4byte	.LCFI7
 4152 00a0 52000000 		.4byte	.LFE66
ARM GAS  C:\Users\z80\AppData\Local\Temp\ccxNTS1s.s 			page 76


 4153 00a4 0200     		.2byte	0x2
 4154 00a6 7D       		.byte	0x7d
 4155 00a7 10       		.sleb128 16
 4156 00a8 00000000 		.4byte	0
 4157 00ac 00000000 		.4byte	0
 4158              	.LLST4:
 4159 00b0 00000000 		.4byte	.LFB67
 4160 00b4 02000000 		.4byte	.LCFI8
 4161 00b8 0200     		.2byte	0x2
 4162 00ba 7D       		.byte	0x7d
 4163 00bb 00       		.sleb128 0
 4164 00bc 02000000 		.4byte	.LCFI8
 4165 00c0 04000000 		.4byte	.LCFI9
 4166 00c4 0200     		.2byte	0x2
 4167 00c6 7D       		.byte	0x7d
 4168 00c7 04       		.sleb128 4
 4169 00c8 04000000 		.4byte	.LCFI9
 4170 00cc 44000000 		.4byte	.LFE67
 4171 00d0 0200     		.2byte	0x2
 4172 00d2 7D       		.byte	0x7d
 4173 00d3 10       		.sleb128 16
 4174 00d4 00000000 		.4byte	0
 4175 00d8 00000000 		.4byte	0
 4176              	.LLST5:
 4177 00dc 00000000 		.4byte	.LFB68
 4178 00e0 02000000 		.4byte	.LCFI10
 4179 00e4 0200     		.2byte	0x2
 4180 00e6 7D       		.byte	0x7d
 4181 00e7 00       		.sleb128 0
 4182 00e8 02000000 		.4byte	.LCFI10
 4183 00ec 36000000 		.4byte	.LFE68
 4184 00f0 0200     		.2byte	0x2
 4185 00f2 7D       		.byte	0x7d
 4186 00f3 08       		.sleb128 8
 4187 00f4 00000000 		.4byte	0
 4188 00f8 00000000 		.4byte	0
 4189              	.LLST6:
 4190 00fc 00000000 		.4byte	.LFB69
 4191 0100 02000000 		.4byte	.LCFI11
 4192 0104 0200     		.2byte	0x2
 4193 0106 7D       		.byte	0x7d
 4194 0107 00       		.sleb128 0
 4195 0108 02000000 		.4byte	.LCFI11
 4196 010c 04000000 		.4byte	.LCFI12
 4197 0110 0200     		.2byte	0x2
 4198 0112 7D       		.byte	0x7d
 4199 0113 04       		.sleb128 4
 4200 0114 04000000 		.4byte	.LCFI12
 4201 0118 22000000 		.4byte	.LFE69
 4202 011c 0200     		.2byte	0x2
 4203 011e 7D       		.byte	0x7d
 4204 011f 10       		.sleb128 16
 4205 0120 00000000 		.4byte	0
 4206 0124 00000000 		.4byte	0
 4207              	.LLST7:
 4208 0128 00000000 		.4byte	.LFB70
 4209 012c 02000000 		.4byte	.LCFI13
ARM GAS  C:\Users\z80\AppData\Local\Temp\ccxNTS1s.s 			page 77


 4210 0130 0200     		.2byte	0x2
 4211 0132 7D       		.byte	0x7d
 4212 0133 00       		.sleb128 0
 4213 0134 02000000 		.4byte	.LCFI13
 4214 0138 04000000 		.4byte	.LCFI14
 4215 013c 0200     		.2byte	0x2
 4216 013e 7D       		.byte	0x7d
 4217 013f 04       		.sleb128 4
 4218 0140 04000000 		.4byte	.LCFI14
 4219 0144 74000000 		.4byte	.LFE70
 4220 0148 0200     		.2byte	0x2
 4221 014a 7D       		.byte	0x7d
 4222 014b 18       		.sleb128 24
 4223 014c 00000000 		.4byte	0
 4224 0150 00000000 		.4byte	0
 4225              	.LLST8:
 4226 0154 00000000 		.4byte	.LFB71
 4227 0158 02000000 		.4byte	.LCFI15
 4228 015c 0200     		.2byte	0x2
 4229 015e 7D       		.byte	0x7d
 4230 015f 00       		.sleb128 0
 4231 0160 02000000 		.4byte	.LCFI15
 4232 0164 04000000 		.4byte	.LCFI16
 4233 0168 0200     		.2byte	0x2
 4234 016a 7D       		.byte	0x7d
 4235 016b 04       		.sleb128 4
 4236 016c 04000000 		.4byte	.LCFI16
 4237 0170 24000000 		.4byte	.LFE71
 4238 0174 0200     		.2byte	0x2
 4239 0176 7D       		.byte	0x7d
 4240 0177 18       		.sleb128 24
 4241 0178 00000000 		.4byte	0
 4242 017c 00000000 		.4byte	0
 4243              	.LLST9:
 4244 0180 00000000 		.4byte	.LFB72
 4245 0184 02000000 		.4byte	.LCFI17
 4246 0188 0200     		.2byte	0x2
 4247 018a 7D       		.byte	0x7d
 4248 018b 00       		.sleb128 0
 4249 018c 02000000 		.4byte	.LCFI17
 4250 0190 04000000 		.4byte	.LCFI18
 4251 0194 0200     		.2byte	0x2
 4252 0196 7D       		.byte	0x7d
 4253 0197 04       		.sleb128 4
 4254 0198 04000000 		.4byte	.LCFI18
 4255 019c 44000000 		.4byte	.LFE72
 4256 01a0 0200     		.2byte	0x2
 4257 01a2 7D       		.byte	0x7d
 4258 01a3 10       		.sleb128 16
 4259 01a4 00000000 		.4byte	0
 4260 01a8 00000000 		.4byte	0
 4261              	.LLST10:
 4262 01ac 00000000 		.4byte	.LFB73
 4263 01b0 02000000 		.4byte	.LCFI19
 4264 01b4 0200     		.2byte	0x2
 4265 01b6 7D       		.byte	0x7d
 4266 01b7 00       		.sleb128 0
ARM GAS  C:\Users\z80\AppData\Local\Temp\ccxNTS1s.s 			page 78


 4267 01b8 02000000 		.4byte	.LCFI19
 4268 01bc 04000000 		.4byte	.LCFI20
 4269 01c0 0200     		.2byte	0x2
 4270 01c2 7D       		.byte	0x7d
 4271 01c3 04       		.sleb128 4
 4272 01c4 04000000 		.4byte	.LCFI20
 4273 01c8 56000000 		.4byte	.LFE73
 4274 01cc 0200     		.2byte	0x2
 4275 01ce 7D       		.byte	0x7d
 4276 01cf 10       		.sleb128 16
 4277 01d0 00000000 		.4byte	0
 4278 01d4 00000000 		.4byte	0
 4279              	.LLST11:
 4280 01d8 00000000 		.4byte	.LFB74
 4281 01dc 02000000 		.4byte	.LCFI21
 4282 01e0 0200     		.2byte	0x2
 4283 01e2 7D       		.byte	0x7d
 4284 01e3 00       		.sleb128 0
 4285 01e4 02000000 		.4byte	.LCFI21
 4286 01e8 92000000 		.4byte	.LFE74
 4287 01ec 0200     		.2byte	0x2
 4288 01ee 7D       		.byte	0x7d
 4289 01ef 18       		.sleb128 24
 4290 01f0 00000000 		.4byte	0
 4291 01f4 00000000 		.4byte	0
 4292              	.LLST12:
 4293 01f8 00000000 		.4byte	.LFB75
 4294 01fc 02000000 		.4byte	.LCFI22
 4295 0200 0200     		.2byte	0x2
 4296 0202 7D       		.byte	0x7d
 4297 0203 00       		.sleb128 0
 4298 0204 02000000 		.4byte	.LCFI22
 4299 0208 18000000 		.4byte	.LFE75
 4300 020c 0200     		.2byte	0x2
 4301 020e 7D       		.byte	0x7d
 4302 020f 08       		.sleb128 8
 4303 0210 00000000 		.4byte	0
 4304 0214 00000000 		.4byte	0
 4305              	.LLST13:
 4306 0218 00000000 		.4byte	.LFB76
 4307 021c 02000000 		.4byte	.LCFI23
 4308 0220 0200     		.2byte	0x2
 4309 0222 7D       		.byte	0x7d
 4310 0223 00       		.sleb128 0
 4311 0224 02000000 		.4byte	.LCFI23
 4312 0228 16000000 		.4byte	.LFE76
 4313 022c 0200     		.2byte	0x2
 4314 022e 7D       		.byte	0x7d
 4315 022f 08       		.sleb128 8
 4316 0230 00000000 		.4byte	0
 4317 0234 00000000 		.4byte	0
 4318              	.LLST14:
 4319 0238 00000000 		.4byte	.LFB77
 4320 023c 02000000 		.4byte	.LCFI24
 4321 0240 0200     		.2byte	0x2
 4322 0242 7D       		.byte	0x7d
 4323 0243 00       		.sleb128 0
ARM GAS  C:\Users\z80\AppData\Local\Temp\ccxNTS1s.s 			page 79


 4324 0244 02000000 		.4byte	.LCFI24
 4325 0248 04000000 		.4byte	.LCFI25
 4326 024c 0200     		.2byte	0x2
 4327 024e 7D       		.byte	0x7d
 4328 024f 04       		.sleb128 4
 4329 0250 04000000 		.4byte	.LCFI25
 4330 0254 6E000000 		.4byte	.LFE77
 4331 0258 0200     		.2byte	0x2
 4332 025a 7D       		.byte	0x7d
 4333 025b 18       		.sleb128 24
 4334 025c 00000000 		.4byte	0
 4335 0260 00000000 		.4byte	0
 4336              	.LLST15:
 4337 0264 00000000 		.4byte	.LFB78
 4338 0268 02000000 		.4byte	.LCFI26
 4339 026c 0200     		.2byte	0x2
 4340 026e 7D       		.byte	0x7d
 4341 026f 00       		.sleb128 0
 4342 0270 02000000 		.4byte	.LCFI26
 4343 0274 04000000 		.4byte	.LCFI27
 4344 0278 0200     		.2byte	0x2
 4345 027a 7D       		.byte	0x7d
 4346 027b 04       		.sleb128 4
 4347 027c 04000000 		.4byte	.LCFI27
 4348 0280 6A000000 		.4byte	.LFE78
 4349 0284 0200     		.2byte	0x2
 4350 0286 7D       		.byte	0x7d
 4351 0287 18       		.sleb128 24
 4352 0288 00000000 		.4byte	0
 4353 028c 00000000 		.4byte	0
 4354              	.LLST16:
 4355 0290 00000000 		.4byte	.LFB79
 4356 0294 02000000 		.4byte	.LCFI28
 4357 0298 0200     		.2byte	0x2
 4358 029a 7D       		.byte	0x7d
 4359 029b 00       		.sleb128 0
 4360 029c 02000000 		.4byte	.LCFI28
 4361 02a0 04000000 		.4byte	.LCFI29
 4362 02a4 0200     		.2byte	0x2
 4363 02a6 7D       		.byte	0x7d
 4364 02a7 08       		.sleb128 8
 4365 02a8 04000000 		.4byte	.LCFI29
 4366 02ac 8A000000 		.4byte	.LFE79
 4367 02b0 0200     		.2byte	0x2
 4368 02b2 7D       		.byte	0x7d
 4369 02b3 10       		.sleb128 16
 4370 02b4 00000000 		.4byte	0
 4371 02b8 00000000 		.4byte	0
 4372              	.LLST17:
 4373 02bc 00000000 		.4byte	.LFB80
 4374 02c0 02000000 		.4byte	.LCFI30
 4375 02c4 0200     		.2byte	0x2
 4376 02c6 7D       		.byte	0x7d
 4377 02c7 00       		.sleb128 0
 4378 02c8 02000000 		.4byte	.LCFI30
 4379 02cc 04000000 		.4byte	.LCFI31
 4380 02d0 0200     		.2byte	0x2
ARM GAS  C:\Users\z80\AppData\Local\Temp\ccxNTS1s.s 			page 80


 4381 02d2 7D       		.byte	0x7d
 4382 02d3 04       		.sleb128 4
 4383 02d4 04000000 		.4byte	.LCFI31
 4384 02d8 9C020000 		.4byte	.LFE80
 4385 02dc 0200     		.2byte	0x2
 4386 02de 7D       		.byte	0x7d
 4387 02df 18       		.sleb128 24
 4388 02e0 00000000 		.4byte	0
 4389 02e4 00000000 		.4byte	0
 4390              		.section	.debug_aranges,"",%progbits
 4391 0000 AC000000 		.4byte	0xac
 4392 0004 0200     		.2byte	0x2
 4393 0006 00000000 		.4byte	.Ldebug_info0
 4394 000a 04       		.byte	0x4
 4395 000b 00       		.byte	0
 4396 000c 0000     		.2byte	0
 4397 000e 0000     		.2byte	0
 4398 0010 00000000 		.4byte	.LFB62
 4399 0014 C2000000 		.4byte	.LFE62-.LFB62
 4400 0018 00000000 		.4byte	.LFB63
 4401 001c 42000000 		.4byte	.LFE63-.LFB63
 4402 0020 00000000 		.4byte	.LFB64
 4403 0024 58000000 		.4byte	.LFE64-.LFB64
 4404 0028 00000000 		.4byte	.LFB65
 4405 002c 14000000 		.4byte	.LFE65-.LFB65
 4406 0030 00000000 		.4byte	.LFB66
 4407 0034 52000000 		.4byte	.LFE66-.LFB66
 4408 0038 00000000 		.4byte	.LFB67
 4409 003c 44000000 		.4byte	.LFE67-.LFB67
 4410 0040 00000000 		.4byte	.LFB68
 4411 0044 36000000 		.4byte	.LFE68-.LFB68
 4412 0048 00000000 		.4byte	.LFB69
 4413 004c 22000000 		.4byte	.LFE69-.LFB69
 4414 0050 00000000 		.4byte	.LFB70
 4415 0054 74000000 		.4byte	.LFE70-.LFB70
 4416 0058 00000000 		.4byte	.LFB71
 4417 005c 24000000 		.4byte	.LFE71-.LFB71
 4418 0060 00000000 		.4byte	.LFB72
 4419 0064 44000000 		.4byte	.LFE72-.LFB72
 4420 0068 00000000 		.4byte	.LFB73
 4421 006c 56000000 		.4byte	.LFE73-.LFB73
 4422 0070 00000000 		.4byte	.LFB74
 4423 0074 92000000 		.4byte	.LFE74-.LFB74
 4424 0078 00000000 		.4byte	.LFB75
 4425 007c 18000000 		.4byte	.LFE75-.LFB75
 4426 0080 00000000 		.4byte	.LFB76
 4427 0084 16000000 		.4byte	.LFE76-.LFB76
 4428 0088 00000000 		.4byte	.LFB77
 4429 008c 6E000000 		.4byte	.LFE77-.LFB77
 4430 0090 00000000 		.4byte	.LFB78
 4431 0094 6A000000 		.4byte	.LFE78-.LFB78
 4432 0098 00000000 		.4byte	.LFB79
 4433 009c 8A000000 		.4byte	.LFE79-.LFB79
 4434 00a0 00000000 		.4byte	.LFB80
 4435 00a4 9C020000 		.4byte	.LFE80-.LFB80
 4436 00a8 00000000 		.4byte	0
 4437 00ac 00000000 		.4byte	0
ARM GAS  C:\Users\z80\AppData\Local\Temp\ccxNTS1s.s 			page 81


 4438              		.section	.debug_ranges,"",%progbits
 4439              	.Ldebug_ranges0:
 4440 0000 00000000 		.4byte	.LFB62
 4441 0004 C2000000 		.4byte	.LFE62
 4442 0008 00000000 		.4byte	.LFB63
 4443 000c 42000000 		.4byte	.LFE63
 4444 0010 00000000 		.4byte	.LFB64
 4445 0014 58000000 		.4byte	.LFE64
 4446 0018 00000000 		.4byte	.LFB65
 4447 001c 14000000 		.4byte	.LFE65
 4448 0020 00000000 		.4byte	.LFB66
 4449 0024 52000000 		.4byte	.LFE66
 4450 0028 00000000 		.4byte	.LFB67
 4451 002c 44000000 		.4byte	.LFE67
 4452 0030 00000000 		.4byte	.LFB68
 4453 0034 36000000 		.4byte	.LFE68
 4454 0038 00000000 		.4byte	.LFB69
 4455 003c 22000000 		.4byte	.LFE69
 4456 0040 00000000 		.4byte	.LFB70
 4457 0044 74000000 		.4byte	.LFE70
 4458 0048 00000000 		.4byte	.LFB71
 4459 004c 24000000 		.4byte	.LFE71
 4460 0050 00000000 		.4byte	.LFB72
 4461 0054 44000000 		.4byte	.LFE72
 4462 0058 00000000 		.4byte	.LFB73
 4463 005c 56000000 		.4byte	.LFE73
 4464 0060 00000000 		.4byte	.LFB74
 4465 0064 92000000 		.4byte	.LFE74
 4466 0068 00000000 		.4byte	.LFB75
 4467 006c 18000000 		.4byte	.LFE75
 4468 0070 00000000 		.4byte	.LFB76
 4469 0074 16000000 		.4byte	.LFE76
 4470 0078 00000000 		.4byte	.LFB77
 4471 007c 6E000000 		.4byte	.LFE77
 4472 0080 00000000 		.4byte	.LFB78
 4473 0084 6A000000 		.4byte	.LFE78
 4474 0088 00000000 		.4byte	.LFB79
 4475 008c 8A000000 		.4byte	.LFE79
 4476 0090 00000000 		.4byte	.LFB80
 4477 0094 9C020000 		.4byte	.LFE80
 4478 0098 00000000 		.4byte	0
 4479 009c 00000000 		.4byte	0
 4480              		.section	.debug_line,"",%progbits
 4481              	.Ldebug_line0:
 4482 0000 EE040000 		.section	.debug_str,"MS",%progbits,1
 4482      02009502 
 4482      00000201 
 4482      FB0E0D00 
 4482      01010101 
 4483              	.LASF102:
 4484 0000 74657374 		.ascii	"test_cpu_pulse\000"
 4484      5F637075 
 4484      5F70756C 
 4484      736500
 4485              	.LASF2:
 4486 000f 73697A65 		.ascii	"size_t\000"
 4486      5F7400
ARM GAS  C:\Users\z80\AppData\Local\Temp\ccxNTS1s.s 			page 82


 4487              	.LASF67:
 4488 0016 7264796D 		.ascii	"rdymsg\000"
 4488      736700
 4489              	.LASF12:
 4490 001d 75696E74 		.ascii	"uint64_t\000"
 4490      36345F74 
 4490      00
 4491              	.LASF115:
 4492 0026 76746C69 		.ascii	"vtlist\000"
 4492      737400
 4493              	.LASF130:
 4494 002d 70617474 		.ascii	"patternqueues\000"
 4494      65726E71 
 4494      75657565 
 4494      7300
 4495              	.LASF128:
 4496 003b 70617474 		.ascii	"patternpools\000"
 4496      65726E70 
 4496      6F6F6C73 
 4496      00
 4497              	.LASF13:
 4498 0048 6C6F6E67 		.ascii	"long long unsigned int\000"
 4498      206C6F6E 
 4498      6720756E 
 4498      7369676E 
 4498      65642069 
 4499              	.LASF72:
 4500 005f 42617365 		.ascii	"BaseChannelVMT\000"
 4500      4368616E 
 4500      6E656C56 
 4500      4D5400
 4501              	.LASF95:
 4502 006e 636F6E64 		.ascii	"condition\000"
 4502      6974696F 
 4502      6E00
 4503              	.LASF68:
 4504 0078 65786974 		.ascii	"exitcode\000"
 4504      636F6465 
 4504      00
 4505              	.LASF119:
 4506 0081 74657374 		.ascii	"test\000"
 4506      00
 4507              	.LASF117:
 4508 0086 49544D5F 		.ascii	"ITM_RxBuffer\000"
 4508      52784275 
 4508      66666572 
 4508      00
 4509              	.LASF25:
 4510 0093 705F7072 		.ascii	"p_prio\000"
 4510      696F00
 4511              	.LASF78:
 4512 009a 72656164 		.ascii	"readt\000"
 4512      7400
 4513              	.LASF127:
 4514 00a0 70617474 		.ascii	"patternheap\000"
 4514      65726E68 
 4514      65617000 
ARM GAS  C:\Users\z80\AppData\Local\Temp\ccxNTS1s.s 			page 83


 4515              	.LASF113:
 4516 00ac 746F6B65 		.ascii	"tokens_buffer\000"
 4516      6E735F62 
 4516      75666665 
 4516      7200
 4517              	.LASF11:
 4518 00ba 6C6F6E67 		.ascii	"long long int\000"
 4518      206C6F6E 
 4518      6720696E 
 4518      7400
 4519              	.LASF1:
 4520 00c8 7369676E 		.ascii	"signed char\000"
 4520      65642063 
 4520      68617200 
 4521              	.LASF14:
 4522 00d4 626F6F6C 		.ascii	"bool_t\000"
 4522      5F7400
 4523              	.LASF64:
 4524 00db 6D5F7175 		.ascii	"m_queue\000"
 4524      65756500 
 4525              	.LASF90:
 4526 00e3 74657374 		.ascii	"test_emit_token\000"
 4526      5F656D69 
 4526      745F746F 
 4526      6B656E00 
 4527              	.LASF89:
 4528 00f3 74657374 		.ascii	"test_println\000"
 4528      5F707269 
 4528      6E746C6E 
 4528      00
 4529              	.LASF134:
 4530 0100 433A5C70 		.ascii	"C:\\projects\\digitizer.git\\firmware\\digitizer\000"
 4530      726F6A65 
 4530      6374735C 
 4530      64696769 
 4530      74697A65 
 4531              	.LASF8:
 4532 012d 6C6F6E67 		.ascii	"long int\000"
 4532      20696E74 
 4532      00
 4533              	.LASF111:
 4534 0136 676C6F62 		.ascii	"global_fail\000"
 4534      616C5F66 
 4534      61696C00 
 4535              	.LASF16:
 4536 0142 74737461 		.ascii	"tstate_t\000"
 4536      74655F74 
 4536      00
 4537              	.LASF98:
 4538 014b 5F746573 		.ascii	"_test_assert_time_window\000"
 4538      745F6173 
 4538      73657274 
 4538      5F74696D 
 4538      655F7769 
 4539              	.LASF100:
 4540 0164 74657374 		.ascii	"test_terminate_threads\000"
 4540      5F746572 
ARM GAS  C:\Users\z80\AppData\Local\Temp\ccxNTS1s.s 			page 84


 4540      6D696E61 
 4540      74655F74 
 4540      68726561 
 4541              	.LASF33:
 4542 017b 705F7469 		.ascii	"p_time\000"
 4542      6D6500
 4543              	.LASF114:
 4544 0182 746F6B70 		.ascii	"tokp\000"
 4544      00
 4545              	.LASF85:
 4546 0187 62756666 		.ascii	"buffer\000"
 4546      657200
 4547              	.LASF27:
 4548 018e 705F6E65 		.ascii	"p_newer\000"
 4548      77657200 
 4549              	.LASF75:
 4550 0196 70757477 		.ascii	"putwouldblock\000"
 4550      6F756C64 
 4550      626C6F63 
 4550      6B00
 4551              	.LASF105:
 4552 01a4 74657374 		.ascii	"test_start_timer\000"
 4552      5F737461 
 4552      72745F74 
 4552      696D6572 
 4552      00
 4553              	.LASF58:
 4554 01b5 725F6E65 		.ascii	"r_newer\000"
 4554      77657200 
 4555              	.LASF42:
 4556 01bd 72656761 		.ascii	"regarm_t\000"
 4556      726D5F74 
 4556      00
 4557              	.LASF49:
 4558 01c6 76745F70 		.ascii	"vt_prev\000"
 4558      72657600 
 4559              	.LASF103:
 4560 01ce 64757261 		.ascii	"duration\000"
 4560      74696F6E 
 4560      00
 4561              	.LASF104:
 4562 01d7 7072696E 		.ascii	"print_tokens\000"
 4562      745F746F 
 4562      6B656E73 
 4562      00
 4563              	.LASF21:
 4564 01e4 636E745F 		.ascii	"cnt_t\000"
 4564      7400
 4565              	.LASF30:
 4566 01ea 705F7374 		.ascii	"p_stklimit\000"
 4566      6B6C696D 
 4566      697400
 4567              	.LASF0:
 4568 01f5 756E7369 		.ascii	"unsigned int\000"
 4568      676E6564 
 4568      20696E74 
 4568      00
ARM GAS  C:\Users\z80\AppData\Local\Temp\ccxNTS1s.s 			page 85


 4569              	.LASF48:
 4570 0202 76745F6E 		.ascii	"vt_next\000"
 4570      65787400 
 4571              	.LASF92:
 4572 020a 706F696E 		.ascii	"point\000"
 4572      7400
 4573              	.LASF35:
 4574 0210 705F6D73 		.ascii	"p_msgqueue\000"
 4574      67717565 
 4574      756500
 4575              	.LASF97:
 4576 021b 65787065 		.ascii	"expected\000"
 4576      63746564 
 4576      00
 4577              	.LASF126:
 4578 0224 70617474 		.ascii	"patternevt\000"
 4578      65726E65 
 4578      767400
 4579              	.LASF81:
 4580 022f 6E616D65 		.ascii	"name\000"
 4580      00
 4581              	.LASF47:
 4582 0234 56697274 		.ascii	"VirtualTimer\000"
 4582      75616C54 
 4582      696D6572 
 4582      00
 4583              	.LASF6:
 4584 0241 73686F72 		.ascii	"short unsigned int\000"
 4584      7420756E 
 4584      7369676E 
 4584      65642069 
 4584      6E7400
 4585              	.LASF18:
 4586 0254 6D73675F 		.ascii	"msg_t\000"
 4586      7400
 4587              	.LASF77:
 4588 025a 77726974 		.ascii	"writet\000"
 4588      657400
 4589              	.LASF93:
 4590 0261 5F746573 		.ascii	"_test_fail\000"
 4590      745F6661 
 4590      696C00
 4591              	.LASF15:
 4592 026c 746D6F64 		.ascii	"tmode_t\000"
 4592      655F7400 
 4593              	.LASF41:
 4594 0274 54687265 		.ascii	"ThreadsList\000"
 4594      6164734C 
 4594      69737400 
 4595              	.LASF38:
 4596 0280 705F6D74 		.ascii	"p_mtxlist\000"
 4596      786C6973 
 4596      7400
 4597              	.LASF19:
 4598 028a 6576656E 		.ascii	"eventmask_t\000"
 4598      746D6173 
 4598      6B5F7400 
ARM GAS  C:\Users\z80\AppData\Local\Temp\ccxNTS1s.s 			page 86


 4599              	.LASF88:
 4600 0296 6D736770 		.ascii	"msgp\000"
 4600      00
 4601              	.LASF43:
 4602 029b 73746B61 		.ascii	"stkalign_t\000"
 4602      6C69676E 
 4602      5F7400
 4603              	.LASF87:
 4604 02a6 74657374 		.ascii	"test_print\000"
 4604      5F707269 
 4604      6E7400
 4605              	.LASF73:
 4606 02b1 77726974 		.ascii	"write\000"
 4606      6500
 4607              	.LASF56:
 4608 02b7 725F7072 		.ascii	"r_prio\000"
 4608      696F00
 4609              	.LASF50:
 4610 02be 76745F74 		.ascii	"vt_time\000"
 4610      696D6500 
 4611              	.LASF34:
 4612 02c6 705F7761 		.ascii	"p_waiting\000"
 4612      6974696E 
 4612      6700
 4613              	.LASF124:
 4614 02d0 70617474 		.ascii	"patternmsg\000"
 4614      65726E6D 
 4614      736700
 4615              	.LASF51:
 4616 02db 76745F66 		.ascii	"vt_func\000"
 4616      756E6300 
 4617              	.LASF63:
 4618 02e3 4D757465 		.ascii	"Mutex\000"
 4618      7800
 4619              	.LASF133:
 4620 02e9 2E2E2F63 		.ascii	"../chibios_2.4.x/test/test.c\000"
 4620      68696269 
 4620      6F735F32 
 4620      2E342E78 
 4620      2F746573 
 4621              	.LASF107:
 4622 0306 7072696E 		.ascii	"print_line\000"
 4622      745F6C69 
 4622      6E6500
 4623              	.LASF101:
 4624 0311 74657374 		.ascii	"test_wait_threads\000"
 4624      5F776169 
 4624      745F7468 
 4624      72656164 
 4624      7300
 4625              	.LASF57:
 4626 0323 725F6374 		.ascii	"r_ctx\000"
 4626      7800
 4627              	.LASF40:
 4628 0329 54687265 		.ascii	"ThreadsQueue\000"
 4628      61647351 
 4628      75657565 
ARM GAS  C:\Users\z80\AppData\Local\Temp\ccxNTS1s.s 			page 87


 4628      00
 4629              	.LASF26:
 4630 0336 705F6374 		.ascii	"p_ctx\000"
 4630      7800
 4631              	.LASF82:
 4632 033c 73657475 		.ascii	"setup\000"
 4632      7000
 4633              	.LASF96:
 4634 0342 5F746573 		.ascii	"_test_assert_sequence\000"
 4634      745F6173 
 4634      73657274 
 4634      5F736571 
 4634      75656E63 
 4635              	.LASF61:
 4636 0358 725F6375 		.ascii	"r_current\000"
 4636      7272656E 
 4636      7400
 4637              	.LASF59:
 4638 0362 725F6F6C 		.ascii	"r_older\000"
 4638      64657200 
 4639              	.LASF122:
 4640 036a 70617474 		.ascii	"patternsem\000"
 4640      65726E73 
 4640      656D00
 4641              	.LASF110:
 4642 0375 6C6F6361 		.ascii	"local_fail\000"
 4642      6C5F6661 
 4642      696C00
 4643              	.LASF74:
 4644 0380 72656164 		.ascii	"read\000"
 4644      00
 4645              	.LASF91:
 4646 0385 746F6B65 		.ascii	"token\000"
 4646      6E00
 4647              	.LASF24:
 4648 038b 705F7072 		.ascii	"p_prev\000"
 4648      657600
 4649              	.LASF84:
 4650 0392 65786563 		.ascii	"execute\000"
 4650      75746500 
 4651              	.LASF17:
 4652 039a 74707269 		.ascii	"tprio_t\000"
 4652      6F5F7400 
 4653              	.LASF7:
 4654 03a2 696E7433 		.ascii	"int32_t\000"
 4654      325F7400 
 4655              	.LASF4:
 4656 03aa 756E7369 		.ascii	"unsigned char\000"
 4656      676E6564 
 4656      20636861 
 4656      7200
 4657              	.LASF108:
 4658 03b8 54657374 		.ascii	"TestThread\000"
 4658      54687265 
 4658      616400
 4659              	.LASF137:
 4660 03c3 74657374 		.ascii	"test_wait_tick\000"
ARM GAS  C:\Users\z80\AppData\Local\Temp\ccxNTS1s.s 			page 88


 4660      5F776169 
 4660      745F7469 
 4660      636B00
 4661              	.LASF123:
 4662 03d2 70617474 		.ascii	"patternmtx\000"
 4662      65726E6D 
 4662      747800
 4663              	.LASF5:
 4664 03dd 73686F72 		.ascii	"short int\000"
 4664      7420696E 
 4664      7400
 4665              	.LASF31:
 4666 03e7 705F7374 		.ascii	"p_state\000"
 4666      61746500 
 4667              	.LASF118:
 4668 03ef 74687265 		.ascii	"threads\000"
 4668      61647300 
 4669              	.LASF28:
 4670 03f7 705F6F6C 		.ascii	"p_older\000"
 4670      64657200 
 4671              	.LASF120:
 4672 03ff 74657374 		.ascii	"test_timer_done\000"
 4672      5F74696D 
 4672      65725F64 
 4672      6F6E6500 
 4673              	.LASF70:
 4674 040f 65776D61 		.ascii	"ewmask\000"
 4674      736B00
 4675              	.LASF23:
 4676 0416 705F6E65 		.ascii	"p_next\000"
 4676      787400
 4677              	.LASF32:
 4678 041d 705F666C 		.ascii	"p_flags\000"
 4678      61677300 
 4679              	.LASF131:
 4680 0425 70617474 		.ascii	"patternbmk\000"
 4680      65726E62 
 4680      6D6B00
 4681              	.LASF22:
 4682 0430 54687265 		.ascii	"Thread\000"
 4682      616400
 4683              	.LASF80:
 4684 0437 74657374 		.ascii	"testcase\000"
 4684      63617365 
 4684      00
 4685              	.LASF37:
 4686 0440 705F6570 		.ascii	"p_epending\000"
 4686      656E6469 
 4686      6E6700
 4687              	.LASF9:
 4688 044b 75696E74 		.ascii	"uint32_t\000"
 4688      33325F74 
 4688      00
 4689              	.LASF55:
 4690 0454 725F7175 		.ascii	"r_queue\000"
 4690      65756500 
 4691              	.LASF86:
ARM GAS  C:\Users\z80\AppData\Local\Temp\ccxNTS1s.s 			page 89


 4692 045c 74657374 		.ascii	"test_printn\000"
 4692      5F707269 
 4692      6E746E00 
 4693              	.LASF132:
 4694 0468 474E5520 		.ascii	"GNU C 4.6.3\000"
 4694      4320342E 
 4694      362E3300 
 4695              	.LASF10:
 4696 0474 6C6F6E67 		.ascii	"long unsigned int\000"
 4696      20756E73 
 4696      69676E65 
 4696      6420696E 
 4696      7400
 4697              	.LASF71:
 4698 0486 63686172 		.ascii	"char\000"
 4698      00
 4699              	.LASF109:
 4700 048b 70617474 		.ascii	"patterns\000"
 4700      65726E73 
 4700      00
 4701              	.LASF121:
 4702 0494 70617474 		.ascii	"patternthd\000"
 4702      65726E74 
 4702      686400
 4703              	.LASF66:
 4704 049f 6D5F6E65 		.ascii	"m_next\000"
 4704      787400
 4705              	.LASF20:
 4706 04a6 73797374 		.ascii	"systime_t\000"
 4706      696D655F 
 4706      7400
 4707              	.LASF39:
 4708 04b0 705F7265 		.ascii	"p_realprio\000"
 4708      616C7072 
 4708      696F00
 4709              	.LASF46:
 4710 04bb 76746675 		.ascii	"vtfunc_t\000"
 4710      6E635F74 
 4710      00
 4711              	.LASF129:
 4712 04c4 70617474 		.ascii	"patterndyn\000"
 4712      65726E64 
 4712      796E00
 4713              	.LASF45:
 4714 04cf 636F6E74 		.ascii	"context\000"
 4714      65787400 
 4715              	.LASF36:
 4716 04d7 705F6D73 		.ascii	"p_msg\000"
 4716      6700
 4717              	.LASF44:
 4718 04dd 696E7463 		.ascii	"intctx\000"
 4718      747800
 4719              	.LASF52:
 4720 04e4 76745F70 		.ascii	"vt_par\000"
 4720      617200
 4721              	.LASF135:
 4722 04eb 74657374 		.ascii	"test_buffers\000"
ARM GAS  C:\Users\z80\AppData\Local\Temp\ccxNTS1s.s 			page 90


 4722      5F627566 
 4722      66657273 
 4722      00
 4723              	.LASF29:
 4724 04f8 705F6E61 		.ascii	"p_name\000"
 4724      6D6500
 4725              	.LASF62:
 4726 04ff 52656164 		.ascii	"ReadyList\000"
 4726      794C6973 
 4726      7400
 4727              	.LASF106:
 4728 0509 65786563 		.ascii	"execute_test\000"
 4728      7574655F 
 4728      74657374 
 4728      00
 4729              	.LASF116:
 4730 0516 726C6973 		.ascii	"rlist\000"
 4730      7400
 4731              	.LASF3:
 4732 051c 75696E74 		.ascii	"uint8_t\000"
 4732      385F7400 
 4733              	.LASF112:
 4734 0524 6661696C 		.ascii	"failpoint\000"
 4734      706F696E 
 4734      7400
 4735              	.LASF83:
 4736 052e 74656172 		.ascii	"teardown\000"
 4736      646F776E 
 4736      00
 4737              	.LASF136:
 4738 0537 636C6561 		.ascii	"clear_tokens\000"
 4738      725F746F 
 4738      6B656E73 
 4738      00
 4739              	.LASF69:
 4740 0544 77746F62 		.ascii	"wtobjp\000"
 4740      6A7000
 4741              	.LASF94:
 4742 054b 5F746573 		.ascii	"_test_assert\000"
 4742      745F6173 
 4742      73657274 
 4742      00
 4743              	.LASF53:
 4744 0558 76745F73 		.ascii	"vt_systime\000"
 4744      79737469 
 4744      6D6500
 4745              	.LASF76:
 4746 0563 67657477 		.ascii	"getwouldblock\000"
 4746      6F756C64 
 4746      626C6F63 
 4746      6B00
 4747              	.LASF99:
 4748 0571 73746172 		.ascii	"start\000"
 4748      7400
 4749              	.LASF54:
 4750 0577 56544C69 		.ascii	"VTList\000"
 4750      737400
ARM GAS  C:\Users\z80\AppData\Local\Temp\ccxNTS1s.s 			page 91


 4751              	.LASF79:
 4752 057e 42617365 		.ascii	"BaseChannel\000"
 4752      4368616E 
 4752      6E656C00 
 4753              	.LASF60:
 4754 058a 725F7072 		.ascii	"r_preempt\000"
 4754      65656D70 
 4754      7400
 4755              	.LASF65:
 4756 0594 6D5F6F77 		.ascii	"m_owner\000"
 4756      6E657200 
 4757              	.LASF125:
 4758 059c 70617474 		.ascii	"patternmbox\000"
 4758      65726E6D 
 4758      626F7800 
 4759              		.ident	"GCC: (Sourcery CodeBench Lite 2012.03-56) 4.6.3"
ARM GAS  C:\Users\z80\AppData\Local\Temp\ccxNTS1s.s 			page 92


DEFINED SYMBOLS
                            *ABS*:00000000 test.c
C:\Users\z80\AppData\Local\Temp\ccxNTS1s.s:19     .data.patterns:00000000 $d
C:\Users\z80\AppData\Local\Temp\ccxNTS1s.s:22     .data.patterns:00000000 patterns
C:\Users\z80\AppData\Local\Temp\ccxNTS1s.s:36     .bss.local_fail:00000000 $d
C:\Users\z80\AppData\Local\Temp\ccxNTS1s.s:39     .bss.local_fail:00000000 local_fail
C:\Users\z80\AppData\Local\Temp\ccxNTS1s.s:42     .bss.global_fail:00000000 $d
C:\Users\z80\AppData\Local\Temp\ccxNTS1s.s:45     .bss.global_fail:00000000 global_fail
C:\Users\z80\AppData\Local\Temp\ccxNTS1s.s:48     .bss.failpoint:00000000 $d
C:\Users\z80\AppData\Local\Temp\ccxNTS1s.s:51     .bss.failpoint:00000000 failpoint
C:\Users\z80\AppData\Local\Temp\ccxNTS1s.s:54     .bss.tokens_buffer:00000000 $d
C:\Users\z80\AppData\Local\Temp\ccxNTS1s.s:57     .bss.tokens_buffer:00000000 tokens_buffer
C:\Users\z80\AppData\Local\Temp\ccxNTS1s.s:60     .bss.tokp:00000000 $d
C:\Users\z80\AppData\Local\Temp\ccxNTS1s.s:63     .bss.tokp:00000000 tokp
C:\Users\z80\AppData\Local\Temp\ccxNTS1s.s:70     .bss.test:00000000 test
C:\Users\z80\AppData\Local\Temp\ccxNTS1s.s:67     .bss.test:00000000 $d
C:\Users\z80\AppData\Local\Temp\ccxNTS1s.s:77     .bss.threads:00000000 threads
C:\Users\z80\AppData\Local\Temp\ccxNTS1s.s:74     .bss.threads:00000000 $d
C:\Users\z80\AppData\Local\Temp\ccxNTS1s.s:84     .rodata.wa:00000000 wa
C:\Users\z80\AppData\Local\Temp\ccxNTS1s.s:81     .rodata.wa:00000000 $d
C:\Users\z80\AppData\Local\Temp\ccxNTS1s.s:91     .bss.chp:00000000 $d
C:\Users\z80\AppData\Local\Temp\ccxNTS1s.s:94     .bss.chp:00000000 chp
C:\Users\z80\AppData\Local\Temp\ccxNTS1s.s:97     .text.test_printn:00000000 $t
C:\Users\z80\AppData\Local\Temp\ccxNTS1s.s:103    .text.test_printn:00000000 test_printn
C:\Users\z80\AppData\Local\Temp\ccxNTS1s.s:209    .text.test_print:00000000 $t
C:\Users\z80\AppData\Local\Temp\ccxNTS1s.s:215    .text.test_print:00000000 test_print
C:\Users\z80\AppData\Local\Temp\ccxNTS1s.s:264    .text.test_println:00000000 $t
C:\Users\z80\AppData\Local\Temp\ccxNTS1s.s:270    .text.test_println:00000000 test_println
C:\Users\z80\AppData\Local\Temp\ccxNTS1s.s:321    .text.clear_tokens:00000000 $t
C:\Users\z80\AppData\Local\Temp\ccxNTS1s.s:326    .text.clear_tokens:00000000 clear_tokens
C:\Users\z80\AppData\Local\Temp\ccxNTS1s.s:345    .text.print_tokens:00000000 $t
C:\Users\z80\AppData\Local\Temp\ccxNTS1s.s:350    .text.print_tokens:00000000 print_tokens
C:\Users\z80\AppData\Local\Temp\ccxNTS1s.s:404    .text.test_emit_token:00000000 $t
C:\Users\z80\AppData\Local\Temp\ccxNTS1s.s:410    .text.test_emit_token:00000000 test_emit_token
C:\Users\z80\AppData\Local\Temp\ccxNTS1s.s:460    .text._test_fail:00000000 $t
C:\Users\z80\AppData\Local\Temp\ccxNTS1s.s:466    .text._test_fail:00000000 _test_fail
C:\Users\z80\AppData\Local\Temp\ccxNTS1s.s:502    .text._test_assert:00000000 $t
C:\Users\z80\AppData\Local\Temp\ccxNTS1s.s:508    .text._test_assert:00000000 _test_assert
C:\Users\z80\AppData\Local\Temp\ccxNTS1s.s:544    .text._test_assert_sequence:00000000 $t
C:\Users\z80\AppData\Local\Temp\ccxNTS1s.s:550    .text._test_assert_sequence:00000000 _test_assert_sequence
C:\Users\z80\AppData\Local\Temp\ccxNTS1s.s:627    .text._test_assert_time_window:00000000 $t
C:\Users\z80\AppData\Local\Temp\ccxNTS1s.s:633    .text._test_assert_time_window:00000000 _test_assert_time_window
C:\Users\z80\AppData\Local\Temp\ccxNTS1s.s:666    .text.test_terminate_threads:00000000 $t
C:\Users\z80\AppData\Local\Temp\ccxNTS1s.s:672    .text.test_terminate_threads:00000000 test_terminate_threads
C:\Users\z80\AppData\Local\Temp\ccxNTS1s.s:721    .text.test_wait_threads:00000000 $t
C:\Users\z80\AppData\Local\Temp\ccxNTS1s.s:727    .text.test_wait_threads:00000000 test_wait_threads
C:\Users\z80\AppData\Local\Temp\ccxNTS1s.s:782    .text.test_cpu_pulse:00000000 $t
C:\Users\z80\AppData\Local\Temp\ccxNTS1s.s:788    .text.test_cpu_pulse:00000000 test_cpu_pulse
C:\Users\z80\AppData\Local\Temp\ccxNTS1s.s:882    .text.test_wait_tick:00000000 $t
C:\Users\z80\AppData\Local\Temp\ccxNTS1s.s:888    .text.test_wait_tick:00000000 test_wait_tick
C:\Users\z80\AppData\Local\Temp\ccxNTS1s.s:917    .bss.test_timer_done:00000000 test_timer_done
C:\Users\z80\AppData\Local\Temp\ccxNTS1s.s:914    .bss.test_timer_done:00000000 $d
C:\Users\z80\AppData\Local\Temp\ccxNTS1s.s:920    .bss.vt:00000000 $d
C:\Users\z80\AppData\Local\Temp\ccxNTS1s.s:923    .bss.vt:00000000 vt
C:\Users\z80\AppData\Local\Temp\ccxNTS1s.s:926    .text.tmr:00000000 $t
C:\Users\z80\AppData\Local\Temp\ccxNTS1s.s:931    .text.tmr:00000000 tmr
C:\Users\z80\AppData\Local\Temp\ccxNTS1s.s:954    .text.test_start_timer:00000000 $t
ARM GAS  C:\Users\z80\AppData\Local\Temp\ccxNTS1s.s 			page 93


C:\Users\z80\AppData\Local\Temp\ccxNTS1s.s:960    .text.test_start_timer:00000000 test_start_timer
C:\Users\z80\AppData\Local\Temp\ccxNTS1s.s:1023   .text.execute_test:00000000 $t
C:\Users\z80\AppData\Local\Temp\ccxNTS1s.s:1028   .text.execute_test:00000000 execute_test
C:\Users\z80\AppData\Local\Temp\ccxNTS1s.s:1102   .text.print_line:00000000 $t
C:\Users\z80\AppData\Local\Temp\ccxNTS1s.s:1107   .text.print_line:00000000 print_line
C:\Users\z80\AppData\Local\Temp\ccxNTS1s.s:1181   .rodata:00000000 $d
C:\Users\z80\AppData\Local\Temp\ccxNTS1s.s:1182   .rodata:00000000 .LC0
C:\Users\z80\AppData\Local\Temp\ccxNTS1s.s:1185   .rodata:00000004 .LC1
C:\Users\z80\AppData\Local\Temp\ccxNTS1s.s:1188   .rodata:00000020 .LC2
C:\Users\z80\AppData\Local\Temp\ccxNTS1s.s:1191   .rodata:00000024 .LC3
C:\Users\z80\AppData\Local\Temp\ccxNTS1s.s:1194   .rodata:00000038 .LC4
C:\Users\z80\AppData\Local\Temp\ccxNTS1s.s:1197   .rodata:00000040 .LC5
C:\Users\z80\AppData\Local\Temp\ccxNTS1s.s:1200   .rodata:00000054 .LC6
C:\Users\z80\AppData\Local\Temp\ccxNTS1s.s:1203   .rodata:0000006c .LC7
C:\Users\z80\AppData\Local\Temp\ccxNTS1s.s:1206   .rodata:00000080 .LC8
C:\Users\z80\AppData\Local\Temp\ccxNTS1s.s:1209   .rodata:0000008c .LC9
C:\Users\z80\AppData\Local\Temp\ccxNTS1s.s:1212   .rodata:000000a0 .LC10
C:\Users\z80\AppData\Local\Temp\ccxNTS1s.s:1215   .rodata:000000a8 .LC11
C:\Users\z80\AppData\Local\Temp\ccxNTS1s.s:1218   .rodata:000000bc .LC12
C:\Users\z80\AppData\Local\Temp\ccxNTS1s.s:1221   .rodata:000000c8 .LC13
C:\Users\z80\AppData\Local\Temp\ccxNTS1s.s:1224   .rodata:000000dc .LC14
C:\Users\z80\AppData\Local\Temp\ccxNTS1s.s:1227   .rodata:000000f4 .LC15
C:\Users\z80\AppData\Local\Temp\ccxNTS1s.s:1230   .rodata:00000108 .LC16
C:\Users\z80\AppData\Local\Temp\ccxNTS1s.s:1233   .rodata:00000130 .LC17
C:\Users\z80\AppData\Local\Temp\ccxNTS1s.s:1236   .rodata:00000144 .LC18
C:\Users\z80\AppData\Local\Temp\ccxNTS1s.s:1239   .rodata:00000154 .LC19
C:\Users\z80\AppData\Local\Temp\ccxNTS1s.s:1242   .rodata:00000164 .LC20
C:\Users\z80\AppData\Local\Temp\ccxNTS1s.s:1245   .rodata:00000168 .LC21
C:\Users\z80\AppData\Local\Temp\ccxNTS1s.s:1248   .rodata:0000016c .LC22
C:\Users\z80\AppData\Local\Temp\ccxNTS1s.s:1251   .rodata:00000170 .LC23
C:\Users\z80\AppData\Local\Temp\ccxNTS1s.s:1254   .rodata:00000188 .LC24
C:\Users\z80\AppData\Local\Temp\ccxNTS1s.s:1257   .rodata:0000018c .LC25
C:\Users\z80\AppData\Local\Temp\ccxNTS1s.s:1260   .rodata:00000190 .LC26
C:\Users\z80\AppData\Local\Temp\ccxNTS1s.s:1263   .rodata:000001a4 .LC27
C:\Users\z80\AppData\Local\Temp\ccxNTS1s.s:1266   .rodata:000001b4 .LC28
C:\Users\z80\AppData\Local\Temp\ccxNTS1s.s:1269   .rodata:000001bc .LC29
C:\Users\z80\AppData\Local\Temp\ccxNTS1s.s:1272   .text.TestThread:00000000 $t
C:\Users\z80\AppData\Local\Temp\ccxNTS1s.s:1278   .text.TestThread:00000000 TestThread
                     .debug_frame:00000010 $d

UNDEFINED SYMBOLS
patternthd
patternsem
patternmtx
patternmsg
patternmbox
patternevt
patternheap
patternpools
patterndyn
patternqueues
patternbmk
dbg_check_lock
dbg_check_unlock
chTimeIsWithin
chThdTerminate
chThdWait
ARM GAS  C:\Users\z80\AppData\Local\Temp\ccxNTS1s.s 			page 94


rlist
chThdSleep
vtlist
chVTSetI
