ARM GAS  C:\Users\z80\AppData\Local\Temp\cc5UgZt9.s 			page 1


   1              		.syntax unified
   2              		.cpu cortex-m3
   3              		.fpu softvfp
   4              		.eabi_attribute 20, 1
   5              		.eabi_attribute 21, 1
   6              		.eabi_attribute 23, 3
   7              		.eabi_attribute 24, 1
   8              		.eabi_attribute 25, 1
   9              		.eabi_attribute 26, 1
  10              		.eabi_attribute 30, 2
  11              		.eabi_attribute 34, 1
  12              		.eabi_attribute 18, 4
  13              		.thumb
  14              		.file	"testevt.c"
  15              		.text
  16              	.Ltext0:
  17              		.cfi_sections	.debug_frame
  18              		.section	.text.evt3_setup,"ax",%progbits
  19              		.align	2
  20              		.p2align 4,,15
  21              		.thumb
  22              		.thumb_func
  23              		.type	evt3_setup, %function
  24              	evt3_setup:
  25              	.LFB16:
  26              		.file 1 "../chibios_2.4.x/test/testevt.c"
  27              		.loc 1 258 0
  28              		.cfi_startproc
  29              		@ args = 0, pretend = 0, frame = 0
  30              		@ frame_needed = 0, uses_anonymous_args = 0
  31              		@ link register save eliminated.
  32              		.loc 1 260 0
  33 0000 4FF0FF30 		mov	r0, #-1
  34              		.loc 1 261 0
  35              		.loc 1 260 0
  36 0004 FFF7FEBF 		b	chEvtClearFlags
  37              		.cfi_endproc
  38              	.LFE16:
  39              		.size	evt3_setup, .-evt3_setup
  40 0008 AFF30080 		.section	.text.evt2_setup,"ax",%progbits
  40      AFF30080 
  41              		.align	2
  42              		.p2align 4,,15
  43              		.thumb
  44              		.thumb_func
  45              		.type	evt2_setup, %function
  46              	evt2_setup:
  47              	.LFB12:
  48              		.loc 1 139 0
  49              		.cfi_startproc
  50              		@ args = 0, pretend = 0, frame = 0
  51              		@ frame_needed = 0, uses_anonymous_args = 0
  52              		@ link register save eliminated.
  53              		.loc 1 141 0
  54 0000 4FF0FF30 		mov	r0, #-1
  55              		.loc 1 142 0
  56              		.loc 1 141 0
ARM GAS  C:\Users\z80\AppData\Local\Temp\cc5UgZt9.s 			page 2


  57 0004 FFF7FEBF 		b	chEvtClearFlags
  58              		.cfi_endproc
  59              	.LFE12:
  60              		.size	evt2_setup, .-evt2_setup
  61 0008 AFF30080 		.section	.text.evt1_setup,"ax",%progbits
  61      AFF30080 
  62              		.align	2
  63              		.p2align 4,,15
  64              		.thumb
  65              		.thumb_func
  66              		.type	evt1_setup, %function
  67              	evt1_setup:
  68              	.LFB7:
  69              		.loc 1 86 0
  70              		.cfi_startproc
  71              		@ args = 0, pretend = 0, frame = 0
  72              		@ frame_needed = 0, uses_anonymous_args = 0
  73              		@ link register save eliminated.
  74              		.loc 1 88 0
  75 0000 4FF0FF30 		mov	r0, #-1
  76              		.loc 1 89 0
  77              		.loc 1 88 0
  78 0004 FFF7FEBF 		b	chEvtClearFlags
  79              		.cfi_endproc
  80              	.LFE7:
  81              		.size	evt1_setup, .-evt1_setup
  82 0008 AFF30080 		.section	.text.thread2,"ax",%progbits
  82      AFF30080 
  83              		.align	2
  84              		.p2align 4,,15
  85              		.thumb
  86              		.thumb_func
  87              		.type	thread2, %function
  88              	thread2:
  89              	.LFB14:
  90              		.loc 1 151 0
  91              		.cfi_startproc
  92              		@ args = 0, pretend = 0, frame = 0
  93              		@ frame_needed = 0, uses_anonymous_args = 0
  94              	.LVL0:
  95              		.loc 1 154 0
  96 0000 40F20000 		movw	r0, #:lower16:.LANCHOR0
  97              	.LVL1:
  98              		.loc 1 151 0
  99 0004 08B5     		push	{r3, lr}
 100              	.LCFI0:
 101              		.cfi_def_cfa_offset 8
 102              		.cfi_offset 14, -4
 103              		.cfi_offset 3, -8
 104              		.loc 1 154 0
 105 0006 0021     		movs	r1, #0
 106 0008 C0F20000 		movt	r0, #:upper16:.LANCHOR0
 107 000c FFF7FEFF 		bl	chEvtBroadcastFlags
 108              		.loc 1 155 0
 109 0010 1920     		movs	r0, #25
 110 0012 FFF7FEFF 		bl	chThdSleep
 111              		.loc 1 156 0
ARM GAS  C:\Users\z80\AppData\Local\Temp\cc5UgZt9.s 			page 3


 112 0016 40F20000 		movw	r0, #:lower16:.LANCHOR1
 113 001a C0F20000 		movt	r0, #:upper16:.LANCHOR1
 114 001e 0021     		movs	r1, #0
 115 0020 FFF7FEFF 		bl	chEvtBroadcastFlags
 116              		.loc 1 158 0
 117 0024 0020     		movs	r0, #0
 118 0026 08BD     		pop	{r3, pc}
 119              		.cfi_endproc
 120              	.LFE14:
 121              		.size	thread2, .-thread2
 122 0028 AFF30080 		.section	.text.thread1,"ax",%progbits
 122      AFF30080 
 123              		.align	2
 124              		.p2align 4,,15
 125              		.thumb
 126              		.thumb_func
 127              		.type	thread1, %function
 128              	thread1:
 129              	.LFB13:
 130              		.loc 1 144 0
 131              		.cfi_startproc
 132              		@ args = 0, pretend = 0, frame = 0
 133              		@ frame_needed = 0, uses_anonymous_args = 0
 134              	.LVL2:
 135 0000 10B5     		push	{r4, lr}
 136              	.LCFI1:
 137              		.cfi_def_cfa_offset 8
 138              		.cfi_offset 14, -4
 139              		.cfi_offset 4, -8
 140              		.loc 1 144 0
 141 0002 0446     		mov	r4, r0
 142              		.loc 1 146 0
 143 0004 1920     		movs	r0, #25
 144              	.LVL3:
 145 0006 FFF7FEFF 		bl	chThdSleep
 146              		.loc 1 147 0
 147 000a 2046     		mov	r0, r4
 148 000c 0121     		movs	r1, #1
 149 000e FFF7FEFF 		bl	chEvtSignalFlags
 150              		.loc 1 149 0
 151 0012 0020     		movs	r0, #0
 152 0014 10BD     		pop	{r4, pc}
 153              		.cfi_endproc
 154              	.LFE13:
 155              		.size	thread1, .-thread1
 156 0016 00BFAFF3 		.section	.text.evt1_execute,"ax",%progbits
 156      0080AFF3 
 156      0080
 157              		.align	2
 158              		.p2align 4,,15
 159              		.thumb
 160              		.thumb_func
 161              		.type	evt1_execute, %function
 162              	evt1_execute:
 163              	.LFB11:
 164              		.loc 1 96 0
 165              		.cfi_startproc
ARM GAS  C:\Users\z80\AppData\Local\Temp\cc5UgZt9.s 			page 4


 166              		@ args = 0, pretend = 0, frame = 24
 167              		@ frame_needed = 0, uses_anonymous_args = 0
 168 0000 10B5     		push	{r4, lr}
 169              	.LCFI2:
 170              		.cfi_def_cfa_offset 8
 171              		.cfi_offset 14, -4
 172              		.cfi_offset 4, -8
 173              		.loc 1 102 0
 174 0002 40F20004 		movw	r4, #:lower16:.LANCHOR0
 175              		.loc 1 96 0
 176 0006 86B0     		sub	sp, sp, #24
 177              	.LCFI3:
 178              		.cfi_def_cfa_offset 32
 179              		.loc 1 102 0
 180 0008 C0F20004 		movt	r4, #:upper16:.LANCHOR0
 181              		.loc 1 103 0
 182 000c 0122     		movs	r2, #1
 183 000e 2046     		mov	r0, r4
 184 0010 6946     		mov	r1, sp
 185              		.loc 1 102 0
 186 0012 2460     		str	r4, [r4, #0]
 187              		.loc 1 103 0
 188 0014 FFF7FEFF 		bl	chEvtRegisterMask
 189              		.loc 1 104 0
 190 0018 2046     		mov	r0, r4
 191 001a 03A9     		add	r1, sp, #12
 192 001c 0222     		movs	r2, #2
 193 001e FFF7FEFF 		bl	chEvtRegisterMask
 194              		.loc 1 105 0
 195 0022 2168     		ldr	r1, [r4, #0]
 196 0024 0120     		movs	r0, #1
 197 0026 091B     		subs	r1, r1, r4
 198 0028 18BF     		it	ne
 199 002a 0121     		movne	r1, #1
 200 002c FFF7FEFF 		bl	_test_assert
 201 0030 08B1     		cbz	r0, .L9
 202              	.L6:
 203              		.loc 1 116 0
 204 0032 06B0     		add	sp, sp, #24
 205 0034 10BD     		pop	{r4, pc}
 206              	.L9:
 207              		.loc 1 106 0
 208 0036 2046     		mov	r0, r4
 209 0038 6946     		mov	r1, sp
 210 003a FFF7FEFF 		bl	chEvtUnregister
 211              		.loc 1 107 0
 212 003e 2268     		ldr	r2, [r4, #0]
 213 0040 0220     		movs	r0, #2
 214 0042 111B     		subs	r1, r2, r4
 215 0044 18BF     		it	ne
 216 0046 0121     		movne	r1, #1
 217 0048 FFF7FEFF 		bl	_test_assert
 218 004c 0028     		cmp	r0, #0
 219 004e F0D1     		bne	.L6
 220              		.loc 1 108 0
 221 0050 2046     		mov	r0, r4
 222 0052 03A9     		add	r1, sp, #12
ARM GAS  C:\Users\z80\AppData\Local\Temp\cc5UgZt9.s 			page 5


 223 0054 FFF7FEFF 		bl	chEvtUnregister
 224              		.loc 1 109 0
 225 0058 2168     		ldr	r1, [r4, #0]
 226 005a 0320     		movs	r0, #3
 227 005c 0B1B     		subs	r3, r1, r4
 228 005e D3F1000C 		rsbs	ip, r3, #0
 229 0062 4CEB0301 		adc	r1, ip, r3
 230 0066 FFF7FEFF 		bl	_test_assert
 231 006a 0028     		cmp	r0, #0
 232 006c E1D1     		bne	.L6
 233              		.loc 1 114 0
 234 006e 40F20000 		movw	r0, #:lower16:.LANCHOR2
 235 0072 0721     		movs	r1, #7
 236 0074 C0F20000 		movt	r0, #:upper16:.LANCHOR2
 237 0078 FFF7FEFF 		bl	chEvtDispatch
 238              		.loc 1 115 0
 239 007c 40F20001 		movw	r1, #:lower16:.LC0
 240 0080 0420     		movs	r0, #4
 241 0082 C0F20001 		movt	r1, #:upper16:.LC0
 242 0086 FFF7FEFF 		bl	_test_assert_sequence
 243 008a D2E7     		b	.L6
 244              		.cfi_endproc
 245              	.LFE11:
 246              		.size	evt1_execute, .-evt1_execute
 247 008c AFF30080 		.section	.text.h3,"ax",%progbits
 248              		.align	2
 249              		.p2align 4,,15
 250              		.thumb
 251              		.thumb_func
 252              		.type	h3, %function
 253              	h3:
 254              	.LFB10:
 255              		.loc 1 93 0
 256              		.cfi_startproc
 257              		@ args = 0, pretend = 0, frame = 0
 258              		@ frame_needed = 0, uses_anonymous_args = 0
 259              		@ link register save eliminated.
 260              	.LVL4:
 261              		.loc 1 93 0
 262 0000 4320     		movs	r0, #67
 263              	.LVL5:
 264 0002 FFF7FEBF 		b	test_emit_token
 265              		.cfi_endproc
 266              	.LFE10:
 267              		.size	h3, .-h3
 268 0006 00BFAFF3 		.section	.text.h2,"ax",%progbits
 268      0080AFF3 
 268      0080
 269              		.align	2
 270              		.p2align 4,,15
 271              		.thumb
 272              		.thumb_func
 273              		.type	h2, %function
 274              	h2:
 275              	.LFB9:
 276              		.loc 1 92 0
 277              		.cfi_startproc
ARM GAS  C:\Users\z80\AppData\Local\Temp\cc5UgZt9.s 			page 6


 278              		@ args = 0, pretend = 0, frame = 0
 279              		@ frame_needed = 0, uses_anonymous_args = 0
 280              		@ link register save eliminated.
 281              	.LVL6:
 282              		.loc 1 92 0
 283 0000 4220     		movs	r0, #66
 284              	.LVL7:
 285 0002 FFF7FEBF 		b	test_emit_token
 286              		.cfi_endproc
 287              	.LFE9:
 288              		.size	h2, .-h2
 289 0006 00BFAFF3 		.section	.text.h1,"ax",%progbits
 289      0080AFF3 
 289      0080
 290              		.align	2
 291              		.p2align 4,,15
 292              		.thumb
 293              		.thumb_func
 294              		.type	h1, %function
 295              	h1:
 296              	.LFB8:
 297              		.loc 1 91 0
 298              		.cfi_startproc
 299              		@ args = 0, pretend = 0, frame = 0
 300              		@ frame_needed = 0, uses_anonymous_args = 0
 301              		@ link register save eliminated.
 302              	.LVL8:
 303              		.loc 1 91 0
 304 0000 4120     		movs	r0, #65
 305              	.LVL9:
 306 0002 FFF7FEBF 		b	test_emit_token
 307              		.cfi_endproc
 308              	.LFE8:
 309              		.size	h1, .-h1
 310 0006 00BFAFF3 		.section	.text.evt3_execute,"ax",%progbits
 310      0080AFF3 
 310      0080
 311              		.align	2
 312              		.p2align 4,,15
 313              		.thumb
 314              		.thumb_func
 315              		.type	evt3_execute, %function
 316              	evt3_execute:
 317              	.LFB17:
 318              		.loc 1 263 0
 319              		.cfi_startproc
 320              		@ args = 0, pretend = 0, frame = 0
 321              		@ frame_needed = 0, uses_anonymous_args = 0
 322 0000 08B5     		push	{r3, lr}
 323              	.LCFI4:
 324              		.cfi_def_cfa_offset 8
 325              		.cfi_offset 14, -4
 326              		.cfi_offset 3, -8
 327              		.loc 1 269 0
 328 0002 0021     		movs	r1, #0
 329 0004 4FF0FF30 		mov	r0, #-1
 330 0008 FFF7FEFF 		bl	chEvtWaitOneTimeout
ARM GAS  C:\Users\z80\AppData\Local\Temp\cc5UgZt9.s 			page 7


 331              	.LVL10:
 332              		.loc 1 270 0
 333 000c D0F10101 		rsbs	r1, r0, #1
 334 0010 38BF     		it	cc
 335 0012 0021     		movcc	r1, #0
 336 0014 0120     		movs	r0, #1
 337              	.LVL11:
 338 0016 FFF7FEFF 		bl	_test_assert
 339 001a 00B1     		cbz	r0, .L15
 340              	.L13:
 341 001c 08BD     		pop	{r3, pc}
 342              	.L15:
 343              		.loc 1 271 0
 344 001e 0146     		mov	r1, r0
 345 0020 4FF0FF30 		mov	r0, #-1
 346 0024 FFF7FEFF 		bl	chEvtWaitAnyTimeout
 347              	.LVL12:
 348              		.loc 1 272 0
 349 0028 D0F10101 		rsbs	r1, r0, #1
 350 002c 38BF     		it	cc
 351 002e 0021     		movcc	r1, #0
 352 0030 0220     		movs	r0, #2
 353              	.LVL13:
 354 0032 FFF7FEFF 		bl	_test_assert
 355 0036 0028     		cmp	r0, #0
 356 0038 F0D1     		bne	.L13
 357              		.loc 1 273 0
 358 003a 0146     		mov	r1, r0
 359 003c 4FF0FF30 		mov	r0, #-1
 360 0040 FFF7FEFF 		bl	chEvtWaitAllTimeout
 361              	.LVL14:
 362              		.loc 1 274 0
 363 0044 D0F10101 		rsbs	r1, r0, #1
 364 0048 38BF     		it	cc
 365 004a 0021     		movcc	r1, #0
 366 004c 0320     		movs	r0, #3
 367              	.LVL15:
 368 004e FFF7FEFF 		bl	_test_assert
 369 0052 0028     		cmp	r0, #0
 370 0054 E2D1     		bne	.L13
 371              	.LBB4:
 372              	.LBB5:
 373              		.loc 1 275 0
 374 0056 0A21     		movs	r1, #10
 375 0058 4FF0FF30 		mov	r0, #-1
 376 005c FFF7FEFF 		bl	chEvtWaitOneTimeout
 377              	.LVL16:
 378              		.loc 1 276 0
 379 0060 D0F10101 		rsbs	r1, r0, #1
 380 0064 38BF     		it	cc
 381 0066 0021     		movcc	r1, #0
 382 0068 0420     		movs	r0, #4
 383              	.LVL17:
 384 006a FFF7FEFF 		bl	_test_assert
 385 006e 0028     		cmp	r0, #0
 386 0070 D4D1     		bne	.L13
 387              		.loc 1 277 0
ARM GAS  C:\Users\z80\AppData\Local\Temp\cc5UgZt9.s 			page 8


 388 0072 0A21     		movs	r1, #10
 389 0074 4FF0FF30 		mov	r0, #-1
 390 0078 FFF7FEFF 		bl	chEvtWaitAnyTimeout
 391              	.LVL18:
 392              		.loc 1 278 0
 393 007c D0F10101 		rsbs	r1, r0, #1
 394 0080 38BF     		it	cc
 395 0082 0021     		movcc	r1, #0
 396 0084 0520     		movs	r0, #5
 397              	.LVL19:
 398 0086 FFF7FEFF 		bl	_test_assert
 399 008a 0028     		cmp	r0, #0
 400 008c C6D1     		bne	.L13
 401              		.loc 1 279 0
 402 008e 0A21     		movs	r1, #10
 403 0090 4FF0FF30 		mov	r0, #-1
 404 0094 FFF7FEFF 		bl	chEvtWaitAllTimeout
 405              	.LVL20:
 406              		.loc 1 280 0
 407 0098 D0F10101 		rsbs	r1, r0, #1
 408 009c 38BF     		it	cc
 409 009e 0021     		movcc	r1, #0
 410 00a0 0620     		movs	r0, #6
 411              	.LVL21:
 412              	.LBE5:
 413              	.LBE4:
 414              		.loc 1 281 0
 415 00a2 BDE80840 		pop	{r3, lr}
 416              	.LBB7:
 417              	.LBB6:
 418              		.loc 1 280 0
 419 00a6 FFF7FEBF 		b	_test_assert
 420              	.LBE6:
 421              	.LBE7:
 422              		.cfi_endproc
 423              	.LFE17:
 424              		.size	evt3_execute, .-evt3_execute
 425 00aa 00BFAFF3 		.section	.text.evt2_execute,"ax",%progbits
 425      0080
 426              		.align	2
 427              		.p2align 4,,15
 428              		.thumb
 429              		.thumb_func
 430              		.type	evt2_execute, %function
 431              	evt2_execute:
 432              	.LFB15:
 433              		.loc 1 160 0
 434              		.cfi_startproc
 435              		@ args = 0, pretend = 0, frame = 24
 436              		@ frame_needed = 0, uses_anonymous_args = 0
 437 0000 2DE9F043 		push	{r4, r5, r6, r7, r8, r9, lr}
 438              	.LCFI5:
 439              		.cfi_def_cfa_offset 28
 440              		.cfi_offset 14, -4
 441              		.cfi_offset 9, -8
 442              		.cfi_offset 8, -12
 443              		.cfi_offset 7, -16
ARM GAS  C:\Users\z80\AppData\Local\Temp\cc5UgZt9.s 			page 9


 444              		.cfi_offset 6, -20
 445              		.cfi_offset 5, -24
 446              		.cfi_offset 4, -28
 447              		.loc 1 168 0
 448 0004 0520     		movs	r0, #5
 449              		.loc 1 160 0
 450 0006 89B0     		sub	sp, sp, #36
 451              	.LCFI6:
 452              		.cfi_def_cfa_offset 64
 453              		.loc 1 168 0
 454 0008 FFF7FEFF 		bl	chEvtAddFlags
 455              		.loc 1 169 0
 456 000c 4FF0FF30 		mov	r0, #-1
 457 0010 FFF7FEFF 		bl	chEvtWaitOne
 458              	.LVL22:
 459              		.loc 1 170 0
 460 0014 A0F10100 		sub	r0, r0, #1
 461              	.LVL23:
 462 0018 4142     		rsbs	r1, r0, #0
 463 001a 41EB0001 		adc	r1, r1, r0
 464 001e 0120     		movs	r0, #1
 465              	.LVL24:
 466 0020 FFF7FEFF 		bl	_test_assert
 467 0024 10B1     		cbz	r0, .L18
 468              	.L16:
 469              		.loc 1 233 0
 470 0026 09B0     		add	sp, sp, #36
 471 0028 BDE8F083 		pop	{r4, r5, r6, r7, r8, r9, pc}
 472              	.L18:
 473              		.loc 1 171 0
 474 002c 4FF0FF30 		mov	r0, #-1
 475 0030 FFF7FEFF 		bl	chEvtWaitOne
 476              	.LVL25:
 477              		.loc 1 172 0
 478 0034 A0F10403 		sub	r3, r0, #4
 479 0038 5A42     		rsbs	r2, r3, #0
 480 003a 42EB0301 		adc	r1, r2, r3
 481 003e 0220     		movs	r0, #2
 482              	.LVL26:
 483 0040 FFF7FEFF 		bl	_test_assert
 484              	.LVL27:
 485 0044 0028     		cmp	r0, #0
 486 0046 EED1     		bne	.L16
 487              		.loc 1 173 0
 488 0048 4FF0FF30 		mov	r0, #-1
 489 004c FFF7FEFF 		bl	chEvtClearFlags
 490              	.LVL28:
 491              		.loc 1 174 0
 492 0050 D0F10101 		rsbs	r1, r0, #1
 493 0054 38BF     		it	cc
 494 0056 0021     		movcc	r1, #0
 495 0058 0320     		movs	r0, #3
 496              	.LVL29:
 497 005a FFF7FEFF 		bl	_test_assert
 498 005e 0028     		cmp	r0, #0
 499 0060 E1D1     		bne	.L16
 500              	.LBB10:
ARM GAS  C:\Users\z80\AppData\Local\Temp\cc5UgZt9.s 			page 10


 501              	.LBB11:
 502              		.loc 1 181 0
 503 0062 40F20006 		movw	r6, #:lower16:rlist
 504 0066 C0F20006 		movt	r6, #:upper16:rlist
 505              		.loc 1 179 0
 506 006a FFF7FEFF 		bl	test_wait_tick
 507              		.loc 1 181 0
 508 006e 40F20005 		movw	r5, #:lower16:wa
 509 0072 F469     		ldr	r4, [r6, #28]
 510 0074 C0F20005 		movt	r5, #:upper16:wa
 511 0078 A768     		ldr	r7, [r4, #8]
 512 007a D5F80080 		ldr	r8, [r5, #0]
 513 007e 40F20003 		movw	r3, #:lower16:thread1
 514              		.loc 1 180 0
 515 0082 40F20005 		movw	r5, #:lower16:vtlist
 516              		.loc 1 181 0
 517 0086 7A1E     		subs	r2, r7, #1
 518 0088 4FF49871 		mov	r1, #304
 519 008c C0F20003 		movt	r3, #:upper16:thread1
 520              		.loc 1 180 0
 521 0090 C0F20005 		movt	r5, #:upper16:vtlist
 522              		.loc 1 181 0
 523 0094 4046     		mov	r0, r8
 524              		.loc 1 180 0
 525 0096 EF68     		ldr	r7, [r5, #12]
 526              	.LVL30:
 527              		.loc 1 181 0
 528 0098 0094     		str	r4, [sp, #0]
 529 009a FFF7FEFF 		bl	chThdCreateStatic
 530 009e 40F20004 		movw	r4, #:lower16:threads
 531 00a2 C0F20004 		movt	r4, #:upper16:threads
 532 00a6 2060     		str	r0, [r4, #0]
 533              		.loc 1 183 0
 534 00a8 4FF0FF30 		mov	r0, #-1
 535 00ac FFF7FEFF 		bl	chEvtWaitOne
 536              		.loc 1 184 0
 537 00b0 07F11901 		add	r1, r7, #25
 538              		.loc 1 183 0
 539 00b4 8146     		mov	r9, r0
 540              	.LVL31:
 541              		.loc 1 184 0
 542 00b6 07F11C02 		add	r2, r7, #28
 543 00ba 0420     		movs	r0, #4
 544              	.LVL32:
 545 00bc FFF7FEFF 		bl	_test_assert_time_window
 546 00c0 0028     		cmp	r0, #0
 547 00c2 B0D1     		bne	.L16
 548              		.loc 1 185 0
 549 00c4 A9F10101 		sub	r1, r9, #1
 550 00c8 0520     		movs	r0, #5
 551 00ca D1F1000C 		rsbs	ip, r1, #0
 552 00ce 4CEB0101 		adc	r1, ip, r1
 553 00d2 FFF7FEFF 		bl	_test_assert
 554 00d6 0028     		cmp	r0, #0
 555 00d8 A5D1     		bne	.L16
 556              		.loc 1 186 0
 557 00da 4FF0FF30 		mov	r0, #-1
ARM GAS  C:\Users\z80\AppData\Local\Temp\cc5UgZt9.s 			page 11


 558 00de FFF7FEFF 		bl	chEvtClearFlags
 559              	.LVL33:
 560              		.loc 1 187 0
 561 00e2 D0F10101 		rsbs	r1, r0, #1
 562 00e6 38BF     		it	cc
 563 00e8 0021     		movcc	r1, #0
 564 00ea 0620     		movs	r0, #6
 565              	.LVL34:
 566 00ec FFF7FEFF 		bl	_test_assert
 567 00f0 0028     		cmp	r0, #0
 568 00f2 98D1     		bne	.L16
 569              		.loc 1 188 0
 570 00f4 FFF7FEFF 		bl	test_wait_threads
 571              		.loc 1 193 0
 572 00f8 0520     		movs	r0, #5
 573 00fa FFF7FEFF 		bl	chEvtAddFlags
 574              		.loc 1 194 0
 575 00fe 4FF0FF30 		mov	r0, #-1
 576 0102 FFF7FEFF 		bl	chEvtWaitAny
 577              	.LVL35:
 578              		.loc 1 195 0
 579 0106 A0F10502 		sub	r2, r0, #5
 580 010a 5042     		rsbs	r0, r2, #0
 581              	.LVL36:
 582 010c 40EB0201 		adc	r1, r0, r2
 583 0110 0720     		movs	r0, #7
 584 0112 FFF7FEFF 		bl	_test_assert
 585              	.LVL37:
 586 0116 0028     		cmp	r0, #0
 587 0118 85D1     		bne	.L16
 588              		.loc 1 196 0
 589 011a 4FF0FF30 		mov	r0, #-1
 590 011e FFF7FEFF 		bl	chEvtClearFlags
 591              	.LVL38:
 592              		.loc 1 197 0
 593 0122 D0F10101 		rsbs	r1, r0, #1
 594 0126 38BF     		it	cc
 595 0128 0021     		movcc	r1, #0
 596 012a 0820     		movs	r0, #8
 597              	.LVL39:
 598 012c FFF7FEFF 		bl	_test_assert
 599 0130 0028     		cmp	r0, #0
 600 0132 7FF478AF 		bne	.L16
 601              		.loc 1 202 0
 602 0136 FFF7FEFF 		bl	test_wait_tick
 603              		.loc 1 204 0
 604 013a D6F81CE0 		ldr	lr, [r6, #28]
 605 013e 40F20003 		movw	r3, #:lower16:thread1
 606 0142 DEF80870 		ldr	r7, [lr, #8]
 607              	.LVL40:
 608 0146 4FF49871 		mov	r1, #304
 609 014a 7A1E     		subs	r2, r7, #1
 610 014c C0F20003 		movt	r3, #:upper16:thread1
 611 0150 4046     		mov	r0, r8
 612              		.loc 1 203 0
 613 0152 EF68     		ldr	r7, [r5, #12]
 614              	.LVL41:
ARM GAS  C:\Users\z80\AppData\Local\Temp\cc5UgZt9.s 			page 12


 615              		.loc 1 204 0
 616 0154 CDF800E0 		str	lr, [sp, #0]
 617 0158 FFF7FEFF 		bl	chThdCreateStatic
 618 015c 2060     		str	r0, [r4, #0]
 619              		.loc 1 206 0
 620 015e 4FF0FF30 		mov	r0, #-1
 621 0162 FFF7FEFF 		bl	chEvtWaitAny
 622              		.loc 1 207 0
 623 0166 07F11901 		add	r1, r7, #25
 624              		.loc 1 206 0
 625 016a 8146     		mov	r9, r0
 626              	.LVL42:
 627              		.loc 1 207 0
 628 016c 07F11C02 		add	r2, r7, #28
 629 0170 0920     		movs	r0, #9
 630              	.LVL43:
 631 0172 FFF7FEFF 		bl	_test_assert_time_window
 632 0176 0028     		cmp	r0, #0
 633 0178 7FF455AF 		bne	.L16
 634              		.loc 1 208 0
 635 017c A9F10101 		sub	r1, r9, #1
 636 0180 0A20     		movs	r0, #10
 637 0182 4B42     		rsbs	r3, r1, #0
 638 0184 43EB0101 		adc	r1, r3, r1
 639 0188 FFF7FEFF 		bl	_test_assert
 640 018c 0028     		cmp	r0, #0
 641 018e 7FF44AAF 		bne	.L16
 642              		.loc 1 209 0
 643 0192 4FF0FF30 		mov	r0, #-1
 644 0196 FFF7FEFF 		bl	chEvtClearFlags
 645              	.LVL44:
 646              		.loc 1 210 0
 647 019a D0F10101 		rsbs	r1, r0, #1
 648 019e 38BF     		it	cc
 649 01a0 0021     		movcc	r1, #0
 650 01a2 0B20     		movs	r0, #11
 651              	.LVL45:
 652 01a4 FFF7FEFF 		bl	_test_assert
 653 01a8 0028     		cmp	r0, #0
 654 01aa 7FF43CAF 		bne	.L16
 655              		.loc 1 216 0
 656 01ae 40F20007 		movw	r7, #:lower16:.LANCHOR0
 657              	.LVL46:
 658              		.loc 1 217 0
 659 01b2 40F20009 		movw	r9, #:lower16:.LANCHOR1
 660              		.loc 1 216 0
 661 01b6 C0F20007 		movt	r7, #:upper16:.LANCHOR0
 662              		.loc 1 217 0
 663 01ba C0F20009 		movt	r9, #:upper16:.LANCHOR1
 664              		.loc 1 211 0
 665 01be FFF7FEFF 		bl	test_wait_threads
 666              		.loc 1 218 0
 667 01c2 3846     		mov	r0, r7
 668 01c4 02A9     		add	r1, sp, #8
 669 01c6 0122     		movs	r2, #1
 670              		.loc 1 216 0
 671 01c8 3F60     		str	r7, [r7, #0]
ARM GAS  C:\Users\z80\AppData\Local\Temp\cc5UgZt9.s 			page 13


 672              		.loc 1 217 0
 673 01ca C9F80090 		str	r9, [r9, #0]
 674              		.loc 1 218 0
 675 01ce FFF7FEFF 		bl	chEvtRegisterMask
 676              		.loc 1 219 0
 677 01d2 05A9     		add	r1, sp, #20
 678 01d4 0422     		movs	r2, #4
 679 01d6 4846     		mov	r0, r9
 680 01d8 FFF7FEFF 		bl	chEvtRegisterMask
 681              		.loc 1 220 0
 682 01dc FFF7FEFF 		bl	test_wait_tick
 683              		.loc 1 222 0
 684 01e0 F269     		ldr	r2, [r6, #28]
 685 01e2 40F20003 		movw	r3, #:lower16:thread2
 686 01e6 9068     		ldr	r0, [r2, #8]
 687 01e8 40F20006 		movw	r6, #:lower16:.LC1
 688 01ec 421E     		subs	r2, r0, #1
 689 01ee 4FF49871 		mov	r1, #304
 690 01f2 C0F20003 		movt	r3, #:upper16:thread2
 691 01f6 C0F20006 		movt	r6, #:upper16:.LC1
 692 01fa 4046     		mov	r0, r8
 693              		.loc 1 221 0
 694 01fc ED68     		ldr	r5, [r5, #12]
 695              	.LVL47:
 696              		.loc 1 222 0
 697 01fe 0096     		str	r6, [sp, #0]
 698 0200 FFF7FEFF 		bl	chThdCreateStatic
 699 0204 2060     		str	r0, [r4, #0]
 700              		.loc 1 224 0
 701 0206 0520     		movs	r0, #5
 702 0208 FFF7FEFF 		bl	chEvtWaitAll
 703              		.loc 1 225 0
 704 020c 0C20     		movs	r0, #12
 705 020e 05F11901 		add	r1, r5, #25
 706 0212 05F11C02 		add	r2, r5, #28
 707 0216 FFF7FEFF 		bl	_test_assert_time_window
 708 021a 0028     		cmp	r0, #0
 709 021c 7FF403AF 		bne	.L16
 710              		.loc 1 226 0
 711 0220 4FF0FF30 		mov	r0, #-1
 712 0224 FFF7FEFF 		bl	chEvtClearFlags
 713              	.LVL48:
 714              		.loc 1 227 0
 715 0228 D0F10101 		rsbs	r1, r0, #1
 716 022c 38BF     		it	cc
 717 022e 0021     		movcc	r1, #0
 718 0230 0D20     		movs	r0, #13
 719              	.LVL49:
 720 0232 FFF7FEFF 		bl	_test_assert
 721 0236 0028     		cmp	r0, #0
 722 0238 7FF4F5AE 		bne	.L16
 723              		.loc 1 228 0
 724 023c FFF7FEFF 		bl	test_wait_threads
 725              		.loc 1 229 0
 726 0240 3846     		mov	r0, r7
 727 0242 02A9     		add	r1, sp, #8
 728 0244 FFF7FEFF 		bl	chEvtUnregister
ARM GAS  C:\Users\z80\AppData\Local\Temp\cc5UgZt9.s 			page 14


 729              		.loc 1 230 0
 730 0248 4846     		mov	r0, r9
 731 024a 05A9     		add	r1, sp, #20
 732 024c FFF7FEFF 		bl	chEvtUnregister
 733              		.loc 1 231 0
 734 0250 3A68     		ldr	r2, [r7, #0]
 735 0252 0E20     		movs	r0, #14
 736 0254 D11B     		subs	r1, r2, r7
 737 0256 4B42     		rsbs	r3, r1, #0
 738 0258 43EB0101 		adc	r1, r3, r1
 739 025c FFF7FEFF 		bl	_test_assert
 740 0260 0028     		cmp	r0, #0
 741 0262 7FF4E0AE 		bne	.L16
 742              		.loc 1 232 0
 743 0266 D9F80020 		ldr	r2, [r9, #0]
 744 026a 0F20     		movs	r0, #15
 745 026c C9EB0201 		rsb	r1, r9, r2
 746 0270 4B42     		rsbs	r3, r1, #0
 747 0272 43EB0101 		adc	r1, r3, r1
 748 0276 FFF7FEFF 		bl	_test_assert
 749 027a D4E6     		b	.L16
 750              	.LBE11:
 751              	.LBE10:
 752              		.cfi_endproc
 753              	.LFE15:
 754              		.size	evt2_execute, .-evt2_execute
 755              		.global	patternevt
 756              		.global	testevt3
 757              		.global	testevt2
 758              		.global	testevt1
 759 027c AFF30080 		.section	.rodata.patternevt,"a",%progbits
 760              		.align	2
 761              		.type	patternevt, %object
 762              		.size	patternevt, 16
 763              	patternevt:
 764 0000 00000000 		.word	testevt1
 765 0004 00000000 		.word	testevt2
 766 0008 00000000 		.word	testevt3
 767 000c 00000000 		.word	0
 768              		.section	.rodata.testevt2,"a",%progbits
 769              		.align	2
 770              		.type	testevt2, %object
 771              		.size	testevt2, 16
 772              	testevt2:
 773 0000 1C000000 		.word	.LC3
 774 0004 00000000 		.word	evt2_setup
 775 0008 00000000 		.word	0
 776 000c 00000000 		.word	evt2_execute
 777              		.section	.rodata.str1.4,"aMS",%progbits,1
 778              		.align	2
 779              	.LC0:
 780 0000 41424300 		.ascii	"ABC\000"
 781              	.LC1:
 782 0004 4100     		.ascii	"A\000"
 783 0006 0000     		.space	2
 784              	.LC2:
 785 0008 4576656E 		.ascii	"Events, timeouts\000"
ARM GAS  C:\Users\z80\AppData\Local\Temp\cc5UgZt9.s 			page 15


 785      74732C20 
 785      74696D65 
 785      6F757473 
 785      00
 786 0019 000000   		.space	3
 787              	.LC3:
 788 001c 4576656E 		.ascii	"Events, wait and broadcast\000"
 788      74732C20 
 788      77616974 
 788      20616E64 
 788      2062726F 
 789 0037 00       		.space	1
 790              	.LC4:
 791 0038 4576656E 		.ascii	"Events, registration and dispatch\000"
 791      74732C20 
 791      72656769 
 791      73747261 
 791      74696F6E 
 792 005a 0000     		.section	.rodata.testevt1,"a",%progbits
 793              		.align	2
 794              		.type	testevt1, %object
 795              		.size	testevt1, 16
 796              	testevt1:
 797 0000 38000000 		.word	.LC4
 798 0004 00000000 		.word	evt1_setup
 799 0008 00000000 		.word	0
 800 000c 00000000 		.word	evt1_execute
 801              		.section	.rodata.evhndl,"a",%progbits
 802              		.align	2
 803              		.set	.LANCHOR2,. + 0
 804              		.type	evhndl, %object
 805              		.size	evhndl, 12
 806              	evhndl:
 807 0000 00000000 		.word	h1
 808 0004 00000000 		.word	h2
 809 0008 00000000 		.word	h3
 810              		.section	.rodata.testevt3,"a",%progbits
 811              		.align	2
 812              		.type	testevt3, %object
 813              		.size	testevt3, 16
 814              	testevt3:
 815 0000 08000000 		.word	.LC2
 816 0004 00000000 		.word	evt3_setup
 817 0008 00000000 		.word	0
 818 000c 00000000 		.word	evt3_execute
 819              		.section	.data.es1,"aw",%progbits
 820              		.align	2
 821              		.set	.LANCHOR0,. + 0
 822              		.type	es1, %object
 823              		.size	es1, 4
 824              	es1:
 825 0000 00000000 		.word	es1
 826              		.section	.data.es2,"aw",%progbits
 827              		.align	2
 828              		.set	.LANCHOR1,. + 0
 829              		.type	es2, %object
 830              		.size	es2, 4
ARM GAS  C:\Users\z80\AppData\Local\Temp\cc5UgZt9.s 			page 16


 831              	es2:
 832 0000 00000000 		.word	es2
 833              		.text
 834              	.Letext0:
 835              		.file 2 "c:\\programs\\codesourcery\\2011.03-56\\bin\\../lib/gcc/arm-none-eabi/4.6.3/../../../../a
 836              		.file 3 "../chibios_2.4.x/os/ports/GCC/ARMCMx/chtypes.h"
 837              		.file 4 "../chibios_2.4.x/os/kernel/include/chlists.h"
 838              		.file 5 "../chibios_2.4.x/os/kernel/include/chthreads.h"
 839              		.file 6 "../chibios_2.4.x/os/ports/GCC/ARMCMx/chcore_v7m.h"
 840              		.file 7 "../chibios_2.4.x/os/kernel/include/chvt.h"
 841              		.file 8 "../chibios_2.4.x/os/kernel/include/chschd.h"
 842              		.file 9 "../chibios_2.4.x/os/kernel/include/chmtx.h"
 843              		.file 10 "../chibios_2.4.x/os/kernel/include/chevents.h"
 844              		.file 11 "../chibios_2.4.x/test/test.h"
 845              		.section	.debug_info,"",%progbits
 846              	.Ldebug_info0:
 847 0000 10090000 		.4byte	0x910
 848 0004 0200     		.2byte	0x2
 849 0006 00000000 		.4byte	.Ldebug_abbrev0
 850 000a 04       		.byte	0x4
 851 000b 01       		.uleb128 0x1
 852 000c 0A030000 		.4byte	.LASF100
 853 0010 01       		.byte	0x1
 854 0011 16030000 		.4byte	.LASF101
 855 0015 7E000000 		.4byte	.LASF102
 856 0019 00000000 		.4byte	0
 857 001d 00000000 		.4byte	0
 858 0021 30000000 		.4byte	.Ldebug_ranges0+0x30
 859 0025 00000000 		.4byte	.Ldebug_line0
 860 0029 02       		.uleb128 0x2
 861 002a 04       		.byte	0x4
 862 002b 05       		.byte	0x5
 863 002c 696E7400 		.ascii	"int\000"
 864 0030 03       		.uleb128 0x3
 865 0031 04       		.byte	0x4
 866 0032 07       		.byte	0x7
 867 0033 2F010000 		.4byte	.LASF0
 868 0037 03       		.uleb128 0x3
 869 0038 01       		.byte	0x1
 870 0039 06       		.byte	0x6
 871 003a 6A000000 		.4byte	.LASF1
 872 003e 04       		.uleb128 0x4
 873 003f 98030000 		.4byte	.LASF5
 874 0043 02       		.byte	0x2
 875 0044 2A       		.byte	0x2a
 876 0045 49000000 		.4byte	0x49
 877 0049 03       		.uleb128 0x3
 878 004a 01       		.byte	0x1
 879 004b 08       		.byte	0x8
 880 004c 59020000 		.4byte	.LASF2
 881 0050 03       		.uleb128 0x3
 882 0051 02       		.byte	0x2
 883 0052 05       		.byte	0x5
 884 0053 8A020000 		.4byte	.LASF3
 885 0057 03       		.uleb128 0x3
 886 0058 02       		.byte	0x2
 887 0059 07       		.byte	0x7
ARM GAS  C:\Users\z80\AppData\Local\Temp\cc5UgZt9.s 			page 17


 888 005a 77010000 		.4byte	.LASF4
 889 005e 04       		.uleb128 0x4
 890 005f 51020000 		.4byte	.LASF6
 891 0063 02       		.byte	0x2
 892 0064 4F       		.byte	0x4f
 893 0065 69000000 		.4byte	0x69
 894 0069 03       		.uleb128 0x3
 895 006a 04       		.byte	0x4
 896 006b 05       		.byte	0x5
 897 006c AB000000 		.4byte	.LASF7
 898 0070 04       		.uleb128 0x4
 899 0071 EC020000 		.4byte	.LASF8
 900 0075 02       		.byte	0x2
 901 0076 50       		.byte	0x50
 902 0077 7B000000 		.4byte	0x7b
 903 007b 03       		.uleb128 0x3
 904 007c 04       		.byte	0x4
 905 007d 07       		.byte	0x7
 906 007e 44010000 		.4byte	.LASF9
 907 0082 03       		.uleb128 0x3
 908 0083 08       		.byte	0x8
 909 0084 05       		.byte	0x5
 910 0085 5C000000 		.4byte	.LASF10
 911 0089 04       		.uleb128 0x4
 912 008a 18000000 		.4byte	.LASF11
 913 008e 02       		.byte	0x2
 914 008f 78       		.byte	0x78
 915 0090 94000000 		.4byte	0x94
 916 0094 03       		.uleb128 0x3
 917 0095 08       		.byte	0x8
 918 0096 07       		.byte	0x7
 919 0097 28000000 		.4byte	.LASF12
 920 009b 04       		.uleb128 0x4
 921 009c 98010000 		.4byte	.LASF13
 922 00a0 03       		.byte	0x3
 923 00a1 2F       		.byte	0x2f
 924 00a2 3E000000 		.4byte	0x3e
 925 00a6 04       		.uleb128 0x4
 926 00a7 C0000000 		.4byte	.LASF14
 927 00ab 03       		.byte	0x3
 928 00ac 30       		.byte	0x30
 929 00ad 3E000000 		.4byte	0x3e
 930 00b1 04       		.uleb128 0x4
 931 00b2 49020000 		.4byte	.LASF15
 932 00b6 03       		.byte	0x3
 933 00b7 32       		.byte	0x32
 934 00b8 70000000 		.4byte	0x70
 935 00bc 04       		.uleb128 0x4
 936 00bd 8A010000 		.4byte	.LASF16
 937 00c1 03       		.byte	0x3
 938 00c2 33       		.byte	0x33
 939 00c3 5E000000 		.4byte	0x5e
 940 00c7 04       		.uleb128 0x4
 941 00c8 FC000000 		.4byte	.LASF17
 942 00cc 03       		.byte	0x3
 943 00cd 34       		.byte	0x34
 944 00ce 5E000000 		.4byte	0x5e
ARM GAS  C:\Users\z80\AppData\Local\Temp\cc5UgZt9.s 			page 18


 945 00d2 04       		.uleb128 0x4
 946 00d3 AC010000 		.4byte	.LASF18
 947 00d7 03       		.byte	0x3
 948 00d8 35       		.byte	0x35
 949 00d9 70000000 		.4byte	0x70
 950 00dd 04       		.uleb128 0x4
 951 00de 42030000 		.4byte	.LASF19
 952 00e2 03       		.byte	0x3
 953 00e3 36       		.byte	0x36
 954 00e4 70000000 		.4byte	0x70
 955 00e8 04       		.uleb128 0x4
 956 00e9 1E010000 		.4byte	.LASF20
 957 00ed 03       		.byte	0x3
 958 00ee 37       		.byte	0x37
 959 00ef 5E000000 		.4byte	0x5e
 960 00f3 04       		.uleb128 0x4
 961 00f4 C1020000 		.4byte	.LASF21
 962 00f8 04       		.byte	0x4
 963 00f9 2A       		.byte	0x2a
 964 00fa FE000000 		.4byte	0xfe
 965 00fe 05       		.uleb128 0x5
 966 00ff C1020000 		.4byte	.LASF21
 967 0103 48       		.byte	0x48
 968 0104 05       		.byte	0x5
 969 0105 5E       		.byte	0x5e
 970 0106 07020000 		.4byte	0x207
 971 010a 06       		.uleb128 0x6
 972 010b B2020000 		.4byte	.LASF22
 973 010f 05       		.byte	0x5
 974 0110 5F       		.byte	0x5f
 975 0111 2C020000 		.4byte	0x22c
 976 0115 02       		.byte	0x2
 977 0116 23       		.byte	0x23
 978 0117 00       		.uleb128 0
 979 0118 06       		.uleb128 0x6
 980 0119 3A020000 		.4byte	.LASF23
 981 011d 05       		.byte	0x5
 982 011e 61       		.byte	0x61
 983 011f 2C020000 		.4byte	0x22c
 984 0123 02       		.byte	0x2
 985 0124 23       		.byte	0x23
 986 0125 04       		.uleb128 0x4
 987 0126 06       		.uleb128 0x6
 988 0127 48000000 		.4byte	.LASF24
 989 012b 05       		.byte	0x5
 990 012c 63       		.byte	0x63
 991 012d B1000000 		.4byte	0xb1
 992 0131 02       		.byte	0x2
 993 0132 23       		.byte	0x23
 994 0133 08       		.uleb128 0x8
 995 0134 06       		.uleb128 0x6
 996 0135 ED030000 		.4byte	.LASF25
 997 0139 05       		.byte	0x5
 998 013a 64       		.byte	0x64
 999 013b 04030000 		.4byte	0x304
 1000 013f 02       		.byte	0x2
 1001 0140 23       		.byte	0x23
ARM GAS  C:\Users\z80\AppData\Local\Temp\cc5UgZt9.s 			page 19


 1002 0141 0C       		.uleb128 0xc
 1003 0142 06       		.uleb128 0x6
 1004 0143 DB000000 		.4byte	.LASF26
 1005 0147 05       		.byte	0x5
 1006 0148 66       		.byte	0x66
 1007 0149 2C020000 		.4byte	0x22c
 1008 014d 02       		.byte	0x2
 1009 014e 23       		.byte	0x23
 1010 014f 10       		.uleb128 0x10
 1011 0150 06       		.uleb128 0x6
 1012 0151 EF010000 		.4byte	.LASF27
 1013 0155 05       		.byte	0x5
 1014 0156 67       		.byte	0x67
 1015 0157 2C020000 		.4byte	0x22c
 1016 015b 02       		.byte	0x2
 1017 015c 23       		.byte	0x23
 1018 015d 14       		.uleb128 0x14
 1019 015e 06       		.uleb128 0x6
 1020 015f B5030000 		.4byte	.LASF28
 1021 0163 05       		.byte	0x5
 1022 0164 6E       		.byte	0x6e
 1023 0165 77050000 		.4byte	0x577
 1024 0169 02       		.byte	0x2
 1025 016a 23       		.byte	0x23
 1026 016b 18       		.uleb128 0x18
 1027 016c 06       		.uleb128 0x6
 1028 016d 24010000 		.4byte	.LASF29
 1029 0171 05       		.byte	0x5
 1030 0172 74       		.byte	0x74
 1031 0173 89050000 		.4byte	0x589
 1032 0177 02       		.byte	0x2
 1033 0178 23       		.byte	0x23
 1034 0179 1C       		.uleb128 0x1c
 1035 017a 06       		.uleb128 0x6
 1036 017b 94020000 		.4byte	.LASF30
 1037 017f 05       		.byte	0x5
 1038 0180 79       		.byte	0x79
 1039 0181 A6000000 		.4byte	0xa6
 1040 0185 02       		.byte	0x2
 1041 0186 23       		.byte	0x23
 1042 0187 20       		.uleb128 0x20
 1043 0188 06       		.uleb128 0x6
 1044 0189 B9020000 		.4byte	.LASF31
 1045 018d 05       		.byte	0x5
 1046 018e 7D       		.byte	0x7d
 1047 018f 9B000000 		.4byte	0x9b
 1048 0193 02       		.byte	0x2
 1049 0194 23       		.byte	0x23
 1050 0195 21       		.uleb128 0x21
 1051 0196 06       		.uleb128 0x6
 1052 0197 60030000 		.4byte	.LASF32
 1053 019b 05       		.byte	0x5
 1054 019c 89       		.byte	0x89
 1055 019d E9030000 		.4byte	0x3e9
 1056 01a1 02       		.byte	0x2
 1057 01a2 23       		.byte	0x23
 1058 01a3 24       		.uleb128 0x24
ARM GAS  C:\Users\z80\AppData\Local\Temp\cc5UgZt9.s 			page 20


 1059 01a4 07       		.uleb128 0x7
 1060 01a5 705F7500 		.ascii	"p_u\000"
 1061 01a9 05       		.byte	0x5
 1062 01aa AE       		.byte	0xae
 1063 01ab 42050000 		.4byte	0x542
 1064 01af 02       		.byte	0x2
 1065 01b0 23       		.byte	0x23
 1066 01b1 28       		.uleb128 0x28
 1067 01b2 06       		.uleb128 0x6
 1068 01b3 F3030000 		.4byte	.LASF33
 1069 01b7 05       		.byte	0x5
 1070 01b8 B3       		.byte	0xb3
 1071 01b9 54020000 		.4byte	0x254
 1072 01bd 02       		.byte	0x2
 1073 01be 23       		.byte	0x23
 1074 01bf 2C       		.uleb128 0x2c
 1075 01c0 06       		.uleb128 0x6
 1076 01c1 6E030000 		.4byte	.LASF34
 1077 01c5 05       		.byte	0x5
 1078 01c6 B9       		.byte	0xb9
 1079 01c7 32020000 		.4byte	0x232
 1080 01cb 02       		.byte	0x2
 1081 01cc 23       		.byte	0x23
 1082 01cd 30       		.uleb128 0x30
 1083 01ce 06       		.uleb128 0x6
 1084 01cf 0B000000 		.4byte	.LASF35
 1085 01d3 05       		.byte	0x5
 1086 01d4 BD       		.byte	0xbd
 1087 01d5 BC000000 		.4byte	0xbc
 1088 01d9 02       		.byte	0x2
 1089 01da 23       		.byte	0x23
 1090 01db 38       		.uleb128 0x38
 1091 01dc 06       		.uleb128 0x6
 1092 01dd D1020000 		.4byte	.LASF36
 1093 01e1 05       		.byte	0x5
 1094 01e2 C3       		.byte	0xc3
 1095 01e3 D2000000 		.4byte	0xd2
 1096 01e7 02       		.byte	0x2
 1097 01e8 23       		.byte	0x23
 1098 01e9 3C       		.uleb128 0x3c
 1099 01ea 06       		.uleb128 0x6
 1100 01eb 80020000 		.4byte	.LASF37
 1101 01ef 05       		.byte	0x5
 1102 01f0 CA       		.byte	0xca
 1103 01f1 8F050000 		.4byte	0x58f
 1104 01f5 02       		.byte	0x2
 1105 01f6 23       		.byte	0x23
 1106 01f7 40       		.uleb128 0x40
 1107 01f8 06       		.uleb128 0x6
 1108 01f9 4C030000 		.4byte	.LASF38
 1109 01fd 05       		.byte	0x5
 1110 01fe CE       		.byte	0xce
 1111 01ff B1000000 		.4byte	0xb1
 1112 0203 02       		.byte	0x2
 1113 0204 23       		.byte	0x23
 1114 0205 44       		.uleb128 0x44
 1115 0206 00       		.byte	0
ARM GAS  C:\Users\z80\AppData\Local\Temp\cc5UgZt9.s 			page 21


 1116 0207 08       		.uleb128 0x8
 1117 0208 08       		.byte	0x8
 1118 0209 04       		.byte	0x4
 1119 020a 61       		.byte	0x61
 1120 020b 2C020000 		.4byte	0x22c
 1121 020f 06       		.uleb128 0x6
 1122 0210 B2020000 		.4byte	.LASF22
 1123 0214 04       		.byte	0x4
 1124 0215 62       		.byte	0x62
 1125 0216 2C020000 		.4byte	0x22c
 1126 021a 02       		.byte	0x2
 1127 021b 23       		.byte	0x23
 1128 021c 00       		.uleb128 0
 1129 021d 06       		.uleb128 0x6
 1130 021e 3A020000 		.4byte	.LASF23
 1131 0222 04       		.byte	0x4
 1132 0223 64       		.byte	0x64
 1133 0224 2C020000 		.4byte	0x22c
 1134 0228 02       		.byte	0x2
 1135 0229 23       		.byte	0x23
 1136 022a 04       		.uleb128 0x4
 1137 022b 00       		.byte	0
 1138 022c 09       		.uleb128 0x9
 1139 022d 04       		.byte	0x4
 1140 022e F3000000 		.4byte	0xf3
 1141 0232 04       		.uleb128 0x4
 1142 0233 0D020000 		.4byte	.LASF39
 1143 0237 04       		.byte	0x4
 1144 0238 66       		.byte	0x66
 1145 0239 07020000 		.4byte	0x207
 1146 023d 08       		.uleb128 0x8
 1147 023e 04       		.byte	0x4
 1148 023f 04       		.byte	0x4
 1149 0240 6B       		.byte	0x6b
 1150 0241 54020000 		.4byte	0x254
 1151 0245 06       		.uleb128 0x6
 1152 0246 B2020000 		.4byte	.LASF22
 1153 024a 04       		.byte	0x4
 1154 024b 6D       		.byte	0x6d
 1155 024c 2C020000 		.4byte	0x22c
 1156 0250 02       		.byte	0x2
 1157 0251 23       		.byte	0x23
 1158 0252 00       		.uleb128 0
 1159 0253 00       		.byte	0
 1160 0254 04       		.uleb128 0x4
 1161 0255 A0010000 		.4byte	.LASF40
 1162 0259 04       		.byte	0x4
 1163 025a 70       		.byte	0x70
 1164 025b 3D020000 		.4byte	0x23d
 1165 025f 04       		.uleb128 0x4
 1166 0260 EB000000 		.4byte	.LASF41
 1167 0264 06       		.byte	0x6
 1168 0265 D7       		.byte	0xd7
 1169 0266 6A020000 		.4byte	0x26a
 1170 026a 0A       		.uleb128 0xa
 1171 026b 04       		.byte	0x4
 1172 026c 04       		.uleb128 0x4
ARM GAS  C:\Users\z80\AppData\Local\Temp\cc5UgZt9.s 			page 22


 1173 026d BE010000 		.4byte	.LASF42
 1174 0271 06       		.byte	0x6
 1175 0272 DD       		.byte	0xdd
 1176 0273 89000000 		.4byte	0x89
 1177 0277 05       		.uleb128 0x5
 1178 0278 67030000 		.4byte	.LASF43
 1179 027c 24       		.byte	0x24
 1180 027d 06       		.byte	0x6
 1181 027e FE       		.byte	0xfe
 1182 027f 04030000 		.4byte	0x304
 1183 0283 0B       		.uleb128 0xb
 1184 0284 723400   		.ascii	"r4\000"
 1185 0287 06       		.byte	0x6
 1186 0288 1101     		.2byte	0x111
 1187 028a 5F020000 		.4byte	0x25f
 1188 028e 02       		.byte	0x2
 1189 028f 23       		.byte	0x23
 1190 0290 00       		.uleb128 0
 1191 0291 0B       		.uleb128 0xb
 1192 0292 723500   		.ascii	"r5\000"
 1193 0295 06       		.byte	0x6
 1194 0296 1201     		.2byte	0x112
 1195 0298 5F020000 		.4byte	0x25f
 1196 029c 02       		.byte	0x2
 1197 029d 23       		.byte	0x23
 1198 029e 04       		.uleb128 0x4
 1199 029f 0B       		.uleb128 0xb
 1200 02a0 723600   		.ascii	"r6\000"
 1201 02a3 06       		.byte	0x6
 1202 02a4 1301     		.2byte	0x113
 1203 02a6 5F020000 		.4byte	0x25f
 1204 02aa 02       		.byte	0x2
 1205 02ab 23       		.byte	0x23
 1206 02ac 08       		.uleb128 0x8
 1207 02ad 0B       		.uleb128 0xb
 1208 02ae 723700   		.ascii	"r7\000"
 1209 02b1 06       		.byte	0x6
 1210 02b2 1401     		.2byte	0x114
 1211 02b4 5F020000 		.4byte	0x25f
 1212 02b8 02       		.byte	0x2
 1213 02b9 23       		.byte	0x23
 1214 02ba 0C       		.uleb128 0xc
 1215 02bb 0B       		.uleb128 0xb
 1216 02bc 723800   		.ascii	"r8\000"
 1217 02bf 06       		.byte	0x6
 1218 02c0 1501     		.2byte	0x115
 1219 02c2 5F020000 		.4byte	0x25f
 1220 02c6 02       		.byte	0x2
 1221 02c7 23       		.byte	0x23
 1222 02c8 10       		.uleb128 0x10
 1223 02c9 0B       		.uleb128 0xb
 1224 02ca 723900   		.ascii	"r9\000"
 1225 02cd 06       		.byte	0x6
 1226 02ce 1601     		.2byte	0x116
 1227 02d0 5F020000 		.4byte	0x25f
 1228 02d4 02       		.byte	0x2
 1229 02d5 23       		.byte	0x23
ARM GAS  C:\Users\z80\AppData\Local\Temp\cc5UgZt9.s 			page 23


 1230 02d6 14       		.uleb128 0x14
 1231 02d7 0B       		.uleb128 0xb
 1232 02d8 72313000 		.ascii	"r10\000"
 1233 02dc 06       		.byte	0x6
 1234 02dd 1701     		.2byte	0x117
 1235 02df 5F020000 		.4byte	0x25f
 1236 02e3 02       		.byte	0x2
 1237 02e4 23       		.byte	0x23
 1238 02e5 18       		.uleb128 0x18
 1239 02e6 0B       		.uleb128 0xb
 1240 02e7 72313100 		.ascii	"r11\000"
 1241 02eb 06       		.byte	0x6
 1242 02ec 1801     		.2byte	0x118
 1243 02ee 5F020000 		.4byte	0x25f
 1244 02f2 02       		.byte	0x2
 1245 02f3 23       		.byte	0x23
 1246 02f4 1C       		.uleb128 0x1c
 1247 02f5 0B       		.uleb128 0xb
 1248 02f6 6C7200   		.ascii	"lr\000"
 1249 02f9 06       		.byte	0x6
 1250 02fa 1901     		.2byte	0x119
 1251 02fc 5F020000 		.4byte	0x25f
 1252 0300 02       		.byte	0x2
 1253 0301 23       		.byte	0x23
 1254 0302 20       		.uleb128 0x20
 1255 0303 00       		.byte	0
 1256 0304 0C       		.uleb128 0xc
 1257 0305 6F010000 		.4byte	.LASF44
 1258 0309 04       		.byte	0x4
 1259 030a 06       		.byte	0x6
 1260 030b 2301     		.2byte	0x123
 1261 030d 21030000 		.4byte	0x321
 1262 0311 0B       		.uleb128 0xb
 1263 0312 72313300 		.ascii	"r13\000"
 1264 0316 06       		.byte	0x6
 1265 0317 2401     		.2byte	0x124
 1266 0319 21030000 		.4byte	0x321
 1267 031d 02       		.byte	0x2
 1268 031e 23       		.byte	0x23
 1269 031f 00       		.uleb128 0
 1270 0320 00       		.byte	0
 1271 0321 09       		.uleb128 0x9
 1272 0322 04       		.byte	0x4
 1273 0323 77020000 		.4byte	0x277
 1274 0327 04       		.uleb128 0x4
 1275 0328 57030000 		.4byte	.LASF45
 1276 032c 07       		.byte	0x7
 1277 032d 53       		.byte	0x53
 1278 032e 32030000 		.4byte	0x332
 1279 0332 09       		.uleb128 0x9
 1280 0333 04       		.byte	0x4
 1281 0334 38030000 		.4byte	0x338
 1282 0338 0D       		.uleb128 0xd
 1283 0339 01       		.byte	0x1
 1284 033a 44030000 		.4byte	0x344
 1285 033e 0E       		.uleb128 0xe
 1286 033f 6A020000 		.4byte	0x26a
ARM GAS  C:\Users\z80\AppData\Local\Temp\cc5UgZt9.s 			page 24


 1287 0343 00       		.byte	0
 1288 0344 04       		.uleb128 0x4
 1289 0345 FD020000 		.4byte	.LASF46
 1290 0349 07       		.byte	0x7
 1291 034a 58       		.byte	0x58
 1292 034b 4F030000 		.4byte	0x34f
 1293 034f 05       		.uleb128 0x5
 1294 0350 FD020000 		.4byte	.LASF46
 1295 0354 14       		.byte	0x14
 1296 0355 07       		.byte	0x7
 1297 0356 5F       		.byte	0x5f
 1298 0357 A2030000 		.4byte	0x3a2
 1299 035b 06       		.uleb128 0x6
 1300 035c 3C010000 		.4byte	.LASF47
 1301 0360 07       		.byte	0x7
 1302 0361 60       		.byte	0x60
 1303 0362 A2030000 		.4byte	0x3a2
 1304 0366 02       		.byte	0x2
 1305 0367 23       		.byte	0x23
 1306 0368 00       		.uleb128 0
 1307 0369 06       		.uleb128 0x6
 1308 036a F4000000 		.4byte	.LASF48
 1309 036e 07       		.byte	0x7
 1310 036f 62       		.byte	0x62
 1311 0370 A2030000 		.4byte	0x3a2
 1312 0374 02       		.byte	0x2
 1313 0375 23       		.byte	0x23
 1314 0376 04       		.uleb128 0x4
 1315 0377 06       		.uleb128 0x6
 1316 0378 C9010000 		.4byte	.LASF49
 1317 037c 07       		.byte	0x7
 1318 037d 64       		.byte	0x64
 1319 037e DD000000 		.4byte	0xdd
 1320 0382 02       		.byte	0x2
 1321 0383 23       		.byte	0x23
 1322 0384 08       		.uleb128 0x8
 1323 0385 06       		.uleb128 0x6
 1324 0386 DC010000 		.4byte	.LASF50
 1325 038a 07       		.byte	0x7
 1326 038b 65       		.byte	0x65
 1327 038c 27030000 		.4byte	0x327
 1328 0390 02       		.byte	0x2
 1329 0391 23       		.byte	0x23
 1330 0392 0C       		.uleb128 0xc
 1331 0393 06       		.uleb128 0x6
 1332 0394 79030000 		.4byte	.LASF51
 1333 0398 07       		.byte	0x7
 1334 0399 67       		.byte	0x67
 1335 039a 6A020000 		.4byte	0x26a
 1336 039e 02       		.byte	0x2
 1337 039f 23       		.byte	0x23
 1338 03a0 10       		.uleb128 0x10
 1339 03a1 00       		.byte	0
 1340 03a2 09       		.uleb128 0x9
 1341 03a3 04       		.byte	0x4
 1342 03a4 44030000 		.4byte	0x344
 1343 03a8 08       		.uleb128 0x8
ARM GAS  C:\Users\z80\AppData\Local\Temp\cc5UgZt9.s 			page 25


 1344 03a9 10       		.byte	0x10
 1345 03aa 07       		.byte	0x7
 1346 03ab 71       		.byte	0x71
 1347 03ac E9030000 		.4byte	0x3e9
 1348 03b0 06       		.uleb128 0x6
 1349 03b1 3C010000 		.4byte	.LASF47
 1350 03b5 07       		.byte	0x7
 1351 03b6 72       		.byte	0x72
 1352 03b7 A2030000 		.4byte	0x3a2
 1353 03bb 02       		.byte	0x2
 1354 03bc 23       		.byte	0x23
 1355 03bd 00       		.uleb128 0
 1356 03be 06       		.uleb128 0x6
 1357 03bf F4000000 		.4byte	.LASF48
 1358 03c3 07       		.byte	0x7
 1359 03c4 74       		.byte	0x74
 1360 03c5 A2030000 		.4byte	0x3a2
 1361 03c9 02       		.byte	0x2
 1362 03ca 23       		.byte	0x23
 1363 03cb 04       		.uleb128 0x4
 1364 03cc 06       		.uleb128 0x6
 1365 03cd C9010000 		.4byte	.LASF49
 1366 03d1 07       		.byte	0x7
 1367 03d2 76       		.byte	0x76
 1368 03d3 DD000000 		.4byte	0xdd
 1369 03d7 02       		.byte	0x2
 1370 03d8 23       		.byte	0x23
 1371 03d9 08       		.uleb128 0x8
 1372 03da 06       		.uleb128 0x6
 1373 03db BC030000 		.4byte	.LASF52
 1374 03df 07       		.byte	0x7
 1375 03e0 77       		.byte	0x77
 1376 03e1 E9030000 		.4byte	0x3e9
 1377 03e5 02       		.byte	0x2
 1378 03e6 23       		.byte	0x23
 1379 03e7 0C       		.uleb128 0xc
 1380 03e8 00       		.byte	0
 1381 03e9 0F       		.uleb128 0xf
 1382 03ea DD000000 		.4byte	0xdd
 1383 03ee 04       		.uleb128 0x4
 1384 03ef C7030000 		.4byte	.LASF53
 1385 03f3 07       		.byte	0x7
 1386 03f4 78       		.byte	0x78
 1387 03f5 A8030000 		.4byte	0x3a8
 1388 03f9 08       		.uleb128 0x8
 1389 03fa 20       		.byte	0x20
 1390 03fb 08       		.byte	0x8
 1391 03fc 5E       		.byte	0x5e
 1392 03fd 64040000 		.4byte	0x464
 1393 0401 06       		.uleb128 0x6
 1394 0402 F5020000 		.4byte	.LASF54
 1395 0406 08       		.byte	0x8
 1396 0407 5F       		.byte	0x5f
 1397 0408 32020000 		.4byte	0x232
 1398 040c 02       		.byte	0x2
 1399 040d 23       		.byte	0x23
 1400 040e 00       		.uleb128 0
ARM GAS  C:\Users\z80\AppData\Local\Temp\cc5UgZt9.s 			page 26


 1401 040f 06       		.uleb128 0x6
 1402 0410 A4020000 		.4byte	.LASF55
 1403 0414 08       		.byte	0x8
 1404 0415 60       		.byte	0x60
 1405 0416 B1000000 		.4byte	0xb1
 1406 041a 02       		.byte	0x2
 1407 041b 23       		.byte	0x23
 1408 041c 08       		.uleb128 0x8
 1409 041d 06       		.uleb128 0x6
 1410 041e 07020000 		.4byte	.LASF56
 1411 0422 08       		.byte	0x8
 1412 0423 62       		.byte	0x62
 1413 0424 04030000 		.4byte	0x304
 1414 0428 02       		.byte	0x2
 1415 0429 23       		.byte	0x23
 1416 042a 0C       		.uleb128 0xc
 1417 042b 06       		.uleb128 0x6
 1418 042c E3000000 		.4byte	.LASF57
 1419 0430 08       		.byte	0x8
 1420 0431 65       		.byte	0x65
 1421 0432 2C020000 		.4byte	0x22c
 1422 0436 02       		.byte	0x2
 1423 0437 23       		.byte	0x23
 1424 0438 10       		.uleb128 0x10
 1425 0439 06       		.uleb128 0x6
 1426 043a 2A020000 		.4byte	.LASF58
 1427 043e 08       		.byte	0x8
 1428 043f 66       		.byte	0x66
 1429 0440 2C020000 		.4byte	0x22c
 1430 0444 02       		.byte	0x2
 1431 0445 23       		.byte	0x23
 1432 0446 14       		.uleb128 0x14
 1433 0447 06       		.uleb128 0x6
 1434 0448 CE030000 		.4byte	.LASF59
 1435 044c 08       		.byte	0x8
 1436 044d 6A       		.byte	0x6a
 1437 044e E8000000 		.4byte	0xe8
 1438 0452 02       		.byte	0x2
 1439 0453 23       		.byte	0x23
 1440 0454 18       		.uleb128 0x18
 1441 0455 06       		.uleb128 0x6
 1442 0456 20020000 		.4byte	.LASF60
 1443 045a 08       		.byte	0x8
 1444 045b 6C       		.byte	0x6c
 1445 045c 2C020000 		.4byte	0x22c
 1446 0460 02       		.byte	0x2
 1447 0461 23       		.byte	0x23
 1448 0462 1C       		.uleb128 0x1c
 1449 0463 00       		.byte	0
 1450 0464 04       		.uleb128 0x4
 1451 0465 88030000 		.4byte	.LASF61
 1452 0469 08       		.byte	0x8
 1453 046a 6E       		.byte	0x6e
 1454 046b F9030000 		.4byte	0x3f9
 1455 046f 05       		.uleb128 0x5
 1456 0470 B8010000 		.4byte	.LASF62
 1457 0474 10       		.byte	0x10
ARM GAS  C:\Users\z80\AppData\Local\Temp\cc5UgZt9.s 			page 27


 1458 0475 09       		.byte	0x9
 1459 0476 2C       		.byte	0x2c
 1460 0477 A6040000 		.4byte	0x4a6
 1461 047b 06       		.uleb128 0x6
 1462 047c 76000000 		.4byte	.LASF63
 1463 0480 09       		.byte	0x9
 1464 0481 2D       		.byte	0x2d
 1465 0482 32020000 		.4byte	0x232
 1466 0486 02       		.byte	0x2
 1467 0487 23       		.byte	0x23
 1468 0488 00       		.uleb128 0
 1469 0489 06       		.uleb128 0x6
 1470 048a D8030000 		.4byte	.LASF64
 1471 048e 09       		.byte	0x9
 1472 048f 2F       		.byte	0x2f
 1473 0490 2C020000 		.4byte	0x22c
 1474 0494 02       		.byte	0x2
 1475 0495 23       		.byte	0x23
 1476 0496 08       		.uleb128 0x8
 1477 0497 06       		.uleb128 0x6
 1478 0498 3B030000 		.4byte	.LASF65
 1479 049c 09       		.byte	0x9
 1480 049d 31       		.byte	0x31
 1481 049e A6040000 		.4byte	0x4a6
 1482 04a2 02       		.byte	0x2
 1483 04a3 23       		.byte	0x23
 1484 04a4 0C       		.uleb128 0xc
 1485 04a5 00       		.byte	0
 1486 04a6 09       		.uleb128 0x9
 1487 04a7 04       		.byte	0x4
 1488 04a8 6F040000 		.4byte	0x46f
 1489 04ac 04       		.uleb128 0x4
 1490 04ad B8010000 		.4byte	.LASF62
 1491 04b1 09       		.byte	0x9
 1492 04b2 33       		.byte	0x33
 1493 04b3 6F040000 		.4byte	0x46f
 1494 04b7 04       		.uleb128 0x4
 1495 04b8 A0030000 		.4byte	.LASF66
 1496 04bc 0A       		.byte	0xa
 1497 04bd 29       		.byte	0x29
 1498 04be C2040000 		.4byte	0x4c2
 1499 04c2 05       		.uleb128 0x5
 1500 04c3 A0030000 		.4byte	.LASF66
 1501 04c7 0C       		.byte	0xc
 1502 04c8 0A       		.byte	0xa
 1503 04c9 2E       		.byte	0x2e
 1504 04ca F9040000 		.4byte	0x4f9
 1505 04ce 06       		.uleb128 0x6
 1506 04cf 90010000 		.4byte	.LASF67
 1507 04d3 0A       		.byte	0xa
 1508 04d4 2F       		.byte	0x2f
 1509 04d5 F9040000 		.4byte	0x4f9
 1510 04d9 02       		.byte	0x2
 1511 04da 23       		.byte	0x23
 1512 04db 00       		.uleb128 0
 1513 04dc 06       		.uleb128 0x6
 1514 04dd 67020000 		.4byte	.LASF68
ARM GAS  C:\Users\z80\AppData\Local\Temp\cc5UgZt9.s 			page 28


 1515 04e1 0A       		.byte	0xa
 1516 04e2 32       		.byte	0x32
 1517 04e3 2C020000 		.4byte	0x22c
 1518 04e7 02       		.byte	0x2
 1519 04e8 23       		.byte	0x23
 1520 04e9 04       		.uleb128 0x4
 1521 04ea 06       		.uleb128 0x6
 1522 04eb 32020000 		.4byte	.LASF69
 1523 04ef 0A       		.byte	0xa
 1524 04f0 34       		.byte	0x34
 1525 04f1 D2000000 		.4byte	0xd2
 1526 04f5 02       		.byte	0x2
 1527 04f6 23       		.byte	0x23
 1528 04f7 08       		.uleb128 0x8
 1529 04f8 00       		.byte	0
 1530 04f9 09       		.uleb128 0x9
 1531 04fa 04       		.byte	0x4
 1532 04fb B7040000 		.4byte	0x4b7
 1533 04ff 05       		.uleb128 0x5
 1534 0500 06010000 		.4byte	.LASF70
 1535 0504 04       		.byte	0x4
 1536 0505 0A       		.byte	0xa
 1537 0506 3C       		.byte	0x3c
 1538 0507 1A050000 		.4byte	0x51a
 1539 050b 06       		.uleb128 0x6
 1540 050c 80030000 		.4byte	.LASF71
 1541 0510 0A       		.byte	0xa
 1542 0511 3D       		.byte	0x3d
 1543 0512 F9040000 		.4byte	0x4f9
 1544 0516 02       		.byte	0x2
 1545 0517 23       		.byte	0x23
 1546 0518 00       		.uleb128 0
 1547 0519 00       		.byte	0
 1548 051a 04       		.uleb128 0x4
 1549 051b 06010000 		.4byte	.LASF70
 1550 051f 0A       		.byte	0xa
 1551 0520 40       		.byte	0x40
 1552 0521 FF040000 		.4byte	0x4ff
 1553 0525 04       		.uleb128 0x4
 1554 0526 12010000 		.4byte	.LASF72
 1555 052a 0A       		.byte	0xa
 1556 052b 45       		.byte	0x45
 1557 052c 30050000 		.4byte	0x530
 1558 0530 09       		.uleb128 0x9
 1559 0531 04       		.byte	0x4
 1560 0532 36050000 		.4byte	0x536
 1561 0536 0D       		.uleb128 0xd
 1562 0537 01       		.byte	0x1
 1563 0538 42050000 		.4byte	0x542
 1564 053c 0E       		.uleb128 0xe
 1565 053d C7000000 		.4byte	0xc7
 1566 0541 00       		.byte	0
 1567 0542 10       		.uleb128 0x10
 1568 0543 04       		.byte	0x4
 1569 0544 05       		.byte	0x5
 1570 0545 90       		.byte	0x90
 1571 0546 77050000 		.4byte	0x577
ARM GAS  C:\Users\z80\AppData\Local\Temp\cc5UgZt9.s 			page 29


 1572 054a 11       		.uleb128 0x11
 1573 054b 11000000 		.4byte	.LASF73
 1574 054f 05       		.byte	0x5
 1575 0550 97       		.byte	0x97
 1576 0551 BC000000 		.4byte	0xbc
 1577 0555 11       		.uleb128 0x11
 1578 0556 3F000000 		.4byte	.LASF74
 1579 055a 05       		.byte	0x5
 1580 055b 9E       		.byte	0x9e
 1581 055c BC000000 		.4byte	0xbc
 1582 0560 11       		.uleb128 0x11
 1583 0561 AE030000 		.4byte	.LASF75
 1584 0565 05       		.byte	0x5
 1585 0566 A5       		.byte	0xa5
 1586 0567 6A020000 		.4byte	0x26a
 1587 056b 11       		.uleb128 0x11
 1588 056c AB020000 		.4byte	.LASF76
 1589 0570 05       		.byte	0x5
 1590 0571 AC       		.byte	0xac
 1591 0572 D2000000 		.4byte	0xd2
 1592 0576 00       		.byte	0
 1593 0577 09       		.uleb128 0x9
 1594 0578 04       		.byte	0x4
 1595 0579 7D050000 		.4byte	0x57d
 1596 057d 12       		.uleb128 0x12
 1597 057e 82050000 		.4byte	0x582
 1598 0582 03       		.uleb128 0x3
 1599 0583 01       		.byte	0x1
 1600 0584 08       		.byte	0x8
 1601 0585 36030000 		.4byte	.LASF77
 1602 0589 09       		.uleb128 0x9
 1603 058a 04       		.byte	0x4
 1604 058b 6C020000 		.4byte	0x26c
 1605 058f 09       		.uleb128 0x9
 1606 0590 04       		.byte	0x4
 1607 0591 AC040000 		.4byte	0x4ac
 1608 0595 05       		.uleb128 0x5
 1609 0596 C8020000 		.4byte	.LASF78
 1610 059a 10       		.byte	0x10
 1611 059b 0B       		.byte	0xb
 1612 059c 46       		.byte	0x46
 1613 059d DA050000 		.4byte	0x5da
 1614 05a1 06       		.uleb128 0x6
 1615 05a2 6A010000 		.4byte	.LASF79
 1616 05a6 0B       		.byte	0xb
 1617 05a7 47       		.byte	0x47
 1618 05a8 77050000 		.4byte	0x577
 1619 05ac 02       		.byte	0x2
 1620 05ad 23       		.byte	0x23
 1621 05ae 00       		.uleb128 0
 1622 05af 06       		.uleb128 0x6
 1623 05b0 1A020000 		.4byte	.LASF80
 1624 05b4 0B       		.byte	0xb
 1625 05b5 48       		.byte	0x48
 1626 05b6 DC050000 		.4byte	0x5dc
 1627 05ba 02       		.byte	0x2
 1628 05bb 23       		.byte	0x23
ARM GAS  C:\Users\z80\AppData\Local\Temp\cc5UgZt9.s 			page 30


 1629 05bc 04       		.uleb128 0x4
 1630 05bd 06       		.uleb128 0x6
 1631 05be 56010000 		.4byte	.LASF81
 1632 05c2 0B       		.byte	0xb
 1633 05c3 49       		.byte	0x49
 1634 05c4 DC050000 		.4byte	0x5dc
 1635 05c8 02       		.byte	0x2
 1636 05c9 23       		.byte	0x23
 1637 05ca 08       		.uleb128 0x8
 1638 05cb 06       		.uleb128 0x6
 1639 05cc 41020000 		.4byte	.LASF82
 1640 05d0 0B       		.byte	0xb
 1641 05d1 4A       		.byte	0x4a
 1642 05d2 DC050000 		.4byte	0x5dc
 1643 05d6 02       		.byte	0x2
 1644 05d7 23       		.byte	0x23
 1645 05d8 0C       		.uleb128 0xc
 1646 05d9 00       		.byte	0
 1647 05da 13       		.uleb128 0x13
 1648 05db 01       		.byte	0x1
 1649 05dc 09       		.uleb128 0x9
 1650 05dd 04       		.byte	0x4
 1651 05de DA050000 		.4byte	0x5da
 1652 05e2 14       		.uleb128 0x14
 1653 05e3 73020000 		.4byte	.LASF83
 1654 05e7 01       		.byte	0x1
 1655 05e8 0701     		.2byte	0x107
 1656 05ea 01       		.byte	0x1
 1657 05eb 01       		.byte	0x1
 1658 05ec FB050000 		.4byte	0x5fb
 1659 05f0 15       		.uleb128 0x15
 1660 05f1 6D00     		.ascii	"m\000"
 1661 05f3 01       		.byte	0x1
 1662 05f4 0801     		.2byte	0x108
 1663 05f6 D2000000 		.4byte	0xd2
 1664 05fa 00       		.byte	0
 1665 05fb 16       		.uleb128 0x16
 1666 05fc 4F000000 		.4byte	.LASF84
 1667 0600 01       		.byte	0x1
 1668 0601 A0       		.byte	0xa0
 1669 0602 01       		.byte	0x1
 1670 0603 01       		.byte	0x1
 1671 0604 33060000 		.4byte	0x633
 1672 0608 17       		.uleb128 0x17
 1673 0609 6D00     		.ascii	"m\000"
 1674 060b 01       		.byte	0x1
 1675 060c A1       		.byte	0xa1
 1676 060d D2000000 		.4byte	0xd2
 1677 0611 17       		.uleb128 0x17
 1678 0612 656C3100 		.ascii	"el1\000"
 1679 0616 01       		.byte	0x1
 1680 0617 A2       		.byte	0xa2
 1681 0618 B7040000 		.4byte	0x4b7
 1682 061c 17       		.uleb128 0x17
 1683 061d 656C3200 		.ascii	"el2\000"
 1684 0621 01       		.byte	0x1
 1685 0622 A2       		.byte	0xa2
ARM GAS  C:\Users\z80\AppData\Local\Temp\cc5UgZt9.s 			page 31


 1686 0623 B7040000 		.4byte	0x4b7
 1687 0627 18       		.uleb128 0x18
 1688 0628 B4000000 		.4byte	.LASF85
 1689 062c 01       		.byte	0x1
 1690 062d A3       		.byte	0xa3
 1691 062e DD000000 		.4byte	0xdd
 1692 0632 00       		.byte	0
 1693 0633 19       		.uleb128 0x19
 1694 0634 E4010000 		.4byte	.LASF86
 1695 0638 01       		.byte	0x1
 1696 0639 0201     		.2byte	0x102
 1697 063b 01       		.byte	0x1
 1698 063c 00000000 		.4byte	.LFB16
 1699 0640 08000000 		.4byte	.LFE16
 1700 0644 02       		.byte	0x2
 1701 0645 7D       		.byte	0x7d
 1702 0646 00       		.sleb128 0
 1703 0647 1A       		.uleb128 0x1a
 1704 0648 00000000 		.4byte	.LASF87
 1705 064c 01       		.byte	0x1
 1706 064d 8B       		.byte	0x8b
 1707 064e 01       		.byte	0x1
 1708 064f 00000000 		.4byte	.LFB12
 1709 0653 08000000 		.4byte	.LFE12
 1710 0657 02       		.byte	0x2
 1711 0658 7D       		.byte	0x7d
 1712 0659 00       		.sleb128 0
 1713 065a 1A       		.uleb128 0x1a
 1714 065b D1010000 		.4byte	.LASF88
 1715 065f 01       		.byte	0x1
 1716 0660 56       		.byte	0x56
 1717 0661 01       		.byte	0x1
 1718 0662 00000000 		.4byte	.LFB7
 1719 0666 08000000 		.4byte	.LFE7
 1720 066a 02       		.byte	0x2
 1721 066b 7D       		.byte	0x7d
 1722 066c 00       		.sleb128 0
 1723 066d 1B       		.uleb128 0x1b
 1724 066e FF010000 		.4byte	.LASF89
 1725 0672 01       		.byte	0x1
 1726 0673 97       		.byte	0x97
 1727 0674 01       		.byte	0x1
 1728 0675 BC000000 		.4byte	0xbc
 1729 0679 00000000 		.4byte	.LFB14
 1730 067d 28000000 		.4byte	.LFE14
 1731 0681 00000000 		.4byte	.LLST0
 1732 0685 97060000 		.4byte	0x697
 1733 0689 1C       		.uleb128 0x1c
 1734 068a 7000     		.ascii	"p\000"
 1735 068c 01       		.byte	0x1
 1736 068d 97       		.byte	0x97
 1737 068e 6A020000 		.4byte	0x26a
 1738 0692 20000000 		.4byte	.LLST1
 1739 0696 00       		.byte	0
 1740 0697 1B       		.uleb128 0x1b
 1741 0698 F7010000 		.4byte	.LASF90
 1742 069c 01       		.byte	0x1
ARM GAS  C:\Users\z80\AppData\Local\Temp\cc5UgZt9.s 			page 32


 1743 069d 90       		.byte	0x90
 1744 069e 01       		.byte	0x1
 1745 069f BC000000 		.4byte	0xbc
 1746 06a3 00000000 		.4byte	.LFB13
 1747 06a7 16000000 		.4byte	.LFE13
 1748 06ab 33000000 		.4byte	.LLST2
 1749 06af C1060000 		.4byte	0x6c1
 1750 06b3 1C       		.uleb128 0x1c
 1751 06b4 7000     		.ascii	"p\000"
 1752 06b6 01       		.byte	0x1
 1753 06b7 90       		.byte	0x90
 1754 06b8 6A020000 		.4byte	0x26a
 1755 06bc 53000000 		.4byte	.LLST3
 1756 06c0 00       		.byte	0
 1757 06c1 1D       		.uleb128 0x1d
 1758 06c2 E0030000 		.4byte	.LASF91
 1759 06c6 01       		.byte	0x1
 1760 06c7 60       		.byte	0x60
 1761 06c8 01       		.byte	0x1
 1762 06c9 00000000 		.4byte	.LFB11
 1763 06cd 8C000000 		.4byte	.LFE11
 1764 06d1 71000000 		.4byte	.LLST4
 1765 06d5 F6060000 		.4byte	0x6f6
 1766 06d9 1E       		.uleb128 0x1e
 1767 06da 656C3100 		.ascii	"el1\000"
 1768 06de 01       		.byte	0x1
 1769 06df 61       		.byte	0x61
 1770 06e0 B7040000 		.4byte	0x4b7
 1771 06e4 02       		.byte	0x2
 1772 06e5 91       		.byte	0x91
 1773 06e6 60       		.sleb128 -32
 1774 06e7 1E       		.uleb128 0x1e
 1775 06e8 656C3200 		.ascii	"el2\000"
 1776 06ec 01       		.byte	0x1
 1777 06ed 61       		.byte	0x61
 1778 06ee B7040000 		.4byte	0x4b7
 1779 06f2 02       		.byte	0x2
 1780 06f3 91       		.byte	0x91
 1781 06f4 6C       		.sleb128 -20
 1782 06f5 00       		.byte	0
 1783 06f6 1F       		.uleb128 0x1f
 1784 06f7 683300   		.ascii	"h3\000"
 1785 06fa 01       		.byte	0x1
 1786 06fb 5D       		.byte	0x5d
 1787 06fc 01       		.byte	0x1
 1788 06fd 00000000 		.4byte	.LFB10
 1789 0701 06000000 		.4byte	.LFE10
 1790 0705 02       		.byte	0x2
 1791 0706 7D       		.byte	0x7d
 1792 0707 00       		.sleb128 0
 1793 0708 1B070000 		.4byte	0x71b
 1794 070c 1C       		.uleb128 0x1c
 1795 070d 696400   		.ascii	"id\000"
 1796 0710 01       		.byte	0x1
 1797 0711 5D       		.byte	0x5d
 1798 0712 C7000000 		.4byte	0xc7
 1799 0716 9D000000 		.4byte	.LLST5
ARM GAS  C:\Users\z80\AppData\Local\Temp\cc5UgZt9.s 			page 33


 1800 071a 00       		.byte	0
 1801 071b 1F       		.uleb128 0x1f
 1802 071c 683200   		.ascii	"h2\000"
 1803 071f 01       		.byte	0x1
 1804 0720 5C       		.byte	0x5c
 1805 0721 01       		.byte	0x1
 1806 0722 00000000 		.4byte	.LFB9
 1807 0726 06000000 		.4byte	.LFE9
 1808 072a 02       		.byte	0x2
 1809 072b 7D       		.byte	0x7d
 1810 072c 00       		.sleb128 0
 1811 072d 40070000 		.4byte	0x740
 1812 0731 1C       		.uleb128 0x1c
 1813 0732 696400   		.ascii	"id\000"
 1814 0735 01       		.byte	0x1
 1815 0736 5C       		.byte	0x5c
 1816 0737 C7000000 		.4byte	0xc7
 1817 073b B0000000 		.4byte	.LLST6
 1818 073f 00       		.byte	0
 1819 0740 1F       		.uleb128 0x1f
 1820 0741 683100   		.ascii	"h1\000"
 1821 0744 01       		.byte	0x1
 1822 0745 5B       		.byte	0x5b
 1823 0746 01       		.byte	0x1
 1824 0747 00000000 		.4byte	.LFB8
 1825 074b 06000000 		.4byte	.LFE8
 1826 074f 02       		.byte	0x2
 1827 0750 7D       		.byte	0x7d
 1828 0751 00       		.sleb128 0
 1829 0752 65070000 		.4byte	0x765
 1830 0756 1C       		.uleb128 0x1c
 1831 0757 696400   		.ascii	"id\000"
 1832 075a 01       		.byte	0x1
 1833 075b 5B       		.byte	0x5b
 1834 075c C7000000 		.4byte	0xc7
 1835 0760 C3000000 		.4byte	.LLST7
 1836 0764 00       		.byte	0
 1837 0765 20       		.uleb128 0x20
 1838 0766 E2050000 		.4byte	0x5e2
 1839 076a 00000000 		.4byte	.LFB17
 1840 076e AA000000 		.4byte	.LFE17
 1841 0772 D6000000 		.4byte	.LLST8
 1842 0776 A4070000 		.4byte	0x7a4
 1843 077a 21       		.uleb128 0x21
 1844 077b F0050000 		.4byte	0x5f0
 1845 077f F6000000 		.4byte	.LLST9
 1846 0783 22       		.uleb128 0x22
 1847 0784 E2050000 		.4byte	0x5e2
 1848 0788 56000000 		.4byte	.LBB4
 1849 078c 00000000 		.4byte	.Ldebug_ranges0+0
 1850 0790 01       		.byte	0x1
 1851 0791 0701     		.2byte	0x107
 1852 0793 23       		.uleb128 0x23
 1853 0794 18000000 		.4byte	.Ldebug_ranges0+0x18
 1854 0798 21       		.uleb128 0x21
 1855 0799 F0050000 		.4byte	0x5f0
 1856 079d 1F010000 		.4byte	.LLST10
ARM GAS  C:\Users\z80\AppData\Local\Temp\cc5UgZt9.s 			page 34


 1857 07a1 00       		.byte	0
 1858 07a2 00       		.byte	0
 1859 07a3 00       		.byte	0
 1860 07a4 20       		.uleb128 0x20
 1861 07a5 FB050000 		.4byte	0x5fb
 1862 07a9 00000000 		.4byte	.LFB15
 1863 07ad 7C020000 		.4byte	.LFE15
 1864 07b1 48010000 		.4byte	.LLST11
 1865 07b5 0E080000 		.4byte	0x80e
 1866 07b9 21       		.uleb128 0x21
 1867 07ba 08060000 		.4byte	0x608
 1868 07be 75010000 		.4byte	.LLST12
 1869 07c2 24       		.uleb128 0x24
 1870 07c3 11060000 		.4byte	0x611
 1871 07c7 24       		.uleb128 0x24
 1872 07c8 1C060000 		.4byte	0x61c
 1873 07cc 24       		.uleb128 0x24
 1874 07cd 27060000 		.4byte	0x627
 1875 07d1 25       		.uleb128 0x25
 1876 07d2 FB050000 		.4byte	0x5fb
 1877 07d6 62000000 		.4byte	.LBB10
 1878 07da 7C020000 		.4byte	.LBE10
 1879 07de 01       		.byte	0x1
 1880 07df A0       		.byte	0xa0
 1881 07e0 26       		.uleb128 0x26
 1882 07e1 62000000 		.4byte	.LBB11
 1883 07e5 7C020000 		.4byte	.LBE11
 1884 07e9 21       		.uleb128 0x21
 1885 07ea 08060000 		.4byte	0x608
 1886 07ee B8010000 		.4byte	.LLST13
 1887 07f2 27       		.uleb128 0x27
 1888 07f3 11060000 		.4byte	0x611
 1889 07f7 02       		.byte	0x2
 1890 07f8 91       		.byte	0x91
 1891 07f9 48       		.sleb128 -56
 1892 07fa 27       		.uleb128 0x27
 1893 07fb 1C060000 		.4byte	0x61c
 1894 07ff 02       		.byte	0x2
 1895 0800 91       		.byte	0x91
 1896 0801 54       		.sleb128 -44
 1897 0802 21       		.uleb128 0x21
 1898 0803 27060000 		.4byte	0x627
 1899 0807 30020000 		.4byte	.LLST14
 1900 080b 00       		.byte	0
 1901 080c 00       		.byte	0
 1902 080d 00       		.byte	0
 1903 080e 1E       		.uleb128 0x1e
 1904 080f 65733100 		.ascii	"es1\000"
 1905 0813 01       		.byte	0x1
 1906 0814 46       		.byte	0x46
 1907 0815 1A050000 		.4byte	0x51a
 1908 0819 05       		.byte	0x5
 1909 081a 03       		.byte	0x3
 1910 081b 00000000 		.4byte	es1
 1911 081f 1E       		.uleb128 0x1e
 1912 0820 65733200 		.ascii	"es2\000"
 1913 0824 01       		.byte	0x1
ARM GAS  C:\Users\z80\AppData\Local\Temp\cc5UgZt9.s 			page 35


 1914 0825 47       		.byte	0x47
 1915 0826 1A050000 		.4byte	0x51a
 1916 082a 05       		.byte	0x5
 1917 082b 03       		.byte	0x3
 1918 082c 00000000 		.4byte	es2
 1919 0830 28       		.uleb128 0x28
 1920 0831 25050000 		.4byte	0x525
 1921 0835 40080000 		.4byte	0x840
 1922 0839 29       		.uleb128 0x29
 1923 083a 30000000 		.4byte	0x30
 1924 083e 02       		.byte	0x2
 1925 083f 00       		.byte	0
 1926 0840 2A       		.uleb128 0x2a
 1927 0841 E5020000 		.4byte	.LASF92
 1928 0845 01       		.byte	0x1
 1929 0846 5E       		.byte	0x5e
 1930 0847 51080000 		.4byte	0x851
 1931 084b 05       		.byte	0x5
 1932 084c 03       		.byte	0x3
 1933 084d 00000000 		.4byte	evhndl
 1934 0851 12       		.uleb128 0x12
 1935 0852 30080000 		.4byte	0x830
 1936 0856 2B       		.uleb128 0x2b
 1937 0857 21000000 		.4byte	.LASF93
 1938 085b 07       		.byte	0x7
 1939 085c 7A       		.byte	0x7a
 1940 085d EE030000 		.4byte	0x3ee
 1941 0861 01       		.byte	0x1
 1942 0862 01       		.byte	0x1
 1943 0863 2B       		.uleb128 0x2b
 1944 0864 92030000 		.4byte	.LASF94
 1945 0868 08       		.byte	0x8
 1946 0869 72       		.byte	0x72
 1947 086a 64040000 		.4byte	0x464
 1948 086e 01       		.byte	0x1
 1949 086f 01       		.byte	0x1
 1950 0870 28       		.uleb128 0x28
 1951 0871 2C020000 		.4byte	0x22c
 1952 0875 80080000 		.4byte	0x880
 1953 0879 29       		.uleb128 0x29
 1954 087a 30000000 		.4byte	0x30
 1955 087e 04       		.byte	0x4
 1956 087f 00       		.byte	0
 1957 0880 2B       		.uleb128 0x2b
 1958 0881 9C020000 		.4byte	.LASF95
 1959 0885 0B       		.byte	0xb
 1960 0886 B0       		.byte	0xb0
 1961 0887 70080000 		.4byte	0x870
 1962 088b 01       		.byte	0x1
 1963 088c 01       		.byte	0x1
 1964 088d 28       		.uleb128 0x28
 1965 088e 6A020000 		.4byte	0x26a
 1966 0892 98080000 		.4byte	0x898
 1967 0896 2C       		.uleb128 0x2c
 1968 0897 00       		.byte	0
 1969 0898 2D       		.uleb128 0x2d
 1970 0899 776100   		.ascii	"wa\000"
ARM GAS  C:\Users\z80\AppData\Local\Temp\cc5UgZt9.s 			page 36


 1971 089c 0B       		.byte	0xb
 1972 089d B2       		.byte	0xb2
 1973 089e A4080000 		.4byte	0x8a4
 1974 08a2 01       		.byte	0x1
 1975 08a3 01       		.byte	0x1
 1976 08a4 12       		.uleb128 0x12
 1977 08a5 8D080000 		.4byte	0x88d
 1978 08a9 2E       		.uleb128 0x2e
 1979 08aa DC020000 		.4byte	.LASF96
 1980 08ae 01       		.byte	0x1
 1981 08af 76       		.byte	0x76
 1982 08b0 BB080000 		.4byte	0x8bb
 1983 08b4 01       		.byte	0x1
 1984 08b5 05       		.byte	0x5
 1985 08b6 03       		.byte	0x3
 1986 08b7 00000000 		.4byte	testevt1
 1987 08bb 12       		.uleb128 0x12
 1988 08bc 95050000 		.4byte	0x595
 1989 08c0 2E       		.uleb128 0x2e
 1990 08c1 C9000000 		.4byte	.LASF97
 1991 08c5 01       		.byte	0x1
 1992 08c6 EB       		.byte	0xeb
 1993 08c7 BB080000 		.4byte	0x8bb
 1994 08cb 01       		.byte	0x1
 1995 08cc 05       		.byte	0x5
 1996 08cd 03       		.byte	0x3
 1997 08ce 00000000 		.4byte	testevt2
 1998 08d2 2F       		.uleb128 0x2f
 1999 08d3 D2000000 		.4byte	.LASF98
 2000 08d7 01       		.byte	0x1
 2001 08d8 1B01     		.2byte	0x11b
 2002 08da BB080000 		.4byte	0x8bb
 2003 08de 01       		.byte	0x1
 2004 08df 05       		.byte	0x5
 2005 08e0 03       		.byte	0x3
 2006 08e1 00000000 		.4byte	testevt3
 2007 08e5 28       		.uleb128 0x28
 2008 08e6 F5080000 		.4byte	0x8f5
 2009 08ea F5080000 		.4byte	0x8f5
 2010 08ee 29       		.uleb128 0x29
 2011 08ef 30000000 		.4byte	0x30
 2012 08f3 03       		.byte	0x3
 2013 08f4 00       		.byte	0
 2014 08f5 09       		.uleb128 0x9
 2015 08f6 04       		.byte	0x4
 2016 08f7 BB080000 		.4byte	0x8bb
 2017 08fb 2F       		.uleb128 0x2f
 2018 08fc 5F010000 		.4byte	.LASF99
 2019 0900 01       		.byte	0x1
 2020 0901 2601     		.2byte	0x126
 2021 0903 0E090000 		.4byte	0x90e
 2022 0907 01       		.byte	0x1
 2023 0908 05       		.byte	0x5
 2024 0909 03       		.byte	0x3
 2025 090a 00000000 		.4byte	patternevt
 2026 090e 12       		.uleb128 0x12
 2027 090f E5080000 		.4byte	0x8e5
ARM GAS  C:\Users\z80\AppData\Local\Temp\cc5UgZt9.s 			page 37


 2028 0913 00       		.byte	0
 2029              		.section	.debug_abbrev,"",%progbits
 2030              	.Ldebug_abbrev0:
 2031 0000 01       		.uleb128 0x1
 2032 0001 11       		.uleb128 0x11
 2033 0002 01       		.byte	0x1
 2034 0003 25       		.uleb128 0x25
 2035 0004 0E       		.uleb128 0xe
 2036 0005 13       		.uleb128 0x13
 2037 0006 0B       		.uleb128 0xb
 2038 0007 03       		.uleb128 0x3
 2039 0008 0E       		.uleb128 0xe
 2040 0009 1B       		.uleb128 0x1b
 2041 000a 0E       		.uleb128 0xe
 2042 000b 11       		.uleb128 0x11
 2043 000c 01       		.uleb128 0x1
 2044 000d 52       		.uleb128 0x52
 2045 000e 01       		.uleb128 0x1
 2046 000f 55       		.uleb128 0x55
 2047 0010 06       		.uleb128 0x6
 2048 0011 10       		.uleb128 0x10
 2049 0012 06       		.uleb128 0x6
 2050 0013 00       		.byte	0
 2051 0014 00       		.byte	0
 2052 0015 02       		.uleb128 0x2
 2053 0016 24       		.uleb128 0x24
 2054 0017 00       		.byte	0
 2055 0018 0B       		.uleb128 0xb
 2056 0019 0B       		.uleb128 0xb
 2057 001a 3E       		.uleb128 0x3e
 2058 001b 0B       		.uleb128 0xb
 2059 001c 03       		.uleb128 0x3
 2060 001d 08       		.uleb128 0x8
 2061 001e 00       		.byte	0
 2062 001f 00       		.byte	0
 2063 0020 03       		.uleb128 0x3
 2064 0021 24       		.uleb128 0x24
 2065 0022 00       		.byte	0
 2066 0023 0B       		.uleb128 0xb
 2067 0024 0B       		.uleb128 0xb
 2068 0025 3E       		.uleb128 0x3e
 2069 0026 0B       		.uleb128 0xb
 2070 0027 03       		.uleb128 0x3
 2071 0028 0E       		.uleb128 0xe
 2072 0029 00       		.byte	0
 2073 002a 00       		.byte	0
 2074 002b 04       		.uleb128 0x4
 2075 002c 16       		.uleb128 0x16
 2076 002d 00       		.byte	0
 2077 002e 03       		.uleb128 0x3
 2078 002f 0E       		.uleb128 0xe
 2079 0030 3A       		.uleb128 0x3a
 2080 0031 0B       		.uleb128 0xb
 2081 0032 3B       		.uleb128 0x3b
 2082 0033 0B       		.uleb128 0xb
 2083 0034 49       		.uleb128 0x49
 2084 0035 13       		.uleb128 0x13
ARM GAS  C:\Users\z80\AppData\Local\Temp\cc5UgZt9.s 			page 38


 2085 0036 00       		.byte	0
 2086 0037 00       		.byte	0
 2087 0038 05       		.uleb128 0x5
 2088 0039 13       		.uleb128 0x13
 2089 003a 01       		.byte	0x1
 2090 003b 03       		.uleb128 0x3
 2091 003c 0E       		.uleb128 0xe
 2092 003d 0B       		.uleb128 0xb
 2093 003e 0B       		.uleb128 0xb
 2094 003f 3A       		.uleb128 0x3a
 2095 0040 0B       		.uleb128 0xb
 2096 0041 3B       		.uleb128 0x3b
 2097 0042 0B       		.uleb128 0xb
 2098 0043 01       		.uleb128 0x1
 2099 0044 13       		.uleb128 0x13
 2100 0045 00       		.byte	0
 2101 0046 00       		.byte	0
 2102 0047 06       		.uleb128 0x6
 2103 0048 0D       		.uleb128 0xd
 2104 0049 00       		.byte	0
 2105 004a 03       		.uleb128 0x3
 2106 004b 0E       		.uleb128 0xe
 2107 004c 3A       		.uleb128 0x3a
 2108 004d 0B       		.uleb128 0xb
 2109 004e 3B       		.uleb128 0x3b
 2110 004f 0B       		.uleb128 0xb
 2111 0050 49       		.uleb128 0x49
 2112 0051 13       		.uleb128 0x13
 2113 0052 38       		.uleb128 0x38
 2114 0053 0A       		.uleb128 0xa
 2115 0054 00       		.byte	0
 2116 0055 00       		.byte	0
 2117 0056 07       		.uleb128 0x7
 2118 0057 0D       		.uleb128 0xd
 2119 0058 00       		.byte	0
 2120 0059 03       		.uleb128 0x3
 2121 005a 08       		.uleb128 0x8
 2122 005b 3A       		.uleb128 0x3a
 2123 005c 0B       		.uleb128 0xb
 2124 005d 3B       		.uleb128 0x3b
 2125 005e 0B       		.uleb128 0xb
 2126 005f 49       		.uleb128 0x49
 2127 0060 13       		.uleb128 0x13
 2128 0061 38       		.uleb128 0x38
 2129 0062 0A       		.uleb128 0xa
 2130 0063 00       		.byte	0
 2131 0064 00       		.byte	0
 2132 0065 08       		.uleb128 0x8
 2133 0066 13       		.uleb128 0x13
 2134 0067 01       		.byte	0x1
 2135 0068 0B       		.uleb128 0xb
 2136 0069 0B       		.uleb128 0xb
 2137 006a 3A       		.uleb128 0x3a
 2138 006b 0B       		.uleb128 0xb
 2139 006c 3B       		.uleb128 0x3b
 2140 006d 0B       		.uleb128 0xb
 2141 006e 01       		.uleb128 0x1
ARM GAS  C:\Users\z80\AppData\Local\Temp\cc5UgZt9.s 			page 39


 2142 006f 13       		.uleb128 0x13
 2143 0070 00       		.byte	0
 2144 0071 00       		.byte	0
 2145 0072 09       		.uleb128 0x9
 2146 0073 0F       		.uleb128 0xf
 2147 0074 00       		.byte	0
 2148 0075 0B       		.uleb128 0xb
 2149 0076 0B       		.uleb128 0xb
 2150 0077 49       		.uleb128 0x49
 2151 0078 13       		.uleb128 0x13
 2152 0079 00       		.byte	0
 2153 007a 00       		.byte	0
 2154 007b 0A       		.uleb128 0xa
 2155 007c 0F       		.uleb128 0xf
 2156 007d 00       		.byte	0
 2157 007e 0B       		.uleb128 0xb
 2158 007f 0B       		.uleb128 0xb
 2159 0080 00       		.byte	0
 2160 0081 00       		.byte	0
 2161 0082 0B       		.uleb128 0xb
 2162 0083 0D       		.uleb128 0xd
 2163 0084 00       		.byte	0
 2164 0085 03       		.uleb128 0x3
 2165 0086 08       		.uleb128 0x8
 2166 0087 3A       		.uleb128 0x3a
 2167 0088 0B       		.uleb128 0xb
 2168 0089 3B       		.uleb128 0x3b
 2169 008a 05       		.uleb128 0x5
 2170 008b 49       		.uleb128 0x49
 2171 008c 13       		.uleb128 0x13
 2172 008d 38       		.uleb128 0x38
 2173 008e 0A       		.uleb128 0xa
 2174 008f 00       		.byte	0
 2175 0090 00       		.byte	0
 2176 0091 0C       		.uleb128 0xc
 2177 0092 13       		.uleb128 0x13
 2178 0093 01       		.byte	0x1
 2179 0094 03       		.uleb128 0x3
 2180 0095 0E       		.uleb128 0xe
 2181 0096 0B       		.uleb128 0xb
 2182 0097 0B       		.uleb128 0xb
 2183 0098 3A       		.uleb128 0x3a
 2184 0099 0B       		.uleb128 0xb
 2185 009a 3B       		.uleb128 0x3b
 2186 009b 05       		.uleb128 0x5
 2187 009c 01       		.uleb128 0x1
 2188 009d 13       		.uleb128 0x13
 2189 009e 00       		.byte	0
 2190 009f 00       		.byte	0
 2191 00a0 0D       		.uleb128 0xd
 2192 00a1 15       		.uleb128 0x15
 2193 00a2 01       		.byte	0x1
 2194 00a3 27       		.uleb128 0x27
 2195 00a4 0C       		.uleb128 0xc
 2196 00a5 01       		.uleb128 0x1
 2197 00a6 13       		.uleb128 0x13
 2198 00a7 00       		.byte	0
ARM GAS  C:\Users\z80\AppData\Local\Temp\cc5UgZt9.s 			page 40


 2199 00a8 00       		.byte	0
 2200 00a9 0E       		.uleb128 0xe
 2201 00aa 05       		.uleb128 0x5
 2202 00ab 00       		.byte	0
 2203 00ac 49       		.uleb128 0x49
 2204 00ad 13       		.uleb128 0x13
 2205 00ae 00       		.byte	0
 2206 00af 00       		.byte	0
 2207 00b0 0F       		.uleb128 0xf
 2208 00b1 35       		.uleb128 0x35
 2209 00b2 00       		.byte	0
 2210 00b3 49       		.uleb128 0x49
 2211 00b4 13       		.uleb128 0x13
 2212 00b5 00       		.byte	0
 2213 00b6 00       		.byte	0
 2214 00b7 10       		.uleb128 0x10
 2215 00b8 17       		.uleb128 0x17
 2216 00b9 01       		.byte	0x1
 2217 00ba 0B       		.uleb128 0xb
 2218 00bb 0B       		.uleb128 0xb
 2219 00bc 3A       		.uleb128 0x3a
 2220 00bd 0B       		.uleb128 0xb
 2221 00be 3B       		.uleb128 0x3b
 2222 00bf 0B       		.uleb128 0xb
 2223 00c0 01       		.uleb128 0x1
 2224 00c1 13       		.uleb128 0x13
 2225 00c2 00       		.byte	0
 2226 00c3 00       		.byte	0
 2227 00c4 11       		.uleb128 0x11
 2228 00c5 0D       		.uleb128 0xd
 2229 00c6 00       		.byte	0
 2230 00c7 03       		.uleb128 0x3
 2231 00c8 0E       		.uleb128 0xe
 2232 00c9 3A       		.uleb128 0x3a
 2233 00ca 0B       		.uleb128 0xb
 2234 00cb 3B       		.uleb128 0x3b
 2235 00cc 0B       		.uleb128 0xb
 2236 00cd 49       		.uleb128 0x49
 2237 00ce 13       		.uleb128 0x13
 2238 00cf 00       		.byte	0
 2239 00d0 00       		.byte	0
 2240 00d1 12       		.uleb128 0x12
 2241 00d2 26       		.uleb128 0x26
 2242 00d3 00       		.byte	0
 2243 00d4 49       		.uleb128 0x49
 2244 00d5 13       		.uleb128 0x13
 2245 00d6 00       		.byte	0
 2246 00d7 00       		.byte	0
 2247 00d8 13       		.uleb128 0x13
 2248 00d9 15       		.uleb128 0x15
 2249 00da 00       		.byte	0
 2250 00db 27       		.uleb128 0x27
 2251 00dc 0C       		.uleb128 0xc
 2252 00dd 00       		.byte	0
 2253 00de 00       		.byte	0
 2254 00df 14       		.uleb128 0x14
 2255 00e0 2E       		.uleb128 0x2e
ARM GAS  C:\Users\z80\AppData\Local\Temp\cc5UgZt9.s 			page 41


 2256 00e1 01       		.byte	0x1
 2257 00e2 03       		.uleb128 0x3
 2258 00e3 0E       		.uleb128 0xe
 2259 00e4 3A       		.uleb128 0x3a
 2260 00e5 0B       		.uleb128 0xb
 2261 00e6 3B       		.uleb128 0x3b
 2262 00e7 05       		.uleb128 0x5
 2263 00e8 27       		.uleb128 0x27
 2264 00e9 0C       		.uleb128 0xc
 2265 00ea 20       		.uleb128 0x20
 2266 00eb 0B       		.uleb128 0xb
 2267 00ec 01       		.uleb128 0x1
 2268 00ed 13       		.uleb128 0x13
 2269 00ee 00       		.byte	0
 2270 00ef 00       		.byte	0
 2271 00f0 15       		.uleb128 0x15
 2272 00f1 34       		.uleb128 0x34
 2273 00f2 00       		.byte	0
 2274 00f3 03       		.uleb128 0x3
 2275 00f4 08       		.uleb128 0x8
 2276 00f5 3A       		.uleb128 0x3a
 2277 00f6 0B       		.uleb128 0xb
 2278 00f7 3B       		.uleb128 0x3b
 2279 00f8 05       		.uleb128 0x5
 2280 00f9 49       		.uleb128 0x49
 2281 00fa 13       		.uleb128 0x13
 2282 00fb 00       		.byte	0
 2283 00fc 00       		.byte	0
 2284 00fd 16       		.uleb128 0x16
 2285 00fe 2E       		.uleb128 0x2e
 2286 00ff 01       		.byte	0x1
 2287 0100 03       		.uleb128 0x3
 2288 0101 0E       		.uleb128 0xe
 2289 0102 3A       		.uleb128 0x3a
 2290 0103 0B       		.uleb128 0xb
 2291 0104 3B       		.uleb128 0x3b
 2292 0105 0B       		.uleb128 0xb
 2293 0106 27       		.uleb128 0x27
 2294 0107 0C       		.uleb128 0xc
 2295 0108 20       		.uleb128 0x20
 2296 0109 0B       		.uleb128 0xb
 2297 010a 01       		.uleb128 0x1
 2298 010b 13       		.uleb128 0x13
 2299 010c 00       		.byte	0
 2300 010d 00       		.byte	0
 2301 010e 17       		.uleb128 0x17
 2302 010f 34       		.uleb128 0x34
 2303 0110 00       		.byte	0
 2304 0111 03       		.uleb128 0x3
 2305 0112 08       		.uleb128 0x8
 2306 0113 3A       		.uleb128 0x3a
 2307 0114 0B       		.uleb128 0xb
 2308 0115 3B       		.uleb128 0x3b
 2309 0116 0B       		.uleb128 0xb
 2310 0117 49       		.uleb128 0x49
 2311 0118 13       		.uleb128 0x13
 2312 0119 00       		.byte	0
ARM GAS  C:\Users\z80\AppData\Local\Temp\cc5UgZt9.s 			page 42


 2313 011a 00       		.byte	0
 2314 011b 18       		.uleb128 0x18
 2315 011c 34       		.uleb128 0x34
 2316 011d 00       		.byte	0
 2317 011e 03       		.uleb128 0x3
 2318 011f 0E       		.uleb128 0xe
 2319 0120 3A       		.uleb128 0x3a
 2320 0121 0B       		.uleb128 0xb
 2321 0122 3B       		.uleb128 0x3b
 2322 0123 0B       		.uleb128 0xb
 2323 0124 49       		.uleb128 0x49
 2324 0125 13       		.uleb128 0x13
 2325 0126 00       		.byte	0
 2326 0127 00       		.byte	0
 2327 0128 19       		.uleb128 0x19
 2328 0129 2E       		.uleb128 0x2e
 2329 012a 00       		.byte	0
 2330 012b 03       		.uleb128 0x3
 2331 012c 0E       		.uleb128 0xe
 2332 012d 3A       		.uleb128 0x3a
 2333 012e 0B       		.uleb128 0xb
 2334 012f 3B       		.uleb128 0x3b
 2335 0130 05       		.uleb128 0x5
 2336 0131 27       		.uleb128 0x27
 2337 0132 0C       		.uleb128 0xc
 2338 0133 11       		.uleb128 0x11
 2339 0134 01       		.uleb128 0x1
 2340 0135 12       		.uleb128 0x12
 2341 0136 01       		.uleb128 0x1
 2342 0137 40       		.uleb128 0x40
 2343 0138 0A       		.uleb128 0xa
 2344 0139 00       		.byte	0
 2345 013a 00       		.byte	0
 2346 013b 1A       		.uleb128 0x1a
 2347 013c 2E       		.uleb128 0x2e
 2348 013d 00       		.byte	0
 2349 013e 03       		.uleb128 0x3
 2350 013f 0E       		.uleb128 0xe
 2351 0140 3A       		.uleb128 0x3a
 2352 0141 0B       		.uleb128 0xb
 2353 0142 3B       		.uleb128 0x3b
 2354 0143 0B       		.uleb128 0xb
 2355 0144 27       		.uleb128 0x27
 2356 0145 0C       		.uleb128 0xc
 2357 0146 11       		.uleb128 0x11
 2358 0147 01       		.uleb128 0x1
 2359 0148 12       		.uleb128 0x12
 2360 0149 01       		.uleb128 0x1
 2361 014a 40       		.uleb128 0x40
 2362 014b 0A       		.uleb128 0xa
 2363 014c 00       		.byte	0
 2364 014d 00       		.byte	0
 2365 014e 1B       		.uleb128 0x1b
 2366 014f 2E       		.uleb128 0x2e
 2367 0150 01       		.byte	0x1
 2368 0151 03       		.uleb128 0x3
 2369 0152 0E       		.uleb128 0xe
ARM GAS  C:\Users\z80\AppData\Local\Temp\cc5UgZt9.s 			page 43


 2370 0153 3A       		.uleb128 0x3a
 2371 0154 0B       		.uleb128 0xb
 2372 0155 3B       		.uleb128 0x3b
 2373 0156 0B       		.uleb128 0xb
 2374 0157 27       		.uleb128 0x27
 2375 0158 0C       		.uleb128 0xc
 2376 0159 49       		.uleb128 0x49
 2377 015a 13       		.uleb128 0x13
 2378 015b 11       		.uleb128 0x11
 2379 015c 01       		.uleb128 0x1
 2380 015d 12       		.uleb128 0x12
 2381 015e 01       		.uleb128 0x1
 2382 015f 40       		.uleb128 0x40
 2383 0160 06       		.uleb128 0x6
 2384 0161 01       		.uleb128 0x1
 2385 0162 13       		.uleb128 0x13
 2386 0163 00       		.byte	0
 2387 0164 00       		.byte	0
 2388 0165 1C       		.uleb128 0x1c
 2389 0166 05       		.uleb128 0x5
 2390 0167 00       		.byte	0
 2391 0168 03       		.uleb128 0x3
 2392 0169 08       		.uleb128 0x8
 2393 016a 3A       		.uleb128 0x3a
 2394 016b 0B       		.uleb128 0xb
 2395 016c 3B       		.uleb128 0x3b
 2396 016d 0B       		.uleb128 0xb
 2397 016e 49       		.uleb128 0x49
 2398 016f 13       		.uleb128 0x13
 2399 0170 02       		.uleb128 0x2
 2400 0171 06       		.uleb128 0x6
 2401 0172 00       		.byte	0
 2402 0173 00       		.byte	0
 2403 0174 1D       		.uleb128 0x1d
 2404 0175 2E       		.uleb128 0x2e
 2405 0176 01       		.byte	0x1
 2406 0177 03       		.uleb128 0x3
 2407 0178 0E       		.uleb128 0xe
 2408 0179 3A       		.uleb128 0x3a
 2409 017a 0B       		.uleb128 0xb
 2410 017b 3B       		.uleb128 0x3b
 2411 017c 0B       		.uleb128 0xb
 2412 017d 27       		.uleb128 0x27
 2413 017e 0C       		.uleb128 0xc
 2414 017f 11       		.uleb128 0x11
 2415 0180 01       		.uleb128 0x1
 2416 0181 12       		.uleb128 0x12
 2417 0182 01       		.uleb128 0x1
 2418 0183 40       		.uleb128 0x40
 2419 0184 06       		.uleb128 0x6
 2420 0185 01       		.uleb128 0x1
 2421 0186 13       		.uleb128 0x13
 2422 0187 00       		.byte	0
 2423 0188 00       		.byte	0
 2424 0189 1E       		.uleb128 0x1e
 2425 018a 34       		.uleb128 0x34
 2426 018b 00       		.byte	0
ARM GAS  C:\Users\z80\AppData\Local\Temp\cc5UgZt9.s 			page 44


 2427 018c 03       		.uleb128 0x3
 2428 018d 08       		.uleb128 0x8
 2429 018e 3A       		.uleb128 0x3a
 2430 018f 0B       		.uleb128 0xb
 2431 0190 3B       		.uleb128 0x3b
 2432 0191 0B       		.uleb128 0xb
 2433 0192 49       		.uleb128 0x49
 2434 0193 13       		.uleb128 0x13
 2435 0194 02       		.uleb128 0x2
 2436 0195 0A       		.uleb128 0xa
 2437 0196 00       		.byte	0
 2438 0197 00       		.byte	0
 2439 0198 1F       		.uleb128 0x1f
 2440 0199 2E       		.uleb128 0x2e
 2441 019a 01       		.byte	0x1
 2442 019b 03       		.uleb128 0x3
 2443 019c 08       		.uleb128 0x8
 2444 019d 3A       		.uleb128 0x3a
 2445 019e 0B       		.uleb128 0xb
 2446 019f 3B       		.uleb128 0x3b
 2447 01a0 0B       		.uleb128 0xb
 2448 01a1 27       		.uleb128 0x27
 2449 01a2 0C       		.uleb128 0xc
 2450 01a3 11       		.uleb128 0x11
 2451 01a4 01       		.uleb128 0x1
 2452 01a5 12       		.uleb128 0x12
 2453 01a6 01       		.uleb128 0x1
 2454 01a7 40       		.uleb128 0x40
 2455 01a8 0A       		.uleb128 0xa
 2456 01a9 01       		.uleb128 0x1
 2457 01aa 13       		.uleb128 0x13
 2458 01ab 00       		.byte	0
 2459 01ac 00       		.byte	0
 2460 01ad 20       		.uleb128 0x20
 2461 01ae 2E       		.uleb128 0x2e
 2462 01af 01       		.byte	0x1
 2463 01b0 31       		.uleb128 0x31
 2464 01b1 13       		.uleb128 0x13
 2465 01b2 11       		.uleb128 0x11
 2466 01b3 01       		.uleb128 0x1
 2467 01b4 12       		.uleb128 0x12
 2468 01b5 01       		.uleb128 0x1
 2469 01b6 40       		.uleb128 0x40
 2470 01b7 06       		.uleb128 0x6
 2471 01b8 01       		.uleb128 0x1
 2472 01b9 13       		.uleb128 0x13
 2473 01ba 00       		.byte	0
 2474 01bb 00       		.byte	0
 2475 01bc 21       		.uleb128 0x21
 2476 01bd 34       		.uleb128 0x34
 2477 01be 00       		.byte	0
 2478 01bf 31       		.uleb128 0x31
 2479 01c0 13       		.uleb128 0x13
 2480 01c1 02       		.uleb128 0x2
 2481 01c2 06       		.uleb128 0x6
 2482 01c3 00       		.byte	0
 2483 01c4 00       		.byte	0
ARM GAS  C:\Users\z80\AppData\Local\Temp\cc5UgZt9.s 			page 45


 2484 01c5 22       		.uleb128 0x22
 2485 01c6 1D       		.uleb128 0x1d
 2486 01c7 01       		.byte	0x1
 2487 01c8 31       		.uleb128 0x31
 2488 01c9 13       		.uleb128 0x13
 2489 01ca 52       		.uleb128 0x52
 2490 01cb 01       		.uleb128 0x1
 2491 01cc 55       		.uleb128 0x55
 2492 01cd 06       		.uleb128 0x6
 2493 01ce 58       		.uleb128 0x58
 2494 01cf 0B       		.uleb128 0xb
 2495 01d0 59       		.uleb128 0x59
 2496 01d1 05       		.uleb128 0x5
 2497 01d2 00       		.byte	0
 2498 01d3 00       		.byte	0
 2499 01d4 23       		.uleb128 0x23
 2500 01d5 0B       		.uleb128 0xb
 2501 01d6 01       		.byte	0x1
 2502 01d7 55       		.uleb128 0x55
 2503 01d8 06       		.uleb128 0x6
 2504 01d9 00       		.byte	0
 2505 01da 00       		.byte	0
 2506 01db 24       		.uleb128 0x24
 2507 01dc 34       		.uleb128 0x34
 2508 01dd 00       		.byte	0
 2509 01de 31       		.uleb128 0x31
 2510 01df 13       		.uleb128 0x13
 2511 01e0 00       		.byte	0
 2512 01e1 00       		.byte	0
 2513 01e2 25       		.uleb128 0x25
 2514 01e3 1D       		.uleb128 0x1d
 2515 01e4 01       		.byte	0x1
 2516 01e5 31       		.uleb128 0x31
 2517 01e6 13       		.uleb128 0x13
 2518 01e7 11       		.uleb128 0x11
 2519 01e8 01       		.uleb128 0x1
 2520 01e9 12       		.uleb128 0x12
 2521 01ea 01       		.uleb128 0x1
 2522 01eb 58       		.uleb128 0x58
 2523 01ec 0B       		.uleb128 0xb
 2524 01ed 59       		.uleb128 0x59
 2525 01ee 0B       		.uleb128 0xb
 2526 01ef 00       		.byte	0
 2527 01f0 00       		.byte	0
 2528 01f1 26       		.uleb128 0x26
 2529 01f2 0B       		.uleb128 0xb
 2530 01f3 01       		.byte	0x1
 2531 01f4 11       		.uleb128 0x11
 2532 01f5 01       		.uleb128 0x1
 2533 01f6 12       		.uleb128 0x12
 2534 01f7 01       		.uleb128 0x1
 2535 01f8 00       		.byte	0
 2536 01f9 00       		.byte	0
 2537 01fa 27       		.uleb128 0x27
 2538 01fb 34       		.uleb128 0x34
 2539 01fc 00       		.byte	0
 2540 01fd 31       		.uleb128 0x31
ARM GAS  C:\Users\z80\AppData\Local\Temp\cc5UgZt9.s 			page 46


 2541 01fe 13       		.uleb128 0x13
 2542 01ff 02       		.uleb128 0x2
 2543 0200 0A       		.uleb128 0xa
 2544 0201 00       		.byte	0
 2545 0202 00       		.byte	0
 2546 0203 28       		.uleb128 0x28
 2547 0204 01       		.uleb128 0x1
 2548 0205 01       		.byte	0x1
 2549 0206 49       		.uleb128 0x49
 2550 0207 13       		.uleb128 0x13
 2551 0208 01       		.uleb128 0x1
 2552 0209 13       		.uleb128 0x13
 2553 020a 00       		.byte	0
 2554 020b 00       		.byte	0
 2555 020c 29       		.uleb128 0x29
 2556 020d 21       		.uleb128 0x21
 2557 020e 00       		.byte	0
 2558 020f 49       		.uleb128 0x49
 2559 0210 13       		.uleb128 0x13
 2560 0211 2F       		.uleb128 0x2f
 2561 0212 0B       		.uleb128 0xb
 2562 0213 00       		.byte	0
 2563 0214 00       		.byte	0
 2564 0215 2A       		.uleb128 0x2a
 2565 0216 34       		.uleb128 0x34
 2566 0217 00       		.byte	0
 2567 0218 03       		.uleb128 0x3
 2568 0219 0E       		.uleb128 0xe
 2569 021a 3A       		.uleb128 0x3a
 2570 021b 0B       		.uleb128 0xb
 2571 021c 3B       		.uleb128 0x3b
 2572 021d 0B       		.uleb128 0xb
 2573 021e 49       		.uleb128 0x49
 2574 021f 13       		.uleb128 0x13
 2575 0220 02       		.uleb128 0x2
 2576 0221 0A       		.uleb128 0xa
 2577 0222 00       		.byte	0
 2578 0223 00       		.byte	0
 2579 0224 2B       		.uleb128 0x2b
 2580 0225 34       		.uleb128 0x34
 2581 0226 00       		.byte	0
 2582 0227 03       		.uleb128 0x3
 2583 0228 0E       		.uleb128 0xe
 2584 0229 3A       		.uleb128 0x3a
 2585 022a 0B       		.uleb128 0xb
 2586 022b 3B       		.uleb128 0x3b
 2587 022c 0B       		.uleb128 0xb
 2588 022d 49       		.uleb128 0x49
 2589 022e 13       		.uleb128 0x13
 2590 022f 3F       		.uleb128 0x3f
 2591 0230 0C       		.uleb128 0xc
 2592 0231 3C       		.uleb128 0x3c
 2593 0232 0C       		.uleb128 0xc
 2594 0233 00       		.byte	0
 2595 0234 00       		.byte	0
 2596 0235 2C       		.uleb128 0x2c
 2597 0236 21       		.uleb128 0x21
ARM GAS  C:\Users\z80\AppData\Local\Temp\cc5UgZt9.s 			page 47


 2598 0237 00       		.byte	0
 2599 0238 00       		.byte	0
 2600 0239 00       		.byte	0
 2601 023a 2D       		.uleb128 0x2d
 2602 023b 34       		.uleb128 0x34
 2603 023c 00       		.byte	0
 2604 023d 03       		.uleb128 0x3
 2605 023e 08       		.uleb128 0x8
 2606 023f 3A       		.uleb128 0x3a
 2607 0240 0B       		.uleb128 0xb
 2608 0241 3B       		.uleb128 0x3b
 2609 0242 0B       		.uleb128 0xb
 2610 0243 49       		.uleb128 0x49
 2611 0244 13       		.uleb128 0x13
 2612 0245 3F       		.uleb128 0x3f
 2613 0246 0C       		.uleb128 0xc
 2614 0247 3C       		.uleb128 0x3c
 2615 0248 0C       		.uleb128 0xc
 2616 0249 00       		.byte	0
 2617 024a 00       		.byte	0
 2618 024b 2E       		.uleb128 0x2e
 2619 024c 34       		.uleb128 0x34
 2620 024d 00       		.byte	0
 2621 024e 03       		.uleb128 0x3
 2622 024f 0E       		.uleb128 0xe
 2623 0250 3A       		.uleb128 0x3a
 2624 0251 0B       		.uleb128 0xb
 2625 0252 3B       		.uleb128 0x3b
 2626 0253 0B       		.uleb128 0xb
 2627 0254 49       		.uleb128 0x49
 2628 0255 13       		.uleb128 0x13
 2629 0256 3F       		.uleb128 0x3f
 2630 0257 0C       		.uleb128 0xc
 2631 0258 02       		.uleb128 0x2
 2632 0259 0A       		.uleb128 0xa
 2633 025a 00       		.byte	0
 2634 025b 00       		.byte	0
 2635 025c 2F       		.uleb128 0x2f
 2636 025d 34       		.uleb128 0x34
 2637 025e 00       		.byte	0
 2638 025f 03       		.uleb128 0x3
 2639 0260 0E       		.uleb128 0xe
 2640 0261 3A       		.uleb128 0x3a
 2641 0262 0B       		.uleb128 0xb
 2642 0263 3B       		.uleb128 0x3b
 2643 0264 05       		.uleb128 0x5
 2644 0265 49       		.uleb128 0x49
 2645 0266 13       		.uleb128 0x13
 2646 0267 3F       		.uleb128 0x3f
 2647 0268 0C       		.uleb128 0xc
 2648 0269 02       		.uleb128 0x2
 2649 026a 0A       		.uleb128 0xa
 2650 026b 00       		.byte	0
 2651 026c 00       		.byte	0
 2652 026d 00       		.byte	0
 2653              		.section	.debug_loc,"",%progbits
 2654              	.Ldebug_loc0:
ARM GAS  C:\Users\z80\AppData\Local\Temp\cc5UgZt9.s 			page 48


 2655              	.LLST0:
 2656 0000 00000000 		.4byte	.LFB14
 2657 0004 06000000 		.4byte	.LCFI0
 2658 0008 0200     		.2byte	0x2
 2659 000a 7D       		.byte	0x7d
 2660 000b 00       		.sleb128 0
 2661 000c 06000000 		.4byte	.LCFI0
 2662 0010 28000000 		.4byte	.LFE14
 2663 0014 0200     		.2byte	0x2
 2664 0016 7D       		.byte	0x7d
 2665 0017 08       		.sleb128 8
 2666 0018 00000000 		.4byte	0
 2667 001c 00000000 		.4byte	0
 2668              	.LLST1:
 2669 0020 00000000 		.4byte	.LVL0
 2670 0024 04000000 		.4byte	.LVL1
 2671 0028 0100     		.2byte	0x1
 2672 002a 50       		.byte	0x50
 2673 002b 00000000 		.4byte	0
 2674 002f 00000000 		.4byte	0
 2675              	.LLST2:
 2676 0033 00000000 		.4byte	.LFB13
 2677 0037 02000000 		.4byte	.LCFI1
 2678 003b 0200     		.2byte	0x2
 2679 003d 7D       		.byte	0x7d
 2680 003e 00       		.sleb128 0
 2681 003f 02000000 		.4byte	.LCFI1
 2682 0043 16000000 		.4byte	.LFE13
 2683 0047 0200     		.2byte	0x2
 2684 0049 7D       		.byte	0x7d
 2685 004a 08       		.sleb128 8
 2686 004b 00000000 		.4byte	0
 2687 004f 00000000 		.4byte	0
 2688              	.LLST3:
 2689 0053 00000000 		.4byte	.LVL2
 2690 0057 06000000 		.4byte	.LVL3
 2691 005b 0100     		.2byte	0x1
 2692 005d 50       		.byte	0x50
 2693 005e 06000000 		.4byte	.LVL3
 2694 0062 16000000 		.4byte	.LFE13
 2695 0066 0100     		.2byte	0x1
 2696 0068 54       		.byte	0x54
 2697 0069 00000000 		.4byte	0
 2698 006d 00000000 		.4byte	0
 2699              	.LLST4:
 2700 0071 00000000 		.4byte	.LFB11
 2701 0075 02000000 		.4byte	.LCFI2
 2702 0079 0200     		.2byte	0x2
 2703 007b 7D       		.byte	0x7d
 2704 007c 00       		.sleb128 0
 2705 007d 02000000 		.4byte	.LCFI2
 2706 0081 08000000 		.4byte	.LCFI3
 2707 0085 0200     		.2byte	0x2
 2708 0087 7D       		.byte	0x7d
 2709 0088 08       		.sleb128 8
 2710 0089 08000000 		.4byte	.LCFI3
 2711 008d 8C000000 		.4byte	.LFE11
ARM GAS  C:\Users\z80\AppData\Local\Temp\cc5UgZt9.s 			page 49


 2712 0091 0200     		.2byte	0x2
 2713 0093 7D       		.byte	0x7d
 2714 0094 20       		.sleb128 32
 2715 0095 00000000 		.4byte	0
 2716 0099 00000000 		.4byte	0
 2717              	.LLST5:
 2718 009d 00000000 		.4byte	.LVL4
 2719 00a1 02000000 		.4byte	.LVL5
 2720 00a5 0100     		.2byte	0x1
 2721 00a7 50       		.byte	0x50
 2722 00a8 00000000 		.4byte	0
 2723 00ac 00000000 		.4byte	0
 2724              	.LLST6:
 2725 00b0 00000000 		.4byte	.LVL6
 2726 00b4 02000000 		.4byte	.LVL7
 2727 00b8 0100     		.2byte	0x1
 2728 00ba 50       		.byte	0x50
 2729 00bb 00000000 		.4byte	0
 2730 00bf 00000000 		.4byte	0
 2731              	.LLST7:
 2732 00c3 00000000 		.4byte	.LVL8
 2733 00c7 02000000 		.4byte	.LVL9
 2734 00cb 0100     		.2byte	0x1
 2735 00cd 50       		.byte	0x50
 2736 00ce 00000000 		.4byte	0
 2737 00d2 00000000 		.4byte	0
 2738              	.LLST8:
 2739 00d6 00000000 		.4byte	.LFB17
 2740 00da 02000000 		.4byte	.LCFI4
 2741 00de 0200     		.2byte	0x2
 2742 00e0 7D       		.byte	0x7d
 2743 00e1 00       		.sleb128 0
 2744 00e2 02000000 		.4byte	.LCFI4
 2745 00e6 AA000000 		.4byte	.LFE17
 2746 00ea 0200     		.2byte	0x2
 2747 00ec 7D       		.byte	0x7d
 2748 00ed 08       		.sleb128 8
 2749 00ee 00000000 		.4byte	0
 2750 00f2 00000000 		.4byte	0
 2751              	.LLST9:
 2752 00f6 0C000000 		.4byte	.LVL10
 2753 00fa 16000000 		.4byte	.LVL11
 2754 00fe 0100     		.2byte	0x1
 2755 0100 50       		.byte	0x50
 2756 0101 28000000 		.4byte	.LVL12
 2757 0105 32000000 		.4byte	.LVL13
 2758 0109 0100     		.2byte	0x1
 2759 010b 50       		.byte	0x50
 2760 010c 44000000 		.4byte	.LVL14
 2761 0110 4E000000 		.4byte	.LVL15
 2762 0114 0100     		.2byte	0x1
 2763 0116 50       		.byte	0x50
 2764 0117 00000000 		.4byte	0
 2765 011b 00000000 		.4byte	0
 2766              	.LLST10:
 2767 011f 60000000 		.4byte	.LVL16
 2768 0123 6A000000 		.4byte	.LVL17
ARM GAS  C:\Users\z80\AppData\Local\Temp\cc5UgZt9.s 			page 50


 2769 0127 0100     		.2byte	0x1
 2770 0129 50       		.byte	0x50
 2771 012a 7C000000 		.4byte	.LVL18
 2772 012e 86000000 		.4byte	.LVL19
 2773 0132 0100     		.2byte	0x1
 2774 0134 50       		.byte	0x50
 2775 0135 98000000 		.4byte	.LVL20
 2776 0139 A2000000 		.4byte	.LVL21
 2777 013d 0100     		.2byte	0x1
 2778 013f 50       		.byte	0x50
 2779 0140 00000000 		.4byte	0
 2780 0144 00000000 		.4byte	0
 2781              	.LLST11:
 2782 0148 00000000 		.4byte	.LFB15
 2783 014c 04000000 		.4byte	.LCFI5
 2784 0150 0200     		.2byte	0x2
 2785 0152 7D       		.byte	0x7d
 2786 0153 00       		.sleb128 0
 2787 0154 04000000 		.4byte	.LCFI5
 2788 0158 08000000 		.4byte	.LCFI6
 2789 015c 0200     		.2byte	0x2
 2790 015e 7D       		.byte	0x7d
 2791 015f 1C       		.sleb128 28
 2792 0160 08000000 		.4byte	.LCFI6
 2793 0164 7C020000 		.4byte	.LFE15
 2794 0168 0300     		.2byte	0x3
 2795 016a 7D       		.byte	0x7d
 2796 016b C000     		.sleb128 64
 2797 016d 00000000 		.4byte	0
 2798 0171 00000000 		.4byte	0
 2799              	.LLST12:
 2800 0175 14000000 		.4byte	.LVL22
 2801 0179 18000000 		.4byte	.LVL23
 2802 017d 0100     		.2byte	0x1
 2803 017f 50       		.byte	0x50
 2804 0180 18000000 		.4byte	.LVL23
 2805 0184 20000000 		.4byte	.LVL24
 2806 0188 0300     		.2byte	0x3
 2807 018a 70       		.byte	0x70
 2808 018b 01       		.sleb128 1
 2809 018c 9F       		.byte	0x9f
 2810 018d 34000000 		.4byte	.LVL25
 2811 0191 40000000 		.4byte	.LVL26
 2812 0195 0100     		.2byte	0x1
 2813 0197 50       		.byte	0x50
 2814 0198 40000000 		.4byte	.LVL26
 2815 019c 43000000 		.4byte	.LVL27-1
 2816 01a0 0300     		.2byte	0x3
 2817 01a2 73       		.byte	0x73
 2818 01a3 04       		.sleb128 4
 2819 01a4 9F       		.byte	0x9f
 2820 01a5 50000000 		.4byte	.LVL28
 2821 01a9 5A000000 		.4byte	.LVL29
 2822 01ad 0100     		.2byte	0x1
 2823 01af 50       		.byte	0x50
 2824 01b0 00000000 		.4byte	0
 2825 01b4 00000000 		.4byte	0
ARM GAS  C:\Users\z80\AppData\Local\Temp\cc5UgZt9.s 			page 51


 2826              	.LLST13:
 2827 01b8 B6000000 		.4byte	.LVL31
 2828 01bc BC000000 		.4byte	.LVL32
 2829 01c0 0100     		.2byte	0x1
 2830 01c2 50       		.byte	0x50
 2831 01c3 BC000000 		.4byte	.LVL32
 2832 01c7 E2000000 		.4byte	.LVL33
 2833 01cb 0100     		.2byte	0x1
 2834 01cd 59       		.byte	0x59
 2835 01ce E2000000 		.4byte	.LVL33
 2836 01d2 EC000000 		.4byte	.LVL34
 2837 01d6 0100     		.2byte	0x1
 2838 01d8 50       		.byte	0x50
 2839 01d9 06010000 		.4byte	.LVL35
 2840 01dd 0C010000 		.4byte	.LVL36
 2841 01e1 0100     		.2byte	0x1
 2842 01e3 50       		.byte	0x50
 2843 01e4 0C010000 		.4byte	.LVL36
 2844 01e8 15010000 		.4byte	.LVL37-1
 2845 01ec 0300     		.2byte	0x3
 2846 01ee 72       		.byte	0x72
 2847 01ef 05       		.sleb128 5
 2848 01f0 9F       		.byte	0x9f
 2849 01f1 22010000 		.4byte	.LVL38
 2850 01f5 2C010000 		.4byte	.LVL39
 2851 01f9 0100     		.2byte	0x1
 2852 01fb 50       		.byte	0x50
 2853 01fc 6C010000 		.4byte	.LVL42
 2854 0200 72010000 		.4byte	.LVL43
 2855 0204 0100     		.2byte	0x1
 2856 0206 50       		.byte	0x50
 2857 0207 72010000 		.4byte	.LVL43
 2858 020b 9A010000 		.4byte	.LVL44
 2859 020f 0100     		.2byte	0x1
 2860 0211 59       		.byte	0x59
 2861 0212 9A010000 		.4byte	.LVL44
 2862 0216 A4010000 		.4byte	.LVL45
 2863 021a 0100     		.2byte	0x1
 2864 021c 50       		.byte	0x50
 2865 021d 28020000 		.4byte	.LVL48
 2866 0221 32020000 		.4byte	.LVL49
 2867 0225 0100     		.2byte	0x1
 2868 0227 50       		.byte	0x50
 2869 0228 00000000 		.4byte	0
 2870 022c 00000000 		.4byte	0
 2871              	.LLST14:
 2872 0230 98000000 		.4byte	.LVL30
 2873 0234 46010000 		.4byte	.LVL40
 2874 0238 0300     		.2byte	0x3
 2875 023a 77       		.byte	0x77
 2876 023b 19       		.sleb128 25
 2877 023c 9F       		.byte	0x9f
 2878 023d 54010000 		.4byte	.LVL41
 2879 0241 B2010000 		.4byte	.LVL46
 2880 0245 0300     		.2byte	0x3
 2881 0247 77       		.byte	0x77
 2882 0248 19       		.sleb128 25
ARM GAS  C:\Users\z80\AppData\Local\Temp\cc5UgZt9.s 			page 52


 2883 0249 9F       		.byte	0x9f
 2884 024a FE010000 		.4byte	.LVL47
 2885 024e 7C020000 		.4byte	.LFE15
 2886 0252 0300     		.2byte	0x3
 2887 0254 75       		.byte	0x75
 2888 0255 19       		.sleb128 25
 2889 0256 9F       		.byte	0x9f
 2890 0257 00000000 		.4byte	0
 2891 025b 00000000 		.4byte	0
 2892              		.section	.debug_aranges,"",%progbits
 2893 0000 6C000000 		.4byte	0x6c
 2894 0004 0200     		.2byte	0x2
 2895 0006 00000000 		.4byte	.Ldebug_info0
 2896 000a 04       		.byte	0x4
 2897 000b 00       		.byte	0
 2898 000c 0000     		.2byte	0
 2899 000e 0000     		.2byte	0
 2900 0010 00000000 		.4byte	.LFB16
 2901 0014 08000000 		.4byte	.LFE16-.LFB16
 2902 0018 00000000 		.4byte	.LFB12
 2903 001c 08000000 		.4byte	.LFE12-.LFB12
 2904 0020 00000000 		.4byte	.LFB7
 2905 0024 08000000 		.4byte	.LFE7-.LFB7
 2906 0028 00000000 		.4byte	.LFB14
 2907 002c 28000000 		.4byte	.LFE14-.LFB14
 2908 0030 00000000 		.4byte	.LFB13
 2909 0034 16000000 		.4byte	.LFE13-.LFB13
 2910 0038 00000000 		.4byte	.LFB11
 2911 003c 8C000000 		.4byte	.LFE11-.LFB11
 2912 0040 00000000 		.4byte	.LFB10
 2913 0044 06000000 		.4byte	.LFE10-.LFB10
 2914 0048 00000000 		.4byte	.LFB9
 2915 004c 06000000 		.4byte	.LFE9-.LFB9
 2916 0050 00000000 		.4byte	.LFB8
 2917 0054 06000000 		.4byte	.LFE8-.LFB8
 2918 0058 00000000 		.4byte	.LFB17
 2919 005c AA000000 		.4byte	.LFE17-.LFB17
 2920 0060 00000000 		.4byte	.LFB15
 2921 0064 7C020000 		.4byte	.LFE15-.LFB15
 2922 0068 00000000 		.4byte	0
 2923 006c 00000000 		.4byte	0
 2924              		.section	.debug_ranges,"",%progbits
 2925              	.Ldebug_ranges0:
 2926 0000 56000000 		.4byte	.LBB4
 2927 0004 A2000000 		.4byte	.LBE4
 2928 0008 A6000000 		.4byte	.LBB7
 2929 000c AA000000 		.4byte	.LBE7
 2930 0010 00000000 		.4byte	0
 2931 0014 00000000 		.4byte	0
 2932 0018 56000000 		.4byte	.LBB5
 2933 001c A2000000 		.4byte	.LBE5
 2934 0020 A6000000 		.4byte	.LBB6
 2935 0024 AA000000 		.4byte	.LBE6
 2936 0028 00000000 		.4byte	0
 2937 002c 00000000 		.4byte	0
 2938 0030 00000000 		.4byte	.LFB16
 2939 0034 08000000 		.4byte	.LFE16
ARM GAS  C:\Users\z80\AppData\Local\Temp\cc5UgZt9.s 			page 53


 2940 0038 00000000 		.4byte	.LFB12
 2941 003c 08000000 		.4byte	.LFE12
 2942 0040 00000000 		.4byte	.LFB7
 2943 0044 08000000 		.4byte	.LFE7
 2944 0048 00000000 		.4byte	.LFB14
 2945 004c 28000000 		.4byte	.LFE14
 2946 0050 00000000 		.4byte	.LFB13
 2947 0054 16000000 		.4byte	.LFE13
 2948 0058 00000000 		.4byte	.LFB11
 2949 005c 8C000000 		.4byte	.LFE11
 2950 0060 00000000 		.4byte	.LFB10
 2951 0064 06000000 		.4byte	.LFE10
 2952 0068 00000000 		.4byte	.LFB9
 2953 006c 06000000 		.4byte	.LFE9
 2954 0070 00000000 		.4byte	.LFB8
 2955 0074 06000000 		.4byte	.LFE8
 2956 0078 00000000 		.4byte	.LFB17
 2957 007c AA000000 		.4byte	.LFE17
 2958 0080 00000000 		.4byte	.LFB15
 2959 0084 7C020000 		.4byte	.LFE15
 2960 0088 00000000 		.4byte	0
 2961 008c 00000000 		.4byte	0
 2962              		.section	.debug_line,"",%progbits
 2963              	.Ldebug_line0:
 2964 0000 9E020000 		.section	.debug_str,"MS",%progbits,1
 2964      02006501 
 2964      00000201 
 2964      FB0E0D00 
 2964      01010101 
 2965              	.LASF87:
 2966 0000 65767432 		.ascii	"evt2_setup\000"
 2966      5F736574 
 2966      757000
 2967              	.LASF35:
 2968 000b 705F6D73 		.ascii	"p_msg\000"
 2968      6700
 2969              	.LASF73:
 2970 0011 7264796D 		.ascii	"rdymsg\000"
 2970      736700
 2971              	.LASF11:
 2972 0018 75696E74 		.ascii	"uint64_t\000"
 2972      36345F74 
 2972      00
 2973              	.LASF93:
 2974 0021 76746C69 		.ascii	"vtlist\000"
 2974      737400
 2975              	.LASF12:
 2976 0028 6C6F6E67 		.ascii	"long long unsigned int\000"
 2976      206C6F6E 
 2976      6720756E 
 2976      7369676E 
 2976      65642069 
 2977              	.LASF74:
 2978 003f 65786974 		.ascii	"exitcode\000"
 2978      636F6465 
 2978      00
 2979              	.LASF24:
ARM GAS  C:\Users\z80\AppData\Local\Temp\cc5UgZt9.s 			page 54


 2980 0048 705F7072 		.ascii	"p_prio\000"
 2980      696F00
 2981              	.LASF84:
 2982 004f 65767432 		.ascii	"evt2_execute\000"
 2982      5F657865 
 2982      63757465 
 2982      00
 2983              	.LASF10:
 2984 005c 6C6F6E67 		.ascii	"long long int\000"
 2984      206C6F6E 
 2984      6720696E 
 2984      7400
 2985              	.LASF1:
 2986 006a 7369676E 		.ascii	"signed char\000"
 2986      65642063 
 2986      68617200 
 2987              	.LASF63:
 2988 0076 6D5F7175 		.ascii	"m_queue\000"
 2988      65756500 
 2989              	.LASF102:
 2990 007e 433A5C70 		.ascii	"C:\\projects\\digitizer.git\\firmware\\digitizer\000"
 2990      726F6A65 
 2990      6374735C 
 2990      64696769 
 2990      74697A65 
 2991              	.LASF7:
 2992 00ab 6C6F6E67 		.ascii	"long int\000"
 2992      20696E74 
 2992      00
 2993              	.LASF85:
 2994 00b4 74617267 		.ascii	"target_time\000"
 2994      65745F74 
 2994      696D6500 
 2995              	.LASF14:
 2996 00c0 74737461 		.ascii	"tstate_t\000"
 2996      74655F74 
 2996      00
 2997              	.LASF97:
 2998 00c9 74657374 		.ascii	"testevt2\000"
 2998      65767432 
 2998      00
 2999              	.LASF98:
 3000 00d2 74657374 		.ascii	"testevt3\000"
 3000      65767433 
 3000      00
 3001              	.LASF26:
 3002 00db 705F6E65 		.ascii	"p_newer\000"
 3002      77657200 
 3003              	.LASF57:
 3004 00e3 725F6E65 		.ascii	"r_newer\000"
 3004      77657200 
 3005              	.LASF41:
 3006 00eb 72656761 		.ascii	"regarm_t\000"
 3006      726D5F74 
 3006      00
 3007              	.LASF48:
 3008 00f4 76745F70 		.ascii	"vt_prev\000"
ARM GAS  C:\Users\z80\AppData\Local\Temp\cc5UgZt9.s 			page 55


 3008      72657600 
 3009              	.LASF17:
 3010 00fc 6576656E 		.ascii	"eventid_t\000"
 3010      7469645F 
 3010      7400
 3011              	.LASF70:
 3012 0106 4576656E 		.ascii	"EventSource\000"
 3012      74536F75 
 3012      72636500 
 3013              	.LASF72:
 3014 0112 65766861 		.ascii	"evhandler_t\000"
 3014      6E646C65 
 3014      725F7400 
 3015              	.LASF20:
 3016 011e 636E745F 		.ascii	"cnt_t\000"
 3016      7400
 3017              	.LASF29:
 3018 0124 705F7374 		.ascii	"p_stklimit\000"
 3018      6B6C696D 
 3018      697400
 3019              	.LASF0:
 3020 012f 756E7369 		.ascii	"unsigned int\000"
 3020      676E6564 
 3020      20696E74 
 3020      00
 3021              	.LASF47:
 3022 013c 76745F6E 		.ascii	"vt_next\000"
 3022      65787400 
 3023              	.LASF9:
 3024 0144 6C6F6E67 		.ascii	"long unsigned int\000"
 3024      20756E73 
 3024      69676E65 
 3024      6420696E 
 3024      7400
 3025              	.LASF81:
 3026 0156 74656172 		.ascii	"teardown\000"
 3026      646F776E 
 3026      00
 3027              	.LASF99:
 3028 015f 70617474 		.ascii	"patternevt\000"
 3028      65726E65 
 3028      767400
 3029              	.LASF79:
 3030 016a 6E616D65 		.ascii	"name\000"
 3030      00
 3031              	.LASF44:
 3032 016f 636F6E74 		.ascii	"context\000"
 3032      65787400 
 3033              	.LASF4:
 3034 0177 73686F72 		.ascii	"short unsigned int\000"
 3034      7420756E 
 3034      7369676E 
 3034      65642069 
 3034      6E7400
 3035              	.LASF16:
 3036 018a 6D73675F 		.ascii	"msg_t\000"
 3036      7400
ARM GAS  C:\Users\z80\AppData\Local\Temp\cc5UgZt9.s 			page 56


 3037              	.LASF67:
 3038 0190 656C5F6E 		.ascii	"el_next\000"
 3038      65787400 
 3039              	.LASF13:
 3040 0198 746D6F64 		.ascii	"tmode_t\000"
 3040      655F7400 
 3041              	.LASF40:
 3042 01a0 54687265 		.ascii	"ThreadsList\000"
 3042      6164734C 
 3042      69737400 
 3043              	.LASF18:
 3044 01ac 6576656E 		.ascii	"eventmask_t\000"
 3044      746D6173 
 3044      6B5F7400 
 3045              	.LASF62:
 3046 01b8 4D757465 		.ascii	"Mutex\000"
 3046      7800
 3047              	.LASF42:
 3048 01be 73746B61 		.ascii	"stkalign_t\000"
 3048      6C69676E 
 3048      5F7400
 3049              	.LASF49:
 3050 01c9 76745F74 		.ascii	"vt_time\000"
 3050      696D6500 
 3051              	.LASF88:
 3052 01d1 65767431 		.ascii	"evt1_setup\000"
 3052      5F736574 
 3052      757000
 3053              	.LASF50:
 3054 01dc 76745F66 		.ascii	"vt_func\000"
 3054      756E6300 
 3055              	.LASF86:
 3056 01e4 65767433 		.ascii	"evt3_setup\000"
 3056      5F736574 
 3056      757000
 3057              	.LASF27:
 3058 01ef 705F6F6C 		.ascii	"p_older\000"
 3058      64657200 
 3059              	.LASF90:
 3060 01f7 74687265 		.ascii	"thread1\000"
 3060      61643100 
 3061              	.LASF89:
 3062 01ff 74687265 		.ascii	"thread2\000"
 3062      61643200 
 3063              	.LASF56:
 3064 0207 725F6374 		.ascii	"r_ctx\000"
 3064      7800
 3065              	.LASF39:
 3066 020d 54687265 		.ascii	"ThreadsQueue\000"
 3066      61647351 
 3066      75657565 
 3066      00
 3067              	.LASF80:
 3068 021a 73657475 		.ascii	"setup\000"
 3068      7000
 3069              	.LASF60:
 3070 0220 725F6375 		.ascii	"r_current\000"
ARM GAS  C:\Users\z80\AppData\Local\Temp\cc5UgZt9.s 			page 57


 3070      7272656E 
 3070      7400
 3071              	.LASF58:
 3072 022a 725F6F6C 		.ascii	"r_older\000"
 3072      64657200 
 3073              	.LASF69:
 3074 0232 656C5F6D 		.ascii	"el_mask\000"
 3074      61736B00 
 3075              	.LASF23:
 3076 023a 705F7072 		.ascii	"p_prev\000"
 3076      657600
 3077              	.LASF82:
 3078 0241 65786563 		.ascii	"execute\000"
 3078      75746500 
 3079              	.LASF15:
 3080 0249 74707269 		.ascii	"tprio_t\000"
 3080      6F5F7400 
 3081              	.LASF6:
 3082 0251 696E7433 		.ascii	"int32_t\000"
 3082      325F7400 
 3083              	.LASF2:
 3084 0259 756E7369 		.ascii	"unsigned char\000"
 3084      676E6564 
 3084      20636861 
 3084      7200
 3085              	.LASF68:
 3086 0267 656C5F6C 		.ascii	"el_listener\000"
 3086      69737465 
 3086      6E657200 
 3087              	.LASF83:
 3088 0273 65767433 		.ascii	"evt3_execute\000"
 3088      5F657865 
 3088      63757465 
 3088      00
 3089              	.LASF37:
 3090 0280 705F6D74 		.ascii	"p_mtxlist\000"
 3090      786C6973 
 3090      7400
 3091              	.LASF3:
 3092 028a 73686F72 		.ascii	"short int\000"
 3092      7420696E 
 3092      7400
 3093              	.LASF30:
 3094 0294 705F7374 		.ascii	"p_state\000"
 3094      61746500 
 3095              	.LASF95:
 3096 029c 74687265 		.ascii	"threads\000"
 3096      61647300 
 3097              	.LASF55:
 3098 02a4 725F7072 		.ascii	"r_prio\000"
 3098      696F00
 3099              	.LASF76:
 3100 02ab 65776D61 		.ascii	"ewmask\000"
 3100      736B00
 3101              	.LASF22:
 3102 02b2 705F6E65 		.ascii	"p_next\000"
 3102      787400
ARM GAS  C:\Users\z80\AppData\Local\Temp\cc5UgZt9.s 			page 58


 3103              	.LASF31:
 3104 02b9 705F666C 		.ascii	"p_flags\000"
 3104      61677300 
 3105              	.LASF21:
 3106 02c1 54687265 		.ascii	"Thread\000"
 3106      616400
 3107              	.LASF78:
 3108 02c8 74657374 		.ascii	"testcase\000"
 3108      63617365 
 3108      00
 3109              	.LASF36:
 3110 02d1 705F6570 		.ascii	"p_epending\000"
 3110      656E6469 
 3110      6E6700
 3111              	.LASF96:
 3112 02dc 74657374 		.ascii	"testevt1\000"
 3112      65767431 
 3112      00
 3113              	.LASF92:
 3114 02e5 6576686E 		.ascii	"evhndl\000"
 3114      646C00
 3115              	.LASF8:
 3116 02ec 75696E74 		.ascii	"uint32_t\000"
 3116      33325F74 
 3116      00
 3117              	.LASF54:
 3118 02f5 725F7175 		.ascii	"r_queue\000"
 3118      65756500 
 3119              	.LASF46:
 3120 02fd 56697274 		.ascii	"VirtualTimer\000"
 3120      75616C54 
 3120      696D6572 
 3120      00
 3121              	.LASF100:
 3122 030a 474E5520 		.ascii	"GNU C 4.6.3\000"
 3122      4320342E 
 3122      362E3300 
 3123              	.LASF101:
 3124 0316 2E2E2F63 		.ascii	"../chibios_2.4.x/test/testevt.c\000"
 3124      68696269 
 3124      6F735F32 
 3124      2E342E78 
 3124      2F746573 
 3125              	.LASF77:
 3126 0336 63686172 		.ascii	"char\000"
 3126      00
 3127              	.LASF65:
 3128 033b 6D5F6E65 		.ascii	"m_next\000"
 3128      787400
 3129              	.LASF19:
 3130 0342 73797374 		.ascii	"systime_t\000"
 3130      696D655F 
 3130      7400
 3131              	.LASF38:
 3132 034c 705F7265 		.ascii	"p_realprio\000"
 3132      616C7072 
 3132      696F00
ARM GAS  C:\Users\z80\AppData\Local\Temp\cc5UgZt9.s 			page 59


 3133              	.LASF45:
 3134 0357 76746675 		.ascii	"vtfunc_t\000"
 3134      6E635F74 
 3134      00
 3135              	.LASF32:
 3136 0360 705F7469 		.ascii	"p_time\000"
 3136      6D6500
 3137              	.LASF43:
 3138 0367 696E7463 		.ascii	"intctx\000"
 3138      747800
 3139              	.LASF34:
 3140 036e 705F6D73 		.ascii	"p_msgqueue\000"
 3140      67717565 
 3140      756500
 3141              	.LASF51:
 3142 0379 76745F70 		.ascii	"vt_par\000"
 3142      617200
 3143              	.LASF71:
 3144 0380 65735F6E 		.ascii	"es_next\000"
 3144      65787400 
 3145              	.LASF61:
 3146 0388 52656164 		.ascii	"ReadyList\000"
 3146      794C6973 
 3146      7400
 3147              	.LASF94:
 3148 0392 726C6973 		.ascii	"rlist\000"
 3148      7400
 3149              	.LASF5:
 3150 0398 75696E74 		.ascii	"uint8_t\000"
 3150      385F7400 
 3151              	.LASF66:
 3152 03a0 4576656E 		.ascii	"EventListener\000"
 3152      744C6973 
 3152      74656E65 
 3152      7200
 3153              	.LASF75:
 3154 03ae 77746F62 		.ascii	"wtobjp\000"
 3154      6A7000
 3155              	.LASF28:
 3156 03b5 705F6E61 		.ascii	"p_name\000"
 3156      6D6500
 3157              	.LASF52:
 3158 03bc 76745F73 		.ascii	"vt_systime\000"
 3158      79737469 
 3158      6D6500
 3159              	.LASF53:
 3160 03c7 56544C69 		.ascii	"VTList\000"
 3160      737400
 3161              	.LASF59:
 3162 03ce 725F7072 		.ascii	"r_preempt\000"
 3162      65656D70 
 3162      7400
 3163              	.LASF64:
 3164 03d8 6D5F6F77 		.ascii	"m_owner\000"
 3164      6E657200 
 3165              	.LASF91:
 3166 03e0 65767431 		.ascii	"evt1_execute\000"
ARM GAS  C:\Users\z80\AppData\Local\Temp\cc5UgZt9.s 			page 60


 3166      5F657865 
 3166      63757465 
 3166      00
 3167              	.LASF25:
 3168 03ed 705F6374 		.ascii	"p_ctx\000"
 3168      7800
 3169              	.LASF33:
 3170 03f3 705F7761 		.ascii	"p_waiting\000"
 3170      6974696E 
 3170      6700
 3171              		.ident	"GCC: (Sourcery CodeBench Lite 2012.03-56) 4.6.3"
ARM GAS  C:\Users\z80\AppData\Local\Temp\cc5UgZt9.s 			page 61


DEFINED SYMBOLS
                            *ABS*:00000000 testevt.c
C:\Users\z80\AppData\Local\Temp\cc5UgZt9.s:19     .text.evt3_setup:00000000 $t
C:\Users\z80\AppData\Local\Temp\cc5UgZt9.s:24     .text.evt3_setup:00000000 evt3_setup
C:\Users\z80\AppData\Local\Temp\cc5UgZt9.s:41     .text.evt2_setup:00000000 $t
C:\Users\z80\AppData\Local\Temp\cc5UgZt9.s:46     .text.evt2_setup:00000000 evt2_setup
C:\Users\z80\AppData\Local\Temp\cc5UgZt9.s:62     .text.evt1_setup:00000000 $t
C:\Users\z80\AppData\Local\Temp\cc5UgZt9.s:67     .text.evt1_setup:00000000 evt1_setup
C:\Users\z80\AppData\Local\Temp\cc5UgZt9.s:83     .text.thread2:00000000 $t
C:\Users\z80\AppData\Local\Temp\cc5UgZt9.s:88     .text.thread2:00000000 thread2
C:\Users\z80\AppData\Local\Temp\cc5UgZt9.s:821    .data.es1:00000000 .LANCHOR0
C:\Users\z80\AppData\Local\Temp\cc5UgZt9.s:828    .data.es2:00000000 .LANCHOR1
C:\Users\z80\AppData\Local\Temp\cc5UgZt9.s:123    .text.thread1:00000000 $t
C:\Users\z80\AppData\Local\Temp\cc5UgZt9.s:128    .text.thread1:00000000 thread1
C:\Users\z80\AppData\Local\Temp\cc5UgZt9.s:157    .text.evt1_execute:00000000 $t
C:\Users\z80\AppData\Local\Temp\cc5UgZt9.s:162    .text.evt1_execute:00000000 evt1_execute
C:\Users\z80\AppData\Local\Temp\cc5UgZt9.s:803    .rodata.evhndl:00000000 .LANCHOR2
C:\Users\z80\AppData\Local\Temp\cc5UgZt9.s:779    .rodata.str1.4:00000000 .LC0
C:\Users\z80\AppData\Local\Temp\cc5UgZt9.s:248    .text.h3:00000000 $t
C:\Users\z80\AppData\Local\Temp\cc5UgZt9.s:253    .text.h3:00000000 h3
C:\Users\z80\AppData\Local\Temp\cc5UgZt9.s:269    .text.h2:00000000 $t
C:\Users\z80\AppData\Local\Temp\cc5UgZt9.s:274    .text.h2:00000000 h2
C:\Users\z80\AppData\Local\Temp\cc5UgZt9.s:290    .text.h1:00000000 $t
C:\Users\z80\AppData\Local\Temp\cc5UgZt9.s:295    .text.h1:00000000 h1
C:\Users\z80\AppData\Local\Temp\cc5UgZt9.s:311    .text.evt3_execute:00000000 $t
C:\Users\z80\AppData\Local\Temp\cc5UgZt9.s:316    .text.evt3_execute:00000000 evt3_execute
C:\Users\z80\AppData\Local\Temp\cc5UgZt9.s:426    .text.evt2_execute:00000000 $t
C:\Users\z80\AppData\Local\Temp\cc5UgZt9.s:431    .text.evt2_execute:00000000 evt2_execute
C:\Users\z80\AppData\Local\Temp\cc5UgZt9.s:781    .rodata.str1.4:00000004 .LC1
C:\Users\z80\AppData\Local\Temp\cc5UgZt9.s:763    .rodata.patternevt:00000000 patternevt
C:\Users\z80\AppData\Local\Temp\cc5UgZt9.s:814    .rodata.testevt3:00000000 testevt3
C:\Users\z80\AppData\Local\Temp\cc5UgZt9.s:772    .rodata.testevt2:00000000 testevt2
C:\Users\z80\AppData\Local\Temp\cc5UgZt9.s:796    .rodata.testevt1:00000000 testevt1
C:\Users\z80\AppData\Local\Temp\cc5UgZt9.s:760    .rodata.patternevt:00000000 $d
C:\Users\z80\AppData\Local\Temp\cc5UgZt9.s:769    .rodata.testevt2:00000000 $d
C:\Users\z80\AppData\Local\Temp\cc5UgZt9.s:778    .rodata.str1.4:00000000 $d
C:\Users\z80\AppData\Local\Temp\cc5UgZt9.s:793    .rodata.testevt1:00000000 $d
C:\Users\z80\AppData\Local\Temp\cc5UgZt9.s:802    .rodata.evhndl:00000000 $d
C:\Users\z80\AppData\Local\Temp\cc5UgZt9.s:806    .rodata.evhndl:00000000 evhndl
C:\Users\z80\AppData\Local\Temp\cc5UgZt9.s:811    .rodata.testevt3:00000000 $d
C:\Users\z80\AppData\Local\Temp\cc5UgZt9.s:820    .data.es1:00000000 $d
C:\Users\z80\AppData\Local\Temp\cc5UgZt9.s:824    .data.es1:00000000 es1
C:\Users\z80\AppData\Local\Temp\cc5UgZt9.s:827    .data.es2:00000000 $d
C:\Users\z80\AppData\Local\Temp\cc5UgZt9.s:831    .data.es2:00000000 es2
                     .debug_frame:00000010 $d

UNDEFINED SYMBOLS
chEvtClearFlags
chEvtBroadcastFlags
chThdSleep
chEvtSignalFlags
chEvtRegisterMask
_test_assert
chEvtUnregister
chEvtDispatch
_test_assert_sequence
test_emit_token
ARM GAS  C:\Users\z80\AppData\Local\Temp\cc5UgZt9.s 			page 62


chEvtWaitOneTimeout
chEvtWaitAnyTimeout
chEvtWaitAllTimeout
chEvtAddFlags
chEvtWaitOne
rlist
test_wait_tick
wa
vtlist
chThdCreateStatic
threads
_test_assert_time_window
test_wait_threads
chEvtWaitAny
chEvtWaitAll
