ARM GAS  C:\Users\z80\AppData\Local\Temp\cc1dRxCf.s 			page 1


   1              		.syntax unified
   2              		.cpu cortex-m3
   3              		.fpu softvfp
   4              		.eabi_attribute 20, 1
   5              		.eabi_attribute 21, 1
   6              		.eabi_attribute 23, 3
   7              		.eabi_attribute 24, 1
   8              		.eabi_attribute 25, 1
   9              		.eabi_attribute 26, 1
  10              		.eabi_attribute 30, 6
  11              		.eabi_attribute 34, 1
  12              		.eabi_attribute 18, 4
  13              		.thumb
  14              		.file	"testbmk.c"
  15              		.text
  16              	.Ltext0:
  17              		.cfi_sections	.debug_frame
  18              		.section	.bss.sem1,"aw",%nobits
  19              		.align	2
  20              		.type	sem1, %object
  21              		.size	sem1, 12
  22              	sem1:
  23 0000 00000000 		.space	12
  23      00000000 
  23      00000000 
  24              		.section	.bss.mtx1,"aw",%nobits
  25              		.align	2
  26              		.type	mtx1, %object
  27              		.size	mtx1, 16
  28              	mtx1:
  29 0000 00000000 		.space	16
  29      00000000 
  29      00000000 
  29      00000000 
  30              		.section	.text.thread1,"ax",%progbits
  31              		.align	2
  32              		.p2align 4,,15
  33              		.thumb
  34              		.thumb_func
  35              		.type	thread1, %function
  36              	thread1:
  37              	.LFB7:
  38              		.file 1 "../chibios_2.4.x/test/testbmk.c"
  39              		.loc 1 75 0
  40              		.cfi_startproc
  41              		@ args = 0, pretend = 0, frame = 16
  42              		@ frame_needed = 0, uses_anonymous_args = 0
  43 0000 00B5     		push	{lr}
  44              	.LCFI0:
  45              		.cfi_def_cfa_offset 4
  46              		.cfi_offset 14, -4
  47 0002 85B0     		sub	sp, sp, #20
  48              	.LCFI1:
  49              		.cfi_def_cfa_offset 24
  50 0004 0190     		str	r0, [sp, #4]
  51              	.L2:
  52              		.loc 1 81 0 discriminator 1
ARM GAS  C:\Users\z80\AppData\Local\Temp\cc1dRxCf.s 			page 2


  53 0006 FFF7FEFF 		bl	chMsgWait
  54 000a 0390     		str	r0, [sp, #12]
  55              		.loc 1 82 0 discriminator 1
  56 000c 039B     		ldr	r3, [sp, #12]
  57 000e 9B6B     		ldr	r3, [r3, #56]
  58 0010 0293     		str	r3, [sp, #8]
  59              		.loc 1 83 0 discriminator 1
  60 0012 0398     		ldr	r0, [sp, #12]
  61 0014 0299     		ldr	r1, [sp, #8]
  62 0016 FFF7FEFF 		bl	chMsgRelease
  63              		.loc 1 84 0 discriminator 1
  64 001a 029B     		ldr	r3, [sp, #8]
  65 001c 002B     		cmp	r3, #0
  66 001e F2D1     		bne	.L2
  67              		.loc 1 85 0
  68 0020 4FF00003 		mov	r3, #0
  69              		.loc 1 86 0
  70 0024 1846     		mov	r0, r3
  71 0026 05B0     		add	sp, sp, #20
  72 0028 00BD     		pop	{pc}
  73              		.cfi_endproc
  74              	.LFE7:
  75              		.size	thread1, .-thread1
  76 002a 00BFAFF3 		.section	.text.msg_loop_test,"ax",%progbits
  76      0080
  77              		.align	2
  78              		.p2align 4,,15
  79              		.thumb
  80              		.thumb_func
  81              		.type	msg_loop_test, %function
  82              	msg_loop_test:
  83              	.LFB8:
  84              		.loc 1 91 0
  85              		.cfi_startproc
  86              		@ args = 0, pretend = 0, frame = 16
  87              		@ frame_needed = 0, uses_anonymous_args = 0
  88 0000 00B5     		push	{lr}
  89              	.LCFI2:
  90              		.cfi_def_cfa_offset 4
  91              		.cfi_offset 14, -4
  92 0002 85B0     		sub	sp, sp, #20
  93              	.LCFI3:
  94              		.cfi_def_cfa_offset 24
  95 0004 0190     		str	r0, [sp, #4]
  96              		.loc 1 93 0
  97 0006 4FF00003 		mov	r3, #0
  98 000a 0393     		str	r3, [sp, #12]
  99              		.loc 1 94 0
 100 000c FFF7FEFF 		bl	test_wait_tick
 101              		.loc 1 95 0
 102 0010 4FF47A70 		mov	r0, #1000
 103 0014 FFF7FEFF 		bl	test_start_timer
 104              	.L4:
 105              		.loc 1 97 0 discriminator 1
 106 0018 0198     		ldr	r0, [sp, #4]
 107 001a 4FF00101 		mov	r1, #1
 108 001e FFF7FEFF 		bl	chMsgSend
ARM GAS  C:\Users\z80\AppData\Local\Temp\cc1dRxCf.s 			page 3


 109              		.loc 1 98 0 discriminator 1
 110 0022 039B     		ldr	r3, [sp, #12]
 111 0024 03F10103 		add	r3, r3, #1
 112 0028 0393     		str	r3, [sp, #12]
 113              		.loc 1 102 0 discriminator 1
 114 002a 40F20003 		movw	r3, #:lower16:test_timer_done
 115 002e C0F20003 		movt	r3, #:upper16:test_timer_done
 116 0032 1B68     		ldr	r3, [r3, #0]
 117 0034 002B     		cmp	r3, #0
 118 0036 EFD0     		beq	.L4
 119              		.loc 1 103 0
 120 0038 0198     		ldr	r0, [sp, #4]
 121 003a 4FF00001 		mov	r1, #0
 122 003e FFF7FEFF 		bl	chMsgSend
 123              		.loc 1 104 0
 124 0042 039B     		ldr	r3, [sp, #12]
 125              		.loc 1 105 0
 126 0044 1846     		mov	r0, r3
 127 0046 05B0     		add	sp, sp, #20
 128 0048 00BD     		pop	{pc}
 129              		.cfi_endproc
 130              	.LFE8:
 131              		.size	msg_loop_test, .-msg_loop_test
 132 004a 00BFAFF3 		.section	.rodata
 132      0080
 133              		.align	2
 134              	.LC0:
 135 0000 2D2D2D20 		.ascii	"--- Score : \000"
 135      53636F72 
 135      65203A20 
 135      00
 136 000d 000000   		.align	2
 137              	.LC1:
 138 0010 206D7367 		.ascii	" msgs/S, \000"
 138      732F532C 
 138      2000
 139 001a 0000     		.align	2
 140              	.LC2:
 141 001c 20637478 		.ascii	" ctxswc/S\000"
 141      7377632F 
 141      5300
 142              		.section	.text.bmk1_execute,"ax",%progbits
 143              		.align	2
 144              		.p2align 4,,15
 145              		.thumb
 146              		.thumb_func
 147              		.type	bmk1_execute, %function
 148              	bmk1_execute:
 149              	.LFB9:
 150              		.loc 1 116 0
 151              		.cfi_startproc
 152              		@ args = 0, pretend = 0, frame = 8
 153              		@ frame_needed = 0, uses_anonymous_args = 0
 154 0000 00B5     		push	{lr}
 155              	.LCFI4:
 156              		.cfi_def_cfa_offset 4
 157              		.cfi_offset 14, -4
ARM GAS  C:\Users\z80\AppData\Local\Temp\cc1dRxCf.s 			page 4


 158 0002 85B0     		sub	sp, sp, #20
 159              	.LCFI5:
 160              		.cfi_def_cfa_offset 24
 161              		.loc 1 119 0
 162 0004 40F20003 		movw	r3, #:lower16:wa
 163 0008 C0F20003 		movt	r3, #:upper16:wa
 164 000c 1A68     		ldr	r2, [r3, #0]
 165 000e 40F20003 		movw	r3, #:lower16:rlist
 166 0012 C0F20003 		movt	r3, #:upper16:rlist
 167 0016 DB69     		ldr	r3, [r3, #28]
 168 0018 9B68     		ldr	r3, [r3, #8]
 169 001a 03F1FF33 		add	r3, r3, #-1
 170 001e 4FF00001 		mov	r1, #0
 171 0022 0091     		str	r1, [sp, #0]
 172 0024 1046     		mov	r0, r2
 173 0026 4FF49871 		mov	r1, #304
 174 002a 1A46     		mov	r2, r3
 175 002c 40F20003 		movw	r3, #:lower16:thread1
 176 0030 C0F20003 		movt	r3, #:upper16:thread1
 177 0034 FFF7FEFF 		bl	chThdCreateStatic
 178 0038 0246     		mov	r2, r0
 179 003a 40F20003 		movw	r3, #:lower16:threads
 180 003e C0F20003 		movt	r3, #:upper16:threads
 181 0042 1A60     		str	r2, [r3, #0]
 182              		.loc 1 120 0
 183 0044 40F20003 		movw	r3, #:lower16:threads
 184 0048 C0F20003 		movt	r3, #:upper16:threads
 185 004c 1B68     		ldr	r3, [r3, #0]
 186 004e 1846     		mov	r0, r3
 187 0050 FFF7FEFF 		bl	msg_loop_test
 188 0054 0390     		str	r0, [sp, #12]
 189              		.loc 1 121 0
 190 0056 FFF7FEFF 		bl	test_wait_threads
 191              		.loc 1 122 0
 192 005a 40F20000 		movw	r0, #:lower16:.LC0
 193 005e C0F20000 		movt	r0, #:upper16:.LC0
 194 0062 FFF7FEFF 		bl	test_print
 195              		.loc 1 123 0
 196 0066 0398     		ldr	r0, [sp, #12]
 197 0068 FFF7FEFF 		bl	test_printn
 198              		.loc 1 124 0
 199 006c 40F20000 		movw	r0, #:lower16:.LC1
 200 0070 C0F20000 		movt	r0, #:upper16:.LC1
 201 0074 FFF7FEFF 		bl	test_print
 202              		.loc 1 125 0
 203 0078 039B     		ldr	r3, [sp, #12]
 204 007a 4FEA4303 		lsl	r3, r3, #1
 205 007e 1846     		mov	r0, r3
 206 0080 FFF7FEFF 		bl	test_printn
 207              		.loc 1 126 0
 208 0084 40F20000 		movw	r0, #:lower16:.LC2
 209 0088 C0F20000 		movt	r0, #:upper16:.LC2
 210 008c FFF7FEFF 		bl	test_println
 211              		.loc 1 127 0
 212 0090 05B0     		add	sp, sp, #20
 213 0092 00BD     		pop	{pc}
 214              		.cfi_endproc
ARM GAS  C:\Users\z80\AppData\Local\Temp\cc1dRxCf.s 			page 5


 215              	.LFE9:
 216              		.size	bmk1_execute, .-bmk1_execute
 217              		.global	testbmk1
 218 0094 AFF30080 		.section	.rodata
 218      AFF30080 
 218      AFF30080 
 219 0026 0000     		.align	2
 220              	.LC3:
 221 0028 42656E63 		.ascii	"Benchmark, messages #1\000"
 221      686D6172 
 221      6B2C206D 
 221      65737361 
 221      67657320 
 222              		.section	.rodata.testbmk1,"a",%progbits
 223              		.align	2
 224              		.type	testbmk1, %object
 225              		.size	testbmk1, 16
 226              	testbmk1:
 227 0000 28000000 		.word	.LC3
 228 0004 00000000 		.word	0
 229 0008 00000000 		.word	0
 230 000c 00000000 		.word	bmk1_execute
 231              		.section	.text.bmk2_execute,"ax",%progbits
 232              		.align	2
 233              		.p2align 4,,15
 234              		.thumb
 235              		.thumb_func
 236              		.type	bmk2_execute, %function
 237              	bmk2_execute:
 238              	.LFB10:
 239              		.loc 1 145 0
 240              		.cfi_startproc
 241              		@ args = 0, pretend = 0, frame = 8
 242              		@ frame_needed = 0, uses_anonymous_args = 0
 243 0000 00B5     		push	{lr}
 244              	.LCFI6:
 245              		.cfi_def_cfa_offset 4
 246              		.cfi_offset 14, -4
 247 0002 85B0     		sub	sp, sp, #20
 248              	.LCFI7:
 249              		.cfi_def_cfa_offset 24
 250              		.loc 1 148 0
 251 0004 40F20003 		movw	r3, #:lower16:wa
 252 0008 C0F20003 		movt	r3, #:upper16:wa
 253 000c 1A68     		ldr	r2, [r3, #0]
 254 000e 40F20003 		movw	r3, #:lower16:rlist
 255 0012 C0F20003 		movt	r3, #:upper16:rlist
 256 0016 DB69     		ldr	r3, [r3, #28]
 257 0018 9B68     		ldr	r3, [r3, #8]
 258 001a 03F10103 		add	r3, r3, #1
 259 001e 4FF00001 		mov	r1, #0
 260 0022 0091     		str	r1, [sp, #0]
 261 0024 1046     		mov	r0, r2
 262 0026 4FF49871 		mov	r1, #304
 263 002a 1A46     		mov	r2, r3
 264 002c 40F20003 		movw	r3, #:lower16:thread1
 265 0030 C0F20003 		movt	r3, #:upper16:thread1
ARM GAS  C:\Users\z80\AppData\Local\Temp\cc1dRxCf.s 			page 6


 266 0034 FFF7FEFF 		bl	chThdCreateStatic
 267 0038 0246     		mov	r2, r0
 268 003a 40F20003 		movw	r3, #:lower16:threads
 269 003e C0F20003 		movt	r3, #:upper16:threads
 270 0042 1A60     		str	r2, [r3, #0]
 271              		.loc 1 149 0
 272 0044 40F20003 		movw	r3, #:lower16:threads
 273 0048 C0F20003 		movt	r3, #:upper16:threads
 274 004c 1B68     		ldr	r3, [r3, #0]
 275 004e 1846     		mov	r0, r3
 276 0050 FFF7FEFF 		bl	msg_loop_test
 277 0054 0390     		str	r0, [sp, #12]
 278              		.loc 1 150 0
 279 0056 FFF7FEFF 		bl	test_wait_threads
 280              		.loc 1 151 0
 281 005a 40F20000 		movw	r0, #:lower16:.LC0
 282 005e C0F20000 		movt	r0, #:upper16:.LC0
 283 0062 FFF7FEFF 		bl	test_print
 284              		.loc 1 152 0
 285 0066 0398     		ldr	r0, [sp, #12]
 286 0068 FFF7FEFF 		bl	test_printn
 287              		.loc 1 153 0
 288 006c 40F20000 		movw	r0, #:lower16:.LC1
 289 0070 C0F20000 		movt	r0, #:upper16:.LC1
 290 0074 FFF7FEFF 		bl	test_print
 291              		.loc 1 154 0
 292 0078 039B     		ldr	r3, [sp, #12]
 293 007a 4FEA4303 		lsl	r3, r3, #1
 294 007e 1846     		mov	r0, r3
 295 0080 FFF7FEFF 		bl	test_printn
 296              		.loc 1 155 0
 297 0084 40F20000 		movw	r0, #:lower16:.LC2
 298 0088 C0F20000 		movt	r0, #:upper16:.LC2
 299 008c FFF7FEFF 		bl	test_println
 300              		.loc 1 156 0
 301 0090 05B0     		add	sp, sp, #20
 302 0092 00BD     		pop	{pc}
 303              		.cfi_endproc
 304              	.LFE10:
 305              		.size	bmk2_execute, .-bmk2_execute
 306              		.global	testbmk2
 307 0094 AFF30080 		.section	.rodata
 307      AFF30080 
 307      AFF30080 
 308 003f 00       		.align	2
 309              	.LC4:
 310 0040 42656E63 		.ascii	"Benchmark, messages #2\000"
 310      686D6172 
 310      6B2C206D 
 310      65737361 
 310      67657320 
 311              		.section	.rodata.testbmk2,"a",%progbits
 312              		.align	2
 313              		.type	testbmk2, %object
 314              		.size	testbmk2, 16
 315              	testbmk2:
 316 0000 40000000 		.word	.LC4
ARM GAS  C:\Users\z80\AppData\Local\Temp\cc1dRxCf.s 			page 7


 317 0004 00000000 		.word	0
 318 0008 00000000 		.word	0
 319 000c 00000000 		.word	bmk2_execute
 320              		.section	.text.thread2,"ax",%progbits
 321              		.align	2
 322              		.p2align 4,,15
 323              		.thumb
 324              		.thumb_func
 325              		.type	thread2, %function
 326              	thread2:
 327              	.LFB11:
 328              		.loc 1 165 0
 329              		.cfi_startproc
 330              		@ args = 0, pretend = 0, frame = 8
 331              		@ frame_needed = 0, uses_anonymous_args = 0
 332              		@ link register save eliminated.
 333 0000 82B0     		sub	sp, sp, #8
 334              	.LCFI8:
 335              		.cfi_def_cfa_offset 8
 336 0002 0190     		str	r0, [sp, #4]
 337              		.loc 1 167 0
 338 0004 019B     		ldr	r3, [sp, #4]
 339              		.loc 1 168 0
 340 0006 1846     		mov	r0, r3
 341 0008 02B0     		add	sp, sp, #8
 342 000a 7047     		bx	lr
 343              		.cfi_endproc
 344              	.LFE11:
 345              		.size	thread2, .-thread2
 346 000c AFF30080 		.section	.text.bmk3_execute,"ax",%progbits
 347              		.align	2
 348              		.p2align 4,,15
 349              		.thumb
 350              		.thumb_func
 351              		.type	bmk3_execute, %function
 352              	bmk3_execute:
 353              	.LFB12:
 354              		.loc 1 180 0
 355              		.cfi_startproc
 356              		@ args = 0, pretend = 0, frame = 8
 357              		@ frame_needed = 0, uses_anonymous_args = 0
 358 0000 00B5     		push	{lr}
 359              	.LCFI9:
 360              		.cfi_def_cfa_offset 4
 361              		.cfi_offset 14, -4
 362 0002 85B0     		sub	sp, sp, #20
 363              	.LCFI10:
 364              		.cfi_def_cfa_offset 24
 365              		.loc 1 183 0
 366 0004 40F20003 		movw	r3, #:lower16:wa
 367 0008 C0F20003 		movt	r3, #:upper16:wa
 368 000c 1A68     		ldr	r2, [r3, #0]
 369 000e 40F20003 		movw	r3, #:lower16:rlist
 370 0012 C0F20003 		movt	r3, #:upper16:rlist
 371 0016 DB69     		ldr	r3, [r3, #28]
 372 0018 9B68     		ldr	r3, [r3, #8]
 373 001a 03F10103 		add	r3, r3, #1
ARM GAS  C:\Users\z80\AppData\Local\Temp\cc1dRxCf.s 			page 8


 374 001e 4FF00001 		mov	r1, #0
 375 0022 0091     		str	r1, [sp, #0]
 376 0024 1046     		mov	r0, r2
 377 0026 4FF49871 		mov	r1, #304
 378 002a 1A46     		mov	r2, r3
 379 002c 40F20003 		movw	r3, #:lower16:thread1
 380 0030 C0F20003 		movt	r3, #:upper16:thread1
 381 0034 FFF7FEFF 		bl	chThdCreateStatic
 382 0038 0246     		mov	r2, r0
 383 003a 40F20003 		movw	r3, #:lower16:threads
 384 003e C0F20003 		movt	r3, #:upper16:threads
 385 0042 1A60     		str	r2, [r3, #0]
 386              		.loc 1 184 0
 387 0044 40F20003 		movw	r3, #:lower16:wa
 388 0048 C0F20003 		movt	r3, #:upper16:wa
 389 004c 5A68     		ldr	r2, [r3, #4]
 390 004e 40F20003 		movw	r3, #:lower16:rlist
 391 0052 C0F20003 		movt	r3, #:upper16:rlist
 392 0056 DB69     		ldr	r3, [r3, #28]
 393 0058 9B68     		ldr	r3, [r3, #8]
 394 005a A3F10203 		sub	r3, r3, #2
 395 005e 4FF00001 		mov	r1, #0
 396 0062 0091     		str	r1, [sp, #0]
 397 0064 1046     		mov	r0, r2
 398 0066 4FF49871 		mov	r1, #304
 399 006a 1A46     		mov	r2, r3
 400 006c 40F20003 		movw	r3, #:lower16:thread2
 401 0070 C0F20003 		movt	r3, #:upper16:thread2
 402 0074 FFF7FEFF 		bl	chThdCreateStatic
 403 0078 0246     		mov	r2, r0
 404 007a 40F20003 		movw	r3, #:lower16:threads
 405 007e C0F20003 		movt	r3, #:upper16:threads
 406 0082 5A60     		str	r2, [r3, #4]
 407              		.loc 1 185 0
 408 0084 40F20003 		movw	r3, #:lower16:wa
 409 0088 C0F20003 		movt	r3, #:upper16:wa
 410 008c 9A68     		ldr	r2, [r3, #8]
 411 008e 40F20003 		movw	r3, #:lower16:rlist
 412 0092 C0F20003 		movt	r3, #:upper16:rlist
 413 0096 DB69     		ldr	r3, [r3, #28]
 414 0098 9B68     		ldr	r3, [r3, #8]
 415 009a A3F10303 		sub	r3, r3, #3
 416 009e 4FF00001 		mov	r1, #0
 417 00a2 0091     		str	r1, [sp, #0]
 418 00a4 1046     		mov	r0, r2
 419 00a6 4FF49871 		mov	r1, #304
 420 00aa 1A46     		mov	r2, r3
 421 00ac 40F20003 		movw	r3, #:lower16:thread2
 422 00b0 C0F20003 		movt	r3, #:upper16:thread2
 423 00b4 FFF7FEFF 		bl	chThdCreateStatic
 424 00b8 0246     		mov	r2, r0
 425 00ba 40F20003 		movw	r3, #:lower16:threads
 426 00be C0F20003 		movt	r3, #:upper16:threads
 427 00c2 9A60     		str	r2, [r3, #8]
 428              		.loc 1 186 0
 429 00c4 40F20003 		movw	r3, #:lower16:wa
 430 00c8 C0F20003 		movt	r3, #:upper16:wa
ARM GAS  C:\Users\z80\AppData\Local\Temp\cc1dRxCf.s 			page 9


 431 00cc DA68     		ldr	r2, [r3, #12]
 432 00ce 40F20003 		movw	r3, #:lower16:rlist
 433 00d2 C0F20003 		movt	r3, #:upper16:rlist
 434 00d6 DB69     		ldr	r3, [r3, #28]
 435 00d8 9B68     		ldr	r3, [r3, #8]
 436 00da A3F10403 		sub	r3, r3, #4
 437 00de 4FF00001 		mov	r1, #0
 438 00e2 0091     		str	r1, [sp, #0]
 439 00e4 1046     		mov	r0, r2
 440 00e6 4FF49871 		mov	r1, #304
 441 00ea 1A46     		mov	r2, r3
 442 00ec 40F20003 		movw	r3, #:lower16:thread2
 443 00f0 C0F20003 		movt	r3, #:upper16:thread2
 444 00f4 FFF7FEFF 		bl	chThdCreateStatic
 445 00f8 0246     		mov	r2, r0
 446 00fa 40F20003 		movw	r3, #:lower16:threads
 447 00fe C0F20003 		movt	r3, #:upper16:threads
 448 0102 DA60     		str	r2, [r3, #12]
 449              		.loc 1 187 0
 450 0104 40F20003 		movw	r3, #:lower16:wa
 451 0108 C0F20003 		movt	r3, #:upper16:wa
 452 010c 1A69     		ldr	r2, [r3, #16]
 453 010e 40F20003 		movw	r3, #:lower16:rlist
 454 0112 C0F20003 		movt	r3, #:upper16:rlist
 455 0116 DB69     		ldr	r3, [r3, #28]
 456 0118 9B68     		ldr	r3, [r3, #8]
 457 011a A3F10503 		sub	r3, r3, #5
 458 011e 4FF00001 		mov	r1, #0
 459 0122 0091     		str	r1, [sp, #0]
 460 0124 1046     		mov	r0, r2
 461 0126 4FF49871 		mov	r1, #304
 462 012a 1A46     		mov	r2, r3
 463 012c 40F20003 		movw	r3, #:lower16:thread2
 464 0130 C0F20003 		movt	r3, #:upper16:thread2
 465 0134 FFF7FEFF 		bl	chThdCreateStatic
 466 0138 0246     		mov	r2, r0
 467 013a 40F20003 		movw	r3, #:lower16:threads
 468 013e C0F20003 		movt	r3, #:upper16:threads
 469 0142 1A61     		str	r2, [r3, #16]
 470              		.loc 1 188 0
 471 0144 40F20003 		movw	r3, #:lower16:threads
 472 0148 C0F20003 		movt	r3, #:upper16:threads
 473 014c 1B68     		ldr	r3, [r3, #0]
 474 014e 1846     		mov	r0, r3
 475 0150 FFF7FEFF 		bl	msg_loop_test
 476 0154 0390     		str	r0, [sp, #12]
 477              		.loc 1 189 0
 478 0156 FFF7FEFF 		bl	test_wait_threads
 479              		.loc 1 190 0
 480 015a 40F20000 		movw	r0, #:lower16:.LC0
 481 015e C0F20000 		movt	r0, #:upper16:.LC0
 482 0162 FFF7FEFF 		bl	test_print
 483              		.loc 1 191 0
 484 0166 0398     		ldr	r0, [sp, #12]
 485 0168 FFF7FEFF 		bl	test_printn
 486              		.loc 1 192 0
 487 016c 40F20000 		movw	r0, #:lower16:.LC1
ARM GAS  C:\Users\z80\AppData\Local\Temp\cc1dRxCf.s 			page 10


 488 0170 C0F20000 		movt	r0, #:upper16:.LC1
 489 0174 FFF7FEFF 		bl	test_print
 490              		.loc 1 193 0
 491 0178 039B     		ldr	r3, [sp, #12]
 492 017a 4FEA4303 		lsl	r3, r3, #1
 493 017e 1846     		mov	r0, r3
 494 0180 FFF7FEFF 		bl	test_printn
 495              		.loc 1 194 0
 496 0184 40F20000 		movw	r0, #:lower16:.LC2
 497 0188 C0F20000 		movt	r0, #:upper16:.LC2
 498 018c FFF7FEFF 		bl	test_println
 499              		.loc 1 195 0
 500 0190 05B0     		add	sp, sp, #20
 501 0192 00BD     		pop	{pc}
 502              		.cfi_endproc
 503              	.LFE12:
 504              		.size	bmk3_execute, .-bmk3_execute
 505              		.global	testbmk3
 506 0194 AFF30080 		.section	.rodata
 506      AFF30080 
 506      AFF30080 
 507 0057 00       		.align	2
 508              	.LC5:
 509 0058 42656E63 		.ascii	"Benchmark, messages #3\000"
 509      686D6172 
 509      6B2C206D 
 509      65737361 
 509      67657320 
 510              		.section	.rodata.testbmk3,"a",%progbits
 511              		.align	2
 512              		.type	testbmk3, %object
 513              		.size	testbmk3, 16
 514              	testbmk3:
 515 0000 58000000 		.word	.LC5
 516 0004 00000000 		.word	0
 517 0008 00000000 		.word	0
 518 000c 00000000 		.word	bmk3_execute
 519              		.section	.text.thread4,"ax",%progbits
 520              		.align	2
 521              		.p2align 4,,15
 522              		.global	thread4
 523              		.thumb
 524              		.thumb_func
 525              		.type	thread4, %function
 526              	thread4:
 527              	.LFB13:
 528              		.loc 1 214 0
 529              		.cfi_startproc
 530              		@ args = 0, pretend = 0, frame = 16
 531              		@ frame_needed = 0, uses_anonymous_args = 0
 532 0000 00B5     		push	{lr}
 533              	.LCFI11:
 534              		.cfi_def_cfa_offset 4
 535              		.cfi_offset 14, -4
 536 0002 85B0     		sub	sp, sp, #20
 537              	.LCFI12:
 538              		.cfi_def_cfa_offset 24
ARM GAS  C:\Users\z80\AppData\Local\Temp\cc1dRxCf.s 			page 11


 539 0004 0190     		str	r0, [sp, #4]
 540              		.loc 1 216 0
 541 0006 40F20003 		movw	r3, #:lower16:rlist
 542 000a C0F20003 		movt	r3, #:upper16:rlist
 543 000e DB69     		ldr	r3, [r3, #28]
 544 0010 0393     		str	r3, [sp, #12]
 545              	.LBB2:
 546              		.loc 1 219 0
 547 0012 4FF02003 		mov	r3, #32
 548              	@ 219 "../chibios_2.4.x/test/testbmk.c" 1
 549 0016 83F31188 		msr     BASEPRI, r3
 550              	@ 0 "" 2
 551              		.thumb
 552              	.LBE2:
 553 001a FFF7FEFF 		bl	dbg_check_lock
 554              	.L10:
 555              		.loc 1 221 0 discriminator 1
 556 001e 4FF00200 		mov	r0, #2
 557 0022 FFF7FEFF 		bl	chSchGoSleepS
 558              		.loc 1 222 0 discriminator 1
 559 0026 039B     		ldr	r3, [sp, #12]
 560 0028 9B6A     		ldr	r3, [r3, #40]
 561 002a 0293     		str	r3, [sp, #8]
 562              		.loc 1 223 0 discriminator 1
 563 002c 029B     		ldr	r3, [sp, #8]
 564 002e 002B     		cmp	r3, #0
 565 0030 F5D0     		beq	.L10
 566              		.loc 1 224 0
 567 0032 FFF7FEFF 		bl	dbg_check_unlock
 568              	.LBB3:
 569 0036 4FF00003 		mov	r3, #0
 570              	@ 224 "../chibios_2.4.x/test/testbmk.c" 1
 571 003a 83F31188 		msr     BASEPRI, r3
 572              	@ 0 "" 2
 573              		.thumb
 574              	.LBE3:
 575              		.loc 1 225 0
 576 003e 4FF00003 		mov	r3, #0
 577              		.loc 1 226 0
 578 0042 1846     		mov	r0, r3
 579 0044 05B0     		add	sp, sp, #20
 580 0046 00BD     		pop	{pc}
 581              		.cfi_endproc
 582              	.LFE13:
 583              		.size	thread4, .-thread4
 584 0048 AFF30080 		.section	.text.bmk4_execute,"ax",%progbits
 584      AFF30080 
 585              		.align	2
 586              		.p2align 4,,15
 587              		.thumb
 588              		.thumb_func
 589              		.type	bmk4_execute, %function
 590              	bmk4_execute:
 591              	.LFB14:
 592              		.loc 1 228 0
 593              		.cfi_startproc
 594              		@ args = 0, pretend = 0, frame = 8
ARM GAS  C:\Users\z80\AppData\Local\Temp\cc1dRxCf.s 			page 12


 595              		@ frame_needed = 0, uses_anonymous_args = 0
 596 0000 00B5     		push	{lr}
 597              	.LCFI13:
 598              		.cfi_def_cfa_offset 4
 599              		.cfi_offset 14, -4
 600 0002 85B0     		sub	sp, sp, #20
 601              	.LCFI14:
 602              		.cfi_def_cfa_offset 24
 603              		.loc 1 232 0
 604 0004 40F20003 		movw	r3, #:lower16:wa
 605 0008 C0F20003 		movt	r3, #:upper16:wa
 606 000c 1A68     		ldr	r2, [r3, #0]
 607 000e 40F20003 		movw	r3, #:lower16:rlist
 608 0012 C0F20003 		movt	r3, #:upper16:rlist
 609 0016 DB69     		ldr	r3, [r3, #28]
 610 0018 9B68     		ldr	r3, [r3, #8]
 611 001a 03F10103 		add	r3, r3, #1
 612 001e 4FF00001 		mov	r1, #0
 613 0022 0091     		str	r1, [sp, #0]
 614 0024 1046     		mov	r0, r2
 615 0026 4FF49871 		mov	r1, #304
 616 002a 1A46     		mov	r2, r3
 617 002c 40F20003 		movw	r3, #:lower16:thread4
 618 0030 C0F20003 		movt	r3, #:upper16:thread4
 619 0034 FFF7FEFF 		bl	chThdCreateStatic
 620 0038 0246     		mov	r2, r0
 621 003a 40F20003 		movw	r3, #:lower16:threads
 622 003e C0F20003 		movt	r3, #:upper16:threads
 623 0042 1A60     		str	r2, [r3, #0]
 624 0044 40F20003 		movw	r3, #:lower16:threads
 625 0048 C0F20003 		movt	r3, #:upper16:threads
 626 004c 1B68     		ldr	r3, [r3, #0]
 627 004e 0293     		str	r3, [sp, #8]
 628              		.loc 1 233 0
 629 0050 4FF00003 		mov	r3, #0
 630 0054 0393     		str	r3, [sp, #12]
 631              		.loc 1 234 0
 632 0056 FFF7FEFF 		bl	test_wait_tick
 633              		.loc 1 235 0
 634 005a 4FF47A70 		mov	r0, #1000
 635 005e FFF7FEFF 		bl	test_start_timer
 636              	.L12:
 637              	.LBB4:
 638              		.loc 1 237 0 discriminator 1
 639 0062 4FF02003 		mov	r3, #32
 640              	@ 237 "../chibios_2.4.x/test/testbmk.c" 1
 641 0066 83F31188 		msr     BASEPRI, r3
 642              	@ 0 "" 2
 643              		.thumb
 644              	.LBE4:
 645 006a FFF7FEFF 		bl	dbg_check_lock
 646              		.loc 1 238 0 discriminator 1
 647 006e 0298     		ldr	r0, [sp, #8]
 648 0070 4FF00001 		mov	r1, #0
 649 0074 FFF7FEFF 		bl	chSchWakeupS
 650              		.loc 1 239 0 discriminator 1
 651 0078 0298     		ldr	r0, [sp, #8]
ARM GAS  C:\Users\z80\AppData\Local\Temp\cc1dRxCf.s 			page 13


 652 007a 4FF00001 		mov	r1, #0
 653 007e FFF7FEFF 		bl	chSchWakeupS
 654              		.loc 1 240 0 discriminator 1
 655 0082 0298     		ldr	r0, [sp, #8]
 656 0084 4FF00001 		mov	r1, #0
 657 0088 FFF7FEFF 		bl	chSchWakeupS
 658              		.loc 1 241 0 discriminator 1
 659 008c 0298     		ldr	r0, [sp, #8]
 660 008e 4FF00001 		mov	r1, #0
 661 0092 FFF7FEFF 		bl	chSchWakeupS
 662              		.loc 1 242 0 discriminator 1
 663 0096 FFF7FEFF 		bl	dbg_check_unlock
 664              	.LBB5:
 665 009a 4FF00003 		mov	r3, #0
 666              	@ 242 "../chibios_2.4.x/test/testbmk.c" 1
 667 009e 83F31188 		msr     BASEPRI, r3
 668              	@ 0 "" 2
 669              		.thumb
 670              	.LBE5:
 671              		.loc 1 243 0 discriminator 1
 672 00a2 039B     		ldr	r3, [sp, #12]
 673 00a4 03F10403 		add	r3, r3, #4
 674 00a8 0393     		str	r3, [sp, #12]
 675              		.loc 1 247 0 discriminator 1
 676 00aa 40F20003 		movw	r3, #:lower16:test_timer_done
 677 00ae C0F20003 		movt	r3, #:upper16:test_timer_done
 678 00b2 1B68     		ldr	r3, [r3, #0]
 679 00b4 002B     		cmp	r3, #0
 680 00b6 D4D0     		beq	.L12
 681              	.LBB6:
 682              		.loc 1 248 0
 683 00b8 4FF02003 		mov	r3, #32
 684              	@ 248 "../chibios_2.4.x/test/testbmk.c" 1
 685 00bc 83F31188 		msr     BASEPRI, r3
 686              	@ 0 "" 2
 687              		.thumb
 688              	.LBE6:
 689 00c0 FFF7FEFF 		bl	dbg_check_lock
 690              		.loc 1 249 0
 691 00c4 0298     		ldr	r0, [sp, #8]
 692 00c6 4FF0FF31 		mov	r1, #-1
 693 00ca FFF7FEFF 		bl	chSchWakeupS
 694              		.loc 1 250 0
 695 00ce FFF7FEFF 		bl	dbg_check_unlock
 696              	.LBB7:
 697 00d2 4FF00003 		mov	r3, #0
 698              	@ 250 "../chibios_2.4.x/test/testbmk.c" 1
 699 00d6 83F31188 		msr     BASEPRI, r3
 700              	@ 0 "" 2
 701              		.thumb
 702              	.LBE7:
 703              		.loc 1 252 0
 704 00da FFF7FEFF 		bl	test_wait_threads
 705              		.loc 1 253 0
 706 00de 40F20000 		movw	r0, #:lower16:.LC0
 707 00e2 C0F20000 		movt	r0, #:upper16:.LC0
 708 00e6 FFF7FEFF 		bl	test_print
ARM GAS  C:\Users\z80\AppData\Local\Temp\cc1dRxCf.s 			page 14


 709              		.loc 1 254 0
 710 00ea 039B     		ldr	r3, [sp, #12]
 711 00ec 4FEA4303 		lsl	r3, r3, #1
 712 00f0 1846     		mov	r0, r3
 713 00f2 FFF7FEFF 		bl	test_printn
 714              		.loc 1 255 0
 715 00f6 40F20000 		movw	r0, #:lower16:.LC2
 716 00fa C0F20000 		movt	r0, #:upper16:.LC2
 717 00fe FFF7FEFF 		bl	test_println
 718              		.loc 1 256 0
 719 0102 05B0     		add	sp, sp, #20
 720 0104 00BD     		pop	{pc}
 721              		.cfi_endproc
 722              	.LFE14:
 723              		.size	bmk4_execute, .-bmk4_execute
 724              		.global	testbmk4
 725 0106 00BFAFF3 		.section	.rodata
 725      0080AFF3 
 725      0080
 726 006f 00       		.align	2
 727              	.LC6:
 728 0070 42656E63 		.ascii	"Benchmark, context switch\000"
 728      686D6172 
 728      6B2C2063 
 728      6F6E7465 
 728      78742073 
 729              		.section	.rodata.testbmk4,"a",%progbits
 730              		.align	2
 731              		.type	testbmk4, %object
 732              		.size	testbmk4, 16
 733              	testbmk4:
 734 0000 70000000 		.word	.LC6
 735 0004 00000000 		.word	0
 736 0008 00000000 		.word	0
 737 000c 00000000 		.word	bmk4_execute
 738              		.section	.rodata
 739 008a 0000     		.align	2
 740              	.LC7:
 741 008c 20746872 		.ascii	" threads/S\000"
 741      65616473 
 741      2F5300
 742              		.section	.text.bmk5_execute,"ax",%progbits
 743              		.align	2
 744              		.p2align 4,,15
 745              		.thumb
 746              		.thumb_func
 747              		.type	bmk5_execute, %function
 748              	bmk5_execute:
 749              	.LFB15:
 750              		.loc 1 276 0
 751              		.cfi_startproc
 752              		@ args = 0, pretend = 0, frame = 16
 753              		@ frame_needed = 0, uses_anonymous_args = 0
 754 0000 00B5     		push	{lr}
 755              	.LCFI15:
 756              		.cfi_def_cfa_offset 4
 757              		.cfi_offset 14, -4
ARM GAS  C:\Users\z80\AppData\Local\Temp\cc1dRxCf.s 			page 15


 758 0002 87B0     		sub	sp, sp, #28
 759              	.LCFI16:
 760              		.cfi_def_cfa_offset 32
 761              		.loc 1 278 0
 762 0004 4FF00003 		mov	r3, #0
 763 0008 0593     		str	r3, [sp, #20]
 764              		.loc 1 279 0
 765 000a 40F20003 		movw	r3, #:lower16:wa
 766 000e C0F20003 		movt	r3, #:upper16:wa
 767 0012 1B68     		ldr	r3, [r3, #0]
 768 0014 0493     		str	r3, [sp, #16]
 769              		.loc 1 280 0
 770 0016 40F20003 		movw	r3, #:lower16:rlist
 771 001a C0F20003 		movt	r3, #:upper16:rlist
 772 001e DB69     		ldr	r3, [r3, #28]
 773 0020 9B68     		ldr	r3, [r3, #8]
 774 0022 03F1FF33 		add	r3, r3, #-1
 775 0026 0393     		str	r3, [sp, #12]
 776              		.loc 1 281 0
 777 0028 FFF7FEFF 		bl	test_wait_tick
 778              		.loc 1 282 0
 779 002c 4FF47A70 		mov	r0, #1000
 780 0030 FFF7FEFF 		bl	test_start_timer
 781              	.L14:
 782              		.loc 1 284 0 discriminator 1
 783 0034 4FF00003 		mov	r3, #0
 784 0038 0093     		str	r3, [sp, #0]
 785 003a 0498     		ldr	r0, [sp, #16]
 786 003c 4FF49871 		mov	r1, #304
 787 0040 039A     		ldr	r2, [sp, #12]
 788 0042 40F20003 		movw	r3, #:lower16:thread2
 789 0046 C0F20003 		movt	r3, #:upper16:thread2
 790 004a FFF7FEFF 		bl	chThdCreateStatic
 791 004e 0346     		mov	r3, r0
 792 0050 1846     		mov	r0, r3
 793 0052 FFF7FEFF 		bl	chThdWait
 794              		.loc 1 285 0 discriminator 1
 795 0056 059B     		ldr	r3, [sp, #20]
 796 0058 03F10103 		add	r3, r3, #1
 797 005c 0593     		str	r3, [sp, #20]
 798              		.loc 1 289 0 discriminator 1
 799 005e 40F20003 		movw	r3, #:lower16:test_timer_done
 800 0062 C0F20003 		movt	r3, #:upper16:test_timer_done
 801 0066 1B68     		ldr	r3, [r3, #0]
 802 0068 002B     		cmp	r3, #0
 803 006a E3D0     		beq	.L14
 804              		.loc 1 290 0
 805 006c 40F20000 		movw	r0, #:lower16:.LC0
 806 0070 C0F20000 		movt	r0, #:upper16:.LC0
 807 0074 FFF7FEFF 		bl	test_print
 808              		.loc 1 291 0
 809 0078 0598     		ldr	r0, [sp, #20]
 810 007a FFF7FEFF 		bl	test_printn
 811              		.loc 1 292 0
 812 007e 40F20000 		movw	r0, #:lower16:.LC7
 813 0082 C0F20000 		movt	r0, #:upper16:.LC7
 814 0086 FFF7FEFF 		bl	test_println
ARM GAS  C:\Users\z80\AppData\Local\Temp\cc1dRxCf.s 			page 16


 815              		.loc 1 293 0
 816 008a 07B0     		add	sp, sp, #28
 817 008c 00BD     		pop	{pc}
 818              		.cfi_endproc
 819              	.LFE15:
 820              		.size	bmk5_execute, .-bmk5_execute
 821              		.global	testbmk5
 822 008e 00BF     		.section	.rodata
 823 0097 00       		.align	2
 824              	.LC8:
 825 0098 42656E63 		.ascii	"Benchmark, threads, full cycle\000"
 825      686D6172 
 825      6B2C2074 
 825      68726561 
 825      64732C20 
 826              		.section	.rodata.testbmk5,"a",%progbits
 827              		.align	2
 828              		.type	testbmk5, %object
 829              		.size	testbmk5, 16
 830              	testbmk5:
 831 0000 98000000 		.word	.LC8
 832 0004 00000000 		.word	0
 833 0008 00000000 		.word	0
 834 000c 00000000 		.word	bmk5_execute
 835              		.section	.text.bmk6_execute,"ax",%progbits
 836              		.align	2
 837              		.p2align 4,,15
 838              		.thumb
 839              		.thumb_func
 840              		.type	bmk6_execute, %function
 841              	bmk6_execute:
 842              	.LFB16:
 843              		.loc 1 315 0
 844              		.cfi_startproc
 845              		@ args = 0, pretend = 0, frame = 16
 846              		@ frame_needed = 0, uses_anonymous_args = 0
 847 0000 00B5     		push	{lr}
 848              	.LCFI17:
 849              		.cfi_def_cfa_offset 4
 850              		.cfi_offset 14, -4
 851 0002 87B0     		sub	sp, sp, #28
 852              	.LCFI18:
 853              		.cfi_def_cfa_offset 32
 854              		.loc 1 317 0
 855 0004 4FF00003 		mov	r3, #0
 856 0008 0593     		str	r3, [sp, #20]
 857              		.loc 1 318 0
 858 000a 40F20003 		movw	r3, #:lower16:wa
 859 000e C0F20003 		movt	r3, #:upper16:wa
 860 0012 1B68     		ldr	r3, [r3, #0]
 861 0014 0493     		str	r3, [sp, #16]
 862              		.loc 1 319 0
 863 0016 40F20003 		movw	r3, #:lower16:rlist
 864 001a C0F20003 		movt	r3, #:upper16:rlist
 865 001e DB69     		ldr	r3, [r3, #28]
 866 0020 9B68     		ldr	r3, [r3, #8]
 867 0022 03F10103 		add	r3, r3, #1
ARM GAS  C:\Users\z80\AppData\Local\Temp\cc1dRxCf.s 			page 17


 868 0026 0393     		str	r3, [sp, #12]
 869              		.loc 1 320 0
 870 0028 FFF7FEFF 		bl	test_wait_tick
 871              		.loc 1 321 0
 872 002c 4FF47A70 		mov	r0, #1000
 873 0030 FFF7FEFF 		bl	test_start_timer
 874              	.L16:
 875              		.loc 1 323 0 discriminator 1
 876 0034 4FF00003 		mov	r3, #0
 877 0038 0093     		str	r3, [sp, #0]
 878 003a 0498     		ldr	r0, [sp, #16]
 879 003c 4FF49871 		mov	r1, #304
 880 0040 039A     		ldr	r2, [sp, #12]
 881 0042 40F20003 		movw	r3, #:lower16:thread2
 882 0046 C0F20003 		movt	r3, #:upper16:thread2
 883 004a FFF7FEFF 		bl	chThdCreateStatic
 884              		.loc 1 324 0 discriminator 1
 885 004e 059B     		ldr	r3, [sp, #20]
 886 0050 03F10103 		add	r3, r3, #1
 887 0054 0593     		str	r3, [sp, #20]
 888              		.loc 1 328 0 discriminator 1
 889 0056 40F20003 		movw	r3, #:lower16:test_timer_done
 890 005a C0F20003 		movt	r3, #:upper16:test_timer_done
 891 005e 1B68     		ldr	r3, [r3, #0]
 892 0060 002B     		cmp	r3, #0
 893 0062 E7D0     		beq	.L16
 894              		.loc 1 329 0
 895 0064 40F20000 		movw	r0, #:lower16:.LC0
 896 0068 C0F20000 		movt	r0, #:upper16:.LC0
 897 006c FFF7FEFF 		bl	test_print
 898              		.loc 1 330 0
 899 0070 0598     		ldr	r0, [sp, #20]
 900 0072 FFF7FEFF 		bl	test_printn
 901              		.loc 1 331 0
 902 0076 40F20000 		movw	r0, #:lower16:.LC7
 903 007a C0F20000 		movt	r0, #:upper16:.LC7
 904 007e FFF7FEFF 		bl	test_println
 905              		.loc 1 332 0
 906 0082 07B0     		add	sp, sp, #28
 907 0084 00BD     		pop	{pc}
 908              		.cfi_endproc
 909              	.LFE16:
 910              		.size	bmk6_execute, .-bmk6_execute
 911              		.global	testbmk6
 912 0086 00BFAFF3 		.section	.rodata
 912      0080AFF3 
 912      0080
 913 00b7 00       		.align	2
 914              	.LC9:
 915 00b8 42656E63 		.ascii	"Benchmark, threads, create only\000"
 915      686D6172 
 915      6B2C2074 
 915      68726561 
 915      64732C20 
 916              		.section	.rodata.testbmk6,"a",%progbits
 917              		.align	2
 918              		.type	testbmk6, %object
ARM GAS  C:\Users\z80\AppData\Local\Temp\cc1dRxCf.s 			page 18


 919              		.size	testbmk6, 16
 920              	testbmk6:
 921 0000 B8000000 		.word	.LC9
 922 0004 00000000 		.word	0
 923 0008 00000000 		.word	0
 924 000c 00000000 		.word	bmk6_execute
 925              		.section	.text.thread3,"ax",%progbits
 926              		.align	2
 927              		.p2align 4,,15
 928              		.thumb
 929              		.thumb_func
 930              		.type	thread3, %function
 931              	thread3:
 932              	.LFB17:
 933              		.loc 1 352 0
 934              		.cfi_startproc
 935              		@ args = 0, pretend = 0, frame = 8
 936              		@ frame_needed = 0, uses_anonymous_args = 0
 937 0000 00B5     		push	{lr}
 938              	.LCFI19:
 939              		.cfi_def_cfa_offset 4
 940              		.cfi_offset 14, -4
 941 0002 83B0     		sub	sp, sp, #12
 942              	.LCFI20:
 943              		.cfi_def_cfa_offset 16
 944 0004 0190     		str	r0, [sp, #4]
 945              		.loc 1 355 0
 946 0006 05E0     		b	.L18
 947              	.L19:
 948              		.loc 1 356 0
 949 0008 40F20000 		movw	r0, #:lower16:sem1
 950 000c C0F20000 		movt	r0, #:upper16:sem1
 951 0010 FFF7FEFF 		bl	chSemWait
 952              	.L18:
 953              		.loc 1 355 0 discriminator 1
 954 0014 40F20003 		movw	r3, #:lower16:rlist
 955 0018 C0F20003 		movt	r3, #:upper16:rlist
 956 001c DB69     		ldr	r3, [r3, #28]
 957 001e 93F82130 		ldrb	r3, [r3, #33]	@ zero_extendqisi2
 958 0022 03F00403 		and	r3, r3, #4
 959 0026 002B     		cmp	r3, #0
 960 0028 EED0     		beq	.L19
 961              		.loc 1 357 0
 962 002a 4FF00003 		mov	r3, #0
 963              		.loc 1 358 0
 964 002e 1846     		mov	r0, r3
 965 0030 03B0     		add	sp, sp, #12
 966 0032 00BD     		pop	{pc}
 967              		.cfi_endproc
 968              	.LFE17:
 969              		.size	thread3, .-thread3
 970 0034 AFF30080 		.section	.text.bmk7_setup,"ax",%progbits
 970      AFF30080 
 970      AFF30080 
 971              		.align	2
 972              		.p2align 4,,15
 973              		.thumb
ARM GAS  C:\Users\z80\AppData\Local\Temp\cc1dRxCf.s 			page 19


 974              		.thumb_func
 975              		.type	bmk7_setup, %function
 976              	bmk7_setup:
 977              	.LFB18:
 978              		.loc 1 360 0
 979              		.cfi_startproc
 980              		@ args = 0, pretend = 0, frame = 0
 981              		@ frame_needed = 0, uses_anonymous_args = 0
 982 0000 08B5     		push	{r3, lr}
 983              	.LCFI21:
 984              		.cfi_def_cfa_offset 8
 985              		.cfi_offset 14, -4
 986              		.cfi_offset 3, -8
 987              		.loc 1 362 0
 988 0002 40F20000 		movw	r0, #:lower16:sem1
 989 0006 C0F20000 		movt	r0, #:upper16:sem1
 990 000a 4FF00001 		mov	r1, #0
 991 000e FFF7FEFF 		bl	chSemInit
 992              		.loc 1 363 0
 993 0012 08BD     		pop	{r3, pc}
 994              		.cfi_endproc
 995              	.LFE18:
 996              		.size	bmk7_setup, .-bmk7_setup
 997 0014 AFF30080 		.section	.rodata
 997      AFF30080 
 997      AFF30080 
 998              		.align	2
 999              	.LC10:
 1000 00d8 20726573 		.ascii	" reschedules/S, \000"
 1000      63686564 
 1000      756C6573 
 1000      2F532C20 
 1000      00
 1001              		.section	.text.bmk7_execute,"ax",%progbits
 1002              		.align	2
 1003              		.p2align 4,,15
 1004              		.thumb
 1005              		.thumb_func
 1006              		.type	bmk7_execute, %function
 1007              	bmk7_execute:
 1008              	.LFB19:
 1009              		.loc 1 365 0
 1010              		.cfi_startproc
 1011              		@ args = 0, pretend = 0, frame = 8
 1012              		@ frame_needed = 0, uses_anonymous_args = 0
 1013 0000 00B5     		push	{lr}
 1014              	.LCFI22:
 1015              		.cfi_def_cfa_offset 4
 1016              		.cfi_offset 14, -4
 1017 0002 85B0     		sub	sp, sp, #20
 1018              	.LCFI23:
 1019              		.cfi_def_cfa_offset 24
 1020              		.loc 1 368 0
 1021 0004 40F20003 		movw	r3, #:lower16:wa
 1022 0008 C0F20003 		movt	r3, #:upper16:wa
 1023 000c 1A68     		ldr	r2, [r3, #0]
 1024 000e 40F20003 		movw	r3, #:lower16:rlist
ARM GAS  C:\Users\z80\AppData\Local\Temp\cc1dRxCf.s 			page 20


 1025 0012 C0F20003 		movt	r3, #:upper16:rlist
 1026 0016 DB69     		ldr	r3, [r3, #28]
 1027 0018 9B68     		ldr	r3, [r3, #8]
 1028 001a 03F10503 		add	r3, r3, #5
 1029 001e 4FF00001 		mov	r1, #0
 1030 0022 0091     		str	r1, [sp, #0]
 1031 0024 1046     		mov	r0, r2
 1032 0026 4FF49871 		mov	r1, #304
 1033 002a 1A46     		mov	r2, r3
 1034 002c 40F20003 		movw	r3, #:lower16:thread3
 1035 0030 C0F20003 		movt	r3, #:upper16:thread3
 1036 0034 FFF7FEFF 		bl	chThdCreateStatic
 1037 0038 0246     		mov	r2, r0
 1038 003a 40F20003 		movw	r3, #:lower16:threads
 1039 003e C0F20003 		movt	r3, #:upper16:threads
 1040 0042 1A60     		str	r2, [r3, #0]
 1041              		.loc 1 369 0
 1042 0044 40F20003 		movw	r3, #:lower16:wa
 1043 0048 C0F20003 		movt	r3, #:upper16:wa
 1044 004c 5A68     		ldr	r2, [r3, #4]
 1045 004e 40F20003 		movw	r3, #:lower16:rlist
 1046 0052 C0F20003 		movt	r3, #:upper16:rlist
 1047 0056 DB69     		ldr	r3, [r3, #28]
 1048 0058 9B68     		ldr	r3, [r3, #8]
 1049 005a 03F10403 		add	r3, r3, #4
 1050 005e 4FF00001 		mov	r1, #0
 1051 0062 0091     		str	r1, [sp, #0]
 1052 0064 1046     		mov	r0, r2
 1053 0066 4FF49871 		mov	r1, #304
 1054 006a 1A46     		mov	r2, r3
 1055 006c 40F20003 		movw	r3, #:lower16:thread3
 1056 0070 C0F20003 		movt	r3, #:upper16:thread3
 1057 0074 FFF7FEFF 		bl	chThdCreateStatic
 1058 0078 0246     		mov	r2, r0
 1059 007a 40F20003 		movw	r3, #:lower16:threads
 1060 007e C0F20003 		movt	r3, #:upper16:threads
 1061 0082 5A60     		str	r2, [r3, #4]
 1062              		.loc 1 370 0
 1063 0084 40F20003 		movw	r3, #:lower16:wa
 1064 0088 C0F20003 		movt	r3, #:upper16:wa
 1065 008c 9A68     		ldr	r2, [r3, #8]
 1066 008e 40F20003 		movw	r3, #:lower16:rlist
 1067 0092 C0F20003 		movt	r3, #:upper16:rlist
 1068 0096 DB69     		ldr	r3, [r3, #28]
 1069 0098 9B68     		ldr	r3, [r3, #8]
 1070 009a 03F10303 		add	r3, r3, #3
 1071 009e 4FF00001 		mov	r1, #0
 1072 00a2 0091     		str	r1, [sp, #0]
 1073 00a4 1046     		mov	r0, r2
 1074 00a6 4FF49871 		mov	r1, #304
 1075 00aa 1A46     		mov	r2, r3
 1076 00ac 40F20003 		movw	r3, #:lower16:thread3
 1077 00b0 C0F20003 		movt	r3, #:upper16:thread3
 1078 00b4 FFF7FEFF 		bl	chThdCreateStatic
 1079 00b8 0246     		mov	r2, r0
 1080 00ba 40F20003 		movw	r3, #:lower16:threads
 1081 00be C0F20003 		movt	r3, #:upper16:threads
ARM GAS  C:\Users\z80\AppData\Local\Temp\cc1dRxCf.s 			page 21


 1082 00c2 9A60     		str	r2, [r3, #8]
 1083              		.loc 1 371 0
 1084 00c4 40F20003 		movw	r3, #:lower16:wa
 1085 00c8 C0F20003 		movt	r3, #:upper16:wa
 1086 00cc DA68     		ldr	r2, [r3, #12]
 1087 00ce 40F20003 		movw	r3, #:lower16:rlist
 1088 00d2 C0F20003 		movt	r3, #:upper16:rlist
 1089 00d6 DB69     		ldr	r3, [r3, #28]
 1090 00d8 9B68     		ldr	r3, [r3, #8]
 1091 00da 03F10203 		add	r3, r3, #2
 1092 00de 4FF00001 		mov	r1, #0
 1093 00e2 0091     		str	r1, [sp, #0]
 1094 00e4 1046     		mov	r0, r2
 1095 00e6 4FF49871 		mov	r1, #304
 1096 00ea 1A46     		mov	r2, r3
 1097 00ec 40F20003 		movw	r3, #:lower16:thread3
 1098 00f0 C0F20003 		movt	r3, #:upper16:thread3
 1099 00f4 FFF7FEFF 		bl	chThdCreateStatic
 1100 00f8 0246     		mov	r2, r0
 1101 00fa 40F20003 		movw	r3, #:lower16:threads
 1102 00fe C0F20003 		movt	r3, #:upper16:threads
 1103 0102 DA60     		str	r2, [r3, #12]
 1104              		.loc 1 372 0
 1105 0104 40F20003 		movw	r3, #:lower16:wa
 1106 0108 C0F20003 		movt	r3, #:upper16:wa
 1107 010c 1A69     		ldr	r2, [r3, #16]
 1108 010e 40F20003 		movw	r3, #:lower16:rlist
 1109 0112 C0F20003 		movt	r3, #:upper16:rlist
 1110 0116 DB69     		ldr	r3, [r3, #28]
 1111 0118 9B68     		ldr	r3, [r3, #8]
 1112 011a 03F10103 		add	r3, r3, #1
 1113 011e 4FF00001 		mov	r1, #0
 1114 0122 0091     		str	r1, [sp, #0]
 1115 0124 1046     		mov	r0, r2
 1116 0126 4FF49871 		mov	r1, #304
 1117 012a 1A46     		mov	r2, r3
 1118 012c 40F20003 		movw	r3, #:lower16:thread3
 1119 0130 C0F20003 		movt	r3, #:upper16:thread3
 1120 0134 FFF7FEFF 		bl	chThdCreateStatic
 1121 0138 0246     		mov	r2, r0
 1122 013a 40F20003 		movw	r3, #:lower16:threads
 1123 013e C0F20003 		movt	r3, #:upper16:threads
 1124 0142 1A61     		str	r2, [r3, #16]
 1125              		.loc 1 374 0
 1126 0144 4FF00003 		mov	r3, #0
 1127 0148 0393     		str	r3, [sp, #12]
 1128              		.loc 1 375 0
 1129 014a FFF7FEFF 		bl	test_wait_tick
 1130              		.loc 1 376 0
 1131 014e 4FF47A70 		mov	r0, #1000
 1132 0152 FFF7FEFF 		bl	test_start_timer
 1133              	.L22:
 1134              		.loc 1 378 0 discriminator 1
 1135 0156 40F20000 		movw	r0, #:lower16:sem1
 1136 015a C0F20000 		movt	r0, #:upper16:sem1
 1137 015e 4FF00001 		mov	r1, #0
 1138 0162 FFF7FEFF 		bl	chSemReset
ARM GAS  C:\Users\z80\AppData\Local\Temp\cc1dRxCf.s 			page 22


 1139              		.loc 1 379 0 discriminator 1
 1140 0166 039B     		ldr	r3, [sp, #12]
 1141 0168 03F10103 		add	r3, r3, #1
 1142 016c 0393     		str	r3, [sp, #12]
 1143              		.loc 1 383 0 discriminator 1
 1144 016e 40F20003 		movw	r3, #:lower16:test_timer_done
 1145 0172 C0F20003 		movt	r3, #:upper16:test_timer_done
 1146 0176 1B68     		ldr	r3, [r3, #0]
 1147 0178 002B     		cmp	r3, #0
 1148 017a ECD0     		beq	.L22
 1149              		.loc 1 384 0
 1150 017c FFF7FEFF 		bl	test_terminate_threads
 1151              		.loc 1 385 0
 1152 0180 40F20000 		movw	r0, #:lower16:sem1
 1153 0184 C0F20000 		movt	r0, #:upper16:sem1
 1154 0188 4FF00001 		mov	r1, #0
 1155 018c FFF7FEFF 		bl	chSemReset
 1156              		.loc 1 386 0
 1157 0190 FFF7FEFF 		bl	test_wait_threads
 1158              		.loc 1 388 0
 1159 0194 40F20000 		movw	r0, #:lower16:.LC0
 1160 0198 C0F20000 		movt	r0, #:upper16:.LC0
 1161 019c FFF7FEFF 		bl	test_print
 1162              		.loc 1 389 0
 1163 01a0 0398     		ldr	r0, [sp, #12]
 1164 01a2 FFF7FEFF 		bl	test_printn
 1165              		.loc 1 390 0
 1166 01a6 40F20000 		movw	r0, #:lower16:.LC10
 1167 01aa C0F20000 		movt	r0, #:upper16:.LC10
 1168 01ae FFF7FEFF 		bl	test_print
 1169              		.loc 1 391 0
 1170 01b2 039A     		ldr	r2, [sp, #12]
 1171 01b4 1346     		mov	r3, r2
 1172 01b6 4FEA4303 		lsl	r3, r3, #1
 1173 01ba 9B18     		adds	r3, r3, r2
 1174 01bc 4FEA4303 		lsl	r3, r3, #1
 1175 01c0 1846     		mov	r0, r3
 1176 01c2 FFF7FEFF 		bl	test_printn
 1177              		.loc 1 392 0
 1178 01c6 40F20000 		movw	r0, #:lower16:.LC2
 1179 01ca C0F20000 		movt	r0, #:upper16:.LC2
 1180 01ce FFF7FEFF 		bl	test_println
 1181              		.loc 1 393 0
 1182 01d2 05B0     		add	sp, sp, #20
 1183 01d4 00BD     		pop	{pc}
 1184              		.cfi_endproc
 1185              	.LFE19:
 1186              		.size	bmk7_execute, .-bmk7_execute
 1187              		.global	testbmk7
 1188 01d6 00BFAFF3 		.section	.rodata
 1188      0080AFF3 
 1188      0080
 1189 00e9 000000   		.align	2
 1190              	.LC11:
 1191 00ec 42656E63 		.ascii	"Benchmark, mass reschedule, 5 threads\000"
 1191      686D6172 
 1191      6B2C206D 
ARM GAS  C:\Users\z80\AppData\Local\Temp\cc1dRxCf.s 			page 23


 1191      61737320 
 1191      72657363 
 1192              		.section	.rodata.testbmk7,"a",%progbits
 1193              		.align	2
 1194              		.type	testbmk7, %object
 1195              		.size	testbmk7, 16
 1196              	testbmk7:
 1197 0000 EC000000 		.word	.LC11
 1198 0004 00000000 		.word	bmk7_setup
 1199 0008 00000000 		.word	0
 1200 000c 00000000 		.word	bmk7_execute
 1201              		.section	.text.thread8,"ax",%progbits
 1202              		.align	2
 1203              		.p2align 4,,15
 1204              		.thumb
 1205              		.thumb_func
 1206              		.type	thread8, %function
 1207              	thread8:
 1208              	.LFB20:
 1209              		.loc 1 412 0
 1210              		.cfi_startproc
 1211              		@ args = 0, pretend = 0, frame = 8
 1212              		@ frame_needed = 0, uses_anonymous_args = 0
 1213 0000 00B5     		push	{lr}
 1214              	.LCFI24:
 1215              		.cfi_def_cfa_offset 4
 1216              		.cfi_offset 14, -4
 1217 0002 83B0     		sub	sp, sp, #12
 1218              	.LCFI25:
 1219              		.cfi_def_cfa_offset 16
 1220 0004 0190     		str	r0, [sp, #4]
 1221              	.L24:
 1222              		.loc 1 415 0 discriminator 1
 1223 0006 FFF7FEFF 		bl	chThdYield
 1224              		.loc 1 416 0 discriminator 1
 1225 000a FFF7FEFF 		bl	chThdYield
 1226              		.loc 1 417 0 discriminator 1
 1227 000e FFF7FEFF 		bl	chThdYield
 1228              		.loc 1 418 0 discriminator 1
 1229 0012 FFF7FEFF 		bl	chThdYield
 1230              		.loc 1 419 0 discriminator 1
 1231 0016 019B     		ldr	r3, [sp, #4]
 1232 0018 1B68     		ldr	r3, [r3, #0]
 1233 001a 03F10402 		add	r2, r3, #4
 1234 001e 019B     		ldr	r3, [sp, #4]
 1235 0020 1A60     		str	r2, [r3, #0]
 1236              		.loc 1 423 0 discriminator 1
 1237 0022 40F20003 		movw	r3, #:lower16:rlist
 1238 0026 C0F20003 		movt	r3, #:upper16:rlist
 1239 002a DB69     		ldr	r3, [r3, #28]
 1240 002c 93F82130 		ldrb	r3, [r3, #33]	@ zero_extendqisi2
 1241 0030 03F00403 		and	r3, r3, #4
 1242 0034 002B     		cmp	r3, #0
 1243 0036 E6D0     		beq	.L24
 1244              		.loc 1 424 0
 1245 0038 4FF00003 		mov	r3, #0
 1246              		.loc 1 425 0
ARM GAS  C:\Users\z80\AppData\Local\Temp\cc1dRxCf.s 			page 24


 1247 003c 1846     		mov	r0, r3
 1248 003e 03B0     		add	sp, sp, #12
 1249 0040 00BD     		pop	{pc}
 1250              		.cfi_endproc
 1251              	.LFE20:
 1252              		.size	thread8, .-thread8
 1253 0042 00BFAFF3 		.section	.text.bmk8_execute,"ax",%progbits
 1253      0080AFF3 
 1253      0080AFF3 
 1253      0080
 1254              		.align	2
 1255              		.p2align 4,,15
 1256              		.thumb
 1257              		.thumb_func
 1258              		.type	bmk8_execute, %function
 1259              	bmk8_execute:
 1260              	.LFB21:
 1261              		.loc 1 427 0
 1262              		.cfi_startproc
 1263              		@ args = 0, pretend = 0, frame = 8
 1264              		@ frame_needed = 0, uses_anonymous_args = 0
 1265 0000 00B5     		push	{lr}
 1266              	.LCFI26:
 1267              		.cfi_def_cfa_offset 4
 1268              		.cfi_offset 14, -4
 1269 0002 85B0     		sub	sp, sp, #20
 1270              	.LCFI27:
 1271              		.cfi_def_cfa_offset 24
 1272              		.loc 1 430 0
 1273 0004 4FF00003 		mov	r3, #0
 1274 0008 0393     		str	r3, [sp, #12]
 1275              		.loc 1 431 0
 1276 000a FFF7FEFF 		bl	test_wait_tick
 1277              		.loc 1 433 0
 1278 000e 40F20003 		movw	r3, #:lower16:wa
 1279 0012 C0F20003 		movt	r3, #:upper16:wa
 1280 0016 1A68     		ldr	r2, [r3, #0]
 1281 0018 40F20003 		movw	r3, #:lower16:rlist
 1282 001c C0F20003 		movt	r3, #:upper16:rlist
 1283 0020 DB69     		ldr	r3, [r3, #28]
 1284 0022 9B68     		ldr	r3, [r3, #8]
 1285 0024 03F1FF33 		add	r3, r3, #-1
 1286 0028 03A9     		add	r1, sp, #12
 1287 002a 0091     		str	r1, [sp, #0]
 1288 002c 1046     		mov	r0, r2
 1289 002e 4FF49871 		mov	r1, #304
 1290 0032 1A46     		mov	r2, r3
 1291 0034 40F20003 		movw	r3, #:lower16:thread8
 1292 0038 C0F20003 		movt	r3, #:upper16:thread8
 1293 003c FFF7FEFF 		bl	chThdCreateStatic
 1294 0040 0246     		mov	r2, r0
 1295 0042 40F20003 		movw	r3, #:lower16:threads
 1296 0046 C0F20003 		movt	r3, #:upper16:threads
 1297 004a 1A60     		str	r2, [r3, #0]
 1298              		.loc 1 434 0
 1299 004c 40F20003 		movw	r3, #:lower16:wa
 1300 0050 C0F20003 		movt	r3, #:upper16:wa
ARM GAS  C:\Users\z80\AppData\Local\Temp\cc1dRxCf.s 			page 25


 1301 0054 5A68     		ldr	r2, [r3, #4]
 1302 0056 40F20003 		movw	r3, #:lower16:rlist
 1303 005a C0F20003 		movt	r3, #:upper16:rlist
 1304 005e DB69     		ldr	r3, [r3, #28]
 1305 0060 9B68     		ldr	r3, [r3, #8]
 1306 0062 03F1FF33 		add	r3, r3, #-1
 1307 0066 03A9     		add	r1, sp, #12
 1308 0068 0091     		str	r1, [sp, #0]
 1309 006a 1046     		mov	r0, r2
 1310 006c 4FF49871 		mov	r1, #304
 1311 0070 1A46     		mov	r2, r3
 1312 0072 40F20003 		movw	r3, #:lower16:thread8
 1313 0076 C0F20003 		movt	r3, #:upper16:thread8
 1314 007a FFF7FEFF 		bl	chThdCreateStatic
 1315 007e 0246     		mov	r2, r0
 1316 0080 40F20003 		movw	r3, #:lower16:threads
 1317 0084 C0F20003 		movt	r3, #:upper16:threads
 1318 0088 5A60     		str	r2, [r3, #4]
 1319              		.loc 1 435 0
 1320 008a 40F20003 		movw	r3, #:lower16:wa
 1321 008e C0F20003 		movt	r3, #:upper16:wa
 1322 0092 9A68     		ldr	r2, [r3, #8]
 1323 0094 40F20003 		movw	r3, #:lower16:rlist
 1324 0098 C0F20003 		movt	r3, #:upper16:rlist
 1325 009c DB69     		ldr	r3, [r3, #28]
 1326 009e 9B68     		ldr	r3, [r3, #8]
 1327 00a0 03F1FF33 		add	r3, r3, #-1
 1328 00a4 03A9     		add	r1, sp, #12
 1329 00a6 0091     		str	r1, [sp, #0]
 1330 00a8 1046     		mov	r0, r2
 1331 00aa 4FF49871 		mov	r1, #304
 1332 00ae 1A46     		mov	r2, r3
 1333 00b0 40F20003 		movw	r3, #:lower16:thread8
 1334 00b4 C0F20003 		movt	r3, #:upper16:thread8
 1335 00b8 FFF7FEFF 		bl	chThdCreateStatic
 1336 00bc 0246     		mov	r2, r0
 1337 00be 40F20003 		movw	r3, #:lower16:threads
 1338 00c2 C0F20003 		movt	r3, #:upper16:threads
 1339 00c6 9A60     		str	r2, [r3, #8]
 1340              		.loc 1 436 0
 1341 00c8 40F20003 		movw	r3, #:lower16:wa
 1342 00cc C0F20003 		movt	r3, #:upper16:wa
 1343 00d0 DA68     		ldr	r2, [r3, #12]
 1344 00d2 40F20003 		movw	r3, #:lower16:rlist
 1345 00d6 C0F20003 		movt	r3, #:upper16:rlist
 1346 00da DB69     		ldr	r3, [r3, #28]
 1347 00dc 9B68     		ldr	r3, [r3, #8]
 1348 00de 03F1FF33 		add	r3, r3, #-1
 1349 00e2 03A9     		add	r1, sp, #12
 1350 00e4 0091     		str	r1, [sp, #0]
 1351 00e6 1046     		mov	r0, r2
 1352 00e8 4FF49871 		mov	r1, #304
 1353 00ec 1A46     		mov	r2, r3
 1354 00ee 40F20003 		movw	r3, #:lower16:thread8
 1355 00f2 C0F20003 		movt	r3, #:upper16:thread8
 1356 00f6 FFF7FEFF 		bl	chThdCreateStatic
 1357 00fa 0246     		mov	r2, r0
ARM GAS  C:\Users\z80\AppData\Local\Temp\cc1dRxCf.s 			page 26


 1358 00fc 40F20003 		movw	r3, #:lower16:threads
 1359 0100 C0F20003 		movt	r3, #:upper16:threads
 1360 0104 DA60     		str	r2, [r3, #12]
 1361              		.loc 1 437 0
 1362 0106 40F20003 		movw	r3, #:lower16:wa
 1363 010a C0F20003 		movt	r3, #:upper16:wa
 1364 010e 1A69     		ldr	r2, [r3, #16]
 1365 0110 40F20003 		movw	r3, #:lower16:rlist
 1366 0114 C0F20003 		movt	r3, #:upper16:rlist
 1367 0118 DB69     		ldr	r3, [r3, #28]
 1368 011a 9B68     		ldr	r3, [r3, #8]
 1369 011c 03F1FF33 		add	r3, r3, #-1
 1370 0120 03A9     		add	r1, sp, #12
 1371 0122 0091     		str	r1, [sp, #0]
 1372 0124 1046     		mov	r0, r2
 1373 0126 4FF49871 		mov	r1, #304
 1374 012a 1A46     		mov	r2, r3
 1375 012c 40F20003 		movw	r3, #:lower16:thread8
 1376 0130 C0F20003 		movt	r3, #:upper16:thread8
 1377 0134 FFF7FEFF 		bl	chThdCreateStatic
 1378 0138 0246     		mov	r2, r0
 1379 013a 40F20003 		movw	r3, #:lower16:threads
 1380 013e C0F20003 		movt	r3, #:upper16:threads
 1381 0142 1A61     		str	r2, [r3, #16]
 1382              		.loc 1 439 0
 1383 0144 4FF4FA70 		mov	r0, #500
 1384 0148 FFF7FEFF 		bl	chThdSleep
 1385              		.loc 1 440 0
 1386 014c FFF7FEFF 		bl	test_terminate_threads
 1387              		.loc 1 441 0
 1388 0150 FFF7FEFF 		bl	test_wait_threads
 1389              		.loc 1 443 0
 1390 0154 40F20000 		movw	r0, #:lower16:.LC0
 1391 0158 C0F20000 		movt	r0, #:upper16:.LC0
 1392 015c FFF7FEFF 		bl	test_print
 1393              		.loc 1 444 0
 1394 0160 039B     		ldr	r3, [sp, #12]
 1395 0162 1846     		mov	r0, r3
 1396 0164 FFF7FEFF 		bl	test_printn
 1397              		.loc 1 445 0
 1398 0168 40F20000 		movw	r0, #:lower16:.LC2
 1399 016c C0F20000 		movt	r0, #:upper16:.LC2
 1400 0170 FFF7FEFF 		bl	test_println
 1401              		.loc 1 446 0
 1402 0174 05B0     		add	sp, sp, #20
 1403 0176 00BD     		pop	{pc}
 1404              		.cfi_endproc
 1405              	.LFE21:
 1406              		.size	bmk8_execute, .-bmk8_execute
 1407              		.global	testbmk8
 1408 0178 AFF30080 		.section	.rodata
 1408      AFF30080 
 1409 0112 0000     		.align	2
 1410              	.LC12:
 1411 0114 42656E63 		.ascii	"Benchmark, round robin context switching\000"
 1411      686D6172 
 1411      6B2C2072 
ARM GAS  C:\Users\z80\AppData\Local\Temp\cc1dRxCf.s 			page 27


 1411      6F756E64 
 1411      20726F62 
 1412              		.section	.rodata.testbmk8,"a",%progbits
 1413              		.align	2
 1414              		.type	testbmk8, %object
 1415              		.size	testbmk8, 16
 1416              	testbmk8:
 1417 0000 14010000 		.word	.LC12
 1418 0004 00000000 		.word	0
 1419 0008 00000000 		.word	0
 1420 000c 00000000 		.word	bmk8_execute
 1421              		.section	.rodata
 1422 013d 000000   		.align	2
 1423              	.LC13:
 1424 0140 20627974 		.ascii	" bytes/S\000"
 1424      65732F53 
 1424      00
 1425              		.section	.text.bmk9_execute,"ax",%progbits
 1426              		.align	2
 1427              		.p2align 4,,15
 1428              		.thumb
 1429              		.thumb_func
 1430              		.type	bmk9_execute, %function
 1431              	bmk9_execute:
 1432              	.LFB22:
 1433              		.loc 1 465 0
 1434              		.cfi_startproc
 1435              		@ args = 0, pretend = 0, frame = 8
 1436              		@ frame_needed = 0, uses_anonymous_args = 0
 1437 0000 00B5     		push	{lr}
 1438              	.LCFI28:
 1439              		.cfi_def_cfa_offset 4
 1440              		.cfi_offset 14, -4
 1441 0002 83B0     		sub	sp, sp, #12
 1442              	.LCFI29:
 1443              		.cfi_def_cfa_offset 16
 1444              		.loc 1 470 0
 1445 0004 40F20000 		movw	r0, #:lower16:iq.4799
 1446 0008 C0F20000 		movt	r0, #:upper16:iq.4799
 1447 000c 40F20001 		movw	r1, #:lower16:ib.4798
 1448 0010 C0F20001 		movt	r1, #:upper16:ib.4798
 1449 0014 4FF01002 		mov	r2, #16
 1450 0018 4FF00003 		mov	r3, #0
 1451 001c FFF7FEFF 		bl	chIQInit
 1452              		.loc 1 471 0
 1453 0020 4FF00003 		mov	r3, #0
 1454 0024 0193     		str	r3, [sp, #4]
 1455              		.loc 1 472 0
 1456 0026 FFF7FEFF 		bl	test_wait_tick
 1457              		.loc 1 473 0
 1458 002a 4FF47A70 		mov	r0, #1000
 1459 002e FFF7FEFF 		bl	test_start_timer
 1460              	.L27:
 1461              	.LBB8:
 1462              		.loc 1 475 0 discriminator 1
 1463 0032 4FF02003 		mov	r3, #32
 1464              	@ 475 "../chibios_2.4.x/test/testbmk.c" 1
ARM GAS  C:\Users\z80\AppData\Local\Temp\cc1dRxCf.s 			page 28


 1465 0036 83F31188 		msr     BASEPRI, r3
 1466              	@ 0 "" 2
 1467              		.thumb
 1468              	.LBE8:
 1469 003a FFF7FEFF 		bl	dbg_check_lock
 1470              		.loc 1 476 0 discriminator 1
 1471 003e 40F20000 		movw	r0, #:lower16:iq.4799
 1472 0042 C0F20000 		movt	r0, #:upper16:iq.4799
 1473 0046 4FF00001 		mov	r1, #0
 1474 004a FFF7FEFF 		bl	chIQPutI
 1475              		.loc 1 477 0 discriminator 1
 1476 004e 40F20000 		movw	r0, #:lower16:iq.4799
 1477 0052 C0F20000 		movt	r0, #:upper16:iq.4799
 1478 0056 4FF00101 		mov	r1, #1
 1479 005a FFF7FEFF 		bl	chIQPutI
 1480              		.loc 1 478 0 discriminator 1
 1481 005e 40F20000 		movw	r0, #:lower16:iq.4799
 1482 0062 C0F20000 		movt	r0, #:upper16:iq.4799
 1483 0066 4FF00201 		mov	r1, #2
 1484 006a FFF7FEFF 		bl	chIQPutI
 1485              		.loc 1 479 0 discriminator 1
 1486 006e 40F20000 		movw	r0, #:lower16:iq.4799
 1487 0072 C0F20000 		movt	r0, #:upper16:iq.4799
 1488 0076 4FF00301 		mov	r1, #3
 1489 007a FFF7FEFF 		bl	chIQPutI
 1490              		.loc 1 480 0 discriminator 1
 1491 007e FFF7FEFF 		bl	dbg_check_unlock
 1492              	.LBB9:
 1493 0082 4FF00003 		mov	r3, #0
 1494              	@ 480 "../chibios_2.4.x/test/testbmk.c" 1
 1495 0086 83F31188 		msr     BASEPRI, r3
 1496              	@ 0 "" 2
 1497              		.thumb
 1498              	.LBE9:
 1499              		.loc 1 481 0 discriminator 1
 1500 008a 40F20000 		movw	r0, #:lower16:iq.4799
 1501 008e C0F20000 		movt	r0, #:upper16:iq.4799
 1502 0092 4FF0FF31 		mov	r1, #-1
 1503 0096 FFF7FEFF 		bl	chIQGetTimeout
 1504              		.loc 1 482 0 discriminator 1
 1505 009a 40F20000 		movw	r0, #:lower16:iq.4799
 1506 009e C0F20000 		movt	r0, #:upper16:iq.4799
 1507 00a2 4FF0FF31 		mov	r1, #-1
 1508 00a6 FFF7FEFF 		bl	chIQGetTimeout
 1509              		.loc 1 483 0 discriminator 1
 1510 00aa 40F20000 		movw	r0, #:lower16:iq.4799
 1511 00ae C0F20000 		movt	r0, #:upper16:iq.4799
 1512 00b2 4FF0FF31 		mov	r1, #-1
 1513 00b6 FFF7FEFF 		bl	chIQGetTimeout
 1514              		.loc 1 484 0 discriminator 1
 1515 00ba 40F20000 		movw	r0, #:lower16:iq.4799
 1516 00be C0F20000 		movt	r0, #:upper16:iq.4799
 1517 00c2 4FF0FF31 		mov	r1, #-1
 1518 00c6 FFF7FEFF 		bl	chIQGetTimeout
 1519              		.loc 1 485 0 discriminator 1
 1520 00ca 019B     		ldr	r3, [sp, #4]
 1521 00cc 03F10103 		add	r3, r3, #1
ARM GAS  C:\Users\z80\AppData\Local\Temp\cc1dRxCf.s 			page 29


 1522 00d0 0193     		str	r3, [sp, #4]
 1523              		.loc 1 489 0 discriminator 1
 1524 00d2 40F20003 		movw	r3, #:lower16:test_timer_done
 1525 00d6 C0F20003 		movt	r3, #:upper16:test_timer_done
 1526 00da 1B68     		ldr	r3, [r3, #0]
 1527 00dc 002B     		cmp	r3, #0
 1528 00de A8D0     		beq	.L27
 1529              		.loc 1 490 0
 1530 00e0 40F20000 		movw	r0, #:lower16:.LC0
 1531 00e4 C0F20000 		movt	r0, #:upper16:.LC0
 1532 00e8 FFF7FEFF 		bl	test_print
 1533              		.loc 1 491 0
 1534 00ec 019B     		ldr	r3, [sp, #4]
 1535 00ee 4FEA8303 		lsl	r3, r3, #2
 1536 00f2 1846     		mov	r0, r3
 1537 00f4 FFF7FEFF 		bl	test_printn
 1538              		.loc 1 492 0
 1539 00f8 40F20000 		movw	r0, #:lower16:.LC13
 1540 00fc C0F20000 		movt	r0, #:upper16:.LC13
 1541 0100 FFF7FEFF 		bl	test_println
 1542              		.loc 1 493 0
 1543 0104 03B0     		add	sp, sp, #12
 1544 0106 00BD     		pop	{pc}
 1545              		.cfi_endproc
 1546              	.LFE22:
 1547              		.size	bmk9_execute, .-bmk9_execute
 1548              		.global	testbmk9
 1549 0108 AFF30080 		.section	.rodata
 1549      AFF30080 
 1550 0149 000000   		.align	2
 1551              	.LC14:
 1552 014c 42656E63 		.ascii	"Benchmark, I/O Queues throughput\000"
 1552      686D6172 
 1552      6B2C2049 
 1552      2F4F2051 
 1552      75657565 
 1553              		.section	.rodata.testbmk9,"a",%progbits
 1554              		.align	2
 1555              		.type	testbmk9, %object
 1556              		.size	testbmk9, 16
 1557              	testbmk9:
 1558 0000 4C010000 		.word	.LC14
 1559 0004 00000000 		.word	0
 1560 0008 00000000 		.word	0
 1561 000c 00000000 		.word	bmk9_execute
 1562              		.section	.text.tmo,"ax",%progbits
 1563              		.align	2
 1564              		.p2align 4,,15
 1565              		.thumb
 1566              		.thumb_func
 1567              		.type	tmo, %function
 1568              	tmo:
 1569              	.LFB23:
 1570              		.loc 1 511 0
 1571              		.cfi_startproc
 1572              		@ args = 0, pretend = 0, frame = 8
 1573              		@ frame_needed = 0, uses_anonymous_args = 0
ARM GAS  C:\Users\z80\AppData\Local\Temp\cc1dRxCf.s 			page 30


 1574              		@ link register save eliminated.
 1575 0000 82B0     		sub	sp, sp, #8
 1576              	.LCFI30:
 1577              		.cfi_def_cfa_offset 8
 1578 0002 0190     		str	r0, [sp, #4]
 1579              		.loc 1 511 0
 1580 0004 02B0     		add	sp, sp, #8
 1581 0006 7047     		bx	lr
 1582              		.cfi_endproc
 1583              	.LFE23:
 1584              		.size	tmo, .-tmo
 1585 0008 AFF30080 		.section	.rodata
 1585      AFF30080 
 1586 016d 000000   		.align	2
 1587              	.LC15:
 1588 0170 2074696D 		.ascii	" timers/S\000"
 1588      6572732F 
 1588      5300
 1589              		.section	.text.bmk10_execute,"ax",%progbits
 1590              		.align	2
 1591              		.p2align 4,,15
 1592              		.thumb
 1593              		.thumb_func
 1594              		.type	bmk10_execute, %function
 1595              	bmk10_execute:
 1596              	.LFB24:
 1597              		.loc 1 513 0
 1598              		.cfi_startproc
 1599              		@ args = 0, pretend = 0, frame = 8
 1600              		@ frame_needed = 0, uses_anonymous_args = 0
 1601 0000 00B5     		push	{lr}
 1602              	.LCFI31:
 1603              		.cfi_def_cfa_offset 4
 1604              		.cfi_offset 14, -4
 1605 0002 83B0     		sub	sp, sp, #12
 1606              	.LCFI32:
 1607              		.cfi_def_cfa_offset 16
 1608              		.loc 1 515 0
 1609 0004 4FF00003 		mov	r3, #0
 1610 0008 0193     		str	r3, [sp, #4]
 1611              		.loc 1 517 0
 1612 000a FFF7FEFF 		bl	test_wait_tick
 1613              		.loc 1 518 0
 1614 000e 4FF47A70 		mov	r0, #1000
 1615 0012 FFF7FEFF 		bl	test_start_timer
 1616              	.L30:
 1617              	.LBB10:
 1618              		.loc 1 520 0 discriminator 1
 1619 0016 4FF02003 		mov	r3, #32
 1620              	@ 520 "../chibios_2.4.x/test/testbmk.c" 1
 1621 001a 83F31188 		msr     BASEPRI, r3
 1622              	@ 0 "" 2
 1623              		.thumb
 1624              	.LBE10:
 1625 001e FFF7FEFF 		bl	dbg_check_lock
 1626              		.loc 1 521 0 discriminator 1
 1627 0022 40F20000 		movw	r0, #:lower16:vt1.4811
ARM GAS  C:\Users\z80\AppData\Local\Temp\cc1dRxCf.s 			page 31


 1628 0026 C0F20000 		movt	r0, #:upper16:vt1.4811
 1629 002a 4FF00101 		mov	r1, #1
 1630 002e 40F20002 		movw	r2, #:lower16:tmo
 1631 0032 C0F20002 		movt	r2, #:upper16:tmo
 1632 0036 4FF00003 		mov	r3, #0
 1633 003a FFF7FEFF 		bl	chVTSetI
 1634              		.loc 1 522 0 discriminator 1
 1635 003e 40F20000 		movw	r0, #:lower16:vt2.4812
 1636 0042 C0F20000 		movt	r0, #:upper16:vt2.4812
 1637 0046 42F21071 		movw	r1, #10000
 1638 004a 40F20002 		movw	r2, #:lower16:tmo
 1639 004e C0F20002 		movt	r2, #:upper16:tmo
 1640 0052 4FF00003 		mov	r3, #0
 1641 0056 FFF7FEFF 		bl	chVTSetI
 1642              		.loc 1 523 0 discriminator 1
 1643 005a 40F20000 		movw	r0, #:lower16:vt1.4811
 1644 005e C0F20000 		movt	r0, #:upper16:vt1.4811
 1645 0062 FFF7FEFF 		bl	chVTResetI
 1646              		.loc 1 524 0 discriminator 1
 1647 0066 40F20000 		movw	r0, #:lower16:vt2.4812
 1648 006a C0F20000 		movt	r0, #:upper16:vt2.4812
 1649 006e FFF7FEFF 		bl	chVTResetI
 1650              		.loc 1 525 0 discriminator 1
 1651 0072 FFF7FEFF 		bl	dbg_check_unlock
 1652              	.LBB11:
 1653 0076 4FF00003 		mov	r3, #0
 1654              	@ 525 "../chibios_2.4.x/test/testbmk.c" 1
 1655 007a 83F31188 		msr     BASEPRI, r3
 1656              	@ 0 "" 2
 1657              		.thumb
 1658              	.LBE11:
 1659              		.loc 1 526 0 discriminator 1
 1660 007e 019B     		ldr	r3, [sp, #4]
 1661 0080 03F10103 		add	r3, r3, #1
 1662 0084 0193     		str	r3, [sp, #4]
 1663              		.loc 1 530 0 discriminator 1
 1664 0086 40F20003 		movw	r3, #:lower16:test_timer_done
 1665 008a C0F20003 		movt	r3, #:upper16:test_timer_done
 1666 008e 1B68     		ldr	r3, [r3, #0]
 1667 0090 002B     		cmp	r3, #0
 1668 0092 C0D0     		beq	.L30
 1669              		.loc 1 531 0
 1670 0094 40F20000 		movw	r0, #:lower16:.LC0
 1671 0098 C0F20000 		movt	r0, #:upper16:.LC0
 1672 009c FFF7FEFF 		bl	test_print
 1673              		.loc 1 532 0
 1674 00a0 019B     		ldr	r3, [sp, #4]
 1675 00a2 4FEA4303 		lsl	r3, r3, #1
 1676 00a6 1846     		mov	r0, r3
 1677 00a8 FFF7FEFF 		bl	test_printn
 1678              		.loc 1 533 0
 1679 00ac 40F20000 		movw	r0, #:lower16:.LC15
 1680 00b0 C0F20000 		movt	r0, #:upper16:.LC15
 1681 00b4 FFF7FEFF 		bl	test_println
 1682              		.loc 1 534 0
 1683 00b8 03B0     		add	sp, sp, #12
 1684 00ba 00BD     		pop	{pc}
ARM GAS  C:\Users\z80\AppData\Local\Temp\cc1dRxCf.s 			page 32


 1685              		.cfi_endproc
 1686              	.LFE24:
 1687              		.size	bmk10_execute, .-bmk10_execute
 1688              		.global	testbmk10
 1689 00bc AFF30080 		.section	.rodata
 1690 017a 0000     		.align	2
 1691              	.LC16:
 1692 017c 42656E63 		.ascii	"Benchmark, virtual timers set/reset\000"
 1692      686D6172 
 1692      6B2C2076 
 1692      69727475 
 1692      616C2074 
 1693              		.section	.rodata.testbmk10,"a",%progbits
 1694              		.align	2
 1695              		.type	testbmk10, %object
 1696              		.size	testbmk10, 16
 1697              	testbmk10:
 1698 0000 7C010000 		.word	.LC16
 1699 0004 00000000 		.word	0
 1700 0008 00000000 		.word	0
 1701 000c 00000000 		.word	bmk10_execute
 1702              		.section	.text.bmk11_setup,"ax",%progbits
 1703              		.align	2
 1704              		.p2align 4,,15
 1705              		.thumb
 1706              		.thumb_func
 1707              		.type	bmk11_setup, %function
 1708              	bmk11_setup:
 1709              	.LFB25:
 1710              		.loc 1 553 0
 1711              		.cfi_startproc
 1712              		@ args = 0, pretend = 0, frame = 0
 1713              		@ frame_needed = 0, uses_anonymous_args = 0
 1714 0000 08B5     		push	{r3, lr}
 1715              	.LCFI33:
 1716              		.cfi_def_cfa_offset 8
 1717              		.cfi_offset 14, -4
 1718              		.cfi_offset 3, -8
 1719              		.loc 1 555 0
 1720 0002 40F20000 		movw	r0, #:lower16:sem1
 1721 0006 C0F20000 		movt	r0, #:upper16:sem1
 1722 000a 4FF00101 		mov	r1, #1
 1723 000e FFF7FEFF 		bl	chSemInit
 1724              		.loc 1 556 0
 1725 0012 08BD     		pop	{r3, pc}
 1726              		.cfi_endproc
 1727              	.LFE25:
 1728              		.size	bmk11_setup, .-bmk11_setup
 1729 0014 AFF30080 		.section	.rodata
 1729      AFF30080 
 1729      AFF30080 
 1730              		.align	2
 1731              	.LC17:
 1732 01a0 20776169 		.ascii	" wait+signal/S\000"
 1732      742B7369 
 1732      676E616C 
 1732      2F5300
ARM GAS  C:\Users\z80\AppData\Local\Temp\cc1dRxCf.s 			page 33


 1733              		.section	.text.bmk11_execute,"ax",%progbits
 1734              		.align	2
 1735              		.p2align 4,,15
 1736              		.thumb
 1737              		.thumb_func
 1738              		.type	bmk11_execute, %function
 1739              	bmk11_execute:
 1740              	.LFB26:
 1741              		.loc 1 558 0
 1742              		.cfi_startproc
 1743              		@ args = 0, pretend = 0, frame = 8
 1744              		@ frame_needed = 0, uses_anonymous_args = 0
 1745 0000 00B5     		push	{lr}
 1746              	.LCFI34:
 1747              		.cfi_def_cfa_offset 4
 1748              		.cfi_offset 14, -4
 1749 0002 83B0     		sub	sp, sp, #12
 1750              	.LCFI35:
 1751              		.cfi_def_cfa_offset 16
 1752              		.loc 1 559 0
 1753 0004 4FF00003 		mov	r3, #0
 1754 0008 0193     		str	r3, [sp, #4]
 1755              		.loc 1 561 0
 1756 000a FFF7FEFF 		bl	test_wait_tick
 1757              		.loc 1 562 0
 1758 000e 4FF47A70 		mov	r0, #1000
 1759 0012 FFF7FEFF 		bl	test_start_timer
 1760              	.L33:
 1761              		.loc 1 564 0 discriminator 1
 1762 0016 40F20000 		movw	r0, #:lower16:sem1
 1763 001a C0F20000 		movt	r0, #:upper16:sem1
 1764 001e FFF7FEFF 		bl	chSemWait
 1765              		.loc 1 565 0 discriminator 1
 1766 0022 40F20000 		movw	r0, #:lower16:sem1
 1767 0026 C0F20000 		movt	r0, #:upper16:sem1
 1768 002a FFF7FEFF 		bl	chSemSignal
 1769              		.loc 1 566 0 discriminator 1
 1770 002e 40F20000 		movw	r0, #:lower16:sem1
 1771 0032 C0F20000 		movt	r0, #:upper16:sem1
 1772 0036 FFF7FEFF 		bl	chSemWait
 1773              		.loc 1 567 0 discriminator 1
 1774 003a 40F20000 		movw	r0, #:lower16:sem1
 1775 003e C0F20000 		movt	r0, #:upper16:sem1
 1776 0042 FFF7FEFF 		bl	chSemSignal
 1777              		.loc 1 568 0 discriminator 1
 1778 0046 40F20000 		movw	r0, #:lower16:sem1
 1779 004a C0F20000 		movt	r0, #:upper16:sem1
 1780 004e FFF7FEFF 		bl	chSemWait
 1781              		.loc 1 569 0 discriminator 1
 1782 0052 40F20000 		movw	r0, #:lower16:sem1
 1783 0056 C0F20000 		movt	r0, #:upper16:sem1
 1784 005a FFF7FEFF 		bl	chSemSignal
 1785              		.loc 1 570 0 discriminator 1
 1786 005e 40F20000 		movw	r0, #:lower16:sem1
 1787 0062 C0F20000 		movt	r0, #:upper16:sem1
 1788 0066 FFF7FEFF 		bl	chSemWait
 1789              		.loc 1 571 0 discriminator 1
ARM GAS  C:\Users\z80\AppData\Local\Temp\cc1dRxCf.s 			page 34


 1790 006a 40F20000 		movw	r0, #:lower16:sem1
 1791 006e C0F20000 		movt	r0, #:upper16:sem1
 1792 0072 FFF7FEFF 		bl	chSemSignal
 1793              		.loc 1 572 0 discriminator 1
 1794 0076 019B     		ldr	r3, [sp, #4]
 1795 0078 03F10103 		add	r3, r3, #1
 1796 007c 0193     		str	r3, [sp, #4]
 1797              		.loc 1 576 0 discriminator 1
 1798 007e 40F20003 		movw	r3, #:lower16:test_timer_done
 1799 0082 C0F20003 		movt	r3, #:upper16:test_timer_done
 1800 0086 1B68     		ldr	r3, [r3, #0]
 1801 0088 002B     		cmp	r3, #0
 1802 008a C4D0     		beq	.L33
 1803              		.loc 1 577 0
 1804 008c 40F20000 		movw	r0, #:lower16:.LC0
 1805 0090 C0F20000 		movt	r0, #:upper16:.LC0
 1806 0094 FFF7FEFF 		bl	test_print
 1807              		.loc 1 578 0
 1808 0098 019B     		ldr	r3, [sp, #4]
 1809 009a 4FEA8303 		lsl	r3, r3, #2
 1810 009e 1846     		mov	r0, r3
 1811 00a0 FFF7FEFF 		bl	test_printn
 1812              		.loc 1 579 0
 1813 00a4 40F20000 		movw	r0, #:lower16:.LC17
 1814 00a8 C0F20000 		movt	r0, #:upper16:.LC17
 1815 00ac FFF7FEFF 		bl	test_println
 1816              		.loc 1 580 0
 1817 00b0 03B0     		add	sp, sp, #12
 1818 00b2 00BD     		pop	{pc}
 1819              		.cfi_endproc
 1820              	.LFE26:
 1821              		.size	bmk11_execute, .-bmk11_execute
 1822              		.global	testbmk11
 1823 00b4 AFF30080 		.section	.rodata
 1823      AFF30080 
 1823      AFF30080 
 1824 01af 00       		.align	2
 1825              	.LC18:
 1826 01b0 42656E63 		.ascii	"Benchmark, semaphores wait/signal\000"
 1826      686D6172 
 1826      6B2C2073 
 1826      656D6170 
 1826      686F7265 
 1827              		.section	.rodata.testbmk11,"a",%progbits
 1828              		.align	2
 1829              		.type	testbmk11, %object
 1830              		.size	testbmk11, 16
 1831              	testbmk11:
 1832 0000 B0010000 		.word	.LC18
 1833 0004 00000000 		.word	bmk11_setup
 1834 0008 00000000 		.word	0
 1835 000c 00000000 		.word	bmk11_execute
 1836              		.section	.text.bmk12_setup,"ax",%progbits
 1837              		.align	2
 1838              		.p2align 4,,15
 1839              		.thumb
 1840              		.thumb_func
ARM GAS  C:\Users\z80\AppData\Local\Temp\cc1dRxCf.s 			page 35


 1841              		.type	bmk12_setup, %function
 1842              	bmk12_setup:
 1843              	.LFB27:
 1844              		.loc 1 600 0
 1845              		.cfi_startproc
 1846              		@ args = 0, pretend = 0, frame = 0
 1847              		@ frame_needed = 0, uses_anonymous_args = 0
 1848 0000 08B5     		push	{r3, lr}
 1849              	.LCFI36:
 1850              		.cfi_def_cfa_offset 8
 1851              		.cfi_offset 14, -4
 1852              		.cfi_offset 3, -8
 1853              		.loc 1 602 0
 1854 0002 40F20000 		movw	r0, #:lower16:mtx1
 1855 0006 C0F20000 		movt	r0, #:upper16:mtx1
 1856 000a FFF7FEFF 		bl	chMtxInit
 1857              		.loc 1 603 0
 1858 000e 08BD     		pop	{r3, pc}
 1859              		.cfi_endproc
 1860              	.LFE27:
 1861              		.size	bmk12_setup, .-bmk12_setup
 1862              		.section	.rodata
 1863 01d2 0000     		.align	2
 1864              	.LC19:
 1865 01d4 206C6F63 		.ascii	" lock+unlock/S\000"
 1865      6B2B756E 
 1865      6C6F636B 
 1865      2F5300
 1866              		.section	.text.bmk12_execute,"ax",%progbits
 1867              		.align	2
 1868              		.p2align 4,,15
 1869              		.thumb
 1870              		.thumb_func
 1871              		.type	bmk12_execute, %function
 1872              	bmk12_execute:
 1873              	.LFB28:
 1874              		.loc 1 605 0
 1875              		.cfi_startproc
 1876              		@ args = 0, pretend = 0, frame = 8
 1877              		@ frame_needed = 0, uses_anonymous_args = 0
 1878 0000 00B5     		push	{lr}
 1879              	.LCFI37:
 1880              		.cfi_def_cfa_offset 4
 1881              		.cfi_offset 14, -4
 1882 0002 83B0     		sub	sp, sp, #12
 1883              	.LCFI38:
 1884              		.cfi_def_cfa_offset 16
 1885              		.loc 1 606 0
 1886 0004 4FF00003 		mov	r3, #0
 1887 0008 0193     		str	r3, [sp, #4]
 1888              		.loc 1 608 0
 1889 000a FFF7FEFF 		bl	test_wait_tick
 1890              		.loc 1 609 0
 1891 000e 4FF47A70 		mov	r0, #1000
 1892 0012 FFF7FEFF 		bl	test_start_timer
 1893              	.L36:
 1894              		.loc 1 611 0 discriminator 1
ARM GAS  C:\Users\z80\AppData\Local\Temp\cc1dRxCf.s 			page 36


 1895 0016 40F20000 		movw	r0, #:lower16:mtx1
 1896 001a C0F20000 		movt	r0, #:upper16:mtx1
 1897 001e FFF7FEFF 		bl	chMtxLock
 1898              		.loc 1 612 0 discriminator 1
 1899 0022 FFF7FEFF 		bl	chMtxUnlock
 1900              		.loc 1 613 0 discriminator 1
 1901 0026 40F20000 		movw	r0, #:lower16:mtx1
 1902 002a C0F20000 		movt	r0, #:upper16:mtx1
 1903 002e FFF7FEFF 		bl	chMtxLock
 1904              		.loc 1 614 0 discriminator 1
 1905 0032 FFF7FEFF 		bl	chMtxUnlock
 1906              		.loc 1 615 0 discriminator 1
 1907 0036 40F20000 		movw	r0, #:lower16:mtx1
 1908 003a C0F20000 		movt	r0, #:upper16:mtx1
 1909 003e FFF7FEFF 		bl	chMtxLock
 1910              		.loc 1 616 0 discriminator 1
 1911 0042 FFF7FEFF 		bl	chMtxUnlock
 1912              		.loc 1 617 0 discriminator 1
 1913 0046 40F20000 		movw	r0, #:lower16:mtx1
 1914 004a C0F20000 		movt	r0, #:upper16:mtx1
 1915 004e FFF7FEFF 		bl	chMtxLock
 1916              		.loc 1 618 0 discriminator 1
 1917 0052 FFF7FEFF 		bl	chMtxUnlock
 1918              		.loc 1 619 0 discriminator 1
 1919 0056 019B     		ldr	r3, [sp, #4]
 1920 0058 03F10103 		add	r3, r3, #1
 1921 005c 0193     		str	r3, [sp, #4]
 1922              		.loc 1 623 0 discriminator 1
 1923 005e 40F20003 		movw	r3, #:lower16:test_timer_done
 1924 0062 C0F20003 		movt	r3, #:upper16:test_timer_done
 1925 0066 1B68     		ldr	r3, [r3, #0]
 1926 0068 002B     		cmp	r3, #0
 1927 006a D4D0     		beq	.L36
 1928              		.loc 1 624 0
 1929 006c 40F20000 		movw	r0, #:lower16:.LC0
 1930 0070 C0F20000 		movt	r0, #:upper16:.LC0
 1931 0074 FFF7FEFF 		bl	test_print
 1932              		.loc 1 625 0
 1933 0078 019B     		ldr	r3, [sp, #4]
 1934 007a 4FEA8303 		lsl	r3, r3, #2
 1935 007e 1846     		mov	r0, r3
 1936 0080 FFF7FEFF 		bl	test_printn
 1937              		.loc 1 626 0
 1938 0084 40F20000 		movw	r0, #:lower16:.LC19
 1939 0088 C0F20000 		movt	r0, #:upper16:.LC19
 1940 008c FFF7FEFF 		bl	test_println
 1941              		.loc 1 627 0
 1942 0090 03B0     		add	sp, sp, #12
 1943 0092 00BD     		pop	{pc}
 1944              		.cfi_endproc
 1945              	.LFE28:
 1946              		.size	bmk12_execute, .-bmk12_execute
 1947              		.global	testbmk12
 1948 0094 AFF30080 		.section	.rodata
 1948      AFF30080 
 1948      AFF30080 
 1949 01e3 00       		.align	2
ARM GAS  C:\Users\z80\AppData\Local\Temp\cc1dRxCf.s 			page 37


 1950              	.LC20:
 1951 01e4 42656E63 		.ascii	"Benchmark, mutexes lock/unlock\000"
 1951      686D6172 
 1951      6B2C206D 
 1951      75746578 
 1951      6573206C 
 1952              		.section	.rodata.testbmk12,"a",%progbits
 1953              		.align	2
 1954              		.type	testbmk12, %object
 1955              		.size	testbmk12, 16
 1956              	testbmk12:
 1957 0000 E4010000 		.word	.LC20
 1958 0004 00000000 		.word	bmk12_setup
 1959 0008 00000000 		.word	0
 1960 000c 00000000 		.word	bmk12_execute
 1961              		.section	.rodata
 1962 0203 00       		.align	2
 1963              	.LC21:
 1964 0204 2D2D2D20 		.ascii	"--- System: \000"
 1964      53797374 
 1964      656D3A20 
 1964      00
 1965 0211 000000   		.align	2
 1966              	.LC22:
 1967 0214 20627974 		.ascii	" bytes\000"
 1967      657300
 1968 021b 00       		.align	2
 1969              	.LC23:
 1970 021c 2D2D2D20 		.ascii	"--- Thread: \000"
 1970      54687265 
 1970      61643A20 
 1970      00
 1971 0229 000000   		.align	2
 1972              	.LC24:
 1973 022c 2D2D2D20 		.ascii	"--- Timer : \000"
 1973      54696D65 
 1973      72203A20 
 1973      00
 1974 0239 000000   		.align	2
 1975              	.LC25:
 1976 023c 2D2D2D20 		.ascii	"--- Semaph: \000"
 1976      53656D61 
 1976      70683A20 
 1976      00
 1977 0249 000000   		.align	2
 1978              	.LC26:
 1979 024c 2D2D2D20 		.ascii	"--- EventS: \000"
 1979      4576656E 
 1979      74533A20 
 1979      00
 1980 0259 000000   		.align	2
 1981              	.LC27:
 1982 025c 2D2D2D20 		.ascii	"--- EventL: \000"
 1982      4576656E 
 1982      744C3A20 
 1982      00
 1983 0269 000000   		.align	2
ARM GAS  C:\Users\z80\AppData\Local\Temp\cc1dRxCf.s 			page 38


 1984              	.LC28:
 1985 026c 2D2D2D20 		.ascii	"--- Mutex : \000"
 1985      4D757465 
 1985      78203A20 
 1985      00
 1986 0279 000000   		.align	2
 1987              	.LC29:
 1988 027c 2D2D2D20 		.ascii	"--- CondV.: \000"
 1988      436F6E64 
 1988      562E3A20 
 1988      00
 1989 0289 000000   		.align	2
 1990              	.LC30:
 1991 028c 2D2D2D20 		.ascii	"--- Queue : \000"
 1991      51756575 
 1991      65203A20 
 1991      00
 1992 0299 000000   		.align	2
 1993              	.LC31:
 1994 029c 2D2D2D20 		.ascii	"--- MailB.: \000"
 1994      4D61696C 
 1994      422E3A20 
 1994      00
 1995              		.section	.text.bmk13_execute,"ax",%progbits
 1996              		.align	2
 1997              		.p2align 4,,15
 1998              		.thumb
 1999              		.thumb_func
 2000              		.type	bmk13_execute, %function
 2001              	bmk13_execute:
 2002              	.LFB29:
 2003              		.loc 1 644 0
 2004              		.cfi_startproc
 2005              		@ args = 0, pretend = 0, frame = 0
 2006              		@ frame_needed = 0, uses_anonymous_args = 0
 2007 0000 08B5     		push	{r3, lr}
 2008              	.LCFI39:
 2009              		.cfi_def_cfa_offset 8
 2010              		.cfi_offset 14, -4
 2011              		.cfi_offset 3, -8
 2012              		.loc 1 646 0
 2013 0002 40F20000 		movw	r0, #:lower16:.LC21
 2014 0006 C0F20000 		movt	r0, #:upper16:.LC21
 2015 000a FFF7FEFF 		bl	test_print
 2016              		.loc 1 647 0
 2017 000e 4FF4CC70 		mov	r0, #408
 2018 0012 FFF7FEFF 		bl	test_printn
 2019              		.loc 1 652 0
 2020 0016 40F20000 		movw	r0, #:lower16:.LC22
 2021 001a C0F20000 		movt	r0, #:upper16:.LC22
 2022 001e FFF7FEFF 		bl	test_println
 2023              		.loc 1 653 0
 2024 0022 40F20000 		movw	r0, #:lower16:.LC23
 2025 0026 C0F20000 		movt	r0, #:upper16:.LC23
 2026 002a FFF7FEFF 		bl	test_print
 2027              		.loc 1 654 0
 2028 002e 4FF04800 		mov	r0, #72
ARM GAS  C:\Users\z80\AppData\Local\Temp\cc1dRxCf.s 			page 39


 2029 0032 FFF7FEFF 		bl	test_printn
 2030              		.loc 1 655 0
 2031 0036 40F20000 		movw	r0, #:lower16:.LC22
 2032 003a C0F20000 		movt	r0, #:upper16:.LC22
 2033 003e FFF7FEFF 		bl	test_println
 2034              		.loc 1 656 0
 2035 0042 40F20000 		movw	r0, #:lower16:.LC24
 2036 0046 C0F20000 		movt	r0, #:upper16:.LC24
 2037 004a FFF7FEFF 		bl	test_print
 2038              		.loc 1 657 0
 2039 004e 4FF01400 		mov	r0, #20
 2040 0052 FFF7FEFF 		bl	test_printn
 2041              		.loc 1 658 0
 2042 0056 40F20000 		movw	r0, #:lower16:.LC22
 2043 005a C0F20000 		movt	r0, #:upper16:.LC22
 2044 005e FFF7FEFF 		bl	test_println
 2045              		.loc 1 659 0
 2046 0062 40F20000 		movw	r0, #:lower16:.LC25
 2047 0066 C0F20000 		movt	r0, #:upper16:.LC25
 2048 006a FFF7FEFF 		bl	test_print
 2049              		.loc 1 660 0
 2050 006e 4FF00C00 		mov	r0, #12
 2051 0072 FFF7FEFF 		bl	test_printn
 2052              		.loc 1 661 0
 2053 0076 40F20000 		movw	r0, #:lower16:.LC22
 2054 007a C0F20000 		movt	r0, #:upper16:.LC22
 2055 007e FFF7FEFF 		bl	test_println
 2056              		.loc 1 663 0
 2057 0082 40F20000 		movw	r0, #:lower16:.LC26
 2058 0086 C0F20000 		movt	r0, #:upper16:.LC26
 2059 008a FFF7FEFF 		bl	test_print
 2060              		.loc 1 664 0
 2061 008e 4FF00400 		mov	r0, #4
 2062 0092 FFF7FEFF 		bl	test_printn
 2063              		.loc 1 665 0
 2064 0096 40F20000 		movw	r0, #:lower16:.LC22
 2065 009a C0F20000 		movt	r0, #:upper16:.LC22
 2066 009e FFF7FEFF 		bl	test_println
 2067              		.loc 1 666 0
 2068 00a2 40F20000 		movw	r0, #:lower16:.LC27
 2069 00a6 C0F20000 		movt	r0, #:upper16:.LC27
 2070 00aa FFF7FEFF 		bl	test_print
 2071              		.loc 1 667 0
 2072 00ae 4FF00C00 		mov	r0, #12
 2073 00b2 FFF7FEFF 		bl	test_printn
 2074              		.loc 1 668 0
 2075 00b6 40F20000 		movw	r0, #:lower16:.LC22
 2076 00ba C0F20000 		movt	r0, #:upper16:.LC22
 2077 00be FFF7FEFF 		bl	test_println
 2078              		.loc 1 671 0
 2079 00c2 40F20000 		movw	r0, #:lower16:.LC28
 2080 00c6 C0F20000 		movt	r0, #:upper16:.LC28
 2081 00ca FFF7FEFF 		bl	test_print
 2082              		.loc 1 672 0
 2083 00ce 4FF01000 		mov	r0, #16
 2084 00d2 FFF7FEFF 		bl	test_printn
 2085              		.loc 1 673 0
ARM GAS  C:\Users\z80\AppData\Local\Temp\cc1dRxCf.s 			page 40


 2086 00d6 40F20000 		movw	r0, #:lower16:.LC22
 2087 00da C0F20000 		movt	r0, #:upper16:.LC22
 2088 00de FFF7FEFF 		bl	test_println
 2089              		.loc 1 676 0
 2090 00e2 40F20000 		movw	r0, #:lower16:.LC29
 2091 00e6 C0F20000 		movt	r0, #:upper16:.LC29
 2092 00ea FFF7FEFF 		bl	test_print
 2093              		.loc 1 677 0
 2094 00ee 4FF00800 		mov	r0, #8
 2095 00f2 FFF7FEFF 		bl	test_printn
 2096              		.loc 1 678 0
 2097 00f6 40F20000 		movw	r0, #:lower16:.LC22
 2098 00fa C0F20000 		movt	r0, #:upper16:.LC22
 2099 00fe FFF7FEFF 		bl	test_println
 2100              		.loc 1 681 0
 2101 0102 40F20000 		movw	r0, #:lower16:.LC30
 2102 0106 C0F20000 		movt	r0, #:upper16:.LC30
 2103 010a FFF7FEFF 		bl	test_print
 2104              		.loc 1 682 0
 2105 010e 4FF02000 		mov	r0, #32
 2106 0112 FFF7FEFF 		bl	test_printn
 2107              		.loc 1 683 0
 2108 0116 40F20000 		movw	r0, #:lower16:.LC22
 2109 011a C0F20000 		movt	r0, #:upper16:.LC22
 2110 011e FFF7FEFF 		bl	test_println
 2111              		.loc 1 686 0
 2112 0122 40F20000 		movw	r0, #:lower16:.LC31
 2113 0126 C0F20000 		movt	r0, #:upper16:.LC31
 2114 012a FFF7FEFF 		bl	test_print
 2115              		.loc 1 687 0
 2116 012e 4FF02800 		mov	r0, #40
 2117 0132 FFF7FEFF 		bl	test_printn
 2118              		.loc 1 688 0
 2119 0136 40F20000 		movw	r0, #:lower16:.LC22
 2120 013a C0F20000 		movt	r0, #:upper16:.LC22
 2121 013e FFF7FEFF 		bl	test_println
 2122              		.loc 1 690 0
 2123 0142 08BD     		pop	{r3, pc}
 2124              		.cfi_endproc
 2125              	.LFE29:
 2126              		.size	bmk13_execute, .-bmk13_execute
 2127              		.global	testbmk13
 2128 0144 AFF30080 		.section	.rodata
 2128      AFF30080 
 2128      AFF30080 
 2129 02a9 000000   		.align	2
 2130              	.LC32:
 2131 02ac 42656E63 		.ascii	"Benchmark, RAM footprint\000"
 2131      686D6172 
 2131      6B2C2052 
 2131      414D2066 
 2131      6F6F7470 
 2132 02c5 000000   		.section	.rodata.testbmk13,"a",%progbits
 2133              		.align	2
 2134              		.type	testbmk13, %object
 2135              		.size	testbmk13, 16
 2136              	testbmk13:
ARM GAS  C:\Users\z80\AppData\Local\Temp\cc1dRxCf.s 			page 41


 2137 0000 AC020000 		.word	.LC32
 2138 0004 00000000 		.word	0
 2139 0008 00000000 		.word	0
 2140 000c 00000000 		.word	bmk13_execute
 2141              		.global	patternbmk
 2142              		.section	.rodata.patternbmk,"a",%progbits
 2143              		.align	2
 2144              		.type	patternbmk, %object
 2145              		.size	patternbmk, 56
 2146              	patternbmk:
 2147 0000 00000000 		.word	testbmk1
 2148 0004 00000000 		.word	testbmk2
 2149 0008 00000000 		.word	testbmk3
 2150 000c 00000000 		.word	testbmk4
 2151 0010 00000000 		.word	testbmk5
 2152 0014 00000000 		.word	testbmk6
 2153 0018 00000000 		.word	testbmk7
 2154 001c 00000000 		.word	testbmk8
 2155 0020 00000000 		.word	testbmk9
 2156 0024 00000000 		.word	testbmk10
 2157 0028 00000000 		.word	testbmk11
 2158 002c 00000000 		.word	testbmk12
 2159 0030 00000000 		.word	testbmk13
 2160 0034 00000000 		.word	0
 2161              		.section	.bss.vt1.4811,"aw",%nobits
 2162              		.align	2
 2163              		.type	vt1.4811, %object
 2164              		.size	vt1.4811, 20
 2165              	vt1.4811:
 2166 0000 00000000 		.space	20
 2166      00000000 
 2166      00000000 
 2166      00000000 
 2166      00000000 
 2167              		.section	.bss.vt2.4812,"aw",%nobits
 2168              		.align	2
 2169              		.type	vt2.4812, %object
 2170              		.size	vt2.4812, 20
 2171              	vt2.4812:
 2172 0000 00000000 		.space	20
 2172      00000000 
 2172      00000000 
 2172      00000000 
 2172      00000000 
 2173              		.section	.bss.iq.4799,"aw",%nobits
 2174              		.align	2
 2175              		.type	iq.4799, %object
 2176              		.size	iq.4799, 32
 2177              	iq.4799:
 2178 0000 00000000 		.space	32
 2178      00000000 
 2178      00000000 
 2178      00000000 
 2178      00000000 
 2179              		.section	.bss.ib.4798,"aw",%nobits
 2180              		.align	2
 2181              		.type	ib.4798, %object
ARM GAS  C:\Users\z80\AppData\Local\Temp\cc1dRxCf.s 			page 42


 2182              		.size	ib.4798, 16
 2183              	ib.4798:
 2184 0000 00000000 		.space	16
 2184      00000000 
 2184      00000000 
 2184      00000000 
 2185              		.text
 2186              	.Letext0:
 2187              		.file 2 "c:\\programs\\codesourcery\\2011.03-56\\bin\\../lib/gcc/arm-none-eabi/4.6.3/include/stdde
 2188              		.file 3 "c:\\programs\\codesourcery\\2011.03-56\\bin\\../lib/gcc/arm-none-eabi/4.6.3/../../../../a
 2189              		.file 4 "../chibios_2.4.x/os/ports/GCC/ARMCMx/chtypes.h"
 2190              		.file 5 "../chibios_2.4.x/os/kernel/include/chlists.h"
 2191              		.file 6 "../chibios_2.4.x/os/kernel/include/chthreads.h"
 2192              		.file 7 "../chibios_2.4.x/os/ports/GCC/ARMCMx/chcore_v7m.h"
 2193              		.file 8 "../chibios_2.4.x/os/kernel/include/chvt.h"
 2194              		.file 9 "../chibios_2.4.x/os/kernel/include/chschd.h"
 2195              		.file 10 "../chibios_2.4.x/os/kernel/include/chsem.h"
 2196              		.file 11 "../chibios_2.4.x/os/kernel/include/chmtx.h"
 2197              		.file 12 "../chibios_2.4.x/os/kernel/include/chqueues.h"
 2198              		.file 13 "../chibios_2.4.x/test/test.h"
 2199              		.section	.debug_info,"",%progbits
 2200              	.Ldebug_info0:
 2201 0000 BA0C0000 		.4byte	0xcba
 2202 0004 0200     		.2byte	0x2
 2203 0006 00000000 		.4byte	.Ldebug_abbrev0
 2204 000a 04       		.byte	0x4
 2205 000b 01       		.uleb128 0x1
 2206 000c 49040000 		.4byte	.LASF131
 2207 0010 01       		.byte	0x1
 2208 0011 74020000 		.4byte	.LASF132
 2209 0015 9F000000 		.4byte	.LASF133
 2210 0019 00000000 		.4byte	0
 2211 001d 00000000 		.4byte	0
 2212 0021 00000000 		.4byte	.Ldebug_ranges0+0
 2213 0025 00000000 		.4byte	.Ldebug_line0
 2214 0029 02       		.uleb128 0x2
 2215 002a 04       		.byte	0x4
 2216 002b 05       		.byte	0x5
 2217 002c 696E7400 		.ascii	"int\000"
 2218 0030 03       		.uleb128 0x3
 2219 0031 06000000 		.4byte	.LASF2
 2220 0035 02       		.byte	0x2
 2221 0036 D4       		.byte	0xd4
 2222 0037 3B000000 		.4byte	0x3b
 2223 003b 04       		.uleb128 0x4
 2224 003c 04       		.byte	0x4
 2225 003d 07       		.byte	0x7
 2226 003e 69010000 		.4byte	.LASF0
 2227 0042 04       		.uleb128 0x4
 2228 0043 01       		.byte	0x1
 2229 0044 06       		.byte	0x6
 2230 0045 6E000000 		.4byte	.LASF1
 2231 0049 03       		.uleb128 0x3
 2232 004a DA040000 		.4byte	.LASF3
 2233 004e 03       		.byte	0x3
 2234 004f 2A       		.byte	0x2a
 2235 0050 54000000 		.4byte	0x54
ARM GAS  C:\Users\z80\AppData\Local\Temp\cc1dRxCf.s 			page 43


 2236 0054 04       		.uleb128 0x4
 2237 0055 01       		.byte	0x1
 2238 0056 08       		.byte	0x8
 2239 0057 98030000 		.4byte	.LASF4
 2240 005b 04       		.uleb128 0x4
 2241 005c 02       		.byte	0x2
 2242 005d 05       		.byte	0x5
 2243 005e B0030000 		.4byte	.LASF5
 2244 0062 04       		.uleb128 0x4
 2245 0063 02       		.byte	0x2
 2246 0064 07       		.byte	0x7
 2247 0065 EE010000 		.4byte	.LASF6
 2248 0069 03       		.uleb128 0x3
 2249 006a 90030000 		.4byte	.LASF7
 2250 006e 03       		.byte	0x3
 2251 006f 4F       		.byte	0x4f
 2252 0070 74000000 		.4byte	0x74
 2253 0074 04       		.uleb128 0x4
 2254 0075 04       		.byte	0x4
 2255 0076 05       		.byte	0x5
 2256 0077 CC000000 		.4byte	.LASF8
 2257 007b 03       		.uleb128 0x3
 2258 007c 2B040000 		.4byte	.LASF9
 2259 0080 03       		.byte	0x3
 2260 0081 50       		.byte	0x50
 2261 0082 86000000 		.4byte	0x86
 2262 0086 04       		.uleb128 0x4
 2263 0087 04       		.byte	0x4
 2264 0088 07       		.byte	0x7
 2265 0089 9A010000 		.4byte	.LASF10
 2266 008d 04       		.uleb128 0x4
 2267 008e 08       		.byte	0x8
 2268 008f 05       		.byte	0x5
 2269 0090 60000000 		.4byte	.LASF11
 2270 0094 03       		.uleb128 0x3
 2271 0095 19000000 		.4byte	.LASF12
 2272 0099 03       		.byte	0x3
 2273 009a 78       		.byte	0x78
 2274 009b 9F000000 		.4byte	0x9f
 2275 009f 04       		.uleb128 0x4
 2276 00a0 08       		.byte	0x8
 2277 00a1 07       		.byte	0x7
 2278 00a2 22000000 		.4byte	.LASF13
 2279 00a6 03       		.uleb128 0x3
 2280 00a7 7A000000 		.4byte	.LASF14
 2281 00ab 04       		.byte	0x4
 2282 00ac 2E       		.byte	0x2e
 2283 00ad 69000000 		.4byte	0x69
 2284 00b1 03       		.uleb128 0x3
 2285 00b2 19020000 		.4byte	.LASF15
 2286 00b6 04       		.byte	0x4
 2287 00b7 2F       		.byte	0x2f
 2288 00b8 49000000 		.4byte	0x49
 2289 00bc 03       		.uleb128 0x3
 2290 00bd D5000000 		.4byte	.LASF16
 2291 00c1 04       		.byte	0x4
 2292 00c2 30       		.byte	0x30
ARM GAS  C:\Users\z80\AppData\Local\Temp\cc1dRxCf.s 			page 44


 2293 00c3 49000000 		.4byte	0x49
 2294 00c7 03       		.uleb128 0x3
 2295 00c8 72030000 		.4byte	.LASF17
 2296 00cc 04       		.byte	0x4
 2297 00cd 32       		.byte	0x32
 2298 00ce 7B000000 		.4byte	0x7b
 2299 00d2 03       		.uleb128 0x3
 2300 00d3 06020000 		.4byte	.LASF18
 2301 00d7 04       		.byte	0x4
 2302 00d8 33       		.byte	0x33
 2303 00d9 69000000 		.4byte	0x69
 2304 00dd 03       		.uleb128 0x3
 2305 00de 2D020000 		.4byte	.LASF19
 2306 00e2 04       		.byte	0x4
 2307 00e3 35       		.byte	0x35
 2308 00e4 7B000000 		.4byte	0x7b
 2309 00e8 03       		.uleb128 0x3
 2310 00e9 66040000 		.4byte	.LASF20
 2311 00ed 04       		.byte	0x4
 2312 00ee 36       		.byte	0x36
 2313 00ef 7B000000 		.4byte	0x7b
 2314 00f3 03       		.uleb128 0x3
 2315 00f4 58010000 		.4byte	.LASF21
 2316 00f8 04       		.byte	0x4
 2317 00f9 37       		.byte	0x37
 2318 00fa 69000000 		.4byte	0x69
 2319 00fe 03       		.uleb128 0x3
 2320 00ff F2030000 		.4byte	.LASF22
 2321 0103 05       		.byte	0x5
 2322 0104 2A       		.byte	0x2a
 2323 0105 09010000 		.4byte	0x109
 2324 0109 05       		.uleb128 0x5
 2325 010a F2030000 		.4byte	.LASF22
 2326 010e 48       		.byte	0x48
 2327 010f 06       		.byte	0x6
 2328 0110 5E       		.byte	0x5e
 2329 0111 12020000 		.4byte	0x212
 2330 0115 06       		.uleb128 0x6
 2331 0116 D8030000 		.4byte	.LASF23
 2332 011a 06       		.byte	0x6
 2333 011b 5F       		.byte	0x5f
 2334 011c 37020000 		.4byte	0x237
 2335 0120 02       		.byte	0x2
 2336 0121 23       		.byte	0x23
 2337 0122 00       		.uleb128 0
 2338 0123 06       		.uleb128 0x6
 2339 0124 63030000 		.4byte	.LASF24
 2340 0128 06       		.byte	0x6
 2341 0129 61       		.byte	0x61
 2342 012a 37020000 		.4byte	0x237
 2343 012e 02       		.byte	0x2
 2344 012f 23       		.byte	0x23
 2345 0130 04       		.uleb128 0x4
 2346 0131 06       		.uleb128 0x6
 2347 0132 4F000000 		.4byte	.LASF25
 2348 0136 06       		.byte	0x6
 2349 0137 63       		.byte	0x63
ARM GAS  C:\Users\z80\AppData\Local\Temp\cc1dRxCf.s 			page 45


 2350 0138 C7000000 		.4byte	0xc7
 2351 013c 02       		.byte	0x2
 2352 013d 23       		.byte	0x23
 2353 013e 08       		.uleb128 0x8
 2354 013f 06       		.uleb128 0x6
 2355 0140 27050000 		.4byte	.LASF26
 2356 0144 06       		.byte	0x6
 2357 0145 64       		.byte	0x64
 2358 0146 0F030000 		.4byte	0x30f
 2359 014a 02       		.byte	0x2
 2360 014b 23       		.byte	0x23
 2361 014c 0C       		.uleb128 0xc
 2362 014d 06       		.uleb128 0x6
 2363 014e FC000000 		.4byte	.LASF27
 2364 0152 06       		.byte	0x6
 2365 0153 66       		.byte	0x66
 2366 0154 37020000 		.4byte	0x237
 2367 0158 02       		.byte	0x2
 2368 0159 23       		.byte	0x23
 2369 015a 10       		.uleb128 0x10
 2370 015b 06       		.uleb128 0x6
 2371 015c 06030000 		.4byte	.LASF28
 2372 0160 06       		.byte	0x6
 2373 0161 67       		.byte	0x67
 2374 0162 37020000 		.4byte	0x237
 2375 0166 02       		.byte	0x2
 2376 0167 23       		.byte	0x23
 2377 0168 14       		.uleb128 0x14
 2378 0169 06       		.uleb128 0x6
 2379 016a E9040000 		.4byte	.LASF29
 2380 016e 06       		.byte	0x6
 2381 016f 6E       		.byte	0x6e
 2382 0170 DF040000 		.4byte	0x4df
 2383 0174 02       		.byte	0x2
 2384 0175 23       		.byte	0x23
 2385 0176 18       		.uleb128 0x18
 2386 0177 06       		.uleb128 0x6
 2387 0178 5E010000 		.4byte	.LASF30
 2388 017c 06       		.byte	0x6
 2389 017d 74       		.byte	0x74
 2390 017e F1040000 		.4byte	0x4f1
 2391 0182 02       		.byte	0x2
 2392 0183 23       		.byte	0x23
 2393 0184 1C       		.uleb128 0x1c
 2394 0185 06       		.uleb128 0x6
 2395 0186 BA030000 		.4byte	.LASF31
 2396 018a 06       		.byte	0x6
 2397 018b 79       		.byte	0x79
 2398 018c BC000000 		.4byte	0xbc
 2399 0190 02       		.byte	0x2
 2400 0191 23       		.byte	0x23
 2401 0192 20       		.uleb128 0x20
 2402 0193 06       		.uleb128 0x6
 2403 0194 DF030000 		.4byte	.LASF32
 2404 0198 06       		.byte	0x6
 2405 0199 7D       		.byte	0x7d
 2406 019a B1000000 		.4byte	0xb1
ARM GAS  C:\Users\z80\AppData\Local\Temp\cc1dRxCf.s 			page 46


 2407 019e 02       		.byte	0x2
 2408 019f 23       		.byte	0x23
 2409 01a0 21       		.uleb128 0x21
 2410 01a1 06       		.uleb128 0x6
 2411 01a2 91040000 		.4byte	.LASF33
 2412 01a6 06       		.byte	0x6
 2413 01a7 89       		.byte	0x89
 2414 01a8 B3030000 		.4byte	0x3b3
 2415 01ac 02       		.byte	0x2
 2416 01ad 23       		.byte	0x23
 2417 01ae 24       		.uleb128 0x24
 2418 01af 07       		.uleb128 0x7
 2419 01b0 705F7500 		.ascii	"p_u\000"
 2420 01b4 06       		.byte	0x6
 2421 01b5 AE       		.byte	0xae
 2422 01b6 AA040000 		.4byte	0x4aa
 2423 01ba 02       		.byte	0x2
 2424 01bb 23       		.byte	0x23
 2425 01bc 28       		.uleb128 0x28
 2426 01bd 06       		.uleb128 0x6
 2427 01be 2D050000 		.4byte	.LASF34
 2428 01c2 06       		.byte	0x6
 2429 01c3 B3       		.byte	0xb3
 2430 01c4 5F020000 		.4byte	0x25f
 2431 01c8 02       		.byte	0x2
 2432 01c9 23       		.byte	0x23
 2433 01ca 2C       		.uleb128 0x2c
 2434 01cb 06       		.uleb128 0x6
 2435 01cc 9F040000 		.4byte	.LASF35
 2436 01d0 06       		.byte	0x6
 2437 01d1 B9       		.byte	0xb9
 2438 01d2 3D020000 		.4byte	0x23d
 2439 01d6 02       		.byte	0x2
 2440 01d7 23       		.byte	0x23
 2441 01d8 30       		.uleb128 0x30
 2442 01d9 06       		.uleb128 0x6
 2443 01da 00000000 		.4byte	.LASF36
 2444 01de 06       		.byte	0x6
 2445 01df BD       		.byte	0xbd
 2446 01e0 D2000000 		.4byte	0xd2
 2447 01e4 02       		.byte	0x2
 2448 01e5 23       		.byte	0x23
 2449 01e6 38       		.uleb128 0x38
 2450 01e7 06       		.uleb128 0x6
 2451 01e8 20040000 		.4byte	.LASF37
 2452 01ec 06       		.byte	0x6
 2453 01ed C3       		.byte	0xc3
 2454 01ee DD000000 		.4byte	0xdd
 2455 01f2 02       		.byte	0x2
 2456 01f3 23       		.byte	0x23
 2457 01f4 3C       		.uleb128 0x3c
 2458 01f5 06       		.uleb128 0x6
 2459 01f6 A6030000 		.4byte	.LASF38
 2460 01fa 06       		.byte	0x6
 2461 01fb CA       		.byte	0xca
 2462 01fc F7040000 		.4byte	0x4f7
 2463 0200 02       		.byte	0x2
ARM GAS  C:\Users\z80\AppData\Local\Temp\cc1dRxCf.s 			page 47


 2464 0201 23       		.byte	0x23
 2465 0202 40       		.uleb128 0x40
 2466 0203 06       		.uleb128 0x6
 2467 0204 70040000 		.4byte	.LASF39
 2468 0208 06       		.byte	0x6
 2469 0209 CE       		.byte	0xce
 2470 020a C7000000 		.4byte	0xc7
 2471 020e 02       		.byte	0x2
 2472 020f 23       		.byte	0x23
 2473 0210 44       		.uleb128 0x44
 2474 0211 00       		.byte	0
 2475 0212 08       		.uleb128 0x8
 2476 0213 08       		.byte	0x8
 2477 0214 05       		.byte	0x5
 2478 0215 61       		.byte	0x61
 2479 0216 37020000 		.4byte	0x237
 2480 021a 06       		.uleb128 0x6
 2481 021b D8030000 		.4byte	.LASF23
 2482 021f 05       		.byte	0x5
 2483 0220 62       		.byte	0x62
 2484 0221 37020000 		.4byte	0x237
 2485 0225 02       		.byte	0x2
 2486 0226 23       		.byte	0x23
 2487 0227 00       		.uleb128 0
 2488 0228 06       		.uleb128 0x6
 2489 0229 63030000 		.4byte	.LASF24
 2490 022d 05       		.byte	0x5
 2491 022e 64       		.byte	0x64
 2492 022f 37020000 		.4byte	0x237
 2493 0233 02       		.byte	0x2
 2494 0234 23       		.byte	0x23
 2495 0235 04       		.uleb128 0x4
 2496 0236 00       		.byte	0
 2497 0237 09       		.uleb128 0x9
 2498 0238 04       		.byte	0x4
 2499 0239 FE000000 		.4byte	0xfe
 2500 023d 03       		.uleb128 0x3
 2501 023e 2C030000 		.4byte	.LASF40
 2502 0242 05       		.byte	0x5
 2503 0243 66       		.byte	0x66
 2504 0244 12020000 		.4byte	0x212
 2505 0248 08       		.uleb128 0x8
 2506 0249 04       		.byte	0x4
 2507 024a 05       		.byte	0x5
 2508 024b 6B       		.byte	0x6b
 2509 024c 5F020000 		.4byte	0x25f
 2510 0250 06       		.uleb128 0x6
 2511 0251 D8030000 		.4byte	.LASF23
 2512 0255 05       		.byte	0x5
 2513 0256 6D       		.byte	0x6d
 2514 0257 37020000 		.4byte	0x237
 2515 025b 02       		.byte	0x2
 2516 025c 23       		.byte	0x23
 2517 025d 00       		.uleb128 0
 2518 025e 00       		.byte	0
 2519 025f 03       		.uleb128 0x3
 2520 0260 21020000 		.4byte	.LASF41
ARM GAS  C:\Users\z80\AppData\Local\Temp\cc1dRxCf.s 			page 48


 2521 0264 05       		.byte	0x5
 2522 0265 70       		.byte	0x70
 2523 0266 48020000 		.4byte	0x248
 2524 026a 03       		.uleb128 0x3
 2525 026b 21010000 		.4byte	.LASF42
 2526 026f 07       		.byte	0x7
 2527 0270 D7       		.byte	0xd7
 2528 0271 75020000 		.4byte	0x275
 2529 0275 0A       		.uleb128 0xa
 2530 0276 04       		.byte	0x4
 2531 0277 03       		.uleb128 0x3
 2532 0278 60020000 		.4byte	.LASF43
 2533 027c 07       		.byte	0x7
 2534 027d DD       		.byte	0xdd
 2535 027e 94000000 		.4byte	0x94
 2536 0282 05       		.uleb128 0x5
 2537 0283 98040000 		.4byte	.LASF44
 2538 0287 24       		.byte	0x24
 2539 0288 07       		.byte	0x7
 2540 0289 FE       		.byte	0xfe
 2541 028a 0F030000 		.4byte	0x30f
 2542 028e 0B       		.uleb128 0xb
 2543 028f 723400   		.ascii	"r4\000"
 2544 0292 07       		.byte	0x7
 2545 0293 1101     		.2byte	0x111
 2546 0295 6A020000 		.4byte	0x26a
 2547 0299 02       		.byte	0x2
 2548 029a 23       		.byte	0x23
 2549 029b 00       		.uleb128 0
 2550 029c 0B       		.uleb128 0xb
 2551 029d 723500   		.ascii	"r5\000"
 2552 02a0 07       		.byte	0x7
 2553 02a1 1201     		.2byte	0x112
 2554 02a3 6A020000 		.4byte	0x26a
 2555 02a7 02       		.byte	0x2
 2556 02a8 23       		.byte	0x23
 2557 02a9 04       		.uleb128 0x4
 2558 02aa 0B       		.uleb128 0xb
 2559 02ab 723600   		.ascii	"r6\000"
 2560 02ae 07       		.byte	0x7
 2561 02af 1301     		.2byte	0x113
 2562 02b1 6A020000 		.4byte	0x26a
 2563 02b5 02       		.byte	0x2
 2564 02b6 23       		.byte	0x23
 2565 02b7 08       		.uleb128 0x8
 2566 02b8 0B       		.uleb128 0xb
 2567 02b9 723700   		.ascii	"r7\000"
 2568 02bc 07       		.byte	0x7
 2569 02bd 1401     		.2byte	0x114
 2570 02bf 6A020000 		.4byte	0x26a
 2571 02c3 02       		.byte	0x2
 2572 02c4 23       		.byte	0x23
 2573 02c5 0C       		.uleb128 0xc
 2574 02c6 0B       		.uleb128 0xb
 2575 02c7 723800   		.ascii	"r8\000"
 2576 02ca 07       		.byte	0x7
 2577 02cb 1501     		.2byte	0x115
ARM GAS  C:\Users\z80\AppData\Local\Temp\cc1dRxCf.s 			page 49


 2578 02cd 6A020000 		.4byte	0x26a
 2579 02d1 02       		.byte	0x2
 2580 02d2 23       		.byte	0x23
 2581 02d3 10       		.uleb128 0x10
 2582 02d4 0B       		.uleb128 0xb
 2583 02d5 723900   		.ascii	"r9\000"
 2584 02d8 07       		.byte	0x7
 2585 02d9 1601     		.2byte	0x116
 2586 02db 6A020000 		.4byte	0x26a
 2587 02df 02       		.byte	0x2
 2588 02e0 23       		.byte	0x23
 2589 02e1 14       		.uleb128 0x14
 2590 02e2 0B       		.uleb128 0xb
 2591 02e3 72313000 		.ascii	"r10\000"
 2592 02e7 07       		.byte	0x7
 2593 02e8 1701     		.2byte	0x117
 2594 02ea 6A020000 		.4byte	0x26a
 2595 02ee 02       		.byte	0x2
 2596 02ef 23       		.byte	0x23
 2597 02f0 18       		.uleb128 0x18
 2598 02f1 0B       		.uleb128 0xb
 2599 02f2 72313100 		.ascii	"r11\000"
 2600 02f6 07       		.byte	0x7
 2601 02f7 1801     		.2byte	0x118
 2602 02f9 6A020000 		.4byte	0x26a
 2603 02fd 02       		.byte	0x2
 2604 02fe 23       		.byte	0x23
 2605 02ff 1C       		.uleb128 0x1c
 2606 0300 0B       		.uleb128 0xb
 2607 0301 6C7200   		.ascii	"lr\000"
 2608 0304 07       		.byte	0x7
 2609 0305 1901     		.2byte	0x119
 2610 0307 6A020000 		.4byte	0x26a
 2611 030b 02       		.byte	0x2
 2612 030c 23       		.byte	0x23
 2613 030d 20       		.uleb128 0x20
 2614 030e 00       		.byte	0
 2615 030f 0C       		.uleb128 0xc
 2616 0310 E6010000 		.4byte	.LASF45
 2617 0314 04       		.byte	0x4
 2618 0315 07       		.byte	0x7
 2619 0316 2301     		.2byte	0x123
 2620 0318 2C030000 		.4byte	0x32c
 2621 031c 0B       		.uleb128 0xb
 2622 031d 72313300 		.ascii	"r13\000"
 2623 0321 07       		.byte	0x7
 2624 0322 2401     		.2byte	0x124
 2625 0324 2C030000 		.4byte	0x32c
 2626 0328 02       		.byte	0x2
 2627 0329 23       		.byte	0x23
 2628 032a 00       		.uleb128 0
 2629 032b 00       		.byte	0
 2630 032c 09       		.uleb128 0x9
 2631 032d 04       		.byte	0x4
 2632 032e 82020000 		.4byte	0x282
 2633 0332 03       		.uleb128 0x3
 2634 0333 7B040000 		.4byte	.LASF46
ARM GAS  C:\Users\z80\AppData\Local\Temp\cc1dRxCf.s 			page 50


 2635 0337 08       		.byte	0x8
 2636 0338 53       		.byte	0x53
 2637 0339 3D030000 		.4byte	0x33d
 2638 033d 09       		.uleb128 0x9
 2639 033e 04       		.byte	0x4
 2640 033f 43030000 		.4byte	0x343
 2641 0343 0D       		.uleb128 0xd
 2642 0344 01       		.byte	0x1
 2643 0345 4F030000 		.4byte	0x34f
 2644 0349 0E       		.uleb128 0xe
 2645 034a 75020000 		.4byte	0x275
 2646 034e 00       		.byte	0
 2647 034f 03       		.uleb128 0x3
 2648 0350 3C040000 		.4byte	.LASF47
 2649 0354 08       		.byte	0x8
 2650 0355 58       		.byte	0x58
 2651 0356 5A030000 		.4byte	0x35a
 2652 035a 05       		.uleb128 0x5
 2653 035b 3C040000 		.4byte	.LASF47
 2654 035f 14       		.byte	0x14
 2655 0360 08       		.byte	0x8
 2656 0361 5F       		.byte	0x5f
 2657 0362 AD030000 		.4byte	0x3ad
 2658 0366 06       		.uleb128 0x6
 2659 0367 84010000 		.4byte	.LASF48
 2660 036b 08       		.byte	0x8
 2661 036c 60       		.byte	0x60
 2662 036d AD030000 		.4byte	0x3ad
 2663 0371 02       		.byte	0x2
 2664 0372 23       		.byte	0x23
 2665 0373 00       		.uleb128 0
 2666 0374 06       		.uleb128 0x6
 2667 0375 2A010000 		.4byte	.LASF49
 2668 0379 08       		.byte	0x8
 2669 037a 62       		.byte	0x62
 2670 037b AD030000 		.4byte	0x3ad
 2671 037f 02       		.byte	0x2
 2672 0380 23       		.byte	0x23
 2673 0381 04       		.uleb128 0x4
 2674 0382 06       		.uleb128 0x6
 2675 0383 94020000 		.4byte	.LASF50
 2676 0387 08       		.byte	0x8
 2677 0388 64       		.byte	0x64
 2678 0389 E8000000 		.4byte	0xe8
 2679 038d 02       		.byte	0x2
 2680 038e 23       		.byte	0x23
 2681 038f 08       		.uleb128 0x8
 2682 0390 06       		.uleb128 0x6
 2683 0391 D6020000 		.4byte	.LASF51
 2684 0395 08       		.byte	0x8
 2685 0396 65       		.byte	0x65
 2686 0397 32030000 		.4byte	0x332
 2687 039b 02       		.byte	0x2
 2688 039c 23       		.byte	0x23
 2689 039d 0C       		.uleb128 0xc
 2690 039e 06       		.uleb128 0x6
 2691 039f AA040000 		.4byte	.LASF52
ARM GAS  C:\Users\z80\AppData\Local\Temp\cc1dRxCf.s 			page 51


 2692 03a3 08       		.byte	0x8
 2693 03a4 67       		.byte	0x67
 2694 03a5 75020000 		.4byte	0x275
 2695 03a9 02       		.byte	0x2
 2696 03aa 23       		.byte	0x23
 2697 03ab 10       		.uleb128 0x10
 2698 03ac 00       		.byte	0
 2699 03ad 09       		.uleb128 0x9
 2700 03ae 04       		.byte	0x4
 2701 03af 4F030000 		.4byte	0x34f
 2702 03b3 0F       		.uleb128 0xf
 2703 03b4 E8000000 		.4byte	0xe8
 2704 03b8 08       		.uleb128 0x8
 2705 03b9 20       		.byte	0x20
 2706 03ba 09       		.byte	0x9
 2707 03bb 5E       		.byte	0x5e
 2708 03bc 23040000 		.4byte	0x423
 2709 03c0 06       		.uleb128 0x6
 2710 03c1 34040000 		.4byte	.LASF53
 2711 03c5 09       		.byte	0x9
 2712 03c6 5F       		.byte	0x5f
 2713 03c7 3D020000 		.4byte	0x23d
 2714 03cb 02       		.byte	0x2
 2715 03cc 23       		.byte	0x23
 2716 03cd 00       		.uleb128 0
 2717 03ce 06       		.uleb128 0x6
 2718 03cf CA030000 		.4byte	.LASF54
 2719 03d3 09       		.byte	0x9
 2720 03d4 60       		.byte	0x60
 2721 03d5 C7000000 		.4byte	0xc7
 2722 03d9 02       		.byte	0x2
 2723 03da 23       		.byte	0x23
 2724 03db 08       		.uleb128 0x8
 2725 03dc 06       		.uleb128 0x6
 2726 03dd 1E030000 		.4byte	.LASF55
 2727 03e1 09       		.byte	0x9
 2728 03e2 62       		.byte	0x62
 2729 03e3 0F030000 		.4byte	0x30f
 2730 03e7 02       		.byte	0x2
 2731 03e8 23       		.byte	0x23
 2732 03e9 0C       		.uleb128 0xc
 2733 03ea 06       		.uleb128 0x6
 2734 03eb 19010000 		.4byte	.LASF56
 2735 03ef 09       		.byte	0x9
 2736 03f0 65       		.byte	0x65
 2737 03f1 37020000 		.4byte	0x237
 2738 03f5 02       		.byte	0x2
 2739 03f6 23       		.byte	0x23
 2740 03f7 10       		.uleb128 0x10
 2741 03f8 06       		.uleb128 0x6
 2742 03f9 51030000 		.4byte	.LASF57
 2743 03fd 09       		.byte	0x9
 2744 03fe 66       		.byte	0x66
 2745 03ff 37020000 		.4byte	0x237
 2746 0403 02       		.byte	0x2
 2747 0404 23       		.byte	0x23
 2748 0405 14       		.uleb128 0x14
ARM GAS  C:\Users\z80\AppData\Local\Temp\cc1dRxCf.s 			page 52


 2749 0406 06       		.uleb128 0x6
 2750 0407 15050000 		.4byte	.LASF58
 2751 040b 09       		.byte	0x9
 2752 040c 6A       		.byte	0x6a
 2753 040d F3000000 		.4byte	0xf3
 2754 0411 02       		.byte	0x2
 2755 0412 23       		.byte	0x23
 2756 0413 18       		.uleb128 0x18
 2757 0414 06       		.uleb128 0x6
 2758 0415 47030000 		.4byte	.LASF59
 2759 0419 09       		.byte	0x9
 2760 041a 6C       		.byte	0x6c
 2761 041b 37020000 		.4byte	0x237
 2762 041f 02       		.byte	0x2
 2763 0420 23       		.byte	0x23
 2764 0421 1C       		.uleb128 0x1c
 2765 0422 00       		.byte	0
 2766 0423 03       		.uleb128 0x3
 2767 0424 C1040000 		.4byte	.LASF60
 2768 0428 09       		.byte	0x9
 2769 0429 6E       		.byte	0x6e
 2770 042a B8030000 		.4byte	0x3b8
 2771 042e 05       		.uleb128 0x5
 2772 042f B1040000 		.4byte	.LASF61
 2773 0433 0C       		.byte	0xc
 2774 0434 0A       		.byte	0xa
 2775 0435 2C       		.byte	0x2c
 2776 0436 57040000 		.4byte	0x457
 2777 043a 06       		.uleb128 0x6
 2778 043b 04010000 		.4byte	.LASF62
 2779 043f 0A       		.byte	0xa
 2780 0440 2D       		.byte	0x2d
 2781 0441 3D020000 		.4byte	0x23d
 2782 0445 02       		.byte	0x2
 2783 0446 23       		.byte	0x23
 2784 0447 00       		.uleb128 0
 2785 0448 06       		.uleb128 0x6
 2786 0449 E0010000 		.4byte	.LASF63
 2787 044d 0A       		.byte	0xa
 2788 044e 2F       		.byte	0x2f
 2789 044f F3000000 		.4byte	0xf3
 2790 0453 02       		.byte	0x2
 2791 0454 23       		.byte	0x23
 2792 0455 08       		.uleb128 0x8
 2793 0456 00       		.byte	0
 2794 0457 03       		.uleb128 0x3
 2795 0458 B1040000 		.4byte	.LASF61
 2796 045c 0A       		.byte	0xa
 2797 045d 30       		.byte	0x30
 2798 045e 2E040000 		.4byte	0x42e
 2799 0462 05       		.uleb128 0x5
 2800 0463 44020000 		.4byte	.LASF64
 2801 0467 10       		.byte	0x10
 2802 0468 0B       		.byte	0xb
 2803 0469 2C       		.byte	0x2c
 2804 046a 99040000 		.4byte	0x499
 2805 046e 06       		.uleb128 0x6
ARM GAS  C:\Users\z80\AppData\Local\Temp\cc1dRxCf.s 			page 53


 2806 046f 81000000 		.4byte	.LASF65
 2807 0473 0B       		.byte	0xb
 2808 0474 2D       		.byte	0x2d
 2809 0475 3D020000 		.4byte	0x23d
 2810 0479 02       		.byte	0x2
 2811 047a 23       		.byte	0x23
 2812 047b 00       		.uleb128 0
 2813 047c 06       		.uleb128 0x6
 2814 047d 1F050000 		.4byte	.LASF66
 2815 0481 0B       		.byte	0xb
 2816 0482 2F       		.byte	0x2f
 2817 0483 37020000 		.4byte	0x237
 2818 0487 02       		.byte	0x2
 2819 0488 23       		.byte	0x23
 2820 0489 08       		.uleb128 0x8
 2821 048a 06       		.uleb128 0x6
 2822 048b 5F040000 		.4byte	.LASF67
 2823 048f 0B       		.byte	0xb
 2824 0490 31       		.byte	0x31
 2825 0491 99040000 		.4byte	0x499
 2826 0495 02       		.byte	0x2
 2827 0496 23       		.byte	0x23
 2828 0497 0C       		.uleb128 0xc
 2829 0498 00       		.byte	0
 2830 0499 09       		.uleb128 0x9
 2831 049a 04       		.byte	0x4
 2832 049b 62040000 		.4byte	0x462
 2833 049f 03       		.uleb128 0x3
 2834 04a0 44020000 		.4byte	.LASF64
 2835 04a4 0B       		.byte	0xb
 2836 04a5 33       		.byte	0x33
 2837 04a6 62040000 		.4byte	0x462
 2838 04aa 10       		.uleb128 0x10
 2839 04ab 04       		.byte	0x4
 2840 04ac 06       		.byte	0x6
 2841 04ad 90       		.byte	0x90
 2842 04ae DF040000 		.4byte	0x4df
 2843 04b2 11       		.uleb128 0x11
 2844 04b3 12000000 		.4byte	.LASF68
 2845 04b7 06       		.byte	0x6
 2846 04b8 97       		.byte	0x97
 2847 04b9 D2000000 		.4byte	0xd2
 2848 04bd 11       		.uleb128 0x11
 2849 04be 39000000 		.4byte	.LASF69
 2850 04c2 06       		.byte	0x6
 2851 04c3 9E       		.byte	0x9e
 2852 04c4 D2000000 		.4byte	0xd2
 2853 04c8 11       		.uleb128 0x11
 2854 04c9 E2040000 		.4byte	.LASF70
 2855 04cd 06       		.byte	0x6
 2856 04ce A5       		.byte	0xa5
 2857 04cf 75020000 		.4byte	0x275
 2858 04d3 11       		.uleb128 0x11
 2859 04d4 D1030000 		.4byte	.LASF71
 2860 04d8 06       		.byte	0x6
 2861 04d9 AC       		.byte	0xac
 2862 04da DD000000 		.4byte	0xdd
ARM GAS  C:\Users\z80\AppData\Local\Temp\cc1dRxCf.s 			page 54


 2863 04de 00       		.byte	0
 2864 04df 09       		.uleb128 0x9
 2865 04e0 04       		.byte	0x4
 2866 04e1 E5040000 		.4byte	0x4e5
 2867 04e5 12       		.uleb128 0x12
 2868 04e6 EA040000 		.4byte	0x4ea
 2869 04ea 04       		.uleb128 0x4
 2870 04eb 01       		.byte	0x1
 2871 04ec 08       		.byte	0x8
 2872 04ed 55040000 		.4byte	.LASF72
 2873 04f1 09       		.uleb128 0x9
 2874 04f2 04       		.byte	0x4
 2875 04f3 77020000 		.4byte	0x277
 2876 04f7 09       		.uleb128 0x9
 2877 04f8 04       		.byte	0x4
 2878 04f9 9F040000 		.4byte	0x49f
 2879 04fd 03       		.uleb128 0x3
 2880 04fe 53020000 		.4byte	.LASF73
 2881 0502 0C       		.byte	0xc
 2882 0503 37       		.byte	0x37
 2883 0504 08050000 		.4byte	0x508
 2884 0508 05       		.uleb128 0x5
 2885 0509 53020000 		.4byte	.LASF73
 2886 050d 20       		.byte	0x20
 2887 050e 0C       		.byte	0xc
 2888 050f 45       		.byte	0x45
 2889 0510 77050000 		.4byte	0x577
 2890 0514 06       		.uleb128 0x6
 2891 0515 56000000 		.4byte	.LASF74
 2892 0519 0C       		.byte	0xc
 2893 051a 46       		.byte	0x46
 2894 051b 3D020000 		.4byte	0x23d
 2895 051f 02       		.byte	0x2
 2896 0520 23       		.byte	0x23
 2897 0521 00       		.uleb128 0
 2898 0522 06       		.uleb128 0x6
 2899 0523 CC020000 		.4byte	.LASF75
 2900 0527 0C       		.byte	0xc
 2901 0528 47       		.byte	0x47
 2902 0529 30000000 		.4byte	0x30
 2903 052d 02       		.byte	0x2
 2904 052e 23       		.byte	0x23
 2905 052f 08       		.uleb128 0x8
 2906 0530 06       		.uleb128 0x6
 2907 0531 EB000000 		.4byte	.LASF76
 2908 0535 0C       		.byte	0xc
 2909 0536 48       		.byte	0x48
 2910 0537 9A050000 		.4byte	0x59a
 2911 053b 02       		.byte	0x2
 2912 053c 23       		.byte	0x23
 2913 053d 0C       		.uleb128 0xc
 2914 053e 06       		.uleb128 0x6
 2915 053f BB040000 		.4byte	.LASF77
 2916 0543 0C       		.byte	0xc
 2917 0544 49       		.byte	0x49
 2918 0545 9A050000 		.4byte	0x59a
 2919 0549 02       		.byte	0x2
ARM GAS  C:\Users\z80\AppData\Local\Temp\cc1dRxCf.s 			page 55


 2920 054a 23       		.byte	0x23
 2921 054b 10       		.uleb128 0x10
 2922 054c 06       		.uleb128 0x6
 2923 054d F4000000 		.4byte	.LASF78
 2924 0551 0C       		.byte	0xc
 2925 0552 4B       		.byte	0x4b
 2926 0553 9A050000 		.4byte	0x59a
 2927 0557 02       		.byte	0x2
 2928 0558 23       		.byte	0x23
 2929 0559 14       		.uleb128 0x14
 2930 055a 06       		.uleb128 0x6
 2931 055b 7A030000 		.4byte	.LASF79
 2932 055f 0C       		.byte	0xc
 2933 0560 4C       		.byte	0x4c
 2934 0561 9A050000 		.4byte	0x59a
 2935 0565 02       		.byte	0x2
 2936 0566 23       		.byte	0x23
 2937 0567 18       		.uleb128 0x18
 2938 0568 06       		.uleb128 0x6
 2939 0569 CB040000 		.4byte	.LASF80
 2940 056d 0C       		.byte	0xc
 2941 056e 4D       		.byte	0x4d
 2942 056f 77050000 		.4byte	0x577
 2943 0573 02       		.byte	0x2
 2944 0574 23       		.byte	0x23
 2945 0575 1C       		.uleb128 0x1c
 2946 0576 00       		.byte	0
 2947 0577 03       		.uleb128 0x3
 2948 0578 59030000 		.4byte	.LASF81
 2949 057c 0C       		.byte	0xc
 2950 057d 3A       		.byte	0x3a
 2951 057e 82050000 		.4byte	0x582
 2952 0582 09       		.uleb128 0x9
 2953 0583 04       		.byte	0x4
 2954 0584 88050000 		.4byte	0x588
 2955 0588 0D       		.uleb128 0xd
 2956 0589 01       		.byte	0x1
 2957 058a 94050000 		.4byte	0x594
 2958 058e 0E       		.uleb128 0xe
 2959 058f 94050000 		.4byte	0x594
 2960 0593 00       		.byte	0
 2961 0594 09       		.uleb128 0x9
 2962 0595 04       		.byte	0x4
 2963 0596 FD040000 		.4byte	0x4fd
 2964 059a 09       		.uleb128 0x9
 2965 059b 04       		.byte	0x4
 2966 059c 49000000 		.4byte	0x49
 2967 05a0 03       		.uleb128 0x3
 2968 05a1 39020000 		.4byte	.LASF82
 2969 05a5 0C       		.byte	0xc
 2970 05a6 76       		.byte	0x76
 2971 05a7 FD040000 		.4byte	0x4fd
 2972 05ab 05       		.uleb128 0x5
 2973 05ac 0D040000 		.4byte	.LASF83
 2974 05b0 10       		.byte	0x10
 2975 05b1 0D       		.byte	0xd
 2976 05b2 46       		.byte	0x46
ARM GAS  C:\Users\z80\AppData\Local\Temp\cc1dRxCf.s 			page 56


 2977 05b3 F0050000 		.4byte	0x5f0
 2978 05b7 06       		.uleb128 0x6
 2979 05b8 DB010000 		.4byte	.LASF84
 2980 05bc 0D       		.byte	0xd
 2981 05bd 47       		.byte	0x47
 2982 05be DF040000 		.4byte	0x4df
 2983 05c2 02       		.byte	0x2
 2984 05c3 23       		.byte	0x23
 2985 05c4 00       		.uleb128 0
 2986 05c5 06       		.uleb128 0x6
 2987 05c6 41030000 		.4byte	.LASF85
 2988 05ca 0D       		.byte	0xd
 2989 05cb 48       		.byte	0x48
 2990 05cc F2050000 		.4byte	0x5f2
 2991 05d0 02       		.byte	0x2
 2992 05d1 23       		.byte	0x23
 2993 05d2 04       		.uleb128 0x4
 2994 05d3 06       		.uleb128 0x6
 2995 05d4 AC010000 		.4byte	.LASF86
 2996 05d8 0D       		.byte	0xd
 2997 05d9 49       		.byte	0x49
 2998 05da F2050000 		.4byte	0x5f2
 2999 05de 02       		.byte	0x2
 3000 05df 23       		.byte	0x23
 3001 05e0 08       		.uleb128 0x8
 3002 05e1 06       		.uleb128 0x6
 3003 05e2 6A030000 		.4byte	.LASF87
 3004 05e6 0D       		.byte	0xd
 3005 05e7 4A       		.byte	0x4a
 3006 05e8 F2050000 		.4byte	0x5f2
 3007 05ec 02       		.byte	0x2
 3008 05ed 23       		.byte	0x23
 3009 05ee 0C       		.uleb128 0xc
 3010 05ef 00       		.byte	0
 3011 05f0 13       		.uleb128 0x13
 3012 05f1 01       		.byte	0x1
 3013 05f2 09       		.uleb128 0x9
 3014 05f3 04       		.byte	0x4
 3015 05f4 F0050000 		.4byte	0x5f0
 3016 05f8 14       		.uleb128 0x14
 3017 05f9 0E030000 		.4byte	.LASF88
 3018 05fd 01       		.byte	0x1
 3019 05fe 4B       		.byte	0x4b
 3020 05ff 01       		.byte	0x1
 3021 0600 D2000000 		.4byte	0xd2
 3022 0604 00000000 		.4byte	.LFB7
 3023 0608 2A000000 		.4byte	.LFE7
 3024 060c 00000000 		.4byte	.LLST0
 3025 0610 3C060000 		.4byte	0x63c
 3026 0614 15       		.uleb128 0x15
 3027 0615 7000     		.ascii	"p\000"
 3028 0617 01       		.byte	0x1
 3029 0618 4B       		.byte	0x4b
 3030 0619 75020000 		.4byte	0x275
 3031 061d 02       		.byte	0x2
 3032 061e 91       		.byte	0x91
 3033 061f 6C       		.sleb128 -20
ARM GAS  C:\Users\z80\AppData\Local\Temp\cc1dRxCf.s 			page 57


 3034 0620 16       		.uleb128 0x16
 3035 0621 747000   		.ascii	"tp\000"
 3036 0624 01       		.byte	0x1
 3037 0625 4C       		.byte	0x4c
 3038 0626 37020000 		.4byte	0x237
 3039 062a 02       		.byte	0x2
 3040 062b 91       		.byte	0x91
 3041 062c 74       		.sleb128 -12
 3042 062d 16       		.uleb128 0x16
 3043 062e 6D736700 		.ascii	"msg\000"
 3044 0632 01       		.byte	0x1
 3045 0633 4D       		.byte	0x4d
 3046 0634 D2000000 		.4byte	0xd2
 3047 0638 02       		.byte	0x2
 3048 0639 91       		.byte	0x91
 3049 063a 70       		.sleb128 -16
 3050 063b 00       		.byte	0
 3051 063c 14       		.uleb128 0x14
 3052 063d 91000000 		.4byte	.LASF89
 3053 0641 01       		.byte	0x1
 3054 0642 5B       		.byte	0x5b
 3055 0643 01       		.byte	0x1
 3056 0644 3B000000 		.4byte	0x3b
 3057 0648 00000000 		.4byte	.LFB8
 3058 064c 4A000000 		.4byte	.LFE8
 3059 0650 2C000000 		.4byte	.LLST1
 3060 0654 72060000 		.4byte	0x672
 3061 0658 15       		.uleb128 0x15
 3062 0659 747000   		.ascii	"tp\000"
 3063 065c 01       		.byte	0x1
 3064 065d 5B       		.byte	0x5b
 3065 065e 37020000 		.4byte	0x237
 3066 0662 02       		.byte	0x2
 3067 0663 91       		.byte	0x91
 3068 0664 6C       		.sleb128 -20
 3069 0665 16       		.uleb128 0x16
 3070 0666 6E00     		.ascii	"n\000"
 3071 0668 01       		.byte	0x1
 3072 0669 5D       		.byte	0x5d
 3073 066a 7B000000 		.4byte	0x7b
 3074 066e 02       		.byte	0x2
 3075 066f 91       		.byte	0x91
 3076 0670 74       		.sleb128 -12
 3077 0671 00       		.byte	0
 3078 0672 17       		.uleb128 0x17
 3079 0673 DE000000 		.4byte	.LASF90
 3080 0677 01       		.byte	0x1
 3081 0678 74       		.byte	0x74
 3082 0679 01       		.byte	0x1
 3083 067a 00000000 		.4byte	.LFB9
 3084 067e 94000000 		.4byte	.LFE9
 3085 0682 58000000 		.4byte	.LLST2
 3086 0686 97060000 		.4byte	0x697
 3087 068a 16       		.uleb128 0x16
 3088 068b 6E00     		.ascii	"n\000"
 3089 068d 01       		.byte	0x1
 3090 068e 75       		.byte	0x75
ARM GAS  C:\Users\z80\AppData\Local\Temp\cc1dRxCf.s 			page 58


 3091 068f 7B000000 		.4byte	0x7b
 3092 0693 02       		.byte	0x2
 3093 0694 91       		.byte	0x91
 3094 0695 74       		.sleb128 -12
 3095 0696 00       		.byte	0
 3096 0697 17       		.uleb128 0x17
 3097 0698 CE010000 		.4byte	.LASF91
 3098 069c 01       		.byte	0x1
 3099 069d 91       		.byte	0x91
 3100 069e 01       		.byte	0x1
 3101 069f 00000000 		.4byte	.LFB10
 3102 06a3 94000000 		.4byte	.LFE10
 3103 06a7 84000000 		.4byte	.LLST3
 3104 06ab BC060000 		.4byte	0x6bc
 3105 06af 16       		.uleb128 0x16
 3106 06b0 6E00     		.ascii	"n\000"
 3107 06b2 01       		.byte	0x1
 3108 06b3 92       		.byte	0x92
 3109 06b4 7B000000 		.4byte	0x7b
 3110 06b8 02       		.byte	0x2
 3111 06b9 91       		.byte	0x91
 3112 06ba 74       		.sleb128 -12
 3113 06bb 00       		.byte	0
 3114 06bc 14       		.uleb128 0x14
 3115 06bd 16030000 		.4byte	.LASF92
 3116 06c1 01       		.byte	0x1
 3117 06c2 A5       		.byte	0xa5
 3118 06c3 01       		.byte	0x1
 3119 06c4 D2000000 		.4byte	0xd2
 3120 06c8 00000000 		.4byte	.LFB11
 3121 06cc 0C000000 		.4byte	.LFE11
 3122 06d0 B0000000 		.4byte	.LLST4
 3123 06d4 E5060000 		.4byte	0x6e5
 3124 06d8 15       		.uleb128 0x15
 3125 06d9 7000     		.ascii	"p\000"
 3126 06db 01       		.byte	0x1
 3127 06dc A5       		.byte	0xa5
 3128 06dd 75020000 		.4byte	0x275
 3129 06e1 02       		.byte	0x2
 3130 06e2 91       		.byte	0x91
 3131 06e3 7C       		.sleb128 -4
 3132 06e4 00       		.byte	0
 3133 06e5 17       		.uleb128 0x17
 3134 06e6 DE020000 		.4byte	.LASF93
 3135 06ea 01       		.byte	0x1
 3136 06eb B4       		.byte	0xb4
 3137 06ec 01       		.byte	0x1
 3138 06ed 00000000 		.4byte	.LFB12
 3139 06f1 94010000 		.4byte	.LFE12
 3140 06f5 D0000000 		.4byte	.LLST5
 3141 06f9 0A070000 		.4byte	0x70a
 3142 06fd 16       		.uleb128 0x16
 3143 06fe 6E00     		.ascii	"n\000"
 3144 0700 01       		.byte	0x1
 3145 0701 B5       		.byte	0xb5
 3146 0702 7B000000 		.4byte	0x7b
 3147 0706 02       		.byte	0x2
ARM GAS  C:\Users\z80\AppData\Local\Temp\cc1dRxCf.s 			page 59


 3148 0707 91       		.byte	0x91
 3149 0708 74       		.sleb128 -12
 3150 0709 00       		.byte	0
 3151 070a 18       		.uleb128 0x18
 3152 070b 01       		.byte	0x1
 3153 070c 24030000 		.4byte	.LASF134
 3154 0710 01       		.byte	0x1
 3155 0711 D6       		.byte	0xd6
 3156 0712 01       		.byte	0x1
 3157 0713 D2000000 		.4byte	0xd2
 3158 0717 00000000 		.4byte	.LFB13
 3159 071b 48000000 		.4byte	.LFE13
 3160 071f FC000000 		.4byte	.LLST6
 3161 0723 82070000 		.4byte	0x782
 3162 0727 15       		.uleb128 0x15
 3163 0728 7000     		.ascii	"p\000"
 3164 072a 01       		.byte	0x1
 3165 072b D6       		.byte	0xd6
 3166 072c 75020000 		.4byte	0x275
 3167 0730 02       		.byte	0x2
 3168 0731 91       		.byte	0x91
 3169 0732 6C       		.sleb128 -20
 3170 0733 16       		.uleb128 0x16
 3171 0734 6D736700 		.ascii	"msg\000"
 3172 0738 01       		.byte	0x1
 3173 0739 D7       		.byte	0xd7
 3174 073a D2000000 		.4byte	0xd2
 3175 073e 02       		.byte	0x2
 3176 073f 91       		.byte	0x91
 3177 0740 70       		.sleb128 -16
 3178 0741 19       		.uleb128 0x19
 3179 0742 5A040000 		.4byte	.LASF94
 3180 0746 01       		.byte	0x1
 3181 0747 D8       		.byte	0xd8
 3182 0748 37020000 		.4byte	0x237
 3183 074c 02       		.byte	0x2
 3184 074d 91       		.byte	0x91
 3185 074e 74       		.sleb128 -12
 3186 074f 1A       		.uleb128 0x1a
 3187 0750 12000000 		.4byte	.LBB2
 3188 0754 1A000000 		.4byte	.LBE2
 3189 0758 6A070000 		.4byte	0x76a
 3190 075c 16       		.uleb128 0x16
 3191 075d 746D7000 		.ascii	"tmp\000"
 3192 0761 01       		.byte	0x1
 3193 0762 DB       		.byte	0xdb
 3194 0763 7B000000 		.4byte	0x7b
 3195 0767 01       		.byte	0x1
 3196 0768 53       		.byte	0x53
 3197 0769 00       		.byte	0
 3198 076a 1B       		.uleb128 0x1b
 3199 076b 36000000 		.4byte	.LBB3
 3200 076f 3E000000 		.4byte	.LBE3
 3201 0773 16       		.uleb128 0x16
 3202 0774 746D7000 		.ascii	"tmp\000"
 3203 0778 01       		.byte	0x1
 3204 0779 E0       		.byte	0xe0
ARM GAS  C:\Users\z80\AppData\Local\Temp\cc1dRxCf.s 			page 60


 3205 077a 7B000000 		.4byte	0x7b
 3206 077e 01       		.byte	0x1
 3207 077f 53       		.byte	0x53
 3208 0780 00       		.byte	0
 3209 0781 00       		.byte	0
 3210 0782 17       		.uleb128 0x17
 3211 0783 FB040000 		.4byte	.LASF95
 3212 0787 01       		.byte	0x1
 3213 0788 E4       		.byte	0xe4
 3214 0789 01       		.byte	0x1
 3215 078a 00000000 		.4byte	.LFB14
 3216 078e 06010000 		.4byte	.LFE14
 3217 0792 28010000 		.4byte	.LLST7
 3218 0796 1C080000 		.4byte	0x81c
 3219 079a 16       		.uleb128 0x16
 3220 079b 747000   		.ascii	"tp\000"
 3221 079e 01       		.byte	0x1
 3222 079f E5       		.byte	0xe5
 3223 07a0 37020000 		.4byte	0x237
 3224 07a4 02       		.byte	0x2
 3225 07a5 91       		.byte	0x91
 3226 07a6 70       		.sleb128 -16
 3227 07a7 16       		.uleb128 0x16
 3228 07a8 6E00     		.ascii	"n\000"
 3229 07aa 01       		.byte	0x1
 3230 07ab E6       		.byte	0xe6
 3231 07ac 7B000000 		.4byte	0x7b
 3232 07b0 02       		.byte	0x2
 3233 07b1 91       		.byte	0x91
 3234 07b2 74       		.sleb128 -12
 3235 07b3 1A       		.uleb128 0x1a
 3236 07b4 62000000 		.4byte	.LBB4
 3237 07b8 6A000000 		.4byte	.LBE4
 3238 07bc CE070000 		.4byte	0x7ce
 3239 07c0 16       		.uleb128 0x16
 3240 07c1 746D7000 		.ascii	"tmp\000"
 3241 07c5 01       		.byte	0x1
 3242 07c6 ED       		.byte	0xed
 3243 07c7 7B000000 		.4byte	0x7b
 3244 07cb 01       		.byte	0x1
 3245 07cc 53       		.byte	0x53
 3246 07cd 00       		.byte	0
 3247 07ce 1A       		.uleb128 0x1a
 3248 07cf 9A000000 		.4byte	.LBB5
 3249 07d3 A2000000 		.4byte	.LBE5
 3250 07d7 E9070000 		.4byte	0x7e9
 3251 07db 16       		.uleb128 0x16
 3252 07dc 746D7000 		.ascii	"tmp\000"
 3253 07e0 01       		.byte	0x1
 3254 07e1 F2       		.byte	0xf2
 3255 07e2 7B000000 		.4byte	0x7b
 3256 07e6 01       		.byte	0x1
 3257 07e7 53       		.byte	0x53
 3258 07e8 00       		.byte	0
 3259 07e9 1A       		.uleb128 0x1a
 3260 07ea B8000000 		.4byte	.LBB6
 3261 07ee C0000000 		.4byte	.LBE6
ARM GAS  C:\Users\z80\AppData\Local\Temp\cc1dRxCf.s 			page 61


 3262 07f2 04080000 		.4byte	0x804
 3263 07f6 16       		.uleb128 0x16
 3264 07f7 746D7000 		.ascii	"tmp\000"
 3265 07fb 01       		.byte	0x1
 3266 07fc F8       		.byte	0xf8
 3267 07fd 7B000000 		.4byte	0x7b
 3268 0801 01       		.byte	0x1
 3269 0802 53       		.byte	0x53
 3270 0803 00       		.byte	0
 3271 0804 1B       		.uleb128 0x1b
 3272 0805 D2000000 		.4byte	.LBB7
 3273 0809 DA000000 		.4byte	.LBE7
 3274 080d 16       		.uleb128 0x16
 3275 080e 746D7000 		.ascii	"tmp\000"
 3276 0812 01       		.byte	0x1
 3277 0813 FA       		.byte	0xfa
 3278 0814 7B000000 		.4byte	0x7b
 3279 0818 01       		.byte	0x1
 3280 0819 53       		.byte	0x53
 3281 081a 00       		.byte	0
 3282 081b 00       		.byte	0
 3283 081c 1C       		.uleb128 0x1c
 3284 081d 84040000 		.4byte	.LASF96
 3285 0821 01       		.byte	0x1
 3286 0822 1401     		.2byte	0x114
 3287 0824 01       		.byte	0x1
 3288 0825 00000000 		.4byte	.LFB15
 3289 0829 8E000000 		.4byte	.LFE15
 3290 082d 54010000 		.4byte	.LLST8
 3291 0831 61080000 		.4byte	0x861
 3292 0835 1D       		.uleb128 0x1d
 3293 0836 6E00     		.ascii	"n\000"
 3294 0838 01       		.byte	0x1
 3295 0839 1601     		.2byte	0x116
 3296 083b 7B000000 		.4byte	0x7b
 3297 083f 02       		.byte	0x2
 3298 0840 91       		.byte	0x91
 3299 0841 74       		.sleb128 -12
 3300 0842 1D       		.uleb128 0x1d
 3301 0843 77617000 		.ascii	"wap\000"
 3302 0847 01       		.byte	0x1
 3303 0848 1701     		.2byte	0x117
 3304 084a 75020000 		.4byte	0x275
 3305 084e 02       		.byte	0x2
 3306 084f 91       		.byte	0x91
 3307 0850 70       		.sleb128 -16
 3308 0851 1E       		.uleb128 0x1e
 3309 0852 0D000000 		.4byte	.LASF97
 3310 0856 01       		.byte	0x1
 3311 0857 1801     		.2byte	0x118
 3312 0859 C7000000 		.4byte	0xc7
 3313 085d 02       		.byte	0x2
 3314 085e 91       		.byte	0x91
 3315 085f 6C       		.sleb128 -20
 3316 0860 00       		.byte	0
 3317 0861 1C       		.uleb128 0x1c
 3318 0862 08050000 		.4byte	.LASF98
ARM GAS  C:\Users\z80\AppData\Local\Temp\cc1dRxCf.s 			page 62


 3319 0866 01       		.byte	0x1
 3320 0867 3B01     		.2byte	0x13b
 3321 0869 01       		.byte	0x1
 3322 086a 00000000 		.4byte	.LFB16
 3323 086e 86000000 		.4byte	.LFE16
 3324 0872 80010000 		.4byte	.LLST9
 3325 0876 A6080000 		.4byte	0x8a6
 3326 087a 1D       		.uleb128 0x1d
 3327 087b 6E00     		.ascii	"n\000"
 3328 087d 01       		.byte	0x1
 3329 087e 3D01     		.2byte	0x13d
 3330 0880 7B000000 		.4byte	0x7b
 3331 0884 02       		.byte	0x2
 3332 0885 91       		.byte	0x91
 3333 0886 74       		.sleb128 -12
 3334 0887 1D       		.uleb128 0x1d
 3335 0888 77617000 		.ascii	"wap\000"
 3336 088c 01       		.byte	0x1
 3337 088d 3E01     		.2byte	0x13e
 3338 088f 75020000 		.4byte	0x275
 3339 0893 02       		.byte	0x2
 3340 0894 91       		.byte	0x91
 3341 0895 70       		.sleb128 -16
 3342 0896 1E       		.uleb128 0x1e
 3343 0897 0D000000 		.4byte	.LASF97
 3344 089b 01       		.byte	0x1
 3345 089c 3F01     		.2byte	0x13f
 3346 089e C7000000 		.4byte	0xc7
 3347 08a2 02       		.byte	0x2
 3348 08a3 91       		.byte	0x91
 3349 08a4 6C       		.sleb128 -20
 3350 08a5 00       		.byte	0
 3351 08a6 1F       		.uleb128 0x1f
 3352 08a7 89000000 		.4byte	.LASF99
 3353 08ab 01       		.byte	0x1
 3354 08ac 6001     		.2byte	0x160
 3355 08ae 01       		.byte	0x1
 3356 08af D2000000 		.4byte	0xd2
 3357 08b3 00000000 		.4byte	.LFB17
 3358 08b7 34000000 		.4byte	.LFE17
 3359 08bb AC010000 		.4byte	.LLST10
 3360 08bf D1080000 		.4byte	0x8d1
 3361 08c3 20       		.uleb128 0x20
 3362 08c4 7000     		.ascii	"p\000"
 3363 08c6 01       		.byte	0x1
 3364 08c7 6001     		.2byte	0x160
 3365 08c9 75020000 		.4byte	0x275
 3366 08cd 02       		.byte	0x2
 3367 08ce 91       		.byte	0x91
 3368 08cf 74       		.sleb128 -12
 3369 08d0 00       		.byte	0
 3370 08d1 21       		.uleb128 0x21
 3371 08d2 F0040000 		.4byte	.LASF106
 3372 08d6 01       		.byte	0x1
 3373 08d7 6801     		.2byte	0x168
 3374 08d9 01       		.byte	0x1
 3375 08da 00000000 		.4byte	.LFB18
ARM GAS  C:\Users\z80\AppData\Local\Temp\cc1dRxCf.s 			page 63


 3376 08de 14000000 		.4byte	.LFE18
 3377 08e2 D8010000 		.4byte	.LLST11
 3378 08e6 1C       		.uleb128 0x1c
 3379 08e7 42000000 		.4byte	.LASF100
 3380 08eb 01       		.byte	0x1
 3381 08ec 6D01     		.2byte	0x16d
 3382 08ee 01       		.byte	0x1
 3383 08ef 00000000 		.4byte	.LFB19
 3384 08f3 D6010000 		.4byte	.LFE19
 3385 08f7 F8010000 		.4byte	.LLST12
 3386 08fb 0D090000 		.4byte	0x90d
 3387 08ff 1D       		.uleb128 0x1d
 3388 0900 6E00     		.ascii	"n\000"
 3389 0902 01       		.byte	0x1
 3390 0903 6E01     		.2byte	0x16e
 3391 0905 7B000000 		.4byte	0x7b
 3392 0909 02       		.byte	0x2
 3393 090a 91       		.byte	0x91
 3394 090b 74       		.sleb128 -12
 3395 090c 00       		.byte	0
 3396 090d 1F       		.uleb128 0x1f
 3397 090e 39030000 		.4byte	.LASF101
 3398 0912 01       		.byte	0x1
 3399 0913 9C01     		.2byte	0x19c
 3400 0915 01       		.byte	0x1
 3401 0916 D2000000 		.4byte	0xd2
 3402 091a 00000000 		.4byte	.LFB20
 3403 091e 42000000 		.4byte	.LFE20
 3404 0922 24020000 		.4byte	.LLST13
 3405 0926 38090000 		.4byte	0x938
 3406 092a 20       		.uleb128 0x20
 3407 092b 7000     		.ascii	"p\000"
 3408 092d 01       		.byte	0x1
 3409 092e 9C01     		.2byte	0x19c
 3410 0930 75020000 		.4byte	0x275
 3411 0934 02       		.byte	0x2
 3412 0935 91       		.byte	0x91
 3413 0936 74       		.sleb128 -12
 3414 0937 00       		.byte	0
 3415 0938 1C       		.uleb128 0x1c
 3416 0939 0C010000 		.4byte	.LASF102
 3417 093d 01       		.byte	0x1
 3418 093e AB01     		.2byte	0x1ab
 3419 0940 01       		.byte	0x1
 3420 0941 00000000 		.4byte	.LFB21
 3421 0945 78010000 		.4byte	.LFE21
 3422 0949 50020000 		.4byte	.LLST14
 3423 094d 5F090000 		.4byte	0x95f
 3424 0951 1D       		.uleb128 0x1d
 3425 0952 6E00     		.ascii	"n\000"
 3426 0954 01       		.byte	0x1
 3427 0955 AC01     		.2byte	0x1ac
 3428 0957 7B000000 		.4byte	0x7b
 3429 095b 02       		.byte	0x2
 3430 095c 91       		.byte	0x91
 3431 095d 74       		.sleb128 -12
 3432 095e 00       		.byte	0
ARM GAS  C:\Users\z80\AppData\Local\Temp\cc1dRxCf.s 			page 64


 3433 095f 1C       		.uleb128 0x1c
 3434 0960 0C020000 		.4byte	.LASF103
 3435 0964 01       		.byte	0x1
 3436 0965 D101     		.2byte	0x1d1
 3437 0967 01       		.byte	0x1
 3438 0968 00000000 		.4byte	.LFB22
 3439 096c 08010000 		.4byte	.LFE22
 3440 0970 7C020000 		.4byte	.LLST15
 3441 0974 DC090000 		.4byte	0x9dc
 3442 0978 1D       		.uleb128 0x1d
 3443 0979 6E00     		.ascii	"n\000"
 3444 097b 01       		.byte	0x1
 3445 097c D201     		.2byte	0x1d2
 3446 097e 7B000000 		.4byte	0x7b
 3447 0982 02       		.byte	0x2
 3448 0983 91       		.byte	0x91
 3449 0984 74       		.sleb128 -12
 3450 0985 1D       		.uleb128 0x1d
 3451 0986 696200   		.ascii	"ib\000"
 3452 0989 01       		.byte	0x1
 3453 098a D301     		.2byte	0x1d3
 3454 098c DC090000 		.4byte	0x9dc
 3455 0990 05       		.byte	0x5
 3456 0991 03       		.byte	0x3
 3457 0992 00000000 		.4byte	ib.4798
 3458 0996 1D       		.uleb128 0x1d
 3459 0997 697100   		.ascii	"iq\000"
 3460 099a 01       		.byte	0x1
 3461 099b D401     		.2byte	0x1d4
 3462 099d A0050000 		.4byte	0x5a0
 3463 09a1 05       		.byte	0x5
 3464 09a2 03       		.byte	0x3
 3465 09a3 00000000 		.4byte	iq.4799
 3466 09a7 1A       		.uleb128 0x1a
 3467 09a8 32000000 		.4byte	.LBB8
 3468 09ac 3A000000 		.4byte	.LBE8
 3469 09b0 C3090000 		.4byte	0x9c3
 3470 09b4 1D       		.uleb128 0x1d
 3471 09b5 746D7000 		.ascii	"tmp\000"
 3472 09b9 01       		.byte	0x1
 3473 09ba DB01     		.2byte	0x1db
 3474 09bc 7B000000 		.4byte	0x7b
 3475 09c0 01       		.byte	0x1
 3476 09c1 53       		.byte	0x53
 3477 09c2 00       		.byte	0
 3478 09c3 1B       		.uleb128 0x1b
 3479 09c4 82000000 		.4byte	.LBB9
 3480 09c8 8A000000 		.4byte	.LBE9
 3481 09cc 1D       		.uleb128 0x1d
 3482 09cd 746D7000 		.ascii	"tmp\000"
 3483 09d1 01       		.byte	0x1
 3484 09d2 E001     		.2byte	0x1e0
 3485 09d4 7B000000 		.4byte	0x7b
 3486 09d8 01       		.byte	0x1
 3487 09d9 53       		.byte	0x53
 3488 09da 00       		.byte	0
 3489 09db 00       		.byte	0
ARM GAS  C:\Users\z80\AppData\Local\Temp\cc1dRxCf.s 			page 65


 3490 09dc 22       		.uleb128 0x22
 3491 09dd 49000000 		.4byte	0x49
 3492 09e1 EC090000 		.4byte	0x9ec
 3493 09e5 23       		.uleb128 0x23
 3494 09e6 3B000000 		.4byte	0x3b
 3495 09ea 0F       		.byte	0xf
 3496 09eb 00       		.byte	0
 3497 09ec 24       		.uleb128 0x24
 3498 09ed 746D6F00 		.ascii	"tmo\000"
 3499 09f1 01       		.byte	0x1
 3500 09f2 FF01     		.2byte	0x1ff
 3501 09f4 01       		.byte	0x1
 3502 09f5 00000000 		.4byte	.LFB23
 3503 09f9 08000000 		.4byte	.LFE23
 3504 09fd A8020000 		.4byte	.LLST16
 3505 0a01 150A0000 		.4byte	0xa15
 3506 0a05 25       		.uleb128 0x25
 3507 0a06 00030000 		.4byte	.LASF104
 3508 0a0a 01       		.byte	0x1
 3509 0a0b FF01     		.2byte	0x1ff
 3510 0a0d 75020000 		.4byte	0x275
 3511 0a11 02       		.byte	0x2
 3512 0a12 91       		.byte	0x91
 3513 0a13 7C       		.sleb128 -4
 3514 0a14 00       		.byte	0
 3515 0a15 1C       		.uleb128 0x1c
 3516 0a16 8C010000 		.4byte	.LASF105
 3517 0a1a 01       		.byte	0x1
 3518 0a1b 0102     		.2byte	0x201
 3519 0a1d 01       		.byte	0x1
 3520 0a1e 00000000 		.4byte	.LFB24
 3521 0a22 BC000000 		.4byte	.LFE24
 3522 0a26 C8020000 		.4byte	.LLST17
 3523 0a2a 940A0000 		.4byte	0xa94
 3524 0a2e 1D       		.uleb128 0x1d
 3525 0a2f 76743100 		.ascii	"vt1\000"
 3526 0a33 01       		.byte	0x1
 3527 0a34 0202     		.2byte	0x202
 3528 0a36 4F030000 		.4byte	0x34f
 3529 0a3a 05       		.byte	0x5
 3530 0a3b 03       		.byte	0x3
 3531 0a3c 00000000 		.4byte	vt1.4811
 3532 0a40 1D       		.uleb128 0x1d
 3533 0a41 76743200 		.ascii	"vt2\000"
 3534 0a45 01       		.byte	0x1
 3535 0a46 0202     		.2byte	0x202
 3536 0a48 4F030000 		.4byte	0x34f
 3537 0a4c 05       		.byte	0x5
 3538 0a4d 03       		.byte	0x3
 3539 0a4e 00000000 		.4byte	vt2.4812
 3540 0a52 1D       		.uleb128 0x1d
 3541 0a53 6E00     		.ascii	"n\000"
 3542 0a55 01       		.byte	0x1
 3543 0a56 0302     		.2byte	0x203
 3544 0a58 7B000000 		.4byte	0x7b
 3545 0a5c 02       		.byte	0x2
 3546 0a5d 91       		.byte	0x91
ARM GAS  C:\Users\z80\AppData\Local\Temp\cc1dRxCf.s 			page 66


 3547 0a5e 74       		.sleb128 -12
 3548 0a5f 1A       		.uleb128 0x1a
 3549 0a60 16000000 		.4byte	.LBB10
 3550 0a64 1E000000 		.4byte	.LBE10
 3551 0a68 7B0A0000 		.4byte	0xa7b
 3552 0a6c 1D       		.uleb128 0x1d
 3553 0a6d 746D7000 		.ascii	"tmp\000"
 3554 0a71 01       		.byte	0x1
 3555 0a72 0802     		.2byte	0x208
 3556 0a74 7B000000 		.4byte	0x7b
 3557 0a78 01       		.byte	0x1
 3558 0a79 53       		.byte	0x53
 3559 0a7a 00       		.byte	0
 3560 0a7b 1B       		.uleb128 0x1b
 3561 0a7c 76000000 		.4byte	.LBB11
 3562 0a80 7E000000 		.4byte	.LBE11
 3563 0a84 1D       		.uleb128 0x1d
 3564 0a85 746D7000 		.ascii	"tmp\000"
 3565 0a89 01       		.byte	0x1
 3566 0a8a 0D02     		.2byte	0x20d
 3567 0a8c 7B000000 		.4byte	0x7b
 3568 0a90 01       		.byte	0x1
 3569 0a91 53       		.byte	0x53
 3570 0a92 00       		.byte	0
 3571 0a93 00       		.byte	0
 3572 0a94 21       		.uleb128 0x21
 3573 0a95 9C020000 		.4byte	.LASF107
 3574 0a99 01       		.byte	0x1
 3575 0a9a 2902     		.2byte	0x229
 3576 0a9c 01       		.byte	0x1
 3577 0a9d 00000000 		.4byte	.LFB25
 3578 0aa1 14000000 		.4byte	.LFE25
 3579 0aa5 F4020000 		.4byte	.LLST18
 3580 0aa9 1C       		.uleb128 0x1c
 3581 0aaa 76010000 		.4byte	.LASF108
 3582 0aae 01       		.byte	0x1
 3583 0aaf 2E02     		.2byte	0x22e
 3584 0ab1 01       		.byte	0x1
 3585 0ab2 00000000 		.4byte	.LFB26
 3586 0ab6 B4000000 		.4byte	.LFE26
 3587 0aba 14030000 		.4byte	.LLST19
 3588 0abe D00A0000 		.4byte	0xad0
 3589 0ac2 1D       		.uleb128 0x1d
 3590 0ac3 6E00     		.ascii	"n\000"
 3591 0ac5 01       		.byte	0x1
 3592 0ac6 2F02     		.2byte	0x22f
 3593 0ac8 7B000000 		.4byte	0x7b
 3594 0acc 02       		.byte	0x2
 3595 0acd 91       		.byte	0x91
 3596 0ace 74       		.sleb128 -12
 3597 0acf 00       		.byte	0
 3598 0ad0 21       		.uleb128 0x21
 3599 0ad1 F4020000 		.4byte	.LASF109
 3600 0ad5 01       		.byte	0x1
 3601 0ad6 5802     		.2byte	0x258
 3602 0ad8 01       		.byte	0x1
 3603 0ad9 00000000 		.4byte	.LFB27
ARM GAS  C:\Users\z80\AppData\Local\Temp\cc1dRxCf.s 			page 67


 3604 0add 10000000 		.4byte	.LFE27
 3605 0ae1 40030000 		.4byte	.LLST20
 3606 0ae5 1C       		.uleb128 0x1c
 3607 0ae6 82030000 		.4byte	.LASF110
 3608 0aea 01       		.byte	0x1
 3609 0aeb 5D02     		.2byte	0x25d
 3610 0aed 01       		.byte	0x1
 3611 0aee 00000000 		.4byte	.LFB28
 3612 0af2 94000000 		.4byte	.LFE28
 3613 0af6 60030000 		.4byte	.LLST21
 3614 0afa 0C0B0000 		.4byte	0xb0c
 3615 0afe 1D       		.uleb128 0x1d
 3616 0aff 6E00     		.ascii	"n\000"
 3617 0b01 01       		.byte	0x1
 3618 0b02 5E02     		.2byte	0x25e
 3619 0b04 7B000000 		.4byte	0x7b
 3620 0b08 02       		.byte	0x2
 3621 0b09 91       		.byte	0x91
 3622 0b0a 74       		.sleb128 -12
 3623 0b0b 00       		.byte	0
 3624 0b0c 21       		.uleb128 0x21
 3625 0b0d 41010000 		.4byte	.LASF111
 3626 0b11 01       		.byte	0x1
 3627 0b12 8402     		.2byte	0x284
 3628 0b14 01       		.byte	0x1
 3629 0b15 00000000 		.4byte	.LFB29
 3630 0b19 44010000 		.4byte	.LFE29
 3631 0b1d 8C030000 		.4byte	.LLST22
 3632 0b21 19       		.uleb128 0x19
 3633 0b22 3C010000 		.4byte	.LASF112
 3634 0b26 01       		.byte	0x1
 3635 0b27 46       		.byte	0x46
 3636 0b28 57040000 		.4byte	0x457
 3637 0b2c 05       		.byte	0x5
 3638 0b2d 03       		.byte	0x3
 3639 0b2e 00000000 		.4byte	sem1
 3640 0b32 19       		.uleb128 0x19
 3641 0b33 01020000 		.4byte	.LASF113
 3642 0b37 01       		.byte	0x1
 3643 0b38 48       		.byte	0x48
 3644 0b39 9F040000 		.4byte	0x49f
 3645 0b3d 05       		.byte	0x5
 3646 0b3e 03       		.byte	0x3
 3647 0b3f 00000000 		.4byte	mtx1
 3648 0b43 26       		.uleb128 0x26
 3649 0b44 D4040000 		.4byte	.LASF114
 3650 0b48 09       		.byte	0x9
 3651 0b49 72       		.byte	0x72
 3652 0b4a 23040000 		.4byte	0x423
 3653 0b4e 01       		.byte	0x1
 3654 0b4f 01       		.byte	0x1
 3655 0b50 22       		.uleb128 0x22
 3656 0b51 37020000 		.4byte	0x237
 3657 0b55 600B0000 		.4byte	0xb60
 3658 0b59 23       		.uleb128 0x23
 3659 0b5a 3B000000 		.4byte	0x3b
 3660 0b5e 04       		.byte	0x4
ARM GAS  C:\Users\z80\AppData\Local\Temp\cc1dRxCf.s 			page 68


 3661 0b5f 00       		.byte	0
 3662 0b60 26       		.uleb128 0x26
 3663 0b61 C2030000 		.4byte	.LASF115
 3664 0b65 0D       		.byte	0xd
 3665 0b66 B0       		.byte	0xb0
 3666 0b67 500B0000 		.4byte	0xb50
 3667 0b6b 01       		.byte	0x1
 3668 0b6c 01       		.byte	0x1
 3669 0b6d 22       		.uleb128 0x22
 3670 0b6e 75020000 		.4byte	0x275
 3671 0b72 780B0000 		.4byte	0xb78
 3672 0b76 27       		.uleb128 0x27
 3673 0b77 00       		.byte	0
 3674 0b78 28       		.uleb128 0x28
 3675 0b79 776100   		.ascii	"wa\000"
 3676 0b7c 0D       		.byte	0xd
 3677 0b7d B2       		.byte	0xb2
 3678 0b7e 840B0000 		.4byte	0xb84
 3679 0b82 01       		.byte	0x1
 3680 0b83 01       		.byte	0x1
 3681 0b84 12       		.uleb128 0x12
 3682 0b85 6D0B0000 		.4byte	0xb6d
 3683 0b89 26       		.uleb128 0x26
 3684 0b8a B5010000 		.4byte	.LASF116
 3685 0b8e 0D       		.byte	0xd
 3686 0b8f B3       		.byte	0xb3
 3687 0b90 A6000000 		.4byte	0xa6
 3688 0b94 01       		.byte	0x1
 3689 0b95 01       		.byte	0x1
 3690 0b96 29       		.uleb128 0x29
 3691 0b97 A8020000 		.4byte	.LASF117
 3692 0b9b 01       		.byte	0x1
 3693 0b9c 81       		.byte	0x81
 3694 0b9d A80B0000 		.4byte	0xba8
 3695 0ba1 01       		.byte	0x1
 3696 0ba2 05       		.byte	0x5
 3697 0ba3 03       		.byte	0x3
 3698 0ba4 00000000 		.4byte	testbmk1
 3699 0ba8 12       		.uleb128 0x12
 3700 0ba9 AB050000 		.4byte	0x5ab
 3701 0bad 29       		.uleb128 0x29
 3702 0bae B1020000 		.4byte	.LASF118
 3703 0bb2 01       		.byte	0x1
 3704 0bb3 9E       		.byte	0x9e
 3705 0bb4 A80B0000 		.4byte	0xba8
 3706 0bb8 01       		.byte	0x1
 3707 0bb9 05       		.byte	0x5
 3708 0bba 03       		.byte	0x3
 3709 0bbb 00000000 		.4byte	testbmk2
 3710 0bbf 29       		.uleb128 0x29
 3711 0bc0 BA020000 		.4byte	.LASF119
 3712 0bc4 01       		.byte	0x1
 3713 0bc5 C5       		.byte	0xc5
 3714 0bc6 A80B0000 		.4byte	0xba8
 3715 0bca 01       		.byte	0x1
 3716 0bcb 05       		.byte	0x5
 3717 0bcc 03       		.byte	0x3
ARM GAS  C:\Users\z80\AppData\Local\Temp\cc1dRxCf.s 			page 69


 3718 0bcd 00000000 		.4byte	testbmk3
 3719 0bd1 2A       		.uleb128 0x2a
 3720 0bd2 C3020000 		.4byte	.LASF120
 3721 0bd6 01       		.byte	0x1
 3722 0bd7 0201     		.2byte	0x102
 3723 0bd9 A80B0000 		.4byte	0xba8
 3724 0bdd 01       		.byte	0x1
 3725 0bde 05       		.byte	0x5
 3726 0bdf 03       		.byte	0x3
 3727 0be0 00000000 		.4byte	testbmk4
 3728 0be4 2A       		.uleb128 0x2a
 3729 0be5 4A020000 		.4byte	.LASF121
 3730 0be9 01       		.byte	0x1
 3731 0bea 2701     		.2byte	0x127
 3732 0bec A80B0000 		.4byte	0xba8
 3733 0bf0 01       		.byte	0x1
 3734 0bf1 05       		.byte	0x5
 3735 0bf2 03       		.byte	0x3
 3736 0bf3 00000000 		.4byte	testbmk5
 3737 0bf7 2A       		.uleb128 0x2a
 3738 0bf8 C5010000 		.4byte	.LASF122
 3739 0bfc 01       		.byte	0x1
 3740 0bfd 4E01     		.2byte	0x14e
 3741 0bff A80B0000 		.4byte	0xba8
 3742 0c03 01       		.byte	0x1
 3743 0c04 05       		.byte	0x5
 3744 0c05 03       		.byte	0x3
 3745 0c06 00000000 		.4byte	testbmk6
 3746 0c0a 2A       		.uleb128 0x2a
 3747 0c0b 4F010000 		.4byte	.LASF123
 3748 0c0f 01       		.byte	0x1
 3749 0c10 8B01     		.2byte	0x18b
 3750 0c12 A80B0000 		.4byte	0xba8
 3751 0c16 01       		.byte	0x1
 3752 0c17 05       		.byte	0x5
 3753 0c18 03       		.byte	0x3
 3754 0c19 00000000 		.4byte	testbmk7
 3755 0c1d 2A       		.uleb128 0x2a
 3756 0c1e 6B020000 		.4byte	.LASF124
 3757 0c22 01       		.byte	0x1
 3758 0c23 C001     		.2byte	0x1c0
 3759 0c25 A80B0000 		.4byte	0xba8
 3760 0c29 01       		.byte	0x1
 3761 0c2a 05       		.byte	0x5
 3762 0c2b 03       		.byte	0x3
 3763 0c2c 00000000 		.4byte	testbmk8
 3764 0c30 2A       		.uleb128 0x2a
 3765 0c31 EB020000 		.4byte	.LASF125
 3766 0c35 01       		.byte	0x1
 3767 0c36 EF01     		.2byte	0x1ef
 3768 0c38 A80B0000 		.4byte	0xba8
 3769 0c3c 01       		.byte	0x1
 3770 0c3d 05       		.byte	0x5
 3771 0c3e 03       		.byte	0x3
 3772 0c3f 00000000 		.4byte	testbmk9
 3773 0c43 2A       		.uleb128 0x2a
 3774 0c44 F9030000 		.4byte	.LASF126
ARM GAS  C:\Users\z80\AppData\Local\Temp\cc1dRxCf.s 			page 70


 3775 0c48 01       		.byte	0x1
 3776 0c49 1802     		.2byte	0x218
 3777 0c4b A80B0000 		.4byte	0xba8
 3778 0c4f 01       		.byte	0x1
 3779 0c50 05       		.byte	0x5
 3780 0c51 03       		.byte	0x3
 3781 0c52 00000000 		.4byte	testbmk10
 3782 0c56 2A       		.uleb128 0x2a
 3783 0c57 03040000 		.4byte	.LASF127
 3784 0c5b 01       		.byte	0x1
 3785 0c5c 4602     		.2byte	0x246
 3786 0c5e A80B0000 		.4byte	0xba8
 3787 0c62 01       		.byte	0x1
 3788 0c63 05       		.byte	0x5
 3789 0c64 03       		.byte	0x3
 3790 0c65 00000000 		.4byte	testbmk11
 3791 0c69 2A       		.uleb128 0x2a
 3792 0c6a 32010000 		.4byte	.LASF128
 3793 0c6e 01       		.byte	0x1
 3794 0c6f 7502     		.2byte	0x275
 3795 0c71 A80B0000 		.4byte	0xba8
 3796 0c75 01       		.byte	0x1
 3797 0c76 05       		.byte	0x5
 3798 0c77 03       		.byte	0x3
 3799 0c78 00000000 		.4byte	testbmk12
 3800 0c7c 2A       		.uleb128 0x2a
 3801 0c7d 16040000 		.4byte	.LASF129
 3802 0c81 01       		.byte	0x1
 3803 0c82 B402     		.2byte	0x2b4
 3804 0c84 A80B0000 		.4byte	0xba8
 3805 0c88 01       		.byte	0x1
 3806 0c89 05       		.byte	0x5
 3807 0c8a 03       		.byte	0x3
 3808 0c8b 00000000 		.4byte	testbmk13
 3809 0c8f 22       		.uleb128 0x22
 3810 0c90 9F0C0000 		.4byte	0xc9f
 3811 0c94 9F0C0000 		.4byte	0xc9f
 3812 0c98 23       		.uleb128 0x23
 3813 0c99 3B000000 		.4byte	0x3b
 3814 0c9d 0D       		.byte	0xd
 3815 0c9e 00       		.byte	0
 3816 0c9f 09       		.uleb128 0x9
 3817 0ca0 04       		.byte	0x4
 3818 0ca1 A80B0000 		.4byte	0xba8
 3819 0ca5 2A       		.uleb128 0x2a
 3820 0ca6 E7030000 		.4byte	.LASF130
 3821 0caa 01       		.byte	0x1
 3822 0cab BE02     		.2byte	0x2be
 3823 0cad B80C0000 		.4byte	0xcb8
 3824 0cb1 01       		.byte	0x1
 3825 0cb2 05       		.byte	0x5
 3826 0cb3 03       		.byte	0x3
 3827 0cb4 00000000 		.4byte	patternbmk
 3828 0cb8 12       		.uleb128 0x12
 3829 0cb9 8F0C0000 		.4byte	0xc8f
 3830 0cbd 00       		.byte	0
 3831              		.section	.debug_abbrev,"",%progbits
ARM GAS  C:\Users\z80\AppData\Local\Temp\cc1dRxCf.s 			page 71


 3832              	.Ldebug_abbrev0:
 3833 0000 01       		.uleb128 0x1
 3834 0001 11       		.uleb128 0x11
 3835 0002 01       		.byte	0x1
 3836 0003 25       		.uleb128 0x25
 3837 0004 0E       		.uleb128 0xe
 3838 0005 13       		.uleb128 0x13
 3839 0006 0B       		.uleb128 0xb
 3840 0007 03       		.uleb128 0x3
 3841 0008 0E       		.uleb128 0xe
 3842 0009 1B       		.uleb128 0x1b
 3843 000a 0E       		.uleb128 0xe
 3844 000b 11       		.uleb128 0x11
 3845 000c 01       		.uleb128 0x1
 3846 000d 52       		.uleb128 0x52
 3847 000e 01       		.uleb128 0x1
 3848 000f 55       		.uleb128 0x55
 3849 0010 06       		.uleb128 0x6
 3850 0011 10       		.uleb128 0x10
 3851 0012 06       		.uleb128 0x6
 3852 0013 00       		.byte	0
 3853 0014 00       		.byte	0
 3854 0015 02       		.uleb128 0x2
 3855 0016 24       		.uleb128 0x24
 3856 0017 00       		.byte	0
 3857 0018 0B       		.uleb128 0xb
 3858 0019 0B       		.uleb128 0xb
 3859 001a 3E       		.uleb128 0x3e
 3860 001b 0B       		.uleb128 0xb
 3861 001c 03       		.uleb128 0x3
 3862 001d 08       		.uleb128 0x8
 3863 001e 00       		.byte	0
 3864 001f 00       		.byte	0
 3865 0020 03       		.uleb128 0x3
 3866 0021 16       		.uleb128 0x16
 3867 0022 00       		.byte	0
 3868 0023 03       		.uleb128 0x3
 3869 0024 0E       		.uleb128 0xe
 3870 0025 3A       		.uleb128 0x3a
 3871 0026 0B       		.uleb128 0xb
 3872 0027 3B       		.uleb128 0x3b
 3873 0028 0B       		.uleb128 0xb
 3874 0029 49       		.uleb128 0x49
 3875 002a 13       		.uleb128 0x13
 3876 002b 00       		.byte	0
 3877 002c 00       		.byte	0
 3878 002d 04       		.uleb128 0x4
 3879 002e 24       		.uleb128 0x24
 3880 002f 00       		.byte	0
 3881 0030 0B       		.uleb128 0xb
 3882 0031 0B       		.uleb128 0xb
 3883 0032 3E       		.uleb128 0x3e
 3884 0033 0B       		.uleb128 0xb
 3885 0034 03       		.uleb128 0x3
 3886 0035 0E       		.uleb128 0xe
 3887 0036 00       		.byte	0
 3888 0037 00       		.byte	0
ARM GAS  C:\Users\z80\AppData\Local\Temp\cc1dRxCf.s 			page 72


 3889 0038 05       		.uleb128 0x5
 3890 0039 13       		.uleb128 0x13
 3891 003a 01       		.byte	0x1
 3892 003b 03       		.uleb128 0x3
 3893 003c 0E       		.uleb128 0xe
 3894 003d 0B       		.uleb128 0xb
 3895 003e 0B       		.uleb128 0xb
 3896 003f 3A       		.uleb128 0x3a
 3897 0040 0B       		.uleb128 0xb
 3898 0041 3B       		.uleb128 0x3b
 3899 0042 0B       		.uleb128 0xb
 3900 0043 01       		.uleb128 0x1
 3901 0044 13       		.uleb128 0x13
 3902 0045 00       		.byte	0
 3903 0046 00       		.byte	0
 3904 0047 06       		.uleb128 0x6
 3905 0048 0D       		.uleb128 0xd
 3906 0049 00       		.byte	0
 3907 004a 03       		.uleb128 0x3
 3908 004b 0E       		.uleb128 0xe
 3909 004c 3A       		.uleb128 0x3a
 3910 004d 0B       		.uleb128 0xb
 3911 004e 3B       		.uleb128 0x3b
 3912 004f 0B       		.uleb128 0xb
 3913 0050 49       		.uleb128 0x49
 3914 0051 13       		.uleb128 0x13
 3915 0052 38       		.uleb128 0x38
 3916 0053 0A       		.uleb128 0xa
 3917 0054 00       		.byte	0
 3918 0055 00       		.byte	0
 3919 0056 07       		.uleb128 0x7
 3920 0057 0D       		.uleb128 0xd
 3921 0058 00       		.byte	0
 3922 0059 03       		.uleb128 0x3
 3923 005a 08       		.uleb128 0x8
 3924 005b 3A       		.uleb128 0x3a
 3925 005c 0B       		.uleb128 0xb
 3926 005d 3B       		.uleb128 0x3b
 3927 005e 0B       		.uleb128 0xb
 3928 005f 49       		.uleb128 0x49
 3929 0060 13       		.uleb128 0x13
 3930 0061 38       		.uleb128 0x38
 3931 0062 0A       		.uleb128 0xa
 3932 0063 00       		.byte	0
 3933 0064 00       		.byte	0
 3934 0065 08       		.uleb128 0x8
 3935 0066 13       		.uleb128 0x13
 3936 0067 01       		.byte	0x1
 3937 0068 0B       		.uleb128 0xb
 3938 0069 0B       		.uleb128 0xb
 3939 006a 3A       		.uleb128 0x3a
 3940 006b 0B       		.uleb128 0xb
 3941 006c 3B       		.uleb128 0x3b
 3942 006d 0B       		.uleb128 0xb
 3943 006e 01       		.uleb128 0x1
 3944 006f 13       		.uleb128 0x13
 3945 0070 00       		.byte	0
ARM GAS  C:\Users\z80\AppData\Local\Temp\cc1dRxCf.s 			page 73


 3946 0071 00       		.byte	0
 3947 0072 09       		.uleb128 0x9
 3948 0073 0F       		.uleb128 0xf
 3949 0074 00       		.byte	0
 3950 0075 0B       		.uleb128 0xb
 3951 0076 0B       		.uleb128 0xb
 3952 0077 49       		.uleb128 0x49
 3953 0078 13       		.uleb128 0x13
 3954 0079 00       		.byte	0
 3955 007a 00       		.byte	0
 3956 007b 0A       		.uleb128 0xa
 3957 007c 0F       		.uleb128 0xf
 3958 007d 00       		.byte	0
 3959 007e 0B       		.uleb128 0xb
 3960 007f 0B       		.uleb128 0xb
 3961 0080 00       		.byte	0
 3962 0081 00       		.byte	0
 3963 0082 0B       		.uleb128 0xb
 3964 0083 0D       		.uleb128 0xd
 3965 0084 00       		.byte	0
 3966 0085 03       		.uleb128 0x3
 3967 0086 08       		.uleb128 0x8
 3968 0087 3A       		.uleb128 0x3a
 3969 0088 0B       		.uleb128 0xb
 3970 0089 3B       		.uleb128 0x3b
 3971 008a 05       		.uleb128 0x5
 3972 008b 49       		.uleb128 0x49
 3973 008c 13       		.uleb128 0x13
 3974 008d 38       		.uleb128 0x38
 3975 008e 0A       		.uleb128 0xa
 3976 008f 00       		.byte	0
 3977 0090 00       		.byte	0
 3978 0091 0C       		.uleb128 0xc
 3979 0092 13       		.uleb128 0x13
 3980 0093 01       		.byte	0x1
 3981 0094 03       		.uleb128 0x3
 3982 0095 0E       		.uleb128 0xe
 3983 0096 0B       		.uleb128 0xb
 3984 0097 0B       		.uleb128 0xb
 3985 0098 3A       		.uleb128 0x3a
 3986 0099 0B       		.uleb128 0xb
 3987 009a 3B       		.uleb128 0x3b
 3988 009b 05       		.uleb128 0x5
 3989 009c 01       		.uleb128 0x1
 3990 009d 13       		.uleb128 0x13
 3991 009e 00       		.byte	0
 3992 009f 00       		.byte	0
 3993 00a0 0D       		.uleb128 0xd
 3994 00a1 15       		.uleb128 0x15
 3995 00a2 01       		.byte	0x1
 3996 00a3 27       		.uleb128 0x27
 3997 00a4 0C       		.uleb128 0xc
 3998 00a5 01       		.uleb128 0x1
 3999 00a6 13       		.uleb128 0x13
 4000 00a7 00       		.byte	0
 4001 00a8 00       		.byte	0
 4002 00a9 0E       		.uleb128 0xe
ARM GAS  C:\Users\z80\AppData\Local\Temp\cc1dRxCf.s 			page 74


 4003 00aa 05       		.uleb128 0x5
 4004 00ab 00       		.byte	0
 4005 00ac 49       		.uleb128 0x49
 4006 00ad 13       		.uleb128 0x13
 4007 00ae 00       		.byte	0
 4008 00af 00       		.byte	0
 4009 00b0 0F       		.uleb128 0xf
 4010 00b1 35       		.uleb128 0x35
 4011 00b2 00       		.byte	0
 4012 00b3 49       		.uleb128 0x49
 4013 00b4 13       		.uleb128 0x13
 4014 00b5 00       		.byte	0
 4015 00b6 00       		.byte	0
 4016 00b7 10       		.uleb128 0x10
 4017 00b8 17       		.uleb128 0x17
 4018 00b9 01       		.byte	0x1
 4019 00ba 0B       		.uleb128 0xb
 4020 00bb 0B       		.uleb128 0xb
 4021 00bc 3A       		.uleb128 0x3a
 4022 00bd 0B       		.uleb128 0xb
 4023 00be 3B       		.uleb128 0x3b
 4024 00bf 0B       		.uleb128 0xb
 4025 00c0 01       		.uleb128 0x1
 4026 00c1 13       		.uleb128 0x13
 4027 00c2 00       		.byte	0
 4028 00c3 00       		.byte	0
 4029 00c4 11       		.uleb128 0x11
 4030 00c5 0D       		.uleb128 0xd
 4031 00c6 00       		.byte	0
 4032 00c7 03       		.uleb128 0x3
 4033 00c8 0E       		.uleb128 0xe
 4034 00c9 3A       		.uleb128 0x3a
 4035 00ca 0B       		.uleb128 0xb
 4036 00cb 3B       		.uleb128 0x3b
 4037 00cc 0B       		.uleb128 0xb
 4038 00cd 49       		.uleb128 0x49
 4039 00ce 13       		.uleb128 0x13
 4040 00cf 00       		.byte	0
 4041 00d0 00       		.byte	0
 4042 00d1 12       		.uleb128 0x12
 4043 00d2 26       		.uleb128 0x26
 4044 00d3 00       		.byte	0
 4045 00d4 49       		.uleb128 0x49
 4046 00d5 13       		.uleb128 0x13
 4047 00d6 00       		.byte	0
 4048 00d7 00       		.byte	0
 4049 00d8 13       		.uleb128 0x13
 4050 00d9 15       		.uleb128 0x15
 4051 00da 00       		.byte	0
 4052 00db 27       		.uleb128 0x27
 4053 00dc 0C       		.uleb128 0xc
 4054 00dd 00       		.byte	0
 4055 00de 00       		.byte	0
 4056 00df 14       		.uleb128 0x14
 4057 00e0 2E       		.uleb128 0x2e
 4058 00e1 01       		.byte	0x1
 4059 00e2 03       		.uleb128 0x3
ARM GAS  C:\Users\z80\AppData\Local\Temp\cc1dRxCf.s 			page 75


 4060 00e3 0E       		.uleb128 0xe
 4061 00e4 3A       		.uleb128 0x3a
 4062 00e5 0B       		.uleb128 0xb
 4063 00e6 3B       		.uleb128 0x3b
 4064 00e7 0B       		.uleb128 0xb
 4065 00e8 27       		.uleb128 0x27
 4066 00e9 0C       		.uleb128 0xc
 4067 00ea 49       		.uleb128 0x49
 4068 00eb 13       		.uleb128 0x13
 4069 00ec 11       		.uleb128 0x11
 4070 00ed 01       		.uleb128 0x1
 4071 00ee 12       		.uleb128 0x12
 4072 00ef 01       		.uleb128 0x1
 4073 00f0 40       		.uleb128 0x40
 4074 00f1 06       		.uleb128 0x6
 4075 00f2 01       		.uleb128 0x1
 4076 00f3 13       		.uleb128 0x13
 4077 00f4 00       		.byte	0
 4078 00f5 00       		.byte	0
 4079 00f6 15       		.uleb128 0x15
 4080 00f7 05       		.uleb128 0x5
 4081 00f8 00       		.byte	0
 4082 00f9 03       		.uleb128 0x3
 4083 00fa 08       		.uleb128 0x8
 4084 00fb 3A       		.uleb128 0x3a
 4085 00fc 0B       		.uleb128 0xb
 4086 00fd 3B       		.uleb128 0x3b
 4087 00fe 0B       		.uleb128 0xb
 4088 00ff 49       		.uleb128 0x49
 4089 0100 13       		.uleb128 0x13
 4090 0101 02       		.uleb128 0x2
 4091 0102 0A       		.uleb128 0xa
 4092 0103 00       		.byte	0
 4093 0104 00       		.byte	0
 4094 0105 16       		.uleb128 0x16
 4095 0106 34       		.uleb128 0x34
 4096 0107 00       		.byte	0
 4097 0108 03       		.uleb128 0x3
 4098 0109 08       		.uleb128 0x8
 4099 010a 3A       		.uleb128 0x3a
 4100 010b 0B       		.uleb128 0xb
 4101 010c 3B       		.uleb128 0x3b
 4102 010d 0B       		.uleb128 0xb
 4103 010e 49       		.uleb128 0x49
 4104 010f 13       		.uleb128 0x13
 4105 0110 02       		.uleb128 0x2
 4106 0111 0A       		.uleb128 0xa
 4107 0112 00       		.byte	0
 4108 0113 00       		.byte	0
 4109 0114 17       		.uleb128 0x17
 4110 0115 2E       		.uleb128 0x2e
 4111 0116 01       		.byte	0x1
 4112 0117 03       		.uleb128 0x3
 4113 0118 0E       		.uleb128 0xe
 4114 0119 3A       		.uleb128 0x3a
 4115 011a 0B       		.uleb128 0xb
 4116 011b 3B       		.uleb128 0x3b
ARM GAS  C:\Users\z80\AppData\Local\Temp\cc1dRxCf.s 			page 76


 4117 011c 0B       		.uleb128 0xb
 4118 011d 27       		.uleb128 0x27
 4119 011e 0C       		.uleb128 0xc
 4120 011f 11       		.uleb128 0x11
 4121 0120 01       		.uleb128 0x1
 4122 0121 12       		.uleb128 0x12
 4123 0122 01       		.uleb128 0x1
 4124 0123 40       		.uleb128 0x40
 4125 0124 06       		.uleb128 0x6
 4126 0125 01       		.uleb128 0x1
 4127 0126 13       		.uleb128 0x13
 4128 0127 00       		.byte	0
 4129 0128 00       		.byte	0
 4130 0129 18       		.uleb128 0x18
 4131 012a 2E       		.uleb128 0x2e
 4132 012b 01       		.byte	0x1
 4133 012c 3F       		.uleb128 0x3f
 4134 012d 0C       		.uleb128 0xc
 4135 012e 03       		.uleb128 0x3
 4136 012f 0E       		.uleb128 0xe
 4137 0130 3A       		.uleb128 0x3a
 4138 0131 0B       		.uleb128 0xb
 4139 0132 3B       		.uleb128 0x3b
 4140 0133 0B       		.uleb128 0xb
 4141 0134 27       		.uleb128 0x27
 4142 0135 0C       		.uleb128 0xc
 4143 0136 49       		.uleb128 0x49
 4144 0137 13       		.uleb128 0x13
 4145 0138 11       		.uleb128 0x11
 4146 0139 01       		.uleb128 0x1
 4147 013a 12       		.uleb128 0x12
 4148 013b 01       		.uleb128 0x1
 4149 013c 40       		.uleb128 0x40
 4150 013d 06       		.uleb128 0x6
 4151 013e 01       		.uleb128 0x1
 4152 013f 13       		.uleb128 0x13
 4153 0140 00       		.byte	0
 4154 0141 00       		.byte	0
 4155 0142 19       		.uleb128 0x19
 4156 0143 34       		.uleb128 0x34
 4157 0144 00       		.byte	0
 4158 0145 03       		.uleb128 0x3
 4159 0146 0E       		.uleb128 0xe
 4160 0147 3A       		.uleb128 0x3a
 4161 0148 0B       		.uleb128 0xb
 4162 0149 3B       		.uleb128 0x3b
 4163 014a 0B       		.uleb128 0xb
 4164 014b 49       		.uleb128 0x49
 4165 014c 13       		.uleb128 0x13
 4166 014d 02       		.uleb128 0x2
 4167 014e 0A       		.uleb128 0xa
 4168 014f 00       		.byte	0
 4169 0150 00       		.byte	0
 4170 0151 1A       		.uleb128 0x1a
 4171 0152 0B       		.uleb128 0xb
 4172 0153 01       		.byte	0x1
 4173 0154 11       		.uleb128 0x11
ARM GAS  C:\Users\z80\AppData\Local\Temp\cc1dRxCf.s 			page 77


 4174 0155 01       		.uleb128 0x1
 4175 0156 12       		.uleb128 0x12
 4176 0157 01       		.uleb128 0x1
 4177 0158 01       		.uleb128 0x1
 4178 0159 13       		.uleb128 0x13
 4179 015a 00       		.byte	0
 4180 015b 00       		.byte	0
 4181 015c 1B       		.uleb128 0x1b
 4182 015d 0B       		.uleb128 0xb
 4183 015e 01       		.byte	0x1
 4184 015f 11       		.uleb128 0x11
 4185 0160 01       		.uleb128 0x1
 4186 0161 12       		.uleb128 0x12
 4187 0162 01       		.uleb128 0x1
 4188 0163 00       		.byte	0
 4189 0164 00       		.byte	0
 4190 0165 1C       		.uleb128 0x1c
 4191 0166 2E       		.uleb128 0x2e
 4192 0167 01       		.byte	0x1
 4193 0168 03       		.uleb128 0x3
 4194 0169 0E       		.uleb128 0xe
 4195 016a 3A       		.uleb128 0x3a
 4196 016b 0B       		.uleb128 0xb
 4197 016c 3B       		.uleb128 0x3b
 4198 016d 05       		.uleb128 0x5
 4199 016e 27       		.uleb128 0x27
 4200 016f 0C       		.uleb128 0xc
 4201 0170 11       		.uleb128 0x11
 4202 0171 01       		.uleb128 0x1
 4203 0172 12       		.uleb128 0x12
 4204 0173 01       		.uleb128 0x1
 4205 0174 40       		.uleb128 0x40
 4206 0175 06       		.uleb128 0x6
 4207 0176 01       		.uleb128 0x1
 4208 0177 13       		.uleb128 0x13
 4209 0178 00       		.byte	0
 4210 0179 00       		.byte	0
 4211 017a 1D       		.uleb128 0x1d
 4212 017b 34       		.uleb128 0x34
 4213 017c 00       		.byte	0
 4214 017d 03       		.uleb128 0x3
 4215 017e 08       		.uleb128 0x8
 4216 017f 3A       		.uleb128 0x3a
 4217 0180 0B       		.uleb128 0xb
 4218 0181 3B       		.uleb128 0x3b
 4219 0182 05       		.uleb128 0x5
 4220 0183 49       		.uleb128 0x49
 4221 0184 13       		.uleb128 0x13
 4222 0185 02       		.uleb128 0x2
 4223 0186 0A       		.uleb128 0xa
 4224 0187 00       		.byte	0
 4225 0188 00       		.byte	0
 4226 0189 1E       		.uleb128 0x1e
 4227 018a 34       		.uleb128 0x34
 4228 018b 00       		.byte	0
 4229 018c 03       		.uleb128 0x3
 4230 018d 0E       		.uleb128 0xe
ARM GAS  C:\Users\z80\AppData\Local\Temp\cc1dRxCf.s 			page 78


 4231 018e 3A       		.uleb128 0x3a
 4232 018f 0B       		.uleb128 0xb
 4233 0190 3B       		.uleb128 0x3b
 4234 0191 05       		.uleb128 0x5
 4235 0192 49       		.uleb128 0x49
 4236 0193 13       		.uleb128 0x13
 4237 0194 02       		.uleb128 0x2
 4238 0195 0A       		.uleb128 0xa
 4239 0196 00       		.byte	0
 4240 0197 00       		.byte	0
 4241 0198 1F       		.uleb128 0x1f
 4242 0199 2E       		.uleb128 0x2e
 4243 019a 01       		.byte	0x1
 4244 019b 03       		.uleb128 0x3
 4245 019c 0E       		.uleb128 0xe
 4246 019d 3A       		.uleb128 0x3a
 4247 019e 0B       		.uleb128 0xb
 4248 019f 3B       		.uleb128 0x3b
 4249 01a0 05       		.uleb128 0x5
 4250 01a1 27       		.uleb128 0x27
 4251 01a2 0C       		.uleb128 0xc
 4252 01a3 49       		.uleb128 0x49
 4253 01a4 13       		.uleb128 0x13
 4254 01a5 11       		.uleb128 0x11
 4255 01a6 01       		.uleb128 0x1
 4256 01a7 12       		.uleb128 0x12
 4257 01a8 01       		.uleb128 0x1
 4258 01a9 40       		.uleb128 0x40
 4259 01aa 06       		.uleb128 0x6
 4260 01ab 01       		.uleb128 0x1
 4261 01ac 13       		.uleb128 0x13
 4262 01ad 00       		.byte	0
 4263 01ae 00       		.byte	0
 4264 01af 20       		.uleb128 0x20
 4265 01b0 05       		.uleb128 0x5
 4266 01b1 00       		.byte	0
 4267 01b2 03       		.uleb128 0x3
 4268 01b3 08       		.uleb128 0x8
 4269 01b4 3A       		.uleb128 0x3a
 4270 01b5 0B       		.uleb128 0xb
 4271 01b6 3B       		.uleb128 0x3b
 4272 01b7 05       		.uleb128 0x5
 4273 01b8 49       		.uleb128 0x49
 4274 01b9 13       		.uleb128 0x13
 4275 01ba 02       		.uleb128 0x2
 4276 01bb 0A       		.uleb128 0xa
 4277 01bc 00       		.byte	0
 4278 01bd 00       		.byte	0
 4279 01be 21       		.uleb128 0x21
 4280 01bf 2E       		.uleb128 0x2e
 4281 01c0 00       		.byte	0
 4282 01c1 03       		.uleb128 0x3
 4283 01c2 0E       		.uleb128 0xe
 4284 01c3 3A       		.uleb128 0x3a
 4285 01c4 0B       		.uleb128 0xb
 4286 01c5 3B       		.uleb128 0x3b
 4287 01c6 05       		.uleb128 0x5
ARM GAS  C:\Users\z80\AppData\Local\Temp\cc1dRxCf.s 			page 79


 4288 01c7 27       		.uleb128 0x27
 4289 01c8 0C       		.uleb128 0xc
 4290 01c9 11       		.uleb128 0x11
 4291 01ca 01       		.uleb128 0x1
 4292 01cb 12       		.uleb128 0x12
 4293 01cc 01       		.uleb128 0x1
 4294 01cd 40       		.uleb128 0x40
 4295 01ce 06       		.uleb128 0x6
 4296 01cf 00       		.byte	0
 4297 01d0 00       		.byte	0
 4298 01d1 22       		.uleb128 0x22
 4299 01d2 01       		.uleb128 0x1
 4300 01d3 01       		.byte	0x1
 4301 01d4 49       		.uleb128 0x49
 4302 01d5 13       		.uleb128 0x13
 4303 01d6 01       		.uleb128 0x1
 4304 01d7 13       		.uleb128 0x13
 4305 01d8 00       		.byte	0
 4306 01d9 00       		.byte	0
 4307 01da 23       		.uleb128 0x23
 4308 01db 21       		.uleb128 0x21
 4309 01dc 00       		.byte	0
 4310 01dd 49       		.uleb128 0x49
 4311 01de 13       		.uleb128 0x13
 4312 01df 2F       		.uleb128 0x2f
 4313 01e0 0B       		.uleb128 0xb
 4314 01e1 00       		.byte	0
 4315 01e2 00       		.byte	0
 4316 01e3 24       		.uleb128 0x24
 4317 01e4 2E       		.uleb128 0x2e
 4318 01e5 01       		.byte	0x1
 4319 01e6 03       		.uleb128 0x3
 4320 01e7 08       		.uleb128 0x8
 4321 01e8 3A       		.uleb128 0x3a
 4322 01e9 0B       		.uleb128 0xb
 4323 01ea 3B       		.uleb128 0x3b
 4324 01eb 05       		.uleb128 0x5
 4325 01ec 27       		.uleb128 0x27
 4326 01ed 0C       		.uleb128 0xc
 4327 01ee 11       		.uleb128 0x11
 4328 01ef 01       		.uleb128 0x1
 4329 01f0 12       		.uleb128 0x12
 4330 01f1 01       		.uleb128 0x1
 4331 01f2 40       		.uleb128 0x40
 4332 01f3 06       		.uleb128 0x6
 4333 01f4 01       		.uleb128 0x1
 4334 01f5 13       		.uleb128 0x13
 4335 01f6 00       		.byte	0
 4336 01f7 00       		.byte	0
 4337 01f8 25       		.uleb128 0x25
 4338 01f9 05       		.uleb128 0x5
 4339 01fa 00       		.byte	0
 4340 01fb 03       		.uleb128 0x3
 4341 01fc 0E       		.uleb128 0xe
 4342 01fd 3A       		.uleb128 0x3a
 4343 01fe 0B       		.uleb128 0xb
 4344 01ff 3B       		.uleb128 0x3b
ARM GAS  C:\Users\z80\AppData\Local\Temp\cc1dRxCf.s 			page 80


 4345 0200 05       		.uleb128 0x5
 4346 0201 49       		.uleb128 0x49
 4347 0202 13       		.uleb128 0x13
 4348 0203 02       		.uleb128 0x2
 4349 0204 0A       		.uleb128 0xa
 4350 0205 00       		.byte	0
 4351 0206 00       		.byte	0
 4352 0207 26       		.uleb128 0x26
 4353 0208 34       		.uleb128 0x34
 4354 0209 00       		.byte	0
 4355 020a 03       		.uleb128 0x3
 4356 020b 0E       		.uleb128 0xe
 4357 020c 3A       		.uleb128 0x3a
 4358 020d 0B       		.uleb128 0xb
 4359 020e 3B       		.uleb128 0x3b
 4360 020f 0B       		.uleb128 0xb
 4361 0210 49       		.uleb128 0x49
 4362 0211 13       		.uleb128 0x13
 4363 0212 3F       		.uleb128 0x3f
 4364 0213 0C       		.uleb128 0xc
 4365 0214 3C       		.uleb128 0x3c
 4366 0215 0C       		.uleb128 0xc
 4367 0216 00       		.byte	0
 4368 0217 00       		.byte	0
 4369 0218 27       		.uleb128 0x27
 4370 0219 21       		.uleb128 0x21
 4371 021a 00       		.byte	0
 4372 021b 00       		.byte	0
 4373 021c 00       		.byte	0
 4374 021d 28       		.uleb128 0x28
 4375 021e 34       		.uleb128 0x34
 4376 021f 00       		.byte	0
 4377 0220 03       		.uleb128 0x3
 4378 0221 08       		.uleb128 0x8
 4379 0222 3A       		.uleb128 0x3a
 4380 0223 0B       		.uleb128 0xb
 4381 0224 3B       		.uleb128 0x3b
 4382 0225 0B       		.uleb128 0xb
 4383 0226 49       		.uleb128 0x49
 4384 0227 13       		.uleb128 0x13
 4385 0228 3F       		.uleb128 0x3f
 4386 0229 0C       		.uleb128 0xc
 4387 022a 3C       		.uleb128 0x3c
 4388 022b 0C       		.uleb128 0xc
 4389 022c 00       		.byte	0
 4390 022d 00       		.byte	0
 4391 022e 29       		.uleb128 0x29
 4392 022f 34       		.uleb128 0x34
 4393 0230 00       		.byte	0
 4394 0231 03       		.uleb128 0x3
 4395 0232 0E       		.uleb128 0xe
 4396 0233 3A       		.uleb128 0x3a
 4397 0234 0B       		.uleb128 0xb
 4398 0235 3B       		.uleb128 0x3b
 4399 0236 0B       		.uleb128 0xb
 4400 0237 49       		.uleb128 0x49
 4401 0238 13       		.uleb128 0x13
ARM GAS  C:\Users\z80\AppData\Local\Temp\cc1dRxCf.s 			page 81


 4402 0239 3F       		.uleb128 0x3f
 4403 023a 0C       		.uleb128 0xc
 4404 023b 02       		.uleb128 0x2
 4405 023c 0A       		.uleb128 0xa
 4406 023d 00       		.byte	0
 4407 023e 00       		.byte	0
 4408 023f 2A       		.uleb128 0x2a
 4409 0240 34       		.uleb128 0x34
 4410 0241 00       		.byte	0
 4411 0242 03       		.uleb128 0x3
 4412 0243 0E       		.uleb128 0xe
 4413 0244 3A       		.uleb128 0x3a
 4414 0245 0B       		.uleb128 0xb
 4415 0246 3B       		.uleb128 0x3b
 4416 0247 05       		.uleb128 0x5
 4417 0248 49       		.uleb128 0x49
 4418 0249 13       		.uleb128 0x13
 4419 024a 3F       		.uleb128 0x3f
 4420 024b 0C       		.uleb128 0xc
 4421 024c 02       		.uleb128 0x2
 4422 024d 0A       		.uleb128 0xa
 4423 024e 00       		.byte	0
 4424 024f 00       		.byte	0
 4425 0250 00       		.byte	0
 4426              		.section	.debug_loc,"",%progbits
 4427              	.Ldebug_loc0:
 4428              	.LLST0:
 4429 0000 00000000 		.4byte	.LFB7
 4430 0004 02000000 		.4byte	.LCFI0
 4431 0008 0200     		.2byte	0x2
 4432 000a 7D       		.byte	0x7d
 4433 000b 00       		.sleb128 0
 4434 000c 02000000 		.4byte	.LCFI0
 4435 0010 04000000 		.4byte	.LCFI1
 4436 0014 0200     		.2byte	0x2
 4437 0016 7D       		.byte	0x7d
 4438 0017 04       		.sleb128 4
 4439 0018 04000000 		.4byte	.LCFI1
 4440 001c 2A000000 		.4byte	.LFE7
 4441 0020 0200     		.2byte	0x2
 4442 0022 7D       		.byte	0x7d
 4443 0023 18       		.sleb128 24
 4444 0024 00000000 		.4byte	0
 4445 0028 00000000 		.4byte	0
 4446              	.LLST1:
 4447 002c 00000000 		.4byte	.LFB8
 4448 0030 02000000 		.4byte	.LCFI2
 4449 0034 0200     		.2byte	0x2
 4450 0036 7D       		.byte	0x7d
 4451 0037 00       		.sleb128 0
 4452 0038 02000000 		.4byte	.LCFI2
 4453 003c 04000000 		.4byte	.LCFI3
 4454 0040 0200     		.2byte	0x2
 4455 0042 7D       		.byte	0x7d
 4456 0043 04       		.sleb128 4
 4457 0044 04000000 		.4byte	.LCFI3
 4458 0048 4A000000 		.4byte	.LFE8
ARM GAS  C:\Users\z80\AppData\Local\Temp\cc1dRxCf.s 			page 82


 4459 004c 0200     		.2byte	0x2
 4460 004e 7D       		.byte	0x7d
 4461 004f 18       		.sleb128 24
 4462 0050 00000000 		.4byte	0
 4463 0054 00000000 		.4byte	0
 4464              	.LLST2:
 4465 0058 00000000 		.4byte	.LFB9
 4466 005c 02000000 		.4byte	.LCFI4
 4467 0060 0200     		.2byte	0x2
 4468 0062 7D       		.byte	0x7d
 4469 0063 00       		.sleb128 0
 4470 0064 02000000 		.4byte	.LCFI4
 4471 0068 04000000 		.4byte	.LCFI5
 4472 006c 0200     		.2byte	0x2
 4473 006e 7D       		.byte	0x7d
 4474 006f 04       		.sleb128 4
 4475 0070 04000000 		.4byte	.LCFI5
 4476 0074 94000000 		.4byte	.LFE9
 4477 0078 0200     		.2byte	0x2
 4478 007a 7D       		.byte	0x7d
 4479 007b 18       		.sleb128 24
 4480 007c 00000000 		.4byte	0
 4481 0080 00000000 		.4byte	0
 4482              	.LLST3:
 4483 0084 00000000 		.4byte	.LFB10
 4484 0088 02000000 		.4byte	.LCFI6
 4485 008c 0200     		.2byte	0x2
 4486 008e 7D       		.byte	0x7d
 4487 008f 00       		.sleb128 0
 4488 0090 02000000 		.4byte	.LCFI6
 4489 0094 04000000 		.4byte	.LCFI7
 4490 0098 0200     		.2byte	0x2
 4491 009a 7D       		.byte	0x7d
 4492 009b 04       		.sleb128 4
 4493 009c 04000000 		.4byte	.LCFI7
 4494 00a0 94000000 		.4byte	.LFE10
 4495 00a4 0200     		.2byte	0x2
 4496 00a6 7D       		.byte	0x7d
 4497 00a7 18       		.sleb128 24
 4498 00a8 00000000 		.4byte	0
 4499 00ac 00000000 		.4byte	0
 4500              	.LLST4:
 4501 00b0 00000000 		.4byte	.LFB11
 4502 00b4 02000000 		.4byte	.LCFI8
 4503 00b8 0200     		.2byte	0x2
 4504 00ba 7D       		.byte	0x7d
 4505 00bb 00       		.sleb128 0
 4506 00bc 02000000 		.4byte	.LCFI8
 4507 00c0 0C000000 		.4byte	.LFE11
 4508 00c4 0200     		.2byte	0x2
 4509 00c6 7D       		.byte	0x7d
 4510 00c7 08       		.sleb128 8
 4511 00c8 00000000 		.4byte	0
 4512 00cc 00000000 		.4byte	0
 4513              	.LLST5:
 4514 00d0 00000000 		.4byte	.LFB12
 4515 00d4 02000000 		.4byte	.LCFI9
ARM GAS  C:\Users\z80\AppData\Local\Temp\cc1dRxCf.s 			page 83


 4516 00d8 0200     		.2byte	0x2
 4517 00da 7D       		.byte	0x7d
 4518 00db 00       		.sleb128 0
 4519 00dc 02000000 		.4byte	.LCFI9
 4520 00e0 04000000 		.4byte	.LCFI10
 4521 00e4 0200     		.2byte	0x2
 4522 00e6 7D       		.byte	0x7d
 4523 00e7 04       		.sleb128 4
 4524 00e8 04000000 		.4byte	.LCFI10
 4525 00ec 94010000 		.4byte	.LFE12
 4526 00f0 0200     		.2byte	0x2
 4527 00f2 7D       		.byte	0x7d
 4528 00f3 18       		.sleb128 24
 4529 00f4 00000000 		.4byte	0
 4530 00f8 00000000 		.4byte	0
 4531              	.LLST6:
 4532 00fc 00000000 		.4byte	.LFB13
 4533 0100 02000000 		.4byte	.LCFI11
 4534 0104 0200     		.2byte	0x2
 4535 0106 7D       		.byte	0x7d
 4536 0107 00       		.sleb128 0
 4537 0108 02000000 		.4byte	.LCFI11
 4538 010c 04000000 		.4byte	.LCFI12
 4539 0110 0200     		.2byte	0x2
 4540 0112 7D       		.byte	0x7d
 4541 0113 04       		.sleb128 4
 4542 0114 04000000 		.4byte	.LCFI12
 4543 0118 48000000 		.4byte	.LFE13
 4544 011c 0200     		.2byte	0x2
 4545 011e 7D       		.byte	0x7d
 4546 011f 18       		.sleb128 24
 4547 0120 00000000 		.4byte	0
 4548 0124 00000000 		.4byte	0
 4549              	.LLST7:
 4550 0128 00000000 		.4byte	.LFB14
 4551 012c 02000000 		.4byte	.LCFI13
 4552 0130 0200     		.2byte	0x2
 4553 0132 7D       		.byte	0x7d
 4554 0133 00       		.sleb128 0
 4555 0134 02000000 		.4byte	.LCFI13
 4556 0138 04000000 		.4byte	.LCFI14
 4557 013c 0200     		.2byte	0x2
 4558 013e 7D       		.byte	0x7d
 4559 013f 04       		.sleb128 4
 4560 0140 04000000 		.4byte	.LCFI14
 4561 0144 06010000 		.4byte	.LFE14
 4562 0148 0200     		.2byte	0x2
 4563 014a 7D       		.byte	0x7d
 4564 014b 18       		.sleb128 24
 4565 014c 00000000 		.4byte	0
 4566 0150 00000000 		.4byte	0
 4567              	.LLST8:
 4568 0154 00000000 		.4byte	.LFB15
 4569 0158 02000000 		.4byte	.LCFI15
 4570 015c 0200     		.2byte	0x2
 4571 015e 7D       		.byte	0x7d
 4572 015f 00       		.sleb128 0
ARM GAS  C:\Users\z80\AppData\Local\Temp\cc1dRxCf.s 			page 84


 4573 0160 02000000 		.4byte	.LCFI15
 4574 0164 04000000 		.4byte	.LCFI16
 4575 0168 0200     		.2byte	0x2
 4576 016a 7D       		.byte	0x7d
 4577 016b 04       		.sleb128 4
 4578 016c 04000000 		.4byte	.LCFI16
 4579 0170 8E000000 		.4byte	.LFE15
 4580 0174 0200     		.2byte	0x2
 4581 0176 7D       		.byte	0x7d
 4582 0177 20       		.sleb128 32
 4583 0178 00000000 		.4byte	0
 4584 017c 00000000 		.4byte	0
 4585              	.LLST9:
 4586 0180 00000000 		.4byte	.LFB16
 4587 0184 02000000 		.4byte	.LCFI17
 4588 0188 0200     		.2byte	0x2
 4589 018a 7D       		.byte	0x7d
 4590 018b 00       		.sleb128 0
 4591 018c 02000000 		.4byte	.LCFI17
 4592 0190 04000000 		.4byte	.LCFI18
 4593 0194 0200     		.2byte	0x2
 4594 0196 7D       		.byte	0x7d
 4595 0197 04       		.sleb128 4
 4596 0198 04000000 		.4byte	.LCFI18
 4597 019c 86000000 		.4byte	.LFE16
 4598 01a0 0200     		.2byte	0x2
 4599 01a2 7D       		.byte	0x7d
 4600 01a3 20       		.sleb128 32
 4601 01a4 00000000 		.4byte	0
 4602 01a8 00000000 		.4byte	0
 4603              	.LLST10:
 4604 01ac 00000000 		.4byte	.LFB17
 4605 01b0 02000000 		.4byte	.LCFI19
 4606 01b4 0200     		.2byte	0x2
 4607 01b6 7D       		.byte	0x7d
 4608 01b7 00       		.sleb128 0
 4609 01b8 02000000 		.4byte	.LCFI19
 4610 01bc 04000000 		.4byte	.LCFI20
 4611 01c0 0200     		.2byte	0x2
 4612 01c2 7D       		.byte	0x7d
 4613 01c3 04       		.sleb128 4
 4614 01c4 04000000 		.4byte	.LCFI20
 4615 01c8 34000000 		.4byte	.LFE17
 4616 01cc 0200     		.2byte	0x2
 4617 01ce 7D       		.byte	0x7d
 4618 01cf 10       		.sleb128 16
 4619 01d0 00000000 		.4byte	0
 4620 01d4 00000000 		.4byte	0
 4621              	.LLST11:
 4622 01d8 00000000 		.4byte	.LFB18
 4623 01dc 02000000 		.4byte	.LCFI21
 4624 01e0 0200     		.2byte	0x2
 4625 01e2 7D       		.byte	0x7d
 4626 01e3 00       		.sleb128 0
 4627 01e4 02000000 		.4byte	.LCFI21
 4628 01e8 14000000 		.4byte	.LFE18
 4629 01ec 0200     		.2byte	0x2
ARM GAS  C:\Users\z80\AppData\Local\Temp\cc1dRxCf.s 			page 85


 4630 01ee 7D       		.byte	0x7d
 4631 01ef 08       		.sleb128 8
 4632 01f0 00000000 		.4byte	0
 4633 01f4 00000000 		.4byte	0
 4634              	.LLST12:
 4635 01f8 00000000 		.4byte	.LFB19
 4636 01fc 02000000 		.4byte	.LCFI22
 4637 0200 0200     		.2byte	0x2
 4638 0202 7D       		.byte	0x7d
 4639 0203 00       		.sleb128 0
 4640 0204 02000000 		.4byte	.LCFI22
 4641 0208 04000000 		.4byte	.LCFI23
 4642 020c 0200     		.2byte	0x2
 4643 020e 7D       		.byte	0x7d
 4644 020f 04       		.sleb128 4
 4645 0210 04000000 		.4byte	.LCFI23
 4646 0214 D6010000 		.4byte	.LFE19
 4647 0218 0200     		.2byte	0x2
 4648 021a 7D       		.byte	0x7d
 4649 021b 18       		.sleb128 24
 4650 021c 00000000 		.4byte	0
 4651 0220 00000000 		.4byte	0
 4652              	.LLST13:
 4653 0224 00000000 		.4byte	.LFB20
 4654 0228 02000000 		.4byte	.LCFI24
 4655 022c 0200     		.2byte	0x2
 4656 022e 7D       		.byte	0x7d
 4657 022f 00       		.sleb128 0
 4658 0230 02000000 		.4byte	.LCFI24
 4659 0234 04000000 		.4byte	.LCFI25
 4660 0238 0200     		.2byte	0x2
 4661 023a 7D       		.byte	0x7d
 4662 023b 04       		.sleb128 4
 4663 023c 04000000 		.4byte	.LCFI25
 4664 0240 42000000 		.4byte	.LFE20
 4665 0244 0200     		.2byte	0x2
 4666 0246 7D       		.byte	0x7d
 4667 0247 10       		.sleb128 16
 4668 0248 00000000 		.4byte	0
 4669 024c 00000000 		.4byte	0
 4670              	.LLST14:
 4671 0250 00000000 		.4byte	.LFB21
 4672 0254 02000000 		.4byte	.LCFI26
 4673 0258 0200     		.2byte	0x2
 4674 025a 7D       		.byte	0x7d
 4675 025b 00       		.sleb128 0
 4676 025c 02000000 		.4byte	.LCFI26
 4677 0260 04000000 		.4byte	.LCFI27
 4678 0264 0200     		.2byte	0x2
 4679 0266 7D       		.byte	0x7d
 4680 0267 04       		.sleb128 4
 4681 0268 04000000 		.4byte	.LCFI27
 4682 026c 78010000 		.4byte	.LFE21
 4683 0270 0200     		.2byte	0x2
 4684 0272 7D       		.byte	0x7d
 4685 0273 18       		.sleb128 24
 4686 0274 00000000 		.4byte	0
ARM GAS  C:\Users\z80\AppData\Local\Temp\cc1dRxCf.s 			page 86


 4687 0278 00000000 		.4byte	0
 4688              	.LLST15:
 4689 027c 00000000 		.4byte	.LFB22
 4690 0280 02000000 		.4byte	.LCFI28
 4691 0284 0200     		.2byte	0x2
 4692 0286 7D       		.byte	0x7d
 4693 0287 00       		.sleb128 0
 4694 0288 02000000 		.4byte	.LCFI28
 4695 028c 04000000 		.4byte	.LCFI29
 4696 0290 0200     		.2byte	0x2
 4697 0292 7D       		.byte	0x7d
 4698 0293 04       		.sleb128 4
 4699 0294 04000000 		.4byte	.LCFI29
 4700 0298 08010000 		.4byte	.LFE22
 4701 029c 0200     		.2byte	0x2
 4702 029e 7D       		.byte	0x7d
 4703 029f 10       		.sleb128 16
 4704 02a0 00000000 		.4byte	0
 4705 02a4 00000000 		.4byte	0
 4706              	.LLST16:
 4707 02a8 00000000 		.4byte	.LFB23
 4708 02ac 02000000 		.4byte	.LCFI30
 4709 02b0 0200     		.2byte	0x2
 4710 02b2 7D       		.byte	0x7d
 4711 02b3 00       		.sleb128 0
 4712 02b4 02000000 		.4byte	.LCFI30
 4713 02b8 08000000 		.4byte	.LFE23
 4714 02bc 0200     		.2byte	0x2
 4715 02be 7D       		.byte	0x7d
 4716 02bf 08       		.sleb128 8
 4717 02c0 00000000 		.4byte	0
 4718 02c4 00000000 		.4byte	0
 4719              	.LLST17:
 4720 02c8 00000000 		.4byte	.LFB24
 4721 02cc 02000000 		.4byte	.LCFI31
 4722 02d0 0200     		.2byte	0x2
 4723 02d2 7D       		.byte	0x7d
 4724 02d3 00       		.sleb128 0
 4725 02d4 02000000 		.4byte	.LCFI31
 4726 02d8 04000000 		.4byte	.LCFI32
 4727 02dc 0200     		.2byte	0x2
 4728 02de 7D       		.byte	0x7d
 4729 02df 04       		.sleb128 4
 4730 02e0 04000000 		.4byte	.LCFI32
 4731 02e4 BC000000 		.4byte	.LFE24
 4732 02e8 0200     		.2byte	0x2
 4733 02ea 7D       		.byte	0x7d
 4734 02eb 10       		.sleb128 16
 4735 02ec 00000000 		.4byte	0
 4736 02f0 00000000 		.4byte	0
 4737              	.LLST18:
 4738 02f4 00000000 		.4byte	.LFB25
 4739 02f8 02000000 		.4byte	.LCFI33
 4740 02fc 0200     		.2byte	0x2
 4741 02fe 7D       		.byte	0x7d
 4742 02ff 00       		.sleb128 0
 4743 0300 02000000 		.4byte	.LCFI33
ARM GAS  C:\Users\z80\AppData\Local\Temp\cc1dRxCf.s 			page 87


 4744 0304 14000000 		.4byte	.LFE25
 4745 0308 0200     		.2byte	0x2
 4746 030a 7D       		.byte	0x7d
 4747 030b 08       		.sleb128 8
 4748 030c 00000000 		.4byte	0
 4749 0310 00000000 		.4byte	0
 4750              	.LLST19:
 4751 0314 00000000 		.4byte	.LFB26
 4752 0318 02000000 		.4byte	.LCFI34
 4753 031c 0200     		.2byte	0x2
 4754 031e 7D       		.byte	0x7d
 4755 031f 00       		.sleb128 0
 4756 0320 02000000 		.4byte	.LCFI34
 4757 0324 04000000 		.4byte	.LCFI35
 4758 0328 0200     		.2byte	0x2
 4759 032a 7D       		.byte	0x7d
 4760 032b 04       		.sleb128 4
 4761 032c 04000000 		.4byte	.LCFI35
 4762 0330 B4000000 		.4byte	.LFE26
 4763 0334 0200     		.2byte	0x2
 4764 0336 7D       		.byte	0x7d
 4765 0337 10       		.sleb128 16
 4766 0338 00000000 		.4byte	0
 4767 033c 00000000 		.4byte	0
 4768              	.LLST20:
 4769 0340 00000000 		.4byte	.LFB27
 4770 0344 02000000 		.4byte	.LCFI36
 4771 0348 0200     		.2byte	0x2
 4772 034a 7D       		.byte	0x7d
 4773 034b 00       		.sleb128 0
 4774 034c 02000000 		.4byte	.LCFI36
 4775 0350 10000000 		.4byte	.LFE27
 4776 0354 0200     		.2byte	0x2
 4777 0356 7D       		.byte	0x7d
 4778 0357 08       		.sleb128 8
 4779 0358 00000000 		.4byte	0
 4780 035c 00000000 		.4byte	0
 4781              	.LLST21:
 4782 0360 00000000 		.4byte	.LFB28
 4783 0364 02000000 		.4byte	.LCFI37
 4784 0368 0200     		.2byte	0x2
 4785 036a 7D       		.byte	0x7d
 4786 036b 00       		.sleb128 0
 4787 036c 02000000 		.4byte	.LCFI37
 4788 0370 04000000 		.4byte	.LCFI38
 4789 0374 0200     		.2byte	0x2
 4790 0376 7D       		.byte	0x7d
 4791 0377 04       		.sleb128 4
 4792 0378 04000000 		.4byte	.LCFI38
 4793 037c 94000000 		.4byte	.LFE28
 4794 0380 0200     		.2byte	0x2
 4795 0382 7D       		.byte	0x7d
 4796 0383 10       		.sleb128 16
 4797 0384 00000000 		.4byte	0
 4798 0388 00000000 		.4byte	0
 4799              	.LLST22:
 4800 038c 00000000 		.4byte	.LFB29
ARM GAS  C:\Users\z80\AppData\Local\Temp\cc1dRxCf.s 			page 88


 4801 0390 02000000 		.4byte	.LCFI39
 4802 0394 0200     		.2byte	0x2
 4803 0396 7D       		.byte	0x7d
 4804 0397 00       		.sleb128 0
 4805 0398 02000000 		.4byte	.LCFI39
 4806 039c 44010000 		.4byte	.LFE29
 4807 03a0 0200     		.2byte	0x2
 4808 03a2 7D       		.byte	0x7d
 4809 03a3 08       		.sleb128 8
 4810 03a4 00000000 		.4byte	0
 4811 03a8 00000000 		.4byte	0
 4812              		.section	.debug_aranges,"",%progbits
 4813 0000 CC000000 		.4byte	0xcc
 4814 0004 0200     		.2byte	0x2
 4815 0006 00000000 		.4byte	.Ldebug_info0
 4816 000a 04       		.byte	0x4
 4817 000b 00       		.byte	0
 4818 000c 0000     		.2byte	0
 4819 000e 0000     		.2byte	0
 4820 0010 00000000 		.4byte	.LFB7
 4821 0014 2A000000 		.4byte	.LFE7-.LFB7
 4822 0018 00000000 		.4byte	.LFB8
 4823 001c 4A000000 		.4byte	.LFE8-.LFB8
 4824 0020 00000000 		.4byte	.LFB9
 4825 0024 94000000 		.4byte	.LFE9-.LFB9
 4826 0028 00000000 		.4byte	.LFB10
 4827 002c 94000000 		.4byte	.LFE10-.LFB10
 4828 0030 00000000 		.4byte	.LFB11
 4829 0034 0C000000 		.4byte	.LFE11-.LFB11
 4830 0038 00000000 		.4byte	.LFB12
 4831 003c 94010000 		.4byte	.LFE12-.LFB12
 4832 0040 00000000 		.4byte	.LFB13
 4833 0044 48000000 		.4byte	.LFE13-.LFB13
 4834 0048 00000000 		.4byte	.LFB14
 4835 004c 06010000 		.4byte	.LFE14-.LFB14
 4836 0050 00000000 		.4byte	.LFB15
 4837 0054 8E000000 		.4byte	.LFE15-.LFB15
 4838 0058 00000000 		.4byte	.LFB16
 4839 005c 86000000 		.4byte	.LFE16-.LFB16
 4840 0060 00000000 		.4byte	.LFB17
 4841 0064 34000000 		.4byte	.LFE17-.LFB17
 4842 0068 00000000 		.4byte	.LFB18
 4843 006c 14000000 		.4byte	.LFE18-.LFB18
 4844 0070 00000000 		.4byte	.LFB19
 4845 0074 D6010000 		.4byte	.LFE19-.LFB19
 4846 0078 00000000 		.4byte	.LFB20
 4847 007c 42000000 		.4byte	.LFE20-.LFB20
 4848 0080 00000000 		.4byte	.LFB21
 4849 0084 78010000 		.4byte	.LFE21-.LFB21
 4850 0088 00000000 		.4byte	.LFB22
 4851 008c 08010000 		.4byte	.LFE22-.LFB22
 4852 0090 00000000 		.4byte	.LFB23
 4853 0094 08000000 		.4byte	.LFE23-.LFB23
 4854 0098 00000000 		.4byte	.LFB24
 4855 009c BC000000 		.4byte	.LFE24-.LFB24
 4856 00a0 00000000 		.4byte	.LFB25
 4857 00a4 14000000 		.4byte	.LFE25-.LFB25
ARM GAS  C:\Users\z80\AppData\Local\Temp\cc1dRxCf.s 			page 89


 4858 00a8 00000000 		.4byte	.LFB26
 4859 00ac B4000000 		.4byte	.LFE26-.LFB26
 4860 00b0 00000000 		.4byte	.LFB27
 4861 00b4 10000000 		.4byte	.LFE27-.LFB27
 4862 00b8 00000000 		.4byte	.LFB28
 4863 00bc 94000000 		.4byte	.LFE28-.LFB28
 4864 00c0 00000000 		.4byte	.LFB29
 4865 00c4 44010000 		.4byte	.LFE29-.LFB29
 4866 00c8 00000000 		.4byte	0
 4867 00cc 00000000 		.4byte	0
 4868              		.section	.debug_ranges,"",%progbits
 4869              	.Ldebug_ranges0:
 4870 0000 00000000 		.4byte	.LFB7
 4871 0004 2A000000 		.4byte	.LFE7
 4872 0008 00000000 		.4byte	.LFB8
 4873 000c 4A000000 		.4byte	.LFE8
 4874 0010 00000000 		.4byte	.LFB9
 4875 0014 94000000 		.4byte	.LFE9
 4876 0018 00000000 		.4byte	.LFB10
 4877 001c 94000000 		.4byte	.LFE10
 4878 0020 00000000 		.4byte	.LFB11
 4879 0024 0C000000 		.4byte	.LFE11
 4880 0028 00000000 		.4byte	.LFB12
 4881 002c 94010000 		.4byte	.LFE12
 4882 0030 00000000 		.4byte	.LFB13
 4883 0034 48000000 		.4byte	.LFE13
 4884 0038 00000000 		.4byte	.LFB14
 4885 003c 06010000 		.4byte	.LFE14
 4886 0040 00000000 		.4byte	.LFB15
 4887 0044 8E000000 		.4byte	.LFE15
 4888 0048 00000000 		.4byte	.LFB16
 4889 004c 86000000 		.4byte	.LFE16
 4890 0050 00000000 		.4byte	.LFB17
 4891 0054 34000000 		.4byte	.LFE17
 4892 0058 00000000 		.4byte	.LFB18
 4893 005c 14000000 		.4byte	.LFE18
 4894 0060 00000000 		.4byte	.LFB19
 4895 0064 D6010000 		.4byte	.LFE19
 4896 0068 00000000 		.4byte	.LFB20
 4897 006c 42000000 		.4byte	.LFE20
 4898 0070 00000000 		.4byte	.LFB21
 4899 0074 78010000 		.4byte	.LFE21
 4900 0078 00000000 		.4byte	.LFB22
 4901 007c 08010000 		.4byte	.LFE22
 4902 0080 00000000 		.4byte	.LFB23
 4903 0084 08000000 		.4byte	.LFE23
 4904 0088 00000000 		.4byte	.LFB24
 4905 008c BC000000 		.4byte	.LFE24
 4906 0090 00000000 		.4byte	.LFB25
 4907 0094 14000000 		.4byte	.LFE25
 4908 0098 00000000 		.4byte	.LFB26
 4909 009c B4000000 		.4byte	.LFE26
 4910 00a0 00000000 		.4byte	.LFB27
 4911 00a4 10000000 		.4byte	.LFE27
 4912 00a8 00000000 		.4byte	.LFB28
 4913 00ac 94000000 		.4byte	.LFE28
 4914 00b0 00000000 		.4byte	.LFB29
ARM GAS  C:\Users\z80\AppData\Local\Temp\cc1dRxCf.s 			page 90


 4915 00b4 44010000 		.4byte	.LFE29
 4916 00b8 00000000 		.4byte	0
 4917 00bc 00000000 		.4byte	0
 4918              		.section	.debug_line,"",%progbits
 4919              	.Ldebug_line0:
 4920 0000 7B050000 		.section	.debug_str,"MS",%progbits,1
 4920      0200CB01 
 4920      00000201 
 4920      FB0E0D00 
 4920      01010101 
 4921              	.LASF36:
 4922 0000 705F6D73 		.ascii	"p_msg\000"
 4922      6700
 4923              	.LASF2:
 4924 0006 73697A65 		.ascii	"size_t\000"
 4924      5F7400
 4925              	.LASF97:
 4926 000d 7072696F 		.ascii	"prio\000"
 4926      00
 4927              	.LASF68:
 4928 0012 7264796D 		.ascii	"rdymsg\000"
 4928      736700
 4929              	.LASF12:
 4930 0019 75696E74 		.ascii	"uint64_t\000"
 4930      36345F74 
 4930      00
 4931              	.LASF13:
 4932 0022 6C6F6E67 		.ascii	"long long unsigned int\000"
 4932      206C6F6E 
 4932      6720756E 
 4932      7369676E 
 4932      65642069 
 4933              	.LASF69:
 4934 0039 65786974 		.ascii	"exitcode\000"
 4934      636F6465 
 4934      00
 4935              	.LASF100:
 4936 0042 626D6B37 		.ascii	"bmk7_execute\000"
 4936      5F657865 
 4936      63757465 
 4936      00
 4937              	.LASF25:
 4938 004f 705F7072 		.ascii	"p_prio\000"
 4938      696F00
 4939              	.LASF74:
 4940 0056 715F7761 		.ascii	"q_waiting\000"
 4940      6974696E 
 4940      6700
 4941              	.LASF11:
 4942 0060 6C6F6E67 		.ascii	"long long int\000"
 4942      206C6F6E 
 4942      6720696E 
 4942      7400
 4943              	.LASF1:
 4944 006e 7369676E 		.ascii	"signed char\000"
 4944      65642063 
 4944      68617200 
ARM GAS  C:\Users\z80\AppData\Local\Temp\cc1dRxCf.s 			page 91


 4945              	.LASF14:
 4946 007a 626F6F6C 		.ascii	"bool_t\000"
 4946      5F7400
 4947              	.LASF65:
 4948 0081 6D5F7175 		.ascii	"m_queue\000"
 4948      65756500 
 4949              	.LASF99:
 4950 0089 74687265 		.ascii	"thread3\000"
 4950      61643300 
 4951              	.LASF89:
 4952 0091 6D73675F 		.ascii	"msg_loop_test\000"
 4952      6C6F6F70 
 4952      5F746573 
 4952      7400
 4953              	.LASF133:
 4954 009f 433A5C70 		.ascii	"C:\\projects\\digitizer.git\\firmware\\digitizer\000"
 4954      726F6A65 
 4954      6374735C 
 4954      64696769 
 4954      74697A65 
 4955              	.LASF8:
 4956 00cc 6C6F6E67 		.ascii	"long int\000"
 4956      20696E74 
 4956      00
 4957              	.LASF16:
 4958 00d5 74737461 		.ascii	"tstate_t\000"
 4958      74655F74 
 4958      00
 4959              	.LASF90:
 4960 00de 626D6B31 		.ascii	"bmk1_execute\000"
 4960      5F657865 
 4960      63757465 
 4960      00
 4961              	.LASF76:
 4962 00eb 715F6275 		.ascii	"q_buffer\000"
 4962      66666572 
 4962      00
 4963              	.LASF78:
 4964 00f4 715F7772 		.ascii	"q_wrptr\000"
 4964      70747200 
 4965              	.LASF27:
 4966 00fc 705F6E65 		.ascii	"p_newer\000"
 4966      77657200 
 4967              	.LASF62:
 4968 0104 735F7175 		.ascii	"s_queue\000"
 4968      65756500 
 4969              	.LASF102:
 4970 010c 626D6B38 		.ascii	"bmk8_execute\000"
 4970      5F657865 
 4970      63757465 
 4970      00
 4971              	.LASF56:
 4972 0119 725F6E65 		.ascii	"r_newer\000"
 4972      77657200 
 4973              	.LASF42:
 4974 0121 72656761 		.ascii	"regarm_t\000"
 4974      726D5F74 
ARM GAS  C:\Users\z80\AppData\Local\Temp\cc1dRxCf.s 			page 92


 4974      00
 4975              	.LASF49:
 4976 012a 76745F70 		.ascii	"vt_prev\000"
 4976      72657600 
 4977              	.LASF128:
 4978 0132 74657374 		.ascii	"testbmk12\000"
 4978      626D6B31 
 4978      3200
 4979              	.LASF112:
 4980 013c 73656D31 		.ascii	"sem1\000"
 4980      00
 4981              	.LASF111:
 4982 0141 626D6B31 		.ascii	"bmk13_execute\000"
 4982      335F6578 
 4982      65637574 
 4982      6500
 4983              	.LASF123:
 4984 014f 74657374 		.ascii	"testbmk7\000"
 4984      626D6B37 
 4984      00
 4985              	.LASF21:
 4986 0158 636E745F 		.ascii	"cnt_t\000"
 4986      7400
 4987              	.LASF30:
 4988 015e 705F7374 		.ascii	"p_stklimit\000"
 4988      6B6C696D 
 4988      697400
 4989              	.LASF0:
 4990 0169 756E7369 		.ascii	"unsigned int\000"
 4990      676E6564 
 4990      20696E74 
 4990      00
 4991              	.LASF108:
 4992 0176 626D6B31 		.ascii	"bmk11_execute\000"
 4992      315F6578 
 4992      65637574 
 4992      6500
 4993              	.LASF48:
 4994 0184 76745F6E 		.ascii	"vt_next\000"
 4994      65787400 
 4995              	.LASF105:
 4996 018c 626D6B31 		.ascii	"bmk10_execute\000"
 4996      305F6578 
 4996      65637574 
 4996      6500
 4997              	.LASF10:
 4998 019a 6C6F6E67 		.ascii	"long unsigned int\000"
 4998      20756E73 
 4998      69676E65 
 4998      6420696E 
 4998      7400
 4999              	.LASF86:
 5000 01ac 74656172 		.ascii	"teardown\000"
 5000      646F776E 
 5000      00
 5001              	.LASF116:
 5002 01b5 74657374 		.ascii	"test_timer_done\000"
ARM GAS  C:\Users\z80\AppData\Local\Temp\cc1dRxCf.s 			page 93


 5002      5F74696D 
 5002      65725F64 
 5002      6F6E6500 
 5003              	.LASF122:
 5004 01c5 74657374 		.ascii	"testbmk6\000"
 5004      626D6B36 
 5004      00
 5005              	.LASF91:
 5006 01ce 626D6B32 		.ascii	"bmk2_execute\000"
 5006      5F657865 
 5006      63757465 
 5006      00
 5007              	.LASF84:
 5008 01db 6E616D65 		.ascii	"name\000"
 5008      00
 5009              	.LASF63:
 5010 01e0 735F636E 		.ascii	"s_cnt\000"
 5010      7400
 5011              	.LASF45:
 5012 01e6 636F6E74 		.ascii	"context\000"
 5012      65787400 
 5013              	.LASF6:
 5014 01ee 73686F72 		.ascii	"short unsigned int\000"
 5014      7420756E 
 5014      7369676E 
 5014      65642069 
 5014      6E7400
 5015              	.LASF113:
 5016 0201 6D747831 		.ascii	"mtx1\000"
 5016      00
 5017              	.LASF18:
 5018 0206 6D73675F 		.ascii	"msg_t\000"
 5018      7400
 5019              	.LASF103:
 5020 020c 626D6B39 		.ascii	"bmk9_execute\000"
 5020      5F657865 
 5020      63757465 
 5020      00
 5021              	.LASF15:
 5022 0219 746D6F64 		.ascii	"tmode_t\000"
 5022      655F7400 
 5023              	.LASF41:
 5024 0221 54687265 		.ascii	"ThreadsList\000"
 5024      6164734C 
 5024      69737400 
 5025              	.LASF19:
 5026 022d 6576656E 		.ascii	"eventmask_t\000"
 5026      746D6173 
 5026      6B5F7400 
 5027              	.LASF82:
 5028 0239 496E7075 		.ascii	"InputQueue\000"
 5028      74517565 
 5028      756500
 5029              	.LASF64:
 5030 0244 4D757465 		.ascii	"Mutex\000"
 5030      7800
 5031              	.LASF121:
ARM GAS  C:\Users\z80\AppData\Local\Temp\cc1dRxCf.s 			page 94


 5032 024a 74657374 		.ascii	"testbmk5\000"
 5032      626D6B35 
 5032      00
 5033              	.LASF73:
 5034 0253 47656E65 		.ascii	"GenericQueue\000"
 5034      72696351 
 5034      75657565 
 5034      00
 5035              	.LASF43:
 5036 0260 73746B61 		.ascii	"stkalign_t\000"
 5036      6C69676E 
 5036      5F7400
 5037              	.LASF124:
 5038 026b 74657374 		.ascii	"testbmk8\000"
 5038      626D6B38 
 5038      00
 5039              	.LASF132:
 5040 0274 2E2E2F63 		.ascii	"../chibios_2.4.x/test/testbmk.c\000"
 5040      68696269 
 5040      6F735F32 
 5040      2E342E78 
 5040      2F746573 
 5041              	.LASF50:
 5042 0294 76745F74 		.ascii	"vt_time\000"
 5042      696D6500 
 5043              	.LASF107:
 5044 029c 626D6B31 		.ascii	"bmk11_setup\000"
 5044      315F7365 
 5044      74757000 
 5045              	.LASF117:
 5046 02a8 74657374 		.ascii	"testbmk1\000"
 5046      626D6B31 
 5046      00
 5047              	.LASF118:
 5048 02b1 74657374 		.ascii	"testbmk2\000"
 5048      626D6B32 
 5048      00
 5049              	.LASF119:
 5050 02ba 74657374 		.ascii	"testbmk3\000"
 5050      626D6B33 
 5050      00
 5051              	.LASF120:
 5052 02c3 74657374 		.ascii	"testbmk4\000"
 5052      626D6B34 
 5052      00
 5053              	.LASF75:
 5054 02cc 715F636F 		.ascii	"q_counter\000"
 5054      756E7465 
 5054      7200
 5055              	.LASF51:
 5056 02d6 76745F66 		.ascii	"vt_func\000"
 5056      756E6300 
 5057              	.LASF93:
 5058 02de 626D6B33 		.ascii	"bmk3_execute\000"
 5058      5F657865 
 5058      63757465 
 5058      00
ARM GAS  C:\Users\z80\AppData\Local\Temp\cc1dRxCf.s 			page 95


 5059              	.LASF125:
 5060 02eb 74657374 		.ascii	"testbmk9\000"
 5060      626D6B39 
 5060      00
 5061              	.LASF109:
 5062 02f4 626D6B31 		.ascii	"bmk12_setup\000"
 5062      325F7365 
 5062      74757000 
 5063              	.LASF104:
 5064 0300 70617261 		.ascii	"param\000"
 5064      6D00
 5065              	.LASF28:
 5066 0306 705F6F6C 		.ascii	"p_older\000"
 5066      64657200 
 5067              	.LASF88:
 5068 030e 74687265 		.ascii	"thread1\000"
 5068      61643100 
 5069              	.LASF92:
 5070 0316 74687265 		.ascii	"thread2\000"
 5070      61643200 
 5071              	.LASF55:
 5072 031e 725F6374 		.ascii	"r_ctx\000"
 5072      7800
 5073              	.LASF134:
 5074 0324 74687265 		.ascii	"thread4\000"
 5074      61643400 
 5075              	.LASF40:
 5076 032c 54687265 		.ascii	"ThreadsQueue\000"
 5076      61647351 
 5076      75657565 
 5076      00
 5077              	.LASF101:
 5078 0339 74687265 		.ascii	"thread8\000"
 5078      61643800 
 5079              	.LASF85:
 5080 0341 73657475 		.ascii	"setup\000"
 5080      7000
 5081              	.LASF59:
 5082 0347 725F6375 		.ascii	"r_current\000"
 5082      7272656E 
 5082      7400
 5083              	.LASF57:
 5084 0351 725F6F6C 		.ascii	"r_older\000"
 5084      64657200 
 5085              	.LASF81:
 5086 0359 716E6F74 		.ascii	"qnotify_t\000"
 5086      6966795F 
 5086      7400
 5087              	.LASF24:
 5088 0363 705F7072 		.ascii	"p_prev\000"
 5088      657600
 5089              	.LASF87:
 5090 036a 65786563 		.ascii	"execute\000"
 5090      75746500 
 5091              	.LASF17:
 5092 0372 74707269 		.ascii	"tprio_t\000"
 5092      6F5F7400 
ARM GAS  C:\Users\z80\AppData\Local\Temp\cc1dRxCf.s 			page 96


 5093              	.LASF79:
 5094 037a 715F7264 		.ascii	"q_rdptr\000"
 5094      70747200 
 5095              	.LASF110:
 5096 0382 626D6B31 		.ascii	"bmk12_execute\000"
 5096      325F6578 
 5096      65637574 
 5096      6500
 5097              	.LASF7:
 5098 0390 696E7433 		.ascii	"int32_t\000"
 5098      325F7400 
 5099              	.LASF4:
 5100 0398 756E7369 		.ascii	"unsigned char\000"
 5100      676E6564 
 5100      20636861 
 5100      7200
 5101              	.LASF38:
 5102 03a6 705F6D74 		.ascii	"p_mtxlist\000"
 5102      786C6973 
 5102      7400
 5103              	.LASF5:
 5104 03b0 73686F72 		.ascii	"short int\000"
 5104      7420696E 
 5104      7400
 5105              	.LASF31:
 5106 03ba 705F7374 		.ascii	"p_state\000"
 5106      61746500 
 5107              	.LASF115:
 5108 03c2 74687265 		.ascii	"threads\000"
 5108      61647300 
 5109              	.LASF54:
 5110 03ca 725F7072 		.ascii	"r_prio\000"
 5110      696F00
 5111              	.LASF71:
 5112 03d1 65776D61 		.ascii	"ewmask\000"
 5112      736B00
 5113              	.LASF23:
 5114 03d8 705F6E65 		.ascii	"p_next\000"
 5114      787400
 5115              	.LASF32:
 5116 03df 705F666C 		.ascii	"p_flags\000"
 5116      61677300 
 5117              	.LASF130:
 5118 03e7 70617474 		.ascii	"patternbmk\000"
 5118      65726E62 
 5118      6D6B00
 5119              	.LASF22:
 5120 03f2 54687265 		.ascii	"Thread\000"
 5120      616400
 5121              	.LASF126:
 5122 03f9 74657374 		.ascii	"testbmk10\000"
 5122      626D6B31 
 5122      3000
 5123              	.LASF127:
 5124 0403 74657374 		.ascii	"testbmk11\000"
 5124      626D6B31 
 5124      3100
ARM GAS  C:\Users\z80\AppData\Local\Temp\cc1dRxCf.s 			page 97


 5125              	.LASF83:
 5126 040d 74657374 		.ascii	"testcase\000"
 5126      63617365 
 5126      00
 5127              	.LASF129:
 5128 0416 74657374 		.ascii	"testbmk13\000"
 5128      626D6B31 
 5128      3300
 5129              	.LASF37:
 5130 0420 705F6570 		.ascii	"p_epending\000"
 5130      656E6469 
 5130      6E6700
 5131              	.LASF9:
 5132 042b 75696E74 		.ascii	"uint32_t\000"
 5132      33325F74 
 5132      00
 5133              	.LASF53:
 5134 0434 725F7175 		.ascii	"r_queue\000"
 5134      65756500 
 5135              	.LASF47:
 5136 043c 56697274 		.ascii	"VirtualTimer\000"
 5136      75616C54 
 5136      696D6572 
 5136      00
 5137              	.LASF131:
 5138 0449 474E5520 		.ascii	"GNU C 4.6.3\000"
 5138      4320342E 
 5138      362E3300 
 5139              	.LASF72:
 5140 0455 63686172 		.ascii	"char\000"
 5140      00
 5141              	.LASF94:
 5142 045a 73656C66 		.ascii	"self\000"
 5142      00
 5143              	.LASF67:
 5144 045f 6D5F6E65 		.ascii	"m_next\000"
 5144      787400
 5145              	.LASF20:
 5146 0466 73797374 		.ascii	"systime_t\000"
 5146      696D655F 
 5146      7400
 5147              	.LASF39:
 5148 0470 705F7265 		.ascii	"p_realprio\000"
 5148      616C7072 
 5148      696F00
 5149              	.LASF46:
 5150 047b 76746675 		.ascii	"vtfunc_t\000"
 5150      6E635F74 
 5150      00
 5151              	.LASF96:
 5152 0484 626D6B35 		.ascii	"bmk5_execute\000"
 5152      5F657865 
 5152      63757465 
 5152      00
 5153              	.LASF33:
 5154 0491 705F7469 		.ascii	"p_time\000"
 5154      6D6500
ARM GAS  C:\Users\z80\AppData\Local\Temp\cc1dRxCf.s 			page 98


 5155              	.LASF44:
 5156 0498 696E7463 		.ascii	"intctx\000"
 5156      747800
 5157              	.LASF35:
 5158 049f 705F6D73 		.ascii	"p_msgqueue\000"
 5158      67717565 
 5158      756500
 5159              	.LASF52:
 5160 04aa 76745F70 		.ascii	"vt_par\000"
 5160      617200
 5161              	.LASF61:
 5162 04b1 53656D61 		.ascii	"Semaphore\000"
 5162      70686F72 
 5162      6500
 5163              	.LASF77:
 5164 04bb 715F746F 		.ascii	"q_top\000"
 5164      7000
 5165              	.LASF60:
 5166 04c1 52656164 		.ascii	"ReadyList\000"
 5166      794C6973 
 5166      7400
 5167              	.LASF80:
 5168 04cb 715F6E6F 		.ascii	"q_notify\000"
 5168      74696679 
 5168      00
 5169              	.LASF114:
 5170 04d4 726C6973 		.ascii	"rlist\000"
 5170      7400
 5171              	.LASF3:
 5172 04da 75696E74 		.ascii	"uint8_t\000"
 5172      385F7400 
 5173              	.LASF70:
 5174 04e2 77746F62 		.ascii	"wtobjp\000"
 5174      6A7000
 5175              	.LASF29:
 5176 04e9 705F6E61 		.ascii	"p_name\000"
 5176      6D6500
 5177              	.LASF106:
 5178 04f0 626D6B37 		.ascii	"bmk7_setup\000"
 5178      5F736574 
 5178      757000
 5179              	.LASF95:
 5180 04fb 626D6B34 		.ascii	"bmk4_execute\000"
 5180      5F657865 
 5180      63757465 
 5180      00
 5181              	.LASF98:
 5182 0508 626D6B36 		.ascii	"bmk6_execute\000"
 5182      5F657865 
 5182      63757465 
 5182      00
 5183              	.LASF58:
 5184 0515 725F7072 		.ascii	"r_preempt\000"
 5184      65656D70 
 5184      7400
 5185              	.LASF66:
 5186 051f 6D5F6F77 		.ascii	"m_owner\000"
ARM GAS  C:\Users\z80\AppData\Local\Temp\cc1dRxCf.s 			page 99


 5186      6E657200 
 5187              	.LASF26:
 5188 0527 705F6374 		.ascii	"p_ctx\000"
 5188      7800
 5189              	.LASF34:
 5190 052d 705F7761 		.ascii	"p_waiting\000"
 5190      6974696E 
 5190      6700
 5191              		.ident	"GCC: (Sourcery CodeBench Lite 2012.03-56) 4.6.3"
ARM GAS  C:\Users\z80\AppData\Local\Temp\cc1dRxCf.s 			page 100


DEFINED SYMBOLS
                            *ABS*:00000000 testbmk.c
C:\Users\z80\AppData\Local\Temp\cc1dRxCf.s:19     .bss.sem1:00000000 $d
C:\Users\z80\AppData\Local\Temp\cc1dRxCf.s:22     .bss.sem1:00000000 sem1
C:\Users\z80\AppData\Local\Temp\cc1dRxCf.s:25     .bss.mtx1:00000000 $d
C:\Users\z80\AppData\Local\Temp\cc1dRxCf.s:28     .bss.mtx1:00000000 mtx1
C:\Users\z80\AppData\Local\Temp\cc1dRxCf.s:31     .text.thread1:00000000 $t
C:\Users\z80\AppData\Local\Temp\cc1dRxCf.s:36     .text.thread1:00000000 thread1
C:\Users\z80\AppData\Local\Temp\cc1dRxCf.s:77     .text.msg_loop_test:00000000 $t
C:\Users\z80\AppData\Local\Temp\cc1dRxCf.s:82     .text.msg_loop_test:00000000 msg_loop_test
C:\Users\z80\AppData\Local\Temp\cc1dRxCf.s:133    .rodata:00000000 $d
C:\Users\z80\AppData\Local\Temp\cc1dRxCf.s:134    .rodata:00000000 .LC0
C:\Users\z80\AppData\Local\Temp\cc1dRxCf.s:137    .rodata:00000010 .LC1
C:\Users\z80\AppData\Local\Temp\cc1dRxCf.s:140    .rodata:0000001c .LC2
C:\Users\z80\AppData\Local\Temp\cc1dRxCf.s:143    .text.bmk1_execute:00000000 $t
C:\Users\z80\AppData\Local\Temp\cc1dRxCf.s:148    .text.bmk1_execute:00000000 bmk1_execute
C:\Users\z80\AppData\Local\Temp\cc1dRxCf.s:226    .rodata.testbmk1:00000000 testbmk1
C:\Users\z80\AppData\Local\Temp\cc1dRxCf.s:223    .rodata.testbmk1:00000000 $d
C:\Users\z80\AppData\Local\Temp\cc1dRxCf.s:232    .text.bmk2_execute:00000000 $t
C:\Users\z80\AppData\Local\Temp\cc1dRxCf.s:237    .text.bmk2_execute:00000000 bmk2_execute
C:\Users\z80\AppData\Local\Temp\cc1dRxCf.s:315    .rodata.testbmk2:00000000 testbmk2
C:\Users\z80\AppData\Local\Temp\cc1dRxCf.s:312    .rodata.testbmk2:00000000 $d
C:\Users\z80\AppData\Local\Temp\cc1dRxCf.s:321    .text.thread2:00000000 $t
C:\Users\z80\AppData\Local\Temp\cc1dRxCf.s:326    .text.thread2:00000000 thread2
C:\Users\z80\AppData\Local\Temp\cc1dRxCf.s:347    .text.bmk3_execute:00000000 $t
C:\Users\z80\AppData\Local\Temp\cc1dRxCf.s:352    .text.bmk3_execute:00000000 bmk3_execute
C:\Users\z80\AppData\Local\Temp\cc1dRxCf.s:514    .rodata.testbmk3:00000000 testbmk3
C:\Users\z80\AppData\Local\Temp\cc1dRxCf.s:511    .rodata.testbmk3:00000000 $d
C:\Users\z80\AppData\Local\Temp\cc1dRxCf.s:520    .text.thread4:00000000 $t
C:\Users\z80\AppData\Local\Temp\cc1dRxCf.s:526    .text.thread4:00000000 thread4
C:\Users\z80\AppData\Local\Temp\cc1dRxCf.s:585    .text.bmk4_execute:00000000 $t
C:\Users\z80\AppData\Local\Temp\cc1dRxCf.s:590    .text.bmk4_execute:00000000 bmk4_execute
C:\Users\z80\AppData\Local\Temp\cc1dRxCf.s:733    .rodata.testbmk4:00000000 testbmk4
C:\Users\z80\AppData\Local\Temp\cc1dRxCf.s:730    .rodata.testbmk4:00000000 $d
C:\Users\z80\AppData\Local\Temp\cc1dRxCf.s:740    .rodata:0000008c .LC7
C:\Users\z80\AppData\Local\Temp\cc1dRxCf.s:743    .text.bmk5_execute:00000000 $t
C:\Users\z80\AppData\Local\Temp\cc1dRxCf.s:748    .text.bmk5_execute:00000000 bmk5_execute
C:\Users\z80\AppData\Local\Temp\cc1dRxCf.s:830    .rodata.testbmk5:00000000 testbmk5
C:\Users\z80\AppData\Local\Temp\cc1dRxCf.s:827    .rodata.testbmk5:00000000 $d
C:\Users\z80\AppData\Local\Temp\cc1dRxCf.s:836    .text.bmk6_execute:00000000 $t
C:\Users\z80\AppData\Local\Temp\cc1dRxCf.s:841    .text.bmk6_execute:00000000 bmk6_execute
C:\Users\z80\AppData\Local\Temp\cc1dRxCf.s:920    .rodata.testbmk6:00000000 testbmk6
C:\Users\z80\AppData\Local\Temp\cc1dRxCf.s:917    .rodata.testbmk6:00000000 $d
C:\Users\z80\AppData\Local\Temp\cc1dRxCf.s:926    .text.thread3:00000000 $t
C:\Users\z80\AppData\Local\Temp\cc1dRxCf.s:931    .text.thread3:00000000 thread3
C:\Users\z80\AppData\Local\Temp\cc1dRxCf.s:971    .text.bmk7_setup:00000000 $t
C:\Users\z80\AppData\Local\Temp\cc1dRxCf.s:976    .text.bmk7_setup:00000000 bmk7_setup
C:\Users\z80\AppData\Local\Temp\cc1dRxCf.s:999    .rodata:000000d8 .LC10
C:\Users\z80\AppData\Local\Temp\cc1dRxCf.s:1002   .text.bmk7_execute:00000000 $t
C:\Users\z80\AppData\Local\Temp\cc1dRxCf.s:1007   .text.bmk7_execute:00000000 bmk7_execute
C:\Users\z80\AppData\Local\Temp\cc1dRxCf.s:1196   .rodata.testbmk7:00000000 testbmk7
C:\Users\z80\AppData\Local\Temp\cc1dRxCf.s:1193   .rodata.testbmk7:00000000 $d
C:\Users\z80\AppData\Local\Temp\cc1dRxCf.s:1202   .text.thread8:00000000 $t
C:\Users\z80\AppData\Local\Temp\cc1dRxCf.s:1207   .text.thread8:00000000 thread8
C:\Users\z80\AppData\Local\Temp\cc1dRxCf.s:1254   .text.bmk8_execute:00000000 $t
C:\Users\z80\AppData\Local\Temp\cc1dRxCf.s:1259   .text.bmk8_execute:00000000 bmk8_execute
C:\Users\z80\AppData\Local\Temp\cc1dRxCf.s:1416   .rodata.testbmk8:00000000 testbmk8
ARM GAS  C:\Users\z80\AppData\Local\Temp\cc1dRxCf.s 			page 101


C:\Users\z80\AppData\Local\Temp\cc1dRxCf.s:1413   .rodata.testbmk8:00000000 $d
C:\Users\z80\AppData\Local\Temp\cc1dRxCf.s:1423   .rodata:00000140 .LC13
C:\Users\z80\AppData\Local\Temp\cc1dRxCf.s:1426   .text.bmk9_execute:00000000 $t
C:\Users\z80\AppData\Local\Temp\cc1dRxCf.s:1431   .text.bmk9_execute:00000000 bmk9_execute
C:\Users\z80\AppData\Local\Temp\cc1dRxCf.s:2177   .bss.iq.4799:00000000 iq.4799
C:\Users\z80\AppData\Local\Temp\cc1dRxCf.s:2183   .bss.ib.4798:00000000 ib.4798
C:\Users\z80\AppData\Local\Temp\cc1dRxCf.s:1557   .rodata.testbmk9:00000000 testbmk9
C:\Users\z80\AppData\Local\Temp\cc1dRxCf.s:1554   .rodata.testbmk9:00000000 $d
C:\Users\z80\AppData\Local\Temp\cc1dRxCf.s:1563   .text.tmo:00000000 $t
C:\Users\z80\AppData\Local\Temp\cc1dRxCf.s:1568   .text.tmo:00000000 tmo
C:\Users\z80\AppData\Local\Temp\cc1dRxCf.s:1587   .rodata:00000170 .LC15
C:\Users\z80\AppData\Local\Temp\cc1dRxCf.s:1590   .text.bmk10_execute:00000000 $t
C:\Users\z80\AppData\Local\Temp\cc1dRxCf.s:1595   .text.bmk10_execute:00000000 bmk10_execute
C:\Users\z80\AppData\Local\Temp\cc1dRxCf.s:2165   .bss.vt1.4811:00000000 vt1.4811
C:\Users\z80\AppData\Local\Temp\cc1dRxCf.s:2171   .bss.vt2.4812:00000000 vt2.4812
C:\Users\z80\AppData\Local\Temp\cc1dRxCf.s:1697   .rodata.testbmk10:00000000 testbmk10
C:\Users\z80\AppData\Local\Temp\cc1dRxCf.s:1694   .rodata.testbmk10:00000000 $d
C:\Users\z80\AppData\Local\Temp\cc1dRxCf.s:1703   .text.bmk11_setup:00000000 $t
C:\Users\z80\AppData\Local\Temp\cc1dRxCf.s:1708   .text.bmk11_setup:00000000 bmk11_setup
C:\Users\z80\AppData\Local\Temp\cc1dRxCf.s:1731   .rodata:000001a0 .LC17
C:\Users\z80\AppData\Local\Temp\cc1dRxCf.s:1734   .text.bmk11_execute:00000000 $t
C:\Users\z80\AppData\Local\Temp\cc1dRxCf.s:1739   .text.bmk11_execute:00000000 bmk11_execute
C:\Users\z80\AppData\Local\Temp\cc1dRxCf.s:1831   .rodata.testbmk11:00000000 testbmk11
C:\Users\z80\AppData\Local\Temp\cc1dRxCf.s:1828   .rodata.testbmk11:00000000 $d
C:\Users\z80\AppData\Local\Temp\cc1dRxCf.s:1837   .text.bmk12_setup:00000000 $t
C:\Users\z80\AppData\Local\Temp\cc1dRxCf.s:1842   .text.bmk12_setup:00000000 bmk12_setup
C:\Users\z80\AppData\Local\Temp\cc1dRxCf.s:1864   .rodata:000001d4 .LC19
C:\Users\z80\AppData\Local\Temp\cc1dRxCf.s:1867   .text.bmk12_execute:00000000 $t
C:\Users\z80\AppData\Local\Temp\cc1dRxCf.s:1872   .text.bmk12_execute:00000000 bmk12_execute
C:\Users\z80\AppData\Local\Temp\cc1dRxCf.s:1956   .rodata.testbmk12:00000000 testbmk12
C:\Users\z80\AppData\Local\Temp\cc1dRxCf.s:1953   .rodata.testbmk12:00000000 $d
C:\Users\z80\AppData\Local\Temp\cc1dRxCf.s:1963   .rodata:00000204 .LC21
C:\Users\z80\AppData\Local\Temp\cc1dRxCf.s:1966   .rodata:00000214 .LC22
C:\Users\z80\AppData\Local\Temp\cc1dRxCf.s:1969   .rodata:0000021c .LC23
C:\Users\z80\AppData\Local\Temp\cc1dRxCf.s:1972   .rodata:0000022c .LC24
C:\Users\z80\AppData\Local\Temp\cc1dRxCf.s:1975   .rodata:0000023c .LC25
C:\Users\z80\AppData\Local\Temp\cc1dRxCf.s:1978   .rodata:0000024c .LC26
C:\Users\z80\AppData\Local\Temp\cc1dRxCf.s:1981   .rodata:0000025c .LC27
C:\Users\z80\AppData\Local\Temp\cc1dRxCf.s:1984   .rodata:0000026c .LC28
C:\Users\z80\AppData\Local\Temp\cc1dRxCf.s:1987   .rodata:0000027c .LC29
C:\Users\z80\AppData\Local\Temp\cc1dRxCf.s:1990   .rodata:0000028c .LC30
C:\Users\z80\AppData\Local\Temp\cc1dRxCf.s:1993   .rodata:0000029c .LC31
C:\Users\z80\AppData\Local\Temp\cc1dRxCf.s:1996   .text.bmk13_execute:00000000 $t
C:\Users\z80\AppData\Local\Temp\cc1dRxCf.s:2001   .text.bmk13_execute:00000000 bmk13_execute
C:\Users\z80\AppData\Local\Temp\cc1dRxCf.s:2136   .rodata.testbmk13:00000000 testbmk13
C:\Users\z80\AppData\Local\Temp\cc1dRxCf.s:2133   .rodata.testbmk13:00000000 $d
C:\Users\z80\AppData\Local\Temp\cc1dRxCf.s:2146   .rodata.patternbmk:00000000 patternbmk
C:\Users\z80\AppData\Local\Temp\cc1dRxCf.s:2143   .rodata.patternbmk:00000000 $d
C:\Users\z80\AppData\Local\Temp\cc1dRxCf.s:2162   .bss.vt1.4811:00000000 $d
C:\Users\z80\AppData\Local\Temp\cc1dRxCf.s:2168   .bss.vt2.4812:00000000 $d
C:\Users\z80\AppData\Local\Temp\cc1dRxCf.s:2174   .bss.iq.4799:00000000 $d
C:\Users\z80\AppData\Local\Temp\cc1dRxCf.s:2180   .bss.ib.4798:00000000 $d
                     .debug_frame:00000010 $d

UNDEFINED SYMBOLS
chMsgWait
chMsgRelease
ARM GAS  C:\Users\z80\AppData\Local\Temp\cc1dRxCf.s 			page 102


test_wait_tick
test_start_timer
chMsgSend
test_timer_done
wa
rlist
chThdCreateStatic
threads
test_wait_threads
test_print
test_printn
test_println
dbg_check_lock
chSchGoSleepS
dbg_check_unlock
chSchWakeupS
chThdWait
chSemWait
chSemInit
chSemReset
test_terminate_threads
chThdYield
chThdSleep
chIQInit
chIQPutI
chIQGetTimeout
chVTSetI
chVTResetI
chSemSignal
chMtxInit
chMtxLock
chMtxUnlock
