ARM GAS  C:\Users\z80\AppData\Local\Temp\ccRmy9tc.s 			page 1


   1              		.syntax unified
   2              		.cpu cortex-m3
   3              		.fpu softvfp
   4              		.eabi_attribute 20, 1
   5              		.eabi_attribute 21, 1
   6              		.eabi_attribute 23, 3
   7              		.eabi_attribute 24, 1
   8              		.eabi_attribute 25, 1
   9              		.eabi_attribute 26, 1
  10              		.eabi_attribute 30, 2
  11              		.eabi_attribute 34, 1
  12              		.eabi_attribute 18, 4
  13              		.thumb
  14              		.file	"testqueues.c"
  15              		.text
  16              	.Ltext0:
  17              		.cfi_sections	.debug_frame
  18              		.section	.text.notify,"ax",%progbits
  19              		.align	2
  20              		.p2align 4,,15
  21              		.thumb
  22              		.thumb_func
  23              		.type	notify, %function
  24              	notify:
  25              	.LFB7:
  26              		.file 1 "../chibios_2.4.x/test/testqueues.c"
  27              		.loc 1 68 0
  28              		.cfi_startproc
  29              		@ args = 0, pretend = 0, frame = 0
  30              		@ frame_needed = 0, uses_anonymous_args = 0
  31              		@ link register save eliminated.
  32              	.LVL0:
  33              		.loc 1 70 0
  34 0000 7047     		bx	lr
  35              		.cfi_endproc
  36              	.LFE7:
  37              		.size	notify, .-notify
  38 0002 00BFAFF3 		.section	.text.thread2,"ax",%progbits
  38      0080AFF3 
  38      0080AFF3 
  38      0080
  39              		.align	2
  40              		.p2align 4,,15
  41              		.thumb
  42              		.thumb_func
  43              		.type	thread2, %function
  44              	thread2:
  45              	.LFB12:
  46              		.loc 1 181 0
  47              		.cfi_startproc
  48              		@ args = 0, pretend = 0, frame = 0
  49              		@ frame_needed = 0, uses_anonymous_args = 0
  50              	.LVL1:
  51              		.loc 1 184 0
  52 0000 40F20000 		movw	r0, #:lower16:.LANCHOR0
  53              	.LVL2:
  54              		.loc 1 181 0
ARM GAS  C:\Users\z80\AppData\Local\Temp\ccRmy9tc.s 			page 2


  55 0004 08B5     		push	{r3, lr}
  56              	.LCFI0:
  57              		.cfi_def_cfa_offset 8
  58              		.cfi_offset 14, -4
  59              		.cfi_offset 3, -8
  60              		.loc 1 184 0
  61 0006 0021     		movs	r1, #0
  62 0008 6422     		movs	r2, #100
  63 000a C0F20000 		movt	r0, #:upper16:.LANCHOR0
  64 000e FFF7FEFF 		bl	chOQPutTimeout
  65              		.loc 1 186 0
  66 0012 0020     		movs	r0, #0
  67 0014 08BD     		pop	{r3, pc}
  68              		.cfi_endproc
  69              	.LFE12:
  70              		.size	thread2, .-thread2
  71 0016 00BFAFF3 		.section	.text.queues2_setup,"ax",%progbits
  71      0080AFF3 
  71      0080
  72              		.align	2
  73              		.p2align 4,,15
  74              		.thumb
  75              		.thumb_func
  76              		.type	queues2_setup, %function
  77              	queues2_setup:
  78              	.LFB11:
  79              		.loc 1 176 0
  80              		.cfi_startproc
  81              		@ args = 0, pretend = 0, frame = 0
  82              		@ frame_needed = 0, uses_anonymous_args = 0
  83              		@ link register save eliminated.
  84              		.loc 1 178 0
  85 0000 40F20002 		movw	r2, #:lower16:wa
  86 0004 C0F20002 		movt	r2, #:upper16:wa
  87 0008 1168     		ldr	r1, [r2, #0]
  88 000a 40F20000 		movw	r0, #:lower16:.LANCHOR0
  89 000e 40F20003 		movw	r3, #:lower16:notify
  90 0012 C0F20000 		movt	r0, #:upper16:.LANCHOR0
  91 0016 0422     		movs	r2, #4
  92 0018 C0F20003 		movt	r3, #:upper16:notify
  93              		.loc 1 179 0
  94              		.loc 1 178 0
  95 001c FFF7FEBF 		b	chOQInit
  96              		.cfi_endproc
  97              	.LFE11:
  98              		.size	queues2_setup, .-queues2_setup
  99              		.section	.text.thread1,"ax",%progbits
 100              		.align	2
 101              		.p2align 4,,15
 102              		.thumb
 103              		.thumb_func
 104              		.type	thread1, %function
 105              	thread1:
 106              	.LFB9:
 107              		.loc 1 94 0
 108              		.cfi_startproc
 109              		@ args = 0, pretend = 0, frame = 0
ARM GAS  C:\Users\z80\AppData\Local\Temp\ccRmy9tc.s 			page 3


 110              		@ frame_needed = 0, uses_anonymous_args = 0
 111              	.LVL3:
 112              		.loc 1 97 0
 113 0000 40F20000 		movw	r0, #:lower16:.LANCHOR1
 114              	.LVL4:
 115              		.loc 1 94 0
 116 0004 08B5     		push	{r3, lr}
 117              	.LCFI1:
 118              		.cfi_def_cfa_offset 8
 119              		.cfi_offset 14, -4
 120              		.cfi_offset 3, -8
 121              		.loc 1 97 0
 122 0006 6421     		movs	r1, #100
 123 0008 C0F20000 		movt	r0, #:upper16:.LANCHOR1
 124 000c FFF7FEFF 		bl	chIQGetTimeout
 125              		.loc 1 99 0
 126 0010 0020     		movs	r0, #0
 127 0012 08BD     		pop	{r3, pc}
 128              		.cfi_endproc
 129              	.LFE9:
 130              		.size	thread1, .-thread1
 131 0014 AFF30080 		.section	.text.queues1_setup,"ax",%progbits
 131      AFF30080 
 131      AFF30080 
 132              		.align	2
 133              		.p2align 4,,15
 134              		.thumb
 135              		.thumb_func
 136              		.type	queues1_setup, %function
 137              	queues1_setup:
 138              	.LFB8:
 139              		.loc 1 89 0
 140              		.cfi_startproc
 141              		@ args = 0, pretend = 0, frame = 0
 142              		@ frame_needed = 0, uses_anonymous_args = 0
 143              		@ link register save eliminated.
 144              		.loc 1 91 0
 145 0000 40F20002 		movw	r2, #:lower16:wa
 146 0004 C0F20002 		movt	r2, #:upper16:wa
 147 0008 1168     		ldr	r1, [r2, #0]
 148 000a 40F20000 		movw	r0, #:lower16:.LANCHOR1
 149 000e 40F20003 		movw	r3, #:lower16:notify
 150 0012 C0F20000 		movt	r0, #:upper16:.LANCHOR1
 151 0016 0422     		movs	r2, #4
 152 0018 C0F20003 		movt	r3, #:upper16:notify
 153              		.loc 1 92 0
 154              		.loc 1 91 0
 155 001c FFF7FEBF 		b	chIQInit
 156              		.cfi_endproc
 157              	.LFE8:
 158              		.size	queues1_setup, .-queues1_setup
 159              		.section	.text.queues2_execute,"ax",%progbits
 160              		.align	2
 161              		.p2align 4,,15
 162              		.thumb
 163              		.thumb_func
 164              		.type	queues2_execute, %function
ARM GAS  C:\Users\z80\AppData\Local\Temp\ccRmy9tc.s 			page 4


 165              	queues2_execute:
 166              	.LFB13:
 167              		.loc 1 188 0
 168              		.cfi_startproc
 169              		@ args = 0, pretend = 0, frame = 0
 170              		@ frame_needed = 0, uses_anonymous_args = 0
 171 0000 2DE9F041 		push	{r4, r5, r6, r7, r8, lr}
 172              	.LCFI2:
 173              		.cfi_def_cfa_offset 24
 174              		.cfi_offset 14, -4
 175              		.cfi_offset 8, -8
 176              		.cfi_offset 7, -12
 177              		.cfi_offset 6, -16
 178              		.cfi_offset 5, -20
 179              		.cfi_offset 4, -24
 180              	.LBB96:
 181              		.loc 1 193 0
 182 0004 2023     		movs	r3, #32
 183              	.LVL5:
 184              	.LBE96:
 185              		.loc 1 188 0
 186 0006 82B0     		sub	sp, sp, #8
 187              	.LCFI3:
 188              		.cfi_def_cfa_offset 32
 189              	.LBB97:
 190              		.loc 1 193 0
 191              	@ 193 "../chibios_2.4.x/test/testqueues.c" 1
 192 0008 83F31188 		msr     BASEPRI, r3
 193              	@ 0 "" 2
 194              	.LVL6:
 195              		.thumb
 196              	.LBE97:
 197 000c 40F20005 		movw	r5, #:lower16:.LANCHOR0
 198 0010 C0F20005 		movt	r5, #:upper16:.LANCHOR0
 199 0014 FFF7FEFF 		bl	dbg_check_lock
 200              	.LVL7:
 201 0018 6A69     		ldr	r2, [r5, #20]
 202 001a AB69     		ldr	r3, [r5, #24]
 203 001c 0021     		movs	r1, #0
 204 001e 9A42     		cmp	r2, r3
 205 0020 00F09A81 		beq	.L24
 206              	.L7:
 207              		.loc 1 193 0 is_stmt 0 discriminator 4
 208 0024 0120     		movs	r0, #1
 209 0026 FFF7FEFF 		bl	_test_assert
 210 002a 0646     		mov	r6, r0
 211 002c 0028     		cmp	r0, #0
 212 002e 40F08581 		bne	.L21
 213              	.LBB98:
 214              	.LBB99:
 215              		.loc 1 193 0
 216 0032 FFF7FEFF 		bl	dbg_check_unlock
 217              	.LBB100:
 218 0036 3346     		mov	r3, r6
 219              	.LVL8:
 220              	@ 193 "../chibios_2.4.x/test/testqueues.c" 1
 221 0038 83F31188 		msr     BASEPRI, r3
ARM GAS  C:\Users\z80\AppData\Local\Temp\ccRmy9tc.s 			page 5


 222              	@ 0 "" 2
 223              	.LVL9:
 224              		.thumb
 225              	.LBE100:
 226              		.loc 1 197 0 is_stmt 1
 227 003c 40F20004 		movw	r4, #:lower16:.LANCHOR0
 228 0040 C0F20004 		movt	r4, #:upper16:.LANCHOR0
 229 0044 4121     		movs	r1, #65
 230 0046 2046     		mov	r0, r4
 231 0048 4FF0FF32 		mov	r2, #-1
 232 004c FFF7FEFF 		bl	chOQPutTimeout
 233              	.LVL10:
 234 0050 4221     		movs	r1, #66
 235 0052 2046     		mov	r0, r4
 236 0054 4FF0FF32 		mov	r2, #-1
 237 0058 FFF7FEFF 		bl	chOQPutTimeout
 238              	.LVL11:
 239 005c 4321     		movs	r1, #67
 240 005e 2046     		mov	r0, r4
 241 0060 4FF0FF32 		mov	r2, #-1
 242 0064 FFF7FEFF 		bl	chOQPutTimeout
 243              	.LVL12:
 244 0068 2046     		mov	r0, r4
 245 006a 4421     		movs	r1, #68
 246 006c 4FF0FF32 		mov	r2, #-1
 247 0070 FFF7FEFF 		bl	chOQPutTimeout
 248              	.LVL13:
 249              	.LBB101:
 250              		.loc 1 198 0
 251 0074 2023     		movs	r3, #32
 252              	.LVL14:
 253              	@ 198 "../chibios_2.4.x/test/testqueues.c" 1
 254 0076 83F31188 		msr     BASEPRI, r3
 255              	@ 0 "" 2
 256              	.LVL15:
 257              		.thumb
 258              	.LBE101:
 259 007a FFF7FEFF 		bl	dbg_check_lock
 260              	.LVL16:
 261 007e AD68     		ldr	r5, [r5, #8]
 262 0080 0220     		movs	r0, #2
 263 0082 D5F10101 		rsbs	r1, r5, #1
 264 0086 38BF     		it	cc
 265 0088 0021     		movcc	r1, #0
 266 008a FFF7FEFF 		bl	_test_assert
 267 008e 0546     		mov	r5, r0
 268 0090 0028     		cmp	r0, #0
 269 0092 40F05B81 		bne	.L25
 270 0096 FFF7FEFF 		bl	dbg_check_unlock
 271              	.LBB102:
 272 009a 2B46     		mov	r3, r5
 273              	.LVL17:
 274              	@ 198 "../chibios_2.4.x/test/testqueues.c" 1
 275 009c 83F31188 		msr     BASEPRI, r3
 276              	@ 0 "" 2
 277              	.LVL18:
 278              		.thumb
ARM GAS  C:\Users\z80\AppData\Local\Temp\ccRmy9tc.s 			page 6


 279              	.LBE102:
 280              	.LBB103:
 281              	.LBB104:
 282              		.loc 1 204 0
 283 00a0 2023     		movs	r3, #32
 284              	.LVL19:
 285              	@ 204 "../chibios_2.4.x/test/testqueues.c" 1
 286 00a2 83F31188 		msr     BASEPRI, r3
 287              	@ 0 "" 2
 288              	.LVL20:
 289              		.thumb
 290              	.LBE104:
 291 00a6 FFF7FEFF 		bl	dbg_check_lock
 292              	.LVL21:
 293              		.loc 1 205 0
 294 00aa 2046     		mov	r0, r4
 295 00ac FFF7FEFF 		bl	chOQGetI
 296 00b0 0646     		mov	r6, r0
 297              	.LVL22:
 298              		.loc 1 206 0
 299 00b2 FFF7FEFF 		bl	dbg_check_unlock
 300              	.LVL23:
 301              	.LBB105:
 302 00b6 2B46     		mov	r3, r5
 303              	.LVL24:
 304              	@ 206 "../chibios_2.4.x/test/testqueues.c" 1
 305 00b8 83F31188 		msr     BASEPRI, r3
 306              	@ 0 "" 2
 307              	.LVL25:
 308              		.thumb
 309              	.LBE105:
 310              		.loc 1 207 0
 311 00bc F0B2     		uxtb	r0, r6
 312 00be FFF7FEFF 		bl	test_emit_token
 313              	.LVL26:
 314              	.LBB106:
 315              		.loc 1 204 0
 316 00c2 2023     		movs	r3, #32
 317              	@ 204 "../chibios_2.4.x/test/testqueues.c" 1
 318 00c4 83F31188 		msr     BASEPRI, r3
 319              	@ 0 "" 2
 320              	.LVL27:
 321              		.thumb
 322              	.LBE106:
 323 00c8 FFF7FEFF 		bl	dbg_check_lock
 324              	.LVL28:
 325              		.loc 1 205 0
 326 00cc 2046     		mov	r0, r4
 327 00ce FFF7FEFF 		bl	chOQGetI
 328 00d2 0646     		mov	r6, r0
 329              	.LVL29:
 330              		.loc 1 206 0
 331 00d4 FFF7FEFF 		bl	dbg_check_unlock
 332              	.LVL30:
 333              	.LBB107:
 334 00d8 2B46     		mov	r3, r5
 335              	@ 206 "../chibios_2.4.x/test/testqueues.c" 1
ARM GAS  C:\Users\z80\AppData\Local\Temp\ccRmy9tc.s 			page 7


 336 00da 83F31188 		msr     BASEPRI, r3
 337              	@ 0 "" 2
 338              	.LVL31:
 339              		.thumb
 340              	.LBE107:
 341              		.loc 1 207 0
 342 00de F0B2     		uxtb	r0, r6
 343 00e0 FFF7FEFF 		bl	test_emit_token
 344              	.LVL32:
 345              	.LBB108:
 346              		.loc 1 204 0
 347 00e4 2023     		movs	r3, #32
 348              	@ 204 "../chibios_2.4.x/test/testqueues.c" 1
 349 00e6 83F31188 		msr     BASEPRI, r3
 350              	@ 0 "" 2
 351              	.LVL33:
 352              		.thumb
 353              	.LBE108:
 354 00ea FFF7FEFF 		bl	dbg_check_lock
 355              	.LVL34:
 356              		.loc 1 205 0
 357 00ee 2046     		mov	r0, r4
 358 00f0 FFF7FEFF 		bl	chOQGetI
 359 00f4 0646     		mov	r6, r0
 360              	.LVL35:
 361              		.loc 1 206 0
 362 00f6 FFF7FEFF 		bl	dbg_check_unlock
 363              	.LVL36:
 364              	.LBB109:
 365 00fa 2B46     		mov	r3, r5
 366              	@ 206 "../chibios_2.4.x/test/testqueues.c" 1
 367 00fc 83F31188 		msr     BASEPRI, r3
 368              	@ 0 "" 2
 369              	.LVL37:
 370              		.thumb
 371              	.LBE109:
 372              		.loc 1 207 0
 373 0100 F0B2     		uxtb	r0, r6
 374 0102 FFF7FEFF 		bl	test_emit_token
 375              	.LVL38:
 376              	.LBB110:
 377              		.loc 1 204 0
 378 0106 2023     		movs	r3, #32
 379              	@ 204 "../chibios_2.4.x/test/testqueues.c" 1
 380 0108 83F31188 		msr     BASEPRI, r3
 381              	@ 0 "" 2
 382              	.LVL39:
 383              		.thumb
 384              	.LBE110:
 385 010c FFF7FEFF 		bl	dbg_check_lock
 386              	.LVL40:
 387              		.loc 1 205 0
 388 0110 2046     		mov	r0, r4
 389 0112 FFF7FEFF 		bl	chOQGetI
 390 0116 0646     		mov	r6, r0
 391              	.LVL41:
 392              		.loc 1 206 0
ARM GAS  C:\Users\z80\AppData\Local\Temp\ccRmy9tc.s 			page 8


 393 0118 FFF7FEFF 		bl	dbg_check_unlock
 394              	.LVL42:
 395              	.LBB111:
 396 011c 2B46     		mov	r3, r5
 397              	@ 206 "../chibios_2.4.x/test/testqueues.c" 1
 398 011e 83F31188 		msr     BASEPRI, r3
 399              	@ 0 "" 2
 400              	.LVL43:
 401              		.thumb
 402              	.LBE111:
 403              		.loc 1 207 0
 404 0122 F0B2     		uxtb	r0, r6
 405 0124 FFF7FEFF 		bl	test_emit_token
 406              	.LVL44:
 407              	.LBE103:
 408              	.LBB112:
 409              		.loc 1 209 0
 410 0128 2023     		movs	r3, #32
 411              	.LVL45:
 412              	@ 209 "../chibios_2.4.x/test/testqueues.c" 1
 413 012a 83F31188 		msr     BASEPRI, r3
 414              	@ 0 "" 2
 415              	.LVL46:
 416              		.thumb
 417              	.LBE112:
 418 012e FFF7FEFF 		bl	dbg_check_lock
 419              	.LVL47:
 420 0132 6069     		ldr	r0, [r4, #20]
 421 0134 A269     		ldr	r2, [r4, #24]
 422 0136 9042     		cmp	r0, r2
 423 0138 18BF     		it	ne
 424 013a 2946     		movne	r1, r5
 425 013c 00F01181 		beq	.L26
 426              	.L11:
 427 0140 0320     		movs	r0, #3
 428 0142 FFF7FEFF 		bl	_test_assert
 429 0146 0446     		mov	r4, r0
 430 0148 0028     		cmp	r0, #0
 431 014a 40F0F780 		bne	.L21
 432 014e FFF7FEFF 		bl	dbg_check_unlock
 433              	.LBB113:
 434 0152 2346     		mov	r3, r4
 435              	.LVL48:
 436              	@ 209 "../chibios_2.4.x/test/testqueues.c" 1
 437 0154 83F31188 		msr     BASEPRI, r3
 438              	@ 0 "" 2
 439              	.LVL49:
 440              		.thumb
 441              	.LBE113:
 442              		.loc 1 210 0
 443 0158 40F20001 		movw	r1, #:lower16:.LC0
 444 015c 0420     		movs	r0, #4
 445 015e C0F20001 		movt	r1, #:upper16:.LC0
 446 0162 FFF7FEFF 		bl	_test_assert_sequence
 447              	.LVL50:
 448 0166 0546     		mov	r5, r0
 449 0168 0028     		cmp	r0, #0
ARM GAS  C:\Users\z80\AppData\Local\Temp\ccRmy9tc.s 			page 9


 450 016a 40F0EC80 		bne	.L6
 451              	.LBB114:
 452              		.loc 1 211 0
 453 016e 2023     		movs	r3, #32
 454              	.LVL51:
 455              	@ 211 "../chibios_2.4.x/test/testqueues.c" 1
 456 0170 83F31188 		msr     BASEPRI, r3
 457              	@ 0 "" 2
 458              	.LVL52:
 459              		.thumb
 460              	.LBE114:
 461 0174 40F20004 		movw	r4, #:lower16:.LANCHOR0
 462 0178 C0F20004 		movt	r4, #:upper16:.LANCHOR0
 463 017c FFF7FEFF 		bl	dbg_check_lock
 464              	.LVL53:
 465 0180 2046     		mov	r0, r4
 466 0182 FFF7FEFF 		bl	chOQGetI
 467 0186 0330     		adds	r0, r0, #3
 468 0188 14BF     		ite	ne
 469 018a 0021     		movne	r1, #0
 470 018c 0121     		moveq	r1, #1
 471 018e 0520     		movs	r0, #5
 472 0190 FFF7FEFF 		bl	_test_assert
 473 0194 0646     		mov	r6, r0
 474              	.LVL54:
 475 0196 0028     		cmp	r0, #0
 476 0198 40F0E880 		bne	.L22
 477 019c FFF7FEFF 		bl	dbg_check_unlock
 478              	.LBB115:
 479 01a0 3346     		mov	r3, r6
 480              	.LVL55:
 481              	@ 211 "../chibios_2.4.x/test/testqueues.c" 1
 482 01a2 83F31188 		msr     BASEPRI, r3
 483              	@ 0 "" 2
 484              	.LVL56:
 485              		.thumb
 486              	.LBE115:
 487              		.loc 1 214 0
 488 01a6 40F20005 		movw	r5, #:lower16:wa
 489 01aa C0F20005 		movt	r5, #:upper16:wa
 490 01ae 6E68     		ldr	r6, [r5, #4]
 491 01b0 0822     		movs	r2, #8
 492 01b2 3146     		mov	r1, r6
 493 01b4 2046     		mov	r0, r4
 494 01b6 FFF7FEFF 		bl	chOQWriteTimeout
 495              	.LVL57:
 496              		.loc 1 215 0
 497 01ba A0F10401 		sub	r1, r0, #4
 498 01be 4B42     		rsbs	r3, r1, #0
 499 01c0 43EB0101 		adc	r1, r3, r1
 500 01c4 0620     		movs	r0, #6
 501              	.LVL58:
 502 01c6 FFF7FEFF 		bl	_test_assert
 503 01ca 8046     		mov	r8, r0
 504 01cc 0028     		cmp	r0, #0
 505 01ce 40F0BA80 		bne	.L6
 506              	.LBB116:
ARM GAS  C:\Users\z80\AppData\Local\Temp\ccRmy9tc.s 			page 10


 507              		.loc 1 216 0
 508 01d2 2023     		movs	r3, #32
 509              	.LVL59:
 510              	@ 216 "../chibios_2.4.x/test/testqueues.c" 1
 511 01d4 83F31188 		msr     BASEPRI, r3
 512              	@ 0 "" 2
 513              	.LVL60:
 514              		.thumb
 515              	.LBE116:
 516 01d8 FFF7FEFF 		bl	dbg_check_lock
 517              	.LVL61:
 518 01dc A768     		ldr	r7, [r4, #8]
 519 01de 0720     		movs	r0, #7
 520 01e0 D7F10101 		rsbs	r1, r7, #1
 521 01e4 38BF     		it	cc
 522 01e6 0021     		movcc	r1, #0
 523 01e8 FFF7FEFF 		bl	_test_assert
 524 01ec 0746     		mov	r7, r0
 525 01ee 0028     		cmp	r0, #0
 526 01f0 40F0C280 		bne	.L27
 527 01f4 FFF7FEFF 		bl	dbg_check_unlock
 528              	.LBB117:
 529 01f8 3B46     		mov	r3, r7
 530              	.LVL62:
 531              	@ 216 "../chibios_2.4.x/test/testqueues.c" 1
 532 01fa 83F31188 		msr     BASEPRI, r3
 533              	@ 0 "" 2
 534              	.LVL63:
 535              		.thumb
 536              	.LBE117:
 537              		.loc 1 217 0
 538 01fe 40F20000 		movw	r0, #:lower16:rlist
 539 0202 C0F20000 		movt	r0, #:upper16:rlist
 540 0206 C369     		ldr	r3, [r0, #28]
 541              	.LVL64:
 542 0208 2868     		ldr	r0, [r5, #0]
 543 020a 9D68     		ldr	r5, [r3, #8]
 544 020c 40F20003 		movw	r3, #:lower16:thread2
 545 0210 4FF49871 		mov	r1, #304
 546 0214 6A1C     		adds	r2, r5, #1
 547 0216 C0F20003 		movt	r3, #:upper16:thread2
 548 021a 0097     		str	r7, [sp, #0]
 549 021c FFF7FEFF 		bl	chThdCreateStatic
 550 0220 40F2000C 		movw	ip, #:lower16:threads
 551 0224 C0F2000C 		movt	ip, #:upper16:threads
 552 0228 CCF80000 		str	r0, [ip, #0]
 553              	.LBB118:
 554              		.loc 1 218 0
 555 022c 2023     		movs	r3, #32
 556              	.LVL65:
 557              	@ 218 "../chibios_2.4.x/test/testqueues.c" 1
 558 022e 83F31188 		msr     BASEPRI, r3
 559              	@ 0 "" 2
 560              	.LVL66:
 561              		.thumb
 562              	.LBE118:
 563 0232 FFF7FEFF 		bl	dbg_check_lock
ARM GAS  C:\Users\z80\AppData\Local\Temp\ccRmy9tc.s 			page 11


 564              	.LVL67:
 565 0236 2169     		ldr	r1, [r4, #16]
 566 0238 E268     		ldr	r2, [r4, #12]
 567 023a A568     		ldr	r5, [r4, #8]
 568 023c 881A     		subs	r0, r1, r2
 569 023e 431B     		subs	r3, r0, r5
 570 0240 A3F10402 		sub	r2, r3, #4
 571 0244 0820     		movs	r0, #8
 572 0246 5542     		rsbs	r5, r2, #0
 573 0248 45EB0201 		adc	r1, r5, r2
 574 024c FFF7FEFF 		bl	_test_assert
 575 0250 0546     		mov	r5, r0
 576 0252 0028     		cmp	r0, #0
 577 0254 40F09680 		bne	.L28
 578 0258 FFF7FEFF 		bl	dbg_check_unlock
 579              	.LBB119:
 580 025c 2B46     		mov	r3, r5
 581              	.LVL68:
 582              	@ 218 "../chibios_2.4.x/test/testqueues.c" 1
 583 025e 83F31188 		msr     BASEPRI, r3
 584              	@ 0 "" 2
 585              	.LVL69:
 586              		.thumb
 587              	.LBE119:
 588              		.loc 1 219 0
 589 0262 FFF7FEFF 		bl	test_wait_threads
 590              	.LVL70:
 591              	.LBB120:
 592              		.loc 1 222 0
 593 0266 2023     		movs	r3, #32
 594              	.LVL71:
 595              	@ 222 "../chibios_2.4.x/test/testqueues.c" 1
 596 0268 83F31188 		msr     BASEPRI, r3
 597              	@ 0 "" 2
 598              	.LVL72:
 599              		.thumb
 600              	.LBE120:
 601 026c FFF7FEFF 		bl	dbg_check_lock
 602              	.LVL73:
 603              		.loc 1 223 0
 604 0270 2046     		mov	r0, r4
 605 0272 FFF7FEFF 		bl	chOQResetI
 606              		.loc 1 224 0
 607 0276 FFF7FEFF 		bl	dbg_check_unlock
 608              	.LBB121:
 609 027a 2B46     		mov	r3, r5
 610              	.LVL74:
 611              	@ 224 "../chibios_2.4.x/test/testqueues.c" 1
 612 027c 83F31188 		msr     BASEPRI, r3
 613              	@ 0 "" 2
 614              	.LVL75:
 615              		.thumb
 616              	.LBE121:
 617              	.LBB122:
 618              		.loc 1 225 0
 619 0280 2023     		movs	r3, #32
 620              	.LVL76:
ARM GAS  C:\Users\z80\AppData\Local\Temp\ccRmy9tc.s 			page 12


 621              	@ 225 "../chibios_2.4.x/test/testqueues.c" 1
 622 0282 83F31188 		msr     BASEPRI, r3
 623              	@ 0 "" 2
 624              	.LVL77:
 625              		.thumb
 626              	.LBE122:
 627 0286 FFF7FEFF 		bl	dbg_check_lock
 628              	.LVL78:
 629 028a 2069     		ldr	r0, [r4, #16]
 630 028c E168     		ldr	r1, [r4, #12]
 631 028e A368     		ldr	r3, [r4, #8]
 632 0290 421A     		subs	r2, r0, r1
 633 0292 D71A     		subs	r7, r2, r3
 634 0294 0920     		movs	r0, #9
 635 0296 7942     		rsbs	r1, r7, #0
 636 0298 41EB0701 		adc	r1, r1, r7
 637 029c FFF7FEFF 		bl	_test_assert
 638 02a0 0746     		mov	r7, r0
 639 02a2 0028     		cmp	r0, #0
 640 02a4 62D1     		bne	.L22
 641 02a6 FFF7FEFF 		bl	dbg_check_unlock
 642              	.LBB123:
 643 02aa 3B46     		mov	r3, r7
 644              	.LVL79:
 645              	@ 225 "../chibios_2.4.x/test/testqueues.c" 1
 646 02ac 83F31188 		msr     BASEPRI, r3
 647              	@ 0 "" 2
 648              	.LVL80:
 649              		.thumb
 650              	.LBE123:
 651              		.loc 1 228 0
 652 02b0 0222     		movs	r2, #2
 653 02b2 3146     		mov	r1, r6
 654 02b4 2046     		mov	r0, r4
 655 02b6 FFF7FEFF 		bl	chOQWriteTimeout
 656              	.LVL81:
 657              		.loc 1 229 0
 658 02ba A0F10203 		sub	r3, r0, #2
 659 02be 5A42     		rsbs	r2, r3, #0
 660 02c0 42EB0301 		adc	r1, r2, r3
 661 02c4 0A20     		movs	r0, #10
 662              	.LVL82:
 663 02c6 FFF7FEFF 		bl	_test_assert
 664              	.LVL83:
 665 02ca 0346     		mov	r3, r0
 666 02cc 0028     		cmp	r0, #0
 667 02ce 3AD1     		bne	.L6
 668              		.loc 1 230 0
 669 02d0 3146     		mov	r1, r6
 670 02d2 0222     		movs	r2, #2
 671 02d4 2046     		mov	r0, r4
 672 02d6 FFF7FEFF 		bl	chOQWriteTimeout
 673              	.LVL84:
 674              		.loc 1 231 0
 675 02da A0F10201 		sub	r1, r0, #2
 676 02de 4842     		rsbs	r0, r1, #0
 677              	.LVL85:
ARM GAS  C:\Users\z80\AppData\Local\Temp\ccRmy9tc.s 			page 13


 678 02e0 40EB0101 		adc	r1, r0, r1
 679              	.LVL86:
 680 02e4 0B20     		movs	r0, #11
 681 02e6 FFF7FEFF 		bl	_test_assert
 682 02ea 0028     		cmp	r0, #0
 683 02ec 2BD1     		bne	.L6
 684              	.LBB124:
 685              		.loc 1 232 0
 686 02ee 2023     		movs	r3, #32
 687              	.LVL87:
 688              	@ 232 "../chibios_2.4.x/test/testqueues.c" 1
 689 02f0 83F31188 		msr     BASEPRI, r3
 690              	@ 0 "" 2
 691              	.LVL88:
 692              		.thumb
 693              	.LBE124:
 694 02f4 FFF7FEFF 		bl	dbg_check_lock
 695              	.LVL89:
 696 02f8 A268     		ldr	r2, [r4, #8]
 697 02fa 0C20     		movs	r0, #12
 698 02fc D2F10101 		rsbs	r1, r2, #1
 699 0300 38BF     		it	cc
 700 0302 0021     		movcc	r1, #0
 701 0304 FFF7FEFF 		bl	_test_assert
 702 0308 C0B9     		cbnz	r0, .L21
 703 030a FFF7FEFF 		bl	dbg_check_unlock
 704              	.LBB125:
 705 030e 0023     		movs	r3, #0
 706              	.LVL90:
 707              	@ 232 "../chibios_2.4.x/test/testqueues.c" 1
 708 0310 83F31188 		msr     BASEPRI, r3
 709              	@ 0 "" 2
 710              	.LVL91:
 711              		.thumb
 712              	.LBE125:
 713              		.loc 1 235 0
 714 0314 40F20000 		movw	r0, #:lower16:.LANCHOR0
 715 0318 1946     		mov	r1, r3
 716 031a 0A22     		movs	r2, #10
 717 031c C0F20000 		movt	r0, #:upper16:.LANCHOR0
 718 0320 FFF7FEFF 		bl	chOQPutTimeout
 719              	.LVL92:
 720 0324 A0F1FF3C 		sub	ip, r0, #-1
 721 0328 DCF10000 		rsbs	r0, ip, #0
 722 032c 40EB0C01 		adc	r1, r0, ip
 723 0330 0D20     		movs	r0, #13
 724              	.LBE99:
 725              	.LBE98:
 726              		.loc 1 236 0
 727 0332 02B0     		add	sp, sp, #8
 728 0334 BDE8F041 		pop	{r4, r5, r6, r7, r8, lr}
 729              	.LBB134:
 730              	.LBB131:
 731              		.loc 1 235 0
 732 0338 FFF7FEBF 		b	_test_assert
 733              	.LVL93:
 734              	.L21:
ARM GAS  C:\Users\z80\AppData\Local\Temp\ccRmy9tc.s 			page 14


 735              		.loc 1 232 0
 736 033c FFF7FEFF 		bl	dbg_check_unlock
 737              	.LBB126:
 738 0340 0023     		movs	r3, #0
 739              	.LVL94:
 740              	@ 232 "../chibios_2.4.x/test/testqueues.c" 1
 741 0342 83F31188 		msr     BASEPRI, r3
 742              	@ 0 "" 2
 743              	.LVL95:
 744              		.thumb
 745              	.L6:
 746              	.LBE126:
 747              	.LBE131:
 748              	.LBE134:
 749              		.loc 1 236 0
 750 0346 02B0     		add	sp, sp, #8
 751 0348 BDE8F081 		pop	{r4, r5, r6, r7, r8, pc}
 752              	.LVL96:
 753              	.L25:
 754              	.LBB135:
 755              	.LBB132:
 756              		.loc 1 198 0
 757 034c FFF7FEFF 		bl	dbg_check_unlock
 758              	.LBB127:
 759 0350 3346     		mov	r3, r6
 760              	@ 198 "../chibios_2.4.x/test/testqueues.c" 1
 761 0352 83F31188 		msr     BASEPRI, r3
 762              	@ 0 "" 2
 763              	.LVL97:
 764              		.thumb
 765 0356 F6E7     		b	.L6
 766              	.LVL98:
 767              	.L24:
 768              	.LBE127:
 769              	.LBE132:
 770              	.LBE135:
 771              		.loc 1 188 0 discriminator 1
 772 0358 A968     		ldr	r1, [r5, #8]
 773 035a 0031     		adds	r1, r1, #0
 774 035c 18BF     		it	ne
 775 035e 0121     		movne	r1, #1
 776 0360 60E6     		b	.L7
 777              	.LVL99:
 778              	.L26:
 779              	.LBB136:
 780              	.LBB133:
 781              		.loc 1 188 0 is_stmt 0
 782 0362 A468     		ldr	r4, [r4, #8]
 783 0364 211C     		adds	r1, r4, #0
 784 0366 18BF     		it	ne
 785 0368 0121     		movne	r1, #1
 786 036a E9E6     		b	.L11
 787              	.LVL100:
 788              	.L22:
 789              		.loc 1 225 0 is_stmt 1
 790 036c FFF7FEFF 		bl	dbg_check_unlock
 791              	.LBB128:
ARM GAS  C:\Users\z80\AppData\Local\Temp\ccRmy9tc.s 			page 15


 792 0370 2B46     		mov	r3, r5
 793              	@ 225 "../chibios_2.4.x/test/testqueues.c" 1
 794 0372 83F31188 		msr     BASEPRI, r3
 795              	@ 0 "" 2
 796              	.LVL101:
 797              		.thumb
 798 0376 E6E7     		b	.L6
 799              	.LVL102:
 800              	.L27:
 801              	.LBE128:
 802              		.loc 1 216 0
 803 0378 FFF7FEFF 		bl	dbg_check_unlock
 804              	.LBB129:
 805 037c 4346     		mov	r3, r8
 806              	@ 216 "../chibios_2.4.x/test/testqueues.c" 1
 807 037e 83F31188 		msr     BASEPRI, r3
 808              	@ 0 "" 2
 809              	.LVL103:
 810              		.thumb
 811 0382 E0E7     		b	.L6
 812              	.LVL104:
 813              	.L28:
 814              	.LBE129:
 815              		.loc 1 218 0
 816 0384 FFF7FEFF 		bl	dbg_check_unlock
 817              	.LBB130:
 818 0388 3B46     		mov	r3, r7
 819              	@ 218 "../chibios_2.4.x/test/testqueues.c" 1
 820 038a 83F31188 		msr     BASEPRI, r3
 821              	@ 0 "" 2
 822              	.LVL105:
 823              		.thumb
 824 038e DAE7     		b	.L6
 825              	.LBE130:
 826              	.LBE133:
 827              	.LBE136:
 828              		.cfi_endproc
 829              	.LFE13:
 830              		.size	queues2_execute, .-queues2_execute
 831              		.section	.text.queues1_execute,"ax",%progbits
 832              		.align	2
 833              		.p2align 4,,15
 834              		.thumb
 835              		.thumb_func
 836              		.type	queues1_execute, %function
 837              	queues1_execute:
 838              	.LFB10:
 839              		.loc 1 101 0
 840              		.cfi_startproc
 841              		@ args = 0, pretend = 0, frame = 0
 842              		@ frame_needed = 0, uses_anonymous_args = 0
 843 0000 2DE9F043 		push	{r4, r5, r6, r7, r8, r9, lr}
 844              	.LCFI4:
 845              		.cfi_def_cfa_offset 28
 846              		.cfi_offset 14, -4
 847              		.cfi_offset 9, -8
 848              		.cfi_offset 8, -12
ARM GAS  C:\Users\z80\AppData\Local\Temp\ccRmy9tc.s 			page 16


 849              		.cfi_offset 7, -16
 850              		.cfi_offset 6, -20
 851              		.cfi_offset 5, -24
 852              		.cfi_offset 4, -28
 853              	.LBB173:
 854              		.loc 1 106 0
 855 0004 2023     		movs	r3, #32
 856              	.LVL106:
 857              	.LBE173:
 858              		.loc 1 101 0
 859 0006 83B0     		sub	sp, sp, #12
 860              	.LCFI5:
 861              		.cfi_def_cfa_offset 40
 862              	.LBB174:
 863              		.loc 1 106 0
 864              	@ 106 "../chibios_2.4.x/test/testqueues.c" 1
 865 0008 83F31188 		msr     BASEPRI, r3
 866              	@ 0 "" 2
 867              	.LVL107:
 868              		.thumb
 869              	.LBE174:
 870 000c 40F20004 		movw	r4, #:lower16:.LANCHOR1
 871 0010 C0F20004 		movt	r4, #:upper16:.LANCHOR1
 872 0014 FFF7FEFF 		bl	dbg_check_lock
 873              	.LVL108:
 874 0018 A168     		ldr	r1, [r4, #8]
 875 001a 0120     		movs	r0, #1
 876 001c D1F10101 		rsbs	r1, r1, #1
 877 0020 38BF     		it	cc
 878 0022 0021     		movcc	r1, #0
 879 0024 FFF7FEFF 		bl	_test_assert
 880 0028 0546     		mov	r5, r0
 881 002a 0028     		cmp	r0, #0
 882 002c 40F09581 		bne	.L41
 883              	.LBB175:
 884              	.LBB176:
 885 0030 FFF7FEFF 		bl	dbg_check_unlock
 886              	.LBB177:
 887 0034 2B46     		mov	r3, r5
 888              	.LVL109:
 889              	@ 106 "../chibios_2.4.x/test/testqueues.c" 1
 890 0036 83F31188 		msr     BASEPRI, r3
 891              	@ 0 "" 2
 892              	.LVL110:
 893              		.thumb
 894              	.LBE177:
 895              	.LBB178:
 896              		.loc 1 109 0
 897 003a 2023     		movs	r3, #32
 898              	.LVL111:
 899              	@ 109 "../chibios_2.4.x/test/testqueues.c" 1
 900 003c 83F31188 		msr     BASEPRI, r3
 901              	@ 0 "" 2
 902              	.LVL112:
 903              		.thumb
 904              	.LBE178:
 905 0040 FFF7FEFF 		bl	dbg_check_lock
ARM GAS  C:\Users\z80\AppData\Local\Temp\ccRmy9tc.s 			page 17


 906              	.LVL113:
 907              		.loc 1 111 0
 908 0044 4121     		movs	r1, #65
 909 0046 2046     		mov	r0, r4
 910 0048 FFF7FEFF 		bl	chIQPutI
 911              	.LVL114:
 912 004c 4221     		movs	r1, #66
 913 004e 2046     		mov	r0, r4
 914 0050 FFF7FEFF 		bl	chIQPutI
 915              	.LVL115:
 916 0054 4321     		movs	r1, #67
 917 0056 2046     		mov	r0, r4
 918 0058 FFF7FEFF 		bl	chIQPutI
 919              	.LVL116:
 920 005c 4421     		movs	r1, #68
 921 005e 2046     		mov	r0, r4
 922 0060 FFF7FEFF 		bl	chIQPutI
 923              	.LVL117:
 924              		.loc 1 112 0
 925 0064 FFF7FEFF 		bl	dbg_check_unlock
 926              	.LBB179:
 927 0068 2B46     		mov	r3, r5
 928              	.LVL118:
 929              	@ 112 "../chibios_2.4.x/test/testqueues.c" 1
 930 006a 83F31188 		msr     BASEPRI, r3
 931              	@ 0 "" 2
 932              	.LVL119:
 933              		.thumb
 934              	.LBE179:
 935              	.LBB180:
 936              		.loc 1 113 0
 937 006e 2023     		movs	r3, #32
 938              	.LVL120:
 939              	@ 113 "../chibios_2.4.x/test/testqueues.c" 1
 940 0070 83F31188 		msr     BASEPRI, r3
 941              	@ 0 "" 2
 942              	.LVL121:
 943              		.thumb
 944              	.LBE180:
 945 0074 FFF7FEFF 		bl	dbg_check_lock
 946              	.LVL122:
 947 0078 6269     		ldr	r2, [r4, #20]
 948 007a A369     		ldr	r3, [r4, #24]
 949 007c 9A42     		cmp	r2, r3
 950 007e 18BF     		it	ne
 951 0080 2946     		movne	r1, r5
 952 0082 00F07E81 		beq	.L43
 953              	.L32:
 954 0086 0220     		movs	r0, #2
 955 0088 FFF7FEFF 		bl	_test_assert
 956 008c 0646     		mov	r6, r0
 957 008e 0028     		cmp	r0, #0
 958 0090 40F06381 		bne	.L41
 959 0094 FFF7FEFF 		bl	dbg_check_unlock
 960              	.LBB181:
 961 0098 3346     		mov	r3, r6
 962              	.LVL123:
ARM GAS  C:\Users\z80\AppData\Local\Temp\ccRmy9tc.s 			page 18


 963              	@ 113 "../chibios_2.4.x/test/testqueues.c" 1
 964 009a 83F31188 		msr     BASEPRI, r3
 965              	@ 0 "" 2
 966              	.LVL124:
 967              		.thumb
 968              	.LBE181:
 969              	.LBB182:
 970              		.loc 1 114 0
 971 009e 2023     		movs	r3, #32
 972              	.LVL125:
 973              	@ 114 "../chibios_2.4.x/test/testqueues.c" 1
 974 00a0 83F31188 		msr     BASEPRI, r3
 975              	@ 0 "" 2
 976              	.LVL126:
 977              		.thumb
 978              	.LBE182:
 979 00a4 40F20005 		movw	r5, #:lower16:.LANCHOR1
 980 00a8 C0F20005 		movt	r5, #:upper16:.LANCHOR1
 981 00ac FFF7FEFF 		bl	dbg_check_lock
 982              	.LVL127:
 983 00b0 3146     		mov	r1, r6
 984 00b2 2846     		mov	r0, r5
 985 00b4 FFF7FEFF 		bl	chIQPutI
 986 00b8 0430     		adds	r0, r0, #4
 987 00ba 14BF     		ite	ne
 988 00bc 0021     		movne	r1, #0
 989 00be 0121     		moveq	r1, #1
 990 00c0 0320     		movs	r0, #3
 991 00c2 FFF7FEFF 		bl	_test_assert
 992 00c6 0746     		mov	r7, r0
 993 00c8 0028     		cmp	r0, #0
 994 00ca 40F05481 		bne	.L44
 995 00ce FFF7FEFF 		bl	dbg_check_unlock
 996              	.LBB183:
 997 00d2 3B46     		mov	r3, r7
 998              	.LVL128:
 999              	@ 114 "../chibios_2.4.x/test/testqueues.c" 1
 1000 00d4 83F31188 		msr     BASEPRI, r3
 1001              	@ 0 "" 2
 1002              	.LVL129:
 1003              		.thumb
 1004              	.LBE183:
 1005              		.loc 1 118 0
 1006 00d8 4FF0FF31 		mov	r1, #-1
 1007 00dc 2846     		mov	r0, r5
 1008 00de FFF7FEFF 		bl	chIQGetTimeout
 1009              	.LVL130:
 1010 00e2 C0B2     		uxtb	r0, r0
 1011 00e4 FFF7FEFF 		bl	test_emit_token
 1012              	.LVL131:
 1013 00e8 4FF0FF31 		mov	r1, #-1
 1014 00ec 2846     		mov	r0, r5
 1015 00ee FFF7FEFF 		bl	chIQGetTimeout
 1016 00f2 C0B2     		uxtb	r0, r0
 1017 00f4 FFF7FEFF 		bl	test_emit_token
 1018              	.LVL132:
 1019 00f8 4FF0FF31 		mov	r1, #-1
ARM GAS  C:\Users\z80\AppData\Local\Temp\ccRmy9tc.s 			page 19


 1020 00fc 2846     		mov	r0, r5
 1021 00fe FFF7FEFF 		bl	chIQGetTimeout
 1022 0102 C0B2     		uxtb	r0, r0
 1023 0104 FFF7FEFF 		bl	test_emit_token
 1024              	.LVL133:
 1025 0108 4FF0FF31 		mov	r1, #-1
 1026 010c 2846     		mov	r0, r5
 1027 010e FFF7FEFF 		bl	chIQGetTimeout
 1028 0112 C0B2     		uxtb	r0, r0
 1029 0114 FFF7FEFF 		bl	test_emit_token
 1030              	.LVL134:
 1031              	.LBB184:
 1032              		.loc 1 119 0
 1033 0118 2023     		movs	r3, #32
 1034              	.LVL135:
 1035              	@ 119 "../chibios_2.4.x/test/testqueues.c" 1
 1036 011a 83F31188 		msr     BASEPRI, r3
 1037              	@ 0 "" 2
 1038              	.LVL136:
 1039              		.thumb
 1040              	.LBE184:
 1041 011e FFF7FEFF 		bl	dbg_check_lock
 1042              	.LVL137:
 1043 0122 AE68     		ldr	r6, [r5, #8]
 1044 0124 0420     		movs	r0, #4
 1045 0126 D6F10101 		rsbs	r1, r6, #1
 1046 012a 38BF     		it	cc
 1047 012c 0021     		movcc	r1, #0
 1048 012e FFF7FEFF 		bl	_test_assert
 1049 0132 0646     		mov	r6, r0
 1050 0134 0028     		cmp	r0, #0
 1051 0136 40F01881 		bne	.L45
 1052 013a FFF7FEFF 		bl	dbg_check_unlock
 1053              	.LBB185:
 1054 013e 3346     		mov	r3, r6
 1055              	.LVL138:
 1056              	@ 119 "../chibios_2.4.x/test/testqueues.c" 1
 1057 0140 83F31188 		msr     BASEPRI, r3
 1058              	@ 0 "" 2
 1059              	.LVL139:
 1060              		.thumb
 1061              	.LBE185:
 1062              		.loc 1 120 0
 1063 0144 40F20001 		movw	r1, #:lower16:.LC0
 1064 0148 0520     		movs	r0, #5
 1065 014a C0F20001 		movt	r1, #:upper16:.LC0
 1066 014e FFF7FEFF 		bl	_test_assert_sequence
 1067              	.LVL140:
 1068 0152 0646     		mov	r6, r0
 1069 0154 0028     		cmp	r0, #0
 1070 0156 40F00581 		bne	.L29
 1071              	.LBB186:
 1072              		.loc 1 123 0
 1073 015a 2023     		movs	r3, #32
 1074              	.LVL141:
 1075              	@ 123 "../chibios_2.4.x/test/testqueues.c" 1
 1076 015c 83F31188 		msr     BASEPRI, r3
ARM GAS  C:\Users\z80\AppData\Local\Temp\ccRmy9tc.s 			page 20


 1077              	@ 0 "" 2
 1078              	.LVL142:
 1079              		.thumb
 1080              	.LBE186:
 1081 0160 FFF7FEFF 		bl	dbg_check_lock
 1082              	.LVL143:
 1083              		.loc 1 125 0
 1084 0164 4121     		movs	r1, #65
 1085 0166 2846     		mov	r0, r5
 1086 0168 FFF7FEFF 		bl	chIQPutI
 1087              	.LVL144:
 1088 016c 4221     		movs	r1, #66
 1089 016e 2846     		mov	r0, r5
 1090 0170 FFF7FEFF 		bl	chIQPutI
 1091              	.LVL145:
 1092 0174 4321     		movs	r1, #67
 1093 0176 2846     		mov	r0, r5
 1094 0178 FFF7FEFF 		bl	chIQPutI
 1095              	.LVL146:
 1096 017c 4421     		movs	r1, #68
 1097 017e 2846     		mov	r0, r5
 1098 0180 FFF7FEFF 		bl	chIQPutI
 1099              	.LVL147:
 1100              		.loc 1 126 0
 1101 0184 FFF7FEFF 		bl	dbg_check_unlock
 1102              	.LBB187:
 1103 0188 3346     		mov	r3, r6
 1104              	.LVL148:
 1105              	@ 126 "../chibios_2.4.x/test/testqueues.c" 1
 1106 018a 83F31188 		msr     BASEPRI, r3
 1107              	@ 0 "" 2
 1108              	.LVL149:
 1109              		.thumb
 1110              	.LBE187:
 1111              		.loc 1 129 0
 1112 018e 40F20006 		movw	r6, #:lower16:wa
 1113 0192 C0F20006 		movt	r6, #:upper16:wa
 1114 0196 7768     		ldr	r7, [r6, #4]
 1115 0198 0822     		movs	r2, #8
 1116 019a 3946     		mov	r1, r7
 1117 019c 2846     		mov	r0, r5
 1118 019e FFF7FEFF 		bl	chIQReadTimeout
 1119              	.LVL150:
 1120              		.loc 1 130 0
 1121 01a2 A0F10401 		sub	r1, r0, #4
 1122 01a6 D1F10008 		rsbs	r8, r1, #0
 1123 01aa 48EB0101 		adc	r1, r8, r1
 1124 01ae 0620     		movs	r0, #6
 1125              	.LVL151:
 1126 01b0 FFF7FEFF 		bl	_test_assert
 1127 01b4 8046     		mov	r8, r0
 1128 01b6 0028     		cmp	r0, #0
 1129 01b8 40F0D480 		bne	.L29
 1130              	.LBB188:
 1131              		.loc 1 131 0
 1132 01bc 2023     		movs	r3, #32
 1133              	.LVL152:
ARM GAS  C:\Users\z80\AppData\Local\Temp\ccRmy9tc.s 			page 21


 1134              	@ 131 "../chibios_2.4.x/test/testqueues.c" 1
 1135 01be 83F31188 		msr     BASEPRI, r3
 1136              	@ 0 "" 2
 1137              	.LVL153:
 1138              		.thumb
 1139              	.LBE188:
 1140 01c2 FFF7FEFF 		bl	dbg_check_lock
 1141              	.LVL154:
 1142 01c6 AA68     		ldr	r2, [r5, #8]
 1143 01c8 0720     		movs	r0, #7
 1144 01ca D2F10101 		rsbs	r1, r2, #1
 1145 01ce 38BF     		it	cc
 1146 01d0 0021     		movcc	r1, #0
 1147 01d2 FFF7FEFF 		bl	_test_assert
 1148 01d6 8146     		mov	r9, r0
 1149 01d8 0028     		cmp	r0, #0
 1150 01da 40F0D780 		bne	.L42
 1151 01de FFF7FEFF 		bl	dbg_check_unlock
 1152              	.LBB189:
 1153 01e2 4B46     		mov	r3, r9
 1154              	.LVL155:
 1155              	@ 131 "../chibios_2.4.x/test/testqueues.c" 1
 1156 01e4 83F31188 		msr     BASEPRI, r3
 1157              	@ 0 "" 2
 1158              	.LVL156:
 1159              		.thumb
 1160              	.LBE189:
 1161              	.LBB190:
 1162              		.loc 1 134 0
 1163 01e8 2023     		movs	r3, #32
 1164              	.LVL157:
 1165              	@ 134 "../chibios_2.4.x/test/testqueues.c" 1
 1166 01ea 83F31188 		msr     BASEPRI, r3
 1167              	@ 0 "" 2
 1168              	.LVL158:
 1169              		.thumb
 1170              	.LBE190:
 1171 01ee FFF7FEFF 		bl	dbg_check_lock
 1172              	.LVL159:
 1173              		.loc 1 136 0
 1174 01f2 4121     		movs	r1, #65
 1175 01f4 2846     		mov	r0, r5
 1176 01f6 FFF7FEFF 		bl	chIQPutI
 1177              	.LVL160:
 1178 01fa 4221     		movs	r1, #66
 1179 01fc 2846     		mov	r0, r5
 1180 01fe FFF7FEFF 		bl	chIQPutI
 1181              	.LVL161:
 1182 0202 4321     		movs	r1, #67
 1183 0204 2846     		mov	r0, r5
 1184 0206 FFF7FEFF 		bl	chIQPutI
 1185              	.LVL162:
 1186 020a 4421     		movs	r1, #68
 1187 020c 2846     		mov	r0, r5
 1188 020e FFF7FEFF 		bl	chIQPutI
 1189              	.LVL163:
 1190              		.loc 1 137 0
ARM GAS  C:\Users\z80\AppData\Local\Temp\ccRmy9tc.s 			page 22


 1191 0212 FFF7FEFF 		bl	dbg_check_unlock
 1192              	.LBB191:
 1193 0216 4B46     		mov	r3, r9
 1194              	.LVL164:
 1195              	@ 137 "../chibios_2.4.x/test/testqueues.c" 1
 1196 0218 83F31188 		msr     BASEPRI, r3
 1197              	@ 0 "" 2
 1198              	.LVL165:
 1199              		.thumb
 1200              	.LBE191:
 1201              		.loc 1 140 0
 1202 021c 0222     		movs	r2, #2
 1203 021e 3946     		mov	r1, r7
 1204 0220 2846     		mov	r0, r5
 1205 0222 FFF7FEFF 		bl	chIQReadTimeout
 1206              	.LVL166:
 1207              		.loc 1 141 0
 1208 0226 A0F10200 		sub	r0, r0, #2
 1209              	.LVL167:
 1210 022a 4342     		rsbs	r3, r0, #0
 1211 022c 43EB0001 		adc	r1, r3, r0
 1212 0230 0820     		movs	r0, #8
 1213              	.LVL168:
 1214 0232 FFF7FEFF 		bl	_test_assert
 1215 0236 0028     		cmp	r0, #0
 1216 0238 40F09480 		bne	.L29
 1217              		.loc 1 142 0
 1218 023c 0222     		movs	r2, #2
 1219 023e 0346     		mov	r3, r0
 1220 0240 3946     		mov	r1, r7
 1221 0242 2846     		mov	r0, r5
 1222 0244 FFF7FEFF 		bl	chIQReadTimeout
 1223              	.LVL169:
 1224              		.loc 1 143 0
 1225 0248 A0F10201 		sub	r1, r0, #2
 1226 024c D1F1000C 		rsbs	ip, r1, #0
 1227 0250 4CEB0101 		adc	r1, ip, r1
 1228 0254 0920     		movs	r0, #9
 1229              	.LVL170:
 1230 0256 FFF7FEFF 		bl	_test_assert
 1231 025a 8046     		mov	r8, r0
 1232 025c 0028     		cmp	r0, #0
 1233 025e 40F08180 		bne	.L29
 1234              	.LBB192:
 1235              		.loc 1 144 0
 1236 0262 2023     		movs	r3, #32
 1237              	.LVL171:
 1238              	@ 144 "../chibios_2.4.x/test/testqueues.c" 1
 1239 0264 83F31188 		msr     BASEPRI, r3
 1240              	@ 0 "" 2
 1241              	.LVL172:
 1242              		.thumb
 1243              	.LBE192:
 1244 0268 FFF7FEFF 		bl	dbg_check_lock
 1245              	.LVL173:
 1246 026c AF68     		ldr	r7, [r5, #8]
 1247 026e 0A20     		movs	r0, #10
ARM GAS  C:\Users\z80\AppData\Local\Temp\ccRmy9tc.s 			page 23


 1248 0270 D7F10101 		rsbs	r1, r7, #1
 1249 0274 38BF     		it	cc
 1250 0276 0021     		movcc	r1, #0
 1251 0278 FFF7FEFF 		bl	_test_assert
 1252 027c 0746     		mov	r7, r0
 1253 027e 0028     		cmp	r0, #0
 1254 0280 40F08480 		bne	.L42
 1255 0284 FFF7FEFF 		bl	dbg_check_unlock
 1256              	.LBB193:
 1257 0288 3B46     		mov	r3, r7
 1258              	.LVL174:
 1259              	@ 144 "../chibios_2.4.x/test/testqueues.c" 1
 1260 028a 83F31188 		msr     BASEPRI, r3
 1261              	@ 0 "" 2
 1262              	.LVL175:
 1263              		.thumb
 1264              	.LBE193:
 1265              	.LBB194:
 1266              		.loc 1 147 0
 1267 028e 2023     		movs	r3, #32
 1268              	.LVL176:
 1269              	@ 147 "../chibios_2.4.x/test/testqueues.c" 1
 1270 0290 83F31188 		msr     BASEPRI, r3
 1271              	@ 0 "" 2
 1272              	.LVL177:
 1273              		.thumb
 1274              	.LBE194:
 1275 0294 FFF7FEFF 		bl	dbg_check_lock
 1276              	.LVL178:
 1277              		.loc 1 148 0
 1278 0298 3946     		mov	r1, r7
 1279 029a 2846     		mov	r0, r5
 1280 029c FFF7FEFF 		bl	chIQPutI
 1281              		.loc 1 149 0
 1282 02a0 2846     		mov	r0, r5
 1283 02a2 FFF7FEFF 		bl	chIQResetI
 1284              		.loc 1 150 0
 1285 02a6 FFF7FEFF 		bl	dbg_check_unlock
 1286              	.LBB195:
 1287 02aa 3B46     		mov	r3, r7
 1288              	.LVL179:
 1289              	@ 150 "../chibios_2.4.x/test/testqueues.c" 1
 1290 02ac 83F31188 		msr     BASEPRI, r3
 1291              	@ 0 "" 2
 1292              	.LVL180:
 1293              		.thumb
 1294              	.LBE195:
 1295              	.LBB196:
 1296              		.loc 1 151 0
 1297 02b0 2023     		movs	r3, #32
 1298              	.LVL181:
 1299              	@ 151 "../chibios_2.4.x/test/testqueues.c" 1
 1300 02b2 83F31188 		msr     BASEPRI, r3
 1301              	@ 0 "" 2
 1302              	.LVL182:
 1303              		.thumb
 1304              	.LBE196:
ARM GAS  C:\Users\z80\AppData\Local\Temp\ccRmy9tc.s 			page 24


 1305 02b6 FFF7FEFF 		bl	dbg_check_lock
 1306              	.LVL183:
 1307 02ba AA68     		ldr	r2, [r5, #8]
 1308 02bc 0B20     		movs	r0, #11
 1309 02be D2F10101 		rsbs	r1, r2, #1
 1310 02c2 38BF     		it	cc
 1311 02c4 0021     		movcc	r1, #0
 1312 02c6 FFF7FEFF 		bl	_test_assert
 1313 02ca 0028     		cmp	r0, #0
 1314 02cc 45D1     		bne	.L41
 1315 02ce FFF7FEFF 		bl	dbg_check_unlock
 1316              	.LBB197:
 1317 02d2 0023     		movs	r3, #0
 1318              	.LVL184:
 1319              	@ 151 "../chibios_2.4.x/test/testqueues.c" 1
 1320 02d4 83F31188 		msr     BASEPRI, r3
 1321              	@ 0 "" 2
 1322              	.LVL185:
 1323              		.thumb
 1324              	.LBE197:
 1325              		.loc 1 152 0
 1326 02d8 40F20005 		movw	r5, #:lower16:rlist
 1327 02dc C0F20005 		movt	r5, #:upper16:rlist
 1328 02e0 E869     		ldr	r0, [r5, #28]
 1329 02e2 1D46     		mov	r5, r3
 1330 02e4 8268     		ldr	r2, [r0, #8]
 1331 02e6 40F20003 		movw	r3, #:lower16:thread1
 1332              	.LVL186:
 1333 02ea 3068     		ldr	r0, [r6, #0]
 1334 02ec 4FF49871 		mov	r1, #304
 1335 02f0 0132     		adds	r2, r2, #1
 1336 02f2 C0F20003 		movt	r3, #:upper16:thread1
 1337 02f6 0095     		str	r5, [sp, #0]
 1338 02f8 FFF7FEFF 		bl	chThdCreateStatic
 1339 02fc 40F2000C 		movw	ip, #:lower16:threads
 1340 0300 C0F2000C 		movt	ip, #:upper16:threads
 1341 0304 CCF80000 		str	r0, [ip, #0]
 1342              	.LBB198:
 1343              		.loc 1 153 0
 1344 0308 2023     		movs	r3, #32
 1345              	.LVL187:
 1346              	@ 153 "../chibios_2.4.x/test/testqueues.c" 1
 1347 030a 83F31188 		msr     BASEPRI, r3
 1348              	@ 0 "" 2
 1349              	.LVL188:
 1350              		.thumb
 1351              	.LBE198:
 1352 030e FFF7FEFF 		bl	dbg_check_lock
 1353              	.LVL189:
 1354 0312 A168     		ldr	r1, [r4, #8]
 1355 0314 0C20     		movs	r0, #12
 1356 0316 4B1B     		subs	r3, r1, r5
 1357 0318 5C42     		rsbs	r4, r3, #0
 1358 031a 44EB0301 		adc	r1, r4, r3
 1359 031e FFF7FEFF 		bl	_test_assert
 1360 0322 0446     		mov	r4, r0
 1361 0324 0028     		cmp	r0, #0
ARM GAS  C:\Users\z80\AppData\Local\Temp\ccRmy9tc.s 			page 25


 1362 0326 37D1     		bne	.L46
 1363 0328 FFF7FEFF 		bl	dbg_check_unlock
 1364              	.LBB199:
 1365 032c 2346     		mov	r3, r4
 1366              	.LVL190:
 1367              	@ 153 "../chibios_2.4.x/test/testqueues.c" 1
 1368 032e 83F31188 		msr     BASEPRI, r3
 1369              	@ 0 "" 2
 1370              	.LVL191:
 1371              		.thumb
 1372              	.LBE199:
 1373              		.loc 1 154 0
 1374 0332 FFF7FEFF 		bl	test_wait_threads
 1375              	.LVL192:
 1376              		.loc 1 157 0
 1377 0336 40F20000 		movw	r0, #:lower16:.LANCHOR1
 1378 033a 0A21     		movs	r1, #10
 1379 033c C0F20000 		movt	r0, #:upper16:.LANCHOR1
 1380 0340 FFF7FEFF 		bl	chIQGetTimeout
 1381 0344 A0F1FF33 		sub	r3, r0, #-1
 1382 0348 5942     		rsbs	r1, r3, #0
 1383 034a 41EB0301 		adc	r1, r1, r3
 1384 034e 0D20     		movs	r0, #13
 1385              	.LBE176:
 1386              	.LBE175:
 1387              		.loc 1 158 0
 1388 0350 03B0     		add	sp, sp, #12
 1389 0352 BDE8F043 		pop	{r4, r5, r6, r7, r8, r9, lr}
 1390              	.LBB207:
 1391              	.LBB205:
 1392              		.loc 1 157 0
 1393 0356 FFF7FEBF 		b	_test_assert
 1394              	.LVL193:
 1395              	.L41:
 1396              		.loc 1 151 0
 1397 035a FFF7FEFF 		bl	dbg_check_unlock
 1398              	.LBB200:
 1399 035e 0023     		movs	r3, #0
 1400              	.LVL194:
 1401              	@ 151 "../chibios_2.4.x/test/testqueues.c" 1
 1402 0360 83F31188 		msr     BASEPRI, r3
 1403              	@ 0 "" 2
 1404              	.LVL195:
 1405              		.thumb
 1406              	.L29:
 1407              	.LBE200:
 1408              	.LBE205:
 1409              	.LBE207:
 1410              		.loc 1 158 0
 1411 0364 03B0     		add	sp, sp, #12
 1412 0366 BDE8F083 		pop	{r4, r5, r6, r7, r8, r9, pc}
 1413              	.LVL196:
 1414              	.L45:
 1415              	.LBB208:
 1416              	.LBB206:
 1417              		.loc 1 119 0
 1418 036a FFF7FEFF 		bl	dbg_check_unlock
ARM GAS  C:\Users\z80\AppData\Local\Temp\ccRmy9tc.s 			page 26


 1419              	.LBB201:
 1420 036e 3B46     		mov	r3, r7
 1421              	@ 119 "../chibios_2.4.x/test/testqueues.c" 1
 1422 0370 83F31188 		msr     BASEPRI, r3
 1423              	@ 0 "" 2
 1424              	.LVL197:
 1425              		.thumb
 1426 0374 F6E7     		b	.L29
 1427              	.LVL198:
 1428              	.L44:
 1429              	.LBE201:
 1430              		.loc 1 114 0
 1431 0376 FFF7FEFF 		bl	dbg_check_unlock
 1432              	.LBB202:
 1433 037a 3346     		mov	r3, r6
 1434              	@ 114 "../chibios_2.4.x/test/testqueues.c" 1
 1435 037c 83F31188 		msr     BASEPRI, r3
 1436              	@ 0 "" 2
 1437              	.LVL199:
 1438              		.thumb
 1439 0380 F0E7     		b	.L29
 1440              	.LVL200:
 1441              	.L43:
 1442              	.LBE202:
 1443              		.loc 1 101 0
 1444 0382 A068     		ldr	r0, [r4, #8]
 1445 0384 011C     		adds	r1, r0, #0
 1446 0386 18BF     		it	ne
 1447 0388 0121     		movne	r1, #1
 1448 038a 7CE6     		b	.L32
 1449              	.L42:
 1450              		.loc 1 144 0
 1451 038c FFF7FEFF 		bl	dbg_check_unlock
 1452              	.LBB203:
 1453 0390 4346     		mov	r3, r8
 1454              	@ 144 "../chibios_2.4.x/test/testqueues.c" 1
 1455 0392 83F31188 		msr     BASEPRI, r3
 1456              	@ 0 "" 2
 1457              	.LVL201:
 1458              		.thumb
 1459 0396 E5E7     		b	.L29
 1460              	.LVL202:
 1461              	.L46:
 1462              	.LBE203:
 1463              		.loc 1 153 0
 1464 0398 FFF7FEFF 		bl	dbg_check_unlock
 1465              	.LBB204:
 1466 039c 2B46     		mov	r3, r5
 1467              	@ 153 "../chibios_2.4.x/test/testqueues.c" 1
 1468 039e 83F31188 		msr     BASEPRI, r3
 1469              	@ 0 "" 2
 1470              	.LVL203:
 1471              		.thumb
 1472 03a2 DFE7     		b	.L29
 1473              	.LBE204:
 1474              	.LBE206:
 1475              	.LBE208:
ARM GAS  C:\Users\z80\AppData\Local\Temp\ccRmy9tc.s 			page 27


 1476              		.cfi_endproc
 1477              	.LFE10:
 1478              		.size	queues1_execute, .-queues1_execute
 1479              		.global	patternqueues
 1480              		.global	testqueues2
 1481              		.global	testqueues1
 1482 03a4 AFF30080 		.section	.rodata.testqueues1,"a",%progbits
 1482      AFF30080 
 1482      AFF30080 
 1483              		.align	2
 1484              		.type	testqueues1, %object
 1485              		.size	testqueues1, 16
 1486              	testqueues1:
 1487 0000 20000000 		.word	.LC2
 1488 0004 00000000 		.word	queues1_setup
 1489 0008 00000000 		.word	0
 1490 000c 00000000 		.word	queues1_execute
 1491              		.section	.rodata.testqueues2,"a",%progbits
 1492              		.align	2
 1493              		.type	testqueues2, %object
 1494              		.size	testqueues2, 16
 1495              	testqueues2:
 1496 0000 08000000 		.word	.LC1
 1497 0004 00000000 		.word	queues2_setup
 1498 0008 00000000 		.word	0
 1499 000c 00000000 		.word	queues2_execute
 1500              		.section	.rodata.str1.4,"aMS",%progbits,1
 1501              		.align	2
 1502              	.LC0:
 1503 0000 41424344 		.ascii	"ABCD\000"
 1503      00
 1504 0005 000000   		.space	3
 1505              	.LC1:
 1506 0008 51756575 		.ascii	"Queues, output queues\000"
 1506      65732C20 
 1506      6F757470 
 1506      75742071 
 1506      75657565 
 1507 001e 0000     		.space	2
 1508              	.LC2:
 1509 0020 51756575 		.ascii	"Queues, input queues\000"
 1509      65732C20 
 1509      696E7075 
 1509      74207175 
 1509      65756573 
 1510 0035 000000   		.section	.rodata.patternqueues,"a",%progbits
 1511              		.align	2
 1512              		.type	patternqueues, %object
 1513              		.size	patternqueues, 12
 1514              	patternqueues:
 1515 0000 00000000 		.word	testqueues1
 1516 0004 00000000 		.word	testqueues2
 1517 0008 00000000 		.word	0
 1518              		.section	.data.oq,"aw",%progbits
 1519              		.align	2
 1520              		.set	.LANCHOR0,. + 0
 1521              		.type	oq, %object
ARM GAS  C:\Users\z80\AppData\Local\Temp\ccRmy9tc.s 			page 28


 1522              		.size	oq, 32
 1523              	oq:
 1524 0000 00000000 		.word	oq
 1525 0004 00000000 		.word	oq
 1526 0008 04000000 		.word	4
 1527 000c 30010000 		.word	test+304
 1528 0010 34010000 		.word	test+308
 1529 0014 30010000 		.word	test+304
 1530 0018 30010000 		.word	test+304
 1531 001c 00000000 		.word	notify
 1532              		.section	.data.iq,"aw",%progbits
 1533              		.align	2
 1534              		.set	.LANCHOR1,. + 0
 1535              		.type	iq, %object
 1536              		.size	iq, 32
 1537              	iq:
 1538 0000 00000000 		.word	iq
 1539 0004 00000000 		.word	iq
 1540 0008 00000000 		.word	0
 1541 000c 00000000 		.word	test
 1542 0010 04000000 		.word	test+4
 1543 0014 00000000 		.word	test
 1544 0018 00000000 		.word	test
 1545 001c 00000000 		.word	notify
 1546              		.text
 1547              	.Letext0:
 1548              		.file 2 "c:\\programs\\codesourcery\\2011.03-56\\bin\\../lib/gcc/arm-none-eabi/4.6.3/include/stdde
 1549              		.file 3 "c:\\programs\\codesourcery\\2011.03-56\\bin\\../lib/gcc/arm-none-eabi/4.6.3/../../../../a
 1550              		.file 4 "../chibios_2.4.x/os/ports/GCC/ARMCMx/chtypes.h"
 1551              		.file 5 "../chibios_2.4.x/os/kernel/include/chlists.h"
 1552              		.file 6 "../chibios_2.4.x/os/kernel/include/chthreads.h"
 1553              		.file 7 "../chibios_2.4.x/os/ports/GCC/ARMCMx/chcore_v7m.h"
 1554              		.file 8 "../chibios_2.4.x/os/kernel/include/chschd.h"
 1555              		.file 9 "../chibios_2.4.x/os/kernel/include/chmtx.h"
 1556              		.file 10 "../chibios_2.4.x/os/kernel/include/chqueues.h"
 1557              		.file 11 "../chibios_2.4.x/test/test.h"