ARM GAS  C:\Users\z80\AppData\Local\Temp\ccIWjNPe.s 			page 1


   1              		.syntax unified
   2              		.cpu cortex-m3
   3              		.fpu softvfp
   4              		.eabi_attribute 20, 1
   5              		.eabi_attribute 21, 1
   6              		.eabi_attribute 23, 3
   7              		.eabi_attribute 24, 1
   8              		.eabi_attribute 25, 1
   9              		.eabi_attribute 26, 1
  10              		.eabi_attribute 30, 6
  11              		.eabi_attribute 34, 1
  12              		.eabi_attribute 18, 4
  13              		.thumb
  14              		.file	"testevt.c"
  15              		.text
  16              	.Ltext0:
  17              		.cfi_sections	.debug_frame
  18              		.section	.data.es1,"aw",%progbits
  19              		.align	2
  20              		.type	es1, %object
  21              		.size	es1, 4
  22              	es1:
  23 0000 00000000 		.word	es1
  24              		.section	.data.es2,"aw",%progbits
  25              		.align	2
  26              		.type	es2, %object
  27              		.size	es2, 4
  28              	es2:
  29 0000 00000000 		.word	es2
  30              		.section	.text.evt1_setup,"ax",%progbits
  31              		.align	2
  32              		.p2align 4,,15
  33              		.thumb
  34              		.thumb_func
  35              		.type	evt1_setup, %function
  36              	evt1_setup:
  37              	.LFB7:
  38              		.file 1 "../chibios_2.4.x/test/testevt.c"
  39              		.loc 1 86 0
  40              		.cfi_startproc
  41              		@ args = 0, pretend = 0, frame = 0
  42              		@ frame_needed = 0, uses_anonymous_args = 0
  43 0000 08B5     		push	{r3, lr}
  44              	.LCFI0:
  45              		.cfi_def_cfa_offset 8
  46              		.cfi_offset 14, -4
  47              		.cfi_offset 3, -8
  48              		.loc 1 88 0
  49 0002 4FF0FF30 		mov	r0, #-1
  50 0006 FFF7FEFF 		bl	chEvtClearFlags
  51              		.loc 1 89 0
  52 000a 08BD     		pop	{r3, pc}
  53              		.cfi_endproc
  54              	.LFE7:
  55              		.size	evt1_setup, .-evt1_setup
  56 000c AFF30080 		.section	.text.h1,"ax",%progbits
  57              		.align	2
ARM GAS  C:\Users\z80\AppData\Local\Temp\ccIWjNPe.s 			page 2


  58              		.p2align 4,,15
  59              		.thumb
  60              		.thumb_func
  61              		.type	h1, %function
  62              	h1:
  63              	.LFB8:
  64              		.loc 1 91 0
  65              		.cfi_startproc
  66              		@ args = 0, pretend = 0, frame = 8
  67              		@ frame_needed = 0, uses_anonymous_args = 0
  68 0000 00B5     		push	{lr}
  69              	.LCFI1:
  70              		.cfi_def_cfa_offset 4
  71              		.cfi_offset 14, -4
  72 0002 83B0     		sub	sp, sp, #12
  73              	.LCFI2:
  74              		.cfi_def_cfa_offset 16
  75 0004 0190     		str	r0, [sp, #4]
  76              		.loc 1 91 0
  77 0006 4FF04100 		mov	r0, #65
  78 000a FFF7FEFF 		bl	test_emit_token
  79 000e 03B0     		add	sp, sp, #12
  80 0010 00BD     		pop	{pc}
  81              		.cfi_endproc
  82              	.LFE8:
  83              		.size	h1, .-h1
  84 0012 00BFAFF3 		.section	.text.h2,"ax",%progbits
  84      0080AFF3 
  84      0080AFF3 
  84      0080
  85              		.align	2
  86              		.p2align 4,,15
  87              		.thumb
  88              		.thumb_func
  89              		.type	h2, %function
  90              	h2:
  91              	.LFB9:
  92              		.loc 1 92 0
  93              		.cfi_startproc
  94              		@ args = 0, pretend = 0, frame = 8
  95              		@ frame_needed = 0, uses_anonymous_args = 0
  96 0000 00B5     		push	{lr}
  97              	.LCFI3:
  98              		.cfi_def_cfa_offset 4
  99              		.cfi_offset 14, -4
 100 0002 83B0     		sub	sp, sp, #12
 101              	.LCFI4:
 102              		.cfi_def_cfa_offset 16
 103 0004 0190     		str	r0, [sp, #4]
 104              		.loc 1 92 0
 105 0006 4FF04200 		mov	r0, #66
 106 000a FFF7FEFF 		bl	test_emit_token
 107 000e 03B0     		add	sp, sp, #12
 108 0010 00BD     		pop	{pc}
 109              		.cfi_endproc
 110              	.LFE9:
 111              		.size	h2, .-h2
ARM GAS  C:\Users\z80\AppData\Local\Temp\ccIWjNPe.s 			page 3


 112 0012 00BFAFF3 		.section	.text.h3,"ax",%progbits
 112      0080AFF3 
 112      0080AFF3 
 112      0080
 113              		.align	2
 114              		.p2align 4,,15
 115              		.thumb
 116              		.thumb_func
 117              		.type	h3, %function
 118              	h3:
 119              	.LFB10:
 120              		.loc 1 93 0
 121              		.cfi_startproc
 122              		@ args = 0, pretend = 0, frame = 8
 123              		@ frame_needed = 0, uses_anonymous_args = 0
 124 0000 00B5     		push	{lr}
 125              	.LCFI5:
 126              		.cfi_def_cfa_offset 4
 127              		.cfi_offset 14, -4
 128 0002 83B0     		sub	sp, sp, #12
 129              	.LCFI6:
 130              		.cfi_def_cfa_offset 16
 131 0004 0190     		str	r0, [sp, #4]
 132              		.loc 1 93 0
 133 0006 4FF04300 		mov	r0, #67
 134 000a FFF7FEFF 		bl	test_emit_token
 135 000e 03B0     		add	sp, sp, #12
 136 0010 00BD     		pop	{pc}
 137              		.cfi_endproc
 138              	.LFE10:
 139              		.size	h3, .-h3
 140 0012 00BFAFF3 		.section	.rodata.evhndl,"a",%progbits
 140      0080AFF3 
 140      0080AFF3 
 140      0080
 141              		.align	2
 142              		.type	evhndl, %object
 143              		.size	evhndl, 12
 144              	evhndl:
 145 0000 00000000 		.word	h1
 146 0004 00000000 		.word	h2
 147 0008 00000000 		.word	h3
 148              		.section	.rodata
 149              		.align	2
 150              	.LC0:
 151 0000 41424300 		.ascii	"ABC\000"
 152              		.section	.text.evt1_execute,"ax",%progbits
 153              		.align	2
 154              		.p2align 4,,15
 155              		.thumb
 156              		.thumb_func
 157              		.type	evt1_execute, %function
 158              	evt1_execute:
 159              	.LFB11:
 160              		.loc 1 96 0
 161              		.cfi_startproc
 162              		@ args = 0, pretend = 0, frame = 24
ARM GAS  C:\Users\z80\AppData\Local\Temp\ccIWjNPe.s 			page 4


 163              		@ frame_needed = 0, uses_anonymous_args = 0
 164 0000 00B5     		push	{lr}
 165              	.LCFI7:
 166              		.cfi_def_cfa_offset 4
 167              		.cfi_offset 14, -4
 168 0002 87B0     		sub	sp, sp, #28
 169              	.LCFI8:
 170              		.cfi_def_cfa_offset 32
 171              		.loc 1 102 0
 172 0004 40F20003 		movw	r3, #:lower16:es1
 173 0008 C0F20003 		movt	r3, #:upper16:es1
 174 000c 40F20002 		movw	r2, #:lower16:es1
 175 0010 C0F20002 		movt	r2, #:upper16:es1
 176 0014 1A60     		str	r2, [r3, #0]
 177              		.loc 1 103 0
 178 0016 40F20000 		movw	r0, #:lower16:es1
 179 001a C0F20000 		movt	r0, #:upper16:es1
 180 001e 03AB     		add	r3, sp, #12
 181 0020 1946     		mov	r1, r3
 182 0022 4FF00102 		mov	r2, #1
 183 0026 FFF7FEFF 		bl	chEvtRegisterMask
 184              		.loc 1 104 0
 185 002a 40F20000 		movw	r0, #:lower16:es1
 186 002e C0F20000 		movt	r0, #:upper16:es1
 187 0032 6B46     		mov	r3, sp
 188 0034 1946     		mov	r1, r3
 189 0036 4FF00202 		mov	r2, #2
 190 003a FFF7FEFF 		bl	chEvtRegisterMask
 191              		.loc 1 105 0
 192 003e 40F20003 		movw	r3, #:lower16:es1
 193 0042 C0F20003 		movt	r3, #:upper16:es1
 194 0046 1A68     		ldr	r2, [r3, #0]
 195 0048 40F20003 		movw	r3, #:lower16:es1
 196 004c C0F20003 		movt	r3, #:upper16:es1
 197 0050 9A42     		cmp	r2, r3
 198 0052 0CBF     		ite	eq
 199 0054 0023     		moveq	r3, #0
 200 0056 0123     		movne	r3, #1
 201 0058 4FF00100 		mov	r0, #1
 202 005c 1946     		mov	r1, r3
 203 005e FFF7FEFF 		bl	_test_assert
 204 0062 0346     		mov	r3, r0
 205 0064 002B     		cmp	r3, #0
 206 0066 4BD1     		bne	.L5
 207              	.L6:
 208              		.loc 1 106 0
 209 0068 40F20000 		movw	r0, #:lower16:es1
 210 006c C0F20000 		movt	r0, #:upper16:es1
 211 0070 03AB     		add	r3, sp, #12
 212 0072 1946     		mov	r1, r3
 213 0074 FFF7FEFF 		bl	chEvtUnregister
 214              		.loc 1 107 0
 215 0078 40F20003 		movw	r3, #:lower16:es1
 216 007c C0F20003 		movt	r3, #:upper16:es1
 217 0080 1A68     		ldr	r2, [r3, #0]
 218 0082 40F20003 		movw	r3, #:lower16:es1
 219 0086 C0F20003 		movt	r3, #:upper16:es1
ARM GAS  C:\Users\z80\AppData\Local\Temp\ccIWjNPe.s 			page 5


 220 008a 9A42     		cmp	r2, r3
 221 008c 0CBF     		ite	eq
 222 008e 0023     		moveq	r3, #0
 223 0090 0123     		movne	r3, #1
 224 0092 4FF00200 		mov	r0, #2
 225 0096 1946     		mov	r1, r3
 226 0098 FFF7FEFF 		bl	_test_assert
 227 009c 0346     		mov	r3, r0
 228 009e 002B     		cmp	r3, #0
 229 00a0 2ED1     		bne	.L5
 230              	.L8:
 231              		.loc 1 108 0
 232 00a2 40F20000 		movw	r0, #:lower16:es1
 233 00a6 C0F20000 		movt	r0, #:upper16:es1
 234 00aa 6B46     		mov	r3, sp
 235 00ac 1946     		mov	r1, r3
 236 00ae FFF7FEFF 		bl	chEvtUnregister
 237              		.loc 1 109 0
 238 00b2 40F20003 		movw	r3, #:lower16:es1
 239 00b6 C0F20003 		movt	r3, #:upper16:es1
 240 00ba 1A68     		ldr	r2, [r3, #0]
 241 00bc 40F20003 		movw	r3, #:lower16:es1
 242 00c0 C0F20003 		movt	r3, #:upper16:es1
 243 00c4 9A42     		cmp	r2, r3
 244 00c6 14BF     		ite	ne
 245 00c8 0023     		movne	r3, #0
 246 00ca 0123     		moveq	r3, #1
 247 00cc 4FF00300 		mov	r0, #3
 248 00d0 1946     		mov	r1, r3
 249 00d2 FFF7FEFF 		bl	_test_assert
 250 00d6 0346     		mov	r3, r0
 251 00d8 002B     		cmp	r3, #0
 252 00da 11D1     		bne	.L5
 253              	.L9:
 254              		.loc 1 114 0
 255 00dc 40F20000 		movw	r0, #:lower16:evhndl
 256 00e0 C0F20000 		movt	r0, #:upper16:evhndl
 257 00e4 4FF00701 		mov	r1, #7
 258 00e8 FFF7FEFF 		bl	chEvtDispatch
 259              		.loc 1 115 0
 260 00ec 4FF00400 		mov	r0, #4
 261 00f0 40F20001 		movw	r1, #:lower16:.LC0
 262 00f4 C0F20001 		movt	r1, #:upper16:.LC0
 263 00f8 FFF7FEFF 		bl	_test_assert_sequence
 264 00fc 0346     		mov	r3, r0
 265 00fe 002B     		cmp	r3, #0
 266              	.L5:
 267              		.loc 1 116 0
 268 0100 07B0     		add	sp, sp, #28
 269 0102 00BD     		pop	{pc}
 270              		.cfi_endproc
 271              	.LFE11:
 272              		.size	evt1_execute, .-evt1_execute
 273              		.global	testevt1
 274 0104 AFF30080 		.section	.rodata
 274      AFF30080 
 274      AFF30080 
ARM GAS  C:\Users\z80\AppData\Local\Temp\ccIWjNPe.s 			page 6


 275              		.align	2
 276              	.LC1:
 277 0004 4576656E 		.ascii	"Events, registration and dispatch\000"
 277      74732C20 
 277      72656769 
 277      73747261 
 277      74696F6E 
 278              		.section	.rodata.testevt1,"a",%progbits
 279              		.align	2
 280              		.type	testevt1, %object
 281              		.size	testevt1, 16
 282              	testevt1:
 283 0000 04000000 		.word	.LC1
 284 0004 00000000 		.word	evt1_setup
 285 0008 00000000 		.word	0
 286 000c 00000000 		.word	evt1_execute
 287              		.section	.text.evt2_setup,"ax",%progbits
 288              		.align	2
 289              		.p2align 4,,15
 290              		.thumb
 291              		.thumb_func
 292              		.type	evt2_setup, %function
 293              	evt2_setup:
 294              	.LFB12:
 295              		.loc 1 139 0
 296              		.cfi_startproc
 297              		@ args = 0, pretend = 0, frame = 0
 298              		@ frame_needed = 0, uses_anonymous_args = 0
 299 0000 08B5     		push	{r3, lr}
 300              	.LCFI9:
 301              		.cfi_def_cfa_offset 8
 302              		.cfi_offset 14, -4
 303              		.cfi_offset 3, -8
 304              		.loc 1 141 0
 305 0002 4FF0FF30 		mov	r0, #-1
 306 0006 FFF7FEFF 		bl	chEvtClearFlags
 307              		.loc 1 142 0
 308 000a 08BD     		pop	{r3, pc}
 309              		.cfi_endproc
 310              	.LFE12:
 311              		.size	evt2_setup, .-evt2_setup
 312 000c AFF30080 		.section	.text.thread1,"ax",%progbits
 313              		.align	2
 314              		.p2align 4,,15
 315              		.thumb
 316              		.thumb_func
 317              		.type	thread1, %function
 318              	thread1:
 319              	.LFB13:
 320              		.loc 1 144 0
 321              		.cfi_startproc
 322              		@ args = 0, pretend = 0, frame = 8
 323              		@ frame_needed = 0, uses_anonymous_args = 0
 324 0000 00B5     		push	{lr}
 325              	.LCFI10:
 326              		.cfi_def_cfa_offset 4
 327              		.cfi_offset 14, -4
ARM GAS  C:\Users\z80\AppData\Local\Temp\ccIWjNPe.s 			page 7


 328 0002 83B0     		sub	sp, sp, #12
 329              	.LCFI11:
 330              		.cfi_def_cfa_offset 16
 331 0004 0190     		str	r0, [sp, #4]
 332              		.loc 1 146 0
 333 0006 4FF01900 		mov	r0, #25
 334 000a FFF7FEFF 		bl	chThdSleep
 335              		.loc 1 147 0
 336 000e 0198     		ldr	r0, [sp, #4]
 337 0010 4FF00101 		mov	r1, #1
 338 0014 FFF7FEFF 		bl	chEvtSignalFlags
 339              		.loc 1 148 0
 340 0018 4FF00003 		mov	r3, #0
 341              		.loc 1 149 0
 342 001c 1846     		mov	r0, r3
 343 001e 03B0     		add	sp, sp, #12
 344 0020 00BD     		pop	{pc}
 345              		.cfi_endproc
 346              	.LFE13:
 347              		.size	thread1, .-thread1
 348 0022 00BFAFF3 		.section	.text.thread2,"ax",%progbits
 348      0080AFF3 
 348      0080AFF3 
 348      0080
 349              		.align	2
 350              		.p2align 4,,15
 351              		.thumb
 352              		.thumb_func
 353              		.type	thread2, %function
 354              	thread2:
 355              	.LFB14:
 356              		.loc 1 151 0
 357              		.cfi_startproc
 358              		@ args = 0, pretend = 0, frame = 8
 359              		@ frame_needed = 0, uses_anonymous_args = 0
 360 0000 00B5     		push	{lr}
 361              	.LCFI12:
 362              		.cfi_def_cfa_offset 4
 363              		.cfi_offset 14, -4
 364 0002 83B0     		sub	sp, sp, #12
 365              	.LCFI13:
 366              		.cfi_def_cfa_offset 16
 367 0004 0190     		str	r0, [sp, #4]
 368              		.loc 1 154 0
 369 0006 40F20000 		movw	r0, #:lower16:es1
 370 000a C0F20000 		movt	r0, #:upper16:es1
 371 000e 4FF00001 		mov	r1, #0
 372 0012 FFF7FEFF 		bl	chEvtBroadcastFlags
 373              		.loc 1 155 0
 374 0016 4FF01900 		mov	r0, #25
 375 001a FFF7FEFF 		bl	chThdSleep
 376              		.loc 1 156 0
 377 001e 40F20000 		movw	r0, #:lower16:es2
 378 0022 C0F20000 		movt	r0, #:upper16:es2
 379 0026 4FF00001 		mov	r1, #0
 380 002a FFF7FEFF 		bl	chEvtBroadcastFlags
 381              		.loc 1 157 0
ARM GAS  C:\Users\z80\AppData\Local\Temp\ccIWjNPe.s 			page 8


 382 002e 4FF00003 		mov	r3, #0
 383              		.loc 1 158 0
 384 0032 1846     		mov	r0, r3
 385 0034 03B0     		add	sp, sp, #12
 386 0036 00BD     		pop	{pc}
 387              		.cfi_endproc
 388              	.LFE14:
 389              		.size	thread2, .-thread2
 390 0038 AFF30080 		.section	.rodata
 390      AFF30080 
 391 0026 0000     		.align	2
 392              	.LC2:
 393 0028 4100     		.ascii	"A\000"
 394              		.section	.text.evt2_execute,"ax",%progbits
 395              		.align	2
 396              		.p2align 4,,15
 397              		.thumb
 398              		.thumb_func
 399              		.type	evt2_execute, %function
 400              	evt2_execute:
 401              	.LFB15:
 402              		.loc 1 160 0
 403              		.cfi_startproc
 404              		@ args = 0, pretend = 0, frame = 32
 405              		@ frame_needed = 0, uses_anonymous_args = 0
 406 0000 00B5     		push	{lr}
 407              	.LCFI14:
 408              		.cfi_def_cfa_offset 4
 409              		.cfi_offset 14, -4
 410 0002 8BB0     		sub	sp, sp, #44
 411              	.LCFI15:
 412              		.cfi_def_cfa_offset 48
 413              		.loc 1 168 0
 414 0004 4FF00500 		mov	r0, #5
 415 0008 FFF7FEFF 		bl	chEvtAddFlags
 416              		.loc 1 169 0
 417 000c 4FF0FF30 		mov	r0, #-1
 418 0010 FFF7FEFF 		bl	chEvtWaitOne
 419 0014 0990     		str	r0, [sp, #36]
 420              		.loc 1 170 0
 421 0016 099B     		ldr	r3, [sp, #36]
 422 0018 012B     		cmp	r3, #1
 423 001a 14BF     		ite	ne
 424 001c 0023     		movne	r3, #0
 425 001e 0123     		moveq	r3, #1
 426 0020 4FF00100 		mov	r0, #1
 427 0024 1946     		mov	r1, r3
 428 0026 FFF7FEFF 		bl	_test_assert
 429 002a 0346     		mov	r3, r0
 430 002c 002B     		cmp	r3, #0
 431 002e 40F0C181 		bne	.L13
 432              	.L14:
 433              		.loc 1 171 0
 434 0032 4FF0FF30 		mov	r0, #-1
 435 0036 FFF7FEFF 		bl	chEvtWaitOne
 436 003a 0990     		str	r0, [sp, #36]
 437              		.loc 1 172 0
ARM GAS  C:\Users\z80\AppData\Local\Temp\ccIWjNPe.s 			page 9


 438 003c 099B     		ldr	r3, [sp, #36]
 439 003e 042B     		cmp	r3, #4
 440 0040 14BF     		ite	ne
 441 0042 0023     		movne	r3, #0
 442 0044 0123     		moveq	r3, #1
 443 0046 4FF00200 		mov	r0, #2
 444 004a 1946     		mov	r1, r3
 445 004c FFF7FEFF 		bl	_test_assert
 446 0050 0346     		mov	r3, r0
 447 0052 002B     		cmp	r3, #0
 448 0054 40F0AE81 		bne	.L13
 449              	.L16:
 450              		.loc 1 173 0
 451 0058 4FF0FF30 		mov	r0, #-1
 452 005c FFF7FEFF 		bl	chEvtClearFlags
 453 0060 0990     		str	r0, [sp, #36]
 454              		.loc 1 174 0
 455 0062 099B     		ldr	r3, [sp, #36]
 456 0064 002B     		cmp	r3, #0
 457 0066 14BF     		ite	ne
 458 0068 0023     		movne	r3, #0
 459 006a 0123     		moveq	r3, #1
 460 006c 4FF00300 		mov	r0, #3
 461 0070 1946     		mov	r1, r3
 462 0072 FFF7FEFF 		bl	_test_assert
 463 0076 0346     		mov	r3, r0
 464 0078 002B     		cmp	r3, #0
 465 007a 40F09B81 		bne	.L13
 466              	.L17:
 467              		.loc 1 179 0
 468 007e FFF7FEFF 		bl	test_wait_tick
 469              		.loc 1 180 0
 470 0082 40F20003 		movw	r3, #:lower16:vtlist
 471 0086 C0F20003 		movt	r3, #:upper16:vtlist
 472 008a DB68     		ldr	r3, [r3, #12]
 473 008c 03F11903 		add	r3, r3, #25
 474 0090 0893     		str	r3, [sp, #32]
 475              		.loc 1 181 0
 476 0092 40F20003 		movw	r3, #:lower16:wa
 477 0096 C0F20003 		movt	r3, #:upper16:wa
 478 009a 1968     		ldr	r1, [r3, #0]
 479 009c 40F20003 		movw	r3, #:lower16:rlist
 480 00a0 C0F20003 		movt	r3, #:upper16:rlist
 481 00a4 DB69     		ldr	r3, [r3, #28]
 482 00a6 9B68     		ldr	r3, [r3, #8]
 483 00a8 03F1FF32 		add	r2, r3, #-1
 484              		.loc 1 182 0
 485 00ac 40F20003 		movw	r3, #:lower16:rlist
 486 00b0 C0F20003 		movt	r3, #:upper16:rlist
 487 00b4 DB69     		ldr	r3, [r3, #28]
 488              		.loc 1 181 0
 489 00b6 0093     		str	r3, [sp, #0]
 490 00b8 0846     		mov	r0, r1
 491 00ba 4FF49871 		mov	r1, #304
 492 00be 40F20003 		movw	r3, #:lower16:thread1
 493 00c2 C0F20003 		movt	r3, #:upper16:thread1
 494 00c6 FFF7FEFF 		bl	chThdCreateStatic
ARM GAS  C:\Users\z80\AppData\Local\Temp\ccIWjNPe.s 			page 10


 495 00ca 0246     		mov	r2, r0
 496 00cc 40F20003 		movw	r3, #:lower16:threads
 497 00d0 C0F20003 		movt	r3, #:upper16:threads
 498 00d4 1A60     		str	r2, [r3, #0]
 499              		.loc 1 183 0
 500 00d6 4FF0FF30 		mov	r0, #-1
 501 00da FFF7FEFF 		bl	chEvtWaitOne
 502 00de 0990     		str	r0, [sp, #36]
 503              		.loc 1 184 0
 504 00e0 089B     		ldr	r3, [sp, #32]
 505 00e2 03F10303 		add	r3, r3, #3
 506 00e6 4FF00400 		mov	r0, #4
 507 00ea 0899     		ldr	r1, [sp, #32]
 508 00ec 1A46     		mov	r2, r3
 509 00ee FFF7FEFF 		bl	_test_assert_time_window
 510 00f2 0346     		mov	r3, r0
 511 00f4 002B     		cmp	r3, #0
 512 00f6 40F05D81 		bne	.L13
 513              	.L18:
 514              		.loc 1 185 0
 515 00fa 099B     		ldr	r3, [sp, #36]
 516 00fc 012B     		cmp	r3, #1
 517 00fe 14BF     		ite	ne
 518 0100 0023     		movne	r3, #0
 519 0102 0123     		moveq	r3, #1
 520 0104 4FF00500 		mov	r0, #5
 521 0108 1946     		mov	r1, r3
 522 010a FFF7FEFF 		bl	_test_assert
 523 010e 0346     		mov	r3, r0
 524 0110 002B     		cmp	r3, #0
 525 0112 40F04F81 		bne	.L13
 526              	.L19:
 527              		.loc 1 186 0
 528 0116 4FF0FF30 		mov	r0, #-1
 529 011a FFF7FEFF 		bl	chEvtClearFlags
 530 011e 0990     		str	r0, [sp, #36]
 531              		.loc 1 187 0
 532 0120 099B     		ldr	r3, [sp, #36]
 533 0122 002B     		cmp	r3, #0
 534 0124 14BF     		ite	ne
 535 0126 0023     		movne	r3, #0
 536 0128 0123     		moveq	r3, #1
 537 012a 4FF00600 		mov	r0, #6
 538 012e 1946     		mov	r1, r3
 539 0130 FFF7FEFF 		bl	_test_assert
 540 0134 0346     		mov	r3, r0
 541 0136 002B     		cmp	r3, #0
 542 0138 40F03C81 		bne	.L13
 543              	.L20:
 544              		.loc 1 188 0
 545 013c FFF7FEFF 		bl	test_wait_threads
 546              		.loc 1 193 0
 547 0140 4FF00500 		mov	r0, #5
 548 0144 FFF7FEFF 		bl	chEvtAddFlags
 549              		.loc 1 194 0
 550 0148 4FF0FF30 		mov	r0, #-1
 551 014c FFF7FEFF 		bl	chEvtWaitAny
ARM GAS  C:\Users\z80\AppData\Local\Temp\ccIWjNPe.s 			page 11


 552 0150 0990     		str	r0, [sp, #36]
 553              		.loc 1 195 0
 554 0152 099B     		ldr	r3, [sp, #36]
 555 0154 052B     		cmp	r3, #5
 556 0156 14BF     		ite	ne
 557 0158 0023     		movne	r3, #0
 558 015a 0123     		moveq	r3, #1
 559 015c 4FF00700 		mov	r0, #7
 560 0160 1946     		mov	r1, r3
 561 0162 FFF7FEFF 		bl	_test_assert
 562 0166 0346     		mov	r3, r0
 563 0168 002B     		cmp	r3, #0
 564 016a 40F02381 		bne	.L13
 565              	.L21:
 566              		.loc 1 196 0
 567 016e 4FF0FF30 		mov	r0, #-1
 568 0172 FFF7FEFF 		bl	chEvtClearFlags
 569 0176 0990     		str	r0, [sp, #36]
 570              		.loc 1 197 0
 571 0178 099B     		ldr	r3, [sp, #36]
 572 017a 002B     		cmp	r3, #0
 573 017c 14BF     		ite	ne
 574 017e 0023     		movne	r3, #0
 575 0180 0123     		moveq	r3, #1
 576 0182 4FF00800 		mov	r0, #8
 577 0186 1946     		mov	r1, r3
 578 0188 FFF7FEFF 		bl	_test_assert
 579 018c 0346     		mov	r3, r0
 580 018e 002B     		cmp	r3, #0
 581 0190 40F01081 		bne	.L13
 582              	.L22:
 583              		.loc 1 202 0
 584 0194 FFF7FEFF 		bl	test_wait_tick
 585              		.loc 1 203 0
 586 0198 40F20003 		movw	r3, #:lower16:vtlist
 587 019c C0F20003 		movt	r3, #:upper16:vtlist
 588 01a0 DB68     		ldr	r3, [r3, #12]
 589 01a2 03F11903 		add	r3, r3, #25
 590 01a6 0893     		str	r3, [sp, #32]
 591              		.loc 1 204 0
 592 01a8 40F20003 		movw	r3, #:lower16:wa
 593 01ac C0F20003 		movt	r3, #:upper16:wa
 594 01b0 1968     		ldr	r1, [r3, #0]
 595 01b2 40F20003 		movw	r3, #:lower16:rlist
 596 01b6 C0F20003 		movt	r3, #:upper16:rlist
 597 01ba DB69     		ldr	r3, [r3, #28]
 598 01bc 9B68     		ldr	r3, [r3, #8]
 599 01be 03F1FF32 		add	r2, r3, #-1
 600              		.loc 1 205 0
 601 01c2 40F20003 		movw	r3, #:lower16:rlist
 602 01c6 C0F20003 		movt	r3, #:upper16:rlist
 603 01ca DB69     		ldr	r3, [r3, #28]
 604              		.loc 1 204 0
 605 01cc 0093     		str	r3, [sp, #0]
 606 01ce 0846     		mov	r0, r1
 607 01d0 4FF49871 		mov	r1, #304
 608 01d4 40F20003 		movw	r3, #:lower16:thread1
ARM GAS  C:\Users\z80\AppData\Local\Temp\ccIWjNPe.s 			page 12


 609 01d8 C0F20003 		movt	r3, #:upper16:thread1
 610 01dc FFF7FEFF 		bl	chThdCreateStatic
 611 01e0 0246     		mov	r2, r0
 612 01e2 40F20003 		movw	r3, #:lower16:threads
 613 01e6 C0F20003 		movt	r3, #:upper16:threads
 614 01ea 1A60     		str	r2, [r3, #0]
 615              		.loc 1 206 0
 616 01ec 4FF0FF30 		mov	r0, #-1
 617 01f0 FFF7FEFF 		bl	chEvtWaitAny
 618 01f4 0990     		str	r0, [sp, #36]
 619              		.loc 1 207 0
 620 01f6 089B     		ldr	r3, [sp, #32]
 621 01f8 03F10303 		add	r3, r3, #3
 622 01fc 4FF00900 		mov	r0, #9
 623 0200 0899     		ldr	r1, [sp, #32]
 624 0202 1A46     		mov	r2, r3
 625 0204 FFF7FEFF 		bl	_test_assert_time_window
 626 0208 0346     		mov	r3, r0
 627 020a 002B     		cmp	r3, #0
 628 020c 40F0D280 		bne	.L13
 629              	.L23:
 630              		.loc 1 208 0
 631 0210 099B     		ldr	r3, [sp, #36]
 632 0212 012B     		cmp	r3, #1
 633 0214 14BF     		ite	ne
 634 0216 0023     		movne	r3, #0
 635 0218 0123     		moveq	r3, #1
 636 021a 4FF00A00 		mov	r0, #10
 637 021e 1946     		mov	r1, r3
 638 0220 FFF7FEFF 		bl	_test_assert
 639 0224 0346     		mov	r3, r0
 640 0226 002B     		cmp	r3, #0
 641 0228 40F0C480 		bne	.L13
 642              	.L24:
 643              		.loc 1 209 0
 644 022c 4FF0FF30 		mov	r0, #-1
 645 0230 FFF7FEFF 		bl	chEvtClearFlags
 646 0234 0990     		str	r0, [sp, #36]
 647              		.loc 1 210 0
 648 0236 099B     		ldr	r3, [sp, #36]
 649 0238 002B     		cmp	r3, #0
 650 023a 14BF     		ite	ne
 651 023c 0023     		movne	r3, #0
 652 023e 0123     		moveq	r3, #1
 653 0240 4FF00B00 		mov	r0, #11
 654 0244 1946     		mov	r1, r3
 655 0246 FFF7FEFF 		bl	_test_assert
 656 024a 0346     		mov	r3, r0
 657 024c 002B     		cmp	r3, #0
 658 024e 40F0B180 		bne	.L13
 659              	.L25:
 660              		.loc 1 211 0
 661 0252 FFF7FEFF 		bl	test_wait_threads
 662              		.loc 1 216 0
 663 0256 40F20003 		movw	r3, #:lower16:es1
 664 025a C0F20003 		movt	r3, #:upper16:es1
 665 025e 40F20002 		movw	r2, #:lower16:es1
ARM GAS  C:\Users\z80\AppData\Local\Temp\ccIWjNPe.s 			page 13


 666 0262 C0F20002 		movt	r2, #:upper16:es1
 667 0266 1A60     		str	r2, [r3, #0]
 668              		.loc 1 217 0
 669 0268 40F20003 		movw	r3, #:lower16:es2
 670 026c C0F20003 		movt	r3, #:upper16:es2
 671 0270 40F20002 		movw	r2, #:lower16:es2
 672 0274 C0F20002 		movt	r2, #:upper16:es2
 673 0278 1A60     		str	r2, [r3, #0]
 674              		.loc 1 218 0
 675 027a 40F20000 		movw	r0, #:lower16:es1
 676 027e C0F20000 		movt	r0, #:upper16:es1
 677 0282 05AB     		add	r3, sp, #20
 678 0284 1946     		mov	r1, r3
 679 0286 4FF00102 		mov	r2, #1
 680 028a FFF7FEFF 		bl	chEvtRegisterMask
 681              		.loc 1 219 0
 682 028e 40F20000 		movw	r0, #:lower16:es2
 683 0292 C0F20000 		movt	r0, #:upper16:es2
 684 0296 02AB     		add	r3, sp, #8
 685 0298 1946     		mov	r1, r3
 686 029a 4FF00402 		mov	r2, #4
 687 029e FFF7FEFF 		bl	chEvtRegisterMask
 688              		.loc 1 220 0
 689 02a2 FFF7FEFF 		bl	test_wait_tick
 690              		.loc 1 221 0
 691 02a6 40F20003 		movw	r3, #:lower16:vtlist
 692 02aa C0F20003 		movt	r3, #:upper16:vtlist
 693 02ae DB68     		ldr	r3, [r3, #12]
 694 02b0 03F11903 		add	r3, r3, #25
 695 02b4 0893     		str	r3, [sp, #32]
 696              		.loc 1 222 0
 697 02b6 40F20003 		movw	r3, #:lower16:wa
 698 02ba C0F20003 		movt	r3, #:upper16:wa
 699 02be 1968     		ldr	r1, [r3, #0]
 700 02c0 40F20003 		movw	r3, #:lower16:rlist
 701 02c4 C0F20003 		movt	r3, #:upper16:rlist
 702 02c8 DB69     		ldr	r3, [r3, #28]
 703 02ca 9B68     		ldr	r3, [r3, #8]
 704 02cc 03F1FF32 		add	r2, r3, #-1
 705 02d0 40F20003 		movw	r3, #:lower16:.LC2
 706 02d4 C0F20003 		movt	r3, #:upper16:.LC2
 707 02d8 0093     		str	r3, [sp, #0]
 708 02da 0846     		mov	r0, r1
 709 02dc 4FF49871 		mov	r1, #304
 710 02e0 40F20003 		movw	r3, #:lower16:thread2
 711 02e4 C0F20003 		movt	r3, #:upper16:thread2
 712 02e8 FFF7FEFF 		bl	chThdCreateStatic
 713 02ec 0246     		mov	r2, r0
 714 02ee 40F20003 		movw	r3, #:lower16:threads
 715 02f2 C0F20003 		movt	r3, #:upper16:threads
 716 02f6 1A60     		str	r2, [r3, #0]
 717              		.loc 1 224 0
 718 02f8 4FF00500 		mov	r0, #5
 719 02fc FFF7FEFF 		bl	chEvtWaitAll
 720 0300 0990     		str	r0, [sp, #36]
 721              		.loc 1 225 0
 722 0302 089B     		ldr	r3, [sp, #32]
ARM GAS  C:\Users\z80\AppData\Local\Temp\ccIWjNPe.s 			page 14


 723 0304 03F10303 		add	r3, r3, #3
 724 0308 4FF00C00 		mov	r0, #12
 725 030c 0899     		ldr	r1, [sp, #32]
 726 030e 1A46     		mov	r2, r3
 727 0310 FFF7FEFF 		bl	_test_assert_time_window
 728 0314 0346     		mov	r3, r0
 729 0316 002B     		cmp	r3, #0
 730 0318 4CD1     		bne	.L13
 731              	.L26:
 732              		.loc 1 226 0
 733 031a 4FF0FF30 		mov	r0, #-1
 734 031e FFF7FEFF 		bl	chEvtClearFlags
 735 0322 0990     		str	r0, [sp, #36]
 736              		.loc 1 227 0
 737 0324 099B     		ldr	r3, [sp, #36]
 738 0326 002B     		cmp	r3, #0
 739 0328 14BF     		ite	ne
 740 032a 0023     		movne	r3, #0
 741 032c 0123     		moveq	r3, #1
 742 032e 4FF00D00 		mov	r0, #13
 743 0332 1946     		mov	r1, r3
 744 0334 FFF7FEFF 		bl	_test_assert
 745 0338 0346     		mov	r3, r0
 746 033a 002B     		cmp	r3, #0
 747 033c 3AD1     		bne	.L13
 748              	.L27:
 749              		.loc 1 228 0
 750 033e FFF7FEFF 		bl	test_wait_threads
 751              		.loc 1 229 0
 752 0342 40F20000 		movw	r0, #:lower16:es1
 753 0346 C0F20000 		movt	r0, #:upper16:es1
 754 034a 05AB     		add	r3, sp, #20
 755 034c 1946     		mov	r1, r3
 756 034e FFF7FEFF 		bl	chEvtUnregister
 757              		.loc 1 230 0
 758 0352 40F20000 		movw	r0, #:lower16:es2
 759 0356 C0F20000 		movt	r0, #:upper16:es2
 760 035a 02AB     		add	r3, sp, #8
 761 035c 1946     		mov	r1, r3
 762 035e FFF7FEFF 		bl	chEvtUnregister
 763              		.loc 1 231 0
 764 0362 40F20003 		movw	r3, #:lower16:es1
 765 0366 C0F20003 		movt	r3, #:upper16:es1
 766 036a 1A68     		ldr	r2, [r3, #0]
 767 036c 40F20003 		movw	r3, #:lower16:es1
 768 0370 C0F20003 		movt	r3, #:upper16:es1
 769 0374 9A42     		cmp	r2, r3
 770 0376 14BF     		ite	ne
 771 0378 0023     		movne	r3, #0
 772 037a 0123     		moveq	r3, #1
 773 037c 4FF00E00 		mov	r0, #14
 774 0380 1946     		mov	r1, r3
 775 0382 FFF7FEFF 		bl	_test_assert
 776 0386 0346     		mov	r3, r0
 777 0388 002B     		cmp	r3, #0
 778 038a 13D1     		bne	.L13
 779              	.L28:
ARM GAS  C:\Users\z80\AppData\Local\Temp\ccIWjNPe.s 			page 15


 780              		.loc 1 232 0
 781 038c 40F20003 		movw	r3, #:lower16:es2
 782 0390 C0F20003 		movt	r3, #:upper16:es2
 783 0394 1A68     		ldr	r2, [r3, #0]
 784 0396 40F20003 		movw	r3, #:lower16:es2
 785 039a C0F20003 		movt	r3, #:upper16:es2
 786 039e 9A42     		cmp	r2, r3
 787 03a0 14BF     		ite	ne
 788 03a2 0023     		movne	r3, #0
 789 03a4 0123     		moveq	r3, #1
 790 03a6 4FF00F00 		mov	r0, #15
 791 03aa 1946     		mov	r1, r3
 792 03ac FFF7FEFF 		bl	_test_assert
 793 03b0 0346     		mov	r3, r0
 794 03b2 002B     		cmp	r3, #0
 795              	.L13:
 796              		.loc 1 233 0
 797 03b4 0BB0     		add	sp, sp, #44
 798 03b6 00BD     		pop	{pc}
 799              		.cfi_endproc
 800              	.LFE15:
 801              		.size	evt2_execute, .-evt2_execute
 802              		.global	testevt2
 803 03b8 AFF30080 		.section	.rodata
 803      AFF30080 
 804 002a 0000     		.align	2
 805              	.LC3:
 806 002c 4576656E 		.ascii	"Events, wait and broadcast\000"
 806      74732C20 
 806      77616974 
 806      20616E64 
 806      2062726F 
 807              		.section	.rodata.testevt2,"a",%progbits
 808              		.align	2
 809              		.type	testevt2, %object
 810              		.size	testevt2, 16
 811              	testevt2:
 812 0000 2C000000 		.word	.LC3
 813 0004 00000000 		.word	evt2_setup
 814 0008 00000000 		.word	0
 815 000c 00000000 		.word	evt2_execute
 816              		.section	.text.evt3_setup,"ax",%progbits
 817              		.align	2
 818              		.p2align 4,,15
 819              		.thumb
 820              		.thumb_func
 821              		.type	evt3_setup, %function
 822              	evt3_setup:
 823              	.LFB16:
 824              		.loc 1 258 0
 825              		.cfi_startproc
 826              		@ args = 0, pretend = 0, frame = 0
 827              		@ frame_needed = 0, uses_anonymous_args = 0
 828 0000 08B5     		push	{r3, lr}
 829              	.LCFI16:
 830              		.cfi_def_cfa_offset 8
 831              		.cfi_offset 14, -4
ARM GAS  C:\Users\z80\AppData\Local\Temp\ccIWjNPe.s 			page 16


 832              		.cfi_offset 3, -8
 833              		.loc 1 260 0
 834 0002 4FF0FF30 		mov	r0, #-1
 835 0006 FFF7FEFF 		bl	chEvtClearFlags
 836              		.loc 1 261 0
 837 000a 08BD     		pop	{r3, pc}
 838              		.cfi_endproc
 839              	.LFE16:
 840              		.size	evt3_setup, .-evt3_setup
 841 000c AFF30080 		.section	.text.evt3_execute,"ax",%progbits
 842              		.align	2
 843              		.p2align 4,,15
 844              		.thumb
 845              		.thumb_func
 846              		.type	evt3_execute, %function
 847              	evt3_execute:
 848              	.LFB17:
 849              		.loc 1 263 0
 850              		.cfi_startproc
 851              		@ args = 0, pretend = 0, frame = 8
 852              		@ frame_needed = 0, uses_anonymous_args = 0
 853 0000 00B5     		push	{lr}
 854              	.LCFI17:
 855              		.cfi_def_cfa_offset 4
 856              		.cfi_offset 14, -4
 857 0002 83B0     		sub	sp, sp, #12
 858              	.LCFI18:
 859              		.cfi_def_cfa_offset 16
 860              		.loc 1 269 0
 861 0004 4FF0FF30 		mov	r0, #-1
 862 0008 4FF00001 		mov	r1, #0
 863 000c FFF7FEFF 		bl	chEvtWaitOneTimeout
 864 0010 0190     		str	r0, [sp, #4]
 865              		.loc 1 270 0
 866 0012 019B     		ldr	r3, [sp, #4]
 867 0014 002B     		cmp	r3, #0
 868 0016 14BF     		ite	ne
 869 0018 0023     		movne	r3, #0
 870 001a 0123     		moveq	r3, #1
 871 001c 4FF00100 		mov	r0, #1
 872 0020 1946     		mov	r1, r3
 873 0022 FFF7FEFF 		bl	_test_assert
 874 0026 0346     		mov	r3, r0
 875 0028 002B     		cmp	r3, #0
 876 002a 62D1     		bne	.L30
 877              	.L31:
 878              		.loc 1 271 0
 879 002c 4FF0FF30 		mov	r0, #-1
 880 0030 4FF00001 		mov	r1, #0
 881 0034 FFF7FEFF 		bl	chEvtWaitAnyTimeout
 882 0038 0190     		str	r0, [sp, #4]
 883              		.loc 1 272 0
 884 003a 019B     		ldr	r3, [sp, #4]
 885 003c 002B     		cmp	r3, #0
 886 003e 14BF     		ite	ne
 887 0040 0023     		movne	r3, #0
 888 0042 0123     		moveq	r3, #1
ARM GAS  C:\Users\z80\AppData\Local\Temp\ccIWjNPe.s 			page 17


 889 0044 4FF00200 		mov	r0, #2
 890 0048 1946     		mov	r1, r3
 891 004a FFF7FEFF 		bl	_test_assert
 892 004e 0346     		mov	r3, r0
 893 0050 002B     		cmp	r3, #0
 894 0052 4ED1     		bne	.L30
 895              	.L33:
 896              		.loc 1 273 0
 897 0054 4FF0FF30 		mov	r0, #-1
 898 0058 4FF00001 		mov	r1, #0
 899 005c FFF7FEFF 		bl	chEvtWaitAllTimeout
 900 0060 0190     		str	r0, [sp, #4]
 901              		.loc 1 274 0
 902 0062 019B     		ldr	r3, [sp, #4]
 903 0064 002B     		cmp	r3, #0
 904 0066 14BF     		ite	ne
 905 0068 0023     		movne	r3, #0
 906 006a 0123     		moveq	r3, #1
 907 006c 4FF00300 		mov	r0, #3
 908 0070 1946     		mov	r1, r3
 909 0072 FFF7FEFF 		bl	_test_assert
 910 0076 0346     		mov	r3, r0
 911 0078 002B     		cmp	r3, #0
 912 007a 3AD1     		bne	.L30
 913              	.L34:
 914              		.loc 1 275 0
 915 007c 4FF0FF30 		mov	r0, #-1
 916 0080 4FF00A01 		mov	r1, #10
 917 0084 FFF7FEFF 		bl	chEvtWaitOneTimeout
 918 0088 0190     		str	r0, [sp, #4]
 919              		.loc 1 276 0
 920 008a 019B     		ldr	r3, [sp, #4]
 921 008c 002B     		cmp	r3, #0
 922 008e 14BF     		ite	ne
 923 0090 0023     		movne	r3, #0
 924 0092 0123     		moveq	r3, #1
 925 0094 4FF00400 		mov	r0, #4
 926 0098 1946     		mov	r1, r3
 927 009a FFF7FEFF 		bl	_test_assert
 928 009e 0346     		mov	r3, r0
 929 00a0 002B     		cmp	r3, #0
 930 00a2 26D1     		bne	.L30
 931              	.L35:
 932              		.loc 1 277 0
 933 00a4 4FF0FF30 		mov	r0, #-1
 934 00a8 4FF00A01 		mov	r1, #10
 935 00ac FFF7FEFF 		bl	chEvtWaitAnyTimeout
 936 00b0 0190     		str	r0, [sp, #4]
 937              		.loc 1 278 0
 938 00b2 019B     		ldr	r3, [sp, #4]
 939 00b4 002B     		cmp	r3, #0
 940 00b6 14BF     		ite	ne
 941 00b8 0023     		movne	r3, #0
 942 00ba 0123     		moveq	r3, #1
 943 00bc 4FF00500 		mov	r0, #5
 944 00c0 1946     		mov	r1, r3
 945 00c2 FFF7FEFF 		bl	_test_assert
ARM GAS  C:\Users\z80\AppData\Local\Temp\ccIWjNPe.s 			page 18


 946 00c6 0346     		mov	r3, r0
 947 00c8 002B     		cmp	r3, #0
 948 00ca 12D1     		bne	.L30
 949              	.L36:
 950              		.loc 1 279 0
 951 00cc 4FF0FF30 		mov	r0, #-1
 952 00d0 4FF00A01 		mov	r1, #10
 953 00d4 FFF7FEFF 		bl	chEvtWaitAllTimeout
 954 00d8 0190     		str	r0, [sp, #4]
 955              		.loc 1 280 0
 956 00da 019B     		ldr	r3, [sp, #4]
 957 00dc 002B     		cmp	r3, #0
 958 00de 14BF     		ite	ne
 959 00e0 0023     		movne	r3, #0
 960 00e2 0123     		moveq	r3, #1
 961 00e4 4FF00600 		mov	r0, #6
 962 00e8 1946     		mov	r1, r3
 963 00ea FFF7FEFF 		bl	_test_assert
 964 00ee 0346     		mov	r3, r0
 965 00f0 002B     		cmp	r3, #0
 966              	.L30:
 967              		.loc 1 281 0
 968 00f2 03B0     		add	sp, sp, #12
 969 00f4 00BD     		pop	{pc}
 970              		.cfi_endproc
 971              	.LFE17:
 972              		.size	evt3_execute, .-evt3_execute
 973              		.global	testevt3
 974 00f6 00BFAFF3 		.section	.rodata
 974      0080AFF3 
 974      0080
 975 0047 00       		.align	2
 976              	.LC4:
 977 0048 4576656E 		.ascii	"Events, timeouts\000"
 977      74732C20 
 977      74696D65 
 977      6F757473 
 977      00
 978 0059 000000   		.section	.rodata.testevt3,"a",%progbits
 979              		.align	2
 980              		.type	testevt3, %object
 981              		.size	testevt3, 16
 982              	testevt3:
 983 0000 48000000 		.word	.LC4
 984 0004 00000000 		.word	evt3_setup
 985 0008 00000000 		.word	0
 986 000c 00000000 		.word	evt3_execute
 987              		.global	patternevt
 988              		.section	.rodata.patternevt,"a",%progbits
 989              		.align	2
 990              		.type	patternevt, %object
 991              		.size	patternevt, 16
 992              	patternevt:
 993 0000 00000000 		.word	testevt1
 994 0004 00000000 		.word	testevt2
 995 0008 00000000 		.word	testevt3
 996 000c 00000000 		.word	0
ARM GAS  C:\Users\z80\AppData\Local\Temp\ccIWjNPe.s 			page 19


 997              		.text
 998              	.Letext0:
 999              		.file 2 "c:\\programs\\codesourcery\\2011.03-56\\bin\\../lib/gcc/arm-none-eabi/4.6.3/../../../../a
 1000              		.file 3 "../chibios_2.4.x/os/ports/GCC/ARMCMx/chtypes.h"
 1001              		.file 4 "../chibios_2.4.x/os/kernel/include/chlists.h"
 1002              		.file 5 "../chibios_2.4.x/os/kernel/include/chthreads.h"
 1003              		.file 6 "../chibios_2.4.x/os/ports/GCC/ARMCMx/chcore_v7m.h"
 1004              		.file 7 "../chibios_2.4.x/os/kernel/include/chvt.h"
 1005              		.file 8 "../chibios_2.4.x/os/kernel/include/chschd.h"
 1006              		.file 9 "../chibios_2.4.x/os/kernel/include/chmtx.h"
 1007              		.file 10 "../chibios_2.4.x/os/kernel/include/chevents.h"
 1008              		.file 11 "../chibios_2.4.x/test/test.h"
 1009              		.section	.debug_info,"",%progbits
 1010              	.Ldebug_info0:
 1011 0000 8D080000 		.4byte	0x88d
 1012 0004 0200     		.2byte	0x2
 1013 0006 00000000 		.4byte	.Ldebug_abbrev0
 1014 000a 04       		.byte	0x4
 1015 000b 01       		.uleb128 0x1
 1016 000c 0A030000 		.4byte	.LASF100
 1017 0010 01       		.byte	0x1
 1018 0011 16030000 		.4byte	.LASF101
 1019 0015 7E000000 		.4byte	.LASF102
 1020 0019 00000000 		.4byte	0
 1021 001d 00000000 		.4byte	0
 1022 0021 00000000 		.4byte	.Ldebug_ranges0+0
 1023 0025 00000000 		.4byte	.Ldebug_line0
 1024 0029 02       		.uleb128 0x2
 1025 002a 04       		.byte	0x4
 1026 002b 05       		.byte	0x5
 1027 002c 696E7400 		.ascii	"int\000"
 1028 0030 03       		.uleb128 0x3
 1029 0031 04       		.byte	0x4
 1030 0032 07       		.byte	0x7
 1031 0033 2F010000 		.4byte	.LASF0
 1032 0037 03       		.uleb128 0x3
 1033 0038 01       		.byte	0x1
 1034 0039 06       		.byte	0x6
 1035 003a 6A000000 		.4byte	.LASF1
 1036 003e 04       		.uleb128 0x4
 1037 003f 98030000 		.4byte	.LASF5
 1038 0043 02       		.byte	0x2
 1039 0044 2A       		.byte	0x2a
 1040 0045 49000000 		.4byte	0x49
 1041 0049 03       		.uleb128 0x3
 1042 004a 01       		.byte	0x1
 1043 004b 08       		.byte	0x8
 1044 004c 59020000 		.4byte	.LASF2
 1045 0050 03       		.uleb128 0x3
 1046 0051 02       		.byte	0x2
 1047 0052 05       		.byte	0x5
 1048 0053 8A020000 		.4byte	.LASF3
 1049 0057 03       		.uleb128 0x3
 1050 0058 02       		.byte	0x2
 1051 0059 07       		.byte	0x7
 1052 005a 77010000 		.4byte	.LASF4
 1053 005e 04       		.uleb128 0x4
ARM GAS  C:\Users\z80\AppData\Local\Temp\ccIWjNPe.s 			page 20


 1054 005f 51020000 		.4byte	.LASF6
 1055 0063 02       		.byte	0x2
 1056 0064 4F       		.byte	0x4f
 1057 0065 69000000 		.4byte	0x69
 1058 0069 03       		.uleb128 0x3
 1059 006a 04       		.byte	0x4
 1060 006b 05       		.byte	0x5
 1061 006c AB000000 		.4byte	.LASF7
 1062 0070 04       		.uleb128 0x4
 1063 0071 EC020000 		.4byte	.LASF8
 1064 0075 02       		.byte	0x2
 1065 0076 50       		.byte	0x50
 1066 0077 7B000000 		.4byte	0x7b
 1067 007b 03       		.uleb128 0x3
 1068 007c 04       		.byte	0x4
 1069 007d 07       		.byte	0x7
 1070 007e 44010000 		.4byte	.LASF9
 1071 0082 03       		.uleb128 0x3
 1072 0083 08       		.byte	0x8
 1073 0084 05       		.byte	0x5
 1074 0085 5C000000 		.4byte	.LASF10
 1075 0089 04       		.uleb128 0x4
 1076 008a 18000000 		.4byte	.LASF11
 1077 008e 02       		.byte	0x2
 1078 008f 78       		.byte	0x78
 1079 0090 94000000 		.4byte	0x94
 1080 0094 03       		.uleb128 0x3
 1081 0095 08       		.byte	0x8
 1082 0096 07       		.byte	0x7
 1083 0097 28000000 		.4byte	.LASF12
 1084 009b 04       		.uleb128 0x4
 1085 009c 98010000 		.4byte	.LASF13
 1086 00a0 03       		.byte	0x3
 1087 00a1 2F       		.byte	0x2f
 1088 00a2 3E000000 		.4byte	0x3e
 1089 00a6 04       		.uleb128 0x4
 1090 00a7 C0000000 		.4byte	.LASF14
 1091 00ab 03       		.byte	0x3
 1092 00ac 30       		.byte	0x30
 1093 00ad 3E000000 		.4byte	0x3e
 1094 00b1 04       		.uleb128 0x4
 1095 00b2 49020000 		.4byte	.LASF15
 1096 00b6 03       		.byte	0x3
 1097 00b7 32       		.byte	0x32
 1098 00b8 70000000 		.4byte	0x70
 1099 00bc 04       		.uleb128 0x4
 1100 00bd 8A010000 		.4byte	.LASF16
 1101 00c1 03       		.byte	0x3
 1102 00c2 33       		.byte	0x33
 1103 00c3 5E000000 		.4byte	0x5e
 1104 00c7 04       		.uleb128 0x4
 1105 00c8 FC000000 		.4byte	.LASF17
 1106 00cc 03       		.byte	0x3
 1107 00cd 34       		.byte	0x34
 1108 00ce 5E000000 		.4byte	0x5e
 1109 00d2 04       		.uleb128 0x4
 1110 00d3 AC010000 		.4byte	.LASF18
ARM GAS  C:\Users\z80\AppData\Local\Temp\ccIWjNPe.s 			page 21


 1111 00d7 03       		.byte	0x3
 1112 00d8 35       		.byte	0x35
 1113 00d9 70000000 		.4byte	0x70
 1114 00dd 04       		.uleb128 0x4
 1115 00de 42030000 		.4byte	.LASF19
 1116 00e2 03       		.byte	0x3
 1117 00e3 36       		.byte	0x36
 1118 00e4 70000000 		.4byte	0x70
 1119 00e8 04       		.uleb128 0x4
 1120 00e9 1E010000 		.4byte	.LASF20
 1121 00ed 03       		.byte	0x3
 1122 00ee 37       		.byte	0x37
 1123 00ef 5E000000 		.4byte	0x5e
 1124 00f3 04       		.uleb128 0x4
 1125 00f4 C1020000 		.4byte	.LASF21
 1126 00f8 04       		.byte	0x4
 1127 00f9 2A       		.byte	0x2a
 1128 00fa FE000000 		.4byte	0xfe
 1129 00fe 05       		.uleb128 0x5
 1130 00ff C1020000 		.4byte	.LASF21
 1131 0103 48       		.byte	0x48
 1132 0104 05       		.byte	0x5
 1133 0105 5E       		.byte	0x5e
 1134 0106 07020000 		.4byte	0x207
 1135 010a 06       		.uleb128 0x6
 1136 010b B2020000 		.4byte	.LASF22
 1137 010f 05       		.byte	0x5
 1138 0110 5F       		.byte	0x5f
 1139 0111 2C020000 		.4byte	0x22c
 1140 0115 02       		.byte	0x2
 1141 0116 23       		.byte	0x23
 1142 0117 00       		.uleb128 0
 1143 0118 06       		.uleb128 0x6
 1144 0119 3A020000 		.4byte	.LASF23
 1145 011d 05       		.byte	0x5
 1146 011e 61       		.byte	0x61
 1147 011f 2C020000 		.4byte	0x22c
 1148 0123 02       		.byte	0x2
 1149 0124 23       		.byte	0x23
 1150 0125 04       		.uleb128 0x4
 1151 0126 06       		.uleb128 0x6
 1152 0127 48000000 		.4byte	.LASF24
 1153 012b 05       		.byte	0x5
 1154 012c 63       		.byte	0x63
 1155 012d B1000000 		.4byte	0xb1
 1156 0131 02       		.byte	0x2
 1157 0132 23       		.byte	0x23
 1158 0133 08       		.uleb128 0x8
 1159 0134 06       		.uleb128 0x6
 1160 0135 ED030000 		.4byte	.LASF25
 1161 0139 05       		.byte	0x5
 1162 013a 64       		.byte	0x64
 1163 013b 04030000 		.4byte	0x304
 1164 013f 02       		.byte	0x2
 1165 0140 23       		.byte	0x23
 1166 0141 0C       		.uleb128 0xc
 1167 0142 06       		.uleb128 0x6
ARM GAS  C:\Users\z80\AppData\Local\Temp\ccIWjNPe.s 			page 22


 1168 0143 DB000000 		.4byte	.LASF26
 1169 0147 05       		.byte	0x5
 1170 0148 66       		.byte	0x66
 1171 0149 2C020000 		.4byte	0x22c
 1172 014d 02       		.byte	0x2
 1173 014e 23       		.byte	0x23
 1174 014f 10       		.uleb128 0x10
 1175 0150 06       		.uleb128 0x6
 1176 0151 EF010000 		.4byte	.LASF27
 1177 0155 05       		.byte	0x5
 1178 0156 67       		.byte	0x67
 1179 0157 2C020000 		.4byte	0x22c
 1180 015b 02       		.byte	0x2
 1181 015c 23       		.byte	0x23
 1182 015d 14       		.uleb128 0x14
 1183 015e 06       		.uleb128 0x6
 1184 015f B5030000 		.4byte	.LASF28
 1185 0163 05       		.byte	0x5
 1186 0164 6E       		.byte	0x6e
 1187 0165 77050000 		.4byte	0x577
 1188 0169 02       		.byte	0x2
 1189 016a 23       		.byte	0x23
 1190 016b 18       		.uleb128 0x18
 1191 016c 06       		.uleb128 0x6
 1192 016d 24010000 		.4byte	.LASF29
 1193 0171 05       		.byte	0x5
 1194 0172 74       		.byte	0x74
 1195 0173 89050000 		.4byte	0x589
 1196 0177 02       		.byte	0x2
 1197 0178 23       		.byte	0x23
 1198 0179 1C       		.uleb128 0x1c
 1199 017a 06       		.uleb128 0x6
 1200 017b 94020000 		.4byte	.LASF30
 1201 017f 05       		.byte	0x5
 1202 0180 79       		.byte	0x79
 1203 0181 A6000000 		.4byte	0xa6
 1204 0185 02       		.byte	0x2
 1205 0186 23       		.byte	0x23
 1206 0187 20       		.uleb128 0x20
 1207 0188 06       		.uleb128 0x6
 1208 0189 B9020000 		.4byte	.LASF31
 1209 018d 05       		.byte	0x5
 1210 018e 7D       		.byte	0x7d
 1211 018f 9B000000 		.4byte	0x9b
 1212 0193 02       		.byte	0x2
 1213 0194 23       		.byte	0x23
 1214 0195 21       		.uleb128 0x21
 1215 0196 06       		.uleb128 0x6
 1216 0197 60030000 		.4byte	.LASF32
 1217 019b 05       		.byte	0x5
 1218 019c 89       		.byte	0x89
 1219 019d E9030000 		.4byte	0x3e9
 1220 01a1 02       		.byte	0x2
 1221 01a2 23       		.byte	0x23
 1222 01a3 24       		.uleb128 0x24
 1223 01a4 07       		.uleb128 0x7
 1224 01a5 705F7500 		.ascii	"p_u\000"
ARM GAS  C:\Users\z80\AppData\Local\Temp\ccIWjNPe.s 			page 23


 1225 01a9 05       		.byte	0x5
 1226 01aa AE       		.byte	0xae
 1227 01ab 42050000 		.4byte	0x542
 1228 01af 02       		.byte	0x2
 1229 01b0 23       		.byte	0x23
 1230 01b1 28       		.uleb128 0x28
 1231 01b2 06       		.uleb128 0x6
 1232 01b3 F3030000 		.4byte	.LASF33
 1233 01b7 05       		.byte	0x5
 1234 01b8 B3       		.byte	0xb3
 1235 01b9 54020000 		.4byte	0x254
 1236 01bd 02       		.byte	0x2
 1237 01be 23       		.byte	0x23
 1238 01bf 2C       		.uleb128 0x2c
 1239 01c0 06       		.uleb128 0x6
 1240 01c1 6E030000 		.4byte	.LASF34
 1241 01c5 05       		.byte	0x5
 1242 01c6 B9       		.byte	0xb9
 1243 01c7 32020000 		.4byte	0x232
 1244 01cb 02       		.byte	0x2
 1245 01cc 23       		.byte	0x23
 1246 01cd 30       		.uleb128 0x30
 1247 01ce 06       		.uleb128 0x6
 1248 01cf 0B000000 		.4byte	.LASF35
 1249 01d3 05       		.byte	0x5
 1250 01d4 BD       		.byte	0xbd
 1251 01d5 BC000000 		.4byte	0xbc
 1252 01d9 02       		.byte	0x2
 1253 01da 23       		.byte	0x23
 1254 01db 38       		.uleb128 0x38
 1255 01dc 06       		.uleb128 0x6
 1256 01dd D1020000 		.4byte	.LASF36
 1257 01e1 05       		.byte	0x5
 1258 01e2 C3       		.byte	0xc3
 1259 01e3 D2000000 		.4byte	0xd2
 1260 01e7 02       		.byte	0x2
 1261 01e8 23       		.byte	0x23
 1262 01e9 3C       		.uleb128 0x3c
 1263 01ea 06       		.uleb128 0x6
 1264 01eb 80020000 		.4byte	.LASF37
 1265 01ef 05       		.byte	0x5
 1266 01f0 CA       		.byte	0xca
 1267 01f1 8F050000 		.4byte	0x58f
 1268 01f5 02       		.byte	0x2
 1269 01f6 23       		.byte	0x23
 1270 01f7 40       		.uleb128 0x40
 1271 01f8 06       		.uleb128 0x6
 1272 01f9 4C030000 		.4byte	.LASF38
 1273 01fd 05       		.byte	0x5
 1274 01fe CE       		.byte	0xce
 1275 01ff B1000000 		.4byte	0xb1
 1276 0203 02       		.byte	0x2
 1277 0204 23       		.byte	0x23
 1278 0205 44       		.uleb128 0x44
 1279 0206 00       		.byte	0
 1280 0207 08       		.uleb128 0x8
 1281 0208 08       		.byte	0x8
ARM GAS  C:\Users\z80\AppData\Local\Temp\ccIWjNPe.s 			page 24


 1282 0209 04       		.byte	0x4
 1283 020a 61       		.byte	0x61
 1284 020b 2C020000 		.4byte	0x22c
 1285 020f 06       		.uleb128 0x6
 1286 0210 B2020000 		.4byte	.LASF22
 1287 0214 04       		.byte	0x4
 1288 0215 62       		.byte	0x62
 1289 0216 2C020000 		.4byte	0x22c
 1290 021a 02       		.byte	0x2
 1291 021b 23       		.byte	0x23
 1292 021c 00       		.uleb128 0
 1293 021d 06       		.uleb128 0x6
 1294 021e 3A020000 		.4byte	.LASF23
 1295 0222 04       		.byte	0x4
 1296 0223 64       		.byte	0x64
 1297 0224 2C020000 		.4byte	0x22c
 1298 0228 02       		.byte	0x2
 1299 0229 23       		.byte	0x23
 1300 022a 04       		.uleb128 0x4
 1301 022b 00       		.byte	0
 1302 022c 09       		.uleb128 0x9
 1303 022d 04       		.byte	0x4
 1304 022e F3000000 		.4byte	0xf3
 1305 0232 04       		.uleb128 0x4
 1306 0233 0D020000 		.4byte	.LASF39
 1307 0237 04       		.byte	0x4
 1308 0238 66       		.byte	0x66
 1309 0239 07020000 		.4byte	0x207
 1310 023d 08       		.uleb128 0x8
 1311 023e 04       		.byte	0x4
 1312 023f 04       		.byte	0x4
 1313 0240 6B       		.byte	0x6b
 1314 0241 54020000 		.4byte	0x254
 1315 0245 06       		.uleb128 0x6
 1316 0246 B2020000 		.4byte	.LASF22
 1317 024a 04       		.byte	0x4
 1318 024b 6D       		.byte	0x6d
 1319 024c 2C020000 		.4byte	0x22c
 1320 0250 02       		.byte	0x2
 1321 0251 23       		.byte	0x23
 1322 0252 00       		.uleb128 0
 1323 0253 00       		.byte	0
 1324 0254 04       		.uleb128 0x4
 1325 0255 A0010000 		.4byte	.LASF40
 1326 0259 04       		.byte	0x4
 1327 025a 70       		.byte	0x70
 1328 025b 3D020000 		.4byte	0x23d
 1329 025f 04       		.uleb128 0x4
 1330 0260 EB000000 		.4byte	.LASF41
 1331 0264 06       		.byte	0x6
 1332 0265 D7       		.byte	0xd7
 1333 0266 6A020000 		.4byte	0x26a
 1334 026a 0A       		.uleb128 0xa
 1335 026b 04       		.byte	0x4
 1336 026c 04       		.uleb128 0x4
 1337 026d BE010000 		.4byte	.LASF42
 1338 0271 06       		.byte	0x6
ARM GAS  C:\Users\z80\AppData\Local\Temp\ccIWjNPe.s 			page 25


 1339 0272 DD       		.byte	0xdd
 1340 0273 89000000 		.4byte	0x89
 1341 0277 05       		.uleb128 0x5
 1342 0278 67030000 		.4byte	.LASF43
 1343 027c 24       		.byte	0x24
 1344 027d 06       		.byte	0x6
 1345 027e FE       		.byte	0xfe
 1346 027f 04030000 		.4byte	0x304
 1347 0283 0B       		.uleb128 0xb
 1348 0284 723400   		.ascii	"r4\000"
 1349 0287 06       		.byte	0x6
 1350 0288 1101     		.2byte	0x111
 1351 028a 5F020000 		.4byte	0x25f
 1352 028e 02       		.byte	0x2
 1353 028f 23       		.byte	0x23
 1354 0290 00       		.uleb128 0
 1355 0291 0B       		.uleb128 0xb
 1356 0292 723500   		.ascii	"r5\000"
 1357 0295 06       		.byte	0x6
 1358 0296 1201     		.2byte	0x112
 1359 0298 5F020000 		.4byte	0x25f
 1360 029c 02       		.byte	0x2
 1361 029d 23       		.byte	0x23
 1362 029e 04       		.uleb128 0x4
 1363 029f 0B       		.uleb128 0xb
 1364 02a0 723600   		.ascii	"r6\000"
 1365 02a3 06       		.byte	0x6
 1366 02a4 1301     		.2byte	0x113
 1367 02a6 5F020000 		.4byte	0x25f
 1368 02aa 02       		.byte	0x2
 1369 02ab 23       		.byte	0x23
 1370 02ac 08       		.uleb128 0x8
 1371 02ad 0B       		.uleb128 0xb
 1372 02ae 723700   		.ascii	"r7\000"
 1373 02b1 06       		.byte	0x6
 1374 02b2 1401     		.2byte	0x114
 1375 02b4 5F020000 		.4byte	0x25f
 1376 02b8 02       		.byte	0x2
 1377 02b9 23       		.byte	0x23
 1378 02ba 0C       		.uleb128 0xc
 1379 02bb 0B       		.uleb128 0xb
 1380 02bc 723800   		.ascii	"r8\000"
 1381 02bf 06       		.byte	0x6
 1382 02c0 1501     		.2byte	0x115
 1383 02c2 5F020000 		.4byte	0x25f
 1384 02c6 02       		.byte	0x2
 1385 02c7 23       		.byte	0x23
 1386 02c8 10       		.uleb128 0x10
 1387 02c9 0B       		.uleb128 0xb
 1388 02ca 723900   		.ascii	"r9\000"
 1389 02cd 06       		.byte	0x6
 1390 02ce 1601     		.2byte	0x116
 1391 02d0 5F020000 		.4byte	0x25f
 1392 02d4 02       		.byte	0x2
 1393 02d5 23       		.byte	0x23
 1394 02d6 14       		.uleb128 0x14
 1395 02d7 0B       		.uleb128 0xb
ARM GAS  C:\Users\z80\AppData\Local\Temp\ccIWjNPe.s 			page 26


 1396 02d8 72313000 		.ascii	"r10\000"
 1397 02dc 06       		.byte	0x6
 1398 02dd 1701     		.2byte	0x117
 1399 02df 5F020000 		.4byte	0x25f
 1400 02e3 02       		.byte	0x2
 1401 02e4 23       		.byte	0x23
 1402 02e5 18       		.uleb128 0x18
 1403 02e6 0B       		.uleb128 0xb
 1404 02e7 72313100 		.ascii	"r11\000"
 1405 02eb 06       		.byte	0x6
 1406 02ec 1801     		.2byte	0x118
 1407 02ee 5F020000 		.4byte	0x25f
 1408 02f2 02       		.byte	0x2
 1409 02f3 23       		.byte	0x23
 1410 02f4 1C       		.uleb128 0x1c
 1411 02f5 0B       		.uleb128 0xb
 1412 02f6 6C7200   		.ascii	"lr\000"
 1413 02f9 06       		.byte	0x6
 1414 02fa 1901     		.2byte	0x119
 1415 02fc 5F020000 		.4byte	0x25f
 1416 0300 02       		.byte	0x2
 1417 0301 23       		.byte	0x23
 1418 0302 20       		.uleb128 0x20
 1419 0303 00       		.byte	0
 1420 0304 0C       		.uleb128 0xc
 1421 0305 6F010000 		.4byte	.LASF44
 1422 0309 04       		.byte	0x4
 1423 030a 06       		.byte	0x6
 1424 030b 2301     		.2byte	0x123
 1425 030d 21030000 		.4byte	0x321
 1426 0311 0B       		.uleb128 0xb
 1427 0312 72313300 		.ascii	"r13\000"
 1428 0316 06       		.byte	0x6
 1429 0317 2401     		.2byte	0x124
 1430 0319 21030000 		.4byte	0x321
 1431 031d 02       		.byte	0x2
 1432 031e 23       		.byte	0x23
 1433 031f 00       		.uleb128 0
 1434 0320 00       		.byte	0
 1435 0321 09       		.uleb128 0x9
 1436 0322 04       		.byte	0x4
 1437 0323 77020000 		.4byte	0x277
 1438 0327 04       		.uleb128 0x4
 1439 0328 57030000 		.4byte	.LASF45
 1440 032c 07       		.byte	0x7
 1441 032d 53       		.byte	0x53
 1442 032e 32030000 		.4byte	0x332
 1443 0332 09       		.uleb128 0x9
 1444 0333 04       		.byte	0x4
 1445 0334 38030000 		.4byte	0x338
 1446 0338 0D       		.uleb128 0xd
 1447 0339 01       		.byte	0x1
 1448 033a 44030000 		.4byte	0x344
 1449 033e 0E       		.uleb128 0xe
 1450 033f 6A020000 		.4byte	0x26a
 1451 0343 00       		.byte	0
 1452 0344 04       		.uleb128 0x4
ARM GAS  C:\Users\z80\AppData\Local\Temp\ccIWjNPe.s 			page 27


 1453 0345 FD020000 		.4byte	.LASF46
 1454 0349 07       		.byte	0x7
 1455 034a 58       		.byte	0x58
 1456 034b 4F030000 		.4byte	0x34f
 1457 034f 05       		.uleb128 0x5
 1458 0350 FD020000 		.4byte	.LASF46
 1459 0354 14       		.byte	0x14
 1460 0355 07       		.byte	0x7
 1461 0356 5F       		.byte	0x5f
 1462 0357 A2030000 		.4byte	0x3a2
 1463 035b 06       		.uleb128 0x6
 1464 035c 3C010000 		.4byte	.LASF47
 1465 0360 07       		.byte	0x7
 1466 0361 60       		.byte	0x60
 1467 0362 A2030000 		.4byte	0x3a2
 1468 0366 02       		.byte	0x2
 1469 0367 23       		.byte	0x23
 1470 0368 00       		.uleb128 0
 1471 0369 06       		.uleb128 0x6
 1472 036a F4000000 		.4byte	.LASF48
 1473 036e 07       		.byte	0x7
 1474 036f 62       		.byte	0x62
 1475 0370 A2030000 		.4byte	0x3a2
 1476 0374 02       		.byte	0x2
 1477 0375 23       		.byte	0x23
 1478 0376 04       		.uleb128 0x4
 1479 0377 06       		.uleb128 0x6
 1480 0378 C9010000 		.4byte	.LASF49
 1481 037c 07       		.byte	0x7
 1482 037d 64       		.byte	0x64
 1483 037e DD000000 		.4byte	0xdd
 1484 0382 02       		.byte	0x2
 1485 0383 23       		.byte	0x23
 1486 0384 08       		.uleb128 0x8
 1487 0385 06       		.uleb128 0x6
 1488 0386 DC010000 		.4byte	.LASF50
 1489 038a 07       		.byte	0x7
 1490 038b 65       		.byte	0x65
 1491 038c 27030000 		.4byte	0x327
 1492 0390 02       		.byte	0x2
 1493 0391 23       		.byte	0x23
 1494 0392 0C       		.uleb128 0xc
 1495 0393 06       		.uleb128 0x6
 1496 0394 79030000 		.4byte	.LASF51
 1497 0398 07       		.byte	0x7
 1498 0399 67       		.byte	0x67
 1499 039a 6A020000 		.4byte	0x26a
 1500 039e 02       		.byte	0x2
 1501 039f 23       		.byte	0x23
 1502 03a0 10       		.uleb128 0x10
 1503 03a1 00       		.byte	0
 1504 03a2 09       		.uleb128 0x9
 1505 03a3 04       		.byte	0x4
 1506 03a4 44030000 		.4byte	0x344
 1507 03a8 08       		.uleb128 0x8
 1508 03a9 10       		.byte	0x10
 1509 03aa 07       		.byte	0x7
ARM GAS  C:\Users\z80\AppData\Local\Temp\ccIWjNPe.s 			page 28


 1510 03ab 71       		.byte	0x71
 1511 03ac E9030000 		.4byte	0x3e9
 1512 03b0 06       		.uleb128 0x6
 1513 03b1 3C010000 		.4byte	.LASF47
 1514 03b5 07       		.byte	0x7
 1515 03b6 72       		.byte	0x72
 1516 03b7 A2030000 		.4byte	0x3a2
 1517 03bb 02       		.byte	0x2
 1518 03bc 23       		.byte	0x23
 1519 03bd 00       		.uleb128 0
 1520 03be 06       		.uleb128 0x6
 1521 03bf F4000000 		.4byte	.LASF48
 1522 03c3 07       		.byte	0x7
 1523 03c4 74       		.byte	0x74
 1524 03c5 A2030000 		.4byte	0x3a2
 1525 03c9 02       		.byte	0x2
 1526 03ca 23       		.byte	0x23
 1527 03cb 04       		.uleb128 0x4
 1528 03cc 06       		.uleb128 0x6
 1529 03cd C9010000 		.4byte	.LASF49
 1530 03d1 07       		.byte	0x7
 1531 03d2 76       		.byte	0x76
 1532 03d3 DD000000 		.4byte	0xdd
 1533 03d7 02       		.byte	0x2
 1534 03d8 23       		.byte	0x23
 1535 03d9 08       		.uleb128 0x8
 1536 03da 06       		.uleb128 0x6
 1537 03db BC030000 		.4byte	.LASF52
 1538 03df 07       		.byte	0x7
 1539 03e0 77       		.byte	0x77
 1540 03e1 E9030000 		.4byte	0x3e9
 1541 03e5 02       		.byte	0x2
 1542 03e6 23       		.byte	0x23
 1543 03e7 0C       		.uleb128 0xc
 1544 03e8 00       		.byte	0
 1545 03e9 0F       		.uleb128 0xf
 1546 03ea DD000000 		.4byte	0xdd
 1547 03ee 04       		.uleb128 0x4
 1548 03ef C7030000 		.4byte	.LASF53
 1549 03f3 07       		.byte	0x7
 1550 03f4 78       		.byte	0x78
 1551 03f5 A8030000 		.4byte	0x3a8
 1552 03f9 08       		.uleb128 0x8
 1553 03fa 20       		.byte	0x20
 1554 03fb 08       		.byte	0x8
 1555 03fc 5E       		.byte	0x5e
 1556 03fd 64040000 		.4byte	0x464
 1557 0401 06       		.uleb128 0x6
 1558 0402 F5020000 		.4byte	.LASF54
 1559 0406 08       		.byte	0x8
 1560 0407 5F       		.byte	0x5f
 1561 0408 32020000 		.4byte	0x232
 1562 040c 02       		.byte	0x2
 1563 040d 23       		.byte	0x23
 1564 040e 00       		.uleb128 0
 1565 040f 06       		.uleb128 0x6
 1566 0410 A4020000 		.4byte	.LASF55
ARM GAS  C:\Users\z80\AppData\Local\Temp\ccIWjNPe.s 			page 29


 1567 0414 08       		.byte	0x8
 1568 0415 60       		.byte	0x60
 1569 0416 B1000000 		.4byte	0xb1
 1570 041a 02       		.byte	0x2
 1571 041b 23       		.byte	0x23
 1572 041c 08       		.uleb128 0x8
 1573 041d 06       		.uleb128 0x6
 1574 041e 07020000 		.4byte	.LASF56
 1575 0422 08       		.byte	0x8
 1576 0423 62       		.byte	0x62
 1577 0424 04030000 		.4byte	0x304
 1578 0428 02       		.byte	0x2
 1579 0429 23       		.byte	0x23
 1580 042a 0C       		.uleb128 0xc
 1581 042b 06       		.uleb128 0x6
 1582 042c E3000000 		.4byte	.LASF57
 1583 0430 08       		.byte	0x8
 1584 0431 65       		.byte	0x65
 1585 0432 2C020000 		.4byte	0x22c
 1586 0436 02       		.byte	0x2
 1587 0437 23       		.byte	0x23
 1588 0438 10       		.uleb128 0x10
 1589 0439 06       		.uleb128 0x6
 1590 043a 2A020000 		.4byte	.LASF58
 1591 043e 08       		.byte	0x8
 1592 043f 66       		.byte	0x66
 1593 0440 2C020000 		.4byte	0x22c
 1594 0444 02       		.byte	0x2
 1595 0445 23       		.byte	0x23
 1596 0446 14       		.uleb128 0x14
 1597 0447 06       		.uleb128 0x6
 1598 0448 CE030000 		.4byte	.LASF59
 1599 044c 08       		.byte	0x8
 1600 044d 6A       		.byte	0x6a
 1601 044e E8000000 		.4byte	0xe8
 1602 0452 02       		.byte	0x2
 1603 0453 23       		.byte	0x23
 1604 0454 18       		.uleb128 0x18
 1605 0455 06       		.uleb128 0x6
 1606 0456 20020000 		.4byte	.LASF60
 1607 045a 08       		.byte	0x8
 1608 045b 6C       		.byte	0x6c
 1609 045c 2C020000 		.4byte	0x22c
 1610 0460 02       		.byte	0x2
 1611 0461 23       		.byte	0x23
 1612 0462 1C       		.uleb128 0x1c
 1613 0463 00       		.byte	0
 1614 0464 04       		.uleb128 0x4
 1615 0465 88030000 		.4byte	.LASF61
 1616 0469 08       		.byte	0x8
 1617 046a 6E       		.byte	0x6e
 1618 046b F9030000 		.4byte	0x3f9
 1619 046f 05       		.uleb128 0x5
 1620 0470 B8010000 		.4byte	.LASF62
 1621 0474 10       		.byte	0x10
 1622 0475 09       		.byte	0x9
 1623 0476 2C       		.byte	0x2c
ARM GAS  C:\Users\z80\AppData\Local\Temp\ccIWjNPe.s 			page 30


 1624 0477 A6040000 		.4byte	0x4a6
 1625 047b 06       		.uleb128 0x6
 1626 047c 76000000 		.4byte	.LASF63
 1627 0480 09       		.byte	0x9
 1628 0481 2D       		.byte	0x2d
 1629 0482 32020000 		.4byte	0x232
 1630 0486 02       		.byte	0x2
 1631 0487 23       		.byte	0x23
 1632 0488 00       		.uleb128 0
 1633 0489 06       		.uleb128 0x6
 1634 048a D8030000 		.4byte	.LASF64
 1635 048e 09       		.byte	0x9
 1636 048f 2F       		.byte	0x2f
 1637 0490 2C020000 		.4byte	0x22c
 1638 0494 02       		.byte	0x2
 1639 0495 23       		.byte	0x23
 1640 0496 08       		.uleb128 0x8
 1641 0497 06       		.uleb128 0x6
 1642 0498 3B030000 		.4byte	.LASF65
 1643 049c 09       		.byte	0x9
 1644 049d 31       		.byte	0x31
 1645 049e A6040000 		.4byte	0x4a6
 1646 04a2 02       		.byte	0x2
 1647 04a3 23       		.byte	0x23
 1648 04a4 0C       		.uleb128 0xc
 1649 04a5 00       		.byte	0
 1650 04a6 09       		.uleb128 0x9
 1651 04a7 04       		.byte	0x4
 1652 04a8 6F040000 		.4byte	0x46f
 1653 04ac 04       		.uleb128 0x4
 1654 04ad B8010000 		.4byte	.LASF62
 1655 04b1 09       		.byte	0x9
 1656 04b2 33       		.byte	0x33
 1657 04b3 6F040000 		.4byte	0x46f
 1658 04b7 04       		.uleb128 0x4
 1659 04b8 A0030000 		.4byte	.LASF66
 1660 04bc 0A       		.byte	0xa
 1661 04bd 29       		.byte	0x29
 1662 04be C2040000 		.4byte	0x4c2
 1663 04c2 05       		.uleb128 0x5
 1664 04c3 A0030000 		.4byte	.LASF66
 1665 04c7 0C       		.byte	0xc
 1666 04c8 0A       		.byte	0xa
 1667 04c9 2E       		.byte	0x2e
 1668 04ca F9040000 		.4byte	0x4f9
 1669 04ce 06       		.uleb128 0x6
 1670 04cf 90010000 		.4byte	.LASF67
 1671 04d3 0A       		.byte	0xa
 1672 04d4 2F       		.byte	0x2f
 1673 04d5 F9040000 		.4byte	0x4f9
 1674 04d9 02       		.byte	0x2
 1675 04da 23       		.byte	0x23
 1676 04db 00       		.uleb128 0
 1677 04dc 06       		.uleb128 0x6
 1678 04dd 67020000 		.4byte	.LASF68
 1679 04e1 0A       		.byte	0xa
 1680 04e2 32       		.byte	0x32
ARM GAS  C:\Users\z80\AppData\Local\Temp\ccIWjNPe.s 			page 31


 1681 04e3 2C020000 		.4byte	0x22c
 1682 04e7 02       		.byte	0x2
 1683 04e8 23       		.byte	0x23
 1684 04e9 04       		.uleb128 0x4
 1685 04ea 06       		.uleb128 0x6
 1686 04eb 32020000 		.4byte	.LASF69
 1687 04ef 0A       		.byte	0xa
 1688 04f0 34       		.byte	0x34
 1689 04f1 D2000000 		.4byte	0xd2
 1690 04f5 02       		.byte	0x2
 1691 04f6 23       		.byte	0x23
 1692 04f7 08       		.uleb128 0x8
 1693 04f8 00       		.byte	0
 1694 04f9 09       		.uleb128 0x9
 1695 04fa 04       		.byte	0x4
 1696 04fb B7040000 		.4byte	0x4b7
 1697 04ff 05       		.uleb128 0x5
 1698 0500 06010000 		.4byte	.LASF70
 1699 0504 04       		.byte	0x4
 1700 0505 0A       		.byte	0xa
 1701 0506 3C       		.byte	0x3c
 1702 0507 1A050000 		.4byte	0x51a
 1703 050b 06       		.uleb128 0x6
 1704 050c 80030000 		.4byte	.LASF71
 1705 0510 0A       		.byte	0xa
 1706 0511 3D       		.byte	0x3d
 1707 0512 F9040000 		.4byte	0x4f9
 1708 0516 02       		.byte	0x2
 1709 0517 23       		.byte	0x23
 1710 0518 00       		.uleb128 0
 1711 0519 00       		.byte	0
 1712 051a 04       		.uleb128 0x4
 1713 051b 06010000 		.4byte	.LASF70
 1714 051f 0A       		.byte	0xa
 1715 0520 40       		.byte	0x40
 1716 0521 FF040000 		.4byte	0x4ff
 1717 0525 04       		.uleb128 0x4
 1718 0526 12010000 		.4byte	.LASF72
 1719 052a 0A       		.byte	0xa
 1720 052b 45       		.byte	0x45
 1721 052c 30050000 		.4byte	0x530
 1722 0530 09       		.uleb128 0x9
 1723 0531 04       		.byte	0x4
 1724 0532 36050000 		.4byte	0x536
 1725 0536 0D       		.uleb128 0xd
 1726 0537 01       		.byte	0x1
 1727 0538 42050000 		.4byte	0x542
 1728 053c 0E       		.uleb128 0xe
 1729 053d C7000000 		.4byte	0xc7
 1730 0541 00       		.byte	0
 1731 0542 10       		.uleb128 0x10
 1732 0543 04       		.byte	0x4
 1733 0544 05       		.byte	0x5
 1734 0545 90       		.byte	0x90
 1735 0546 77050000 		.4byte	0x577
 1736 054a 11       		.uleb128 0x11
 1737 054b 11000000 		.4byte	.LASF73
ARM GAS  C:\Users\z80\AppData\Local\Temp\ccIWjNPe.s 			page 32


 1738 054f 05       		.byte	0x5
 1739 0550 97       		.byte	0x97
 1740 0551 BC000000 		.4byte	0xbc
 1741 0555 11       		.uleb128 0x11
 1742 0556 3F000000 		.4byte	.LASF74
 1743 055a 05       		.byte	0x5
 1744 055b 9E       		.byte	0x9e
 1745 055c BC000000 		.4byte	0xbc
 1746 0560 11       		.uleb128 0x11
 1747 0561 AE030000 		.4byte	.LASF75
 1748 0565 05       		.byte	0x5
 1749 0566 A5       		.byte	0xa5
 1750 0567 6A020000 		.4byte	0x26a
 1751 056b 11       		.uleb128 0x11
 1752 056c AB020000 		.4byte	.LASF76
 1753 0570 05       		.byte	0x5
 1754 0571 AC       		.byte	0xac
 1755 0572 D2000000 		.4byte	0xd2
 1756 0576 00       		.byte	0
 1757 0577 09       		.uleb128 0x9
 1758 0578 04       		.byte	0x4
 1759 0579 7D050000 		.4byte	0x57d
 1760 057d 12       		.uleb128 0x12
 1761 057e 82050000 		.4byte	0x582
 1762 0582 03       		.uleb128 0x3
 1763 0583 01       		.byte	0x1
 1764 0584 08       		.byte	0x8
 1765 0585 36030000 		.4byte	.LASF77
 1766 0589 09       		.uleb128 0x9
 1767 058a 04       		.byte	0x4
 1768 058b 6C020000 		.4byte	0x26c
 1769 058f 09       		.uleb128 0x9
 1770 0590 04       		.byte	0x4
 1771 0591 AC040000 		.4byte	0x4ac
 1772 0595 05       		.uleb128 0x5
 1773 0596 C8020000 		.4byte	.LASF78
 1774 059a 10       		.byte	0x10
 1775 059b 0B       		.byte	0xb
 1776 059c 46       		.byte	0x46
 1777 059d DA050000 		.4byte	0x5da
 1778 05a1 06       		.uleb128 0x6
 1779 05a2 6A010000 		.4byte	.LASF79
 1780 05a6 0B       		.byte	0xb
 1781 05a7 47       		.byte	0x47
 1782 05a8 77050000 		.4byte	0x577
 1783 05ac 02       		.byte	0x2
 1784 05ad 23       		.byte	0x23
 1785 05ae 00       		.uleb128 0
 1786 05af 06       		.uleb128 0x6
 1787 05b0 1A020000 		.4byte	.LASF80
 1788 05b4 0B       		.byte	0xb
 1789 05b5 48       		.byte	0x48
 1790 05b6 DC050000 		.4byte	0x5dc
 1791 05ba 02       		.byte	0x2
 1792 05bb 23       		.byte	0x23
 1793 05bc 04       		.uleb128 0x4
 1794 05bd 06       		.uleb128 0x6
ARM GAS  C:\Users\z80\AppData\Local\Temp\ccIWjNPe.s 			page 33


 1795 05be 56010000 		.4byte	.LASF81
 1796 05c2 0B       		.byte	0xb
 1797 05c3 49       		.byte	0x49
 1798 05c4 DC050000 		.4byte	0x5dc
 1799 05c8 02       		.byte	0x2
 1800 05c9 23       		.byte	0x23
 1801 05ca 08       		.uleb128 0x8
 1802 05cb 06       		.uleb128 0x6
 1803 05cc 41020000 		.4byte	.LASF82
 1804 05d0 0B       		.byte	0xb
 1805 05d1 4A       		.byte	0x4a
 1806 05d2 DC050000 		.4byte	0x5dc
 1807 05d6 02       		.byte	0x2
 1808 05d7 23       		.byte	0x23
 1809 05d8 0C       		.uleb128 0xc
 1810 05d9 00       		.byte	0
 1811 05da 13       		.uleb128 0x13
 1812 05db 01       		.byte	0x1
 1813 05dc 09       		.uleb128 0x9
 1814 05dd 04       		.byte	0x4
 1815 05de DA050000 		.4byte	0x5da
 1816 05e2 14       		.uleb128 0x14
 1817 05e3 D1010000 		.4byte	.LASF84
 1818 05e7 01       		.byte	0x1
 1819 05e8 56       		.byte	0x56
 1820 05e9 01       		.byte	0x1
 1821 05ea 00000000 		.4byte	.LFB7
 1822 05ee 0C000000 		.4byte	.LFE7
 1823 05f2 00000000 		.4byte	.LLST0
 1824 05f6 15       		.uleb128 0x15
 1825 05f7 683100   		.ascii	"h1\000"
 1826 05fa 01       		.byte	0x1
 1827 05fb 5B       		.byte	0x5b
 1828 05fc 01       		.byte	0x1
 1829 05fd 00000000 		.4byte	.LFB8
 1830 0601 12000000 		.4byte	.LFE8
 1831 0605 20000000 		.4byte	.LLST1
 1832 0609 1B060000 		.4byte	0x61b
 1833 060d 16       		.uleb128 0x16
 1834 060e 696400   		.ascii	"id\000"
 1835 0611 01       		.byte	0x1
 1836 0612 5B       		.byte	0x5b
 1837 0613 C7000000 		.4byte	0xc7
 1838 0617 02       		.byte	0x2
 1839 0618 91       		.byte	0x91
 1840 0619 74       		.sleb128 -12
 1841 061a 00       		.byte	0
 1842 061b 15       		.uleb128 0x15
 1843 061c 683200   		.ascii	"h2\000"
 1844 061f 01       		.byte	0x1
 1845 0620 5C       		.byte	0x5c
 1846 0621 01       		.byte	0x1
 1847 0622 00000000 		.4byte	.LFB9
 1848 0626 12000000 		.4byte	.LFE9
 1849 062a 4C000000 		.4byte	.LLST2
 1850 062e 40060000 		.4byte	0x640
 1851 0632 16       		.uleb128 0x16
ARM GAS  C:\Users\z80\AppData\Local\Temp\ccIWjNPe.s 			page 34


 1852 0633 696400   		.ascii	"id\000"
 1853 0636 01       		.byte	0x1
 1854 0637 5C       		.byte	0x5c
 1855 0638 C7000000 		.4byte	0xc7
 1856 063c 02       		.byte	0x2
 1857 063d 91       		.byte	0x91
 1858 063e 74       		.sleb128 -12
 1859 063f 00       		.byte	0
 1860 0640 15       		.uleb128 0x15
 1861 0641 683300   		.ascii	"h3\000"
 1862 0644 01       		.byte	0x1
 1863 0645 5D       		.byte	0x5d
 1864 0646 01       		.byte	0x1
 1865 0647 00000000 		.4byte	.LFB10
 1866 064b 12000000 		.4byte	.LFE10
 1867 064f 78000000 		.4byte	.LLST3
 1868 0653 65060000 		.4byte	0x665
 1869 0657 16       		.uleb128 0x16
 1870 0658 696400   		.ascii	"id\000"
 1871 065b 01       		.byte	0x1
 1872 065c 5D       		.byte	0x5d
 1873 065d C7000000 		.4byte	0xc7
 1874 0661 02       		.byte	0x2
 1875 0662 91       		.byte	0x91
 1876 0663 74       		.sleb128 -12
 1877 0664 00       		.byte	0
 1878 0665 17       		.uleb128 0x17
 1879 0666 E0030000 		.4byte	.LASF83
 1880 066a 01       		.byte	0x1
 1881 066b 60       		.byte	0x60
 1882 066c 01       		.byte	0x1
 1883 066d 00000000 		.4byte	.LFB11
 1884 0671 04010000 		.4byte	.LFE11
 1885 0675 A4000000 		.4byte	.LLST4
 1886 0679 9A060000 		.4byte	0x69a
 1887 067d 18       		.uleb128 0x18
 1888 067e 656C3100 		.ascii	"el1\000"
 1889 0682 01       		.byte	0x1
 1890 0683 61       		.byte	0x61
 1891 0684 B7040000 		.4byte	0x4b7
 1892 0688 02       		.byte	0x2
 1893 0689 91       		.byte	0x91
 1894 068a 6C       		.sleb128 -20
 1895 068b 18       		.uleb128 0x18
 1896 068c 656C3200 		.ascii	"el2\000"
 1897 0690 01       		.byte	0x1
 1898 0691 61       		.byte	0x61
 1899 0692 B7040000 		.4byte	0x4b7
 1900 0696 02       		.byte	0x2
 1901 0697 91       		.byte	0x91
 1902 0698 60       		.sleb128 -32
 1903 0699 00       		.byte	0
 1904 069a 14       		.uleb128 0x14
 1905 069b 00000000 		.4byte	.LASF85
 1906 069f 01       		.byte	0x1
 1907 06a0 8B       		.byte	0x8b
 1908 06a1 01       		.byte	0x1
ARM GAS  C:\Users\z80\AppData\Local\Temp\ccIWjNPe.s 			page 35


 1909 06a2 00000000 		.4byte	.LFB12
 1910 06a6 0C000000 		.4byte	.LFE12
 1911 06aa D0000000 		.4byte	.LLST5
 1912 06ae 19       		.uleb128 0x19
 1913 06af F7010000 		.4byte	.LASF86
 1914 06b3 01       		.byte	0x1
 1915 06b4 90       		.byte	0x90
 1916 06b5 01       		.byte	0x1
 1917 06b6 BC000000 		.4byte	0xbc
 1918 06ba 00000000 		.4byte	.LFB13
 1919 06be 22000000 		.4byte	.LFE13
 1920 06c2 F0000000 		.4byte	.LLST6
 1921 06c6 D7060000 		.4byte	0x6d7
 1922 06ca 16       		.uleb128 0x16
 1923 06cb 7000     		.ascii	"p\000"
 1924 06cd 01       		.byte	0x1
 1925 06ce 90       		.byte	0x90
 1926 06cf 6A020000 		.4byte	0x26a
 1927 06d3 02       		.byte	0x2
 1928 06d4 91       		.byte	0x91
 1929 06d5 74       		.sleb128 -12
 1930 06d6 00       		.byte	0
 1931 06d7 19       		.uleb128 0x19
 1932 06d8 FF010000 		.4byte	.LASF87
 1933 06dc 01       		.byte	0x1
 1934 06dd 97       		.byte	0x97
 1935 06de 01       		.byte	0x1
 1936 06df BC000000 		.4byte	0xbc
 1937 06e3 00000000 		.4byte	.LFB14
 1938 06e7 38000000 		.4byte	.LFE14
 1939 06eb 1C010000 		.4byte	.LLST7
 1940 06ef 00070000 		.4byte	0x700
 1941 06f3 16       		.uleb128 0x16
 1942 06f4 7000     		.ascii	"p\000"
 1943 06f6 01       		.byte	0x1
 1944 06f7 97       		.byte	0x97
 1945 06f8 6A020000 		.4byte	0x26a
 1946 06fc 02       		.byte	0x2
 1947 06fd 91       		.byte	0x91
 1948 06fe 74       		.sleb128 -12
 1949 06ff 00       		.byte	0
 1950 0700 17       		.uleb128 0x17
 1951 0701 4F000000 		.4byte	.LASF88
 1952 0705 01       		.byte	0x1
 1953 0706 A0       		.byte	0xa0
 1954 0707 01       		.byte	0x1
 1955 0708 00000000 		.4byte	.LFB15
 1956 070c B8030000 		.4byte	.LFE15
 1957 0710 48010000 		.4byte	.LLST8
 1958 0714 4F070000 		.4byte	0x74f
 1959 0718 18       		.uleb128 0x18
 1960 0719 6D00     		.ascii	"m\000"
 1961 071b 01       		.byte	0x1
 1962 071c A1       		.byte	0xa1
 1963 071d D2000000 		.4byte	0xd2
 1964 0721 02       		.byte	0x2
 1965 0722 91       		.byte	0x91
ARM GAS  C:\Users\z80\AppData\Local\Temp\ccIWjNPe.s 			page 36


 1966 0723 74       		.sleb128 -12
 1967 0724 18       		.uleb128 0x18
 1968 0725 656C3100 		.ascii	"el1\000"
 1969 0729 01       		.byte	0x1
 1970 072a A2       		.byte	0xa2
 1971 072b B7040000 		.4byte	0x4b7
 1972 072f 02       		.byte	0x2
 1973 0730 91       		.byte	0x91
 1974 0731 64       		.sleb128 -28
 1975 0732 18       		.uleb128 0x18
 1976 0733 656C3200 		.ascii	"el2\000"
 1977 0737 01       		.byte	0x1
 1978 0738 A2       		.byte	0xa2
 1979 0739 B7040000 		.4byte	0x4b7
 1980 073d 02       		.byte	0x2
 1981 073e 91       		.byte	0x91
 1982 073f 58       		.sleb128 -40
 1983 0740 1A       		.uleb128 0x1a
 1984 0741 B4000000 		.4byte	.LASF89
 1985 0745 01       		.byte	0x1
 1986 0746 A3       		.byte	0xa3
 1987 0747 DD000000 		.4byte	0xdd
 1988 074b 02       		.byte	0x2
 1989 074c 91       		.byte	0x91
 1990 074d 70       		.sleb128 -16
 1991 074e 00       		.byte	0
 1992 074f 1B       		.uleb128 0x1b
 1993 0750 E4010000 		.4byte	.LASF90
 1994 0754 01       		.byte	0x1
 1995 0755 0201     		.2byte	0x102
 1996 0757 01       		.byte	0x1
 1997 0758 00000000 		.4byte	.LFB16
 1998 075c 0C000000 		.4byte	.LFE16
 1999 0760 74010000 		.4byte	.LLST9
 2000 0764 1C       		.uleb128 0x1c
 2001 0765 73020000 		.4byte	.LASF91
 2002 0769 01       		.byte	0x1
 2003 076a 0701     		.2byte	0x107
 2004 076c 01       		.byte	0x1
 2005 076d 00000000 		.4byte	.LFB17
 2006 0771 F6000000 		.4byte	.LFE17
 2007 0775 94010000 		.4byte	.LLST10
 2008 0779 8B070000 		.4byte	0x78b
 2009 077d 1D       		.uleb128 0x1d
 2010 077e 6D00     		.ascii	"m\000"
 2011 0780 01       		.byte	0x1
 2012 0781 0801     		.2byte	0x108
 2013 0783 D2000000 		.4byte	0xd2
 2014 0787 02       		.byte	0x2
 2015 0788 91       		.byte	0x91
 2016 0789 74       		.sleb128 -12
 2017 078a 00       		.byte	0
 2018 078b 18       		.uleb128 0x18
 2019 078c 65733100 		.ascii	"es1\000"
 2020 0790 01       		.byte	0x1
 2021 0791 46       		.byte	0x46
 2022 0792 1A050000 		.4byte	0x51a
ARM GAS  C:\Users\z80\AppData\Local\Temp\ccIWjNPe.s 			page 37


 2023 0796 05       		.byte	0x5
 2024 0797 03       		.byte	0x3
 2025 0798 00000000 		.4byte	es1
 2026 079c 18       		.uleb128 0x18
 2027 079d 65733200 		.ascii	"es2\000"
 2028 07a1 01       		.byte	0x1
 2029 07a2 47       		.byte	0x47
 2030 07a3 1A050000 		.4byte	0x51a
 2031 07a7 05       		.byte	0x5
 2032 07a8 03       		.byte	0x3
 2033 07a9 00000000 		.4byte	es2
 2034 07ad 1E       		.uleb128 0x1e
 2035 07ae 25050000 		.4byte	0x525
 2036 07b2 BD070000 		.4byte	0x7bd
 2037 07b6 1F       		.uleb128 0x1f
 2038 07b7 30000000 		.4byte	0x30
 2039 07bb 02       		.byte	0x2
 2040 07bc 00       		.byte	0
 2041 07bd 1A       		.uleb128 0x1a
 2042 07be E5020000 		.4byte	.LASF92
 2043 07c2 01       		.byte	0x1
 2044 07c3 5E       		.byte	0x5e
 2045 07c4 CE070000 		.4byte	0x7ce
 2046 07c8 05       		.byte	0x5
 2047 07c9 03       		.byte	0x3
 2048 07ca 00000000 		.4byte	evhndl
 2049 07ce 12       		.uleb128 0x12
 2050 07cf AD070000 		.4byte	0x7ad
 2051 07d3 20       		.uleb128 0x20
 2052 07d4 21000000 		.4byte	.LASF93
 2053 07d8 07       		.byte	0x7
 2054 07d9 7A       		.byte	0x7a
 2055 07da EE030000 		.4byte	0x3ee
 2056 07de 01       		.byte	0x1
 2057 07df 01       		.byte	0x1
 2058 07e0 20       		.uleb128 0x20
 2059 07e1 92030000 		.4byte	.LASF94
 2060 07e5 08       		.byte	0x8
 2061 07e6 72       		.byte	0x72
 2062 07e7 64040000 		.4byte	0x464
 2063 07eb 01       		.byte	0x1
 2064 07ec 01       		.byte	0x1
 2065 07ed 1E       		.uleb128 0x1e
 2066 07ee 2C020000 		.4byte	0x22c
 2067 07f2 FD070000 		.4byte	0x7fd
 2068 07f6 1F       		.uleb128 0x1f
 2069 07f7 30000000 		.4byte	0x30
 2070 07fb 04       		.byte	0x4
 2071 07fc 00       		.byte	0
 2072 07fd 20       		.uleb128 0x20
 2073 07fe 9C020000 		.4byte	.LASF95
 2074 0802 0B       		.byte	0xb
 2075 0803 B0       		.byte	0xb0
 2076 0804 ED070000 		.4byte	0x7ed
 2077 0808 01       		.byte	0x1
 2078 0809 01       		.byte	0x1
 2079 080a 1E       		.uleb128 0x1e
ARM GAS  C:\Users\z80\AppData\Local\Temp\ccIWjNPe.s 			page 38


 2080 080b 6A020000 		.4byte	0x26a
 2081 080f 15080000 		.4byte	0x815
 2082 0813 21       		.uleb128 0x21
 2083 0814 00       		.byte	0
 2084 0815 22       		.uleb128 0x22
 2085 0816 776100   		.ascii	"wa\000"
 2086 0819 0B       		.byte	0xb
 2087 081a B2       		.byte	0xb2
 2088 081b 21080000 		.4byte	0x821
 2089 081f 01       		.byte	0x1
 2090 0820 01       		.byte	0x1
 2091 0821 12       		.uleb128 0x12
 2092 0822 0A080000 		.4byte	0x80a
 2093 0826 23       		.uleb128 0x23
 2094 0827 DC020000 		.4byte	.LASF96
 2095 082b 01       		.byte	0x1
 2096 082c 76       		.byte	0x76
 2097 082d 38080000 		.4byte	0x838
 2098 0831 01       		.byte	0x1
 2099 0832 05       		.byte	0x5
 2100 0833 03       		.byte	0x3
 2101 0834 00000000 		.4byte	testevt1
 2102 0838 12       		.uleb128 0x12
 2103 0839 95050000 		.4byte	0x595
 2104 083d 23       		.uleb128 0x23
 2105 083e C9000000 		.4byte	.LASF97
 2106 0842 01       		.byte	0x1
 2107 0843 EB       		.byte	0xeb
 2108 0844 38080000 		.4byte	0x838
 2109 0848 01       		.byte	0x1
 2110 0849 05       		.byte	0x5
 2111 084a 03       		.byte	0x3
 2112 084b 00000000 		.4byte	testevt2
 2113 084f 24       		.uleb128 0x24
 2114 0850 D2000000 		.4byte	.LASF98
 2115 0854 01       		.byte	0x1
 2116 0855 1B01     		.2byte	0x11b
 2117 0857 38080000 		.4byte	0x838
 2118 085b 01       		.byte	0x1
 2119 085c 05       		.byte	0x5
 2120 085d 03       		.byte	0x3
 2121 085e 00000000 		.4byte	testevt3
 2122 0862 1E       		.uleb128 0x1e
 2123 0863 72080000 		.4byte	0x872
 2124 0867 72080000 		.4byte	0x872
 2125 086b 1F       		.uleb128 0x1f
 2126 086c 30000000 		.4byte	0x30
 2127 0870 03       		.byte	0x3
 2128 0871 00       		.byte	0
 2129 0872 09       		.uleb128 0x9
 2130 0873 04       		.byte	0x4
 2131 0874 38080000 		.4byte	0x838
 2132 0878 24       		.uleb128 0x24
 2133 0879 5F010000 		.4byte	.LASF99
 2134 087d 01       		.byte	0x1
 2135 087e 2601     		.2byte	0x126
 2136 0880 8B080000 		.4byte	0x88b
ARM GAS  C:\Users\z80\AppData\Local\Temp\ccIWjNPe.s 			page 39


 2137 0884 01       		.byte	0x1
 2138 0885 05       		.byte	0x5
 2139 0886 03       		.byte	0x3
 2140 0887 00000000 		.4byte	patternevt
 2141 088b 12       		.uleb128 0x12
 2142 088c 62080000 		.4byte	0x862
 2143 0890 00       		.byte	0
 2144              		.section	.debug_abbrev,"",%progbits
 2145              	.Ldebug_abbrev0:
 2146 0000 01       		.uleb128 0x1
 2147 0001 11       		.uleb128 0x11
 2148 0002 01       		.byte	0x1
 2149 0003 25       		.uleb128 0x25
 2150 0004 0E       		.uleb128 0xe
 2151 0005 13       		.uleb128 0x13
 2152 0006 0B       		.uleb128 0xb
 2153 0007 03       		.uleb128 0x3
 2154 0008 0E       		.uleb128 0xe
 2155 0009 1B       		.uleb128 0x1b
 2156 000a 0E       		.uleb128 0xe
 2157 000b 11       		.uleb128 0x11
 2158 000c 01       		.uleb128 0x1
 2159 000d 52       		.uleb128 0x52
 2160 000e 01       		.uleb128 0x1
 2161 000f 55       		.uleb128 0x55
 2162 0010 06       		.uleb128 0x6
 2163 0011 10       		.uleb128 0x10
 2164 0012 06       		.uleb128 0x6
 2165 0013 00       		.byte	0
 2166 0014 00       		.byte	0
 2167 0015 02       		.uleb128 0x2
 2168 0016 24       		.uleb128 0x24
 2169 0017 00       		.byte	0
 2170 0018 0B       		.uleb128 0xb
 2171 0019 0B       		.uleb128 0xb
 2172 001a 3E       		.uleb128 0x3e
 2173 001b 0B       		.uleb128 0xb
 2174 001c 03       		.uleb128 0x3
 2175 001d 08       		.uleb128 0x8
 2176 001e 00       		.byte	0
 2177 001f 00       		.byte	0
 2178 0020 03       		.uleb128 0x3
 2179 0021 24       		.uleb128 0x24
 2180 0022 00       		.byte	0
 2181 0023 0B       		.uleb128 0xb
 2182 0024 0B       		.uleb128 0xb
 2183 0025 3E       		.uleb128 0x3e
 2184 0026 0B       		.uleb128 0xb
 2185 0027 03       		.uleb128 0x3
 2186 0028 0E       		.uleb128 0xe
 2187 0029 00       		.byte	0
 2188 002a 00       		.byte	0
 2189 002b 04       		.uleb128 0x4
 2190 002c 16       		.uleb128 0x16
 2191 002d 00       		.byte	0
 2192 002e 03       		.uleb128 0x3
 2193 002f 0E       		.uleb128 0xe
ARM GAS  C:\Users\z80\AppData\Local\Temp\ccIWjNPe.s 			page 40


 2194 0030 3A       		.uleb128 0x3a
 2195 0031 0B       		.uleb128 0xb
 2196 0032 3B       		.uleb128 0x3b
 2197 0033 0B       		.uleb128 0xb
 2198 0034 49       		.uleb128 0x49
 2199 0035 13       		.uleb128 0x13
 2200 0036 00       		.byte	0
 2201 0037 00       		.byte	0
 2202 0038 05       		.uleb128 0x5
 2203 0039 13       		.uleb128 0x13
 2204 003a 01       		.byte	0x1
 2205 003b 03       		.uleb128 0x3
 2206 003c 0E       		.uleb128 0xe
 2207 003d 0B       		.uleb128 0xb
 2208 003e 0B       		.uleb128 0xb
 2209 003f 3A       		.uleb128 0x3a
 2210 0040 0B       		.uleb128 0xb
 2211 0041 3B       		.uleb128 0x3b
 2212 0042 0B       		.uleb128 0xb
 2213 0043 01       		.uleb128 0x1
 2214 0044 13       		.uleb128 0x13
 2215 0045 00       		.byte	0
 2216 0046 00       		.byte	0
 2217 0047 06       		.uleb128 0x6
 2218 0048 0D       		.uleb128 0xd
 2219 0049 00       		.byte	0
 2220 004a 03       		.uleb128 0x3
 2221 004b 0E       		.uleb128 0xe
 2222 004c 3A       		.uleb128 0x3a
 2223 004d 0B       		.uleb128 0xb
 2224 004e 3B       		.uleb128 0x3b
 2225 004f 0B       		.uleb128 0xb
 2226 0050 49       		.uleb128 0x49
 2227 0051 13       		.uleb128 0x13
 2228 0052 38       		.uleb128 0x38
 2229 0053 0A       		.uleb128 0xa
 2230 0054 00       		.byte	0
 2231 0055 00       		.byte	0
 2232 0056 07       		.uleb128 0x7
 2233 0057 0D       		.uleb128 0xd
 2234 0058 00       		.byte	0
 2235 0059 03       		.uleb128 0x3
 2236 005a 08       		.uleb128 0x8
 2237 005b 3A       		.uleb128 0x3a
 2238 005c 0B       		.uleb128 0xb
 2239 005d 3B       		.uleb128 0x3b
 2240 005e 0B       		.uleb128 0xb
 2241 005f 49       		.uleb128 0x49
 2242 0060 13       		.uleb128 0x13
 2243 0061 38       		.uleb128 0x38
 2244 0062 0A       		.uleb128 0xa
 2245 0063 00       		.byte	0
 2246 0064 00       		.byte	0
 2247 0065 08       		.uleb128 0x8
 2248 0066 13       		.uleb128 0x13
 2249 0067 01       		.byte	0x1
 2250 0068 0B       		.uleb128 0xb
ARM GAS  C:\Users\z80\AppData\Local\Temp\ccIWjNPe.s 			page 41


 2251 0069 0B       		.uleb128 0xb
 2252 006a 3A       		.uleb128 0x3a
 2253 006b 0B       		.uleb128 0xb
 2254 006c 3B       		.uleb128 0x3b
 2255 006d 0B       		.uleb128 0xb
 2256 006e 01       		.uleb128 0x1
 2257 006f 13       		.uleb128 0x13
 2258 0070 00       		.byte	0
 2259 0071 00       		.byte	0
 2260 0072 09       		.uleb128 0x9
 2261 0073 0F       		.uleb128 0xf
 2262 0074 00       		.byte	0
 2263 0075 0B       		.uleb128 0xb
 2264 0076 0B       		.uleb128 0xb
 2265 0077 49       		.uleb128 0x49
 2266 0078 13       		.uleb128 0x13
 2267 0079 00       		.byte	0
 2268 007a 00       		.byte	0
 2269 007b 0A       		.uleb128 0xa
 2270 007c 0F       		.uleb128 0xf
 2271 007d 00       		.byte	0
 2272 007e 0B       		.uleb128 0xb
 2273 007f 0B       		.uleb128 0xb
 2274 0080 00       		.byte	0
 2275 0081 00       		.byte	0
 2276 0082 0B       		.uleb128 0xb
 2277 0083 0D       		.uleb128 0xd
 2278 0084 00       		.byte	0
 2279 0085 03       		.uleb128 0x3
 2280 0086 08       		.uleb128 0x8
 2281 0087 3A       		.uleb128 0x3a
 2282 0088 0B       		.uleb128 0xb
 2283 0089 3B       		.uleb128 0x3b
 2284 008a 05       		.uleb128 0x5
 2285 008b 49       		.uleb128 0x49
 2286 008c 13       		.uleb128 0x13
 2287 008d 38       		.uleb128 0x38
 2288 008e 0A       		.uleb128 0xa
 2289 008f 00       		.byte	0
 2290 0090 00       		.byte	0
 2291 0091 0C       		.uleb128 0xc
 2292 0092 13       		.uleb128 0x13
 2293 0093 01       		.byte	0x1
 2294 0094 03       		.uleb128 0x3
 2295 0095 0E       		.uleb128 0xe
 2296 0096 0B       		.uleb128 0xb
 2297 0097 0B       		.uleb128 0xb
 2298 0098 3A       		.uleb128 0x3a
 2299 0099 0B       		.uleb128 0xb
 2300 009a 3B       		.uleb128 0x3b
 2301 009b 05       		.uleb128 0x5
 2302 009c 01       		.uleb128 0x1
 2303 009d 13       		.uleb128 0x13
 2304 009e 00       		.byte	0
 2305 009f 00       		.byte	0
 2306 00a0 0D       		.uleb128 0xd
 2307 00a1 15       		.uleb128 0x15
ARM GAS  C:\Users\z80\AppData\Local\Temp\ccIWjNPe.s 			page 42


 2308 00a2 01       		.byte	0x1
 2309 00a3 27       		.uleb128 0x27
 2310 00a4 0C       		.uleb128 0xc
 2311 00a5 01       		.uleb128 0x1
 2312 00a6 13       		.uleb128 0x13
 2313 00a7 00       		.byte	0
 2314 00a8 00       		.byte	0
 2315 00a9 0E       		.uleb128 0xe
 2316 00aa 05       		.uleb128 0x5
 2317 00ab 00       		.byte	0
 2318 00ac 49       		.uleb128 0x49
 2319 00ad 13       		.uleb128 0x13
 2320 00ae 00       		.byte	0
 2321 00af 00       		.byte	0
 2322 00b0 0F       		.uleb128 0xf
 2323 00b1 35       		.uleb128 0x35
 2324 00b2 00       		.byte	0
 2325 00b3 49       		.uleb128 0x49
 2326 00b4 13       		.uleb128 0x13
 2327 00b5 00       		.byte	0
 2328 00b6 00       		.byte	0
 2329 00b7 10       		.uleb128 0x10
 2330 00b8 17       		.uleb128 0x17
 2331 00b9 01       		.byte	0x1
 2332 00ba 0B       		.uleb128 0xb
 2333 00bb 0B       		.uleb128 0xb
 2334 00bc 3A       		.uleb128 0x3a
 2335 00bd 0B       		.uleb128 0xb
 2336 00be 3B       		.uleb128 0x3b
 2337 00bf 0B       		.uleb128 0xb
 2338 00c0 01       		.uleb128 0x1
 2339 00c1 13       		.uleb128 0x13
 2340 00c2 00       		.byte	0
 2341 00c3 00       		.byte	0
 2342 00c4 11       		.uleb128 0x11
 2343 00c5 0D       		.uleb128 0xd
 2344 00c6 00       		.byte	0
 2345 00c7 03       		.uleb128 0x3
 2346 00c8 0E       		.uleb128 0xe
 2347 00c9 3A       		.uleb128 0x3a
 2348 00ca 0B       		.uleb128 0xb
 2349 00cb 3B       		.uleb128 0x3b
 2350 00cc 0B       		.uleb128 0xb
 2351 00cd 49       		.uleb128 0x49
 2352 00ce 13       		.uleb128 0x13
 2353 00cf 00       		.byte	0
 2354 00d0 00       		.byte	0
 2355 00d1 12       		.uleb128 0x12
 2356 00d2 26       		.uleb128 0x26
 2357 00d3 00       		.byte	0
 2358 00d4 49       		.uleb128 0x49
 2359 00d5 13       		.uleb128 0x13
 2360 00d6 00       		.byte	0
 2361 00d7 00       		.byte	0
 2362 00d8 13       		.uleb128 0x13
 2363 00d9 15       		.uleb128 0x15
 2364 00da 00       		.byte	0
ARM GAS  C:\Users\z80\AppData\Local\Temp\ccIWjNPe.s 			page 43


 2365 00db 27       		.uleb128 0x27
 2366 00dc 0C       		.uleb128 0xc
 2367 00dd 00       		.byte	0
 2368 00de 00       		.byte	0
 2369 00df 14       		.uleb128 0x14
 2370 00e0 2E       		.uleb128 0x2e
 2371 00e1 00       		.byte	0
 2372 00e2 03       		.uleb128 0x3
 2373 00e3 0E       		.uleb128 0xe
 2374 00e4 3A       		.uleb128 0x3a
 2375 00e5 0B       		.uleb128 0xb
 2376 00e6 3B       		.uleb128 0x3b
 2377 00e7 0B       		.uleb128 0xb
 2378 00e8 27       		.uleb128 0x27
 2379 00e9 0C       		.uleb128 0xc
 2380 00ea 11       		.uleb128 0x11
 2381 00eb 01       		.uleb128 0x1
 2382 00ec 12       		.uleb128 0x12
 2383 00ed 01       		.uleb128 0x1
 2384 00ee 40       		.uleb128 0x40
 2385 00ef 06       		.uleb128 0x6
 2386 00f0 00       		.byte	0
 2387 00f1 00       		.byte	0
 2388 00f2 15       		.uleb128 0x15
 2389 00f3 2E       		.uleb128 0x2e
 2390 00f4 01       		.byte	0x1
 2391 00f5 03       		.uleb128 0x3
 2392 00f6 08       		.uleb128 0x8
 2393 00f7 3A       		.uleb128 0x3a
 2394 00f8 0B       		.uleb128 0xb
 2395 00f9 3B       		.uleb128 0x3b
 2396 00fa 0B       		.uleb128 0xb
 2397 00fb 27       		.uleb128 0x27
 2398 00fc 0C       		.uleb128 0xc
 2399 00fd 11       		.uleb128 0x11
 2400 00fe 01       		.uleb128 0x1
 2401 00ff 12       		.uleb128 0x12
 2402 0100 01       		.uleb128 0x1
 2403 0101 40       		.uleb128 0x40
 2404 0102 06       		.uleb128 0x6
 2405 0103 01       		.uleb128 0x1
 2406 0104 13       		.uleb128 0x13
 2407 0105 00       		.byte	0
 2408 0106 00       		.byte	0
 2409 0107 16       		.uleb128 0x16
 2410 0108 05       		.uleb128 0x5
 2411 0109 00       		.byte	0
 2412 010a 03       		.uleb128 0x3
 2413 010b 08       		.uleb128 0x8
 2414 010c 3A       		.uleb128 0x3a
 2415 010d 0B       		.uleb128 0xb
 2416 010e 3B       		.uleb128 0x3b
 2417 010f 0B       		.uleb128 0xb
 2418 0110 49       		.uleb128 0x49
 2419 0111 13       		.uleb128 0x13
 2420 0112 02       		.uleb128 0x2
 2421 0113 0A       		.uleb128 0xa
ARM GAS  C:\Users\z80\AppData\Local\Temp\ccIWjNPe.s 			page 44


 2422 0114 00       		.byte	0
 2423 0115 00       		.byte	0
 2424 0116 17       		.uleb128 0x17
 2425 0117 2E       		.uleb128 0x2e
 2426 0118 01       		.byte	0x1
 2427 0119 03       		.uleb128 0x3
 2428 011a 0E       		.uleb128 0xe
 2429 011b 3A       		.uleb128 0x3a
 2430 011c 0B       		.uleb128 0xb
 2431 011d 3B       		.uleb128 0x3b
 2432 011e 0B       		.uleb128 0xb
 2433 011f 27       		.uleb128 0x27
 2434 0120 0C       		.uleb128 0xc
 2435 0121 11       		.uleb128 0x11
 2436 0122 01       		.uleb128 0x1
 2437 0123 12       		.uleb128 0x12
 2438 0124 01       		.uleb128 0x1
 2439 0125 40       		.uleb128 0x40
 2440 0126 06       		.uleb128 0x6
 2441 0127 01       		.uleb128 0x1
 2442 0128 13       		.uleb128 0x13
 2443 0129 00       		.byte	0
 2444 012a 00       		.byte	0
 2445 012b 18       		.uleb128 0x18
 2446 012c 34       		.uleb128 0x34
 2447 012d 00       		.byte	0
 2448 012e 03       		.uleb128 0x3
 2449 012f 08       		.uleb128 0x8
 2450 0130 3A       		.uleb128 0x3a
 2451 0131 0B       		.uleb128 0xb
 2452 0132 3B       		.uleb128 0x3b
 2453 0133 0B       		.uleb128 0xb
 2454 0134 49       		.uleb128 0x49
 2455 0135 13       		.uleb128 0x13
 2456 0136 02       		.uleb128 0x2
 2457 0137 0A       		.uleb128 0xa
 2458 0138 00       		.byte	0
 2459 0139 00       		.byte	0
 2460 013a 19       		.uleb128 0x19
 2461 013b 2E       		.uleb128 0x2e
 2462 013c 01       		.byte	0x1
 2463 013d 03       		.uleb128 0x3
 2464 013e 0E       		.uleb128 0xe
 2465 013f 3A       		.uleb128 0x3a
 2466 0140 0B       		.uleb128 0xb
 2467 0141 3B       		.uleb128 0x3b
 2468 0142 0B       		.uleb128 0xb
 2469 0143 27       		.uleb128 0x27
 2470 0144 0C       		.uleb128 0xc
 2471 0145 49       		.uleb128 0x49
 2472 0146 13       		.uleb128 0x13
 2473 0147 11       		.uleb128 0x11
 2474 0148 01       		.uleb128 0x1
 2475 0149 12       		.uleb128 0x12
 2476 014a 01       		.uleb128 0x1
 2477 014b 40       		.uleb128 0x40
 2478 014c 06       		.uleb128 0x6
ARM GAS  C:\Users\z80\AppData\Local\Temp\ccIWjNPe.s 			page 45


 2479 014d 01       		.uleb128 0x1
 2480 014e 13       		.uleb128 0x13
 2481 014f 00       		.byte	0
 2482 0150 00       		.byte	0
 2483 0151 1A       		.uleb128 0x1a
 2484 0152 34       		.uleb128 0x34
 2485 0153 00       		.byte	0
 2486 0154 03       		.uleb128 0x3
 2487 0155 0E       		.uleb128 0xe
 2488 0156 3A       		.uleb128 0x3a
 2489 0157 0B       		.uleb128 0xb
 2490 0158 3B       		.uleb128 0x3b
 2491 0159 0B       		.uleb128 0xb
 2492 015a 49       		.uleb128 0x49
 2493 015b 13       		.uleb128 0x13
 2494 015c 02       		.uleb128 0x2
 2495 015d 0A       		.uleb128 0xa
 2496 015e 00       		.byte	0
 2497 015f 00       		.byte	0
 2498 0160 1B       		.uleb128 0x1b
 2499 0161 2E       		.uleb128 0x2e
 2500 0162 00       		.byte	0
 2501 0163 03       		.uleb128 0x3
 2502 0164 0E       		.uleb128 0xe
 2503 0165 3A       		.uleb128 0x3a
 2504 0166 0B       		.uleb128 0xb
 2505 0167 3B       		.uleb128 0x3b
 2506 0168 05       		.uleb128 0x5
 2507 0169 27       		.uleb128 0x27
 2508 016a 0C       		.uleb128 0xc
 2509 016b 11       		.uleb128 0x11
 2510 016c 01       		.uleb128 0x1
 2511 016d 12       		.uleb128 0x12
 2512 016e 01       		.uleb128 0x1
 2513 016f 40       		.uleb128 0x40
 2514 0170 06       		.uleb128 0x6
 2515 0171 00       		.byte	0
 2516 0172 00       		.byte	0
 2517 0173 1C       		.uleb128 0x1c
 2518 0174 2E       		.uleb128 0x2e
 2519 0175 01       		.byte	0x1
 2520 0176 03       		.uleb128 0x3
 2521 0177 0E       		.uleb128 0xe
 2522 0178 3A       		.uleb128 0x3a
 2523 0179 0B       		.uleb128 0xb
 2524 017a 3B       		.uleb128 0x3b
 2525 017b 05       		.uleb128 0x5
 2526 017c 27       		.uleb128 0x27
 2527 017d 0C       		.uleb128 0xc
 2528 017e 11       		.uleb128 0x11
 2529 017f 01       		.uleb128 0x1
 2530 0180 12       		.uleb128 0x12
 2531 0181 01       		.uleb128 0x1
 2532 0182 40       		.uleb128 0x40
 2533 0183 06       		.uleb128 0x6
 2534 0184 01       		.uleb128 0x1
 2535 0185 13       		.uleb128 0x13
ARM GAS  C:\Users\z80\AppData\Local\Temp\ccIWjNPe.s 			page 46


 2536 0186 00       		.byte	0
 2537 0187 00       		.byte	0
 2538 0188 1D       		.uleb128 0x1d
 2539 0189 34       		.uleb128 0x34
 2540 018a 00       		.byte	0
 2541 018b 03       		.uleb128 0x3
 2542 018c 08       		.uleb128 0x8
 2543 018d 3A       		.uleb128 0x3a
 2544 018e 0B       		.uleb128 0xb
 2545 018f 3B       		.uleb128 0x3b
 2546 0190 05       		.uleb128 0x5
 2547 0191 49       		.uleb128 0x49
 2548 0192 13       		.uleb128 0x13
 2549 0193 02       		.uleb128 0x2
 2550 0194 0A       		.uleb128 0xa
 2551 0195 00       		.byte	0
 2552 0196 00       		.byte	0
 2553 0197 1E       		.uleb128 0x1e
 2554 0198 01       		.uleb128 0x1
 2555 0199 01       		.byte	0x1
 2556 019a 49       		.uleb128 0x49
 2557 019b 13       		.uleb128 0x13
 2558 019c 01       		.uleb128 0x1
 2559 019d 13       		.uleb128 0x13
 2560 019e 00       		.byte	0
 2561 019f 00       		.byte	0
 2562 01a0 1F       		.uleb128 0x1f
 2563 01a1 21       		.uleb128 0x21
 2564 01a2 00       		.byte	0
 2565 01a3 49       		.uleb128 0x49
 2566 01a4 13       		.uleb128 0x13
 2567 01a5 2F       		.uleb128 0x2f
 2568 01a6 0B       		.uleb128 0xb
 2569 01a7 00       		.byte	0
 2570 01a8 00       		.byte	0
 2571 01a9 20       		.uleb128 0x20
 2572 01aa 34       		.uleb128 0x34
 2573 01ab 00       		.byte	0
 2574 01ac 03       		.uleb128 0x3
 2575 01ad 0E       		.uleb128 0xe
 2576 01ae 3A       		.uleb128 0x3a
 2577 01af 0B       		.uleb128 0xb
 2578 01b0 3B       		.uleb128 0x3b
 2579 01b1 0B       		.uleb128 0xb
 2580 01b2 49       		.uleb128 0x49
 2581 01b3 13       		.uleb128 0x13
 2582 01b4 3F       		.uleb128 0x3f
 2583 01b5 0C       		.uleb128 0xc
 2584 01b6 3C       		.uleb128 0x3c
 2585 01b7 0C       		.uleb128 0xc
 2586 01b8 00       		.byte	0
 2587 01b9 00       		.byte	0
 2588 01ba 21       		.uleb128 0x21
 2589 01bb 21       		.uleb128 0x21
 2590 01bc 00       		.byte	0
 2591 01bd 00       		.byte	0
 2592 01be 00       		.byte	0
ARM GAS  C:\Users\z80\AppData\Local\Temp\ccIWjNPe.s 			page 47


 2593 01bf 22       		.uleb128 0x22
 2594 01c0 34       		.uleb128 0x34
 2595 01c1 00       		.byte	0
 2596 01c2 03       		.uleb128 0x3
 2597 01c3 08       		.uleb128 0x8
 2598 01c4 3A       		.uleb128 0x3a
 2599 01c5 0B       		.uleb128 0xb
 2600 01c6 3B       		.uleb128 0x3b
 2601 01c7 0B       		.uleb128 0xb
 2602 01c8 49       		.uleb128 0x49
 2603 01c9 13       		.uleb128 0x13
 2604 01ca 3F       		.uleb128 0x3f
 2605 01cb 0C       		.uleb128 0xc
 2606 01cc 3C       		.uleb128 0x3c
 2607 01cd 0C       		.uleb128 0xc
 2608 01ce 00       		.byte	0
 2609 01cf 00       		.byte	0
 2610 01d0 23       		.uleb128 0x23
 2611 01d1 34       		.uleb128 0x34
 2612 01d2 00       		.byte	0
 2613 01d3 03       		.uleb128 0x3
 2614 01d4 0E       		.uleb128 0xe
 2615 01d5 3A       		.uleb128 0x3a
 2616 01d6 0B       		.uleb128 0xb
 2617 01d7 3B       		.uleb128 0x3b
 2618 01d8 0B       		.uleb128 0xb
 2619 01d9 49       		.uleb128 0x49
 2620 01da 13       		.uleb128 0x13
 2621 01db 3F       		.uleb128 0x3f
 2622 01dc 0C       		.uleb128 0xc
 2623 01dd 02       		.uleb128 0x2
 2624 01de 0A       		.uleb128 0xa
 2625 01df 00       		.byte	0
 2626 01e0 00       		.byte	0
 2627 01e1 24       		.uleb128 0x24
 2628 01e2 34       		.uleb128 0x34
 2629 01e3 00       		.byte	0
 2630 01e4 03       		.uleb128 0x3
 2631 01e5 0E       		.uleb128 0xe
 2632 01e6 3A       		.uleb128 0x3a
 2633 01e7 0B       		.uleb128 0xb
 2634 01e8 3B       		.uleb128 0x3b
 2635 01e9 05       		.uleb128 0x5
 2636 01ea 49       		.uleb128 0x49
 2637 01eb 13       		.uleb128 0x13
 2638 01ec 3F       		.uleb128 0x3f
 2639 01ed 0C       		.uleb128 0xc
 2640 01ee 02       		.uleb128 0x2
 2641 01ef 0A       		.uleb128 0xa
 2642 01f0 00       		.byte	0
 2643 01f1 00       		.byte	0
 2644 01f2 00       		.byte	0
 2645              		.section	.debug_loc,"",%progbits
 2646              	.Ldebug_loc0:
 2647              	.LLST0:
 2648 0000 00000000 		.4byte	.LFB7
 2649 0004 02000000 		.4byte	.LCFI0
ARM GAS  C:\Users\z80\AppData\Local\Temp\ccIWjNPe.s 			page 48


 2650 0008 0200     		.2byte	0x2
 2651 000a 7D       		.byte	0x7d
 2652 000b 00       		.sleb128 0
 2653 000c 02000000 		.4byte	.LCFI0
 2654 0010 0C000000 		.4byte	.LFE7
 2655 0014 0200     		.2byte	0x2
 2656 0016 7D       		.byte	0x7d
 2657 0017 08       		.sleb128 8
 2658 0018 00000000 		.4byte	0
 2659 001c 00000000 		.4byte	0
 2660              	.LLST1:
 2661 0020 00000000 		.4byte	.LFB8
 2662 0024 02000000 		.4byte	.LCFI1
 2663 0028 0200     		.2byte	0x2
 2664 002a 7D       		.byte	0x7d
 2665 002b 00       		.sleb128 0
 2666 002c 02000000 		.4byte	.LCFI1
 2667 0030 04000000 		.4byte	.LCFI2
 2668 0034 0200     		.2byte	0x2
 2669 0036 7D       		.byte	0x7d
 2670 0037 04       		.sleb128 4
 2671 0038 04000000 		.4byte	.LCFI2
 2672 003c 12000000 		.4byte	.LFE8
 2673 0040 0200     		.2byte	0x2
 2674 0042 7D       		.byte	0x7d
 2675 0043 10       		.sleb128 16
 2676 0044 00000000 		.4byte	0
 2677 0048 00000000 		.4byte	0
 2678              	.LLST2:
 2679 004c 00000000 		.4byte	.LFB9
 2680 0050 02000000 		.4byte	.LCFI3
 2681 0054 0200     		.2byte	0x2
 2682 0056 7D       		.byte	0x7d
 2683 0057 00       		.sleb128 0
 2684 0058 02000000 		.4byte	.LCFI3
 2685 005c 04000000 		.4byte	.LCFI4
 2686 0060 0200     		.2byte	0x2
 2687 0062 7D       		.byte	0x7d
 2688 0063 04       		.sleb128 4
 2689 0064 04000000 		.4byte	.LCFI4
 2690 0068 12000000 		.4byte	.LFE9
 2691 006c 0200     		.2byte	0x2
 2692 006e 7D       		.byte	0x7d
 2693 006f 10       		.sleb128 16
 2694 0070 00000000 		.4byte	0
 2695 0074 00000000 		.4byte	0
 2696              	.LLST3:
 2697 0078 00000000 		.4byte	.LFB10
 2698 007c 02000000 		.4byte	.LCFI5
 2699 0080 0200     		.2byte	0x2
 2700 0082 7D       		.byte	0x7d
 2701 0083 00       		.sleb128 0
 2702 0084 02000000 		.4byte	.LCFI5
 2703 0088 04000000 		.4byte	.LCFI6
 2704 008c 0200     		.2byte	0x2
 2705 008e 7D       		.byte	0x7d
 2706 008f 04       		.sleb128 4
ARM GAS  C:\Users\z80\AppData\Local\Temp\ccIWjNPe.s 			page 49


 2707 0090 04000000 		.4byte	.LCFI6
 2708 0094 12000000 		.4byte	.LFE10
 2709 0098 0200     		.2byte	0x2
 2710 009a 7D       		.byte	0x7d
 2711 009b 10       		.sleb128 16
 2712 009c 00000000 		.4byte	0
 2713 00a0 00000000 		.4byte	0
 2714              	.LLST4:
 2715 00a4 00000000 		.4byte	.LFB11
 2716 00a8 02000000 		.4byte	.LCFI7
 2717 00ac 0200     		.2byte	0x2
 2718 00ae 7D       		.byte	0x7d
 2719 00af 00       		.sleb128 0
 2720 00b0 02000000 		.4byte	.LCFI7
 2721 00b4 04000000 		.4byte	.LCFI8
 2722 00b8 0200     		.2byte	0x2
 2723 00ba 7D       		.byte	0x7d
 2724 00bb 04       		.sleb128 4
 2725 00bc 04000000 		.4byte	.LCFI8
 2726 00c0 04010000 		.4byte	.LFE11
 2727 00c4 0200     		.2byte	0x2
 2728 00c6 7D       		.byte	0x7d
 2729 00c7 20       		.sleb128 32
 2730 00c8 00000000 		.4byte	0
 2731 00cc 00000000 		.4byte	0
 2732              	.LLST5:
 2733 00d0 00000000 		.4byte	.LFB12
 2734 00d4 02000000 		.4byte	.LCFI9
 2735 00d8 0200     		.2byte	0x2
 2736 00da 7D       		.byte	0x7d
 2737 00db 00       		.sleb128 0
 2738 00dc 02000000 		.4byte	.LCFI9
 2739 00e0 0C000000 		.4byte	.LFE12
 2740 00e4 0200     		.2byte	0x2
 2741 00e6 7D       		.byte	0x7d
 2742 00e7 08       		.sleb128 8
 2743 00e8 00000000 		.4byte	0
 2744 00ec 00000000 		.4byte	0
 2745              	.LLST6:
 2746 00f0 00000000 		.4byte	.LFB13
 2747 00f4 02000000 		.4byte	.LCFI10
 2748 00f8 0200     		.2byte	0x2
 2749 00fa 7D       		.byte	0x7d
 2750 00fb 00       		.sleb128 0
 2751 00fc 02000000 		.4byte	.LCFI10
 2752 0100 04000000 		.4byte	.LCFI11
 2753 0104 0200     		.2byte	0x2
 2754 0106 7D       		.byte	0x7d
 2755 0107 04       		.sleb128 4
 2756 0108 04000000 		.4byte	.LCFI11
 2757 010c 22000000 		.4byte	.LFE13
 2758 0110 0200     		.2byte	0x2
 2759 0112 7D       		.byte	0x7d
 2760 0113 10       		.sleb128 16
 2761 0114 00000000 		.4byte	0
 2762 0118 00000000 		.4byte	0
 2763              	.LLST7:
ARM GAS  C:\Users\z80\AppData\Local\Temp\ccIWjNPe.s 			page 50


 2764 011c 00000000 		.4byte	.LFB14
 2765 0120 02000000 		.4byte	.LCFI12
 2766 0124 0200     		.2byte	0x2
 2767 0126 7D       		.byte	0x7d
 2768 0127 00       		.sleb128 0
 2769 0128 02000000 		.4byte	.LCFI12
 2770 012c 04000000 		.4byte	.LCFI13
 2771 0130 0200     		.2byte	0x2
 2772 0132 7D       		.byte	0x7d
 2773 0133 04       		.sleb128 4
 2774 0134 04000000 		.4byte	.LCFI13
 2775 0138 38000000 		.4byte	.LFE14
 2776 013c 0200     		.2byte	0x2
 2777 013e 7D       		.byte	0x7d
 2778 013f 10       		.sleb128 16
 2779 0140 00000000 		.4byte	0
 2780 0144 00000000 		.4byte	0
 2781              	.LLST8:
 2782 0148 00000000 		.4byte	.LFB15
 2783 014c 02000000 		.4byte	.LCFI14
 2784 0150 0200     		.2byte	0x2
 2785 0152 7D       		.byte	0x7d
 2786 0153 00       		.sleb128 0
 2787 0154 02000000 		.4byte	.LCFI14
 2788 0158 04000000 		.4byte	.LCFI15
 2789 015c 0200     		.2byte	0x2
 2790 015e 7D       		.byte	0x7d
 2791 015f 04       		.sleb128 4
 2792 0160 04000000 		.4byte	.LCFI15
 2793 0164 B8030000 		.4byte	.LFE15
 2794 0168 0200     		.2byte	0x2
 2795 016a 7D       		.byte	0x7d
 2796 016b 30       		.sleb128 48
 2797 016c 00000000 		.4byte	0
 2798 0170 00000000 		.4byte	0
 2799              	.LLST9:
 2800 0174 00000000 		.4byte	.LFB16
 2801 0178 02000000 		.4byte	.LCFI16
 2802 017c 0200     		.2byte	0x2
 2803 017e 7D       		.byte	0x7d
 2804 017f 00       		.sleb128 0
 2805 0180 02000000 		.4byte	.LCFI16
 2806 0184 0C000000 		.4byte	.LFE16
 2807 0188 0200     		.2byte	0x2
 2808 018a 7D       		.byte	0x7d
 2809 018b 08       		.sleb128 8
 2810 018c 00000000 		.4byte	0
 2811 0190 00000000 		.4byte	0
 2812              	.LLST10:
 2813 0194 00000000 		.4byte	.LFB17
 2814 0198 02000000 		.4byte	.LCFI17
 2815 019c 0200     		.2byte	0x2
 2816 019e 7D       		.byte	0x7d
 2817 019f 00       		.sleb128 0
 2818 01a0 02000000 		.4byte	.LCFI17
 2819 01a4 04000000 		.4byte	.LCFI18
 2820 01a8 0200     		.2byte	0x2
ARM GAS  C:\Users\z80\AppData\Local\Temp\ccIWjNPe.s 			page 51


 2821 01aa 7D       		.byte	0x7d
 2822 01ab 04       		.sleb128 4
 2823 01ac 04000000 		.4byte	.LCFI18
 2824 01b0 F6000000 		.4byte	.LFE17
 2825 01b4 0200     		.2byte	0x2
 2826 01b6 7D       		.byte	0x7d
 2827 01b7 10       		.sleb128 16
 2828 01b8 00000000 		.4byte	0
 2829 01bc 00000000 		.4byte	0
 2830              		.section	.debug_aranges,"",%progbits
 2831 0000 6C000000 		.4byte	0x6c
 2832 0004 0200     		.2byte	0x2
 2833 0006 00000000 		.4byte	.Ldebug_info0
 2834 000a 04       		.byte	0x4
 2835 000b 00       		.byte	0
 2836 000c 0000     		.2byte	0
 2837 000e 0000     		.2byte	0
 2838 0010 00000000 		.4byte	.LFB7
 2839 0014 0C000000 		.4byte	.LFE7-.LFB7
 2840 0018 00000000 		.4byte	.LFB8
 2841 001c 12000000 		.4byte	.LFE8-.LFB8
 2842 0020 00000000 		.4byte	.LFB9
 2843 0024 12000000 		.4byte	.LFE9-.LFB9
 2844 0028 00000000 		.4byte	.LFB10
 2845 002c 12000000 		.4byte	.LFE10-.LFB10
 2846 0030 00000000 		.4byte	.LFB11
 2847 0034 04010000 		.4byte	.LFE11-.LFB11
 2848 0038 00000000 		.4byte	.LFB12
 2849 003c 0C000000 		.4byte	.LFE12-.LFB12
 2850 0040 00000000 		.4byte	.LFB13
 2851 0044 22000000 		.4byte	.LFE13-.LFB13
 2852 0048 00000000 		.4byte	.LFB14
 2853 004c 38000000 		.4byte	.LFE14-.LFB14
 2854 0050 00000000 		.4byte	.LFB15
 2855 0054 B8030000 		.4byte	.LFE15-.LFB15
 2856 0058 00000000 		.4byte	.LFB16
 2857 005c 0C000000 		.4byte	.LFE16-.LFB16
 2858 0060 00000000 		.4byte	.LFB17
 2859 0064 F6000000 		.4byte	.LFE17-.LFB17
 2860 0068 00000000 		.4byte	0
 2861 006c 00000000 		.4byte	0
 2862              		.section	.debug_ranges,"",%progbits
 2863              	.Ldebug_ranges0:
 2864 0000 00000000 		.4byte	.LFB7
 2865 0004 0C000000 		.4byte	.LFE7
 2866 0008 00000000 		.4byte	.LFB8
 2867 000c 12000000 		.4byte	.LFE8
 2868 0010 00000000 		.4byte	.LFB9
 2869 0014 12000000 		.4byte	.LFE9
 2870 0018 00000000 		.4byte	.LFB10
 2871 001c 12000000 		.4byte	.LFE10
 2872 0020 00000000 		.4byte	.LFB11
 2873 0024 04010000 		.4byte	.LFE11
 2874 0028 00000000 		.4byte	.LFB12
 2875 002c 0C000000 		.4byte	.LFE12
 2876 0030 00000000 		.4byte	.LFB13
 2877 0034 22000000 		.4byte	.LFE13
ARM GAS  C:\Users\z80\AppData\Local\Temp\ccIWjNPe.s 			page 52


 2878 0038 00000000 		.4byte	.LFB14
 2879 003c 38000000 		.4byte	.LFE14
 2880 0040 00000000 		.4byte	.LFB15
 2881 0044 B8030000 		.4byte	.LFE15
 2882 0048 00000000 		.4byte	.LFB16
 2883 004c 0C000000 		.4byte	.LFE16
 2884 0050 00000000 		.4byte	.LFB17
 2885 0054 F6000000 		.4byte	.LFE17
 2886 0058 00000000 		.4byte	0
 2887 005c 00000000 		.4byte	0
 2888              		.section	.debug_line,"",%progbits
 2889              	.Ldebug_line0:
 2890 0000 7E020000 		.section	.debug_str,"MS",%progbits,1
 2890      02006501 
 2890      00000201 
 2890      FB0E0D00 
 2890      01010101 
 2891              	.LASF85:
 2892 0000 65767432 		.ascii	"evt2_setup\000"
 2892      5F736574 
 2892      757000
 2893              	.LASF35:
 2894 000b 705F6D73 		.ascii	"p_msg\000"
 2894      6700
 2895              	.LASF73:
 2896 0011 7264796D 		.ascii	"rdymsg\000"
 2896      736700
 2897              	.LASF11:
 2898 0018 75696E74 		.ascii	"uint64_t\000"
 2898      36345F74 
 2898      00
 2899              	.LASF93:
 2900 0021 76746C69 		.ascii	"vtlist\000"
 2900      737400
 2901              	.LASF12:
 2902 0028 6C6F6E67 		.ascii	"long long unsigned int\000"
 2902      206C6F6E 
 2902      6720756E 
 2902      7369676E 
 2902      65642069 
 2903              	.LASF74:
 2904 003f 65786974 		.ascii	"exitcode\000"
 2904      636F6465 
 2904      00
 2905              	.LASF24:
 2906 0048 705F7072 		.ascii	"p_prio\000"
 2906      696F00
 2907              	.LASF88:
 2908 004f 65767432 		.ascii	"evt2_execute\000"
 2908      5F657865 
 2908      63757465 
 2908      00
 2909              	.LASF10:
 2910 005c 6C6F6E67 		.ascii	"long long int\000"
 2910      206C6F6E 
 2910      6720696E 
 2910      7400
ARM GAS  C:\Users\z80\AppData\Local\Temp\ccIWjNPe.s 			page 53


 2911              	.LASF1:
 2912 006a 7369676E 		.ascii	"signed char\000"
 2912      65642063 
 2912      68617200 
 2913              	.LASF63:
 2914 0076 6D5F7175 		.ascii	"m_queue\000"
 2914      65756500 
 2915              	.LASF102:
 2916 007e 433A5C70 		.ascii	"C:\\projects\\digitizer.git\\firmware\\digitizer\000"
 2916      726F6A65 
 2916      6374735C 
 2916      64696769 
 2916      74697A65 
 2917              	.LASF7:
 2918 00ab 6C6F6E67 		.ascii	"long int\000"
 2918      20696E74 
 2918      00
 2919              	.LASF89:
 2920 00b4 74617267 		.ascii	"target_time\000"
 2920      65745F74 
 2920      696D6500 
 2921              	.LASF14:
 2922 00c0 74737461 		.ascii	"tstate_t\000"
 2922      74655F74 
 2922      00
 2923              	.LASF97:
 2924 00c9 74657374 		.ascii	"testevt2\000"
 2924      65767432 
 2924      00
 2925              	.LASF98:
 2926 00d2 74657374 		.ascii	"testevt3\000"
 2926      65767433 
 2926      00
 2927              	.LASF26:
 2928 00db 705F6E65 		.ascii	"p_newer\000"
 2928      77657200 
 2929              	.LASF57:
 2930 00e3 725F6E65 		.ascii	"r_newer\000"
 2930      77657200 
 2931              	.LASF41:
 2932 00eb 72656761 		.ascii	"regarm_t\000"
 2932      726D5F74 
 2932      00
 2933              	.LASF48:
 2934 00f4 76745F70 		.ascii	"vt_prev\000"
 2934      72657600 
 2935              	.LASF17:
 2936 00fc 6576656E 		.ascii	"eventid_t\000"
 2936      7469645F 
 2936      7400
 2937              	.LASF70:
 2938 0106 4576656E 		.ascii	"EventSource\000"
 2938      74536F75 
 2938      72636500 
 2939              	.LASF72:
 2940 0112 65766861 		.ascii	"evhandler_t\000"
 2940      6E646C65 
ARM GAS  C:\Users\z80\AppData\Local\Temp\ccIWjNPe.s 			page 54


 2940      725F7400 
 2941              	.LASF20:
 2942 011e 636E745F 		.ascii	"cnt_t\000"
 2942      7400
 2943              	.LASF29:
 2944 0124 705F7374 		.ascii	"p_stklimit\000"
 2944      6B6C696D 
 2944      697400
 2945              	.LASF0:
 2946 012f 756E7369 		.ascii	"unsigned int\000"
 2946      676E6564 
 2946      20696E74 
 2946      00
 2947              	.LASF47:
 2948 013c 76745F6E 		.ascii	"vt_next\000"
 2948      65787400 
 2949              	.LASF9:
 2950 0144 6C6F6E67 		.ascii	"long unsigned int\000"
 2950      20756E73 
 2950      69676E65 
 2950      6420696E 
 2950      7400
 2951              	.LASF81:
 2952 0156 74656172 		.ascii	"teardown\000"
 2952      646F776E 
 2952      00
 2953              	.LASF99:
 2954 015f 70617474 		.ascii	"patternevt\000"
 2954      65726E65 
 2954      767400
 2955              	.LASF79:
 2956 016a 6E616D65 		.ascii	"name\000"
 2956      00
 2957              	.LASF44:
 2958 016f 636F6E74 		.ascii	"context\000"
 2958      65787400 
 2959              	.LASF4:
 2960 0177 73686F72 		.ascii	"short unsigned int\000"
 2960      7420756E 
 2960      7369676E 
 2960      65642069 
 2960      6E7400
 2961              	.LASF16:
 2962 018a 6D73675F 		.ascii	"msg_t\000"
 2962      7400
 2963              	.LASF67:
 2964 0190 656C5F6E 		.ascii	"el_next\000"
 2964      65787400 
 2965              	.LASF13:
 2966 0198 746D6F64 		.ascii	"tmode_t\000"
 2966      655F7400 
 2967              	.LASF40:
 2968 01a0 54687265 		.ascii	"ThreadsList\000"
 2968      6164734C 
 2968      69737400 
 2969              	.LASF18:
 2970 01ac 6576656E 		.ascii	"eventmask_t\000"
ARM GAS  C:\Users\z80\AppData\Local\Temp\ccIWjNPe.s 			page 55


 2970      746D6173 
 2970      6B5F7400 
 2971              	.LASF62:
 2972 01b8 4D757465 		.ascii	"Mutex\000"
 2972      7800
 2973              	.LASF42:
 2974 01be 73746B61 		.ascii	"stkalign_t\000"
 2974      6C69676E 
 2974      5F7400
 2975              	.LASF49:
 2976 01c9 76745F74 		.ascii	"vt_time\000"
 2976      696D6500 
 2977              	.LASF84:
 2978 01d1 65767431 		.ascii	"evt1_setup\000"
 2978      5F736574 
 2978      757000
 2979              	.LASF50:
 2980 01dc 76745F66 		.ascii	"vt_func\000"
 2980      756E6300 
 2981              	.LASF90:
 2982 01e4 65767433 		.ascii	"evt3_setup\000"
 2982      5F736574 
 2982      757000
 2983              	.LASF27:
 2984 01ef 705F6F6C 		.ascii	"p_older\000"
 2984      64657200 
 2985              	.LASF86:
 2986 01f7 74687265 		.ascii	"thread1\000"
 2986      61643100 
 2987              	.LASF87:
 2988 01ff 74687265 		.ascii	"thread2\000"
 2988      61643200 
 2989              	.LASF56:
 2990 0207 725F6374 		.ascii	"r_ctx\000"
 2990      7800
 2991              	.LASF39:
 2992 020d 54687265 		.ascii	"ThreadsQueue\000"
 2992      61647351 
 2992      75657565 
 2992      00
 2993              	.LASF80:
 2994 021a 73657475 		.ascii	"setup\000"
 2994      7000
 2995              	.LASF60:
 2996 0220 725F6375 		.ascii	"r_current\000"
 2996      7272656E 
 2996      7400
 2997              	.LASF58:
 2998 022a 725F6F6C 		.ascii	"r_older\000"
 2998      64657200 
 2999              	.LASF69:
 3000 0232 656C5F6D 		.ascii	"el_mask\000"
 3000      61736B00 
 3001              	.LASF23:
 3002 023a 705F7072 		.ascii	"p_prev\000"
 3002      657600
 3003              	.LASF82:
ARM GAS  C:\Users\z80\AppData\Local\Temp\ccIWjNPe.s 			page 56


 3004 0241 65786563 		.ascii	"execute\000"
 3004      75746500 
 3005              	.LASF15:
 3006 0249 74707269 		.ascii	"tprio_t\000"
 3006      6F5F7400 
 3007              	.LASF6:
 3008 0251 696E7433 		.ascii	"int32_t\000"
 3008      325F7400 
 3009              	.LASF2:
 3010 0259 756E7369 		.ascii	"unsigned char\000"
 3010      676E6564 
 3010      20636861 
 3010      7200
 3011              	.LASF68:
 3012 0267 656C5F6C 		.ascii	"el_listener\000"
 3012      69737465 
 3012      6E657200 
 3013              	.LASF91:
 3014 0273 65767433 		.ascii	"evt3_execute\000"
 3014      5F657865 
 3014      63757465 
 3014      00
 3015              	.LASF37:
 3016 0280 705F6D74 		.ascii	"p_mtxlist\000"
 3016      786C6973 
 3016      7400
 3017              	.LASF3:
 3018 028a 73686F72 		.ascii	"short int\000"
 3018      7420696E 
 3018      7400
 3019              	.LASF30:
 3020 0294 705F7374 		.ascii	"p_state\000"
 3020      61746500 
 3021              	.LASF95:
 3022 029c 74687265 		.ascii	"threads\000"
 3022      61647300 
 3023              	.LASF55:
 3024 02a4 725F7072 		.ascii	"r_prio\000"
 3024      696F00
 3025              	.LASF76:
 3026 02ab 65776D61 		.ascii	"ewmask\000"
 3026      736B00
 3027              	.LASF22:
 3028 02b2 705F6E65 		.ascii	"p_next\000"
 3028      787400
 3029              	.LASF31:
 3030 02b9 705F666C 		.ascii	"p_flags\000"
 3030      61677300 
 3031              	.LASF21:
 3032 02c1 54687265 		.ascii	"Thread\000"
 3032      616400
 3033              	.LASF78:
 3034 02c8 74657374 		.ascii	"testcase\000"
 3034      63617365 
 3034      00
 3035              	.LASF36:
 3036 02d1 705F6570 		.ascii	"p_epending\000"
ARM GAS  C:\Users\z80\AppData\Local\Temp\ccIWjNPe.s 			page 57


 3036      656E6469 
 3036      6E6700
 3037              	.LASF96:
 3038 02dc 74657374 		.ascii	"testevt1\000"
 3038      65767431 
 3038      00
 3039              	.LASF92:
 3040 02e5 6576686E 		.ascii	"evhndl\000"
 3040      646C00
 3041              	.LASF8:
 3042 02ec 75696E74 		.ascii	"uint32_t\000"
 3042      33325F74 
 3042      00
 3043              	.LASF54:
 3044 02f5 725F7175 		.ascii	"r_queue\000"
 3044      65756500 
 3045              	.LASF46:
 3046 02fd 56697274 		.ascii	"VirtualTimer\000"
 3046      75616C54 
 3046      696D6572 
 3046      00
 3047              	.LASF100:
 3048 030a 474E5520 		.ascii	"GNU C 4.6.3\000"
 3048      4320342E 
 3048      362E3300 
 3049              	.LASF101:
 3050 0316 2E2E2F63 		.ascii	"../chibios_2.4.x/test/testevt.c\000"
 3050      68696269 
 3050      6F735F32 
 3050      2E342E78 
 3050      2F746573 
 3051              	.LASF77:
 3052 0336 63686172 		.ascii	"char\000"
 3052      00
 3053              	.LASF65:
 3054 033b 6D5F6E65 		.ascii	"m_next\000"
 3054      787400
 3055              	.LASF19:
 3056 0342 73797374 		.ascii	"systime_t\000"
 3056      696D655F 
 3056      7400
 3057              	.LASF38:
 3058 034c 705F7265 		.ascii	"p_realprio\000"
 3058      616C7072 
 3058      696F00
 3059              	.LASF45:
 3060 0357 76746675 		.ascii	"vtfunc_t\000"
 3060      6E635F74 
 3060      00
 3061              	.LASF32:
 3062 0360 705F7469 		.ascii	"p_time\000"
 3062      6D6500
 3063              	.LASF43:
 3064 0367 696E7463 		.ascii	"intctx\000"
 3064      747800
 3065              	.LASF34:
 3066 036e 705F6D73 		.ascii	"p_msgqueue\000"
ARM GAS  C:\Users\z80\AppData\Local\Temp\ccIWjNPe.s 			page 58


 3066      67717565 
 3066      756500
 3067              	.LASF51:
 3068 0379 76745F70 		.ascii	"vt_par\000"
 3068      617200
 3069              	.LASF71:
 3070 0380 65735F6E 		.ascii	"es_next\000"
 3070      65787400 
 3071              	.LASF61:
 3072 0388 52656164 		.ascii	"ReadyList\000"
 3072      794C6973 
 3072      7400
 3073              	.LASF94:
 3074 0392 726C6973 		.ascii	"rlist\000"
 3074      7400
 3075              	.LASF5:
 3076 0398 75696E74 		.ascii	"uint8_t\000"
 3076      385F7400 
 3077              	.LASF66:
 3078 03a0 4576656E 		.ascii	"EventListener\000"
 3078      744C6973 
 3078      74656E65 
 3078      7200
 3079              	.LASF75:
 3080 03ae 77746F62 		.ascii	"wtobjp\000"
 3080      6A7000
 3081              	.LASF28:
 3082 03b5 705F6E61 		.ascii	"p_name\000"
 3082      6D6500
 3083              	.LASF52:
 3084 03bc 76745F73 		.ascii	"vt_systime\000"
 3084      79737469 
 3084      6D6500
 3085              	.LASF53:
 3086 03c7 56544C69 		.ascii	"VTList\000"
 3086      737400
 3087              	.LASF59:
 3088 03ce 725F7072 		.ascii	"r_preempt\000"
 3088      65656D70 
 3088      7400
 3089              	.LASF64:
 3090 03d8 6D5F6F77 		.ascii	"m_owner\000"
 3090      6E657200 
 3091              	.LASF83:
 3092 03e0 65767431 		.ascii	"evt1_execute\000"
 3092      5F657865 
 3092      63757465 
 3092      00
 3093              	.LASF25:
 3094 03ed 705F6374 		.ascii	"p_ctx\000"
 3094      7800
 3095              	.LASF33:
 3096 03f3 705F7761 		.ascii	"p_waiting\000"
 3096      6974696E 
 3096      6700
 3097              		.ident	"GCC: (Sourcery CodeBench Lite 2012.03-56) 4.6.3"
ARM GAS  C:\Users\z80\AppData\Local\Temp\ccIWjNPe.s 			page 59


DEFINED SYMBOLS
                            *ABS*:00000000 testevt.c
C:\Users\z80\AppData\Local\Temp\ccIWjNPe.s:19     .data.es1:00000000 $d
C:\Users\z80\AppData\Local\Temp\ccIWjNPe.s:22     .data.es1:00000000 es1
C:\Users\z80\AppData\Local\Temp\ccIWjNPe.s:25     .data.es2:00000000 $d
C:\Users\z80\AppData\Local\Temp\ccIWjNPe.s:28     .data.es2:00000000 es2
C:\Users\z80\AppData\Local\Temp\ccIWjNPe.s:31     .text.evt1_setup:00000000 $t
C:\Users\z80\AppData\Local\Temp\ccIWjNPe.s:36     .text.evt1_setup:00000000 evt1_setup
C:\Users\z80\AppData\Local\Temp\ccIWjNPe.s:57     .text.h1:00000000 $t
C:\Users\z80\AppData\Local\Temp\ccIWjNPe.s:62     .text.h1:00000000 h1
C:\Users\z80\AppData\Local\Temp\ccIWjNPe.s:85     .text.h2:00000000 $t
C:\Users\z80\AppData\Local\Temp\ccIWjNPe.s:90     .text.h2:00000000 h2
C:\Users\z80\AppData\Local\Temp\ccIWjNPe.s:113    .text.h3:00000000 $t
C:\Users\z80\AppData\Local\Temp\ccIWjNPe.s:118    .text.h3:00000000 h3
C:\Users\z80\AppData\Local\Temp\ccIWjNPe.s:141    .rodata.evhndl:00000000 $d
C:\Users\z80\AppData\Local\Temp\ccIWjNPe.s:144    .rodata.evhndl:00000000 evhndl
C:\Users\z80\AppData\Local\Temp\ccIWjNPe.s:149    .rodata:00000000 $d
C:\Users\z80\AppData\Local\Temp\ccIWjNPe.s:150    .rodata:00000000 .LC0
C:\Users\z80\AppData\Local\Temp\ccIWjNPe.s:153    .text.evt1_execute:00000000 $t
C:\Users\z80\AppData\Local\Temp\ccIWjNPe.s:158    .text.evt1_execute:00000000 evt1_execute
C:\Users\z80\AppData\Local\Temp\ccIWjNPe.s:282    .rodata.testevt1:00000000 testevt1
C:\Users\z80\AppData\Local\Temp\ccIWjNPe.s:279    .rodata.testevt1:00000000 $d
C:\Users\z80\AppData\Local\Temp\ccIWjNPe.s:288    .text.evt2_setup:00000000 $t
C:\Users\z80\AppData\Local\Temp\ccIWjNPe.s:293    .text.evt2_setup:00000000 evt2_setup
C:\Users\z80\AppData\Local\Temp\ccIWjNPe.s:313    .text.thread1:00000000 $t
C:\Users\z80\AppData\Local\Temp\ccIWjNPe.s:318    .text.thread1:00000000 thread1
C:\Users\z80\AppData\Local\Temp\ccIWjNPe.s:349    .text.thread2:00000000 $t
C:\Users\z80\AppData\Local\Temp\ccIWjNPe.s:354    .text.thread2:00000000 thread2
C:\Users\z80\AppData\Local\Temp\ccIWjNPe.s:392    .rodata:00000028 .LC2
C:\Users\z80\AppData\Local\Temp\ccIWjNPe.s:395    .text.evt2_execute:00000000 $t
C:\Users\z80\AppData\Local\Temp\ccIWjNPe.s:400    .text.evt2_execute:00000000 evt2_execute
C:\Users\z80\AppData\Local\Temp\ccIWjNPe.s:811    .rodata.testevt2:00000000 testevt2
C:\Users\z80\AppData\Local\Temp\ccIWjNPe.s:808    .rodata.testevt2:00000000 $d
C:\Users\z80\AppData\Local\Temp\ccIWjNPe.s:817    .text.evt3_setup:00000000 $t
C:\Users\z80\AppData\Local\Temp\ccIWjNPe.s:822    .text.evt3_setup:00000000 evt3_setup
C:\Users\z80\AppData\Local\Temp\ccIWjNPe.s:842    .text.evt3_execute:00000000 $t
C:\Users\z80\AppData\Local\Temp\ccIWjNPe.s:847    .text.evt3_execute:00000000 evt3_execute
C:\Users\z80\AppData\Local\Temp\ccIWjNPe.s:982    .rodata.testevt3:00000000 testevt3
C:\Users\z80\AppData\Local\Temp\ccIWjNPe.s:979    .rodata.testevt3:00000000 $d
C:\Users\z80\AppData\Local\Temp\ccIWjNPe.s:992    .rodata.patternevt:00000000 patternevt
C:\Users\z80\AppData\Local\Temp\ccIWjNPe.s:989    .rodata.patternevt:00000000 $d
                     .debug_frame:00000010 $d

UNDEFINED SYMBOLS
chEvtClearFlags
test_emit_token
chEvtRegisterMask
_test_assert
chEvtUnregister
chEvtDispatch
_test_assert_sequence
chThdSleep
chEvtSignalFlags
chEvtBroadcastFlags
chEvtAddFlags
chEvtWaitOne
test_wait_tick
ARM GAS  C:\Users\z80\AppData\Local\Temp\ccIWjNPe.s 			page 60


vtlist
wa
rlist
chThdCreateStatic
threads
_test_assert_time_window
test_wait_threads
chEvtWaitAny
chEvtWaitAll
chEvtWaitOneTimeout
chEvtWaitAnyTimeout
chEvtWaitAllTimeout
