ARM GAS  C:\Users\z80\AppData\Local\Temp\ccxNTS1s.s 			page 1


   1              		.syntax unified
   2              		.cpu cortex-m3
   3              		.fpu softvfp
   4              		.eabi_attribute 20, 1
   5              		.eabi_attribute 21, 1
   6              		.eabi_attribute 23, 3
   7              		.eabi_attribute 24, 1
   8              		.eabi_attribute 25, 1
   9              		.eabi_attribute 26, 1
  10              		.eabi_attribute 30, 6
  11              		.eabi_attribute 34, 1
  12              		.eabi_attribute 18, 4
  13              		.thumb
  14              		.file	"test.c"
  15              		.text
  16              	.Ltext0:
  17              		.cfi_sections	.debug_frame
  18              		.section	.data.patterns,"aw",%progbits
  19              		.align	2
  20              		.type	patterns, %object
  21              		.size	patterns, 48
  22              	patterns:
  23 0000 00000000 		.word	patternthd
  24 0004 00000000 		.word	patternsem
  25 0008 00000000 		.word	patternmtx
  26 000c 00000000 		.word	patternmsg
  27 0010 00000000 		.word	patternmbox
  28 0014 00000000 		.word	patternevt
  29 0018 00000000 		.word	patternheap
  30 001c 00000000 		.word	patternpools
  31 0020 00000000 		.word	patterndyn
  32 0024 00000000 		.word	patternqueues
  33 0028 00000000 		.word	patternbmk
  34 002c 00000000 		.word	0
  35              		.section	.bss.local_fail,"aw",%nobits
  36              		.align	2
  37              		.type	local_fail, %object
  38              		.size	local_fail, 4
  39              	local_fail:
  40 0000 00000000 		.space	4
  41              		.section	.bss.global_fail,"aw",%nobits
  42              		.align	2
  43              		.type	global_fail, %object
  44              		.size	global_fail, 4
  45              	global_fail:
  46 0000 00000000 		.space	4
  47              		.section	.bss.failpoint,"aw",%nobits
  48              		.align	2
  49              		.type	failpoint, %object
  50              		.size	failpoint, 4
  51              	failpoint:
  52 0000 00000000 		.space	4
  53              		.section	.bss.tokens_buffer,"aw",%nobits
  54              		.align	2
  55              		.type	tokens_buffer, %object
  56              		.size	tokens_buffer, 16
  57              	tokens_buffer:
ARM GAS  C:\Users\z80\AppData\Local\Temp\ccxNTS1s.s 			page 2


  58 0000 00000000 		.space	16
  58      00000000 
  58      00000000 
  58      00000000 
  59              		.section	.bss.tokp,"aw",%nobits
  60              		.align	2
  61              		.type	tokp, %object
  62              		.size	tokp, 4
  63              	tokp:
  64 0000 00000000 		.space	4
  65              		.global	test
  66              		.section	.bss.test,"aw",%nobits
  67              		.align	3
  68              		.type	test, %object
  69              		.size	test, 1520
  70              	test:
  71 0000 00000000 		.space	1520
  71      00000000 
  71      00000000 
  71      00000000 
  71      00000000 
  72              		.global	threads
  73              		.section	.bss.threads,"aw",%nobits
  74              		.align	2
  75              		.type	threads, %object
  76              		.size	threads, 20
  77              	threads:
  78 0000 00000000 		.space	20
  78      00000000 
  78      00000000 
  78      00000000 
  78      00000000 
  79              		.global	wa
  80              		.section	.rodata.wa,"a",%progbits
  81              		.align	2
  82              		.type	wa, %object
  83              		.size	wa, 20
  84              	wa:
  85 0000 00000000 		.word	test
  86 0004 30010000 		.word	test+304
  87 0008 60020000 		.word	test+608
  88 000c 90030000 		.word	test+912
  89 0010 C0040000 		.word	test+1216
  90              		.section	.bss.chp,"aw",%nobits
  91              		.align	2
  92              		.type	chp, %object
  93              		.size	chp, 4
  94              	chp:
  95 0000 00000000 		.space	4
  96              		.section	.text.test_printn,"ax",%progbits
  97              		.align	2
  98              		.p2align 4,,15
  99              		.global	test_printn
 100              		.thumb
 101              		.thumb_func
 102              		.type	test_printn, %function
 103              	test_printn:
ARM GAS  C:\Users\z80\AppData\Local\Temp\ccxNTS1s.s 			page 3


 104              	.LFB62:
 105              		.file 1 "../chibios_2.4.x/test/test.c"
 106              		.loc 1 102 0
 107              		.cfi_startproc
 108              		@ args = 0, pretend = 0, frame = 32
 109              		@ frame_needed = 0, uses_anonymous_args = 0
 110 0000 10B5     		push	{r4, lr}
 111              	.LCFI0:
 112              		.cfi_def_cfa_offset 8
 113              		.cfi_offset 14, -4
 114              		.cfi_offset 4, -8
 115 0002 88B0     		sub	sp, sp, #32
 116              	.LCFI1:
 117              		.cfi_def_cfa_offset 40
 118 0004 0190     		str	r0, [sp, #4]
 119              		.loc 1 105 0
 120 0006 019B     		ldr	r3, [sp, #4]
 121 0008 002B     		cmp	r3, #0
 122 000a 12D1     		bne	.L2
 123              		.loc 1 106 0
 124 000c 40F20003 		movw	r3, #:lower16:chp
 125 0010 C0F20003 		movt	r3, #:upper16:chp
 126 0014 1B68     		ldr	r3, [r3, #0]
 127 0016 1B68     		ldr	r3, [r3, #0]
 128 0018 1C69     		ldr	r4, [r3, #16]
 129 001a 40F20003 		movw	r3, #:lower16:chp
 130 001e C0F20003 		movt	r3, #:upper16:chp
 131 0022 1B68     		ldr	r3, [r3, #0]
 132 0024 1846     		mov	r0, r3
 133 0026 4FF03001 		mov	r1, #48
 134 002a 4FF0FF32 		mov	r2, #-1
 135 002e A047     		blx	r4
 136 0030 45E0     		b	.L1
 137              	.L2:
 138              		.loc 1 108 0
 139 0032 03AB     		add	r3, sp, #12
 140 0034 0793     		str	r3, [sp, #28]
 141              		.loc 1 109 0
 142 0036 23E0     		b	.L4
 143              	.L5:
 144              		.loc 1 110 0
 145 0038 0199     		ldr	r1, [sp, #4]
 146 003a 4CF6CD43 		movw	r3, #52429
 147 003e CCF6CC43 		movt	r3, 52428
 148 0042 A3FB0123 		umull	r2, r3, r3, r1
 149 0046 4FEAD302 		lsr	r2, r3, #3
 150 004a 1346     		mov	r3, r2
 151 004c 4FEA8303 		lsl	r3, r3, #2
 152 0050 9B18     		adds	r3, r3, r2
 153 0052 4FEA4303 		lsl	r3, r3, #1
 154 0056 CA1A     		subs	r2, r1, r3
 155 0058 D3B2     		uxtb	r3, r2
 156 005a 03F13003 		add	r3, r3, #48
 157 005e DAB2     		uxtb	r2, r3
 158 0060 079B     		ldr	r3, [sp, #28]
 159 0062 1A70     		strb	r2, [r3, #0]
 160 0064 079B     		ldr	r3, [sp, #28]
ARM GAS  C:\Users\z80\AppData\Local\Temp\ccxNTS1s.s 			page 4


 161 0066 03F10103 		add	r3, r3, #1
 162 006a 0793     		str	r3, [sp, #28]
 163 006c 019A     		ldr	r2, [sp, #4]
 164 006e 4CF6CD43 		movw	r3, #52429
 165 0072 CCF6CC43 		movt	r3, 52428
 166 0076 A3FB0213 		umull	r1, r3, r3, r2
 167 007a 4FEAD303 		lsr	r3, r3, #3
 168 007e 0193     		str	r3, [sp, #4]
 169              	.L4:
 170              		.loc 1 109 0 discriminator 1
 171 0080 019B     		ldr	r3, [sp, #4]
 172 0082 002B     		cmp	r3, #0
 173 0084 D8D1     		bne	.L5
 174              		.loc 1 111 0
 175 0086 16E0     		b	.L6
 176              	.L7:
 177              		.loc 1 112 0
 178 0088 40F20003 		movw	r3, #:lower16:chp
 179 008c C0F20003 		movt	r3, #:upper16:chp
 180 0090 1B68     		ldr	r3, [r3, #0]
 181 0092 1B68     		ldr	r3, [r3, #0]
 182 0094 1C69     		ldr	r4, [r3, #16]
 183 0096 40F20003 		movw	r3, #:lower16:chp
 184 009a C0F20003 		movt	r3, #:upper16:chp
 185 009e 1A68     		ldr	r2, [r3, #0]
 186 00a0 079B     		ldr	r3, [sp, #28]
 187 00a2 03F1FF33 		add	r3, r3, #-1
 188 00a6 0793     		str	r3, [sp, #28]
 189 00a8 079B     		ldr	r3, [sp, #28]
 190 00aa 1B78     		ldrb	r3, [r3, #0]	@ zero_extendqisi2
 191 00ac 1046     		mov	r0, r2
 192 00ae 1946     		mov	r1, r3
 193 00b0 4FF0FF32 		mov	r2, #-1
 194 00b4 A047     		blx	r4
 195              	.L6:
 196              		.loc 1 111 0 discriminator 1
 197 00b6 079A     		ldr	r2, [sp, #28]
 198 00b8 03AB     		add	r3, sp, #12
 199 00ba 9A42     		cmp	r2, r3
 200 00bc E4D8     		bhi	.L7
 201              	.L1:
 202              		.loc 1 114 0
 203 00be 08B0     		add	sp, sp, #32
 204 00c0 10BD     		pop	{r4, pc}
 205              		.cfi_endproc
 206              	.LFE62:
 207              		.size	test_printn, .-test_printn
 208 00c2 00BFAFF3 		.section	.text.test_print,"ax",%progbits
 208      0080AFF3 
 208      0080AFF3 
 208      0080
 209              		.align	2
 210              		.p2align 4,,15
 211              		.global	test_print
 212              		.thumb
 213              		.thumb_func
 214              		.type	test_print, %function
ARM GAS  C:\Users\z80\AppData\Local\Temp\ccxNTS1s.s 			page 5


 215              	test_print:
 216              	.LFB63:
 217              		.loc 1 121 0
 218              		.cfi_startproc
 219              		@ args = 0, pretend = 0, frame = 8
 220              		@ frame_needed = 0, uses_anonymous_args = 0
 221 0000 10B5     		push	{r4, lr}
 222              	.LCFI2:
 223              		.cfi_def_cfa_offset 8
 224              		.cfi_offset 14, -4
 225              		.cfi_offset 4, -8
 226 0002 82B0     		sub	sp, sp, #8
 227              	.LCFI3:
 228              		.cfi_def_cfa_offset 16
 229 0004 0190     		str	r0, [sp, #4]
 230              		.loc 1 123 0
 231 0006 16E0     		b	.L9
 232              	.L10:
 233              		.loc 1 124 0
 234 0008 40F20003 		movw	r3, #:lower16:chp
 235 000c C0F20003 		movt	r3, #:upper16:chp
 236 0010 1B68     		ldr	r3, [r3, #0]
 237 0012 1B68     		ldr	r3, [r3, #0]
 238 0014 1C69     		ldr	r4, [r3, #16]
 239 0016 40F20003 		movw	r3, #:lower16:chp
 240 001a C0F20003 		movt	r3, #:upper16:chp
 241 001e 1A68     		ldr	r2, [r3, #0]
 242 0020 019B     		ldr	r3, [sp, #4]
 243 0022 1B78     		ldrb	r3, [r3, #0]	@ zero_extendqisi2
 244 0024 0199     		ldr	r1, [sp, #4]
 245 0026 01F10101 		add	r1, r1, #1
 246 002a 0191     		str	r1, [sp, #4]
 247 002c 1046     		mov	r0, r2
 248 002e 1946     		mov	r1, r3
 249 0030 4FF0FF32 		mov	r2, #-1
 250 0034 A047     		blx	r4
 251              	.L9:
 252              		.loc 1 123 0 discriminator 1
 253 0036 019B     		ldr	r3, [sp, #4]
 254 0038 1B78     		ldrb	r3, [r3, #0]	@ zero_extendqisi2
 255 003a 002B     		cmp	r3, #0
 256 003c E4D1     		bne	.L10
 257              		.loc 1 125 0
 258 003e 02B0     		add	sp, sp, #8
 259 0040 10BD     		pop	{r4, pc}
 260              		.cfi_endproc
 261              	.LFE63:
 262              		.size	test_print, .-test_print
 263 0042 00BFAFF3 		.section	.text.test_println,"ax",%progbits
 263      0080AFF3 
 263      0080AFF3 
 263      0080
 264              		.align	2
 265              		.p2align 4,,15
 266              		.global	test_println
 267              		.thumb
 268              		.thumb_func
ARM GAS  C:\Users\z80\AppData\Local\Temp\ccxNTS1s.s 			page 6


 269              		.type	test_println, %function
 270              	test_println:
 271              	.LFB64:
 272              		.loc 1 132 0
 273              		.cfi_startproc
 274              		@ args = 0, pretend = 0, frame = 8
 275              		@ frame_needed = 0, uses_anonymous_args = 0
 276 0000 10B5     		push	{r4, lr}
 277              	.LCFI4:
 278              		.cfi_def_cfa_offset 8
 279              		.cfi_offset 14, -4
 280              		.cfi_offset 4, -8
 281 0002 82B0     		sub	sp, sp, #8
 282              	.LCFI5:
 283              		.cfi_def_cfa_offset 16
 284 0004 0190     		str	r0, [sp, #4]
 285              		.loc 1 134 0
 286 0006 0198     		ldr	r0, [sp, #4]
 287 0008 FFF7FEFF 		bl	test_print
 288              		.loc 1 135 0
 289 000c 40F20003 		movw	r3, #:lower16:chp
 290 0010 C0F20003 		movt	r3, #:upper16:chp
 291 0014 1B68     		ldr	r3, [r3, #0]
 292 0016 1B68     		ldr	r3, [r3, #0]
 293 0018 1C69     		ldr	r4, [r3, #16]
 294 001a 40F20003 		movw	r3, #:lower16:chp
 295 001e C0F20003 		movt	r3, #:upper16:chp
 296 0022 1B68     		ldr	r3, [r3, #0]
 297 0024 1846     		mov	r0, r3
 298 0026 4FF00D01 		mov	r1, #13
 299 002a 4FF0FF32 		mov	r2, #-1
 300 002e A047     		blx	r4
 301              		.loc 1 136 0
 302 0030 40F20003 		movw	r3, #:lower16:chp
 303 0034 C0F20003 		movt	r3, #:upper16:chp
 304 0038 1B68     		ldr	r3, [r3, #0]
 305 003a 1B68     		ldr	r3, [r3, #0]
 306 003c 1C69     		ldr	r4, [r3, #16]
 307 003e 40F20003 		movw	r3, #:lower16:chp
 308 0042 C0F20003 		movt	r3, #:upper16:chp
 309 0046 1B68     		ldr	r3, [r3, #0]
 310 0048 1846     		mov	r0, r3
 311 004a 4FF00A01 		mov	r1, #10
 312 004e 4FF0FF32 		mov	r2, #-1
 313 0052 A047     		blx	r4
 314              		.loc 1 137 0
 315 0054 02B0     		add	sp, sp, #8
 316 0056 10BD     		pop	{r4, pc}
 317              		.cfi_endproc
 318              	.LFE64:
 319              		.size	test_println, .-test_println
 320 0058 AFF30080 		.section	.text.clear_tokens,"ax",%progbits
 320      AFF30080 
 321              		.align	2
 322              		.p2align 4,,15
 323              		.thumb
 324              		.thumb_func
ARM GAS  C:\Users\z80\AppData\Local\Temp\ccxNTS1s.s 			page 7


 325              		.type	clear_tokens, %function
 326              	clear_tokens:
 327              	.LFB65:
 328              		.loc 1 142 0
 329              		.cfi_startproc
 330              		@ args = 0, pretend = 0, frame = 0
 331              		@ frame_needed = 0, uses_anonymous_args = 0
 332              		@ link register save eliminated.
 333              		.loc 1 144 0
 334 0000 40F20003 		movw	r3, #:lower16:tokp
 335 0004 C0F20003 		movt	r3, #:upper16:tokp
 336 0008 40F20002 		movw	r2, #:lower16:tokens_buffer
 337 000c C0F20002 		movt	r2, #:upper16:tokens_buffer
 338 0010 1A60     		str	r2, [r3, #0]
 339              		.loc 1 145 0
 340 0012 7047     		bx	lr
 341              		.cfi_endproc
 342              	.LFE65:
 343              		.size	clear_tokens, .-clear_tokens
 344 0014 AFF30080 		.section	.text.print_tokens,"ax",%progbits
 344      AFF30080 
 344      AFF30080 
 345              		.align	2
 346              		.p2align 4,,15
 347              		.thumb
 348              		.thumb_func
 349              		.type	print_tokens, %function
 350              	print_tokens:
 351              	.LFB66:
 352              		.loc 1 147 0
 353              		.cfi_startproc
 354              		@ args = 0, pretend = 0, frame = 8
 355              		@ frame_needed = 0, uses_anonymous_args = 0
 356 0000 10B5     		push	{r4, lr}
 357              	.LCFI6:
 358              		.cfi_def_cfa_offset 8
 359              		.cfi_offset 14, -4
 360              		.cfi_offset 4, -8
 361 0002 82B0     		sub	sp, sp, #8
 362              	.LCFI7:
 363              		.cfi_def_cfa_offset 16
 364              		.loc 1 148 0
 365 0004 40F20003 		movw	r3, #:lower16:tokens_buffer
 366 0008 C0F20003 		movt	r3, #:upper16:tokens_buffer
 367 000c 0193     		str	r3, [sp, #4]
 368              		.loc 1 150 0
 369 000e 16E0     		b	.L14
 370              	.L15:
 371              		.loc 1 151 0
 372 0010 40F20003 		movw	r3, #:lower16:chp
 373 0014 C0F20003 		movt	r3, #:upper16:chp
 374 0018 1B68     		ldr	r3, [r3, #0]
 375 001a 1B68     		ldr	r3, [r3, #0]
 376 001c 1C69     		ldr	r4, [r3, #16]
 377 001e 40F20003 		movw	r3, #:lower16:chp
 378 0022 C0F20003 		movt	r3, #:upper16:chp
 379 0026 1A68     		ldr	r2, [r3, #0]
ARM GAS  C:\Users\z80\AppData\Local\Temp\ccxNTS1s.s 			page 8


 380 0028 019B     		ldr	r3, [sp, #4]
 381 002a 1B78     		ldrb	r3, [r3, #0]	@ zero_extendqisi2
 382 002c 0199     		ldr	r1, [sp, #4]
 383 002e 01F10101 		add	r1, r1, #1
 384 0032 0191     		str	r1, [sp, #4]
 385 0034 1046     		mov	r0, r2
 386 0036 1946     		mov	r1, r3
 387 0038 4FF0FF32 		mov	r2, #-1
 388 003c A047     		blx	r4
 389              	.L14:
 390              		.loc 1 150 0 discriminator 1
 391 003e 40F20003 		movw	r3, #:lower16:tokp
 392 0042 C0F20003 		movt	r3, #:upper16:tokp
 393 0046 1B68     		ldr	r3, [r3, #0]
 394 0048 019A     		ldr	r2, [sp, #4]
 395 004a 9A42     		cmp	r2, r3
 396 004c E0D3     		bcc	.L15
 397              		.loc 1 152 0
 398 004e 02B0     		add	sp, sp, #8
 399 0050 10BD     		pop	{r4, pc}
 400              		.cfi_endproc
 401              	.LFE66:
 402              		.size	print_tokens, .-print_tokens
 403 0052 00BFAFF3 		.section	.text.test_emit_token,"ax",%progbits
 403      0080AFF3 
 403      0080AFF3 
 403      0080
 404              		.align	2
 405              		.p2align 4,,15
 406              		.global	test_emit_token
 407              		.thumb
 408              		.thumb_func
 409              		.type	test_emit_token, %function
 410              	test_emit_token:
 411              	.LFB67:
 412              		.loc 1 159 0
 413              		.cfi_startproc
 414              		@ args = 0, pretend = 0, frame = 8
 415              		@ frame_needed = 0, uses_anonymous_args = 0
 416 0000 00B5     		push	{lr}
 417              	.LCFI8:
 418              		.cfi_def_cfa_offset 4
 419              		.cfi_offset 14, -4
 420 0002 83B0     		sub	sp, sp, #12
 421              	.LCFI9:
 422              		.cfi_def_cfa_offset 16
 423 0004 0346     		mov	r3, r0
 424 0006 8DF80730 		strb	r3, [sp, #7]
 425              	.LBB2:
 426              		.loc 1 161 0
 427 000a 4FF02003 		mov	r3, #32
 428              	@ 161 "../chibios_2.4.x/test/test.c" 1
 429 000e 83F31188 		msr     BASEPRI, r3
 430              	@ 0 "" 2
 431              		.thumb
 432              	.LBE2:
 433 0012 FFF7FEFF 		bl	dbg_check_lock
ARM GAS  C:\Users\z80\AppData\Local\Temp\ccxNTS1s.s 			page 9


 434              		.loc 1 162 0
 435 0016 40F20003 		movw	r3, #:lower16:tokp
 436 001a C0F20003 		movt	r3, #:upper16:tokp
 437 001e 1B68     		ldr	r3, [r3, #0]
 438 0020 9DF80720 		ldrb	r2, [sp, #7]
 439 0024 1A70     		strb	r2, [r3, #0]
 440 0026 03F10102 		add	r2, r3, #1
 441 002a 40F20003 		movw	r3, #:lower16:tokp
 442 002e C0F20003 		movt	r3, #:upper16:tokp
 443 0032 1A60     		str	r2, [r3, #0]
 444              		.loc 1 163 0
 445 0034 FFF7FEFF 		bl	dbg_check_unlock
 446              	.LBB3:
 447 0038 4FF00003 		mov	r3, #0
 448              	@ 163 "../chibios_2.4.x/test/test.c" 1
 449 003c 83F31188 		msr     BASEPRI, r3
 450              	@ 0 "" 2
 451              		.thumb
 452              	.LBE3:
 453              		.loc 1 164 0
 454 0040 03B0     		add	sp, sp, #12
 455 0042 00BD     		pop	{pc}
 456              		.cfi_endproc
 457              	.LFE67:
 458              		.size	test_emit_token, .-test_emit_token
 459 0044 AFF30080 		.section	.text._test_fail,"ax",%progbits
 459      AFF30080 
 459      AFF30080 
 460              		.align	2
 461              		.p2align 4,,15
 462              		.global	_test_fail
 463              		.thumb
 464              		.thumb_func
 465              		.type	_test_fail, %function
 466              	_test_fail:
 467              	.LFB68:
 468              		.loc 1 169 0
 469              		.cfi_startproc
 470              		@ args = 0, pretend = 0, frame = 8
 471              		@ frame_needed = 0, uses_anonymous_args = 0
 472              		@ link register save eliminated.
 473 0000 82B0     		sub	sp, sp, #8
 474              	.LCFI10:
 475              		.cfi_def_cfa_offset 8
 476 0002 0190     		str	r0, [sp, #4]
 477              		.loc 1 171 0
 478 0004 40F20003 		movw	r3, #:lower16:local_fail
 479 0008 C0F20003 		movt	r3, #:upper16:local_fail
 480 000c 4FF00102 		mov	r2, #1
 481 0010 1A60     		str	r2, [r3, #0]
 482              		.loc 1 172 0
 483 0012 40F20003 		movw	r3, #:lower16:global_fail
 484 0016 C0F20003 		movt	r3, #:upper16:global_fail
 485 001a 4FF00102 		mov	r2, #1
 486 001e 1A60     		str	r2, [r3, #0]
 487              		.loc 1 173 0
 488 0020 40F20003 		movw	r3, #:lower16:failpoint
ARM GAS  C:\Users\z80\AppData\Local\Temp\ccxNTS1s.s 			page 10


 489 0024 C0F20003 		movt	r3, #:upper16:failpoint
 490 0028 019A     		ldr	r2, [sp, #4]
 491 002a 1A60     		str	r2, [r3, #0]
 492              		.loc 1 174 0
 493 002c 4FF00103 		mov	r3, #1
 494              		.loc 1 175 0
 495 0030 1846     		mov	r0, r3
 496 0032 02B0     		add	sp, sp, #8
 497 0034 7047     		bx	lr
 498              		.cfi_endproc
 499              	.LFE68:
 500              		.size	_test_fail, .-_test_fail
 501 0036 00BFAFF3 		.section	.text._test_assert,"ax",%progbits
 501      0080AFF3 
 501      0080
 502              		.align	2
 503              		.p2align 4,,15
 504              		.global	_test_assert
 505              		.thumb
 506              		.thumb_func
 507              		.type	_test_assert, %function
 508              	_test_assert:
 509              	.LFB69:
 510              		.loc 1 177 0
 511              		.cfi_startproc
 512              		@ args = 0, pretend = 0, frame = 8
 513              		@ frame_needed = 0, uses_anonymous_args = 0
 514 0000 00B5     		push	{lr}
 515              	.LCFI11:
 516              		.cfi_def_cfa_offset 4
 517              		.cfi_offset 14, -4
 518 0002 83B0     		sub	sp, sp, #12
 519              	.LCFI12:
 520              		.cfi_def_cfa_offset 16
 521 0004 0190     		str	r0, [sp, #4]
 522 0006 0091     		str	r1, [sp, #0]
 523              		.loc 1 179 0
 524 0008 009B     		ldr	r3, [sp, #0]
 525 000a 002B     		cmp	r3, #0
 526 000c 04D1     		bne	.L19
 527              		.loc 1 180 0
 528 000e 0198     		ldr	r0, [sp, #4]
 529 0010 FFF7FEFF 		bl	_test_fail
 530 0014 0346     		mov	r3, r0
 531 0016 01E0     		b	.L20
 532              	.L19:
 533              		.loc 1 181 0
 534 0018 4FF00003 		mov	r3, #0
 535              	.L20:
 536              		.loc 1 182 0
 537 001c 1846     		mov	r0, r3
 538 001e 03B0     		add	sp, sp, #12
 539 0020 00BD     		pop	{pc}
 540              		.cfi_endproc
 541              	.LFE69:
 542              		.size	_test_assert, .-_test_assert
 543 0022 00BFAFF3 		.section	.text._test_assert_sequence,"ax",%progbits
ARM GAS  C:\Users\z80\AppData\Local\Temp\ccxNTS1s.s 			page 11


 543      0080AFF3 
 543      0080AFF3 
 543      0080
 544              		.align	2
 545              		.p2align 4,,15
 546              		.global	_test_assert_sequence
 547              		.thumb
 548              		.thumb_func
 549              		.type	_test_assert_sequence, %function
 550              	_test_assert_sequence:
 551              	.LFB70:
 552              		.loc 1 184 0
 553              		.cfi_startproc
 554              		@ args = 0, pretend = 0, frame = 16
 555              		@ frame_needed = 0, uses_anonymous_args = 0
 556 0000 00B5     		push	{lr}
 557              	.LCFI13:
 558              		.cfi_def_cfa_offset 4
 559              		.cfi_offset 14, -4
 560 0002 85B0     		sub	sp, sp, #20
 561              	.LCFI14:
 562              		.cfi_def_cfa_offset 24
 563 0004 0190     		str	r0, [sp, #4]
 564 0006 0091     		str	r1, [sp, #0]
 565              		.loc 1 185 0
 566 0008 40F20003 		movw	r3, #:lower16:tokens_buffer
 567 000c C0F20003 		movt	r3, #:upper16:tokens_buffer
 568 0010 0393     		str	r3, [sp, #12]
 569              		.loc 1 186 0
 570 0012 17E0     		b	.L22
 571              	.L24:
 572              		.loc 1 187 0
 573 0014 039B     		ldr	r3, [sp, #12]
 574 0016 1A78     		ldrb	r2, [r3, #0]	@ zero_extendqisi2
 575 0018 009B     		ldr	r3, [sp, #0]
 576 001a 1B78     		ldrb	r3, [r3, #0]	@ zero_extendqisi2
 577 001c 9A42     		cmp	r2, r3
 578 001e 0CBF     		ite	eq
 579 0020 0023     		moveq	r3, #0
 580 0022 0123     		movne	r3, #1
 581 0024 DBB2     		uxtb	r3, r3
 582 0026 039A     		ldr	r2, [sp, #12]
 583 0028 02F10102 		add	r2, r2, #1
 584 002c 0392     		str	r2, [sp, #12]
 585 002e 009A     		ldr	r2, [sp, #0]
 586 0030 02F10102 		add	r2, r2, #1
 587 0034 0092     		str	r2, [sp, #0]
 588 0036 002B     		cmp	r3, #0
 589 0038 04D0     		beq	.L22
 590              		.loc 1 188 0
 591 003a 0198     		ldr	r0, [sp, #4]
 592 003c FFF7FEFF 		bl	_test_fail
 593 0040 0346     		mov	r3, r0
 594 0042 14E0     		b	.L23
 595              	.L22:
 596              		.loc 1 186 0 discriminator 1
 597 0044 40F20003 		movw	r3, #:lower16:tokp
ARM GAS  C:\Users\z80\AppData\Local\Temp\ccxNTS1s.s 			page 12


 598 0048 C0F20003 		movt	r3, #:upper16:tokp
 599 004c 1B68     		ldr	r3, [r3, #0]
 600 004e 039A     		ldr	r2, [sp, #12]
 601 0050 9A42     		cmp	r2, r3
 602 0052 DFD3     		bcc	.L24
 603              		.loc 1 190 0
 604 0054 009B     		ldr	r3, [sp, #0]
 605 0056 1B78     		ldrb	r3, [r3, #0]	@ zero_extendqisi2
 606 0058 002B     		cmp	r3, #0
 607 005a 04D0     		beq	.L25
 608              		.loc 1 191 0
 609 005c 0198     		ldr	r0, [sp, #4]
 610 005e FFF7FEFF 		bl	_test_fail
 611 0062 0346     		mov	r3, r0
 612 0064 03E0     		b	.L23
 613              	.L25:
 614              		.loc 1 192 0
 615 0066 FFF7FEFF 		bl	clear_tokens
 616              		.loc 1 193 0
 617 006a 4FF00003 		mov	r3, #0
 618              	.L23:
 619              		.loc 1 194 0
 620 006e 1846     		mov	r0, r3
 621 0070 05B0     		add	sp, sp, #20
 622 0072 00BD     		pop	{pc}
 623              		.cfi_endproc
 624              	.LFE70:
 625              		.size	_test_assert_sequence, .-_test_assert_sequence
 626 0074 AFF30080 		.section	.text._test_assert_time_window,"ax",%progbits
 626      AFF30080 
 626      AFF30080 
 627              		.align	2
 628              		.p2align 4,,15
 629              		.global	_test_assert_time_window
 630              		.thumb
 631              		.thumb_func
 632              		.type	_test_assert_time_window, %function
 633              	_test_assert_time_window:
 634              	.LFB71:
 635              		.loc 1 196 0
 636              		.cfi_startproc
 637              		@ args = 0, pretend = 0, frame = 16
 638              		@ frame_needed = 0, uses_anonymous_args = 0
 639 0000 00B5     		push	{lr}
 640              	.LCFI15:
 641              		.cfi_def_cfa_offset 4
 642              		.cfi_offset 14, -4
 643 0002 85B0     		sub	sp, sp, #20
 644              	.LCFI16:
 645              		.cfi_def_cfa_offset 24
 646 0004 0390     		str	r0, [sp, #12]
 647 0006 0291     		str	r1, [sp, #8]
 648 0008 0192     		str	r2, [sp, #4]
 649              		.loc 1 198 0
 650 000a 0298     		ldr	r0, [sp, #8]
 651 000c 0199     		ldr	r1, [sp, #4]
 652 000e FFF7FEFF 		bl	chTimeIsWithin
ARM GAS  C:\Users\z80\AppData\Local\Temp\ccxNTS1s.s 			page 13


 653 0012 0346     		mov	r3, r0
 654 0014 0398     		ldr	r0, [sp, #12]
 655 0016 1946     		mov	r1, r3
 656 0018 FFF7FEFF 		bl	_test_assert
 657 001c 0346     		mov	r3, r0
 658              		.loc 1 199 0
 659 001e 1846     		mov	r0, r3
 660 0020 05B0     		add	sp, sp, #20
 661 0022 00BD     		pop	{pc}
 662              		.cfi_endproc
 663              	.LFE71:
 664              		.size	_test_assert_time_window, .-_test_assert_time_window
 665 0024 AFF30080 		.section	.text.test_terminate_threads,"ax",%progbits
 665      AFF30080 
 665      AFF30080 
 666              		.align	2
 667              		.p2align 4,,15
 668              		.global	test_terminate_threads
 669              		.thumb
 670              		.thumb_func
 671              		.type	test_terminate_threads, %function
 672              	test_terminate_threads:
 673              	.LFB72:
 674              		.loc 1 208 0
 675              		.cfi_startproc
 676              		@ args = 0, pretend = 0, frame = 8
 677              		@ frame_needed = 0, uses_anonymous_args = 0
 678 0000 00B5     		push	{lr}
 679              	.LCFI17:
 680              		.cfi_def_cfa_offset 4
 681              		.cfi_offset 14, -4
 682 0002 83B0     		sub	sp, sp, #12
 683              	.LCFI18:
 684              		.cfi_def_cfa_offset 16
 685              		.loc 1 211 0
 686 0004 4FF00003 		mov	r3, #0
 687 0008 0193     		str	r3, [sp, #4]
 688 000a 16E0     		b	.L28
 689              	.L30:
 690              		.loc 1 212 0
 691 000c 40F20003 		movw	r3, #:lower16:threads
 692 0010 C0F20003 		movt	r3, #:upper16:threads
 693 0014 019A     		ldr	r2, [sp, #4]
 694 0016 53F82230 		ldr	r3, [r3, r2, lsl #2]
 695 001a 002B     		cmp	r3, #0
 696 001c 09D0     		beq	.L29
 697              		.loc 1 213 0
 698 001e 40F20003 		movw	r3, #:lower16:threads
 699 0022 C0F20003 		movt	r3, #:upper16:threads
 700 0026 019A     		ldr	r2, [sp, #4]
 701 0028 53F82230 		ldr	r3, [r3, r2, lsl #2]
 702 002c 1846     		mov	r0, r3
 703 002e FFF7FEFF 		bl	chThdTerminate
 704              	.L29:
 705              		.loc 1 211 0
 706 0032 019B     		ldr	r3, [sp, #4]
 707 0034 03F10103 		add	r3, r3, #1
ARM GAS  C:\Users\z80\AppData\Local\Temp\ccxNTS1s.s 			page 14


 708 0038 0193     		str	r3, [sp, #4]
 709              	.L28:
 710              		.loc 1 211 0 is_stmt 0 discriminator 1
 711 003a 019B     		ldr	r3, [sp, #4]
 712 003c 042B     		cmp	r3, #4
 713 003e E5DD     		ble	.L30
 714              		.loc 1 214 0 is_stmt 1
 715 0040 03B0     		add	sp, sp, #12
 716 0042 00BD     		pop	{pc}
 717              		.cfi_endproc
 718              	.LFE72:
 719              		.size	test_terminate_threads, .-test_terminate_threads
 720 0044 AFF30080 		.section	.text.test_wait_threads,"ax",%progbits
 720      AFF30080 
 720      AFF30080 
 721              		.align	2
 722              		.p2align 4,,15
 723              		.global	test_wait_threads
 724              		.thumb
 725              		.thumb_func
 726              		.type	test_wait_threads, %function
 727              	test_wait_threads:
 728              	.LFB73:
 729              		.loc 1 219 0
 730              		.cfi_startproc
 731              		@ args = 0, pretend = 0, frame = 8
 732              		@ frame_needed = 0, uses_anonymous_args = 0
 733 0000 00B5     		push	{lr}
 734              	.LCFI19:
 735              		.cfi_def_cfa_offset 4
 736              		.cfi_offset 14, -4
 737 0002 83B0     		sub	sp, sp, #12
 738              	.LCFI20:
 739              		.cfi_def_cfa_offset 16
 740              		.loc 1 222 0
 741 0004 4FF00003 		mov	r3, #0
 742 0008 0193     		str	r3, [sp, #4]
 743 000a 1FE0     		b	.L32
 744              	.L34:
 745              		.loc 1 223 0
 746 000c 40F20003 		movw	r3, #:lower16:threads
 747 0010 C0F20003 		movt	r3, #:upper16:threads
 748 0014 019A     		ldr	r2, [sp, #4]
 749 0016 53F82230 		ldr	r3, [r3, r2, lsl #2]
 750 001a 002B     		cmp	r3, #0
 751 001c 12D0     		beq	.L33
 752              		.loc 1 224 0
 753 001e 40F20003 		movw	r3, #:lower16:threads
 754 0022 C0F20003 		movt	r3, #:upper16:threads
 755 0026 019A     		ldr	r2, [sp, #4]
 756 0028 53F82230 		ldr	r3, [r3, r2, lsl #2]
 757 002c 1846     		mov	r0, r3
 758 002e FFF7FEFF 		bl	chThdWait
 759              		.loc 1 225 0
 760 0032 40F20003 		movw	r3, #:lower16:threads
 761 0036 C0F20003 		movt	r3, #:upper16:threads
 762 003a 019A     		ldr	r2, [sp, #4]
ARM GAS  C:\Users\z80\AppData\Local\Temp\ccxNTS1s.s 			page 15


 763 003c 4FF00001 		mov	r1, #0
 764 0040 43F82210 		str	r1, [r3, r2, lsl #2]
 765              	.L33:
 766              		.loc 1 222 0
 767 0044 019B     		ldr	r3, [sp, #4]
 768 0046 03F10103 		add	r3, r3, #1
 769 004a 0193     		str	r3, [sp, #4]
 770              	.L32:
 771              		.loc 1 222 0 is_stmt 0 discriminator 1
 772 004c 019B     		ldr	r3, [sp, #4]
 773 004e 042B     		cmp	r3, #4
 774 0050 DCDD     		ble	.L34
 775              		.loc 1 227 0 is_stmt 1
 776 0052 03B0     		add	sp, sp, #12
 777 0054 00BD     		pop	{pc}
 778              		.cfi_endproc
 779              	.LFE73:
 780              		.size	test_wait_threads, .-test_wait_threads
 781 0056 00BFAFF3 		.section	.text.test_cpu_pulse,"ax",%progbits
 781      0080AFF3 
 781      0080
 782              		.align	2
 783              		.p2align 4,,15
 784              		.global	test_cpu_pulse
 785              		.thumb
 786              		.thumb_func
 787              		.type	test_cpu_pulse, %function
 788              	test_cpu_pulse:
 789              	.LFB74:
 790              		.loc 1 236 0
 791              		.cfi_startproc
 792              		@ args = 0, pretend = 0, frame = 24
 793              		@ frame_needed = 0, uses_anonymous_args = 0
 794              		@ link register save eliminated.
 795 0000 86B0     		sub	sp, sp, #24
 796              	.LCFI21:
 797              		.cfi_def_cfa_offset 24
 798 0002 0190     		str	r0, [sp, #4]
 799              		.loc 1 239 0
 800 0004 40F20003 		movw	r3, #:lower16:rlist
 801 0008 C0F20003 		movt	r3, #:upper16:rlist
 802 000c DB69     		ldr	r3, [r3, #28]
 803 000e 5B6A     		ldr	r3, [r3, #36]
 804 0010 0593     		str	r3, [sp, #20]
 805              		.loc 1 240 0
 806 0012 019B     		ldr	r3, [sp, #4]
 807 0014 4FF4FA72 		mov	r2, #500
 808 0018 02FB03F3 		mul	r3, r2, r3
 809 001c A3F5FA72 		sub	r2, r3, #500
 810 0020 44F6D353 		movw	r3, #19923
 811 0024 C1F26203 		movt	r3, 4194
 812 0028 A3FB0213 		umull	r1, r3, r3, r2
 813 002c 4FEA9312 		lsr	r2, r3, #6
 814 0030 059B     		ldr	r3, [sp, #20]
 815 0032 D318     		adds	r3, r2, r3
 816 0034 03F10103 		add	r3, r3, #1
 817 0038 0493     		str	r3, [sp, #16]
ARM GAS  C:\Users\z80\AppData\Local\Temp\ccxNTS1s.s 			page 16


 818              	.L43:
 819              		.loc 1 242 0
 820 003a 40F20003 		movw	r3, #:lower16:rlist
 821 003e C0F20003 		movt	r3, #:upper16:rlist
 822 0042 DB69     		ldr	r3, [r3, #28]
 823 0044 5B6A     		ldr	r3, [r3, #36]
 824 0046 0393     		str	r3, [sp, #12]
 825              		.loc 1 247 0
 826 0048 049A     		ldr	r2, [sp, #16]
 827 004a 059B     		ldr	r3, [sp, #20]
 828 004c 9A42     		cmp	r2, r3
 829 004e 0ED9     		bls	.L36
 830              		.loc 1 247 0 is_stmt 0 discriminator 1
 831 0050 039A     		ldr	r2, [sp, #12]
 832 0052 059B     		ldr	r3, [sp, #20]
 833 0054 9A42     		cmp	r2, r3
 834 0056 06D3     		bcc	.L37
 835              		.loc 1 247 0 discriminator 3
 836 0058 039A     		ldr	r2, [sp, #12]
 837 005a 049B     		ldr	r3, [sp, #16]
 838 005c 9A42     		cmp	r2, r3
 839 005e 02D2     		bcs	.L37
 840              		.loc 1 247 0 discriminator 1
 841 0060 4FF00103 		mov	r3, #1
 842 0064 01E0     		b	.L38
 843              	.L37:
 844              		.loc 1 247 0 discriminator 4
 845 0066 4FF00003 		mov	r3, #0
 846              	.L38:
 847              		.loc 1 247 0 discriminator 5
 848 006a DBB2     		uxtb	r3, r3
 849 006c 0DE0     		b	.L39
 850              	.L36:
 851              		.loc 1 247 0 discriminator 2
 852 006e 039A     		ldr	r2, [sp, #12]
 853 0070 059B     		ldr	r3, [sp, #20]
 854 0072 9A42     		cmp	r2, r3
 855 0074 03D2     		bcs	.L40
 856              		.loc 1 248 0 is_stmt 1
 857 0076 039A     		ldr	r2, [sp, #12]
 858 0078 049B     		ldr	r3, [sp, #16]
 859 007a 9A42     		cmp	r2, r3
 860 007c 02D2     		bcs	.L41
 861              	.L40:
 862              		.loc 1 247 0 discriminator 6
 863 007e 4FF00103 		mov	r3, #1
 864 0082 01E0     		b	.L42
 865              	.L41:
 866              		.loc 1 247 0 is_stmt 0
 867 0084 4FF00003 		mov	r3, #0
 868              	.L42:
 869              		.loc 1 247 0 discriminator 7
 870 0088 DBB2     		uxtb	r3, r3
 871              	.L39:
 872              		.loc 1 248 0 is_stmt 1
 873 008a 002B     		cmp	r3, #0
 874 008c D5D1     		bne	.L43
ARM GAS  C:\Users\z80\AppData\Local\Temp\ccxNTS1s.s 			page 17


 875              		.loc 1 249 0
 876 008e 06B0     		add	sp, sp, #24
 877 0090 7047     		bx	lr
 878              		.cfi_endproc
 879              	.LFE74:
 880              		.size	test_cpu_pulse, .-test_cpu_pulse
 881 0092 00BFAFF3 		.section	.text.test_wait_tick,"ax",%progbits
 881      0080AFF3 
 881      0080AFF3 
 881      0080
 882              		.align	2
 883              		.p2align 4,,15
 884              		.global	test_wait_tick
 885              		.thumb
 886              		.thumb_func
 887              		.type	test_wait_tick, %function
 888              	test_wait_tick:
 889              	.LFB75:
 890              		.loc 1 257 0
 891              		.cfi_startproc
 892              		@ args = 0, pretend = 0, frame = 0
 893              		@ frame_needed = 0, uses_anonymous_args = 0
 894 0000 08B5     		push	{r3, lr}
 895              	.LCFI22:
 896              		.cfi_def_cfa_offset 8
 897              		.cfi_offset 14, -4
 898              		.cfi_offset 3, -8
 899              		.loc 1 259 0
 900 0002 4FF00100 		mov	r0, #1
 901 0006 FFF7FEFF 		bl	chThdSleep
 902              		.loc 1 260 0
 903 000a 40F20003 		movw	r3, #:lower16:vtlist
 904 000e C0F20003 		movt	r3, #:upper16:vtlist
 905 0012 DB68     		ldr	r3, [r3, #12]
 906              		.loc 1 261 0
 907 0014 1846     		mov	r0, r3
 908 0016 08BD     		pop	{r3, pc}
 909              		.cfi_endproc
 910              	.LFE75:
 911              		.size	test_wait_tick, .-test_wait_tick
 912              		.global	test_timer_done
 913 0018 AFF30080 		.section	.bss.test_timer_done,"aw",%nobits
 913      AFF30080 
 914              		.align	2
 915              		.type	test_timer_done, %object
 916              		.size	test_timer_done, 4
 917              	test_timer_done:
 918 0000 00000000 		.space	4
 919              		.section	.bss.vt,"aw",%nobits
 920              		.align	2
 921              		.type	vt, %object
 922              		.size	vt, 20
 923              	vt:
 924 0000 00000000 		.space	20
 924      00000000 
 924      00000000 
 924      00000000 
ARM GAS  C:\Users\z80\AppData\Local\Temp\ccxNTS1s.s 			page 18


 924      00000000 
 925              		.section	.text.tmr,"ax",%progbits
 926              		.align	2
 927              		.p2align 4,,15
 928              		.thumb
 929              		.thumb_func
 930              		.type	tmr, %function
 931              	tmr:
 932              	.LFB76:
 933              		.loc 1 273 0
 934              		.cfi_startproc
 935              		@ args = 0, pretend = 0, frame = 8
 936              		@ frame_needed = 0, uses_anonymous_args = 0
 937              		@ link register save eliminated.
 938 0000 82B0     		sub	sp, sp, #8
 939              	.LCFI23:
 940              		.cfi_def_cfa_offset 8
 941 0002 0190     		str	r0, [sp, #4]
 942              		.loc 1 276 0
 943 0004 40F20003 		movw	r3, #:lower16:test_timer_done
 944 0008 C0F20003 		movt	r3, #:upper16:test_timer_done
 945 000c 4FF00102 		mov	r2, #1
 946 0010 1A60     		str	r2, [r3, #0]
 947              		.loc 1 277 0
 948 0012 02B0     		add	sp, sp, #8
 949 0014 7047     		bx	lr
 950              		.cfi_endproc
 951              	.LFE76:
 952              		.size	tmr, .-tmr
 953 0016 00BFAFF3 		.section	.text.test_start_timer,"ax",%progbits
 953      0080AFF3 
 953      0080
 954              		.align	2
 955              		.p2align 4,,15
 956              		.global	test_start_timer
 957              		.thumb
 958              		.thumb_func
 959              		.type	test_start_timer, %function
 960              	test_start_timer:
 961              	.LFB77:
 962              		.loc 1 284 0
 963              		.cfi_startproc
 964              		@ args = 0, pretend = 0, frame = 16
 965              		@ frame_needed = 0, uses_anonymous_args = 0
 966 0000 00B5     		push	{lr}
 967              	.LCFI24:
 968              		.cfi_def_cfa_offset 4
 969              		.cfi_offset 14, -4
 970 0002 85B0     		sub	sp, sp, #20
 971              	.LCFI25:
 972              		.cfi_def_cfa_offset 24
 973 0004 0190     		str	r0, [sp, #4]
 974              		.loc 1 286 0
 975 0006 019B     		ldr	r3, [sp, #4]
 976 0008 4FF4FA72 		mov	r2, #500
 977 000c 02FB03F3 		mul	r3, r2, r3
 978 0010 A3F5FA72 		sub	r2, r3, #500
ARM GAS  C:\Users\z80\AppData\Local\Temp\ccxNTS1s.s 			page 19


 979 0014 44F6D353 		movw	r3, #19923
 980 0018 C1F26203 		movt	r3, 4194
 981 001c A3FB0213 		umull	r1, r3, r3, r2
 982 0020 4FEA9313 		lsr	r3, r3, #6
 983 0024 03F10103 		add	r3, r3, #1
 984 0028 0393     		str	r3, [sp, #12]
 985              		.loc 1 287 0
 986 002a 40F20003 		movw	r3, #:lower16:test_timer_done
 987 002e C0F20003 		movt	r3, #:upper16:test_timer_done
 988 0032 4FF00002 		mov	r2, #0
 989 0036 1A60     		str	r2, [r3, #0]
 990              	.LBB4:
 991              		.loc 1 288 0
 992 0038 4FF02003 		mov	r3, #32
 993              	@ 288 "../chibios_2.4.x/test/test.c" 1
 994 003c 83F31188 		msr     BASEPRI, r3
 995              	@ 0 "" 2
 996              		.thumb
 997              	.LBE4:
 998 0040 FFF7FEFF 		bl	dbg_check_lock
 999              		.loc 1 289 0
 1000 0044 40F20000 		movw	r0, #:lower16:vt
 1001 0048 C0F20000 		movt	r0, #:upper16:vt
 1002 004c 0399     		ldr	r1, [sp, #12]
 1003 004e 40F20002 		movw	r2, #:lower16:tmr
 1004 0052 C0F20002 		movt	r2, #:upper16:tmr
 1005 0056 4FF00003 		mov	r3, #0
 1006 005a FFF7FEFF 		bl	chVTSetI
 1007              		.loc 1 290 0
 1008 005e FFF7FEFF 		bl	dbg_check_unlock
 1009              	.LBB5:
 1010 0062 4FF00003 		mov	r3, #0
 1011              	@ 290 "../chibios_2.4.x/test/test.c" 1
 1012 0066 83F31188 		msr     BASEPRI, r3
 1013              	@ 0 "" 2
 1014              		.thumb
 1015              	.LBE5:
 1016              		.loc 1 291 0
 1017 006a 05B0     		add	sp, sp, #20
 1018 006c 00BD     		pop	{pc}
 1019              		.cfi_endproc
 1020              	.LFE77:
 1021              		.size	test_start_timer, .-test_start_timer
 1022 006e 00BF     		.section	.text.execute_test,"ax",%progbits
 1023              		.align	2
 1024              		.p2align 4,,15
 1025              		.thumb
 1026              		.thumb_func
 1027              		.type	execute_test, %function
 1028              	execute_test:
 1029              	.LFB78:
 1030              		.loc 1 296 0
 1031              		.cfi_startproc
 1032              		@ args = 0, pretend = 0, frame = 16
 1033              		@ frame_needed = 0, uses_anonymous_args = 0
 1034 0000 00B5     		push	{lr}
 1035              	.LCFI26:
ARM GAS  C:\Users\z80\AppData\Local\Temp\ccxNTS1s.s 			page 20


 1036              		.cfi_def_cfa_offset 4
 1037              		.cfi_offset 14, -4
 1038 0002 85B0     		sub	sp, sp, #20
 1039              	.LCFI27:
 1040              		.cfi_def_cfa_offset 24
 1041 0004 0190     		str	r0, [sp, #4]
 1042              		.loc 1 300 0
 1043 0006 FFF7FEFF 		bl	clear_tokens
 1044              		.loc 1 301 0
 1045 000a 40F20003 		movw	r3, #:lower16:local_fail
 1046 000e C0F20003 		movt	r3, #:upper16:local_fail
 1047 0012 4FF00002 		mov	r2, #0
 1048 0016 1A60     		str	r2, [r3, #0]
 1049              		.loc 1 302 0
 1050 0018 4FF00003 		mov	r3, #0
 1051 001c 0393     		str	r3, [sp, #12]
 1052 001e 0CE0     		b	.L48
 1053              	.L49:
 1054              		.loc 1 303 0 discriminator 2
 1055 0020 40F20003 		movw	r3, #:lower16:threads
 1056 0024 C0F20003 		movt	r3, #:upper16:threads
 1057 0028 039A     		ldr	r2, [sp, #12]
 1058 002a 4FF00001 		mov	r1, #0
 1059 002e 43F82210 		str	r1, [r3, r2, lsl #2]
 1060              		.loc 1 302 0 discriminator 2
 1061 0032 039B     		ldr	r3, [sp, #12]
 1062 0034 03F10103 		add	r3, r3, #1
 1063 0038 0393     		str	r3, [sp, #12]
 1064              	.L48:
 1065              		.loc 1 302 0 is_stmt 0 discriminator 1
 1066 003a 039B     		ldr	r3, [sp, #12]
 1067 003c 042B     		cmp	r3, #4
 1068 003e EFDD     		ble	.L49
 1069              		.loc 1 305 0 is_stmt 1
 1070 0040 019B     		ldr	r3, [sp, #4]
 1071 0042 5B68     		ldr	r3, [r3, #4]
 1072 0044 002B     		cmp	r3, #0
 1073 0046 02D0     		beq	.L50
 1074              		.loc 1 306 0
 1075 0048 019B     		ldr	r3, [sp, #4]
 1076 004a 5B68     		ldr	r3, [r3, #4]
 1077 004c 9847     		blx	r3
 1078              	.L50:
 1079              		.loc 1 307 0
 1080 004e 019B     		ldr	r3, [sp, #4]
 1081 0050 DB68     		ldr	r3, [r3, #12]
 1082 0052 9847     		blx	r3
 1083              		.loc 1 308 0
 1084 0054 019B     		ldr	r3, [sp, #4]
 1085 0056 9B68     		ldr	r3, [r3, #8]
 1086 0058 002B     		cmp	r3, #0
 1087 005a 02D0     		beq	.L51
 1088              		.loc 1 309 0
 1089 005c 019B     		ldr	r3, [sp, #4]
 1090 005e 9B68     		ldr	r3, [r3, #8]
 1091 0060 9847     		blx	r3
 1092              	.L51:
ARM GAS  C:\Users\z80\AppData\Local\Temp\ccxNTS1s.s 			page 21


 1093              		.loc 1 311 0
 1094 0062 FFF7FEFF 		bl	test_wait_threads
 1095              		.loc 1 312 0
 1096 0066 05B0     		add	sp, sp, #20
 1097 0068 00BD     		pop	{pc}
 1098              		.cfi_endproc
 1099              	.LFE78:
 1100              		.size	execute_test, .-execute_test
 1101 006a 00BFAFF3 		.section	.text.print_line,"ax",%progbits
 1101      0080
 1102              		.align	2
 1103              		.p2align 4,,15
 1104              		.thumb
 1105              		.thumb_func
 1106              		.type	print_line, %function
 1107              	print_line:
 1108              	.LFB79:
 1109              		.loc 1 314 0
 1110              		.cfi_startproc
 1111              		@ args = 0, pretend = 0, frame = 8
 1112              		@ frame_needed = 0, uses_anonymous_args = 0
 1113 0000 10B5     		push	{r4, lr}
 1114              	.LCFI28:
 1115              		.cfi_def_cfa_offset 8
 1116              		.cfi_offset 14, -4
 1117              		.cfi_offset 4, -8
 1118 0002 82B0     		sub	sp, sp, #8
 1119              	.LCFI29:
 1120              		.cfi_def_cfa_offset 16
 1121              		.loc 1 317 0
 1122 0004 4FF00003 		mov	r3, #0
 1123 0008 0193     		str	r3, [sp, #4]
 1124 000a 15E0     		b	.L53
 1125              	.L54:
 1126              		.loc 1 318 0 discriminator 2
 1127 000c 40F20003 		movw	r3, #:lower16:chp
 1128 0010 C0F20003 		movt	r3, #:upper16:chp
 1129 0014 1B68     		ldr	r3, [r3, #0]
 1130 0016 1B68     		ldr	r3, [r3, #0]
 1131 0018 1C69     		ldr	r4, [r3, #16]
 1132 001a 40F20003 		movw	r3, #:lower16:chp
 1133 001e C0F20003 		movt	r3, #:upper16:chp
 1134 0022 1B68     		ldr	r3, [r3, #0]
 1135 0024 1846     		mov	r0, r3
 1136 0026 4FF02D01 		mov	r1, #45
 1137 002a 4FF0FF32 		mov	r2, #-1
 1138 002e A047     		blx	r4
 1139              		.loc 1 317 0 discriminator 2
 1140 0030 019B     		ldr	r3, [sp, #4]
 1141 0032 03F10103 		add	r3, r3, #1
 1142 0036 0193     		str	r3, [sp, #4]
 1143              	.L53:
 1144              		.loc 1 317 0 is_stmt 0 discriminator 1
 1145 0038 019B     		ldr	r3, [sp, #4]
 1146 003a 4B2B     		cmp	r3, #75
 1147 003c E6D9     		bls	.L54
 1148              		.loc 1 319 0 is_stmt 1
ARM GAS  C:\Users\z80\AppData\Local\Temp\ccxNTS1s.s 			page 22


 1149 003e 40F20003 		movw	r3, #:lower16:chp
 1150 0042 C0F20003 		movt	r3, #:upper16:chp
 1151 0046 1B68     		ldr	r3, [r3, #0]
 1152 0048 1B68     		ldr	r3, [r3, #0]
 1153 004a 1C69     		ldr	r4, [r3, #16]
 1154 004c 40F20003 		movw	r3, #:lower16:chp
 1155 0050 C0F20003 		movt	r3, #:upper16:chp
 1156 0054 1B68     		ldr	r3, [r3, #0]
 1157 0056 1846     		mov	r0, r3
 1158 0058 4FF00D01 		mov	r1, #13
 1159 005c 4FF0FF32 		mov	r2, #-1
 1160 0060 A047     		blx	r4
 1161              		.loc 1 320 0
 1162 0062 40F20003 		movw	r3, #:lower16:chp
 1163 0066 C0F20003 		movt	r3, #:upper16:chp
 1164 006a 1B68     		ldr	r3, [r3, #0]
 1165 006c 1B68     		ldr	r3, [r3, #0]
 1166 006e 1C69     		ldr	r4, [r3, #16]
 1167 0070 40F20003 		movw	r3, #:lower16:chp
 1168 0074 C0F20003 		movt	r3, #:upper16:chp
 1169 0078 1B68     		ldr	r3, [r3, #0]
 1170 007a 1846     		mov	r0, r3
 1171 007c 4FF00A01 		mov	r1, #10
 1172 0080 4FF0FF32 		mov	r2, #-1
 1173 0084 A047     		blx	r4
 1174              		.loc 1 321 0
 1175 0086 02B0     		add	sp, sp, #8
 1176 0088 10BD     		pop	{r4, pc}
 1177              		.cfi_endproc
 1178              	.LFE79:
 1179              		.size	print_line, .-print_line
 1180 008a 00BFAFF3 		.section	.rodata
 1180      0080
 1181              		.align	2
 1182              	.LC0:
 1183 0000 00       		.ascii	"\000"
 1184 0001 000000   		.align	2
 1185              	.LC1:
 1186 0004 2A2A2A20 		.ascii	"*** ChibiOS/RT test suite\000"
 1186      43686962 
 1186      694F532F 
 1186      52542074 
 1186      65737420 
 1187 001e 0000     		.align	2
 1188              	.LC2:
 1189 0020 2A2A2A00 		.ascii	"***\000"
 1190              		.align	2
 1191              	.LC3:
 1192 0024 2A2A2A20 		.ascii	"*** Kernel:       \000"
 1192      4B65726E 
 1192      656C3A20 
 1192      20202020 
 1192      202000
 1193 0037 00       		.align	2
 1194              	.LC4:
 1195 0038 322E342E 		.ascii	"2.4.3\000"
 1195      3300
ARM GAS  C:\Users\z80\AppData\Local\Temp\ccxNTS1s.s 			page 23


 1196 003e 0000     		.align	2
 1197              	.LC5:
 1198 0040 2A2A2A20 		.ascii	"*** Compiled:     \000"
 1198      436F6D70 
 1198      696C6564 
 1198      3A202020 
 1198      202000
 1199 0053 00       		.align	2
 1200              	.LC6:
 1201 0054 41756720 		.ascii	"Aug 18 2015 - 16:31:41\000"
 1201      31382032 
 1201      30313520 
 1201      2D203136 
 1201      3A33313A 
 1202 006b 00       		.align	2
 1203              	.LC7:
 1204 006c 2A2A2A20 		.ascii	"*** Compiler:     \000"
 1204      436F6D70 
 1204      696C6572 
 1204      3A202020 
 1204      202000
 1205 007f 00       		.align	2
 1206              	.LC8:
 1207 0080 47434320 		.ascii	"GCC 4.6.3\000"
 1207      342E362E 
 1207      3300
 1208 008a 0000     		.align	2
 1209              	.LC9:
 1210 008c 2A2A2A20 		.ascii	"*** Architecture: \000"
 1210      41726368 
 1210      69746563 
 1210      74757265 
 1210      3A2000
 1211 009f 00       		.align	2
 1212              	.LC10:
 1213 00a0 41524D76 		.ascii	"ARMv7-M\000"
 1213      372D4D00 
 1214              		.align	2
 1215              	.LC11:
 1216 00a8 2A2A2A20 		.ascii	"*** Core Variant: \000"
 1216      436F7265 
 1216      20566172 
 1216      69616E74 
 1216      3A2000
 1217 00bb 00       		.align	2
 1218              	.LC12:
 1219 00bc 436F7274 		.ascii	"Cortex-M3\000"
 1219      65782D4D 
 1219      3300
 1220 00c6 0000     		.align	2
 1221              	.LC13:
 1222 00c8 2A2A2A20 		.ascii	"*** Port Info:    \000"
 1222      506F7274 
 1222      20496E66 
 1222      6F3A2020 
 1222      202000
 1223 00db 00       		.align	2
ARM GAS  C:\Users\z80\AppData\Local\Temp\ccxNTS1s.s 			page 24


 1224              	.LC14:
 1225 00dc 41647661 		.ascii	"Advanced kernel mode\000"
 1225      6E636564 
 1225      206B6572 
 1225      6E656C20 
 1225      6D6F6465 
 1226 00f1 000000   		.align	2
 1227              	.LC15:
 1228 00f4 2A2A2A20 		.ascii	"*** Platform:     \000"
 1228      506C6174 
 1228      666F726D 
 1228      3A202020 
 1228      202000
 1229 0107 00       		.align	2
 1230              	.LC16:
 1231 0108 53544D33 		.ascii	"STM32F1 Performance Line Medium Density\000"
 1231      32463120 
 1231      50657266 
 1231      6F726D61 
 1231      6E636520 
 1232              		.align	2
 1233              	.LC17:
 1234 0130 2A2A2A20 		.ascii	"*** Test Board:   \000"
 1234      54657374 
 1234      20426F61 
 1234      72643A20 
 1234      202000
 1235 0143 00       		.align	2
 1236              	.LC18:
 1237 0144 6D792063 		.ascii	"my ctrl-board\000"
 1237      74726C2D 
 1237      626F6172 
 1237      6400
 1238 0152 0000     		.align	2
 1239              	.LC19:
 1240 0154 2D2D2D20 		.ascii	"--- Test Case \000"
 1240      54657374 
 1240      20436173 
 1240      652000
 1241 0163 00       		.align	2
 1242              	.LC20:
 1243 0164 2E00     		.ascii	".\000"
 1244 0166 0000     		.align	2
 1245              	.LC21:
 1246 0168 202800   		.ascii	" (\000"
 1247 016b 00       		.align	2
 1248              	.LC22:
 1249 016c 2900     		.ascii	")\000"
 1250 016e 0000     		.align	2
 1251              	.LC23:
 1252 0170 2D2D2D20 		.ascii	"--- Result: FAILURE (#\000"
 1252      52657375 
 1252      6C743A20 
 1252      4641494C 
 1252      55524520 
 1253 0187 00       		.align	2
 1254              	.LC24:
ARM GAS  C:\Users\z80\AppData\Local\Temp\ccxNTS1s.s 			page 25


 1255 0188 205B00   		.ascii	" [\000"
 1256 018b 00       		.align	2
 1257              	.LC25:
 1258 018c 5D2900   		.ascii	"])\000"
 1259 018f 00       		.align	2
 1260              	.LC26:
 1261 0190 2D2D2D20 		.ascii	"--- Result: SUCCESS\000"
 1261      52657375 
 1261      6C743A20 
 1261      53554343 
 1261      45535300 
 1262              		.align	2
 1263              	.LC27:
 1264 01a4 46696E61 		.ascii	"Final result: \000"
 1264      6C207265 
 1264      73756C74 
 1264      3A2000
 1265 01b3 00       		.align	2
 1266              	.LC28:
 1267 01b4 4641494C 		.ascii	"FAILURE\000"
 1267      55524500 
 1268              		.align	2
 1269              	.LC29:
 1270 01bc 53554343 		.ascii	"SUCCESS\000"
 1270      45535300 
 1271              		.section	.text.TestThread,"ax",%progbits
 1272              		.align	2
 1273              		.p2align 4,,15
 1274              		.global	TestThread
 1275              		.thumb
 1276              		.thumb_func
 1277              		.type	TestThread, %function
 1278              	TestThread:
 1279              	.LFB80:
 1280              		.loc 1 329 0
 1281              		.cfi_startproc
 1282              		@ args = 0, pretend = 0, frame = 16
 1283              		@ frame_needed = 0, uses_anonymous_args = 0
 1284 0000 00B5     		push	{lr}
 1285              	.LCFI30:
 1286              		.cfi_def_cfa_offset 4
 1287              		.cfi_offset 14, -4
 1288 0002 85B0     		sub	sp, sp, #20
 1289              	.LCFI31:
 1290              		.cfi_def_cfa_offset 24
 1291 0004 0190     		str	r0, [sp, #4]
 1292              		.loc 1 332 0
 1293 0006 40F20003 		movw	r3, #:lower16:chp
 1294 000a C0F20003 		movt	r3, #:upper16:chp
 1295 000e 019A     		ldr	r2, [sp, #4]
 1296 0010 1A60     		str	r2, [r3, #0]
 1297              		.loc 1 333 0
 1298 0012 40F20000 		movw	r0, #:lower16:.LC0
 1299 0016 C0F20000 		movt	r0, #:upper16:.LC0
 1300 001a FFF7FEFF 		bl	test_println
 1301              		.loc 1 334 0
 1302 001e 40F20000 		movw	r0, #:lower16:.LC1
ARM GAS  C:\Users\z80\AppData\Local\Temp\ccxNTS1s.s 			page 26


 1303 0022 C0F20000 		movt	r0, #:upper16:.LC1
 1304 0026 FFF7FEFF 		bl	test_println
 1305              		.loc 1 335 0
 1306 002a 40F20000 		movw	r0, #:lower16:.LC2
 1307 002e C0F20000 		movt	r0, #:upper16:.LC2
 1308 0032 FFF7FEFF 		bl	test_println
 1309              		.loc 1 336 0
 1310 0036 40F20000 		movw	r0, #:lower16:.LC3
 1311 003a C0F20000 		movt	r0, #:upper16:.LC3
 1312 003e FFF7FEFF 		bl	test_print
 1313              		.loc 1 337 0
 1314 0042 40F20000 		movw	r0, #:lower16:.LC4
 1315 0046 C0F20000 		movt	r0, #:upper16:.LC4
 1316 004a FFF7FEFF 		bl	test_println
 1317              		.loc 1 338 0
 1318 004e 40F20000 		movw	r0, #:lower16:.LC5
 1319 0052 C0F20000 		movt	r0, #:upper16:.LC5
 1320 0056 FFF7FEFF 		bl	test_print
 1321              		.loc 1 339 0
 1322 005a 40F20000 		movw	r0, #:lower16:.LC6
 1323 005e C0F20000 		movt	r0, #:upper16:.LC6
 1324 0062 FFF7FEFF 		bl	test_println
 1325              		.loc 1 341 0
 1326 0066 40F20000 		movw	r0, #:lower16:.LC7
 1327 006a C0F20000 		movt	r0, #:upper16:.LC7
 1328 006e FFF7FEFF 		bl	test_print
 1329              		.loc 1 342 0
 1330 0072 40F20000 		movw	r0, #:lower16:.LC8
 1331 0076 C0F20000 		movt	r0, #:upper16:.LC8
 1332 007a FFF7FEFF 		bl	test_println
 1333              		.loc 1 344 0
 1334 007e 40F20000 		movw	r0, #:lower16:.LC9
 1335 0082 C0F20000 		movt	r0, #:upper16:.LC9
 1336 0086 FFF7FEFF 		bl	test_print
 1337              		.loc 1 345 0
 1338 008a 40F20000 		movw	r0, #:lower16:.LC10
 1339 008e C0F20000 		movt	r0, #:upper16:.LC10
 1340 0092 FFF7FEFF 		bl	test_println
 1341              		.loc 1 347 0
 1342 0096 40F20000 		movw	r0, #:lower16:.LC11
 1343 009a C0F20000 		movt	r0, #:upper16:.LC11
 1344 009e FFF7FEFF 		bl	test_print
 1345              		.loc 1 348 0
 1346 00a2 40F20000 		movw	r0, #:lower16:.LC12
 1347 00a6 C0F20000 		movt	r0, #:upper16:.LC12
 1348 00aa FFF7FEFF 		bl	test_println
 1349              		.loc 1 351 0
 1350 00ae 40F20000 		movw	r0, #:lower16:.LC13
 1351 00b2 C0F20000 		movt	r0, #:upper16:.LC13
 1352 00b6 FFF7FEFF 		bl	test_print
 1353              		.loc 1 352 0
 1354 00ba 40F20000 		movw	r0, #:lower16:.LC14
 1355 00be C0F20000 		movt	r0, #:upper16:.LC14
 1356 00c2 FFF7FEFF 		bl	test_println
 1357              		.loc 1 355 0
 1358 00c6 40F20000 		movw	r0, #:lower16:.LC15
 1359 00ca C0F20000 		movt	r0, #:upper16:.LC15
ARM GAS  C:\Users\z80\AppData\Local\Temp\ccxNTS1s.s 			page 27


 1360 00ce FFF7FEFF 		bl	test_print
 1361              		.loc 1 356 0
 1362 00d2 40F20000 		movw	r0, #:lower16:.LC16
 1363 00d6 C0F20000 		movt	r0, #:upper16:.LC16
 1364 00da FFF7FEFF 		bl	test_println
 1365              		.loc 1 359 0
 1366 00de 40F20000 		movw	r0, #:lower16:.LC17
 1367 00e2 C0F20000 		movt	r0, #:upper16:.LC17
 1368 00e6 FFF7FEFF 		bl	test_print
 1369              		.loc 1 360 0
 1370 00ea 40F20000 		movw	r0, #:lower16:.LC18
 1371 00ee C0F20000 		movt	r0, #:upper16:.LC18
 1372 00f2 FFF7FEFF 		bl	test_println
 1373              		.loc 1 362 0
 1374 00f6 40F20000 		movw	r0, #:lower16:.LC0
 1375 00fa C0F20000 		movt	r0, #:upper16:.LC0
 1376 00fe FFF7FEFF 		bl	test_println
 1377              		.loc 1 364 0
 1378 0102 40F20003 		movw	r3, #:lower16:global_fail
 1379 0106 C0F20003 		movt	r3, #:upper16:global_fail
 1380 010a 4FF00002 		mov	r2, #0
 1381 010e 1A60     		str	r2, [r3, #0]
 1382              		.loc 1 365 0
 1383 0110 4FF00003 		mov	r3, #0
 1384 0114 0393     		str	r3, [sp, #12]
 1385              		.loc 1 366 0
 1386 0116 8DE0     		b	.L56
 1387              	.L61:
 1388              		.loc 1 367 0
 1389 0118 4FF00003 		mov	r3, #0
 1390 011c 0293     		str	r3, [sp, #8]
 1391              		.loc 1 368 0
 1392 011e 76E0     		b	.L57
 1393              	.L60:
 1394              		.loc 1 369 0
 1395 0120 FFF7FEFF 		bl	print_line
 1396              		.loc 1 370 0
 1397 0124 40F20000 		movw	r0, #:lower16:.LC19
 1398 0128 C0F20000 		movt	r0, #:upper16:.LC19
 1399 012c FFF7FEFF 		bl	test_print
 1400              		.loc 1 371 0
 1401 0130 039B     		ldr	r3, [sp, #12]
 1402 0132 03F10103 		add	r3, r3, #1
 1403 0136 1846     		mov	r0, r3
 1404 0138 FFF7FEFF 		bl	test_printn
 1405              		.loc 1 372 0
 1406 013c 40F20000 		movw	r0, #:lower16:.LC20
 1407 0140 C0F20000 		movt	r0, #:upper16:.LC20
 1408 0144 FFF7FEFF 		bl	test_print
 1409              		.loc 1 373 0
 1410 0148 029B     		ldr	r3, [sp, #8]
 1411 014a 03F10103 		add	r3, r3, #1
 1412 014e 1846     		mov	r0, r3
 1413 0150 FFF7FEFF 		bl	test_printn
 1414              		.loc 1 374 0
 1415 0154 40F20000 		movw	r0, #:lower16:.LC21
 1416 0158 C0F20000 		movt	r0, #:upper16:.LC21
ARM GAS  C:\Users\z80\AppData\Local\Temp\ccxNTS1s.s 			page 28


 1417 015c FFF7FEFF 		bl	test_print
 1418              		.loc 1 375 0
 1419 0160 40F20003 		movw	r3, #:lower16:patterns
 1420 0164 C0F20003 		movt	r3, #:upper16:patterns
 1421 0168 039A     		ldr	r2, [sp, #12]
 1422 016a 53F82220 		ldr	r2, [r3, r2, lsl #2]
 1423 016e 029B     		ldr	r3, [sp, #8]
 1424 0170 4FEA8303 		lsl	r3, r3, #2
 1425 0174 D318     		adds	r3, r2, r3
 1426 0176 1B68     		ldr	r3, [r3, #0]
 1427 0178 1B68     		ldr	r3, [r3, #0]
 1428 017a 1846     		mov	r0, r3
 1429 017c FFF7FEFF 		bl	test_print
 1430              		.loc 1 376 0
 1431 0180 40F20000 		movw	r0, #:lower16:.LC22
 1432 0184 C0F20000 		movt	r0, #:upper16:.LC22
 1433 0188 FFF7FEFF 		bl	test_println
 1434              		.loc 1 378 0
 1435 018c 4FF06400 		mov	r0, #100
 1436 0190 FFF7FEFF 		bl	chThdSleep
 1437              		.loc 1 380 0
 1438 0194 40F20003 		movw	r3, #:lower16:patterns
 1439 0198 C0F20003 		movt	r3, #:upper16:patterns
 1440 019c 039A     		ldr	r2, [sp, #12]
 1441 019e 53F82220 		ldr	r2, [r3, r2, lsl #2]
 1442 01a2 029B     		ldr	r3, [sp, #8]
 1443 01a4 4FEA8303 		lsl	r3, r3, #2
 1444 01a8 D318     		adds	r3, r2, r3
 1445 01aa 1B68     		ldr	r3, [r3, #0]
 1446 01ac 1846     		mov	r0, r3
 1447 01ae FFF7FEFF 		bl	execute_test
 1448              		.loc 1 381 0
 1449 01b2 40F20003 		movw	r3, #:lower16:local_fail
 1450 01b6 C0F20003 		movt	r3, #:upper16:local_fail
 1451 01ba 1B68     		ldr	r3, [r3, #0]
 1452 01bc 002B     		cmp	r3, #0
 1453 01be 1CD0     		beq	.L58
 1454              		.loc 1 382 0
 1455 01c0 40F20000 		movw	r0, #:lower16:.LC23
 1456 01c4 C0F20000 		movt	r0, #:upper16:.LC23
 1457 01c8 FFF7FEFF 		bl	test_print
 1458              		.loc 1 383 0
 1459 01cc 40F20003 		movw	r3, #:lower16:failpoint
 1460 01d0 C0F20003 		movt	r3, #:upper16:failpoint
 1461 01d4 1B68     		ldr	r3, [r3, #0]
 1462 01d6 1846     		mov	r0, r3
 1463 01d8 FFF7FEFF 		bl	test_printn
 1464              		.loc 1 384 0
 1465 01dc 40F20000 		movw	r0, #:lower16:.LC24
 1466 01e0 C0F20000 		movt	r0, #:upper16:.LC24
 1467 01e4 FFF7FEFF 		bl	test_print
 1468              		.loc 1 385 0
 1469 01e8 FFF7FEFF 		bl	print_tokens
 1470              		.loc 1 386 0
 1471 01ec 40F20000 		movw	r0, #:lower16:.LC25
 1472 01f0 C0F20000 		movt	r0, #:upper16:.LC25
 1473 01f4 FFF7FEFF 		bl	test_println
ARM GAS  C:\Users\z80\AppData\Local\Temp\ccxNTS1s.s 			page 29


 1474 01f8 05E0     		b	.L59
 1475              	.L58:
 1476              		.loc 1 389 0
 1477 01fa 40F20000 		movw	r0, #:lower16:.LC26
 1478 01fe C0F20000 		movt	r0, #:upper16:.LC26
 1479 0202 FFF7FEFF 		bl	test_println
 1480              	.L59:
 1481              		.loc 1 390 0
 1482 0206 029B     		ldr	r3, [sp, #8]
 1483 0208 03F10103 		add	r3, r3, #1
 1484 020c 0293     		str	r3, [sp, #8]
 1485              	.L57:
 1486              		.loc 1 368 0 discriminator 1
 1487 020e 40F20003 		movw	r3, #:lower16:patterns
 1488 0212 C0F20003 		movt	r3, #:upper16:patterns
 1489 0216 039A     		ldr	r2, [sp, #12]
 1490 0218 53F82220 		ldr	r2, [r3, r2, lsl #2]
 1491 021c 029B     		ldr	r3, [sp, #8]
 1492 021e 4FEA8303 		lsl	r3, r3, #2
 1493 0222 D318     		adds	r3, r2, r3
 1494 0224 1B68     		ldr	r3, [r3, #0]
 1495 0226 002B     		cmp	r3, #0
 1496 0228 7FF47AAF 		bne	.L60
 1497              		.loc 1 392 0
 1498 022c 039B     		ldr	r3, [sp, #12]
 1499 022e 03F10103 		add	r3, r3, #1
 1500 0232 0393     		str	r3, [sp, #12]
 1501              	.L56:
 1502              		.loc 1 366 0 discriminator 1
 1503 0234 40F20003 		movw	r3, #:lower16:patterns
 1504 0238 C0F20003 		movt	r3, #:upper16:patterns
 1505 023c 039A     		ldr	r2, [sp, #12]
 1506 023e 53F82230 		ldr	r3, [r3, r2, lsl #2]
 1507 0242 002B     		cmp	r3, #0
 1508 0244 7FF468AF 		bne	.L61
 1509              		.loc 1 394 0
 1510 0248 FFF7FEFF 		bl	print_line
 1511              		.loc 1 395 0
 1512 024c 40F20000 		movw	r0, #:lower16:.LC0
 1513 0250 C0F20000 		movt	r0, #:upper16:.LC0
 1514 0254 FFF7FEFF 		bl	test_println
 1515              		.loc 1 396 0
 1516 0258 40F20000 		movw	r0, #:lower16:.LC27
 1517 025c C0F20000 		movt	r0, #:upper16:.LC27
 1518 0260 FFF7FEFF 		bl	test_print
 1519              		.loc 1 397 0
 1520 0264 40F20003 		movw	r3, #:lower16:global_fail
 1521 0268 C0F20003 		movt	r3, #:upper16:global_fail
 1522 026c 1B68     		ldr	r3, [r3, #0]
 1523 026e 002B     		cmp	r3, #0
 1524 0270 06D0     		beq	.L62
 1525              		.loc 1 398 0
 1526 0272 40F20000 		movw	r0, #:lower16:.LC28
 1527 0276 C0F20000 		movt	r0, #:upper16:.LC28
 1528 027a FFF7FEFF 		bl	test_println
 1529 027e 05E0     		b	.L63
 1530              	.L62:
ARM GAS  C:\Users\z80\AppData\Local\Temp\ccxNTS1s.s 			page 30


 1531              		.loc 1 400 0
 1532 0280 40F20000 		movw	r0, #:lower16:.LC29
 1533 0284 C0F20000 		movt	r0, #:upper16:.LC29
 1534 0288 FFF7FEFF 		bl	test_println
 1535              	.L63:
 1536              		.loc 1 402 0
 1537 028c 40F20003 		movw	r3, #:lower16:global_fail
 1538 0290 C0F20003 		movt	r3, #:upper16:global_fail
 1539 0294 1B68     		ldr	r3, [r3, #0]
 1540              		.loc 1 403 0
 1541 0296 1846     		mov	r0, r3
 1542 0298 05B0     		add	sp, sp, #20
 1543 029a 00BD     		pop	{pc}
 1544              		.cfi_endproc
 1545              	.LFE80:
 1546              		.size	TestThread, .-TestThread
 1547 029c AFF30080 		.text
 1548              	.Letext0:
 1549              		.file 2 "c:\\programs\\codesourcery\\2011.03-56\\bin\\../lib/gcc/arm-none-eabi/4.6.3/include/stdde
 1550              		.file 3 "c:\\programs\\codesourcery\\2011.03-56\\bin\\../lib/gcc/arm-none-eabi/4.6.3/../../../../a
 1551              		.file 4 "../chibios_2.4.x/os/ports/GCC/ARMCMx/chtypes.h"
 1552              		.file 5 "../chibios_2.4.x/os/kernel/include/chlists.h"
 1553              		.file 6 "../chibios_2.4.x/os/kernel/include/chthreads.h"
 1554              		.file 7 "../chibios_2.4.x/os/ports/GCC/ARMCMx/chcore_v7m.h"
 1555              		.file 8 "../chibios_2.4.x/os/kernel/include/chvt.h"
 1556              		.file 9 "../chibios_2.4.x/os/kernel/include/chschd.h"
 1557              		.file 10 "../chibios_2.4.x/os/kernel/include/chmtx.h"
 1558              		.file 11 "../chibios_2.4.x/os/kernel/include/chioch.h"
 1559              		.file 12 "../chibios_2.4.x/test/test.h"
 1560              		.file 13 "../chibios_2.4.x/os/ports/common/ARMCMx/CMSIS/include/core_cm3.h"
 1561              		.file 14 "../chibios_2.4.x/test/testthd.h"
 1562              		.file 15 "../chibios_2.4.x/test/testsem.h"
 1563              		.file 16 "../chibios_2.4.x/test/testmtx.h"
 1564              		.file 17 "../chibios_2.4.x/test/testmsg.h"
 1565              		.file 18 "../chibios_2.4.x/test/testmbox.h"
 1566              		.file 19 "../chibios_2.4.x/test/testevt.h"
 1567              		.file 20 "../chibios_2.4.x/test/testheap.h"
 1568              		.file 21 "../chibios_2.4.x/test/testpools.h"
 1569              		.file 22 "../chibios_2.4.x/test/testdyn.h"
 1570              		.file 23 "../chibios_2.4.x/test/testqueues.h"
 1571              		.file 24 "../chibios_2.4.x/test/testbmk.h"