ARM GAS  C:\Users\z80\AppData\Local\Temp\ccqNOpvS.s 			page 1


   1              		.syntax unified
   2              		.cpu cortex-m3
   3              		.fpu softvfp
   4              		.eabi_attribute 20, 1
   5              		.eabi_attribute 21, 1
   6              		.eabi_attribute 23, 3
   7              		.eabi_attribute 24, 1
   8              		.eabi_attribute 25, 1
   9              		.eabi_attribute 26, 1
  10              		.eabi_attribute 30, 2
  11              		.eabi_attribute 34, 1
  12              		.eabi_attribute 18, 4
  13              		.thumb
  14              		.file	"testthd.c"
  15              		.text
  16              	.Ltext0:
  17              		.cfi_sections	.debug_frame
  18              		.section	.text.thd3_execute,"ax",%progbits
  19              		.align	2
  20              		.p2align 4,,15
  21              		.thumb
  22              		.thumb_func
  23              		.type	thd3_execute, %function
  24              	thd3_execute:
  25              	.LFB10:
  26              		.file 1 "../chibios_2.4.x/test/testthd.c"
  27              		.loc 1 137 0
  28              		.cfi_startproc
  29              		@ args = 0, pretend = 0, frame = 0
  30              		@ frame_needed = 0, uses_anonymous_args = 0
  31 0000 F8B5     		push	{r3, r4, r5, r6, r7, lr}
  32              	.LCFI0:
  33              		.cfi_def_cfa_offset 24
  34              		.cfi_offset 14, -4
  35              		.cfi_offset 7, -8
  36              		.cfi_offset 6, -12
  37              		.cfi_offset 5, -16
  38              		.cfi_offset 4, -20
  39              		.cfi_offset 3, -24
  40              		.loc 1 140 0
  41 0002 40F20004 		movw	r4, #:lower16:rlist
  42 0006 C0F20004 		movt	r4, #:upper16:rlist
  43 000a E069     		ldr	r0, [r4, #28]
  44 000c 8568     		ldr	r5, [r0, #8]
  45              	.LVL0:
  46              		.loc 1 141 0
  47 000e 6E1C     		adds	r6, r5, #1
  48 0010 3046     		mov	r0, r6
  49 0012 FFF7FEFF 		bl	chThdSetPriority
  50              	.LVL1:
  51              		.loc 1 142 0
  52 0016 431B     		subs	r3, r0, r5
  53 0018 5942     		rsbs	r1, r3, #0
  54 001a 41EB0301 		adc	r1, r1, r3
  55              		.loc 1 141 0
  56 001e 0746     		mov	r7, r0
  57              	.LVL2:
ARM GAS  C:\Users\z80\AppData\Local\Temp\ccqNOpvS.s 			page 2


  58              		.loc 1 142 0
  59 0020 0120     		movs	r0, #1
  60              	.LVL3:
  61 0022 FFF7FEFF 		bl	_test_assert
  62 0026 00B1     		cbz	r0, .L4
  63              	.LVL4:
  64              	.L1:
  65 0028 F8BD     		pop	{r3, r4, r5, r6, r7, pc}
  66              	.LVL5:
  67              	.L4:
  68              		.loc 1 144 0
  69 002a E269     		ldr	r2, [r4, #28]
  70 002c 0220     		movs	r0, #2
  71 002e 9368     		ldr	r3, [r2, #8]
  72 0030 F11A     		subs	r1, r6, r3
  73 0032 4A42     		rsbs	r2, r1, #0
  74 0034 42EB0101 		adc	r1, r2, r1
  75 0038 FFF7FEFF 		bl	_test_assert
  76 003c 0028     		cmp	r0, #0
  77 003e F3D1     		bne	.L1
  78              		.loc 1 146 0
  79 0040 3846     		mov	r0, r7
  80 0042 FFF7FEFF 		bl	chThdSetPriority
  81              	.LVL6:
  82              		.loc 1 147 0
  83 0046 311A     		subs	r1, r6, r0
  84 0048 4842     		rsbs	r0, r1, #0
  85              	.LVL7:
  86 004a 40EB0101 		adc	r1, r0, r1
  87 004e 0320     		movs	r0, #3
  88 0050 FFF7FEFF 		bl	_test_assert
  89 0054 0028     		cmp	r0, #0
  90 0056 E7D1     		bne	.L1
  91              		.loc 1 149 0
  92 0058 E169     		ldr	r1, [r4, #28]
  93 005a 0420     		movs	r0, #4
  94 005c 8A68     		ldr	r2, [r1, #8]
  95 005e 571B     		subs	r7, r2, r5
  96 0060 7B42     		rsbs	r3, r7, #0
  97 0062 43EB0701 		adc	r1, r3, r7
  98 0066 FFF7FEFF 		bl	_test_assert
  99 006a 0746     		mov	r7, r0
 100 006c 0028     		cmp	r0, #0
 101 006e DBD1     		bne	.L1
 102              	.LBB2:
 103              		.loc 1 154 0
 104 0070 2023     		movs	r3, #32
 105              	.LVL8:
 106              	@ 154 "../chibios_2.4.x/test/testthd.c" 1
 107 0072 83F31188 		msr     BASEPRI, r3
 108              	@ 0 "" 2
 109              	.LVL9:
 110              		.thumb
 111              	.LBE2:
 112 0076 FFF7FEFF 		bl	dbg_check_lock
 113              	.LVL10:
 114              		.loc 1 155 0
ARM GAS  C:\Users\z80\AppData\Local\Temp\ccqNOpvS.s 			page 3


 115 007a E369     		ldr	r3, [r4, #28]
 116 007c 9A68     		ldr	r2, [r3, #8]
 117 007e 911C     		adds	r1, r2, #2
 118 0080 9960     		str	r1, [r3, #8]
 119              		.loc 1 156 0
 120 0082 FFF7FEFF 		bl	dbg_check_unlock
 121              	.LBB3:
 122 0086 3B46     		mov	r3, r7
 123              	.LVL11:
 124              	@ 156 "../chibios_2.4.x/test/testthd.c" 1
 125 0088 83F31188 		msr     BASEPRI, r3
 126              	@ 0 "" 2
 127              	.LVL12:
 128              		.thumb
 129              	.LBE3:
 130              		.loc 1 157 0
 131 008c E069     		ldr	r0, [r4, #28]
 132 008e AF1C     		adds	r7, r5, #2
 133 0090 8268     		ldr	r2, [r0, #8]
 134 0092 0520     		movs	r0, #5
 135 0094 C7EB020C 		rsb	ip, r7, r2
 136 0098 DCF10003 		rsbs	r3, ip, #0
 137              	.LVL13:
 138 009c 43EB0C01 		adc	r1, r3, ip
 139 00a0 FFF7FEFF 		bl	_test_assert
 140 00a4 0028     		cmp	r0, #0
 141 00a6 BFD1     		bne	.L1
 142              		.loc 1 161 0
 143 00a8 3046     		mov	r0, r6
 144 00aa FFF7FEFF 		bl	chThdSetPriority
 145              	.LVL14:
 146              		.loc 1 162 0
 147 00ae 411B     		subs	r1, r0, r5
 148 00b0 4842     		rsbs	r0, r1, #0
 149              	.LVL15:
 150 00b2 40EB0101 		adc	r1, r0, r1
 151 00b6 0620     		movs	r0, #6
 152 00b8 FFF7FEFF 		bl	_test_assert
 153 00bc 0028     		cmp	r0, #0
 154 00be B3D1     		bne	.L1
 155              		.loc 1 164 0
 156 00c0 E369     		ldr	r3, [r4, #28]
 157 00c2 0720     		movs	r0, #7
 158 00c4 9968     		ldr	r1, [r3, #8]
 159 00c6 7A1A     		subs	r2, r7, r1
 160 00c8 5342     		rsbs	r3, r2, #0
 161 00ca 43EB0201 		adc	r1, r3, r2
 162 00ce FFF7FEFF 		bl	_test_assert
 163 00d2 0028     		cmp	r0, #0
 164 00d4 A8D1     		bne	.L1
 165              		.loc 1 166 0
 166 00d6 E269     		ldr	r2, [r4, #28]
 167 00d8 0820     		movs	r0, #8
 168 00da 536C     		ldr	r3, [r2, #68]
 169 00dc F11A     		subs	r1, r6, r3
 170 00de 4A42     		rsbs	r2, r1, #0
 171 00e0 42EB0101 		adc	r1, r2, r1
ARM GAS  C:\Users\z80\AppData\Local\Temp\ccqNOpvS.s 			page 4


 172 00e4 FFF7FEFF 		bl	_test_assert
 173 00e8 0028     		cmp	r0, #0
 174 00ea 9DD1     		bne	.L1
 175              		.loc 1 170 0
 176 00ec EF1C     		adds	r7, r5, #3
 177 00ee 3846     		mov	r0, r7
 178 00f0 FFF7FEFF 		bl	chThdSetPriority
 179              	.LVL16:
 180              		.loc 1 171 0
 181 00f4 301A     		subs	r0, r6, r0
 182              	.LVL17:
 183 00f6 D0F1000C 		rsbs	ip, r0, #0
 184 00fa 4CEB0001 		adc	r1, ip, r0
 185 00fe 0920     		movs	r0, #9
 186 0100 FFF7FEFF 		bl	_test_assert
 187 0104 0028     		cmp	r0, #0
 188 0106 8FD1     		bne	.L1
 189              		.loc 1 173 0
 190 0108 E269     		ldr	r2, [r4, #28]
 191 010a 0A20     		movs	r0, #10
 192 010c 9368     		ldr	r3, [r2, #8]
 193 010e F91A     		subs	r1, r7, r3
 194 0110 D1F1000E 		rsbs	lr, r1, #0
 195 0114 4EEB0101 		adc	r1, lr, r1
 196 0118 FFF7FEFF 		bl	_test_assert
 197 011c 0028     		cmp	r0, #0
 198 011e 83D1     		bne	.L1
 199              		.loc 1 175 0
 200 0120 E469     		ldr	r4, [r4, #28]
 201 0122 0B20     		movs	r0, #11
 202 0124 636C     		ldr	r3, [r4, #68]
 203 0126 40F20004 		movw	r4, #:lower16:rlist
 204 012a F91A     		subs	r1, r7, r3
 205 012c 4E42     		rsbs	r6, r1, #0
 206 012e 46EB0101 		adc	r1, r6, r1
 207 0132 FFF7FEFF 		bl	_test_assert
 208 0136 C0F20004 		movt	r4, #:upper16:rlist
 209 013a 0646     		mov	r6, r0
 210 013c 0028     		cmp	r0, #0
 211 013e 7FF473AF 		bne	.L1
 212              	.LBB4:
 213              		.loc 1 178 0
 214 0142 2023     		movs	r3, #32
 215              	.LVL18:
 216              	@ 178 "../chibios_2.4.x/test/testthd.c" 1
 217 0144 83F31188 		msr     BASEPRI, r3
 218              	@ 0 "" 2
 219              	.LVL19:
 220              		.thumb
 221              	.LBE4:
 222 0148 FFF7FEFF 		bl	dbg_check_lock
 223              	.LVL20:
 224              		.loc 1 179 0
 225 014c E069     		ldr	r0, [r4, #28]
 226 014e 8560     		str	r5, [r0, #8]
 227              		.loc 1 180 0
 228 0150 4564     		str	r5, [r0, #68]
ARM GAS  C:\Users\z80\AppData\Local\Temp\ccqNOpvS.s 			page 5


 229              		.loc 1 181 0
 230 0152 FFF7FEFF 		bl	dbg_check_unlock
 231              	.LBB5:
 232 0156 3346     		mov	r3, r6
 233              	@ 181 "../chibios_2.4.x/test/testthd.c" 1
 234 0158 83F31188 		msr     BASEPRI, r3
 235              	@ 0 "" 2
 236              	.LVL21:
 237              		.thumb
 238 015c 64E7     		b	.L1
 239              	.LBE5:
 240              		.cfi_endproc
 241              	.LFE10:
 242              		.size	thd3_execute, .-thd3_execute
 243 015e 00BF     		.section	.text.thd2_execute,"ax",%progbits
 244              		.align	2
 245              		.p2align 4,,15
 246              		.thumb
 247              		.thumb_func
 248              		.type	thd2_execute, %function
 249              	thd2_execute:
 250              	.LFB9:
 251              		.loc 1 105 0
 252              		.cfi_startproc
 253              		@ args = 0, pretend = 0, frame = 0
 254              		@ frame_needed = 0, uses_anonymous_args = 0
 255 0000 F0B5     		push	{r4, r5, r6, r7, lr}
 256              	.LCFI1:
 257              		.cfi_def_cfa_offset 20
 258              		.cfi_offset 14, -4
 259              		.cfi_offset 7, -8
 260              		.cfi_offset 6, -12
 261              		.cfi_offset 5, -16
 262              		.cfi_offset 4, -20
 263              		.loc 1 107 0
 264 0002 40F20007 		movw	r7, #:lower16:rlist
 265 0006 C0F20007 		movt	r7, #:upper16:rlist
 266 000a F869     		ldr	r0, [r7, #28]
 267 000c 40F20006 		movw	r6, #:lower16:wa
 268 0010 8368     		ldr	r3, [r0, #8]
 269 0012 40F20005 		movw	r5, #:lower16:thread
 270 0016 C0F20006 		movt	r6, #:upper16:wa
 271 001a C0F20005 		movt	r5, #:upper16:thread
 272 001e 40F20004 		movw	r4, #:lower16:.LC0
 273              		.loc 1 105 0
 274 0022 83B0     		sub	sp, sp, #12
 275              	.LCFI2:
 276              		.cfi_def_cfa_offset 32
 277              		.loc 1 107 0
 278 0024 1A1F     		subs	r2, r3, #4
 279 0026 7068     		ldr	r0, [r6, #4]
 280 0028 2B46     		mov	r3, r5
 281 002a C0F20004 		movt	r4, #:upper16:.LC0
 282 002e 4FF49871 		mov	r1, #304
 283 0032 0094     		str	r4, [sp, #0]
 284 0034 FFF7FEFF 		bl	chThdCreateStatic
 285              		.loc 1 108 0
ARM GAS  C:\Users\z80\AppData\Local\Temp\ccqNOpvS.s 			page 6


 286 0038 FC69     		ldr	r4, [r7, #28]
 287 003a 3168     		ldr	r1, [r6, #0]
 288 003c A268     		ldr	r2, [r4, #8]
 289              		.loc 1 107 0
 290 003e 40F20004 		movw	r4, #:lower16:threads
 291 0042 C0F20004 		movt	r4, #:upper16:threads
 292              		.loc 1 108 0
 293 0046 40F2000E 		movw	lr, #:lower16:.LC1
 294              		.loc 1 107 0
 295 004a 6060     		str	r0, [r4, #4]
 296              		.loc 1 108 0
 297 004c C0F2000E 		movt	lr, #:upper16:.LC1
 298 0050 053A     		subs	r2, r2, #5
 299 0052 2B46     		mov	r3, r5
 300 0054 0846     		mov	r0, r1
 301 0056 4FF49871 		mov	r1, #304
 302 005a CDF800E0 		str	lr, [sp, #0]
 303 005e FFF7FEFF 		bl	chThdCreateStatic
 304              		.loc 1 109 0
 305 0062 FB69     		ldr	r3, [r7, #28]
 306 0064 3169     		ldr	r1, [r6, #16]
 307 0066 9A68     		ldr	r2, [r3, #8]
 308 0068 40F2000C 		movw	ip, #:lower16:.LC2
 309              		.loc 1 108 0
 310 006c 2060     		str	r0, [r4, #0]
 311              		.loc 1 109 0
 312 006e C0F2000C 		movt	ip, #:upper16:.LC2
 313 0072 013A     		subs	r2, r2, #1
 314 0074 2B46     		mov	r3, r5
 315 0076 0846     		mov	r0, r1
 316 0078 4FF49871 		mov	r1, #304
 317 007c CDF800C0 		str	ip, [sp, #0]
 318 0080 FFF7FEFF 		bl	chThdCreateStatic
 319              		.loc 1 110 0
 320 0084 FB69     		ldr	r3, [r7, #28]
 321 0086 F168     		ldr	r1, [r6, #12]
 322 0088 9A68     		ldr	r2, [r3, #8]
 323 008a 40F2000E 		movw	lr, #:lower16:.LC3
 324              		.loc 1 109 0
 325 008e 2061     		str	r0, [r4, #16]
 326              		.loc 1 110 0
 327 0090 C0F2000E 		movt	lr, #:upper16:.LC3
 328 0094 2B46     		mov	r3, r5
 329 0096 0846     		mov	r0, r1
 330 0098 023A     		subs	r2, r2, #2
 331 009a 4FF49871 		mov	r1, #304
 332 009e CDF800E0 		str	lr, [sp, #0]
 333 00a2 FFF7FEFF 		bl	chThdCreateStatic
 334              	.LBB6:
 335              		.loc 1 112 0
 336 00a6 2023     		movs	r3, #32
 337              	.LVL22:
 338              	.LBE6:
 339              		.loc 1 110 0
 340 00a8 E060     		str	r0, [r4, #12]
 341              	.LBB7:
 342              		.loc 1 112 0
ARM GAS  C:\Users\z80\AppData\Local\Temp\ccqNOpvS.s 			page 7


 343              	@ 112 "../chibios_2.4.x/test/testthd.c" 1
 344 00aa 83F31188 		msr     BASEPRI, r3
 345              	@ 0 "" 2
 346              	.LVL23:
 347              		.thumb
 348              	.LBE7:
 349 00ae FFF7FEFF 		bl	dbg_check_lock
 350              	.LVL24:
 351              		.loc 1 113 0
 352 00b2 FB69     		ldr	r3, [r7, #28]
 353 00b4 B068     		ldr	r0, [r6, #8]
 354 00b6 9A68     		ldr	r2, [r3, #8]
 355 00b8 40F20006 		movw	r6, #:lower16:.LC4
 356 00bc 2B46     		mov	r3, r5
 357 00be 4FF49871 		mov	r1, #304
 358 00c2 033A     		subs	r2, r2, #3
 359 00c4 C0F20006 		movt	r6, #:upper16:.LC4
 360 00c8 0096     		str	r6, [sp, #0]
 361 00ca FFF7FEFF 		bl	chThdCreateI
 362 00ce A060     		str	r0, [r4, #8]
 363              		.loc 1 114 0
 364 00d0 FFF7FEFF 		bl	dbg_check_unlock
 365              	.LBB8:
 366 00d4 0023     		movs	r3, #0
 367              	.LVL25:
 368              	@ 114 "../chibios_2.4.x/test/testthd.c" 1
 369 00d6 83F31188 		msr     BASEPRI, r3
 370              	@ 0 "" 2
 371              	.LVL26:
 372              		.thumb
 373              	.LBE8:
 374              		.loc 1 115 0
 375 00da A068     		ldr	r0, [r4, #8]
 376 00dc FFF7FEFF 		bl	chThdResume
 377              	.LVL27:
 378              		.loc 1 116 0
 379 00e0 FFF7FEFF 		bl	test_wait_threads
 380              		.loc 1 117 0
 381 00e4 40F20001 		movw	r1, #:lower16:.LC5
 382 00e8 0120     		movs	r0, #1
 383 00ea C0F20001 		movt	r1, #:upper16:.LC5
 384              		.loc 1 118 0
 385 00ee 03B0     		add	sp, sp, #12
 386 00f0 BDE8F040 		pop	{r4, r5, r6, r7, lr}
 387              		.loc 1 117 0
 388 00f4 FFF7FEBF 		b	_test_assert_sequence
 389              		.cfi_endproc
 390              	.LFE9:
 391              		.size	thd2_execute, .-thd2_execute
 392 00f8 AFF30080 		.section	.text.thd1_execute,"ax",%progbits
 392      AFF30080 
 393              		.align	2
 394              		.p2align 4,,15
 395              		.thumb
 396              		.thumb_func
 397              		.type	thd1_execute, %function
 398              	thd1_execute:
ARM GAS  C:\Users\z80\AppData\Local\Temp\ccqNOpvS.s 			page 8


 399              	.LFB8:
 400              		.loc 1 77 0
 401              		.cfi_startproc
 402              		@ args = 0, pretend = 0, frame = 0
 403              		@ frame_needed = 0, uses_anonymous_args = 0
 404 0000 F0B5     		push	{r4, r5, r6, r7, lr}
 405              	.LCFI3:
 406              		.cfi_def_cfa_offset 20
 407              		.cfi_offset 14, -4
 408              		.cfi_offset 7, -8
 409              		.cfi_offset 6, -12
 410              		.cfi_offset 5, -16
 411              		.cfi_offset 4, -20
 412              		.loc 1 79 0
 413 0002 40F20007 		movw	r7, #:lower16:rlist
 414 0006 C0F20007 		movt	r7, #:upper16:rlist
 415 000a F869     		ldr	r0, [r7, #28]
 416 000c 40F20006 		movw	r6, #:lower16:wa
 417 0010 8268     		ldr	r2, [r0, #8]
 418 0012 40F20005 		movw	r5, #:lower16:thread
 419 0016 C0F20006 		movt	r6, #:upper16:wa
 420 001a C0F20005 		movt	r5, #:upper16:thread
 421 001e 40F20004 		movw	r4, #:lower16:.LC1
 422              		.loc 1 77 0
 423 0022 83B0     		sub	sp, sp, #12
 424              	.LCFI4:
 425              		.cfi_def_cfa_offset 32
 426              		.loc 1 79 0
 427 0024 053A     		subs	r2, r2, #5
 428 0026 2B46     		mov	r3, r5
 429 0028 3068     		ldr	r0, [r6, #0]
 430 002a C0F20004 		movt	r4, #:upper16:.LC1
 431 002e 4FF49871 		mov	r1, #304
 432 0032 0094     		str	r4, [sp, #0]
 433 0034 FFF7FEFF 		bl	chThdCreateStatic
 434              		.loc 1 80 0
 435 0038 FC69     		ldr	r4, [r7, #28]
 436 003a D6F804C0 		ldr	ip, [r6, #4]
 437 003e A368     		ldr	r3, [r4, #8]
 438              		.loc 1 79 0
 439 0040 40F20004 		movw	r4, #:lower16:threads
 440 0044 C0F20004 		movt	r4, #:upper16:threads
 441              		.loc 1 80 0
 442 0048 40F2000E 		movw	lr, #:lower16:.LC0
 443              		.loc 1 79 0
 444 004c 2060     		str	r0, [r4, #0]
 445              		.loc 1 80 0
 446 004e 1A1F     		subs	r2, r3, #4
 447 0050 C0F2000E 		movt	lr, #:upper16:.LC0
 448 0054 2B46     		mov	r3, r5
 449 0056 4FF49871 		mov	r1, #304
 450 005a 6046     		mov	r0, ip
 451 005c CDF800E0 		str	lr, [sp, #0]
 452 0060 FFF7FEFF 		bl	chThdCreateStatic
 453              		.loc 1 81 0
 454 0064 FA69     		ldr	r2, [r7, #28]
 455 0066 D6F808C0 		ldr	ip, [r6, #8]
ARM GAS  C:\Users\z80\AppData\Local\Temp\ccqNOpvS.s 			page 9


 456 006a 9368     		ldr	r3, [r2, #8]
 457 006c 40F2000E 		movw	lr, #:lower16:.LC4
 458              		.loc 1 80 0
 459 0070 6060     		str	r0, [r4, #4]
 460              		.loc 1 81 0
 461 0072 DA1E     		subs	r2, r3, #3
 462 0074 C0F2000E 		movt	lr, #:upper16:.LC4
 463 0078 2B46     		mov	r3, r5
 464 007a 4FF49871 		mov	r1, #304
 465 007e 6046     		mov	r0, ip
 466 0080 CDF800E0 		str	lr, [sp, #0]
 467 0084 FFF7FEFF 		bl	chThdCreateStatic
 468              		.loc 1 82 0
 469 0088 F969     		ldr	r1, [r7, #28]
 470 008a D6F80CC0 		ldr	ip, [r6, #12]
 471 008e 8A68     		ldr	r2, [r1, #8]
 472 0090 40F2000E 		movw	lr, #:lower16:.LC3
 473 0094 C0F2000E 		movt	lr, #:upper16:.LC3
 474              		.loc 1 81 0
 475 0098 A060     		str	r0, [r4, #8]
 476              		.loc 1 82 0
 477 009a 023A     		subs	r2, r2, #2
 478 009c 6046     		mov	r0, ip
 479 009e 2B46     		mov	r3, r5
 480 00a0 4FF49871 		mov	r1, #304
 481 00a4 CDF800E0 		str	lr, [sp, #0]
 482 00a8 FFF7FEFF 		bl	chThdCreateStatic
 483              		.loc 1 83 0
 484 00ac FB69     		ldr	r3, [r7, #28]
 485 00ae 3769     		ldr	r7, [r6, #16]
 486 00b0 9A68     		ldr	r2, [r3, #8]
 487 00b2 40F20006 		movw	r6, #:lower16:.LC2
 488              		.loc 1 82 0
 489 00b6 E060     		str	r0, [r4, #12]
 490              		.loc 1 83 0
 491 00b8 4FF49871 		mov	r1, #304
 492 00bc 013A     		subs	r2, r2, #1
 493 00be 2B46     		mov	r3, r5
 494 00c0 C0F20006 		movt	r6, #:upper16:.LC2
 495 00c4 3846     		mov	r0, r7
 496 00c6 0096     		str	r6, [sp, #0]
 497 00c8 FFF7FEFF 		bl	chThdCreateStatic
 498 00cc 2061     		str	r0, [r4, #16]
 499              		.loc 1 84 0
 500 00ce FFF7FEFF 		bl	test_wait_threads
 501              		.loc 1 85 0
 502 00d2 40F20001 		movw	r1, #:lower16:.LC5
 503 00d6 0120     		movs	r0, #1
 504 00d8 C0F20001 		movt	r1, #:upper16:.LC5
 505              		.loc 1 86 0
 506 00dc 03B0     		add	sp, sp, #12
 507 00de BDE8F040 		pop	{r4, r5, r6, r7, lr}
 508              		.loc 1 85 0
 509 00e2 FFF7FEBF 		b	_test_assert_sequence
 510              		.cfi_endproc
 511              	.LFE8:
 512              		.size	thd1_execute, .-thd1_execute
ARM GAS  C:\Users\z80\AppData\Local\Temp\ccqNOpvS.s 			page 10


 513 00e6 00BFAFF3 		.section	.text.thread,"ax",%progbits
 513      0080AFF3 
 513      0080
 514              		.align	2
 515              		.p2align 4,,15
 516              		.thumb
 517              		.thumb_func
 518              		.type	thread, %function
 519              	thread:
 520              	.LFB7:
 521              		.loc 1 71 0
 522              		.cfi_startproc
 523              		@ args = 0, pretend = 0, frame = 0
 524              		@ frame_needed = 0, uses_anonymous_args = 0
 525              	.LVL28:
 526 0000 08B5     		push	{r3, lr}
 527              	.LCFI5:
 528              		.cfi_def_cfa_offset 8
 529              		.cfi_offset 14, -4
 530              		.cfi_offset 3, -8
 531              		.loc 1 73 0
 532 0002 0078     		ldrb	r0, [r0, #0]	@ zero_extendqisi2
 533              	.LVL29:
 534 0004 FFF7FEFF 		bl	test_emit_token
 535              		.loc 1 75 0
 536 0008 0020     		movs	r0, #0
 537 000a 08BD     		pop	{r3, pc}
 538              		.cfi_endproc
 539              	.LFE7:
 540              		.size	thread, .-thread
 541 000c AFF30080 		.section	.text.thd4_execute,"ax",%progbits
 542              		.align	2
 543              		.p2align 4,,15
 544              		.thumb
 545              		.thumb_func
 546              		.type	thd4_execute, %function
 547              	thd4_execute:
 548              	.LFB11:
 549              		.loc 1 200 0
 550              		.cfi_startproc
 551              		@ args = 0, pretend = 0, frame = 0
 552              		@ frame_needed = 0, uses_anonymous_args = 0
 553 0000 38B5     		push	{r3, r4, r5, lr}
 554              	.LCFI6:
 555              		.cfi_def_cfa_offset 16
 556              		.cfi_offset 14, -4
 557              		.cfi_offset 5, -8
 558              		.cfi_offset 4, -12
 559              		.cfi_offset 3, -16
 560              		.loc 1 206 0
 561 0002 40F20004 		movw	r4, #:lower16:vtlist
 562 0006 C0F20004 		movt	r4, #:upper16:vtlist
 563              		.loc 1 203 0
 564 000a FFF7FEFF 		bl	test_wait_tick
 565              		.loc 1 206 0
 566 000e E568     		ldr	r5, [r4, #12]
 567              	.LVL30:
ARM GAS  C:\Users\z80\AppData\Local\Temp\ccqNOpvS.s 			page 11


 568              		.loc 1 207 0
 569 0010 3220     		movs	r0, #50
 570 0012 FFF7FEFF 		bl	chThdSleep
 571              		.loc 1 208 0
 572 0016 0120     		movs	r0, #1
 573 0018 05F13201 		add	r1, r5, #50
 574 001c 05F13302 		add	r2, r5, #51
 575 0020 FFF7FEFF 		bl	_test_assert_time_window
 576 0024 00B1     		cbz	r0, .L10
 577              	.LVL31:
 578              	.L8:
 579 0026 38BD     		pop	{r3, r4, r5, pc}
 580              	.LVL32:
 581              	.L10:
 582              		.loc 1 211 0
 583 0028 E568     		ldr	r5, [r4, #12]
 584              	.LVL33:
 585              		.loc 1 212 0
 586 002a 3220     		movs	r0, #50
 587 002c FFF7FEFF 		bl	chThdSleep
 588              		.loc 1 213 0
 589 0030 0220     		movs	r0, #2
 590 0032 05F13201 		add	r1, r5, #50
 591 0036 05F13302 		add	r2, r5, #51
 592 003a FFF7FEFF 		bl	_test_assert_time_window
 593 003e 0028     		cmp	r0, #0
 594 0040 F1D1     		bne	.L8
 595              	.LBB11:
 596              	.LBB12:
 597              		.loc 1 216 0
 598 0042 E568     		ldr	r5, [r4, #12]
 599              	.LVL34:
 600              		.loc 1 217 0
 601 0044 4FF4FA70 		mov	r0, #500
 602 0048 FFF7FEFF 		bl	chThdSleep
 603              		.loc 1 218 0
 604 004c 05F5FA71 		add	r1, r5, #500
 605 0050 0320     		movs	r0, #3
 606 0052 4A1C     		adds	r2, r1, #1
 607 0054 FFF7FEFF 		bl	_test_assert_time_window
 608 0058 0028     		cmp	r0, #0
 609 005a E4D1     		bne	.L8
 610              		.loc 1 221 0
 611 005c E468     		ldr	r4, [r4, #12]
 612 005e 04F13205 		add	r5, r4, #50
 613              	.LVL35:
 614              		.loc 1 222 0
 615 0062 2846     		mov	r0, r5
 616 0064 FFF7FEFF 		bl	chThdSleepUntil
 617              		.loc 1 223 0
 618 0068 0420     		movs	r0, #4
 619 006a 2946     		mov	r1, r5
 620 006c 04F13302 		add	r2, r4, #51
 621              	.LBE12:
 622              	.LBE11:
 623              		.loc 1 224 0
 624 0070 BDE83840 		pop	{r3, r4, r5, lr}
ARM GAS  C:\Users\z80\AppData\Local\Temp\ccqNOpvS.s 			page 12


 625              	.LBB14:
 626              	.LBB13:
 627              		.loc 1 223 0
 628 0074 FFF7FEBF 		b	_test_assert_time_window
 629              	.LBE13:
 630              	.LBE14:
 631              		.cfi_endproc
 632              	.LFE11:
 633              		.size	thd4_execute, .-thd4_execute
 634              		.global	patternthd
 635              		.global	testthd4
 636              		.global	testthd3
 637              		.global	testthd2
 638              		.global	testthd1
 639 0078 AFF30080 		.section	.rodata.testthd1,"a",%progbits
 639      AFF30080 
 640              		.align	2
 641              		.type	testthd1, %object
 642              		.size	testthd1, 16
 643              	testthd1:
 644 0000 64000000 		.word	.LC9
 645 0004 00000000 		.word	0
 646 0008 00000000 		.word	0
 647 000c 00000000 		.word	thd1_execute
 648              		.section	.rodata.testthd2,"a",%progbits
 649              		.align	2
 650              		.type	testthd2, %object
 651              		.size	testthd2, 16
 652              	testthd2:
 653 0000 48000000 		.word	.LC8
 654 0004 00000000 		.word	0
 655 0008 00000000 		.word	0
 656 000c 00000000 		.word	thd2_execute
 657              		.section	.rodata.testthd3,"a",%progbits
 658              		.align	2
 659              		.type	testthd3, %object
 660              		.size	testthd3, 16
 661              	testthd3:
 662 0000 2C000000 		.word	.LC7
 663 0004 00000000 		.word	0
 664 0008 00000000 		.word	0
 665 000c 00000000 		.word	thd3_execute
 666              		.section	.rodata.testthd4,"a",%progbits
 667              		.align	2
 668              		.type	testthd4, %object
 669              		.size	testthd4, 16
 670              	testthd4:
 671 0000 1C000000 		.word	.LC6
 672 0004 00000000 		.word	0
 673 0008 00000000 		.word	0
 674 000c 00000000 		.word	thd4_execute
 675              		.section	.rodata.patternthd,"a",%progbits
 676              		.align	2
 677              		.type	patternthd, %object
 678              		.size	patternthd, 20
 679              	patternthd:
 680 0000 00000000 		.word	testthd1
ARM GAS  C:\Users\z80\AppData\Local\Temp\ccqNOpvS.s 			page 13


 681 0004 00000000 		.word	testthd2
 682 0008 00000000 		.word	testthd3
 683 000c 00000000 		.word	testthd4
 684 0010 00000000 		.word	0
 685              		.section	.rodata.str1.4,"aMS",%progbits,1
 686              		.align	2
 687              	.LC0:
 688 0000 4400     		.ascii	"D\000"
 689 0002 0000     		.space	2
 690              	.LC1:
 691 0004 4500     		.ascii	"E\000"
 692 0006 0000     		.space	2
 693              	.LC2:
 694 0008 4100     		.ascii	"A\000"
 695 000a 0000     		.space	2
 696              	.LC3:
 697 000c 4200     		.ascii	"B\000"
 698 000e 0000     		.space	2
 699              	.LC4:
 700 0010 4300     		.ascii	"C\000"
 701 0012 0000     		.space	2
 702              	.LC5:
 703 0014 41424344 		.ascii	"ABCDE\000"
 703      4500
 704 001a 0000     		.space	2
 705              	.LC6:
 706 001c 54687265 		.ascii	"Threads, delays\000"
 706      6164732C 
 706      2064656C 
 706      61797300 
 707              	.LC7:
 708 002c 54687265 		.ascii	"Threads, priority change\000"
 708      6164732C 
 708      20707269 
 708      6F726974 
 708      79206368 
 709 0045 000000   		.space	3
 710              	.LC8:
 711 0048 54687265 		.ascii	"Threads, enqueuing test #2\000"
 711      6164732C 
 711      20656E71 
 711      75657569 
 711      6E672074 
 712 0063 00       		.space	1
 713              	.LC9:
 714 0064 54687265 		.ascii	"Threads, enqueuing test #1\000"
 714      6164732C 
 714      20656E71 
 714      75657569 
 714      6E672074 
 715 007f 00       		.text
 716              	.Letext0:
 717              		.file 2 "c:\\programs\\codesourcery\\2011.03-56\\bin\\../lib/gcc/arm-none-eabi/4.6.3/../../../../a
 718              		.file 3 "../chibios_2.4.x/os/ports/GCC/ARMCMx/chtypes.h"
 719              		.file 4 "../chibios_2.4.x/os/kernel/include/chlists.h"
 720              		.file 5 "../chibios_2.4.x/os/kernel/include/chthreads.h"
 721              		.file 6 "../chibios_2.4.x/os/ports/GCC/ARMCMx/chcore_v7m.h"
ARM GAS  C:\Users\z80\AppData\Local\Temp\ccqNOpvS.s 			page 14


 722              		.file 7 "../chibios_2.4.x/os/kernel/include/chvt.h"
 723              		.file 8 "../chibios_2.4.x/os/kernel/include/chschd.h"
 724              		.file 9 "../chibios_2.4.x/os/kernel/include/chmtx.h"
 725              		.file 10 "../chibios_2.4.x/test/test.h"