ARM GAS  C:\Users\z80\AppData\Local\Temp\cczkIRrp.s 			page 1


   1              		.syntax unified
   2              		.cpu cortex-m3
   3              		.fpu softvfp
   4              		.eabi_attribute 20, 1
   5              		.eabi_attribute 21, 1
   6              		.eabi_attribute 23, 3
   7              		.eabi_attribute 24, 1
   8              		.eabi_attribute 25, 1
   9              		.eabi_attribute 26, 1
  10              		.eabi_attribute 30, 6
  11              		.eabi_attribute 34, 1
  12              		.eabi_attribute 18, 4
  13              		.thumb
  14              		.file	"testsem.c"
  15              		.text
  16              	.Ltext0:
  17              		.cfi_sections	.debug_frame
  18              		.section	.data.sem1,"aw",%progbits
  19              		.align	2
  20              		.type	sem1, %object
  21              		.size	sem1, 12
  22              	sem1:
  23 0000 00000000 		.word	sem1
  24 0004 00000000 		.word	sem1
  25 0008 00000000 		.word	0
  26              		.section	.text.sem1_setup,"ax",%progbits
  27              		.align	2
  28              		.p2align 4,,15
  29              		.thumb
  30              		.thumb_func
  31              		.type	sem1_setup, %function
  32              	sem1_setup:
  33              	.LFB7:
  34              		.file 1 "../chibios_2.4.x/test/testsem.c"
  35              		.loc 1 83 0
  36              		.cfi_startproc
  37              		@ args = 0, pretend = 0, frame = 0
  38              		@ frame_needed = 0, uses_anonymous_args = 0
  39 0000 08B5     		push	{r3, lr}
  40              	.LCFI0:
  41              		.cfi_def_cfa_offset 8
  42              		.cfi_offset 14, -4
  43              		.cfi_offset 3, -8
  44              		.loc 1 85 0
  45 0002 40F20000 		movw	r0, #:lower16:sem1
  46 0006 C0F20000 		movt	r0, #:upper16:sem1
  47 000a 4FF00001 		mov	r1, #0
  48 000e FFF7FEFF 		bl	chSemInit
  49              		.loc 1 86 0
  50 0012 08BD     		pop	{r3, pc}
  51              		.cfi_endproc
  52              	.LFE7:
  53              		.size	sem1_setup, .-sem1_setup
  54 0014 AFF30080 		.section	.text.thread1,"ax",%progbits
  54      AFF30080 
  54      AFF30080 
  55              		.align	2
ARM GAS  C:\Users\z80\AppData\Local\Temp\cczkIRrp.s 			page 2


  56              		.p2align 4,,15
  57              		.thumb
  58              		.thumb_func
  59              		.type	thread1, %function
  60              	thread1:
  61              	.LFB8:
  62              		.loc 1 88 0
  63              		.cfi_startproc
  64              		@ args = 0, pretend = 0, frame = 8
  65              		@ frame_needed = 0, uses_anonymous_args = 0
  66 0000 00B5     		push	{lr}
  67              	.LCFI1:
  68              		.cfi_def_cfa_offset 4
  69              		.cfi_offset 14, -4
  70 0002 83B0     		sub	sp, sp, #12
  71              	.LCFI2:
  72              		.cfi_def_cfa_offset 16
  73 0004 0190     		str	r0, [sp, #4]
  74              		.loc 1 90 0
  75 0006 40F20000 		movw	r0, #:lower16:sem1
  76 000a C0F20000 		movt	r0, #:upper16:sem1
  77 000e FFF7FEFF 		bl	chSemWait
  78              		.loc 1 91 0
  79 0012 019B     		ldr	r3, [sp, #4]
  80 0014 1B78     		ldrb	r3, [r3, #0]	@ zero_extendqisi2
  81 0016 1846     		mov	r0, r3
  82 0018 FFF7FEFF 		bl	test_emit_token
  83              		.loc 1 92 0
  84 001c 4FF00003 		mov	r3, #0
  85              		.loc 1 93 0
  86 0020 1846     		mov	r0, r3
  87 0022 03B0     		add	sp, sp, #12
  88 0024 00BD     		pop	{pc}
  89              		.cfi_endproc
  90              	.LFE8:
  91              		.size	thread1, .-thread1
  92 0026 00BFAFF3 		.section	.rodata
  92      0080AFF3 
  92      0080
  93              		.align	2
  94              	.LC0:
  95 0000 4100     		.ascii	"A\000"
  96 0002 0000     		.align	2
  97              	.LC1:
  98 0004 4200     		.ascii	"B\000"
  99 0006 0000     		.align	2
 100              	.LC2:
 101 0008 4300     		.ascii	"C\000"
 102 000a 0000     		.align	2
 103              	.LC3:
 104 000c 4400     		.ascii	"D\000"
 105 000e 0000     		.align	2
 106              	.LC4:
 107 0010 4500     		.ascii	"E\000"
 108 0012 0000     		.align	2
 109              	.LC5:
 110 0014 41424344 		.ascii	"ABCDE\000"
ARM GAS  C:\Users\z80\AppData\Local\Temp\cczkIRrp.s 			page 3


 110      4500
 111              		.section	.text.sem1_execute,"ax",%progbits
 112              		.align	2
 113              		.p2align 4,,15
 114              		.thumb
 115              		.thumb_func
 116              		.type	sem1_execute, %function
 117              	sem1_execute:
 118              	.LFB9:
 119              		.loc 1 95 0
 120              		.cfi_startproc
 121              		@ args = 0, pretend = 0, frame = 0
 122              		@ frame_needed = 0, uses_anonymous_args = 0
 123 0000 00B5     		push	{lr}
 124              	.LCFI3:
 125              		.cfi_def_cfa_offset 4
 126              		.cfi_offset 14, -4
 127 0002 83B0     		sub	sp, sp, #12
 128              	.LCFI4:
 129              		.cfi_def_cfa_offset 16
 130              		.loc 1 97 0
 131 0004 40F20003 		movw	r3, #:lower16:wa
 132 0008 C0F20003 		movt	r3, #:upper16:wa
 133 000c 1968     		ldr	r1, [r3, #0]
 134 000e 40F20003 		movw	r3, #:lower16:rlist
 135 0012 C0F20003 		movt	r3, #:upper16:rlist
 136 0016 DB69     		ldr	r3, [r3, #28]
 137 0018 9B68     		ldr	r3, [r3, #8]
 138 001a 03F10502 		add	r2, r3, #5
 139 001e 40F20003 		movw	r3, #:lower16:.LC0
 140 0022 C0F20003 		movt	r3, #:upper16:.LC0
 141 0026 0093     		str	r3, [sp, #0]
 142 0028 0846     		mov	r0, r1
 143 002a 4FF49871 		mov	r1, #304
 144 002e 40F20003 		movw	r3, #:lower16:thread1
 145 0032 C0F20003 		movt	r3, #:upper16:thread1
 146 0036 FFF7FEFF 		bl	chThdCreateStatic
 147 003a 0246     		mov	r2, r0
 148 003c 40F20003 		movw	r3, #:lower16:threads
 149 0040 C0F20003 		movt	r3, #:upper16:threads
 150 0044 1A60     		str	r2, [r3, #0]
 151              		.loc 1 98 0
 152 0046 40F20003 		movw	r3, #:lower16:wa
 153 004a C0F20003 		movt	r3, #:upper16:wa
 154 004e 5968     		ldr	r1, [r3, #4]
 155 0050 40F20003 		movw	r3, #:lower16:rlist
 156 0054 C0F20003 		movt	r3, #:upper16:rlist
 157 0058 DB69     		ldr	r3, [r3, #28]
 158 005a 9B68     		ldr	r3, [r3, #8]
 159 005c 03F10102 		add	r2, r3, #1
 160 0060 40F20003 		movw	r3, #:lower16:.LC1
 161 0064 C0F20003 		movt	r3, #:upper16:.LC1
 162 0068 0093     		str	r3, [sp, #0]
 163 006a 0846     		mov	r0, r1
 164 006c 4FF49871 		mov	r1, #304
 165 0070 40F20003 		movw	r3, #:lower16:thread1
 166 0074 C0F20003 		movt	r3, #:upper16:thread1
ARM GAS  C:\Users\z80\AppData\Local\Temp\cczkIRrp.s 			page 4


 167 0078 FFF7FEFF 		bl	chThdCreateStatic
 168 007c 0246     		mov	r2, r0
 169 007e 40F20003 		movw	r3, #:lower16:threads
 170 0082 C0F20003 		movt	r3, #:upper16:threads
 171 0086 5A60     		str	r2, [r3, #4]
 172              		.loc 1 99 0
 173 0088 40F20003 		movw	r3, #:lower16:wa
 174 008c C0F20003 		movt	r3, #:upper16:wa
 175 0090 9968     		ldr	r1, [r3, #8]
 176 0092 40F20003 		movw	r3, #:lower16:rlist
 177 0096 C0F20003 		movt	r3, #:upper16:rlist
 178 009a DB69     		ldr	r3, [r3, #28]
 179 009c 9B68     		ldr	r3, [r3, #8]
 180 009e 03F10302 		add	r2, r3, #3
 181 00a2 40F20003 		movw	r3, #:lower16:.LC2
 182 00a6 C0F20003 		movt	r3, #:upper16:.LC2
 183 00aa 0093     		str	r3, [sp, #0]
 184 00ac 0846     		mov	r0, r1
 185 00ae 4FF49871 		mov	r1, #304
 186 00b2 40F20003 		movw	r3, #:lower16:thread1
 187 00b6 C0F20003 		movt	r3, #:upper16:thread1
 188 00ba FFF7FEFF 		bl	chThdCreateStatic
 189 00be 0246     		mov	r2, r0
 190 00c0 40F20003 		movw	r3, #:lower16:threads
 191 00c4 C0F20003 		movt	r3, #:upper16:threads
 192 00c8 9A60     		str	r2, [r3, #8]
 193              		.loc 1 100 0
 194 00ca 40F20003 		movw	r3, #:lower16:wa
 195 00ce C0F20003 		movt	r3, #:upper16:wa
 196 00d2 D968     		ldr	r1, [r3, #12]
 197 00d4 40F20003 		movw	r3, #:lower16:rlist
 198 00d8 C0F20003 		movt	r3, #:upper16:rlist
 199 00dc DB69     		ldr	r3, [r3, #28]
 200 00de 9B68     		ldr	r3, [r3, #8]
 201 00e0 03F10402 		add	r2, r3, #4
 202 00e4 40F20003 		movw	r3, #:lower16:.LC3
 203 00e8 C0F20003 		movt	r3, #:upper16:.LC3
 204 00ec 0093     		str	r3, [sp, #0]
 205 00ee 0846     		mov	r0, r1
 206 00f0 4FF49871 		mov	r1, #304
 207 00f4 40F20003 		movw	r3, #:lower16:thread1
 208 00f8 C0F20003 		movt	r3, #:upper16:thread1
 209 00fc FFF7FEFF 		bl	chThdCreateStatic
 210 0100 0246     		mov	r2, r0
 211 0102 40F20003 		movw	r3, #:lower16:threads
 212 0106 C0F20003 		movt	r3, #:upper16:threads
 213 010a DA60     		str	r2, [r3, #12]
 214              		.loc 1 101 0
 215 010c 40F20003 		movw	r3, #:lower16:wa
 216 0110 C0F20003 		movt	r3, #:upper16:wa
 217 0114 1969     		ldr	r1, [r3, #16]
 218 0116 40F20003 		movw	r3, #:lower16:rlist
 219 011a C0F20003 		movt	r3, #:upper16:rlist
 220 011e DB69     		ldr	r3, [r3, #28]
 221 0120 9B68     		ldr	r3, [r3, #8]
 222 0122 03F10202 		add	r2, r3, #2
 223 0126 40F20003 		movw	r3, #:lower16:.LC4
ARM GAS  C:\Users\z80\AppData\Local\Temp\cczkIRrp.s 			page 5


 224 012a C0F20003 		movt	r3, #:upper16:.LC4
 225 012e 0093     		str	r3, [sp, #0]
 226 0130 0846     		mov	r0, r1
 227 0132 4FF49871 		mov	r1, #304
 228 0136 40F20003 		movw	r3, #:lower16:thread1
 229 013a C0F20003 		movt	r3, #:upper16:thread1
 230 013e FFF7FEFF 		bl	chThdCreateStatic
 231 0142 0246     		mov	r2, r0
 232 0144 40F20003 		movw	r3, #:lower16:threads
 233 0148 C0F20003 		movt	r3, #:upper16:threads
 234 014c 1A61     		str	r2, [r3, #16]
 235              		.loc 1 102 0
 236 014e 40F20000 		movw	r0, #:lower16:sem1
 237 0152 C0F20000 		movt	r0, #:upper16:sem1
 238 0156 FFF7FEFF 		bl	chSemSignal
 239              		.loc 1 103 0
 240 015a 40F20000 		movw	r0, #:lower16:sem1
 241 015e C0F20000 		movt	r0, #:upper16:sem1
 242 0162 FFF7FEFF 		bl	chSemSignal
 243              		.loc 1 104 0
 244 0166 40F20000 		movw	r0, #:lower16:sem1
 245 016a C0F20000 		movt	r0, #:upper16:sem1
 246 016e FFF7FEFF 		bl	chSemSignal
 247              		.loc 1 105 0
 248 0172 40F20000 		movw	r0, #:lower16:sem1
 249 0176 C0F20000 		movt	r0, #:upper16:sem1
 250 017a FFF7FEFF 		bl	chSemSignal
 251              		.loc 1 106 0
 252 017e 40F20000 		movw	r0, #:lower16:sem1
 253 0182 C0F20000 		movt	r0, #:upper16:sem1
 254 0186 FFF7FEFF 		bl	chSemSignal
 255              		.loc 1 107 0
 256 018a FFF7FEFF 		bl	test_wait_threads
 257              		.loc 1 111 0
 258 018e 4FF00100 		mov	r0, #1
 259 0192 40F20001 		movw	r1, #:lower16:.LC5
 260 0196 C0F20001 		movt	r1, #:upper16:.LC5
 261 019a FFF7FEFF 		bl	_test_assert_sequence
 262 019e 0346     		mov	r3, r0
 263 01a0 002B     		cmp	r3, #0
 264 01a2 46D1     		bne	.L3
 265              	.L4:
 266              		.loc 1 113 0
 267 01a4 40F20003 		movw	r3, #:lower16:wa
 268 01a8 C0F20003 		movt	r3, #:upper16:wa
 269 01ac 1968     		ldr	r1, [r3, #0]
 270 01ae 40F20003 		movw	r3, #:lower16:rlist
 271 01b2 C0F20003 		movt	r3, #:upper16:rlist
 272 01b6 DB69     		ldr	r3, [r3, #28]
 273 01b8 9B68     		ldr	r3, [r3, #8]
 274 01ba 03F10502 		add	r2, r3, #5
 275 01be 40F20003 		movw	r3, #:lower16:.LC0
 276 01c2 C0F20003 		movt	r3, #:upper16:.LC0
 277 01c6 0093     		str	r3, [sp, #0]
 278 01c8 0846     		mov	r0, r1
 279 01ca 4FF49871 		mov	r1, #304
 280 01ce 40F20003 		movw	r3, #:lower16:thread1
ARM GAS  C:\Users\z80\AppData\Local\Temp\cczkIRrp.s 			page 6


 281 01d2 C0F20003 		movt	r3, #:upper16:thread1
 282 01d6 FFF7FEFF 		bl	chThdCreateStatic
 283 01da 0246     		mov	r2, r0
 284 01dc 40F20003 		movw	r3, #:lower16:threads
 285 01e0 C0F20003 		movt	r3, #:upper16:threads
 286 01e4 1A60     		str	r2, [r3, #0]
 287              	.LBB2:
 288              		.loc 1 114 0
 289 01e6 4FF02003 		mov	r3, #32
 290              	@ 114 "../chibios_2.4.x/test/testsem.c" 1
 291 01ea 83F31188 		msr     BASEPRI, r3
 292              	@ 0 "" 2
 293              		.thumb
 294              	.LBE2:
 295 01ee FFF7FEFF 		bl	dbg_check_lock
 296              		.loc 1 115 0
 297 01f2 40F20000 		movw	r0, #:lower16:sem1
 298 01f6 C0F20000 		movt	r0, #:upper16:sem1
 299 01fa 4FF00201 		mov	r1, #2
 300 01fe FFF7FEFF 		bl	chSemAddCounterI
 301              		.loc 1 116 0
 302 0202 FFF7FEFF 		bl	dbg_check_unlock
 303              	.LBB3:
 304 0206 4FF00003 		mov	r3, #0
 305              	@ 116 "../chibios_2.4.x/test/testsem.c" 1
 306 020a 83F31188 		msr     BASEPRI, r3
 307              	@ 0 "" 2
 308              		.thumb
 309              	.LBE3:
 310              		.loc 1 117 0
 311 020e FFF7FEFF 		bl	test_wait_threads
 312              		.loc 1 118 0
 313 0212 40F20003 		movw	r3, #:lower16:sem1
 314 0216 C0F20003 		movt	r3, #:upper16:sem1
 315 021a 9B68     		ldr	r3, [r3, #8]
 316 021c 012B     		cmp	r3, #1
 317 021e 14BF     		ite	ne
 318 0220 0023     		movne	r3, #0
 319 0222 0123     		moveq	r3, #1
 320 0224 4FF00200 		mov	r0, #2
 321 0228 1946     		mov	r1, r3
 322 022a FFF7FEFF 		bl	_test_assert
 323 022e 0346     		mov	r3, r0
 324 0230 002B     		cmp	r3, #0
 325              	.L3:
 326              		.loc 1 119 0
 327 0232 03B0     		add	sp, sp, #12
 328 0234 00BD     		pop	{pc}
 329              		.cfi_endproc
 330              	.LFE9:
 331              		.size	sem1_execute, .-sem1_execute
 332              		.global	testsem1
 333 0236 00BFAFF3 		.section	.rodata
 333      0080AFF3 
 333      0080
 334 001a 0000     		.align	2
 335              	.LC6:
ARM GAS  C:\Users\z80\AppData\Local\Temp\cczkIRrp.s 			page 7


 336 001c 53656D61 		.ascii	"Semaphores, enqueuing\000"
 336      70686F72 
 336      65732C20 
 336      656E7175 
 336      6575696E 
 337              		.section	.rodata.testsem1,"a",%progbits
 338              		.align	2
 339              		.type	testsem1, %object
 340              		.size	testsem1, 16
 341              	testsem1:
 342 0000 1C000000 		.word	.LC6
 343 0004 00000000 		.word	sem1_setup
 344 0008 00000000 		.word	0
 345 000c 00000000 		.word	sem1_execute
 346              		.section	.text.sem2_setup,"ax",%progbits
 347              		.align	2
 348              		.p2align 4,,15
 349              		.thumb
 350              		.thumb_func
 351              		.type	sem2_setup, %function
 352              	sem2_setup:
 353              	.LFB10:
 354              		.loc 1 139 0
 355              		.cfi_startproc
 356              		@ args = 0, pretend = 0, frame = 0
 357              		@ frame_needed = 0, uses_anonymous_args = 0
 358 0000 08B5     		push	{r3, lr}
 359              	.LCFI5:
 360              		.cfi_def_cfa_offset 8
 361              		.cfi_offset 14, -4
 362              		.cfi_offset 3, -8
 363              		.loc 1 141 0
 364 0002 40F20000 		movw	r0, #:lower16:sem1
 365 0006 C0F20000 		movt	r0, #:upper16:sem1
 366 000a 4FF00001 		mov	r1, #0
 367 000e FFF7FEFF 		bl	chSemInit
 368              		.loc 1 142 0
 369 0012 08BD     		pop	{r3, pc}
 370              		.cfi_endproc
 371              	.LFE10:
 372              		.size	sem2_setup, .-sem2_setup
 373 0014 AFF30080 		.section	.text.thread2,"ax",%progbits
 373      AFF30080 
 373      AFF30080 
 374              		.align	2
 375              		.p2align 4,,15
 376              		.thumb
 377              		.thumb_func
 378              		.type	thread2, %function
 379              	thread2:
 380              	.LFB11:
 381              		.loc 1 144 0
 382              		.cfi_startproc
 383              		@ args = 0, pretend = 0, frame = 8
 384              		@ frame_needed = 0, uses_anonymous_args = 0
 385 0000 00B5     		push	{lr}
 386              	.LCFI6:
ARM GAS  C:\Users\z80\AppData\Local\Temp\cczkIRrp.s 			page 8


 387              		.cfi_def_cfa_offset 4
 388              		.cfi_offset 14, -4
 389 0002 83B0     		sub	sp, sp, #12
 390              	.LCFI7:
 391              		.cfi_def_cfa_offset 16
 392 0004 0190     		str	r0, [sp, #4]
 393              		.loc 1 147 0
 394 0006 4FF01900 		mov	r0, #25
 395 000a FFF7FEFF 		bl	chThdSleep
 396              	.LBB4:
 397              		.loc 1 148 0
 398 000e 4FF02003 		mov	r3, #32
 399              	@ 148 "../chibios_2.4.x/test/testsem.c" 1
 400 0012 83F31188 		msr     BASEPRI, r3
 401              	@ 0 "" 2
 402              		.thumb
 403              	.LBE4:
 404 0016 FFF7FEFF 		bl	dbg_check_lock
 405              		.loc 1 149 0
 406 001a 40F20000 		movw	r0, #:lower16:sem1
 407 001e C0F20000 		movt	r0, #:upper16:sem1
 408 0022 FFF7FEFF 		bl	chSemSignalI
 409              		.loc 1 150 0
 410 0026 FFF7FEFF 		bl	chSchRescheduleS
 411              		.loc 1 151 0
 412 002a FFF7FEFF 		bl	dbg_check_unlock
 413              	.LBB5:
 414 002e 4FF00003 		mov	r3, #0
 415              	@ 151 "../chibios_2.4.x/test/testsem.c" 1
 416 0032 83F31188 		msr     BASEPRI, r3
 417              	@ 0 "" 2
 418              		.thumb
 419              	.LBE5:
 420              		.loc 1 152 0
 421 0036 4FF00003 		mov	r3, #0
 422              		.loc 1 153 0
 423 003a 1846     		mov	r0, r3
 424 003c 03B0     		add	sp, sp, #12
 425 003e 00BD     		pop	{pc}
 426              		.cfi_endproc
 427              	.LFE11:
 428              		.size	thread2, .-thread2
 429              		.section	.text.sem2_execute,"ax",%progbits
 430              		.align	2
 431              		.p2align 4,,15
 432              		.thumb
 433              		.thumb_func
 434              		.type	sem2_execute, %function
 435              	sem2_execute:
 436              	.LFB12:
 437              		.loc 1 155 0
 438              		.cfi_startproc
 439              		@ args = 0, pretend = 0, frame = 16
 440              		@ frame_needed = 0, uses_anonymous_args = 0
 441 0000 00B5     		push	{lr}
 442              	.LCFI8:
 443              		.cfi_def_cfa_offset 4
ARM GAS  C:\Users\z80\AppData\Local\Temp\cczkIRrp.s 			page 9


 444              		.cfi_offset 14, -4
 445 0002 87B0     		sub	sp, sp, #28
 446              	.LCFI9:
 447              		.cfi_def_cfa_offset 32
 448              		.loc 1 163 0
 449 0004 40F20000 		movw	r0, #:lower16:sem1
 450 0008 C0F20000 		movt	r0, #:upper16:sem1
 451 000c 4FF00001 		mov	r1, #0
 452 0010 FFF7FEFF 		bl	chSemWaitTimeout
 453 0014 0490     		str	r0, [sp, #16]
 454              		.loc 1 164 0
 455 0016 049B     		ldr	r3, [sp, #16]
 456 0018 B3F1FF3F 		cmp	r3, #-1
 457 001c 14BF     		ite	ne
 458 001e 0023     		movne	r3, #0
 459 0020 0123     		moveq	r3, #1
 460 0022 4FF00100 		mov	r0, #1
 461 0026 1946     		mov	r1, r3
 462 0028 FFF7FEFF 		bl	_test_assert
 463 002c 0346     		mov	r3, r0
 464 002e 002B     		cmp	r3, #0
 465 0030 40F0FA80 		bne	.L8
 466              	.L9:
 467              		.loc 1 165 0
 468 0034 40F20003 		movw	r3, #:lower16:sem1
 469 0038 C0F20003 		movt	r3, #:upper16:sem1
 470 003c 1A68     		ldr	r2, [r3, #0]
 471 003e 40F20003 		movw	r3, #:lower16:sem1
 472 0042 C0F20003 		movt	r3, #:upper16:sem1
 473 0046 9A42     		cmp	r2, r3
 474 0048 14BF     		ite	ne
 475 004a 0023     		movne	r3, #0
 476 004c 0123     		moveq	r3, #1
 477 004e 4FF00200 		mov	r0, #2
 478 0052 1946     		mov	r1, r3
 479 0054 FFF7FEFF 		bl	_test_assert
 480 0058 0346     		mov	r3, r0
 481 005a 002B     		cmp	r3, #0
 482 005c 40F0E480 		bne	.L8
 483              	.L11:
 484              		.loc 1 166 0
 485 0060 40F20003 		movw	r3, #:lower16:sem1
 486 0064 C0F20003 		movt	r3, #:upper16:sem1
 487 0068 9B68     		ldr	r3, [r3, #8]
 488 006a 002B     		cmp	r3, #0
 489 006c 14BF     		ite	ne
 490 006e 0023     		movne	r3, #0
 491 0070 0123     		moveq	r3, #1
 492 0072 4FF00300 		mov	r0, #3
 493 0076 1946     		mov	r1, r3
 494 0078 FFF7FEFF 		bl	_test_assert
 495 007c 0346     		mov	r3, r0
 496 007e 002B     		cmp	r3, #0
 497 0080 40F0D280 		bne	.L8
 498              	.L12:
 499              		.loc 1 171 0
 500 0084 40F20003 		movw	r3, #:lower16:wa
ARM GAS  C:\Users\z80\AppData\Local\Temp\cczkIRrp.s 			page 10


 501 0088 C0F20003 		movt	r3, #:upper16:wa
 502 008c 1A68     		ldr	r2, [r3, #0]
 503 008e 40F20003 		movw	r3, #:lower16:rlist
 504 0092 C0F20003 		movt	r3, #:upper16:rlist
 505 0096 DB69     		ldr	r3, [r3, #28]
 506 0098 9B68     		ldr	r3, [r3, #8]
 507 009a 03F1FF33 		add	r3, r3, #-1
 508 009e 4FF00001 		mov	r1, #0
 509 00a2 0091     		str	r1, [sp, #0]
 510 00a4 1046     		mov	r0, r2
 511 00a6 4FF49871 		mov	r1, #304
 512 00aa 1A46     		mov	r2, r3
 513 00ac 40F20003 		movw	r3, #:lower16:thread2
 514 00b0 C0F20003 		movt	r3, #:upper16:thread2
 515 00b4 FFF7FEFF 		bl	chThdCreateStatic
 516 00b8 0246     		mov	r2, r0
 517 00ba 40F20003 		movw	r3, #:lower16:threads
 518 00be C0F20003 		movt	r3, #:upper16:threads
 519 00c2 1A60     		str	r2, [r3, #0]
 520              		.loc 1 173 0
 521 00c4 40F20000 		movw	r0, #:lower16:sem1
 522 00c8 C0F20000 		movt	r0, #:upper16:sem1
 523 00cc 4FF0FA01 		mov	r1, #250
 524 00d0 FFF7FEFF 		bl	chSemWaitTimeout
 525 00d4 0490     		str	r0, [sp, #16]
 526              		.loc 1 174 0
 527 00d6 FFF7FEFF 		bl	test_wait_threads
 528              		.loc 1 175 0
 529 00da 049B     		ldr	r3, [sp, #16]
 530 00dc 002B     		cmp	r3, #0
 531 00de 14BF     		ite	ne
 532 00e0 0023     		movne	r3, #0
 533 00e2 0123     		moveq	r3, #1
 534 00e4 4FF00400 		mov	r0, #4
 535 00e8 1946     		mov	r1, r3
 536 00ea FFF7FEFF 		bl	_test_assert
 537 00ee 0346     		mov	r3, r0
 538 00f0 002B     		cmp	r3, #0
 539 00f2 40F09980 		bne	.L8
 540              	.L13:
 541              		.loc 1 176 0
 542 00f6 40F20003 		movw	r3, #:lower16:sem1
 543 00fa C0F20003 		movt	r3, #:upper16:sem1
 544 00fe 1A68     		ldr	r2, [r3, #0]
 545 0100 40F20003 		movw	r3, #:lower16:sem1
 546 0104 C0F20003 		movt	r3, #:upper16:sem1
 547 0108 9A42     		cmp	r2, r3
 548 010a 14BF     		ite	ne
 549 010c 0023     		movne	r3, #0
 550 010e 0123     		moveq	r3, #1
 551 0110 4FF00500 		mov	r0, #5
 552 0114 1946     		mov	r1, r3
 553 0116 FFF7FEFF 		bl	_test_assert
 554 011a 0346     		mov	r3, r0
 555 011c 002B     		cmp	r3, #0
 556 011e 40F08380 		bne	.L8
 557              	.L14:
ARM GAS  C:\Users\z80\AppData\Local\Temp\cczkIRrp.s 			page 11


 558              		.loc 1 177 0
 559 0122 40F20003 		movw	r3, #:lower16:sem1
 560 0126 C0F20003 		movt	r3, #:upper16:sem1
 561 012a 9B68     		ldr	r3, [r3, #8]
 562 012c 002B     		cmp	r3, #0
 563 012e 14BF     		ite	ne
 564 0130 0023     		movne	r3, #0
 565 0132 0123     		moveq	r3, #1
 566 0134 4FF00600 		mov	r0, #6
 567 0138 1946     		mov	r1, r3
 568 013a FFF7FEFF 		bl	_test_assert
 569 013e 0346     		mov	r3, r0
 570 0140 002B     		cmp	r3, #0
 571 0142 71D1     		bne	.L8
 572              	.L15:
 573              		.loc 1 182 0
 574 0144 FFF7FEFF 		bl	test_wait_tick
 575              		.loc 1 183 0
 576 0148 40F20003 		movw	r3, #:lower16:vtlist
 577 014c C0F20003 		movt	r3, #:upper16:vtlist
 578 0150 DB68     		ldr	r3, [r3, #12]
 579 0152 03F59C63 		add	r3, r3, #1248
 580 0156 03F10203 		add	r3, r3, #2
 581 015a 0393     		str	r3, [sp, #12]
 582              		.loc 1 184 0
 583 015c 4FF00003 		mov	r3, #0
 584 0160 0593     		str	r3, [sp, #20]
 585 0162 48E0     		b	.L16
 586              	.L20:
 587              		.loc 1 185 0
 588 0164 059B     		ldr	r3, [sp, #20]
 589 0166 DBB2     		uxtb	r3, r3
 590 0168 03F14103 		add	r3, r3, #65
 591 016c DBB2     		uxtb	r3, r3
 592 016e 1846     		mov	r0, r3
 593 0170 FFF7FEFF 		bl	test_emit_token
 594              		.loc 1 186 0
 595 0174 40F20000 		movw	r0, #:lower16:sem1
 596 0178 C0F20000 		movt	r0, #:upper16:sem1
 597 017c 4FF0FA01 		mov	r1, #250
 598 0180 FFF7FEFF 		bl	chSemWaitTimeout
 599 0184 0490     		str	r0, [sp, #16]
 600              		.loc 1 187 0
 601 0186 049B     		ldr	r3, [sp, #16]
 602 0188 B3F1FF3F 		cmp	r3, #-1
 603 018c 14BF     		ite	ne
 604 018e 0023     		movne	r3, #0
 605 0190 0123     		moveq	r3, #1
 606 0192 4FF00700 		mov	r0, #7
 607 0196 1946     		mov	r1, r3
 608 0198 FFF7FEFF 		bl	_test_assert
 609 019c 0346     		mov	r3, r0
 610 019e 002B     		cmp	r3, #0
 611 01a0 42D1     		bne	.L8
 612              	.L17:
 613              		.loc 1 188 0
 614 01a2 40F20003 		movw	r3, #:lower16:sem1
ARM GAS  C:\Users\z80\AppData\Local\Temp\cczkIRrp.s 			page 12


 615 01a6 C0F20003 		movt	r3, #:upper16:sem1
 616 01aa 1A68     		ldr	r2, [r3, #0]
 617 01ac 40F20003 		movw	r3, #:lower16:sem1
 618 01b0 C0F20003 		movt	r3, #:upper16:sem1
 619 01b4 9A42     		cmp	r2, r3
 620 01b6 14BF     		ite	ne
 621 01b8 0023     		movne	r3, #0
 622 01ba 0123     		moveq	r3, #1
 623 01bc 4FF00800 		mov	r0, #8
 624 01c0 1946     		mov	r1, r3
 625 01c2 FFF7FEFF 		bl	_test_assert
 626 01c6 0346     		mov	r3, r0
 627 01c8 002B     		cmp	r3, #0
 628 01ca 2DD1     		bne	.L8
 629              	.L18:
 630              		.loc 1 189 0
 631 01cc 40F20003 		movw	r3, #:lower16:sem1
 632 01d0 C0F20003 		movt	r3, #:upper16:sem1
 633 01d4 9B68     		ldr	r3, [r3, #8]
 634 01d6 002B     		cmp	r3, #0
 635 01d8 14BF     		ite	ne
 636 01da 0023     		movne	r3, #0
 637 01dc 0123     		moveq	r3, #1
 638 01de 4FF00900 		mov	r0, #9
 639 01e2 1946     		mov	r1, r3
 640 01e4 FFF7FEFF 		bl	_test_assert
 641 01e8 0346     		mov	r3, r0
 642 01ea 002B     		cmp	r3, #0
 643 01ec 1CD1     		bne	.L8
 644              	.L19:
 645              		.loc 1 184 0
 646 01ee 059B     		ldr	r3, [sp, #20]
 647 01f0 03F10103 		add	r3, r3, #1
 648 01f4 0593     		str	r3, [sp, #20]
 649              	.L16:
 650              		.loc 1 184 0 is_stmt 0 discriminator 1
 651 01f6 059B     		ldr	r3, [sp, #20]
 652 01f8 042B     		cmp	r3, #4
 653 01fa B3DD     		ble	.L20
 654              		.loc 1 191 0 is_stmt 1
 655 01fc 4FF00A00 		mov	r0, #10
 656 0200 40F20001 		movw	r1, #:lower16:.LC5
 657 0204 C0F20001 		movt	r1, #:upper16:.LC5
 658 0208 FFF7FEFF 		bl	_test_assert_sequence
 659 020c 0346     		mov	r3, r0
 660 020e 002B     		cmp	r3, #0
 661 0210 0AD1     		bne	.L8
 662              	.L21:
 663              		.loc 1 192 0
 664 0212 039B     		ldr	r3, [sp, #12]
 665 0214 03F10303 		add	r3, r3, #3
 666 0218 4FF00B00 		mov	r0, #11
 667 021c 0399     		ldr	r1, [sp, #12]
 668 021e 1A46     		mov	r2, r3
 669 0220 FFF7FEFF 		bl	_test_assert_time_window
 670 0224 0346     		mov	r3, r0
 671 0226 002B     		cmp	r3, #0
ARM GAS  C:\Users\z80\AppData\Local\Temp\cczkIRrp.s 			page 13


 672              	.L8:
 673              		.loc 1 193 0
 674 0228 07B0     		add	sp, sp, #28
 675 022a 00BD     		pop	{pc}
 676              		.cfi_endproc
 677              	.LFE12:
 678              		.size	sem2_execute, .-sem2_execute
 679              		.global	testsem2
 680 022c AFF30080 		.section	.rodata
 681 0032 0000     		.align	2
 682              	.LC7:
 683 0034 53656D61 		.ascii	"Semaphores, timeout\000"
 683      70686F72 
 683      65732C20 
 683      74696D65 
 683      6F757400 
 684              		.section	.rodata.testsem2,"a",%progbits
 685              		.align	2
 686              		.type	testsem2, %object
 687              		.size	testsem2, 16
 688              	testsem2:
 689 0000 34000000 		.word	.LC7
 690 0004 00000000 		.word	sem2_setup
 691 0008 00000000 		.word	0
 692 000c 00000000 		.word	sem2_execute
 693              		.section	.text.sem3_setup,"ax",%progbits
 694              		.align	2
 695              		.p2align 4,,15
 696              		.thumb
 697              		.thumb_func
 698              		.type	sem3_setup, %function
 699              	sem3_setup:
 700              	.LFB13:
 701              		.loc 1 215 0
 702              		.cfi_startproc
 703              		@ args = 0, pretend = 0, frame = 0
 704              		@ frame_needed = 0, uses_anonymous_args = 0
 705 0000 08B5     		push	{r3, lr}
 706              	.LCFI10:
 707              		.cfi_def_cfa_offset 8
 708              		.cfi_offset 14, -4
 709              		.cfi_offset 3, -8
 710              		.loc 1 217 0
 711 0002 40F20000 		movw	r0, #:lower16:sem1
 712 0006 C0F20000 		movt	r0, #:upper16:sem1
 713 000a 4FF00001 		mov	r1, #0
 714 000e FFF7FEFF 		bl	chSemInit
 715              		.loc 1 218 0
 716 0012 08BD     		pop	{r3, pc}
 717              		.cfi_endproc
 718              	.LFE13:
 719              		.size	sem3_setup, .-sem3_setup
 720 0014 AFF30080 		.section	.text.thread3,"ax",%progbits
 720      AFF30080 
 720      AFF30080 
 721              		.align	2
 722              		.p2align 4,,15
ARM GAS  C:\Users\z80\AppData\Local\Temp\cczkIRrp.s 			page 14


 723              		.thumb
 724              		.thumb_func
 725              		.type	thread3, %function
 726              	thread3:
 727              	.LFB14:
 728              		.loc 1 220 0
 729              		.cfi_startproc
 730              		@ args = 0, pretend = 0, frame = 8
 731              		@ frame_needed = 0, uses_anonymous_args = 0
 732 0000 00B5     		push	{lr}
 733              	.LCFI11:
 734              		.cfi_def_cfa_offset 4
 735              		.cfi_offset 14, -4
 736 0002 83B0     		sub	sp, sp, #12
 737              	.LCFI12:
 738              		.cfi_def_cfa_offset 16
 739 0004 0190     		str	r0, [sp, #4]
 740              		.loc 1 223 0
 741 0006 40F20000 		movw	r0, #:lower16:sem1
 742 000a C0F20000 		movt	r0, #:upper16:sem1
 743 000e FFF7FEFF 		bl	chSemWait
 744              		.loc 1 224 0
 745 0012 40F20000 		movw	r0, #:lower16:sem1
 746 0016 C0F20000 		movt	r0, #:upper16:sem1
 747 001a FFF7FEFF 		bl	chSemSignal
 748              		.loc 1 225 0
 749 001e 4FF00003 		mov	r3, #0
 750              		.loc 1 226 0
 751 0022 1846     		mov	r0, r3
 752 0024 03B0     		add	sp, sp, #12
 753 0026 00BD     		pop	{pc}
 754              		.cfi_endproc
 755              	.LFE14:
 756              		.size	thread3, .-thread3
 757 0028 AFF30080 		.section	.text.sem3_execute,"ax",%progbits
 757      AFF30080 
 758              		.align	2
 759              		.p2align 4,,15
 760              		.thumb
 761              		.thumb_func
 762              		.type	sem3_execute, %function
 763              	sem3_execute:
 764              	.LFB15:
 765              		.loc 1 228 0
 766              		.cfi_startproc
 767              		@ args = 0, pretend = 0, frame = 0
 768              		@ frame_needed = 0, uses_anonymous_args = 0
 769 0000 00B5     		push	{lr}
 770              	.LCFI13:
 771              		.cfi_def_cfa_offset 4
 772              		.cfi_offset 14, -4
 773 0002 83B0     		sub	sp, sp, #12
 774              	.LCFI14:
 775              		.cfi_def_cfa_offset 16
 776              		.loc 1 230 0
 777 0004 40F20003 		movw	r3, #:lower16:wa
 778 0008 C0F20003 		movt	r3, #:upper16:wa
ARM GAS  C:\Users\z80\AppData\Local\Temp\cczkIRrp.s 			page 15


 779 000c 1A68     		ldr	r2, [r3, #0]
 780 000e 40F20003 		movw	r3, #:lower16:rlist
 781 0012 C0F20003 		movt	r3, #:upper16:rlist
 782 0016 DB69     		ldr	r3, [r3, #28]
 783 0018 9B68     		ldr	r3, [r3, #8]
 784 001a 03F10103 		add	r3, r3, #1
 785 001e 4FF00001 		mov	r1, #0
 786 0022 0091     		str	r1, [sp, #0]
 787 0024 1046     		mov	r0, r2
 788 0026 4FF49871 		mov	r1, #304
 789 002a 1A46     		mov	r2, r3
 790 002c 40F20003 		movw	r3, #:lower16:thread3
 791 0030 C0F20003 		movt	r3, #:upper16:thread3
 792 0034 FFF7FEFF 		bl	chThdCreateStatic
 793 0038 0246     		mov	r2, r0
 794 003a 40F20003 		movw	r3, #:lower16:threads
 795 003e C0F20003 		movt	r3, #:upper16:threads
 796 0042 1A60     		str	r2, [r3, #0]
 797              		.loc 1 231 0
 798 0044 40F20000 		movw	r0, #:lower16:sem1
 799 0048 C0F20000 		movt	r0, #:upper16:sem1
 800 004c 40F20001 		movw	r1, #:lower16:sem1
 801 0050 C0F20001 		movt	r1, #:upper16:sem1
 802 0054 FFF7FEFF 		bl	chSemSignalWait
 803              		.loc 1 232 0
 804 0058 40F20003 		movw	r3, #:lower16:sem1
 805 005c C0F20003 		movt	r3, #:upper16:sem1
 806 0060 1A68     		ldr	r2, [r3, #0]
 807 0062 40F20003 		movw	r3, #:lower16:sem1
 808 0066 C0F20003 		movt	r3, #:upper16:sem1
 809 006a 9A42     		cmp	r2, r3
 810 006c 14BF     		ite	ne
 811 006e 0023     		movne	r3, #0
 812 0070 0123     		moveq	r3, #1
 813 0072 4FF00100 		mov	r0, #1
 814 0076 1946     		mov	r1, r3
 815 0078 FFF7FEFF 		bl	_test_assert
 816 007c 0346     		mov	r3, r0
 817 007e 002B     		cmp	r3, #0
 818 0080 3FD1     		bne	.L24
 819              	.L25:
 820              		.loc 1 233 0
 821 0082 40F20003 		movw	r3, #:lower16:sem1
 822 0086 C0F20003 		movt	r3, #:upper16:sem1
 823 008a 9B68     		ldr	r3, [r3, #8]
 824 008c 002B     		cmp	r3, #0
 825 008e 14BF     		ite	ne
 826 0090 0023     		movne	r3, #0
 827 0092 0123     		moveq	r3, #1
 828 0094 4FF00200 		mov	r0, #2
 829 0098 1946     		mov	r1, r3
 830 009a FFF7FEFF 		bl	_test_assert
 831 009e 0346     		mov	r3, r0
 832 00a0 002B     		cmp	r3, #0
 833 00a2 2ED1     		bne	.L24
 834              	.L27:
 835              		.loc 1 235 0
ARM GAS  C:\Users\z80\AppData\Local\Temp\cczkIRrp.s 			page 16


 836 00a4 40F20000 		movw	r0, #:lower16:sem1
 837 00a8 C0F20000 		movt	r0, #:upper16:sem1
 838 00ac 40F20001 		movw	r1, #:lower16:sem1
 839 00b0 C0F20001 		movt	r1, #:upper16:sem1
 840 00b4 FFF7FEFF 		bl	chSemSignalWait
 841              		.loc 1 236 0
 842 00b8 40F20003 		movw	r3, #:lower16:sem1
 843 00bc C0F20003 		movt	r3, #:upper16:sem1
 844 00c0 1A68     		ldr	r2, [r3, #0]
 845 00c2 40F20003 		movw	r3, #:lower16:sem1
 846 00c6 C0F20003 		movt	r3, #:upper16:sem1
 847 00ca 9A42     		cmp	r2, r3
 848 00cc 14BF     		ite	ne
 849 00ce 0023     		movne	r3, #0
 850 00d0 0123     		moveq	r3, #1
 851 00d2 4FF00300 		mov	r0, #3
 852 00d6 1946     		mov	r1, r3
 853 00d8 FFF7FEFF 		bl	_test_assert
 854 00dc 0346     		mov	r3, r0
 855 00de 002B     		cmp	r3, #0
 856 00e0 0FD1     		bne	.L24
 857              	.L28:
 858              		.loc 1 237 0
 859 00e2 40F20003 		movw	r3, #:lower16:sem1
 860 00e6 C0F20003 		movt	r3, #:upper16:sem1
 861 00ea 9B68     		ldr	r3, [r3, #8]
 862 00ec 002B     		cmp	r3, #0
 863 00ee 14BF     		ite	ne
 864 00f0 0023     		movne	r3, #0
 865 00f2 0123     		moveq	r3, #1
 866 00f4 4FF00400 		mov	r0, #4
 867 00f8 1946     		mov	r1, r3
 868 00fa FFF7FEFF 		bl	_test_assert
 869 00fe 0346     		mov	r3, r0
 870 0100 002B     		cmp	r3, #0
 871              	.L24:
 872              		.loc 1 238 0
 873 0102 03B0     		add	sp, sp, #12
 874 0104 00BD     		pop	{pc}
 875              		.cfi_endproc
 876              	.LFE15:
 877              		.size	sem3_execute, .-sem3_execute
 878              		.global	testsem3
 879 0106 00BFAFF3 		.section	.rodata
 879      0080AFF3 
 879      0080
 880              		.align	2
 881              	.LC8:
 882 0048 53656D61 		.ascii	"Semaphores, atomic signal-wait\000"
 882      70686F72 
 882      65732C20 
 882      61746F6D 
 882      69632073 
 883              		.section	.rodata.testsem3,"a",%progbits
 884              		.align	2
 885              		.type	testsem3, %object
 886              		.size	testsem3, 16
ARM GAS  C:\Users\z80\AppData\Local\Temp\cczkIRrp.s 			page 17


 887              	testsem3:
 888 0000 48000000 		.word	.LC8
 889 0004 00000000 		.word	sem3_setup
 890 0008 00000000 		.word	0
 891 000c 00000000 		.word	sem3_execute
 892              		.section	.text.thread4,"ax",%progbits
 893              		.align	2
 894              		.p2align 4,,15
 895              		.thumb
 896              		.thumb_func
 897              		.type	thread4, %function
 898              	thread4:
 899              	.LFB16:
 900              		.loc 1 256 0
 901              		.cfi_startproc
 902              		@ args = 0, pretend = 0, frame = 8
 903              		@ frame_needed = 0, uses_anonymous_args = 0
 904 0000 00B5     		push	{lr}
 905              	.LCFI15:
 906              		.cfi_def_cfa_offset 4
 907              		.cfi_offset 14, -4
 908 0002 83B0     		sub	sp, sp, #12
 909              	.LCFI16:
 910              		.cfi_def_cfa_offset 16
 911 0004 0190     		str	r0, [sp, #4]
 912              	.LBB6:
 913              		.loc 1 258 0
 914 0006 4FF02003 		mov	r3, #32
 915              	@ 258 "../chibios_2.4.x/test/testsem.c" 1
 916 000a 83F31188 		msr     BASEPRI, r3
 917              	@ 0 "" 2
 918              		.thumb
 919              	.LBE6:
 920 000e FFF7FEFF 		bl	dbg_check_lock
 921 0012 019B     		ldr	r3, [sp, #4]
 922 0014 9B68     		ldr	r3, [r3, #8]
 923 0016 002B     		cmp	r3, #0
 924 0018 03DC     		bgt	.L30
 925              		.loc 1 258 0 is_stmt 0 discriminator 1
 926 001a 019B     		ldr	r3, [sp, #4]
 927 001c 1846     		mov	r0, r3
 928 001e FFF7FEFF 		bl	chSemSignalI
 929              	.L30:
 930              		.loc 1 258 0 discriminator 2
 931 0022 FFF7FEFF 		bl	chSchRescheduleS
 932 0026 FFF7FEFF 		bl	dbg_check_unlock
 933              	.LBB7:
 934 002a 4FF00003 		mov	r3, #0
 935              	@ 258 "../chibios_2.4.x/test/testsem.c" 1
 936 002e 83F31188 		msr     BASEPRI, r3
 937              	@ 0 "" 2
 938              		.thumb
 939              	.LBE7:
 940              		.loc 1 259 0 is_stmt 1 discriminator 2
 941 0032 4FF00003 		mov	r3, #0
 942              		.loc 1 260 0 discriminator 2
 943 0036 1846     		mov	r0, r3
ARM GAS  C:\Users\z80\AppData\Local\Temp\cczkIRrp.s 			page 18


 944 0038 03B0     		add	sp, sp, #12
 945 003a 00BD     		pop	{pc}
 946              		.cfi_endproc
 947              	.LFE16:
 948              		.size	thread4, .-thread4
 949 003c AFF30080 		.section	.text.sem4_execute,"ax",%progbits
 950              		.align	2
 951              		.p2align 4,,15
 952              		.thumb
 953              		.thumb_func
 954              		.type	sem4_execute, %function
 955              	sem4_execute:
 956              	.LFB17:
 957              		.loc 1 262 0
 958              		.cfi_startproc
 959              		@ args = 0, pretend = 0, frame = 16
 960              		@ frame_needed = 0, uses_anonymous_args = 0
 961 0000 00B5     		push	{lr}
 962              	.LCFI17:
 963              		.cfi_def_cfa_offset 4
 964              		.cfi_offset 14, -4
 965 0002 87B0     		sub	sp, sp, #28
 966              	.LCFI18:
 967              		.cfi_def_cfa_offset 32
 968              		.loc 1 266 0
 969 0004 03AB     		add	r3, sp, #12
 970 0006 1846     		mov	r0, r3
 971 0008 4FF00001 		mov	r1, #0
 972 000c FFF7FEFF 		bl	chSemInit
 973              		.loc 1 267 0
 974 0010 03AB     		add	r3, sp, #12
 975 0012 1846     		mov	r0, r3
 976 0014 4FF00001 		mov	r1, #0
 977 0018 FFF7FEFF 		bl	chSemReset
 978              		.loc 1 268 0
 979 001c 059B     		ldr	r3, [sp, #20]
 980 001e 002B     		cmp	r3, #0
 981 0020 CCBF     		ite	gt
 982 0022 0023     		movgt	r3, #0
 983 0024 0123     		movle	r3, #1
 984 0026 4FF00100 		mov	r0, #1
 985 002a 1946     		mov	r1, r3
 986 002c FFF7FEFF 		bl	_test_assert
 987 0030 0346     		mov	r3, r0
 988 0032 002B     		cmp	r3, #0
 989 0034 40F08D80 		bne	.L31
 990              	.L32:
 991              		.loc 1 271 0
 992 0038 40F20003 		movw	r3, #:lower16:wa
 993 003c C0F20003 		movt	r3, #:upper16:wa
 994 0040 1A68     		ldr	r2, [r3, #0]
 995              		.loc 1 272 0
 996 0042 40F20003 		movw	r3, #:lower16:rlist
 997 0046 C0F20003 		movt	r3, #:upper16:rlist
 998 004a DB69     		ldr	r3, [r3, #28]
 999 004c 9B68     		ldr	r3, [r3, #8]
 1000              		.loc 1 271 0
ARM GAS  C:\Users\z80\AppData\Local\Temp\cczkIRrp.s 			page 19


 1001 004e 03F1FF33 		add	r3, r3, #-1
 1002 0052 03A9     		add	r1, sp, #12
 1003 0054 0091     		str	r1, [sp, #0]
 1004 0056 1046     		mov	r0, r2
 1005 0058 4FF49871 		mov	r1, #304
 1006 005c 1A46     		mov	r2, r3
 1007 005e 40F20003 		movw	r3, #:lower16:thread4
 1008 0062 C0F20003 		movt	r3, #:upper16:thread4
 1009 0066 FFF7FEFF 		bl	chThdCreateStatic
 1010 006a 0246     		mov	r2, r0
 1011 006c 40F20003 		movw	r3, #:lower16:threads
 1012 0070 C0F20003 		movt	r3, #:upper16:threads
 1013 0074 1A60     		str	r2, [r3, #0]
 1014              		.loc 1 275 0
 1015 0076 03AB     		add	r3, sp, #12
 1016 0078 1846     		mov	r0, r3
 1017 007a FFF7FEFF 		bl	chSemWait
 1018              		.loc 1 278 0
 1019 007e 059B     		ldr	r3, [sp, #20]
 1020 0080 002B     		cmp	r3, #0
 1021 0082 CCBF     		ite	gt
 1022 0084 0023     		movgt	r3, #0
 1023 0086 0123     		movle	r3, #1
 1024 0088 4FF00200 		mov	r0, #2
 1025 008c 1946     		mov	r1, r3
 1026 008e FFF7FEFF 		bl	_test_assert
 1027 0092 0346     		mov	r3, r0
 1028 0094 002B     		cmp	r3, #0
 1029 0096 5CD1     		bne	.L31
 1030              	.L34:
 1031              	.LBB8:
 1032              		.loc 1 282 0
 1033 0098 4FF02003 		mov	r3, #32
 1034              	@ 282 "../chibios_2.4.x/test/testsem.c" 1
 1035 009c 83F31188 		msr     BASEPRI, r3
 1036              	@ 0 "" 2
 1037              		.thumb
 1038              	.LBE8:
 1039 00a0 FFF7FEFF 		bl	dbg_check_lock
 1040 00a4 059B     		ldr	r3, [sp, #20]
 1041 00a6 002B     		cmp	r3, #0
 1042 00a8 03DC     		bgt	.L35
 1043              		.loc 1 282 0 is_stmt 0 discriminator 1
 1044 00aa 03AB     		add	r3, sp, #12
 1045 00ac 1846     		mov	r0, r3
 1046 00ae FFF7FEFF 		bl	chSemSignalI
 1047              	.L35:
 1048              		.loc 1 282 0 discriminator 2
 1049 00b2 FFF7FEFF 		bl	chSchRescheduleS
 1050 00b6 FFF7FEFF 		bl	dbg_check_unlock
 1051              	.LBB9:
 1052 00ba 4FF00003 		mov	r3, #0
 1053              	@ 282 "../chibios_2.4.x/test/testsem.c" 1
 1054 00be 83F31188 		msr     BASEPRI, r3
 1055              	@ 0 "" 2
 1056              		.thumb
 1057              	.LBE9:
ARM GAS  C:\Users\z80\AppData\Local\Temp\cczkIRrp.s 			page 20


 1058              		.loc 1 283 0 is_stmt 1 discriminator 2
 1059 00c2 059B     		ldr	r3, [sp, #20]
 1060 00c4 002B     		cmp	r3, #0
 1061 00c6 D4BF     		ite	le
 1062 00c8 0023     		movle	r3, #0
 1063 00ca 0123     		movgt	r3, #1
 1064 00cc 4FF00300 		mov	r0, #3
 1065 00d0 1946     		mov	r1, r3
 1066 00d2 FFF7FEFF 		bl	_test_assert
 1067 00d6 0346     		mov	r3, r0
 1068 00d8 002B     		cmp	r3, #0
 1069 00da 3AD1     		bne	.L31
 1070              	.L36:
 1071              		.loc 1 284 0
 1072 00dc 059B     		ldr	r3, [sp, #20]
 1073 00de 012B     		cmp	r3, #1
 1074 00e0 14BF     		ite	ne
 1075 00e2 0023     		movne	r3, #0
 1076 00e4 0123     		moveq	r3, #1
 1077 00e6 4FF00400 		mov	r0, #4
 1078 00ea 1946     		mov	r1, r3
 1079 00ec FFF7FEFF 		bl	_test_assert
 1080 00f0 0346     		mov	r3, r0
 1081 00f2 002B     		cmp	r3, #0
 1082 00f4 2DD1     		bne	.L31
 1083              	.L37:
 1084              	.LBB10:
 1085              		.loc 1 287 0
 1086 00f6 4FF02003 		mov	r3, #32
 1087              	@ 287 "../chibios_2.4.x/test/testsem.c" 1
 1088 00fa 83F31188 		msr     BASEPRI, r3
 1089              	@ 0 "" 2
 1090              		.thumb
 1091              	.LBE10:
 1092 00fe FFF7FEFF 		bl	dbg_check_lock
 1093 0102 059B     		ldr	r3, [sp, #20]
 1094 0104 002B     		cmp	r3, #0
 1095 0106 03DC     		bgt	.L38
 1096              		.loc 1 287 0 is_stmt 0 discriminator 1
 1097 0108 03AB     		add	r3, sp, #12
 1098 010a 1846     		mov	r0, r3
 1099 010c FFF7FEFF 		bl	chSemSignalI
 1100              	.L38:
 1101              		.loc 1 287 0 discriminator 2
 1102 0110 FFF7FEFF 		bl	chSchRescheduleS
 1103 0114 FFF7FEFF 		bl	dbg_check_unlock
 1104              	.LBB11:
 1105 0118 4FF00003 		mov	r3, #0
 1106              	@ 287 "../chibios_2.4.x/test/testsem.c" 1
 1107 011c 83F31188 		msr     BASEPRI, r3
 1108              	@ 0 "" 2
 1109              		.thumb
 1110              	.LBE11:
 1111              		.loc 1 288 0 is_stmt 1 discriminator 2
 1112 0120 059B     		ldr	r3, [sp, #20]
 1113 0122 002B     		cmp	r3, #0
 1114 0124 D4BF     		ite	le
ARM GAS  C:\Users\z80\AppData\Local\Temp\cczkIRrp.s 			page 21


 1115 0126 0023     		movle	r3, #0
 1116 0128 0123     		movgt	r3, #1
 1117 012a 4FF00300 		mov	r0, #3
 1118 012e 1946     		mov	r1, r3
 1119 0130 FFF7FEFF 		bl	_test_assert
 1120 0134 0346     		mov	r3, r0
 1121 0136 002B     		cmp	r3, #0
 1122 0138 0BD1     		bne	.L31
 1123              	.L39:
 1124              		.loc 1 289 0
 1125 013a 059B     		ldr	r3, [sp, #20]
 1126 013c 012B     		cmp	r3, #1
 1127 013e 14BF     		ite	ne
 1128 0140 0023     		movne	r3, #0
 1129 0142 0123     		moveq	r3, #1
 1130 0144 4FF00500 		mov	r0, #5
 1131 0148 1946     		mov	r1, r3
 1132 014a FFF7FEFF 		bl	_test_assert
 1133 014e 0346     		mov	r3, r0
 1134 0150 002B     		cmp	r3, #0
 1135              	.L31:
 1136              		.loc 1 290 0
 1137 0152 07B0     		add	sp, sp, #28
 1138 0154 00BD     		pop	{pc}
 1139              		.cfi_endproc
 1140              	.LFE17:
 1141              		.size	sem4_execute, .-sem4_execute
 1142              		.global	testsem4
 1143 0156 00BFAFF3 		.section	.rodata
 1143      0080AFF3 
 1143      0080
 1144 0067 00       		.align	2
 1145              	.LC9:
 1146 0068 42696E61 		.ascii	"Binary Semaphores, functionality\000"
 1146      72792053 
 1146      656D6170 
 1146      686F7265 
 1146      732C2066 
 1147 0089 000000   		.section	.rodata.testsem4,"a",%progbits
 1148              		.align	2
 1149              		.type	testsem4, %object
 1150              		.size	testsem4, 16
 1151              	testsem4:
 1152 0000 68000000 		.word	.LC9
 1153 0004 00000000 		.word	0
 1154 0008 00000000 		.word	0
 1155 000c 00000000 		.word	sem4_execute
 1156              		.global	patternsem
 1157              		.section	.rodata.patternsem,"a",%progbits
 1158              		.align	2
 1159              		.type	patternsem, %object
 1160              		.size	patternsem, 20
 1161              	patternsem:
 1162 0000 00000000 		.word	testsem1
 1163 0004 00000000 		.word	testsem2
 1164 0008 00000000 		.word	testsem3
 1165 000c 00000000 		.word	testsem4
ARM GAS  C:\Users\z80\AppData\Local\Temp\cczkIRrp.s 			page 22


 1166 0010 00000000 		.word	0
 1167              		.text
 1168              	.Letext0:
 1169              		.file 2 "c:\\programs\\codesourcery\\2011.03-56\\bin\\../lib/gcc/arm-none-eabi/4.6.3/../../../../a
 1170              		.file 3 "../chibios_2.4.x/os/ports/GCC/ARMCMx/chtypes.h"
 1171              		.file 4 "../chibios_2.4.x/os/kernel/include/chlists.h"
 1172              		.file 5 "../chibios_2.4.x/os/kernel/include/chthreads.h"
 1173              		.file 6 "../chibios_2.4.x/os/ports/GCC/ARMCMx/chcore_v7m.h"
 1174              		.file 7 "../chibios_2.4.x/os/kernel/include/chvt.h"
 1175              		.file 8 "../chibios_2.4.x/os/kernel/include/chschd.h"
 1176              		.file 9 "../chibios_2.4.x/os/kernel/include/chsem.h"
 1177              		.file 10 "../chibios_2.4.x/os/kernel/include/chbsem.h"
 1178              		.file 11 "../chibios_2.4.x/os/kernel/include/chmtx.h"
 1179              		.file 12 "../chibios_2.4.x/test/test.h"
 1180              		.section	.debug_info,"",%progbits
 1181              	.Ldebug_info0:
 1182 0000 FC080000 		.4byte	0x8fc
 1183 0004 0200     		.2byte	0x2
 1184 0006 00000000 		.4byte	.Ldebug_abbrev0
 1185 000a 04       		.byte	0x4
 1186 000b 01       		.uleb128 0x1
 1187 000c 24030000 		.4byte	.LASF102
 1188 0010 01       		.byte	0x1
 1189 0011 CB020000 		.4byte	.LASF103
 1190 0015 7B000000 		.4byte	.LASF104
 1191 0019 00000000 		.4byte	0
 1192 001d 00000000 		.4byte	0
 1193 0021 00000000 		.4byte	.Ldebug_ranges0+0
 1194 0025 00000000 		.4byte	.Ldebug_line0
 1195 0029 02       		.uleb128 0x2
 1196 002a 04       		.byte	0x4
 1197 002b 05       		.byte	0x5
 1198 002c 696E7400 		.ascii	"int\000"
 1199 0030 03       		.uleb128 0x3
 1200 0031 04       		.byte	0x4
 1201 0032 07       		.byte	0x7
 1202 0033 1D010000 		.4byte	.LASF0
 1203 0037 03       		.uleb128 0x3
 1204 0038 01       		.byte	0x1
 1205 0039 06       		.byte	0x6
 1206 003a 5F000000 		.4byte	.LASF1
 1207 003e 04       		.uleb128 0x4
 1208 003f AF030000 		.4byte	.LASF5
 1209 0043 02       		.byte	0x2
 1210 0044 2A       		.byte	0x2a
 1211 0045 49000000 		.4byte	0x49
 1212 0049 03       		.uleb128 0x3
 1213 004a 01       		.byte	0x1
 1214 004b 08       		.byte	0x8
 1215 004c 84020000 		.4byte	.LASF2
 1216 0050 03       		.uleb128 0x3
 1217 0051 02       		.byte	0x2
 1218 0052 05       		.byte	0x5
 1219 0053 9C020000 		.4byte	.LASF3
 1220 0057 03       		.uleb128 0x3
 1221 0058 02       		.byte	0x2
 1222 0059 07       		.byte	0x7
ARM GAS  C:\Users\z80\AppData\Local\Temp\cczkIRrp.s 			page 23


 1223 005a 8F010000 		.4byte	.LASF4
 1224 005e 04       		.uleb128 0x4
 1225 005f 7C020000 		.4byte	.LASF6
 1226 0063 02       		.byte	0x2
 1227 0064 4F       		.byte	0x4f
 1228 0065 69000000 		.4byte	0x69
 1229 0069 03       		.uleb128 0x3
 1230 006a 04       		.byte	0x4
 1231 006b 05       		.byte	0x5
 1232 006c B5000000 		.4byte	.LASF7
 1233 0070 04       		.uleb128 0x4
 1234 0071 06030000 		.4byte	.LASF8
 1235 0075 02       		.byte	0x2
 1236 0076 50       		.byte	0x50
 1237 0077 7B000000 		.4byte	0x7b
 1238 007b 03       		.uleb128 0x3
 1239 007c 04       		.byte	0x4
 1240 007d 07       		.byte	0x7
 1241 007e 61010000 		.4byte	.LASF9
 1242 0082 03       		.uleb128 0x3
 1243 0083 08       		.byte	0x8
 1244 0084 05       		.byte	0x5
 1245 0085 51000000 		.4byte	.LASF10
 1246 0089 04       		.uleb128 0x4
 1247 008a 1A000000 		.4byte	.LASF11
 1248 008e 02       		.byte	0x2
 1249 008f 78       		.byte	0x78
 1250 0090 94000000 		.4byte	0x94
 1251 0094 03       		.uleb128 0x3
 1252 0095 08       		.byte	0x8
 1253 0096 07       		.byte	0x7
 1254 0097 2A000000 		.4byte	.LASF12
 1255 009b 04       		.uleb128 0x4
 1256 009c AD010000 		.4byte	.LASF13
 1257 00a0 03       		.byte	0x3
 1258 00a1 2F       		.byte	0x2f
 1259 00a2 3E000000 		.4byte	0x3e
 1260 00a6 04       		.uleb128 0x4
 1261 00a7 CA000000 		.4byte	.LASF14
 1262 00ab 03       		.byte	0x3
 1263 00ac 30       		.byte	0x30
 1264 00ad 3E000000 		.4byte	0x3e
 1265 00b1 04       		.uleb128 0x4
 1266 00b2 74020000 		.4byte	.LASF15
 1267 00b6 03       		.byte	0x3
 1268 00b7 32       		.byte	0x32
 1269 00b8 70000000 		.4byte	0x70
 1270 00bc 04       		.uleb128 0x4
 1271 00bd A7010000 		.4byte	.LASF16
 1272 00c1 03       		.byte	0x3
 1273 00c2 33       		.byte	0x33
 1274 00c3 5E000000 		.4byte	0x5e
 1275 00c7 04       		.uleb128 0x4
 1276 00c8 C1010000 		.4byte	.LASF17
 1277 00cc 03       		.byte	0x3
 1278 00cd 35       		.byte	0x35
 1279 00ce 70000000 		.4byte	0x70
ARM GAS  C:\Users\z80\AppData\Local\Temp\cczkIRrp.s 			page 24


 1280 00d2 04       		.uleb128 0x4
 1281 00d3 4C030000 		.4byte	.LASF18
 1282 00d7 03       		.byte	0x3
 1283 00d8 36       		.byte	0x36
 1284 00d9 70000000 		.4byte	0x70
 1285 00dd 04       		.uleb128 0x4
 1286 00de 0C010000 		.4byte	.LASF19
 1287 00e2 03       		.byte	0x3
 1288 00e3 37       		.byte	0x37
 1289 00e4 5E000000 		.4byte	0x5e
 1290 00e8 04       		.uleb128 0x4
 1291 00e9 EB020000 		.4byte	.LASF20
 1292 00ed 04       		.byte	0x4
 1293 00ee 2A       		.byte	0x2a
 1294 00ef F3000000 		.4byte	0xf3
 1295 00f3 05       		.uleb128 0x5
 1296 00f4 EB020000 		.4byte	.LASF20
 1297 00f8 48       		.byte	0x48
 1298 00f9 05       		.byte	0x5
 1299 00fa 5E       		.byte	0x5e
 1300 00fb FC010000 		.4byte	0x1fc
 1301 00ff 06       		.uleb128 0x6
 1302 0100 C4020000 		.4byte	.LASF21
 1303 0104 05       		.byte	0x5
 1304 0105 5F       		.byte	0x5f
 1305 0106 21020000 		.4byte	0x221
 1306 010a 02       		.byte	0x2
 1307 010b 23       		.byte	0x23
 1308 010c 00       		.uleb128 0
 1309 010d 06       		.uleb128 0x6
 1310 010e 65020000 		.4byte	.LASF22
 1311 0112 05       		.byte	0x5
 1312 0113 61       		.byte	0x61
 1313 0114 21020000 		.4byte	0x221
 1314 0118 02       		.byte	0x2
 1315 0119 23       		.byte	0x23
 1316 011a 04       		.uleb128 0x4
 1317 011b 06       		.uleb128 0x6
 1318 011c 4A000000 		.4byte	.LASF23
 1319 0120 05       		.byte	0x5
 1320 0121 63       		.byte	0x63
 1321 0122 B1000000 		.4byte	0xb1
 1322 0126 02       		.byte	0x2
 1323 0127 23       		.byte	0x23
 1324 0128 08       		.uleb128 0x8
 1325 0129 06       		.uleb128 0x6
 1326 012a F1030000 		.4byte	.LASF24
 1327 012e 05       		.byte	0x5
 1328 012f 64       		.byte	0x64
 1329 0130 F9020000 		.4byte	0x2f9
 1330 0134 02       		.byte	0x2
 1331 0135 23       		.byte	0x23
 1332 0136 0C       		.uleb128 0xc
 1333 0137 06       		.uleb128 0x6
 1334 0138 D3000000 		.4byte	.LASF25
 1335 013c 05       		.byte	0x5
 1336 013d 66       		.byte	0x66
ARM GAS  C:\Users\z80\AppData\Local\Temp\cczkIRrp.s 			page 25


 1337 013e 21020000 		.4byte	0x221
 1338 0142 02       		.byte	0x2
 1339 0143 23       		.byte	0x23
 1340 0144 10       		.uleb128 0x10
 1341 0145 06       		.uleb128 0x6
 1342 0146 0F020000 		.4byte	.LASF26
 1343 014a 05       		.byte	0x5
 1344 014b 67       		.byte	0x67
 1345 014c 21020000 		.4byte	0x221
 1346 0150 02       		.byte	0x2
 1347 0151 23       		.byte	0x23
 1348 0152 14       		.uleb128 0x14
 1349 0153 06       		.uleb128 0x6
 1350 0154 BE030000 		.4byte	.LASF27
 1351 0158 05       		.byte	0x5
 1352 0159 6E       		.byte	0x6e
 1353 015a 37050000 		.4byte	0x537
 1354 015e 02       		.byte	0x2
 1355 015f 23       		.byte	0x23
 1356 0160 18       		.uleb128 0x18
 1357 0161 06       		.uleb128 0x6
 1358 0162 12010000 		.4byte	.LASF28
 1359 0166 05       		.byte	0x5
 1360 0167 74       		.byte	0x74
 1361 0168 49050000 		.4byte	0x549
 1362 016c 02       		.byte	0x2
 1363 016d 23       		.byte	0x23
 1364 016e 1C       		.uleb128 0x1c
 1365 016f 06       		.uleb128 0x6
 1366 0170 A6020000 		.4byte	.LASF29
 1367 0174 05       		.byte	0x5
 1368 0175 79       		.byte	0x79
 1369 0176 A6000000 		.4byte	0xa6
 1370 017a 02       		.byte	0x2
 1371 017b 23       		.byte	0x23
 1372 017c 20       		.uleb128 0x20
 1373 017d 06       		.uleb128 0x6
 1374 017e D0030000 		.4byte	.LASF30
 1375 0182 05       		.byte	0x5
 1376 0183 7D       		.byte	0x7d
 1377 0184 9B000000 		.4byte	0x9b
 1378 0188 02       		.byte	0x2
 1379 0189 23       		.byte	0x23
 1380 018a 21       		.uleb128 0x21
 1381 018b 06       		.uleb128 0x6
 1382 018c 6A030000 		.4byte	.LASF31
 1383 0190 05       		.byte	0x5
 1384 0191 89       		.byte	0x89
 1385 0192 DE030000 		.4byte	0x3de
 1386 0196 02       		.byte	0x2
 1387 0197 23       		.byte	0x23
 1388 0198 24       		.uleb128 0x24
 1389 0199 07       		.uleb128 0x7
 1390 019a 705F7500 		.ascii	"p_u\000"
 1391 019e 05       		.byte	0x5
 1392 019f AE       		.byte	0xae
 1393 01a0 02050000 		.4byte	0x502
ARM GAS  C:\Users\z80\AppData\Local\Temp\cczkIRrp.s 			page 26


 1394 01a4 02       		.byte	0x2
 1395 01a5 23       		.byte	0x23
 1396 01a6 28       		.uleb128 0x28
 1397 01a7 06       		.uleb128 0x6
 1398 01a8 F7030000 		.4byte	.LASF32
 1399 01ac 05       		.byte	0x5
 1400 01ad B3       		.byte	0xb3
 1401 01ae 49020000 		.4byte	0x249
 1402 01b2 02       		.byte	0x2
 1403 01b3 23       		.byte	0x23
 1404 01b4 2C       		.uleb128 0x2c
 1405 01b5 06       		.uleb128 0x6
 1406 01b6 78030000 		.4byte	.LASF33
 1407 01ba 05       		.byte	0x5
 1408 01bb B9       		.byte	0xb9
 1409 01bc 27020000 		.4byte	0x227
 1410 01c0 02       		.byte	0x2
 1411 01c1 23       		.byte	0x23
 1412 01c2 30       		.uleb128 0x30
 1413 01c3 06       		.uleb128 0x6
 1414 01c4 00000000 		.4byte	.LASF34
 1415 01c8 05       		.byte	0x5
 1416 01c9 BD       		.byte	0xbd
 1417 01ca BC000000 		.4byte	0xbc
 1418 01ce 02       		.byte	0x2
 1419 01cf 23       		.byte	0x23
 1420 01d0 38       		.uleb128 0x38
 1421 01d1 06       		.uleb128 0x6
 1422 01d2 FB020000 		.4byte	.LASF35
 1423 01d6 05       		.byte	0x5
 1424 01d7 C3       		.byte	0xc3
 1425 01d8 C7000000 		.4byte	0xc7
 1426 01dc 02       		.byte	0x2
 1427 01dd 23       		.byte	0x23
 1428 01de 3C       		.uleb128 0x3c
 1429 01df 06       		.uleb128 0x6
 1430 01e0 92020000 		.4byte	.LASF36
 1431 01e4 05       		.byte	0x5
 1432 01e5 CA       		.byte	0xca
 1433 01e6 4F050000 		.4byte	0x54f
 1434 01ea 02       		.byte	0x2
 1435 01eb 23       		.byte	0x23
 1436 01ec 40       		.uleb128 0x40
 1437 01ed 06       		.uleb128 0x6
 1438 01ee 56030000 		.4byte	.LASF37
 1439 01f2 05       		.byte	0x5
 1440 01f3 CE       		.byte	0xce
 1441 01f4 B1000000 		.4byte	0xb1
 1442 01f8 02       		.byte	0x2
 1443 01f9 23       		.byte	0x23
 1444 01fa 44       		.uleb128 0x44
 1445 01fb 00       		.byte	0
 1446 01fc 08       		.uleb128 0x8
 1447 01fd 08       		.byte	0x8
 1448 01fe 04       		.byte	0x4
 1449 01ff 61       		.byte	0x61
 1450 0200 21020000 		.4byte	0x221
ARM GAS  C:\Users\z80\AppData\Local\Temp\cczkIRrp.s 			page 27


 1451 0204 06       		.uleb128 0x6
 1452 0205 C4020000 		.4byte	.LASF21
 1453 0209 04       		.byte	0x4
 1454 020a 62       		.byte	0x62
 1455 020b 21020000 		.4byte	0x221
 1456 020f 02       		.byte	0x2
 1457 0210 23       		.byte	0x23
 1458 0211 00       		.uleb128 0
 1459 0212 06       		.uleb128 0x6
 1460 0213 65020000 		.4byte	.LASF22
 1461 0217 04       		.byte	0x4
 1462 0218 64       		.byte	0x64
 1463 0219 21020000 		.4byte	0x221
 1464 021d 02       		.byte	0x2
 1465 021e 23       		.byte	0x23
 1466 021f 04       		.uleb128 0x4
 1467 0220 00       		.byte	0
 1468 0221 09       		.uleb128 0x9
 1469 0222 04       		.byte	0x4
 1470 0223 E8000000 		.4byte	0xe8
 1471 0227 04       		.uleb128 0x4
 1472 0228 35020000 		.4byte	.LASF38
 1473 022c 04       		.byte	0x4
 1474 022d 66       		.byte	0x66
 1475 022e FC010000 		.4byte	0x1fc
 1476 0232 08       		.uleb128 0x8
 1477 0233 04       		.byte	0x4
 1478 0234 04       		.byte	0x4
 1479 0235 6B       		.byte	0x6b
 1480 0236 49020000 		.4byte	0x249
 1481 023a 06       		.uleb128 0x6
 1482 023b C4020000 		.4byte	.LASF21
 1483 023f 04       		.byte	0x4
 1484 0240 6D       		.byte	0x6d
 1485 0241 21020000 		.4byte	0x221
 1486 0245 02       		.byte	0x2
 1487 0246 23       		.byte	0x23
 1488 0247 00       		.uleb128 0
 1489 0248 00       		.byte	0
 1490 0249 04       		.uleb128 0x4
 1491 024a B5010000 		.4byte	.LASF39
 1492 024e 04       		.byte	0x4
 1493 024f 70       		.byte	0x70
 1494 0250 32020000 		.4byte	0x232
 1495 0254 04       		.uleb128 0x4
 1496 0255 EB000000 		.4byte	.LASF40
 1497 0259 06       		.byte	0x6
 1498 025a D7       		.byte	0xd7
 1499 025b 5F020000 		.4byte	0x25f
 1500 025f 0A       		.uleb128 0xa
 1501 0260 04       		.byte	0x4
 1502 0261 04       		.uleb128 0x4
 1503 0262 D3010000 		.4byte	.LASF41
 1504 0266 06       		.byte	0x6
 1505 0267 DD       		.byte	0xdd
 1506 0268 89000000 		.4byte	0x89
 1507 026c 05       		.uleb128 0x5
ARM GAS  C:\Users\z80\AppData\Local\Temp\cczkIRrp.s 			page 28


 1508 026d 71030000 		.4byte	.LASF42
 1509 0271 24       		.byte	0x24
 1510 0272 06       		.byte	0x6
 1511 0273 FE       		.byte	0xfe
 1512 0274 F9020000 		.4byte	0x2f9
 1513 0278 0B       		.uleb128 0xb
 1514 0279 723400   		.ascii	"r4\000"
 1515 027c 06       		.byte	0x6
 1516 027d 1101     		.2byte	0x111
 1517 027f 54020000 		.4byte	0x254
 1518 0283 02       		.byte	0x2
 1519 0284 23       		.byte	0x23
 1520 0285 00       		.uleb128 0
 1521 0286 0B       		.uleb128 0xb
 1522 0287 723500   		.ascii	"r5\000"
 1523 028a 06       		.byte	0x6
 1524 028b 1201     		.2byte	0x112
 1525 028d 54020000 		.4byte	0x254
 1526 0291 02       		.byte	0x2
 1527 0292 23       		.byte	0x23
 1528 0293 04       		.uleb128 0x4
 1529 0294 0B       		.uleb128 0xb
 1530 0295 723600   		.ascii	"r6\000"
 1531 0298 06       		.byte	0x6
 1532 0299 1301     		.2byte	0x113
 1533 029b 54020000 		.4byte	0x254
 1534 029f 02       		.byte	0x2
 1535 02a0 23       		.byte	0x23
 1536 02a1 08       		.uleb128 0x8
 1537 02a2 0B       		.uleb128 0xb
 1538 02a3 723700   		.ascii	"r7\000"
 1539 02a6 06       		.byte	0x6
 1540 02a7 1401     		.2byte	0x114
 1541 02a9 54020000 		.4byte	0x254
 1542 02ad 02       		.byte	0x2
 1543 02ae 23       		.byte	0x23
 1544 02af 0C       		.uleb128 0xc
 1545 02b0 0B       		.uleb128 0xb
 1546 02b1 723800   		.ascii	"r8\000"
 1547 02b4 06       		.byte	0x6
 1548 02b5 1501     		.2byte	0x115
 1549 02b7 54020000 		.4byte	0x254
 1550 02bb 02       		.byte	0x2
 1551 02bc 23       		.byte	0x23
 1552 02bd 10       		.uleb128 0x10
 1553 02be 0B       		.uleb128 0xb
 1554 02bf 723900   		.ascii	"r9\000"
 1555 02c2 06       		.byte	0x6
 1556 02c3 1601     		.2byte	0x116
 1557 02c5 54020000 		.4byte	0x254
 1558 02c9 02       		.byte	0x2
 1559 02ca 23       		.byte	0x23
 1560 02cb 14       		.uleb128 0x14
 1561 02cc 0B       		.uleb128 0xb
 1562 02cd 72313000 		.ascii	"r10\000"
 1563 02d1 06       		.byte	0x6
 1564 02d2 1701     		.2byte	0x117
ARM GAS  C:\Users\z80\AppData\Local\Temp\cczkIRrp.s 			page 29


 1565 02d4 54020000 		.4byte	0x254
 1566 02d8 02       		.byte	0x2
 1567 02d9 23       		.byte	0x23
 1568 02da 18       		.uleb128 0x18
 1569 02db 0B       		.uleb128 0xb
 1570 02dc 72313100 		.ascii	"r11\000"
 1571 02e0 06       		.byte	0x6
 1572 02e1 1801     		.2byte	0x118
 1573 02e3 54020000 		.4byte	0x254
 1574 02e7 02       		.byte	0x2
 1575 02e8 23       		.byte	0x23
 1576 02e9 1C       		.uleb128 0x1c
 1577 02ea 0B       		.uleb128 0xb
 1578 02eb 6C7200   		.ascii	"lr\000"
 1579 02ee 06       		.byte	0x6
 1580 02ef 1901     		.2byte	0x119
 1581 02f1 54020000 		.4byte	0x254
 1582 02f5 02       		.byte	0x2
 1583 02f6 23       		.byte	0x23
 1584 02f7 20       		.uleb128 0x20
 1585 02f8 00       		.byte	0
 1586 02f9 0C       		.uleb128 0xc
 1587 02fa 87010000 		.4byte	.LASF43
 1588 02fe 04       		.byte	0x4
 1589 02ff 06       		.byte	0x6
 1590 0300 2301     		.2byte	0x123
 1591 0302 16030000 		.4byte	0x316
 1592 0306 0B       		.uleb128 0xb
 1593 0307 72313300 		.ascii	"r13\000"
 1594 030b 06       		.byte	0x6
 1595 030c 2401     		.2byte	0x124
 1596 030e 16030000 		.4byte	0x316
 1597 0312 02       		.byte	0x2
 1598 0313 23       		.byte	0x23
 1599 0314 00       		.uleb128 0
 1600 0315 00       		.byte	0
 1601 0316 09       		.uleb128 0x9
 1602 0317 04       		.byte	0x4
 1603 0318 6C020000 		.4byte	0x26c
 1604 031c 04       		.uleb128 0x4
 1605 031d 61030000 		.4byte	.LASF44
 1606 0321 07       		.byte	0x7
 1607 0322 53       		.byte	0x53
 1608 0323 27030000 		.4byte	0x327
 1609 0327 09       		.uleb128 0x9
 1610 0328 04       		.byte	0x4
 1611 0329 2D030000 		.4byte	0x32d
 1612 032d 0D       		.uleb128 0xd
 1613 032e 01       		.byte	0x1
 1614 032f 39030000 		.4byte	0x339
 1615 0333 0E       		.uleb128 0xe
 1616 0334 5F020000 		.4byte	0x25f
 1617 0338 00       		.byte	0
 1618 0339 04       		.uleb128 0x4
 1619 033a 17030000 		.4byte	.LASF45
 1620 033e 07       		.byte	0x7
 1621 033f 58       		.byte	0x58
ARM GAS  C:\Users\z80\AppData\Local\Temp\cczkIRrp.s 			page 30


 1622 0340 44030000 		.4byte	0x344
 1623 0344 05       		.uleb128 0x5
 1624 0345 17030000 		.4byte	.LASF45
 1625 0349 14       		.byte	0x14
 1626 034a 07       		.byte	0x7
 1627 034b 5F       		.byte	0x5f
 1628 034c 97030000 		.4byte	0x397
 1629 0350 06       		.uleb128 0x6
 1630 0351 2A010000 		.4byte	.LASF46
 1631 0355 07       		.byte	0x7
 1632 0356 60       		.byte	0x60
 1633 0357 97030000 		.4byte	0x397
 1634 035b 02       		.byte	0x2
 1635 035c 23       		.byte	0x23
 1636 035d 00       		.uleb128 0
 1637 035e 06       		.uleb128 0x6
 1638 035f F4000000 		.4byte	.LASF47
 1639 0363 07       		.byte	0x7
 1640 0364 62       		.byte	0x62
 1641 0365 97030000 		.4byte	0x397
 1642 0369 02       		.byte	0x2
 1643 036a 23       		.byte	0x23
 1644 036b 04       		.uleb128 0x4
 1645 036c 06       		.uleb128 0x6
 1646 036d F4010000 		.4byte	.LASF48
 1647 0371 07       		.byte	0x7
 1648 0372 64       		.byte	0x64
 1649 0373 D2000000 		.4byte	0xd2
 1650 0377 02       		.byte	0x2
 1651 0378 23       		.byte	0x23
 1652 0379 08       		.uleb128 0x8
 1653 037a 06       		.uleb128 0x6
 1654 037b FC010000 		.4byte	.LASF49
 1655 037f 07       		.byte	0x7
 1656 0380 65       		.byte	0x65
 1657 0381 1C030000 		.4byte	0x31c
 1658 0385 02       		.byte	0x2
 1659 0386 23       		.byte	0x23
 1660 0387 0C       		.uleb128 0xc
 1661 0388 06       		.uleb128 0x6
 1662 0389 83030000 		.4byte	.LASF50
 1663 038d 07       		.byte	0x7
 1664 038e 67       		.byte	0x67
 1665 038f 5F020000 		.4byte	0x25f
 1666 0393 02       		.byte	0x2
 1667 0394 23       		.byte	0x23
 1668 0395 10       		.uleb128 0x10
 1669 0396 00       		.byte	0
 1670 0397 09       		.uleb128 0x9
 1671 0398 04       		.byte	0x4
 1672 0399 39030000 		.4byte	0x339
 1673 039d 08       		.uleb128 0x8
 1674 039e 10       		.byte	0x10
 1675 039f 07       		.byte	0x7
 1676 03a0 71       		.byte	0x71
 1677 03a1 DE030000 		.4byte	0x3de
 1678 03a5 06       		.uleb128 0x6
ARM GAS  C:\Users\z80\AppData\Local\Temp\cczkIRrp.s 			page 31


 1679 03a6 2A010000 		.4byte	.LASF46
 1680 03aa 07       		.byte	0x7
 1681 03ab 72       		.byte	0x72
 1682 03ac 97030000 		.4byte	0x397
 1683 03b0 02       		.byte	0x2
 1684 03b1 23       		.byte	0x23
 1685 03b2 00       		.uleb128 0
 1686 03b3 06       		.uleb128 0x6
 1687 03b4 F4000000 		.4byte	.LASF47
 1688 03b8 07       		.byte	0x7
 1689 03b9 74       		.byte	0x74
 1690 03ba 97030000 		.4byte	0x397
 1691 03be 02       		.byte	0x2
 1692 03bf 23       		.byte	0x23
 1693 03c0 04       		.uleb128 0x4
 1694 03c1 06       		.uleb128 0x6
 1695 03c2 F4010000 		.4byte	.LASF48
 1696 03c6 07       		.byte	0x7
 1697 03c7 76       		.byte	0x76
 1698 03c8 D2000000 		.4byte	0xd2
 1699 03cc 02       		.byte	0x2
 1700 03cd 23       		.byte	0x23
 1701 03ce 08       		.uleb128 0x8
 1702 03cf 06       		.uleb128 0x6
 1703 03d0 C5030000 		.4byte	.LASF51
 1704 03d4 07       		.byte	0x7
 1705 03d5 77       		.byte	0x77
 1706 03d6 DE030000 		.4byte	0x3de
 1707 03da 02       		.byte	0x2
 1708 03db 23       		.byte	0x23
 1709 03dc 0C       		.uleb128 0xc
 1710 03dd 00       		.byte	0
 1711 03de 0F       		.uleb128 0xf
 1712 03df D2000000 		.4byte	0xd2
 1713 03e3 04       		.uleb128 0x4
 1714 03e4 D8030000 		.4byte	.LASF52
 1715 03e8 07       		.byte	0x7
 1716 03e9 78       		.byte	0x78
 1717 03ea 9D030000 		.4byte	0x39d
 1718 03ee 08       		.uleb128 0x8
 1719 03ef 20       		.byte	0x20
 1720 03f0 08       		.byte	0x8
 1721 03f1 5E       		.byte	0x5e
 1722 03f2 59040000 		.4byte	0x459
 1723 03f6 06       		.uleb128 0x6
 1724 03f7 0F030000 		.4byte	.LASF53
 1725 03fb 08       		.byte	0x8
 1726 03fc 5F       		.byte	0x5f
 1727 03fd 27020000 		.4byte	0x227
 1728 0401 02       		.byte	0x2
 1729 0402 23       		.byte	0x23
 1730 0403 00       		.uleb128 0
 1731 0404 06       		.uleb128 0x6
 1732 0405 B6020000 		.4byte	.LASF54
 1733 0409 08       		.byte	0x8
 1734 040a 60       		.byte	0x60
 1735 040b B1000000 		.4byte	0xb1
ARM GAS  C:\Users\z80\AppData\Local\Temp\cczkIRrp.s 			page 32


 1736 040f 02       		.byte	0x2
 1737 0410 23       		.byte	0x23
 1738 0411 08       		.uleb128 0x8
 1739 0412 06       		.uleb128 0x6
 1740 0413 27020000 		.4byte	.LASF55
 1741 0417 08       		.byte	0x8
 1742 0418 62       		.byte	0x62
 1743 0419 F9020000 		.4byte	0x2f9
 1744 041d 02       		.byte	0x2
 1745 041e 23       		.byte	0x23
 1746 041f 0C       		.uleb128 0xc
 1747 0420 06       		.uleb128 0x6
 1748 0421 E3000000 		.4byte	.LASF56
 1749 0425 08       		.byte	0x8
 1750 0426 65       		.byte	0x65
 1751 0427 21020000 		.4byte	0x221
 1752 042b 02       		.byte	0x2
 1753 042c 23       		.byte	0x23
 1754 042d 10       		.uleb128 0x10
 1755 042e 06       		.uleb128 0x6
 1756 042f 52020000 		.4byte	.LASF57
 1757 0433 08       		.byte	0x8
 1758 0434 66       		.byte	0x66
 1759 0435 21020000 		.4byte	0x221
 1760 0439 02       		.byte	0x2
 1761 043a 23       		.byte	0x23
 1762 043b 14       		.uleb128 0x14
 1763 043c 06       		.uleb128 0x6
 1764 043d DF030000 		.4byte	.LASF58
 1765 0441 08       		.byte	0x8
 1766 0442 6A       		.byte	0x6a
 1767 0443 DD000000 		.4byte	0xdd
 1768 0447 02       		.byte	0x2
 1769 0448 23       		.byte	0x23
 1770 0449 18       		.uleb128 0x18
 1771 044a 06       		.uleb128 0x6
 1772 044b 48020000 		.4byte	.LASF59
 1773 044f 08       		.byte	0x8
 1774 0450 6C       		.byte	0x6c
 1775 0451 21020000 		.4byte	0x221
 1776 0455 02       		.byte	0x2
 1777 0456 23       		.byte	0x23
 1778 0457 1C       		.uleb128 0x1c
 1779 0458 00       		.byte	0
 1780 0459 04       		.uleb128 0x4
 1781 045a 9F030000 		.4byte	.LASF60
 1782 045e 08       		.byte	0x8
 1783 045f 6E       		.byte	0x6e
 1784 0460 EE030000 		.4byte	0x3ee
 1785 0464 05       		.uleb128 0x5
 1786 0465 8A030000 		.4byte	.LASF61
 1787 0469 0C       		.byte	0xc
 1788 046a 09       		.byte	0x9
 1789 046b 2C       		.byte	0x2c
 1790 046c 8D040000 		.4byte	0x48d
 1791 0470 06       		.uleb128 0x6
 1792 0471 DB000000 		.4byte	.LASF62
ARM GAS  C:\Users\z80\AppData\Local\Temp\cczkIRrp.s 			page 33


 1793 0475 09       		.byte	0x9
 1794 0476 2D       		.byte	0x2d
 1795 0477 27020000 		.4byte	0x227
 1796 047b 02       		.byte	0x2
 1797 047c 23       		.byte	0x23
 1798 047d 00       		.uleb128 0
 1799 047e 06       		.uleb128 0x6
 1800 047f 81010000 		.4byte	.LASF63
 1801 0483 09       		.byte	0x9
 1802 0484 2F       		.byte	0x2f
 1803 0485 DD000000 		.4byte	0xdd
 1804 0489 02       		.byte	0x2
 1805 048a 23       		.byte	0x23
 1806 048b 08       		.uleb128 0x8
 1807 048c 00       		.byte	0
 1808 048d 04       		.uleb128 0x4
 1809 048e 8A030000 		.4byte	.LASF61
 1810 0492 09       		.byte	0x9
 1811 0493 30       		.byte	0x30
 1812 0494 64040000 		.4byte	0x464
 1813 0498 08       		.uleb128 0x8
 1814 0499 0C       		.byte	0xc
 1815 049a 0A       		.byte	0xa
 1816 049b 44       		.byte	0x44
 1817 049c AF040000 		.4byte	0x4af
 1818 04a0 06       		.uleb128 0x6
 1819 04a1 48010000 		.4byte	.LASF64
 1820 04a5 0A       		.byte	0xa
 1821 04a6 45       		.byte	0x45
 1822 04a7 8D040000 		.4byte	0x48d
 1823 04ab 02       		.byte	0x2
 1824 04ac 23       		.byte	0x23
 1825 04ad 00       		.uleb128 0
 1826 04ae 00       		.byte	0
 1827 04af 04       		.uleb128 0x4
 1828 04b0 35030000 		.4byte	.LASF65
 1829 04b4 0A       		.byte	0xa
 1830 04b5 46       		.byte	0x46
 1831 04b6 98040000 		.4byte	0x498
 1832 04ba 05       		.uleb128 0x5
 1833 04bb CD010000 		.4byte	.LASF66
 1834 04bf 10       		.byte	0x10
 1835 04c0 0B       		.byte	0xb
 1836 04c1 2C       		.byte	0x2c
 1837 04c2 F1040000 		.4byte	0x4f1
 1838 04c6 06       		.uleb128 0x6
 1839 04c7 6B000000 		.4byte	.LASF67
 1840 04cb 0B       		.byte	0xb
 1841 04cc 2D       		.byte	0x2d
 1842 04cd 27020000 		.4byte	0x227
 1843 04d1 02       		.byte	0x2
 1844 04d2 23       		.byte	0x23
 1845 04d3 00       		.uleb128 0
 1846 04d4 06       		.uleb128 0x6
 1847 04d5 E9030000 		.4byte	.LASF68
 1848 04d9 0B       		.byte	0xb
 1849 04da 2F       		.byte	0x2f
ARM GAS  C:\Users\z80\AppData\Local\Temp\cczkIRrp.s 			page 34


 1850 04db 21020000 		.4byte	0x221
 1851 04df 02       		.byte	0x2
 1852 04e0 23       		.byte	0x23
 1853 04e1 08       		.uleb128 0x8
 1854 04e2 06       		.uleb128 0x6
 1855 04e3 45030000 		.4byte	.LASF69
 1856 04e7 0B       		.byte	0xb
 1857 04e8 31       		.byte	0x31
 1858 04e9 F1040000 		.4byte	0x4f1
 1859 04ed 02       		.byte	0x2
 1860 04ee 23       		.byte	0x23
 1861 04ef 0C       		.uleb128 0xc
 1862 04f0 00       		.byte	0
 1863 04f1 09       		.uleb128 0x9
 1864 04f2 04       		.byte	0x4
 1865 04f3 BA040000 		.4byte	0x4ba
 1866 04f7 04       		.uleb128 0x4
 1867 04f8 CD010000 		.4byte	.LASF66
 1868 04fc 0B       		.byte	0xb
 1869 04fd 33       		.byte	0x33
 1870 04fe BA040000 		.4byte	0x4ba
 1871 0502 10       		.uleb128 0x10
 1872 0503 04       		.byte	0x4
 1873 0504 05       		.byte	0x5
 1874 0505 90       		.byte	0x90
 1875 0506 37050000 		.4byte	0x537
 1876 050a 11       		.uleb128 0x11
 1877 050b 06000000 		.4byte	.LASF70
 1878 050f 05       		.byte	0x5
 1879 0510 97       		.byte	0x97
 1880 0511 BC000000 		.4byte	0xbc
 1881 0515 11       		.uleb128 0x11
 1882 0516 41000000 		.4byte	.LASF71
 1883 051a 05       		.byte	0x5
 1884 051b 9E       		.byte	0x9e
 1885 051c BC000000 		.4byte	0xbc
 1886 0520 11       		.uleb128 0x11
 1887 0521 B7030000 		.4byte	.LASF72
 1888 0525 05       		.byte	0x5
 1889 0526 A5       		.byte	0xa5
 1890 0527 5F020000 		.4byte	0x25f
 1891 052b 11       		.uleb128 0x11
 1892 052c BD020000 		.4byte	.LASF73
 1893 0530 05       		.byte	0x5
 1894 0531 AC       		.byte	0xac
 1895 0532 C7000000 		.4byte	0xc7
 1896 0536 00       		.byte	0
 1897 0537 09       		.uleb128 0x9
 1898 0538 04       		.byte	0x4
 1899 0539 3D050000 		.4byte	0x53d
 1900 053d 12       		.uleb128 0x12
 1901 053e 42050000 		.4byte	0x542
 1902 0542 03       		.uleb128 0x3
 1903 0543 01       		.byte	0x1
 1904 0544 08       		.byte	0x8
 1905 0545 30030000 		.4byte	.LASF74
 1906 0549 09       		.uleb128 0x9
ARM GAS  C:\Users\z80\AppData\Local\Temp\cczkIRrp.s 			page 35


 1907 054a 04       		.byte	0x4
 1908 054b 61020000 		.4byte	0x261
 1909 054f 09       		.uleb128 0x9
 1910 0550 04       		.byte	0x4
 1911 0551 F7040000 		.4byte	0x4f7
 1912 0555 05       		.uleb128 0x5
 1913 0556 F2020000 		.4byte	.LASF75
 1914 055a 10       		.byte	0x10
 1915 055b 0C       		.byte	0xc
 1916 055c 46       		.byte	0x46
 1917 055d 9A050000 		.4byte	0x59a
 1918 0561 06       		.uleb128 0x6
 1919 0562 7C010000 		.4byte	.LASF76
 1920 0566 0C       		.byte	0xc
 1921 0567 47       		.byte	0x47
 1922 0568 37050000 		.4byte	0x537
 1923 056c 02       		.byte	0x2
 1924 056d 23       		.byte	0x23
 1925 056e 00       		.uleb128 0
 1926 056f 06       		.uleb128 0x6
 1927 0570 42020000 		.4byte	.LASF77
 1928 0574 0C       		.byte	0xc
 1929 0575 48       		.byte	0x48
 1930 0576 9C050000 		.4byte	0x59c
 1931 057a 02       		.byte	0x2
 1932 057b 23       		.byte	0x23
 1933 057c 04       		.uleb128 0x4
 1934 057d 06       		.uleb128 0x6
 1935 057e 73010000 		.4byte	.LASF78
 1936 0582 0C       		.byte	0xc
 1937 0583 49       		.byte	0x49
 1938 0584 9C050000 		.4byte	0x59c
 1939 0588 02       		.byte	0x2
 1940 0589 23       		.byte	0x23
 1941 058a 08       		.uleb128 0x8
 1942 058b 06       		.uleb128 0x6
 1943 058c 6C020000 		.4byte	.LASF79
 1944 0590 0C       		.byte	0xc
 1945 0591 4A       		.byte	0x4a
 1946 0592 9C050000 		.4byte	0x59c
 1947 0596 02       		.byte	0x2
 1948 0597 23       		.byte	0x23
 1949 0598 0C       		.uleb128 0xc
 1950 0599 00       		.byte	0
 1951 059a 13       		.uleb128 0x13
 1952 059b 01       		.byte	0x1
 1953 059c 09       		.uleb128 0x9
 1954 059d 04       		.byte	0x4
 1955 059e 9A050000 		.4byte	0x59a
 1956 05a2 14       		.uleb128 0x14
 1957 05a3 04020000 		.4byte	.LASF80
 1958 05a7 01       		.byte	0x1
 1959 05a8 53       		.byte	0x53
 1960 05a9 01       		.byte	0x1
 1961 05aa 00000000 		.4byte	.LFB7
 1962 05ae 14000000 		.4byte	.LFE7
 1963 05b2 00000000 		.4byte	.LLST0
ARM GAS  C:\Users\z80\AppData\Local\Temp\cczkIRrp.s 			page 36


 1964 05b6 15       		.uleb128 0x15
 1965 05b7 17020000 		.4byte	.LASF82
 1966 05bb 01       		.byte	0x1
 1967 05bc 58       		.byte	0x58
 1968 05bd 01       		.byte	0x1
 1969 05be BC000000 		.4byte	0xbc
 1970 05c2 00000000 		.4byte	.LFB8
 1971 05c6 26000000 		.4byte	.LFE8
 1972 05ca 20000000 		.4byte	.LLST1
 1973 05ce DF050000 		.4byte	0x5df
 1974 05d2 16       		.uleb128 0x16
 1975 05d3 7000     		.ascii	"p\000"
 1976 05d5 01       		.byte	0x1
 1977 05d6 58       		.byte	0x58
 1978 05d7 5F020000 		.4byte	0x25f
 1979 05db 02       		.byte	0x2
 1980 05dc 91       		.byte	0x91
 1981 05dd 74       		.sleb128 -12
 1982 05de 00       		.byte	0
 1983 05df 17       		.uleb128 0x17
 1984 05e0 0D000000 		.4byte	.LASF84
 1985 05e4 01       		.byte	0x1
 1986 05e5 5F       		.byte	0x5f
 1987 05e6 01       		.byte	0x1
 1988 05e7 00000000 		.4byte	.LFB9
 1989 05eb 36020000 		.4byte	.LFE9
 1990 05ef 4C000000 		.4byte	.LLST2
 1991 05f3 2A060000 		.4byte	0x62a
 1992 05f7 18       		.uleb128 0x18
 1993 05f8 E6010000 		.4byte	.LBB2
 1994 05fc EE010000 		.4byte	.LBE2
 1995 0600 12060000 		.4byte	0x612
 1996 0604 19       		.uleb128 0x19
 1997 0605 746D7000 		.ascii	"tmp\000"
 1998 0609 01       		.byte	0x1
 1999 060a 72       		.byte	0x72
 2000 060b 70000000 		.4byte	0x70
 2001 060f 01       		.byte	0x1
 2002 0610 53       		.byte	0x53
 2003 0611 00       		.byte	0
 2004 0612 1A       		.uleb128 0x1a
 2005 0613 06020000 		.4byte	.LBB3
 2006 0617 0E020000 		.4byte	.LBE3
 2007 061b 19       		.uleb128 0x19
 2008 061c 746D7000 		.ascii	"tmp\000"
 2009 0620 01       		.byte	0x1
 2010 0621 74       		.byte	0x74
 2011 0622 70000000 		.4byte	0x70
 2012 0626 01       		.byte	0x1
 2013 0627 53       		.byte	0x53
 2014 0628 00       		.byte	0
 2015 0629 00       		.byte	0
 2016 062a 14       		.uleb128 0x14
 2017 062b FC000000 		.4byte	.LASF81
 2018 062f 01       		.byte	0x1
 2019 0630 8B       		.byte	0x8b
 2020 0631 01       		.byte	0x1
ARM GAS  C:\Users\z80\AppData\Local\Temp\cczkIRrp.s 			page 37


 2021 0632 00000000 		.4byte	.LFB10
 2022 0636 14000000 		.4byte	.LFE10
 2023 063a 78000000 		.4byte	.LLST3
 2024 063e 15       		.uleb128 0x15
 2025 063f 1F020000 		.4byte	.LASF83
 2026 0643 01       		.byte	0x1
 2027 0644 90       		.byte	0x90
 2028 0645 01       		.byte	0x1
 2029 0646 BC000000 		.4byte	0xbc
 2030 064a 00000000 		.4byte	.LFB11
 2031 064e 40000000 		.4byte	.LFE11
 2032 0652 98000000 		.4byte	.LLST4
 2033 0656 99060000 		.4byte	0x699
 2034 065a 16       		.uleb128 0x16
 2035 065b 7000     		.ascii	"p\000"
 2036 065d 01       		.byte	0x1
 2037 065e 90       		.byte	0x90
 2038 065f 5F020000 		.4byte	0x25f
 2039 0663 02       		.byte	0x2
 2040 0664 91       		.byte	0x91
 2041 0665 74       		.sleb128 -12
 2042 0666 18       		.uleb128 0x18
 2043 0667 0E000000 		.4byte	.LBB4
 2044 066b 16000000 		.4byte	.LBE4
 2045 066f 81060000 		.4byte	0x681
 2046 0673 19       		.uleb128 0x19
 2047 0674 746D7000 		.ascii	"tmp\000"
 2048 0678 01       		.byte	0x1
 2049 0679 94       		.byte	0x94
 2050 067a 70000000 		.4byte	0x70
 2051 067e 01       		.byte	0x1
 2052 067f 53       		.byte	0x53
 2053 0680 00       		.byte	0
 2054 0681 1A       		.uleb128 0x1a
 2055 0682 2E000000 		.4byte	.LBB5
 2056 0686 36000000 		.4byte	.LBE5
 2057 068a 19       		.uleb128 0x19
 2058 068b 746D7000 		.ascii	"tmp\000"
 2059 068f 01       		.byte	0x1
 2060 0690 97       		.byte	0x97
 2061 0691 70000000 		.4byte	0x70
 2062 0695 01       		.byte	0x1
 2063 0696 53       		.byte	0x53
 2064 0697 00       		.byte	0
 2065 0698 00       		.byte	0
 2066 0699 17       		.uleb128 0x17
 2067 069a A8000000 		.4byte	.LASF85
 2068 069e 01       		.byte	0x1
 2069 069f 9B       		.byte	0x9b
 2070 06a0 01       		.byte	0x1
 2071 06a1 00000000 		.4byte	.LFB12
 2072 06a5 2C020000 		.4byte	.LFE12
 2073 06a9 C4000000 		.4byte	.LLST5
 2074 06ad DA060000 		.4byte	0x6da
 2075 06b1 19       		.uleb128 0x19
 2076 06b2 6900     		.ascii	"i\000"
 2077 06b4 01       		.byte	0x1
ARM GAS  C:\Users\z80\AppData\Local\Temp\cczkIRrp.s 			page 38


 2078 06b5 9C       		.byte	0x9c
 2079 06b6 29000000 		.4byte	0x29
 2080 06ba 02       		.byte	0x2
 2081 06bb 91       		.byte	0x91
 2082 06bc 74       		.sleb128 -12
 2083 06bd 1B       		.uleb128 0x1b
 2084 06be BE000000 		.4byte	.LASF86
 2085 06c2 01       		.byte	0x1
 2086 06c3 9D       		.byte	0x9d
 2087 06c4 D2000000 		.4byte	0xd2
 2088 06c8 02       		.byte	0x2
 2089 06c9 91       		.byte	0x91
 2090 06ca 6C       		.sleb128 -20
 2091 06cb 19       		.uleb128 0x19
 2092 06cc 6D736700 		.ascii	"msg\000"
 2093 06d0 01       		.byte	0x1
 2094 06d1 9E       		.byte	0x9e
 2095 06d2 BC000000 		.4byte	0xbc
 2096 06d6 02       		.byte	0x2
 2097 06d7 91       		.byte	0x91
 2098 06d8 70       		.sleb128 -16
 2099 06d9 00       		.byte	0
 2100 06da 14       		.uleb128 0x14
 2101 06db 94030000 		.4byte	.LASF87
 2102 06df 01       		.byte	0x1
 2103 06e0 D7       		.byte	0xd7
 2104 06e1 01       		.byte	0x1
 2105 06e2 00000000 		.4byte	.LFB13
 2106 06e6 14000000 		.4byte	.LFE13
 2107 06ea F0000000 		.4byte	.LLST6
 2108 06ee 15       		.uleb128 0x15
 2109 06ef 73000000 		.4byte	.LASF88
 2110 06f3 01       		.byte	0x1
 2111 06f4 DC       		.byte	0xdc
 2112 06f5 01       		.byte	0x1
 2113 06f6 BC000000 		.4byte	0xbc
 2114 06fa 00000000 		.4byte	.LFB14
 2115 06fe 28000000 		.4byte	.LFE14
 2116 0702 10010000 		.4byte	.LLST7
 2117 0706 17070000 		.4byte	0x717
 2118 070a 16       		.uleb128 0x16
 2119 070b 7000     		.ascii	"p\000"
 2120 070d 01       		.byte	0x1
 2121 070e DC       		.byte	0xdc
 2122 070f 5F020000 		.4byte	0x25f
 2123 0713 02       		.byte	0x2
 2124 0714 91       		.byte	0x91
 2125 0715 74       		.sleb128 -12
 2126 0716 00       		.byte	0
 2127 0717 14       		.uleb128 0x14
 2128 0718 32010000 		.4byte	.LASF89
 2129 071c 01       		.byte	0x1
 2130 071d E4       		.byte	0xe4
 2131 071e 01       		.byte	0x1
 2132 071f 00000000 		.4byte	.LFB15
 2133 0723 06010000 		.4byte	.LFE15
 2134 0727 3C010000 		.4byte	.LLST8
ARM GAS  C:\Users\z80\AppData\Local\Temp\cczkIRrp.s 			page 39


 2135 072b 1C       		.uleb128 0x1c
 2136 072c 2D020000 		.4byte	.LASF90
 2137 0730 01       		.byte	0x1
 2138 0731 0001     		.2byte	0x100
 2139 0733 01       		.byte	0x1
 2140 0734 BC000000 		.4byte	0xbc
 2141 0738 00000000 		.4byte	.LFB16
 2142 073c 3C000000 		.4byte	.LFE16
 2143 0740 68010000 		.4byte	.LLST9
 2144 0744 8A070000 		.4byte	0x78a
 2145 0748 1D       		.uleb128 0x1d
 2146 0749 7000     		.ascii	"p\000"
 2147 074b 01       		.byte	0x1
 2148 074c 0001     		.2byte	0x100
 2149 074e 5F020000 		.4byte	0x25f
 2150 0752 02       		.byte	0x2
 2151 0753 91       		.byte	0x91
 2152 0754 74       		.sleb128 -12
 2153 0755 18       		.uleb128 0x18
 2154 0756 06000000 		.4byte	.LBB6
 2155 075a 0E000000 		.4byte	.LBE6
 2156 075e 71070000 		.4byte	0x771
 2157 0762 1E       		.uleb128 0x1e
 2158 0763 746D7000 		.ascii	"tmp\000"
 2159 0767 01       		.byte	0x1
 2160 0768 0201     		.2byte	0x102
 2161 076a 70000000 		.4byte	0x70
 2162 076e 01       		.byte	0x1
 2163 076f 53       		.byte	0x53
 2164 0770 00       		.byte	0
 2165 0771 1A       		.uleb128 0x1a
 2166 0772 2A000000 		.4byte	.LBB7
 2167 0776 32000000 		.4byte	.LBE7
 2168 077a 1E       		.uleb128 0x1e
 2169 077b 746D7000 		.ascii	"tmp\000"
 2170 077f 01       		.byte	0x1
 2171 0780 0201     		.2byte	0x102
 2172 0782 70000000 		.4byte	0x70
 2173 0786 01       		.byte	0x1
 2174 0787 53       		.byte	0x53
 2175 0788 00       		.byte	0
 2176 0789 00       		.byte	0
 2177 078a 1F       		.uleb128 0x1f
 2178 078b E7010000 		.4byte	.LASF91
 2179 078f 01       		.byte	0x1
 2180 0790 0601     		.2byte	0x106
 2181 0792 01       		.byte	0x1
 2182 0793 00000000 		.4byte	.LFB17
 2183 0797 56010000 		.4byte	.LFE17
 2184 079b 94010000 		.4byte	.LLST10
 2185 079f 1F080000 		.4byte	0x81f
 2186 07a3 20       		.uleb128 0x20
 2187 07a4 A2010000 		.4byte	.LASF92
 2188 07a8 01       		.byte	0x1
 2189 07a9 0701     		.2byte	0x107
 2190 07ab AF040000 		.4byte	0x4af
 2191 07af 02       		.byte	0x2
ARM GAS  C:\Users\z80\AppData\Local\Temp\cczkIRrp.s 			page 40


 2192 07b0 91       		.byte	0x91
 2193 07b1 6C       		.sleb128 -20
 2194 07b2 18       		.uleb128 0x18
 2195 07b3 98000000 		.4byte	.LBB8
 2196 07b7 A0000000 		.4byte	.LBE8
 2197 07bb CE070000 		.4byte	0x7ce
 2198 07bf 1E       		.uleb128 0x1e
 2199 07c0 746D7000 		.ascii	"tmp\000"
 2200 07c4 01       		.byte	0x1
 2201 07c5 1A01     		.2byte	0x11a
 2202 07c7 70000000 		.4byte	0x70
 2203 07cb 01       		.byte	0x1
 2204 07cc 53       		.byte	0x53
 2205 07cd 00       		.byte	0
 2206 07ce 18       		.uleb128 0x18
 2207 07cf BA000000 		.4byte	.LBB9
 2208 07d3 C2000000 		.4byte	.LBE9
 2209 07d7 EA070000 		.4byte	0x7ea
 2210 07db 1E       		.uleb128 0x1e
 2211 07dc 746D7000 		.ascii	"tmp\000"
 2212 07e0 01       		.byte	0x1
 2213 07e1 1A01     		.2byte	0x11a
 2214 07e3 70000000 		.4byte	0x70
 2215 07e7 01       		.byte	0x1
 2216 07e8 53       		.byte	0x53
 2217 07e9 00       		.byte	0
 2218 07ea 18       		.uleb128 0x18
 2219 07eb F6000000 		.4byte	.LBB10
 2220 07ef FE000000 		.4byte	.LBE10
 2221 07f3 06080000 		.4byte	0x806
 2222 07f7 1E       		.uleb128 0x1e
 2223 07f8 746D7000 		.ascii	"tmp\000"
 2224 07fc 01       		.byte	0x1
 2225 07fd 1F01     		.2byte	0x11f
 2226 07ff 70000000 		.4byte	0x70
 2227 0803 01       		.byte	0x1
 2228 0804 53       		.byte	0x53
 2229 0805 00       		.byte	0
 2230 0806 1A       		.uleb128 0x1a
 2231 0807 18010000 		.4byte	.LBB11
 2232 080b 20010000 		.4byte	.LBE11
 2233 080f 1E       		.uleb128 0x1e
 2234 0810 746D7000 		.ascii	"tmp\000"
 2235 0814 01       		.byte	0x1
 2236 0815 1F01     		.2byte	0x11f
 2237 0817 70000000 		.4byte	0x70
 2238 081b 01       		.byte	0x1
 2239 081c 53       		.byte	0x53
 2240 081d 00       		.byte	0
 2241 081e 00       		.byte	0
 2242 081f 1B       		.uleb128 0x1b
 2243 0820 07010000 		.4byte	.LASF93
 2244 0824 01       		.byte	0x1
 2245 0825 46       		.byte	0x46
 2246 0826 8D040000 		.4byte	0x48d
 2247 082a 05       		.byte	0x5
 2248 082b 03       		.byte	0x3
ARM GAS  C:\Users\z80\AppData\Local\Temp\cczkIRrp.s 			page 41


 2249 082c 00000000 		.4byte	sem1
 2250 0830 21       		.uleb128 0x21
 2251 0831 23000000 		.4byte	.LASF94
 2252 0835 07       		.byte	0x7
 2253 0836 7A       		.byte	0x7a
 2254 0837 E3030000 		.4byte	0x3e3
 2255 083b 01       		.byte	0x1
 2256 083c 01       		.byte	0x1
 2257 083d 21       		.uleb128 0x21
 2258 083e A9030000 		.4byte	.LASF95
 2259 0842 08       		.byte	0x8
 2260 0843 72       		.byte	0x72
 2261 0844 59040000 		.4byte	0x459
 2262 0848 01       		.byte	0x1
 2263 0849 01       		.byte	0x1
 2264 084a 22       		.uleb128 0x22
 2265 084b 21020000 		.4byte	0x221
 2266 084f 5A080000 		.4byte	0x85a
 2267 0853 23       		.uleb128 0x23
 2268 0854 30000000 		.4byte	0x30
 2269 0858 04       		.byte	0x4
 2270 0859 00       		.byte	0
 2271 085a 21       		.uleb128 0x21
 2272 085b AE020000 		.4byte	.LASF96
 2273 085f 0C       		.byte	0xc
 2274 0860 B0       		.byte	0xb0
 2275 0861 4A080000 		.4byte	0x84a
 2276 0865 01       		.byte	0x1
 2277 0866 01       		.byte	0x1
 2278 0867 22       		.uleb128 0x22
 2279 0868 5F020000 		.4byte	0x25f
 2280 086c 72080000 		.4byte	0x872
 2281 0870 24       		.uleb128 0x24
 2282 0871 00       		.byte	0
 2283 0872 25       		.uleb128 0x25
 2284 0873 776100   		.ascii	"wa\000"
 2285 0876 0C       		.byte	0xc
 2286 0877 B2       		.byte	0xb2
 2287 0878 7E080000 		.4byte	0x87e
 2288 087c 01       		.byte	0x1
 2289 087d 01       		.byte	0x1
 2290 087e 12       		.uleb128 0x12
 2291 087f 67080000 		.4byte	0x867
 2292 0883 26       		.uleb128 0x26
 2293 0884 3F010000 		.4byte	.LASF97
 2294 0888 01       		.byte	0x1
 2295 0889 79       		.byte	0x79
 2296 088a 95080000 		.4byte	0x895
 2297 088e 01       		.byte	0x1
 2298 088f 05       		.byte	0x5
 2299 0890 03       		.byte	0x3
 2300 0891 00000000 		.4byte	testsem1
 2301 0895 12       		.uleb128 0x12
 2302 0896 55050000 		.4byte	0x555
 2303 089a 26       		.uleb128 0x26
 2304 089b DE010000 		.4byte	.LASF98
 2305 089f 01       		.byte	0x1
ARM GAS  C:\Users\z80\AppData\Local\Temp\cczkIRrp.s 			page 42


 2306 08a0 C3       		.byte	0xc3
 2307 08a1 95080000 		.4byte	0x895
 2308 08a5 01       		.byte	0x1
 2309 08a6 05       		.byte	0x5
 2310 08a7 03       		.byte	0x3
 2311 08a8 00000000 		.4byte	testsem2
 2312 08ac 26       		.uleb128 0x26
 2313 08ad 4F010000 		.4byte	.LASF99
 2314 08b1 01       		.byte	0x1
 2315 08b2 F0       		.byte	0xf0
 2316 08b3 95080000 		.4byte	0x895
 2317 08b7 01       		.byte	0x1
 2318 08b8 05       		.byte	0x5
 2319 08b9 03       		.byte	0x3
 2320 08ba 00000000 		.4byte	testsem3
 2321 08be 27       		.uleb128 0x27
 2322 08bf 58010000 		.4byte	.LASF100
 2323 08c3 01       		.byte	0x1
 2324 08c4 2401     		.2byte	0x124
 2325 08c6 95080000 		.4byte	0x895
 2326 08ca 01       		.byte	0x1
 2327 08cb 05       		.byte	0x5
 2328 08cc 03       		.byte	0x3
 2329 08cd 00000000 		.4byte	testsem4
 2330 08d1 22       		.uleb128 0x22
 2331 08d2 E1080000 		.4byte	0x8e1
 2332 08d6 E1080000 		.4byte	0x8e1
 2333 08da 23       		.uleb128 0x23
 2334 08db 30000000 		.4byte	0x30
 2335 08df 04       		.byte	0x4
 2336 08e0 00       		.byte	0
 2337 08e1 09       		.uleb128 0x9
 2338 08e2 04       		.byte	0x4
 2339 08e3 95080000 		.4byte	0x895
 2340 08e7 27       		.uleb128 0x27
 2341 08e8 5A020000 		.4byte	.LASF101
 2342 08ec 01       		.byte	0x1
 2343 08ed 2F01     		.2byte	0x12f
 2344 08ef FA080000 		.4byte	0x8fa
 2345 08f3 01       		.byte	0x1
 2346 08f4 05       		.byte	0x5
 2347 08f5 03       		.byte	0x3
 2348 08f6 00000000 		.4byte	patternsem
 2349 08fa 12       		.uleb128 0x12
 2350 08fb D1080000 		.4byte	0x8d1
 2351 08ff 00       		.byte	0
 2352              		.section	.debug_abbrev,"",%progbits
 2353              	.Ldebug_abbrev0:
 2354 0000 01       		.uleb128 0x1
 2355 0001 11       		.uleb128 0x11
 2356 0002 01       		.byte	0x1
 2357 0003 25       		.uleb128 0x25
 2358 0004 0E       		.uleb128 0xe
 2359 0005 13       		.uleb128 0x13
 2360 0006 0B       		.uleb128 0xb
 2361 0007 03       		.uleb128 0x3
 2362 0008 0E       		.uleb128 0xe
ARM GAS  C:\Users\z80\AppData\Local\Temp\cczkIRrp.s 			page 43


 2363 0009 1B       		.uleb128 0x1b
 2364 000a 0E       		.uleb128 0xe
 2365 000b 11       		.uleb128 0x11
 2366 000c 01       		.uleb128 0x1
 2367 000d 52       		.uleb128 0x52
 2368 000e 01       		.uleb128 0x1
 2369 000f 55       		.uleb128 0x55
 2370 0010 06       		.uleb128 0x6
 2371 0011 10       		.uleb128 0x10
 2372 0012 06       		.uleb128 0x6
 2373 0013 00       		.byte	0
 2374 0014 00       		.byte	0
 2375 0015 02       		.uleb128 0x2
 2376 0016 24       		.uleb128 0x24
 2377 0017 00       		.byte	0
 2378 0018 0B       		.uleb128 0xb
 2379 0019 0B       		.uleb128 0xb
 2380 001a 3E       		.uleb128 0x3e
 2381 001b 0B       		.uleb128 0xb
 2382 001c 03       		.uleb128 0x3
 2383 001d 08       		.uleb128 0x8
 2384 001e 00       		.byte	0
 2385 001f 00       		.byte	0
 2386 0020 03       		.uleb128 0x3
 2387 0021 24       		.uleb128 0x24
 2388 0022 00       		.byte	0
 2389 0023 0B       		.uleb128 0xb
 2390 0024 0B       		.uleb128 0xb
 2391 0025 3E       		.uleb128 0x3e
 2392 0026 0B       		.uleb128 0xb
 2393 0027 03       		.uleb128 0x3
 2394 0028 0E       		.uleb128 0xe
 2395 0029 00       		.byte	0
 2396 002a 00       		.byte	0
 2397 002b 04       		.uleb128 0x4
 2398 002c 16       		.uleb128 0x16
 2399 002d 00       		.byte	0
 2400 002e 03       		.uleb128 0x3
 2401 002f 0E       		.uleb128 0xe
 2402 0030 3A       		.uleb128 0x3a
 2403 0031 0B       		.uleb128 0xb
 2404 0032 3B       		.uleb128 0x3b
 2405 0033 0B       		.uleb128 0xb
 2406 0034 49       		.uleb128 0x49
 2407 0035 13       		.uleb128 0x13
 2408 0036 00       		.byte	0
 2409 0037 00       		.byte	0
 2410 0038 05       		.uleb128 0x5
 2411 0039 13       		.uleb128 0x13
 2412 003a 01       		.byte	0x1
 2413 003b 03       		.uleb128 0x3
 2414 003c 0E       		.uleb128 0xe
 2415 003d 0B       		.uleb128 0xb
 2416 003e 0B       		.uleb128 0xb
 2417 003f 3A       		.uleb128 0x3a
 2418 0040 0B       		.uleb128 0xb
 2419 0041 3B       		.uleb128 0x3b
ARM GAS  C:\Users\z80\AppData\Local\Temp\cczkIRrp.s 			page 44


 2420 0042 0B       		.uleb128 0xb
 2421 0043 01       		.uleb128 0x1
 2422 0044 13       		.uleb128 0x13
 2423 0045 00       		.byte	0
 2424 0046 00       		.byte	0
 2425 0047 06       		.uleb128 0x6
 2426 0048 0D       		.uleb128 0xd
 2427 0049 00       		.byte	0
 2428 004a 03       		.uleb128 0x3
 2429 004b 0E       		.uleb128 0xe
 2430 004c 3A       		.uleb128 0x3a
 2431 004d 0B       		.uleb128 0xb
 2432 004e 3B       		.uleb128 0x3b
 2433 004f 0B       		.uleb128 0xb
 2434 0050 49       		.uleb128 0x49
 2435 0051 13       		.uleb128 0x13
 2436 0052 38       		.uleb128 0x38
 2437 0053 0A       		.uleb128 0xa
 2438 0054 00       		.byte	0
 2439 0055 00       		.byte	0
 2440 0056 07       		.uleb128 0x7
 2441 0057 0D       		.uleb128 0xd
 2442 0058 00       		.byte	0
 2443 0059 03       		.uleb128 0x3
 2444 005a 08       		.uleb128 0x8
 2445 005b 3A       		.uleb128 0x3a
 2446 005c 0B       		.uleb128 0xb
 2447 005d 3B       		.uleb128 0x3b
 2448 005e 0B       		.uleb128 0xb
 2449 005f 49       		.uleb128 0x49
 2450 0060 13       		.uleb128 0x13
 2451 0061 38       		.uleb128 0x38
 2452 0062 0A       		.uleb128 0xa
 2453 0063 00       		.byte	0
 2454 0064 00       		.byte	0
 2455 0065 08       		.uleb128 0x8
 2456 0066 13       		.uleb128 0x13
 2457 0067 01       		.byte	0x1
 2458 0068 0B       		.uleb128 0xb
 2459 0069 0B       		.uleb128 0xb
 2460 006a 3A       		.uleb128 0x3a
 2461 006b 0B       		.uleb128 0xb
 2462 006c 3B       		.uleb128 0x3b
 2463 006d 0B       		.uleb128 0xb
 2464 006e 01       		.uleb128 0x1
 2465 006f 13       		.uleb128 0x13
 2466 0070 00       		.byte	0
 2467 0071 00       		.byte	0
 2468 0072 09       		.uleb128 0x9
 2469 0073 0F       		.uleb128 0xf
 2470 0074 00       		.byte	0
 2471 0075 0B       		.uleb128 0xb
 2472 0076 0B       		.uleb128 0xb
 2473 0077 49       		.uleb128 0x49
 2474 0078 13       		.uleb128 0x13
 2475 0079 00       		.byte	0
 2476 007a 00       		.byte	0
ARM GAS  C:\Users\z80\AppData\Local\Temp\cczkIRrp.s 			page 45


 2477 007b 0A       		.uleb128 0xa
 2478 007c 0F       		.uleb128 0xf
 2479 007d 00       		.byte	0
 2480 007e 0B       		.uleb128 0xb
 2481 007f 0B       		.uleb128 0xb
 2482 0080 00       		.byte	0
 2483 0081 00       		.byte	0
 2484 0082 0B       		.uleb128 0xb
 2485 0083 0D       		.uleb128 0xd
 2486 0084 00       		.byte	0
 2487 0085 03       		.uleb128 0x3
 2488 0086 08       		.uleb128 0x8
 2489 0087 3A       		.uleb128 0x3a
 2490 0088 0B       		.uleb128 0xb
 2491 0089 3B       		.uleb128 0x3b
 2492 008a 05       		.uleb128 0x5
 2493 008b 49       		.uleb128 0x49
 2494 008c 13       		.uleb128 0x13
 2495 008d 38       		.uleb128 0x38
 2496 008e 0A       		.uleb128 0xa
 2497 008f 00       		.byte	0
 2498 0090 00       		.byte	0
 2499 0091 0C       		.uleb128 0xc
 2500 0092 13       		.uleb128 0x13
 2501 0093 01       		.byte	0x1
 2502 0094 03       		.uleb128 0x3
 2503 0095 0E       		.uleb128 0xe
 2504 0096 0B       		.uleb128 0xb
 2505 0097 0B       		.uleb128 0xb
 2506 0098 3A       		.uleb128 0x3a
 2507 0099 0B       		.uleb128 0xb
 2508 009a 3B       		.uleb128 0x3b
 2509 009b 05       		.uleb128 0x5
 2510 009c 01       		.uleb128 0x1
 2511 009d 13       		.uleb128 0x13
 2512 009e 00       		.byte	0
 2513 009f 00       		.byte	0
 2514 00a0 0D       		.uleb128 0xd
 2515 00a1 15       		.uleb128 0x15
 2516 00a2 01       		.byte	0x1
 2517 00a3 27       		.uleb128 0x27
 2518 00a4 0C       		.uleb128 0xc
 2519 00a5 01       		.uleb128 0x1
 2520 00a6 13       		.uleb128 0x13
 2521 00a7 00       		.byte	0
 2522 00a8 00       		.byte	0
 2523 00a9 0E       		.uleb128 0xe
 2524 00aa 05       		.uleb128 0x5
 2525 00ab 00       		.byte	0
 2526 00ac 49       		.uleb128 0x49
 2527 00ad 13       		.uleb128 0x13
 2528 00ae 00       		.byte	0
 2529 00af 00       		.byte	0
 2530 00b0 0F       		.uleb128 0xf
 2531 00b1 35       		.uleb128 0x35
 2532 00b2 00       		.byte	0
 2533 00b3 49       		.uleb128 0x49
ARM GAS  C:\Users\z80\AppData\Local\Temp\cczkIRrp.s 			page 46


 2534 00b4 13       		.uleb128 0x13
 2535 00b5 00       		.byte	0
 2536 00b6 00       		.byte	0
 2537 00b7 10       		.uleb128 0x10
 2538 00b8 17       		.uleb128 0x17
 2539 00b9 01       		.byte	0x1
 2540 00ba 0B       		.uleb128 0xb
 2541 00bb 0B       		.uleb128 0xb
 2542 00bc 3A       		.uleb128 0x3a
 2543 00bd 0B       		.uleb128 0xb
 2544 00be 3B       		.uleb128 0x3b
 2545 00bf 0B       		.uleb128 0xb
 2546 00c0 01       		.uleb128 0x1
 2547 00c1 13       		.uleb128 0x13
 2548 00c2 00       		.byte	0
 2549 00c3 00       		.byte	0
 2550 00c4 11       		.uleb128 0x11
 2551 00c5 0D       		.uleb128 0xd
 2552 00c6 00       		.byte	0
 2553 00c7 03       		.uleb128 0x3
 2554 00c8 0E       		.uleb128 0xe
 2555 00c9 3A       		.uleb128 0x3a
 2556 00ca 0B       		.uleb128 0xb
 2557 00cb 3B       		.uleb128 0x3b
 2558 00cc 0B       		.uleb128 0xb
 2559 00cd 49       		.uleb128 0x49
 2560 00ce 13       		.uleb128 0x13
 2561 00cf 00       		.byte	0
 2562 00d0 00       		.byte	0
 2563 00d1 12       		.uleb128 0x12
 2564 00d2 26       		.uleb128 0x26
 2565 00d3 00       		.byte	0
 2566 00d4 49       		.uleb128 0x49
 2567 00d5 13       		.uleb128 0x13
 2568 00d6 00       		.byte	0
 2569 00d7 00       		.byte	0
 2570 00d8 13       		.uleb128 0x13
 2571 00d9 15       		.uleb128 0x15
 2572 00da 00       		.byte	0
 2573 00db 27       		.uleb128 0x27
 2574 00dc 0C       		.uleb128 0xc
 2575 00dd 00       		.byte	0
 2576 00de 00       		.byte	0
 2577 00df 14       		.uleb128 0x14
 2578 00e0 2E       		.uleb128 0x2e
 2579 00e1 00       		.byte	0
 2580 00e2 03       		.uleb128 0x3
 2581 00e3 0E       		.uleb128 0xe
 2582 00e4 3A       		.uleb128 0x3a
 2583 00e5 0B       		.uleb128 0xb
 2584 00e6 3B       		.uleb128 0x3b
 2585 00e7 0B       		.uleb128 0xb
 2586 00e8 27       		.uleb128 0x27
 2587 00e9 0C       		.uleb128 0xc
 2588 00ea 11       		.uleb128 0x11
 2589 00eb 01       		.uleb128 0x1
 2590 00ec 12       		.uleb128 0x12
ARM GAS  C:\Users\z80\AppData\Local\Temp\cczkIRrp.s 			page 47


 2591 00ed 01       		.uleb128 0x1
 2592 00ee 40       		.uleb128 0x40
 2593 00ef 06       		.uleb128 0x6
 2594 00f0 00       		.byte	0
 2595 00f1 00       		.byte	0
 2596 00f2 15       		.uleb128 0x15
 2597 00f3 2E       		.uleb128 0x2e
 2598 00f4 01       		.byte	0x1
 2599 00f5 03       		.uleb128 0x3
 2600 00f6 0E       		.uleb128 0xe
 2601 00f7 3A       		.uleb128 0x3a
 2602 00f8 0B       		.uleb128 0xb
 2603 00f9 3B       		.uleb128 0x3b
 2604 00fa 0B       		.uleb128 0xb
 2605 00fb 27       		.uleb128 0x27
 2606 00fc 0C       		.uleb128 0xc
 2607 00fd 49       		.uleb128 0x49
 2608 00fe 13       		.uleb128 0x13
 2609 00ff 11       		.uleb128 0x11
 2610 0100 01       		.uleb128 0x1
 2611 0101 12       		.uleb128 0x12
 2612 0102 01       		.uleb128 0x1
 2613 0103 40       		.uleb128 0x40
 2614 0104 06       		.uleb128 0x6
 2615 0105 01       		.uleb128 0x1
 2616 0106 13       		.uleb128 0x13
 2617 0107 00       		.byte	0
 2618 0108 00       		.byte	0
 2619 0109 16       		.uleb128 0x16
 2620 010a 05       		.uleb128 0x5
 2621 010b 00       		.byte	0
 2622 010c 03       		.uleb128 0x3
 2623 010d 08       		.uleb128 0x8
 2624 010e 3A       		.uleb128 0x3a
 2625 010f 0B       		.uleb128 0xb
 2626 0110 3B       		.uleb128 0x3b
 2627 0111 0B       		.uleb128 0xb
 2628 0112 49       		.uleb128 0x49
 2629 0113 13       		.uleb128 0x13
 2630 0114 02       		.uleb128 0x2
 2631 0115 0A       		.uleb128 0xa
 2632 0116 00       		.byte	0
 2633 0117 00       		.byte	0
 2634 0118 17       		.uleb128 0x17
 2635 0119 2E       		.uleb128 0x2e
 2636 011a 01       		.byte	0x1
 2637 011b 03       		.uleb128 0x3
 2638 011c 0E       		.uleb128 0xe
 2639 011d 3A       		.uleb128 0x3a
 2640 011e 0B       		.uleb128 0xb
 2641 011f 3B       		.uleb128 0x3b
 2642 0120 0B       		.uleb128 0xb
 2643 0121 27       		.uleb128 0x27
 2644 0122 0C       		.uleb128 0xc
 2645 0123 11       		.uleb128 0x11
 2646 0124 01       		.uleb128 0x1
 2647 0125 12       		.uleb128 0x12
ARM GAS  C:\Users\z80\AppData\Local\Temp\cczkIRrp.s 			page 48


 2648 0126 01       		.uleb128 0x1
 2649 0127 40       		.uleb128 0x40
 2650 0128 06       		.uleb128 0x6
 2651 0129 01       		.uleb128 0x1
 2652 012a 13       		.uleb128 0x13
 2653 012b 00       		.byte	0
 2654 012c 00       		.byte	0
 2655 012d 18       		.uleb128 0x18
 2656 012e 0B       		.uleb128 0xb
 2657 012f 01       		.byte	0x1
 2658 0130 11       		.uleb128 0x11
 2659 0131 01       		.uleb128 0x1
 2660 0132 12       		.uleb128 0x12
 2661 0133 01       		.uleb128 0x1
 2662 0134 01       		.uleb128 0x1
 2663 0135 13       		.uleb128 0x13
 2664 0136 00       		.byte	0
 2665 0137 00       		.byte	0
 2666 0138 19       		.uleb128 0x19
 2667 0139 34       		.uleb128 0x34
 2668 013a 00       		.byte	0
 2669 013b 03       		.uleb128 0x3
 2670 013c 08       		.uleb128 0x8
 2671 013d 3A       		.uleb128 0x3a
 2672 013e 0B       		.uleb128 0xb
 2673 013f 3B       		.uleb128 0x3b
 2674 0140 0B       		.uleb128 0xb
 2675 0141 49       		.uleb128 0x49
 2676 0142 13       		.uleb128 0x13
 2677 0143 02       		.uleb128 0x2
 2678 0144 0A       		.uleb128 0xa
 2679 0145 00       		.byte	0
 2680 0146 00       		.byte	0
 2681 0147 1A       		.uleb128 0x1a
 2682 0148 0B       		.uleb128 0xb
 2683 0149 01       		.byte	0x1
 2684 014a 11       		.uleb128 0x11
 2685 014b 01       		.uleb128 0x1
 2686 014c 12       		.uleb128 0x12
 2687 014d 01       		.uleb128 0x1
 2688 014e 00       		.byte	0
 2689 014f 00       		.byte	0
 2690 0150 1B       		.uleb128 0x1b
 2691 0151 34       		.uleb128 0x34
 2692 0152 00       		.byte	0
 2693 0153 03       		.uleb128 0x3
 2694 0154 0E       		.uleb128 0xe
 2695 0155 3A       		.uleb128 0x3a
 2696 0156 0B       		.uleb128 0xb
 2697 0157 3B       		.uleb128 0x3b
 2698 0158 0B       		.uleb128 0xb
 2699 0159 49       		.uleb128 0x49
 2700 015a 13       		.uleb128 0x13
 2701 015b 02       		.uleb128 0x2
 2702 015c 0A       		.uleb128 0xa
 2703 015d 00       		.byte	0
 2704 015e 00       		.byte	0
ARM GAS  C:\Users\z80\AppData\Local\Temp\cczkIRrp.s 			page 49


 2705 015f 1C       		.uleb128 0x1c
 2706 0160 2E       		.uleb128 0x2e
 2707 0161 01       		.byte	0x1
 2708 0162 03       		.uleb128 0x3
 2709 0163 0E       		.uleb128 0xe
 2710 0164 3A       		.uleb128 0x3a
 2711 0165 0B       		.uleb128 0xb
 2712 0166 3B       		.uleb128 0x3b
 2713 0167 05       		.uleb128 0x5
 2714 0168 27       		.uleb128 0x27
 2715 0169 0C       		.uleb128 0xc
 2716 016a 49       		.uleb128 0x49
 2717 016b 13       		.uleb128 0x13
 2718 016c 11       		.uleb128 0x11
 2719 016d 01       		.uleb128 0x1
 2720 016e 12       		.uleb128 0x12
 2721 016f 01       		.uleb128 0x1
 2722 0170 40       		.uleb128 0x40
 2723 0171 06       		.uleb128 0x6
 2724 0172 01       		.uleb128 0x1
 2725 0173 13       		.uleb128 0x13
 2726 0174 00       		.byte	0
 2727 0175 00       		.byte	0
 2728 0176 1D       		.uleb128 0x1d
 2729 0177 05       		.uleb128 0x5
 2730 0178 00       		.byte	0
 2731 0179 03       		.uleb128 0x3
 2732 017a 08       		.uleb128 0x8
 2733 017b 3A       		.uleb128 0x3a
 2734 017c 0B       		.uleb128 0xb
 2735 017d 3B       		.uleb128 0x3b
 2736 017e 05       		.uleb128 0x5
 2737 017f 49       		.uleb128 0x49
 2738 0180 13       		.uleb128 0x13
 2739 0181 02       		.uleb128 0x2
 2740 0182 0A       		.uleb128 0xa
 2741 0183 00       		.byte	0
 2742 0184 00       		.byte	0
 2743 0185 1E       		.uleb128 0x1e
 2744 0186 34       		.uleb128 0x34
 2745 0187 00       		.byte	0
 2746 0188 03       		.uleb128 0x3
 2747 0189 08       		.uleb128 0x8
 2748 018a 3A       		.uleb128 0x3a
 2749 018b 0B       		.uleb128 0xb
 2750 018c 3B       		.uleb128 0x3b
 2751 018d 05       		.uleb128 0x5
 2752 018e 49       		.uleb128 0x49
 2753 018f 13       		.uleb128 0x13
 2754 0190 02       		.uleb128 0x2
 2755 0191 0A       		.uleb128 0xa
 2756 0192 00       		.byte	0
 2757 0193 00       		.byte	0
 2758 0194 1F       		.uleb128 0x1f
 2759 0195 2E       		.uleb128 0x2e
 2760 0196 01       		.byte	0x1
 2761 0197 03       		.uleb128 0x3
ARM GAS  C:\Users\z80\AppData\Local\Temp\cczkIRrp.s 			page 50


 2762 0198 0E       		.uleb128 0xe
 2763 0199 3A       		.uleb128 0x3a
 2764 019a 0B       		.uleb128 0xb
 2765 019b 3B       		.uleb128 0x3b
 2766 019c 05       		.uleb128 0x5
 2767 019d 27       		.uleb128 0x27
 2768 019e 0C       		.uleb128 0xc
 2769 019f 11       		.uleb128 0x11
 2770 01a0 01       		.uleb128 0x1
 2771 01a1 12       		.uleb128 0x12
 2772 01a2 01       		.uleb128 0x1
 2773 01a3 40       		.uleb128 0x40
 2774 01a4 06       		.uleb128 0x6
 2775 01a5 01       		.uleb128 0x1
 2776 01a6 13       		.uleb128 0x13
 2777 01a7 00       		.byte	0
 2778 01a8 00       		.byte	0
 2779 01a9 20       		.uleb128 0x20
 2780 01aa 34       		.uleb128 0x34
 2781 01ab 00       		.byte	0
 2782 01ac 03       		.uleb128 0x3
 2783 01ad 0E       		.uleb128 0xe
 2784 01ae 3A       		.uleb128 0x3a
 2785 01af 0B       		.uleb128 0xb
 2786 01b0 3B       		.uleb128 0x3b
 2787 01b1 05       		.uleb128 0x5
 2788 01b2 49       		.uleb128 0x49
 2789 01b3 13       		.uleb128 0x13
 2790 01b4 02       		.uleb128 0x2
 2791 01b5 0A       		.uleb128 0xa
 2792 01b6 00       		.byte	0
 2793 01b7 00       		.byte	0
 2794 01b8 21       		.uleb128 0x21
 2795 01b9 34       		.uleb128 0x34
 2796 01ba 00       		.byte	0
 2797 01bb 03       		.uleb128 0x3
 2798 01bc 0E       		.uleb128 0xe
 2799 01bd 3A       		.uleb128 0x3a
 2800 01be 0B       		.uleb128 0xb
 2801 01bf 3B       		.uleb128 0x3b
 2802 01c0 0B       		.uleb128 0xb
 2803 01c1 49       		.uleb128 0x49
 2804 01c2 13       		.uleb128 0x13
 2805 01c3 3F       		.uleb128 0x3f
 2806 01c4 0C       		.uleb128 0xc
 2807 01c5 3C       		.uleb128 0x3c
 2808 01c6 0C       		.uleb128 0xc
 2809 01c7 00       		.byte	0
 2810 01c8 00       		.byte	0
 2811 01c9 22       		.uleb128 0x22
 2812 01ca 01       		.uleb128 0x1
 2813 01cb 01       		.byte	0x1
 2814 01cc 49       		.uleb128 0x49
 2815 01cd 13       		.uleb128 0x13
 2816 01ce 01       		.uleb128 0x1
 2817 01cf 13       		.uleb128 0x13
 2818 01d0 00       		.byte	0
ARM GAS  C:\Users\z80\AppData\Local\Temp\cczkIRrp.s 			page 51


 2819 01d1 00       		.byte	0
 2820 01d2 23       		.uleb128 0x23
 2821 01d3 21       		.uleb128 0x21
 2822 01d4 00       		.byte	0
 2823 01d5 49       		.uleb128 0x49
 2824 01d6 13       		.uleb128 0x13
 2825 01d7 2F       		.uleb128 0x2f
 2826 01d8 0B       		.uleb128 0xb
 2827 01d9 00       		.byte	0
 2828 01da 00       		.byte	0
 2829 01db 24       		.uleb128 0x24
 2830 01dc 21       		.uleb128 0x21
 2831 01dd 00       		.byte	0
 2832 01de 00       		.byte	0
 2833 01df 00       		.byte	0
 2834 01e0 25       		.uleb128 0x25
 2835 01e1 34       		.uleb128 0x34
 2836 01e2 00       		.byte	0
 2837 01e3 03       		.uleb128 0x3
 2838 01e4 08       		.uleb128 0x8
 2839 01e5 3A       		.uleb128 0x3a
 2840 01e6 0B       		.uleb128 0xb
 2841 01e7 3B       		.uleb128 0x3b
 2842 01e8 0B       		.uleb128 0xb
 2843 01e9 49       		.uleb128 0x49
 2844 01ea 13       		.uleb128 0x13
 2845 01eb 3F       		.uleb128 0x3f
 2846 01ec 0C       		.uleb128 0xc
 2847 01ed 3C       		.uleb128 0x3c
 2848 01ee 0C       		.uleb128 0xc
 2849 01ef 00       		.byte	0
 2850 01f0 00       		.byte	0
 2851 01f1 26       		.uleb128 0x26
 2852 01f2 34       		.uleb128 0x34
 2853 01f3 00       		.byte	0
 2854 01f4 03       		.uleb128 0x3
 2855 01f5 0E       		.uleb128 0xe
 2856 01f6 3A       		.uleb128 0x3a
 2857 01f7 0B       		.uleb128 0xb
 2858 01f8 3B       		.uleb128 0x3b
 2859 01f9 0B       		.uleb128 0xb
 2860 01fa 49       		.uleb128 0x49
 2861 01fb 13       		.uleb128 0x13
 2862 01fc 3F       		.uleb128 0x3f
 2863 01fd 0C       		.uleb128 0xc
 2864 01fe 02       		.uleb128 0x2
 2865 01ff 0A       		.uleb128 0xa
 2866 0200 00       		.byte	0
 2867 0201 00       		.byte	0
 2868 0202 27       		.uleb128 0x27
 2869 0203 34       		.uleb128 0x34
 2870 0204 00       		.byte	0
 2871 0205 03       		.uleb128 0x3
 2872 0206 0E       		.uleb128 0xe
 2873 0207 3A       		.uleb128 0x3a
 2874 0208 0B       		.uleb128 0xb
 2875 0209 3B       		.uleb128 0x3b
ARM GAS  C:\Users\z80\AppData\Local\Temp\cczkIRrp.s 			page 52


 2876 020a 05       		.uleb128 0x5
 2877 020b 49       		.uleb128 0x49
 2878 020c 13       		.uleb128 0x13
 2879 020d 3F       		.uleb128 0x3f
 2880 020e 0C       		.uleb128 0xc
 2881 020f 02       		.uleb128 0x2
 2882 0210 0A       		.uleb128 0xa
 2883 0211 00       		.byte	0
 2884 0212 00       		.byte	0
 2885 0213 00       		.byte	0
 2886              		.section	.debug_loc,"",%progbits
 2887              	.Ldebug_loc0:
 2888              	.LLST0:
 2889 0000 00000000 		.4byte	.LFB7
 2890 0004 02000000 		.4byte	.LCFI0
 2891 0008 0200     		.2byte	0x2
 2892 000a 7D       		.byte	0x7d
 2893 000b 00       		.sleb128 0
 2894 000c 02000000 		.4byte	.LCFI0
 2895 0010 14000000 		.4byte	.LFE7
 2896 0014 0200     		.2byte	0x2
 2897 0016 7D       		.byte	0x7d
 2898 0017 08       		.sleb128 8
 2899 0018 00000000 		.4byte	0
 2900 001c 00000000 		.4byte	0
 2901              	.LLST1:
 2902 0020 00000000 		.4byte	.LFB8
 2903 0024 02000000 		.4byte	.LCFI1
 2904 0028 0200     		.2byte	0x2
 2905 002a 7D       		.byte	0x7d
 2906 002b 00       		.sleb128 0
 2907 002c 02000000 		.4byte	.LCFI1
 2908 0030 04000000 		.4byte	.LCFI2
 2909 0034 0200     		.2byte	0x2
 2910 0036 7D       		.byte	0x7d
 2911 0037 04       		.sleb128 4
 2912 0038 04000000 		.4byte	.LCFI2
 2913 003c 26000000 		.4byte	.LFE8
 2914 0040 0200     		.2byte	0x2
 2915 0042 7D       		.byte	0x7d
 2916 0043 10       		.sleb128 16
 2917 0044 00000000 		.4byte	0
 2918 0048 00000000 		.4byte	0
 2919              	.LLST2:
 2920 004c 00000000 		.4byte	.LFB9
 2921 0050 02000000 		.4byte	.LCFI3
 2922 0054 0200     		.2byte	0x2
 2923 0056 7D       		.byte	0x7d
 2924 0057 00       		.sleb128 0
 2925 0058 02000000 		.4byte	.LCFI3
 2926 005c 04000000 		.4byte	.LCFI4
 2927 0060 0200     		.2byte	0x2
 2928 0062 7D       		.byte	0x7d
 2929 0063 04       		.sleb128 4
 2930 0064 04000000 		.4byte	.LCFI4
 2931 0068 36020000 		.4byte	.LFE9
 2932 006c 0200     		.2byte	0x2
ARM GAS  C:\Users\z80\AppData\Local\Temp\cczkIRrp.s 			page 53


 2933 006e 7D       		.byte	0x7d
 2934 006f 10       		.sleb128 16
 2935 0070 00000000 		.4byte	0
 2936 0074 00000000 		.4byte	0
 2937              	.LLST3:
 2938 0078 00000000 		.4byte	.LFB10
 2939 007c 02000000 		.4byte	.LCFI5
 2940 0080 0200     		.2byte	0x2
 2941 0082 7D       		.byte	0x7d
 2942 0083 00       		.sleb128 0
 2943 0084 02000000 		.4byte	.LCFI5
 2944 0088 14000000 		.4byte	.LFE10
 2945 008c 0200     		.2byte	0x2
 2946 008e 7D       		.byte	0x7d
 2947 008f 08       		.sleb128 8
 2948 0090 00000000 		.4byte	0
 2949 0094 00000000 		.4byte	0
 2950              	.LLST4:
 2951 0098 00000000 		.4byte	.LFB11
 2952 009c 02000000 		.4byte	.LCFI6
 2953 00a0 0200     		.2byte	0x2
 2954 00a2 7D       		.byte	0x7d
 2955 00a3 00       		.sleb128 0
 2956 00a4 02000000 		.4byte	.LCFI6
 2957 00a8 04000000 		.4byte	.LCFI7
 2958 00ac 0200     		.2byte	0x2
 2959 00ae 7D       		.byte	0x7d
 2960 00af 04       		.sleb128 4
 2961 00b0 04000000 		.4byte	.LCFI7
 2962 00b4 40000000 		.4byte	.LFE11
 2963 00b8 0200     		.2byte	0x2
 2964 00ba 7D       		.byte	0x7d
 2965 00bb 10       		.sleb128 16
 2966 00bc 00000000 		.4byte	0
 2967 00c0 00000000 		.4byte	0
 2968              	.LLST5:
 2969 00c4 00000000 		.4byte	.LFB12
 2970 00c8 02000000 		.4byte	.LCFI8
 2971 00cc 0200     		.2byte	0x2
 2972 00ce 7D       		.byte	0x7d
 2973 00cf 00       		.sleb128 0
 2974 00d0 02000000 		.4byte	.LCFI8
 2975 00d4 04000000 		.4byte	.LCFI9
 2976 00d8 0200     		.2byte	0x2
 2977 00da 7D       		.byte	0x7d
 2978 00db 04       		.sleb128 4
 2979 00dc 04000000 		.4byte	.LCFI9
 2980 00e0 2C020000 		.4byte	.LFE12
 2981 00e4 0200     		.2byte	0x2
 2982 00e6 7D       		.byte	0x7d
 2983 00e7 20       		.sleb128 32
 2984 00e8 00000000 		.4byte	0
 2985 00ec 00000000 		.4byte	0
 2986              	.LLST6:
 2987 00f0 00000000 		.4byte	.LFB13
 2988 00f4 02000000 		.4byte	.LCFI10
 2989 00f8 0200     		.2byte	0x2
ARM GAS  C:\Users\z80\AppData\Local\Temp\cczkIRrp.s 			page 54


 2990 00fa 7D       		.byte	0x7d
 2991 00fb 00       		.sleb128 0
 2992 00fc 02000000 		.4byte	.LCFI10
 2993 0100 14000000 		.4byte	.LFE13
 2994 0104 0200     		.2byte	0x2
 2995 0106 7D       		.byte	0x7d
 2996 0107 08       		.sleb128 8
 2997 0108 00000000 		.4byte	0
 2998 010c 00000000 		.4byte	0
 2999              	.LLST7:
 3000 0110 00000000 		.4byte	.LFB14
 3001 0114 02000000 		.4byte	.LCFI11
 3002 0118 0200     		.2byte	0x2
 3003 011a 7D       		.byte	0x7d
 3004 011b 00       		.sleb128 0
 3005 011c 02000000 		.4byte	.LCFI11
 3006 0120 04000000 		.4byte	.LCFI12
 3007 0124 0200     		.2byte	0x2
 3008 0126 7D       		.byte	0x7d
 3009 0127 04       		.sleb128 4
 3010 0128 04000000 		.4byte	.LCFI12
 3011 012c 28000000 		.4byte	.LFE14
 3012 0130 0200     		.2byte	0x2
 3013 0132 7D       		.byte	0x7d
 3014 0133 10       		.sleb128 16
 3015 0134 00000000 		.4byte	0
 3016 0138 00000000 		.4byte	0
 3017              	.LLST8:
 3018 013c 00000000 		.4byte	.LFB15
 3019 0140 02000000 		.4byte	.LCFI13
 3020 0144 0200     		.2byte	0x2
 3021 0146 7D       		.byte	0x7d
 3022 0147 00       		.sleb128 0
 3023 0148 02000000 		.4byte	.LCFI13
 3024 014c 04000000 		.4byte	.LCFI14
 3025 0150 0200     		.2byte	0x2
 3026 0152 7D       		.byte	0x7d
 3027 0153 04       		.sleb128 4
 3028 0154 04000000 		.4byte	.LCFI14
 3029 0158 06010000 		.4byte	.LFE15
 3030 015c 0200     		.2byte	0x2
 3031 015e 7D       		.byte	0x7d
 3032 015f 10       		.sleb128 16
 3033 0160 00000000 		.4byte	0
 3034 0164 00000000 		.4byte	0
 3035              	.LLST9:
 3036 0168 00000000 		.4byte	.LFB16
 3037 016c 02000000 		.4byte	.LCFI15
 3038 0170 0200     		.2byte	0x2
 3039 0172 7D       		.byte	0x7d
 3040 0173 00       		.sleb128 0
 3041 0174 02000000 		.4byte	.LCFI15
 3042 0178 04000000 		.4byte	.LCFI16
 3043 017c 0200     		.2byte	0x2
 3044 017e 7D       		.byte	0x7d
 3045 017f 04       		.sleb128 4
 3046 0180 04000000 		.4byte	.LCFI16
ARM GAS  C:\Users\z80\AppData\Local\Temp\cczkIRrp.s 			page 55


 3047 0184 3C000000 		.4byte	.LFE16
 3048 0188 0200     		.2byte	0x2
 3049 018a 7D       		.byte	0x7d
 3050 018b 10       		.sleb128 16
 3051 018c 00000000 		.4byte	0
 3052 0190 00000000 		.4byte	0
 3053              	.LLST10:
 3054 0194 00000000 		.4byte	.LFB17
 3055 0198 02000000 		.4byte	.LCFI17
 3056 019c 0200     		.2byte	0x2
 3057 019e 7D       		.byte	0x7d
 3058 019f 00       		.sleb128 0
 3059 01a0 02000000 		.4byte	.LCFI17
 3060 01a4 04000000 		.4byte	.LCFI18
 3061 01a8 0200     		.2byte	0x2
 3062 01aa 7D       		.byte	0x7d
 3063 01ab 04       		.sleb128 4
 3064 01ac 04000000 		.4byte	.LCFI18
 3065 01b0 56010000 		.4byte	.LFE17
 3066 01b4 0200     		.2byte	0x2
 3067 01b6 7D       		.byte	0x7d
 3068 01b7 20       		.sleb128 32
 3069 01b8 00000000 		.4byte	0
 3070 01bc 00000000 		.4byte	0
 3071              		.section	.debug_aranges,"",%progbits
 3072 0000 6C000000 		.4byte	0x6c
 3073 0004 0200     		.2byte	0x2
 3074 0006 00000000 		.4byte	.Ldebug_info0
 3075 000a 04       		.byte	0x4
 3076 000b 00       		.byte	0
 3077 000c 0000     		.2byte	0
 3078 000e 0000     		.2byte	0
 3079 0010 00000000 		.4byte	.LFB7
 3080 0014 14000000 		.4byte	.LFE7-.LFB7
 3081 0018 00000000 		.4byte	.LFB8
 3082 001c 26000000 		.4byte	.LFE8-.LFB8
 3083 0020 00000000 		.4byte	.LFB9
 3084 0024 36020000 		.4byte	.LFE9-.LFB9
 3085 0028 00000000 		.4byte	.LFB10
 3086 002c 14000000 		.4byte	.LFE10-.LFB10
 3087 0030 00000000 		.4byte	.LFB11
 3088 0034 40000000 		.4byte	.LFE11-.LFB11
 3089 0038 00000000 		.4byte	.LFB12
 3090 003c 2C020000 		.4byte	.LFE12-.LFB12
 3091 0040 00000000 		.4byte	.LFB13
 3092 0044 14000000 		.4byte	.LFE13-.LFB13
 3093 0048 00000000 		.4byte	.LFB14
 3094 004c 28000000 		.4byte	.LFE14-.LFB14
 3095 0050 00000000 		.4byte	.LFB15
 3096 0054 06010000 		.4byte	.LFE15-.LFB15
 3097 0058 00000000 		.4byte	.LFB16
 3098 005c 3C000000 		.4byte	.LFE16-.LFB16
 3099 0060 00000000 		.4byte	.LFB17
 3100 0064 56010000 		.4byte	.LFE17-.LFB17
 3101 0068 00000000 		.4byte	0
 3102 006c 00000000 		.4byte	0
 3103              		.section	.debug_ranges,"",%progbits
ARM GAS  C:\Users\z80\AppData\Local\Temp\cczkIRrp.s 			page 56


 3104              	.Ldebug_ranges0:
 3105 0000 00000000 		.4byte	.LFB7
 3106 0004 14000000 		.4byte	.LFE7
 3107 0008 00000000 		.4byte	.LFB8
 3108 000c 26000000 		.4byte	.LFE8
 3109 0010 00000000 		.4byte	.LFB9
 3110 0014 36020000 		.4byte	.LFE9
 3111 0018 00000000 		.4byte	.LFB10
 3112 001c 14000000 		.4byte	.LFE10
 3113 0020 00000000 		.4byte	.LFB11
 3114 0024 40000000 		.4byte	.LFE11
 3115 0028 00000000 		.4byte	.LFB12
 3116 002c 2C020000 		.4byte	.LFE12
 3117 0030 00000000 		.4byte	.LFB13
 3118 0034 14000000 		.4byte	.LFE13
 3119 0038 00000000 		.4byte	.LFB14
 3120 003c 28000000 		.4byte	.LFE14
 3121 0040 00000000 		.4byte	.LFB15
 3122 0044 06010000 		.4byte	.LFE15
 3123 0048 00000000 		.4byte	.LFB16
 3124 004c 3C000000 		.4byte	.LFE16
 3125 0050 00000000 		.4byte	.LFB17
 3126 0054 56010000 		.4byte	.LFE17
 3127 0058 00000000 		.4byte	0
 3128 005c 00000000 		.4byte	0
 3129              		.section	.debug_line,"",%progbits
 3130              	.Ldebug_line0:
 3131 0000 C8020000 		.section	.debug_str,"MS",%progbits,1
 3131      02006E01 
 3131      00000201 
 3131      FB0E0D00 
 3131      01010101 
 3132              	.LASF34:
 3133 0000 705F6D73 		.ascii	"p_msg\000"
 3133      6700
 3134              	.LASF70:
 3135 0006 7264796D 		.ascii	"rdymsg\000"
 3135      736700
 3136              	.LASF84:
 3137 000d 73656D31 		.ascii	"sem1_execute\000"
 3137      5F657865 
 3137      63757465 
 3137      00
 3138              	.LASF11:
 3139 001a 75696E74 		.ascii	"uint64_t\000"
 3139      36345F74 
 3139      00
 3140              	.LASF94:
 3141 0023 76746C69 		.ascii	"vtlist\000"
 3141      737400
 3142              	.LASF12:
 3143 002a 6C6F6E67 		.ascii	"long long unsigned int\000"
 3143      206C6F6E 
 3143      6720756E 
 3143      7369676E 
 3143      65642069 
 3144              	.LASF71:
ARM GAS  C:\Users\z80\AppData\Local\Temp\cczkIRrp.s 			page 57


 3145 0041 65786974 		.ascii	"exitcode\000"
 3145      636F6465 
 3145      00
 3146              	.LASF23:
 3147 004a 705F7072 		.ascii	"p_prio\000"
 3147      696F00
 3148              	.LASF10:
 3149 0051 6C6F6E67 		.ascii	"long long int\000"
 3149      206C6F6E 
 3149      6720696E 
 3149      7400
 3150              	.LASF1:
 3151 005f 7369676E 		.ascii	"signed char\000"
 3151      65642063 
 3151      68617200 
 3152              	.LASF67:
 3153 006b 6D5F7175 		.ascii	"m_queue\000"
 3153      65756500 
 3154              	.LASF88:
 3155 0073 74687265 		.ascii	"thread3\000"
 3155      61643300 
 3156              	.LASF104:
 3157 007b 433A5C70 		.ascii	"C:\\projects\\digitizer.git\\firmware\\digitizer\000"
 3157      726F6A65 
 3157      6374735C 
 3157      64696769 
 3157      74697A65 
 3158              	.LASF85:
 3159 00a8 73656D32 		.ascii	"sem2_execute\000"
 3159      5F657865 
 3159      63757465 
 3159      00
 3160              	.LASF7:
 3161 00b5 6C6F6E67 		.ascii	"long int\000"
 3161      20696E74 
 3161      00
 3162              	.LASF86:
 3163 00be 74617267 		.ascii	"target_time\000"
 3163      65745F74 
 3163      696D6500 
 3164              	.LASF14:
 3165 00ca 74737461 		.ascii	"tstate_t\000"
 3165      74655F74 
 3165      00
 3166              	.LASF25:
 3167 00d3 705F6E65 		.ascii	"p_newer\000"
 3167      77657200 
 3168              	.LASF62:
 3169 00db 735F7175 		.ascii	"s_queue\000"
 3169      65756500 
 3170              	.LASF56:
 3171 00e3 725F6E65 		.ascii	"r_newer\000"
 3171      77657200 
 3172              	.LASF40:
 3173 00eb 72656761 		.ascii	"regarm_t\000"
 3173      726D5F74 
 3173      00
ARM GAS  C:\Users\z80\AppData\Local\Temp\cczkIRrp.s 			page 58


 3174              	.LASF47:
 3175 00f4 76745F70 		.ascii	"vt_prev\000"
 3175      72657600 
 3176              	.LASF81:
 3177 00fc 73656D32 		.ascii	"sem2_setup\000"
 3177      5F736574 
 3177      757000
 3178              	.LASF93:
 3179 0107 73656D31 		.ascii	"sem1\000"
 3179      00
 3180              	.LASF19:
 3181 010c 636E745F 		.ascii	"cnt_t\000"
 3181      7400
 3182              	.LASF28:
 3183 0112 705F7374 		.ascii	"p_stklimit\000"
 3183      6B6C696D 
 3183      697400
 3184              	.LASF0:
 3185 011d 756E7369 		.ascii	"unsigned int\000"
 3185      676E6564 
 3185      20696E74 
 3185      00
 3186              	.LASF46:
 3187 012a 76745F6E 		.ascii	"vt_next\000"
 3187      65787400 
 3188              	.LASF89:
 3189 0132 73656D33 		.ascii	"sem3_execute\000"
 3189      5F657865 
 3189      63757465 
 3189      00
 3190              	.LASF97:
 3191 013f 74657374 		.ascii	"testsem1\000"
 3191      73656D31 
 3191      00
 3192              	.LASF64:
 3193 0148 62735F73 		.ascii	"bs_sem\000"
 3193      656D00
 3194              	.LASF99:
 3195 014f 74657374 		.ascii	"testsem3\000"
 3195      73656D33 
 3195      00
 3196              	.LASF100:
 3197 0158 74657374 		.ascii	"testsem4\000"
 3197      73656D34 
 3197      00
 3198              	.LASF9:
 3199 0161 6C6F6E67 		.ascii	"long unsigned int\000"
 3199      20756E73 
 3199      69676E65 
 3199      6420696E 
 3199      7400
 3200              	.LASF78:
 3201 0173 74656172 		.ascii	"teardown\000"
 3201      646F776E 
 3201      00
 3202              	.LASF76:
 3203 017c 6E616D65 		.ascii	"name\000"
ARM GAS  C:\Users\z80\AppData\Local\Temp\cczkIRrp.s 			page 59


 3203      00
 3204              	.LASF63:
 3205 0181 735F636E 		.ascii	"s_cnt\000"
 3205      7400
 3206              	.LASF43:
 3207 0187 636F6E74 		.ascii	"context\000"
 3207      65787400 
 3208              	.LASF4:
 3209 018f 73686F72 		.ascii	"short unsigned int\000"
 3209      7420756E 
 3209      7369676E 
 3209      65642069 
 3209      6E7400
 3210              	.LASF92:
 3211 01a2 6273656D 		.ascii	"bsem\000"
 3211      00
 3212              	.LASF16:
 3213 01a7 6D73675F 		.ascii	"msg_t\000"
 3213      7400
 3214              	.LASF13:
 3215 01ad 746D6F64 		.ascii	"tmode_t\000"
 3215      655F7400 
 3216              	.LASF39:
 3217 01b5 54687265 		.ascii	"ThreadsList\000"
 3217      6164734C 
 3217      69737400 
 3218              	.LASF17:
 3219 01c1 6576656E 		.ascii	"eventmask_t\000"
 3219      746D6173 
 3219      6B5F7400 
 3220              	.LASF66:
 3221 01cd 4D757465 		.ascii	"Mutex\000"
 3221      7800
 3222              	.LASF41:
 3223 01d3 73746B61 		.ascii	"stkalign_t\000"
 3223      6C69676E 
 3223      5F7400
 3224              	.LASF98:
 3225 01de 74657374 		.ascii	"testsem2\000"
 3225      73656D32 
 3225      00
 3226              	.LASF91:
 3227 01e7 73656D34 		.ascii	"sem4_execute\000"
 3227      5F657865 
 3227      63757465 
 3227      00
 3228              	.LASF48:
 3229 01f4 76745F74 		.ascii	"vt_time\000"
 3229      696D6500 
 3230              	.LASF49:
 3231 01fc 76745F66 		.ascii	"vt_func\000"
 3231      756E6300 
 3232              	.LASF80:
 3233 0204 73656D31 		.ascii	"sem1_setup\000"
 3233      5F736574 
 3233      757000
 3234              	.LASF26:
ARM GAS  C:\Users\z80\AppData\Local\Temp\cczkIRrp.s 			page 60


 3235 020f 705F6F6C 		.ascii	"p_older\000"
 3235      64657200 
 3236              	.LASF82:
 3237 0217 74687265 		.ascii	"thread1\000"
 3237      61643100 
 3238              	.LASF83:
 3239 021f 74687265 		.ascii	"thread2\000"
 3239      61643200 
 3240              	.LASF55:
 3241 0227 725F6374 		.ascii	"r_ctx\000"
 3241      7800
 3242              	.LASF90:
 3243 022d 74687265 		.ascii	"thread4\000"
 3243      61643400 
 3244              	.LASF38:
 3245 0235 54687265 		.ascii	"ThreadsQueue\000"
 3245      61647351 
 3245      75657565 
 3245      00
 3246              	.LASF77:
 3247 0242 73657475 		.ascii	"setup\000"
 3247      7000
 3248              	.LASF59:
 3249 0248 725F6375 		.ascii	"r_current\000"
 3249      7272656E 
 3249      7400
 3250              	.LASF57:
 3251 0252 725F6F6C 		.ascii	"r_older\000"
 3251      64657200 
 3252              	.LASF101:
 3253 025a 70617474 		.ascii	"patternsem\000"
 3253      65726E73 
 3253      656D00
 3254              	.LASF22:
 3255 0265 705F7072 		.ascii	"p_prev\000"
 3255      657600
 3256              	.LASF79:
 3257 026c 65786563 		.ascii	"execute\000"
 3257      75746500 
 3258              	.LASF15:
 3259 0274 74707269 		.ascii	"tprio_t\000"
 3259      6F5F7400 
 3260              	.LASF6:
 3261 027c 696E7433 		.ascii	"int32_t\000"
 3261      325F7400 
 3262              	.LASF2:
 3263 0284 756E7369 		.ascii	"unsigned char\000"
 3263      676E6564 
 3263      20636861 
 3263      7200
 3264              	.LASF36:
 3265 0292 705F6D74 		.ascii	"p_mtxlist\000"
 3265      786C6973 
 3265      7400
 3266              	.LASF3:
 3267 029c 73686F72 		.ascii	"short int\000"
 3267      7420696E 
ARM GAS  C:\Users\z80\AppData\Local\Temp\cczkIRrp.s 			page 61


 3267      7400
 3268              	.LASF29:
 3269 02a6 705F7374 		.ascii	"p_state\000"
 3269      61746500 
 3270              	.LASF96:
 3271 02ae 74687265 		.ascii	"threads\000"
 3271      61647300 
 3272              	.LASF54:
 3273 02b6 725F7072 		.ascii	"r_prio\000"
 3273      696F00
 3274              	.LASF73:
 3275 02bd 65776D61 		.ascii	"ewmask\000"
 3275      736B00
 3276              	.LASF21:
 3277 02c4 705F6E65 		.ascii	"p_next\000"
 3277      787400
 3278              	.LASF103:
 3279 02cb 2E2E2F63 		.ascii	"../chibios_2.4.x/test/testsem.c\000"
 3279      68696269 
 3279      6F735F32 
 3279      2E342E78 
 3279      2F746573 
 3280              	.LASF20:
 3281 02eb 54687265 		.ascii	"Thread\000"
 3281      616400
 3282              	.LASF75:
 3283 02f2 74657374 		.ascii	"testcase\000"
 3283      63617365 
 3283      00
 3284              	.LASF35:
 3285 02fb 705F6570 		.ascii	"p_epending\000"
 3285      656E6469 
 3285      6E6700
 3286              	.LASF8:
 3287 0306 75696E74 		.ascii	"uint32_t\000"
 3287      33325F74 
 3287      00
 3288              	.LASF53:
 3289 030f 725F7175 		.ascii	"r_queue\000"
 3289      65756500 
 3290              	.LASF45:
 3291 0317 56697274 		.ascii	"VirtualTimer\000"
 3291      75616C54 
 3291      696D6572 
 3291      00
 3292              	.LASF102:
 3293 0324 474E5520 		.ascii	"GNU C 4.6.3\000"
 3293      4320342E 
 3293      362E3300 
 3294              	.LASF74:
 3295 0330 63686172 		.ascii	"char\000"
 3295      00
 3296              	.LASF65:
 3297 0335 42696E61 		.ascii	"BinarySemaphore\000"
 3297      72795365 
 3297      6D617068 
 3297      6F726500 
ARM GAS  C:\Users\z80\AppData\Local\Temp\cczkIRrp.s 			page 62


 3298              	.LASF69:
 3299 0345 6D5F6E65 		.ascii	"m_next\000"
 3299      787400
 3300              	.LASF18:
 3301 034c 73797374 		.ascii	"systime_t\000"
 3301      696D655F 
 3301      7400
 3302              	.LASF37:
 3303 0356 705F7265 		.ascii	"p_realprio\000"
 3303      616C7072 
 3303      696F00
 3304              	.LASF44:
 3305 0361 76746675 		.ascii	"vtfunc_t\000"
 3305      6E635F74 
 3305      00
 3306              	.LASF31:
 3307 036a 705F7469 		.ascii	"p_time\000"
 3307      6D6500
 3308              	.LASF42:
 3309 0371 696E7463 		.ascii	"intctx\000"
 3309      747800
 3310              	.LASF33:
 3311 0378 705F6D73 		.ascii	"p_msgqueue\000"
 3311      67717565 
 3311      756500
 3312              	.LASF50:
 3313 0383 76745F70 		.ascii	"vt_par\000"
 3313      617200
 3314              	.LASF61:
 3315 038a 53656D61 		.ascii	"Semaphore\000"
 3315      70686F72 
 3315      6500
 3316              	.LASF87:
 3317 0394 73656D33 		.ascii	"sem3_setup\000"
 3317      5F736574 
 3317      757000
 3318              	.LASF60:
 3319 039f 52656164 		.ascii	"ReadyList\000"
 3319      794C6973 
 3319      7400
 3320              	.LASF95:
 3321 03a9 726C6973 		.ascii	"rlist\000"
 3321      7400
 3322              	.LASF5:
 3323 03af 75696E74 		.ascii	"uint8_t\000"
 3323      385F7400 
 3324              	.LASF72:
 3325 03b7 77746F62 		.ascii	"wtobjp\000"
 3325      6A7000
 3326              	.LASF27:
 3327 03be 705F6E61 		.ascii	"p_name\000"
 3327      6D6500
 3328              	.LASF51:
 3329 03c5 76745F73 		.ascii	"vt_systime\000"
 3329      79737469 
 3329      6D6500
 3330              	.LASF30:
ARM GAS  C:\Users\z80\AppData\Local\Temp\cczkIRrp.s 			page 63


 3331 03d0 705F666C 		.ascii	"p_flags\000"
 3331      61677300 
 3332              	.LASF52:
 3333 03d8 56544C69 		.ascii	"VTList\000"
 3333      737400
 3334              	.LASF58:
 3335 03df 725F7072 		.ascii	"r_preempt\000"
 3335      65656D70 
 3335      7400
 3336              	.LASF68:
 3337 03e9 6D5F6F77 		.ascii	"m_owner\000"
 3337      6E657200 
 3338              	.LASF24:
 3339 03f1 705F6374 		.ascii	"p_ctx\000"
 3339      7800
 3340              	.LASF32:
 3341 03f7 705F7761 		.ascii	"p_waiting\000"
 3341      6974696E 
 3341      6700
 3342              		.ident	"GCC: (Sourcery CodeBench Lite 2012.03-56) 4.6.3"
ARM GAS  C:\Users\z80\AppData\Local\Temp\cczkIRrp.s 			page 64


DEFINED SYMBOLS
                            *ABS*:00000000 testsem.c
C:\Users\z80\AppData\Local\Temp\cczkIRrp.s:19     .data.sem1:00000000 $d
C:\Users\z80\AppData\Local\Temp\cczkIRrp.s:22     .data.sem1:00000000 sem1
C:\Users\z80\AppData\Local\Temp\cczkIRrp.s:27     .text.sem1_setup:00000000 $t
C:\Users\z80\AppData\Local\Temp\cczkIRrp.s:32     .text.sem1_setup:00000000 sem1_setup
C:\Users\z80\AppData\Local\Temp\cczkIRrp.s:55     .text.thread1:00000000 $t
C:\Users\z80\AppData\Local\Temp\cczkIRrp.s:60     .text.thread1:00000000 thread1
C:\Users\z80\AppData\Local\Temp\cczkIRrp.s:93     .rodata:00000000 $d
C:\Users\z80\AppData\Local\Temp\cczkIRrp.s:94     .rodata:00000000 .LC0
C:\Users\z80\AppData\Local\Temp\cczkIRrp.s:97     .rodata:00000004 .LC1
C:\Users\z80\AppData\Local\Temp\cczkIRrp.s:100    .rodata:00000008 .LC2
C:\Users\z80\AppData\Local\Temp\cczkIRrp.s:103    .rodata:0000000c .LC3
C:\Users\z80\AppData\Local\Temp\cczkIRrp.s:106    .rodata:00000010 .LC4
C:\Users\z80\AppData\Local\Temp\cczkIRrp.s:109    .rodata:00000014 .LC5
C:\Users\z80\AppData\Local\Temp\cczkIRrp.s:112    .text.sem1_execute:00000000 $t
C:\Users\z80\AppData\Local\Temp\cczkIRrp.s:117    .text.sem1_execute:00000000 sem1_execute
C:\Users\z80\AppData\Local\Temp\cczkIRrp.s:341    .rodata.testsem1:00000000 testsem1
C:\Users\z80\AppData\Local\Temp\cczkIRrp.s:338    .rodata.testsem1:00000000 $d
C:\Users\z80\AppData\Local\Temp\cczkIRrp.s:347    .text.sem2_setup:00000000 $t
C:\Users\z80\AppData\Local\Temp\cczkIRrp.s:352    .text.sem2_setup:00000000 sem2_setup
C:\Users\z80\AppData\Local\Temp\cczkIRrp.s:374    .text.thread2:00000000 $t
C:\Users\z80\AppData\Local\Temp\cczkIRrp.s:379    .text.thread2:00000000 thread2
C:\Users\z80\AppData\Local\Temp\cczkIRrp.s:430    .text.sem2_execute:00000000 $t
C:\Users\z80\AppData\Local\Temp\cczkIRrp.s:435    .text.sem2_execute:00000000 sem2_execute
C:\Users\z80\AppData\Local\Temp\cczkIRrp.s:688    .rodata.testsem2:00000000 testsem2
C:\Users\z80\AppData\Local\Temp\cczkIRrp.s:685    .rodata.testsem2:00000000 $d
C:\Users\z80\AppData\Local\Temp\cczkIRrp.s:694    .text.sem3_setup:00000000 $t
C:\Users\z80\AppData\Local\Temp\cczkIRrp.s:699    .text.sem3_setup:00000000 sem3_setup
C:\Users\z80\AppData\Local\Temp\cczkIRrp.s:721    .text.thread3:00000000 $t
C:\Users\z80\AppData\Local\Temp\cczkIRrp.s:726    .text.thread3:00000000 thread3
C:\Users\z80\AppData\Local\Temp\cczkIRrp.s:758    .text.sem3_execute:00000000 $t
C:\Users\z80\AppData\Local\Temp\cczkIRrp.s:763    .text.sem3_execute:00000000 sem3_execute
C:\Users\z80\AppData\Local\Temp\cczkIRrp.s:887    .rodata.testsem3:00000000 testsem3
C:\Users\z80\AppData\Local\Temp\cczkIRrp.s:884    .rodata.testsem3:00000000 $d
C:\Users\z80\AppData\Local\Temp\cczkIRrp.s:893    .text.thread4:00000000 $t
C:\Users\z80\AppData\Local\Temp\cczkIRrp.s:898    .text.thread4:00000000 thread4
C:\Users\z80\AppData\Local\Temp\cczkIRrp.s:950    .text.sem4_execute:00000000 $t
C:\Users\z80\AppData\Local\Temp\cczkIRrp.s:955    .text.sem4_execute:00000000 sem4_execute
C:\Users\z80\AppData\Local\Temp\cczkIRrp.s:1151   .rodata.testsem4:00000000 testsem4
C:\Users\z80\AppData\Local\Temp\cczkIRrp.s:1148   .rodata.testsem4:00000000 $d
C:\Users\z80\AppData\Local\Temp\cczkIRrp.s:1161   .rodata.patternsem:00000000 patternsem
C:\Users\z80\AppData\Local\Temp\cczkIRrp.s:1158   .rodata.patternsem:00000000 $d
                     .debug_frame:00000010 $d

UNDEFINED SYMBOLS
chSemInit
chSemWait
test_emit_token
wa
rlist
chThdCreateStatic
threads
chSemSignal
test_wait_threads
_test_assert_sequence
dbg_check_lock
ARM GAS  C:\Users\z80\AppData\Local\Temp\cczkIRrp.s 			page 65


chSemAddCounterI
dbg_check_unlock
_test_assert
chThdSleep
chSemSignalI
chSchRescheduleS
chSemWaitTimeout
test_wait_tick
vtlist
_test_assert_time_window
chSemSignalWait
chSemReset
