ARM GAS  C:\Users\z80\AppData\Local\Temp\cczkIRrp.s 			page 1


   1              		.syntax unified
   2              		.cpu cortex-m3
   3              		.fpu softvfp
   4              		.eabi_attribute 20, 1
   5              		.eabi_attribute 21, 1
   6              		.eabi_attribute 23, 3
   7              		.eabi_attribute 24, 1
   8              		.eabi_attribute 25, 1
   9              		.eabi_attribute 26, 1
  10              		.eabi_attribute 30, 6
  11              		.eabi_attribute 34, 1
  12              		.eabi_attribute 18, 4
  13              		.thumb
  14              		.file	"testsem.c"
  15              		.text
  16              	.Ltext0:
  17              		.cfi_sections	.debug_frame
  18              		.section	.data.sem1,"aw",%progbits
  19              		.align	2
  20              		.type	sem1, %object
  21              		.size	sem1, 12
  22              	sem1:
  23 0000 00000000 		.word	sem1
  24 0004 00000000 		.word	sem1
  25 0008 00000000 		.word	0
  26              		.section	.text.sem1_setup,"ax",%progbits
  27              		.align	2
  28              		.p2align 4,,15
  29              		.thumb
  30              		.thumb_func
  31              		.type	sem1_setup, %function
  32              	sem1_setup:
  33              	.LFB7:
  34              		.file 1 "../chibios_2.4.x/test/testsem.c"
  35              		.loc 1 83 0
  36              		.cfi_startproc
  37              		@ args = 0, pretend = 0, frame = 0
  38              		@ frame_needed = 0, uses_anonymous_args = 0
  39 0000 08B5     		push	{r3, lr}
  40              	.LCFI0:
  41              		.cfi_def_cfa_offset 8
  42              		.cfi_offset 14, -4
  43              		.cfi_offset 3, -8
  44              		.loc 1 85 0
  45 0002 40F20000 		movw	r0, #:lower16:sem1
  46 0006 C0F20000 		movt	r0, #:upper16:sem1
  47 000a 4FF00001 		mov	r1, #0
  48 000e FFF7FEFF 		bl	chSemInit
  49              		.loc 1 86 0
  50 0012 08BD     		pop	{r3, pc}
  51              		.cfi_endproc
  52              	.LFE7:
  53              		.size	sem1_setup, .-sem1_setup
  54 0014 AFF30080 		.section	.text.thread1,"ax",%progbits
  54      AFF30080 
  54      AFF30080 
  55              		.align	2
ARM GAS  C:\Users\z80\AppData\Local\Temp\cczkIRrp.s 			page 2


  56              		.p2align 4,,15
  57              		.thumb
  58              		.thumb_func
  59              		.type	thread1, %function
  60              	thread1:
  61              	.LFB8:
  62              		.loc 1 88 0
  63              		.cfi_startproc
  64              		@ args = 0, pretend = 0, frame = 8
  65              		@ frame_needed = 0, uses_anonymous_args = 0
  66 0000 00B5     		push	{lr}
  67              	.LCFI1:
  68              		.cfi_def_cfa_offset 4
  69              		.cfi_offset 14, -4
  70 0002 83B0     		sub	sp, sp, #12
  71              	.LCFI2:
  72              		.cfi_def_cfa_offset 16
  73 0004 0190     		str	r0, [sp, #4]
  74              		.loc 1 90 0
  75 0006 40F20000 		movw	r0, #:lower16:sem1
  76 000a C0F20000 		movt	r0, #:upper16:sem1
  77 000e FFF7FEFF 		bl	chSemWait
  78              		.loc 1 91 0
  79 0012 019B     		ldr	r3, [sp, #4]
  80 0014 1B78     		ldrb	r3, [r3, #0]	@ zero_extendqisi2
  81 0016 1846     		mov	r0, r3
  82 0018 FFF7FEFF 		bl	test_emit_token
  83              		.loc 1 92 0
  84 001c 4FF00003 		mov	r3, #0
  85              		.loc 1 93 0
  86 0020 1846     		mov	r0, r3
  87 0022 03B0     		add	sp, sp, #12
  88 0024 00BD     		pop	{pc}
  89              		.cfi_endproc
  90              	.LFE8:
  91              		.size	thread1, .-thread1
  92 0026 00BFAFF3 		.section	.rodata
  92      0080AFF3 
  92      0080
  93              		.align	2
  94              	.LC0:
  95 0000 4100     		.ascii	"A\000"
  96 0002 0000     		.align	2
  97              	.LC1:
  98 0004 4200     		.ascii	"B\000"
  99 0006 0000     		.align	2
 100              	.LC2:
 101 0008 4300     		.ascii	"C\000"
 102 000a 0000     		.align	2
 103              	.LC3:
 104 000c 4400     		.ascii	"D\000"
 105 000e 0000     		.align	2
 106              	.LC4:
 107 0010 4500     		.ascii	"E\000"
 108 0012 0000     		.align	2
 109              	.LC5:
 110 0014 41424344 		.ascii	"ABCDE\000"
ARM GAS  C:\Users\z80\AppData\Local\Temp\cczkIRrp.s 			page 3


 110      4500
 111              		.section	.text.sem1_execute,"ax",%progbits
 112              		.align	2
 113              		.p2align 4,,15
 114              		.thumb
 115              		.thumb_func
 116              		.type	sem1_execute, %function
 117              	sem1_execute:
 118              	.LFB9:
 119              		.loc 1 95 0
 120              		.cfi_startproc
 121              		@ args = 0, pretend = 0, frame = 0
 122              		@ frame_needed = 0, uses_anonymous_args = 0
 123 0000 00B5     		push	{lr}
 124              	.LCFI3:
 125              		.cfi_def_cfa_offset 4
 126              		.cfi_offset 14, -4
 127 0002 83B0     		sub	sp, sp, #12
 128              	.LCFI4:
 129              		.cfi_def_cfa_offset 16
 130              		.loc 1 97 0
 131 0004 40F20003 		movw	r3, #:lower16:wa
 132 0008 C0F20003 		movt	r3, #:upper16:wa
 133 000c 1968     		ldr	r1, [r3, #0]
 134 000e 40F20003 		movw	r3, #:lower16:rlist
 135 0012 C0F20003 		movt	r3, #:upper16:rlist
 136 0016 DB69     		ldr	r3, [r3, #28]
 137 0018 9B68     		ldr	r3, [r3, #8]
 138 001a 03F10502 		add	r2, r3, #5
 139 001e 40F20003 		movw	r3, #:lower16:.LC0
 140 0022 C0F20003 		movt	r3, #:upper16:.LC0
 141 0026 0093     		str	r3, [sp, #0]
 142 0028 0846     		mov	r0, r1
 143 002a 4FF49871 		mov	r1, #304
 144 002e 40F20003 		movw	r3, #:lower16:thread1
 145 0032 C0F20003 		movt	r3, #:upper16:thread1
 146 0036 FFF7FEFF 		bl	chThdCreateStatic
 147 003a 0246     		mov	r2, r0
 148 003c 40F20003 		movw	r3, #:lower16:threads
 149 0040 C0F20003 		movt	r3, #:upper16:threads
 150 0044 1A60     		str	r2, [r3, #0]
 151              		.loc 1 98 0
 152 0046 40F20003 		movw	r3, #:lower16:wa
 153 004a C0F20003 		movt	r3, #:upper16:wa
 154 004e 5968     		ldr	r1, [r3, #4]
 155 0050 40F20003 		movw	r3, #:lower16:rlist
 156 0054 C0F20003 		movt	r3, #:upper16:rlist
 157 0058 DB69     		ldr	r3, [r3, #28]
 158 005a 9B68     		ldr	r3, [r3, #8]
 159 005c 03F10102 		add	r2, r3, #1
 160 0060 40F20003 		movw	r3, #:lower16:.LC1
 161 0064 C0F20003 		movt	r3, #:upper16:.LC1
 162 0068 0093     		str	r3, [sp, #0]
 163 006a 0846     		mov	r0, r1
 164 006c 4FF49871 		mov	r1, #304
 165 0070 40F20003 		movw	r3, #:lower16:thread1
 166 0074 C0F20003 		movt	r3, #:upper16:thread1
ARM GAS  C:\Users\z80\AppData\Local\Temp\cczkIRrp.s 			page 4


 167 0078 FFF7FEFF 		bl	chThdCreateStatic
 168 007c 0246     		mov	r2, r0
 169 007e 40F20003 		movw	r3, #:lower16:threads
 170 0082 C0F20003 		movt	r3, #:upper16:threads
 171 0086 5A60     		str	r2, [r3, #4]
 172              		.loc 1 99 0
 173 0088 40F20003 		movw	r3, #:lower16:wa
 174 008c C0F20003 		movt	r3, #:upper16:wa
 175 0090 9968     		ldr	r1, [r3, #8]
 176 0092 40F20003 		movw	r3, #:lower16:rlist
 177 0096 C0F20003 		movt	r3, #:upper16:rlist
 178 009a DB69     		ldr	r3, [r3, #28]
 179 009c 9B68     		ldr	r3, [r3, #8]
 180 009e 03F10302 		add	r2, r3, #3
 181 00a2 40F20003 		movw	r3, #:lower16:.LC2
 182 00a6 C0F20003 		movt	r3, #:upper16:.LC2
 183 00aa 0093     		str	r3, [sp, #0]
 184 00ac 0846     		mov	r0, r1
 185 00ae 4FF49871 		mov	r1, #304
 186 00b2 40F20003 		movw	r3, #:lower16:thread1
 187 00b6 C0F20003 		movt	r3, #:upper16:thread1
 188 00ba FFF7FEFF 		bl	chThdCreateStatic
 189 00be 0246     		mov	r2, r0
 190 00c0 40F20003 		movw	r3, #:lower16:threads
 191 00c4 C0F20003 		movt	r3, #:upper16:threads
 192 00c8 9A60     		str	r2, [r3, #8]
 193              		.loc 1 100 0
 194 00ca 40F20003 		movw	r3, #:lower16:wa
 195 00ce C0F20003 		movt	r3, #:upper16:wa
 196 00d2 D968     		ldr	r1, [r3, #12]
 197 00d4 40F20003 		movw	r3, #:lower16:rlist
 198 00d8 C0F20003 		movt	r3, #:upper16:rlist
 199 00dc DB69     		ldr	r3, [r3, #28]
 200 00de 9B68     		ldr	r3, [r3, #8]
 201 00e0 03F10402 		add	r2, r3, #4
 202 00e4 40F20003 		movw	r3, #:lower16:.LC3
 203 00e8 C0F20003 		movt	r3, #:upper16:.LC3
 204 00ec 0093     		str	r3, [sp, #0]
 205 00ee 0846     		mov	r0, r1
 206 00f0 4FF49871 		mov	r1, #304
 207 00f4 40F20003 		movw	r3, #:lower16:thread1
 208 00f8 C0F20003 		movt	r3, #:upper16:thread1
 209 00fc FFF7FEFF 		bl	chThdCreateStatic
 210 0100 0246     		mov	r2, r0
 211 0102 40F20003 		movw	r3, #:lower16:threads
 212 0106 C0F20003 		movt	r3, #:upper16:threads
 213 010a DA60     		str	r2, [r3, #12]
 214              		.loc 1 101 0
 215 010c 40F20003 		movw	r3, #:lower16:wa
 216 0110 C0F20003 		movt	r3, #:upper16:wa
 217 0114 1969     		ldr	r1, [r3, #16]
 218 0116 40F20003 		movw	r3, #:lower16:rlist
 219 011a C0F20003 		movt	r3, #:upper16:rlist
 220 011e DB69     		ldr	r3, [r3, #28]
 221 0120 9B68     		ldr	r3, [r3, #8]
 222 0122 03F10202 		add	r2, r3, #2
 223 0126 40F20003 		movw	r3, #:lower16:.LC4
ARM GAS  C:\Users\z80\AppData\Local\Temp\cczkIRrp.s 			page 5


 224 012a C0F20003 		movt	r3, #:upper16:.LC4
 225 012e 0093     		str	r3, [sp, #0]
 226 0130 0846     		mov	r0, r1
 227 0132 4FF49871 		mov	r1, #304
 228 0136 40F20003 		movw	r3, #:lower16:thread1
 229 013a C0F20003 		movt	r3, #:upper16:thread1
 230 013e FFF7FEFF 		bl	chThdCreateStatic
 231 0142 0246     		mov	r2, r0
 232 0144 40F20003 		movw	r3, #:lower16:threads
 233 0148 C0F20003 		movt	r3, #:upper16:threads
 234 014c 1A61     		str	r2, [r3, #16]
 235              		.loc 1 102 0
 236 014e 40F20000 		movw	r0, #:lower16:sem1
 237 0152 C0F20000 		movt	r0, #:upper16:sem1
 238 0156 FFF7FEFF 		bl	chSemSignal
 239              		.loc 1 103 0
 240 015a 40F20000 		movw	r0, #:lower16:sem1
 241 015e C0F20000 		movt	r0, #:upper16:sem1
 242 0162 FFF7FEFF 		bl	chSemSignal
 243              		.loc 1 104 0
 244 0166 40F20000 		movw	r0, #:lower16:sem1
 245 016a C0F20000 		movt	r0, #:upper16:sem1
 246 016e FFF7FEFF 		bl	chSemSignal
 247              		.loc 1 105 0
 248 0172 40F20000 		movw	r0, #:lower16:sem1
 249 0176 C0F20000 		movt	r0, #:upper16:sem1
 250 017a FFF7FEFF 		bl	chSemSignal
 251              		.loc 1 106 0
 252 017e 40F20000 		movw	r0, #:lower16:sem1
 253 0182 C0F20000 		movt	r0, #:upper16:sem1
 254 0186 FFF7FEFF 		bl	chSemSignal
 255              		.loc 1 107 0
 256 018a FFF7FEFF 		bl	test_wait_threads
 257              		.loc 1 111 0
 258 018e 4FF00100 		mov	r0, #1
 259 0192 40F20001 		movw	r1, #:lower16:.LC5
 260 0196 C0F20001 		movt	r1, #:upper16:.LC5
 261 019a FFF7FEFF 		bl	_test_assert_sequence
 262 019e 0346     		mov	r3, r0
 263 01a0 002B     		cmp	r3, #0
 264 01a2 46D1     		bne	.L3
 265              	.L4:
 266              		.loc 1 113 0
 267 01a4 40F20003 		movw	r3, #:lower16:wa
 268 01a8 C0F20003 		movt	r3, #:upper16:wa
 269 01ac 1968     		ldr	r1, [r3, #0]
 270 01ae 40F20003 		movw	r3, #:lower16:rlist
 271 01b2 C0F20003 		movt	r3, #:upper16:rlist
 272 01b6 DB69     		ldr	r3, [r3, #28]
 273 01b8 9B68     		ldr	r3, [r3, #8]
 274 01ba 03F10502 		add	r2, r3, #5
 275 01be 40F20003 		movw	r3, #:lower16:.LC0
 276 01c2 C0F20003 		movt	r3, #:upper16:.LC0
 277 01c6 0093     		str	r3, [sp, #0]
 278 01c8 0846     		mov	r0, r1
 279 01ca 4FF49871 		mov	r1, #304
 280 01ce 40F20003 		movw	r3, #:lower16:thread1
ARM GAS  C:\Users\z80\AppData\Local\Temp\cczkIRrp.s 			page 6


 281 01d2 C0F20003 		movt	r3, #:upper16:thread1
 282 01d6 FFF7FEFF 		bl	chThdCreateStatic
 283 01da 0246     		mov	r2, r0
 284 01dc 40F20003 		movw	r3, #:lower16:threads
 285 01e0 C0F20003 		movt	r3, #:upper16:threads
 286 01e4 1A60     		str	r2, [r3, #0]
 287              	.LBB2:
 288              		.loc 1 114 0
 289 01e6 4FF02003 		mov	r3, #32
 290              	@ 114 "../chibios_2.4.x/test/testsem.c" 1
 291 01ea 83F31188 		msr     BASEPRI, r3
 292              	@ 0 "" 2
 293              		.thumb
 294              	.LBE2:
 295 01ee FFF7FEFF 		bl	dbg_check_lock
 296              		.loc 1 115 0
 297 01f2 40F20000 		movw	r0, #:lower16:sem1
 298 01f6 C0F20000 		movt	r0, #:upper16:sem1
 299 01fa 4FF00201 		mov	r1, #2
 300 01fe FFF7FEFF 		bl	chSemAddCounterI
 301              		.loc 1 116 0
 302 0202 FFF7FEFF 		bl	dbg_check_unlock
 303              	.LBB3:
 304 0206 4FF00003 		mov	r3, #0
 305              	@ 116 "../chibios_2.4.x/test/testsem.c" 1
 306 020a 83F31188 		msr     BASEPRI, r3
 307              	@ 0 "" 2
 308              		.thumb
 309              	.LBE3:
 310              		.loc 1 117 0
 311 020e FFF7FEFF 		bl	test_wait_threads
 312              		.loc 1 118 0
 313 0212 40F20003 		movw	r3, #:lower16:sem1
 314 0216 C0F20003 		movt	r3, #:upper16:sem1
 315 021a 9B68     		ldr	r3, [r3, #8]
 316 021c 012B     		cmp	r3, #1
 317 021e 14BF     		ite	ne
 318 0220 0023     		movne	r3, #0
 319 0222 0123     		moveq	r3, #1
 320 0224 4FF00200 		mov	r0, #2
 321 0228 1946     		mov	r1, r3
 322 022a FFF7FEFF 		bl	_test_assert
 323 022e 0346     		mov	r3, r0
 324 0230 002B     		cmp	r3, #0
 325              	.L3:
 326              		.loc 1 119 0
 327 0232 03B0     		add	sp, sp, #12
 328 0234 00BD     		pop	{pc}
 329              		.cfi_endproc
 330              	.LFE9:
 331              		.size	sem1_execute, .-sem1_execute
 332              		.global	testsem1
 333 0236 00BFAFF3 		.section	.rodata
 333      0080AFF3 
 333      0080
 334 001a 0000     		.align	2
 335              	.LC6:
ARM GAS  C:\Users\z80\AppData\Local\Temp\cczkIRrp.s 			page 7


 336 001c 53656D61 		.ascii	"Semaphores, enqueuing\000"
 336      70686F72 
 336      65732C20 
 336      656E7175 
 336      6575696E 
 337              		.section	.rodata.testsem1,"a",%progbits
 338              		.align	2
 339              		.type	testsem1, %object
 340              		.size	testsem1, 16
 341              	testsem1:
 342 0000 1C000000 		.word	.LC6
 343 0004 00000000 		.word	sem1_setup
 344 0008 00000000 		.word	0
 345 000c 00000000 		.word	sem1_execute
 346              		.section	.text.sem2_setup,"ax",%progbits
 347              		.align	2
 348              		.p2align 4,,15
 349              		.thumb
 350              		.thumb_func
 351              		.type	sem2_setup, %function
 352              	sem2_setup:
 353              	.LFB10:
 354              		.loc 1 139 0
 355              		.cfi_startproc
 356              		@ args = 0, pretend = 0, frame = 0
 357              		@ frame_needed = 0, uses_anonymous_args = 0
 358 0000 08B5     		push	{r3, lr}
 359              	.LCFI5:
 360              		.cfi_def_cfa_offset 8
 361              		.cfi_offset 14, -4
 362              		.cfi_offset 3, -8
 363              		.loc 1 141 0
 364 0002 40F20000 		movw	r0, #:lower16:sem1
 365 0006 C0F20000 		movt	r0, #:upper16:sem1
 366 000a 4FF00001 		mov	r1, #0
 367 000e FFF7FEFF 		bl	chSemInit
 368              		.loc 1 142 0
 369 0012 08BD     		pop	{r3, pc}
 370              		.cfi_endproc
 371              	.LFE10:
 372              		.size	sem2_setup, .-sem2_setup
 373 0014 AFF30080 		.section	.text.thread2,"ax",%progbits
 373      AFF30080 
 373      AFF30080 
 374              		.align	2
 375              		.p2align 4,,15
 376              		.thumb
 377              		.thumb_func
 378              		.type	thread2, %function
 379              	thread2:
 380              	.LFB11:
 381              		.loc 1 144 0
 382              		.cfi_startproc
 383              		@ args = 0, pretend = 0, frame = 8
 384              		@ frame_needed = 0, uses_anonymous_args = 0
 385 0000 00B5     		push	{lr}
 386              	.LCFI6:
ARM GAS  C:\Users\z80\AppData\Local\Temp\cczkIRrp.s 			page 8


 387              		.cfi_def_cfa_offset 4
 388              		.cfi_offset 14, -4
 389 0002 83B0     		sub	sp, sp, #12
 390              	.LCFI7:
 391              		.cfi_def_cfa_offset 16
 392 0004 0190     		str	r0, [sp, #4]
 393              		.loc 1 147 0
 394 0006 4FF01900 		mov	r0, #25
 395 000a FFF7FEFF 		bl	chThdSleep
 396              	.LBB4:
 397              		.loc 1 148 0
 398 000e 4FF02003 		mov	r3, #32
 399              	@ 148 "../chibios_2.4.x/test/testsem.c" 1
 400 0012 83F31188 		msr     BASEPRI, r3
 401              	@ 0 "" 2
 402              		.thumb
 403              	.LBE4:
 404 0016 FFF7FEFF 		bl	dbg_check_lock
 405              		.loc 1 149 0
 406 001a 40F20000 		movw	r0, #:lower16:sem1
 407 001e C0F20000 		movt	r0, #:upper16:sem1
 408 0022 FFF7FEFF 		bl	chSemSignalI
 409              		.loc 1 150 0
 410 0026 FFF7FEFF 		bl	chSchRescheduleS
 411              		.loc 1 151 0
 412 002a FFF7FEFF 		bl	dbg_check_unlock
 413              	.LBB5:
 414 002e 4FF00003 		mov	r3, #0
 415              	@ 151 "../chibios_2.4.x/test/testsem.c" 1
 416 0032 83F31188 		msr     BASEPRI, r3
 417              	@ 0 "" 2
 418              		.thumb
 419              	.LBE5:
 420              		.loc 1 152 0
 421 0036 4FF00003 		mov	r3, #0
 422              		.loc 1 153 0
 423 003a 1846     		mov	r0, r3
 424 003c 03B0     		add	sp, sp, #12
 425 003e 00BD     		pop	{pc}
 426              		.cfi_endproc
 427              	.LFE11:
 428              		.size	thread2, .-thread2
 429              		.section	.text.sem2_execute,"ax",%progbits
 430              		.align	2
 431              		.p2align 4,,15
 432              		.thumb
 433              		.thumb_func
 434              		.type	sem2_execute, %function
 435              	sem2_execute:
 436              	.LFB12:
 437              		.loc 1 155 0
 438              		.cfi_startproc
 439              		@ args = 0, pretend = 0, frame = 16
 440              		@ frame_needed = 0, uses_anonymous_args = 0
 441 0000 00B5     		push	{lr}
 442              	.LCFI8:
 443              		.cfi_def_cfa_offset 4
ARM GAS  C:\Users\z80\AppData\Local\Temp\cczkIRrp.s 			page 9


 444              		.cfi_offset 14, -4
 445 0002 87B0     		sub	sp, sp, #28
 446              	.LCFI9:
 447              		.cfi_def_cfa_offset 32
 448              		.loc 1 163 0
 449 0004 40F20000 		movw	r0, #:lower16:sem1
 450 0008 C0F20000 		movt	r0, #:upper16:sem1
 451 000c 4FF00001 		mov	r1, #0
 452 0010 FFF7FEFF 		bl	chSemWaitTimeout
 453 0014 0490     		str	r0, [sp, #16]
 454              		.loc 1 164 0
 455 0016 049B     		ldr	r3, [sp, #16]
 456 0018 B3F1FF3F 		cmp	r3, #-1
 457 001c 14BF     		ite	ne
 458 001e 0023     		movne	r3, #0
 459 0020 0123     		moveq	r3, #1
 460 0022 4FF00100 		mov	r0, #1
 461 0026 1946     		mov	r1, r3
 462 0028 FFF7FEFF 		bl	_test_assert
 463 002c 0346     		mov	r3, r0
 464 002e 002B     		cmp	r3, #0
 465 0030 40F0FA80 		bne	.L8
 466              	.L9:
 467              		.loc 1 165 0
 468 0034 40F20003 		movw	r3, #:lower16:sem1
 469 0038 C0F20003 		movt	r3, #:upper16:sem1
 470 003c 1A68     		ldr	r2, [r3, #0]
 471 003e 40F20003 		movw	r3, #:lower16:sem1
 472 0042 C0F20003 		movt	r3, #:upper16:sem1
 473 0046 9A42     		cmp	r2, r3
 474 0048 14BF     		ite	ne
 475 004a 0023     		movne	r3, #0
 476 004c 0123     		moveq	r3, #1
 477 004e 4FF00200 		mov	r0, #2
 478 0052 1946     		mov	r1, r3
 479 0054 FFF7FEFF 		bl	_test_assert
 480 0058 0346     		mov	r3, r0
 481 005a 002B     		cmp	r3, #0
 482 005c 40F0E480 		bne	.L8
 483              	.L11:
 484              		.loc 1 166 0
 485 0060 40F20003 		movw	r3, #:lower16:sem1
 486 0064 C0F20003 		movt	r3, #:upper16:sem1
 487 0068 9B68     		ldr	r3, [r3, #8]
 488 006a 002B     		cmp	r3, #0
 489 006c 14BF     		ite	ne
 490 006e 0023     		movne	r3, #0
 491 0070 0123     		moveq	r3, #1
 492 0072 4FF00300 		mov	r0, #3
 493 0076 1946     		mov	r1, r3
 494 0078 FFF7FEFF 		bl	_test_assert
 495 007c 0346     		mov	r3, r0
 496 007e 002B     		cmp	r3, #0
 497 0080 40F0D280 		bne	.L8
 498              	.L12:
 499              		.loc 1 171 0
 500 0084 40F20003 		movw	r3, #:lower16:wa
ARM GAS  C:\Users\z80\AppData\Local\Temp\cczkIRrp.s 			page 10


 501 0088 C0F20003 		movt	r3, #:upper16:wa
 502 008c 1A68     		ldr	r2, [r3, #0]
 503 008e 40F20003 		movw	r3, #:lower16:rlist
 504 0092 C0F20003 		movt	r3, #:upper16:rlist
 505 0096 DB69     		ldr	r3, [r3, #28]
 506 0098 9B68     		ldr	r3, [r3, #8]
 507 009a 03F1FF33 		add	r3, r3, #-1
 508 009e 4FF00001 		mov	r1, #0
 509 00a2 0091     		str	r1, [sp, #0]
 510 00a4 1046     		mov	r0, r2
 511 00a6 4FF49871 		mov	r1, #304
 512 00aa 1A46     		mov	r2, r3
 513 00ac 40F20003 		movw	r3, #:lower16:thread2
 514 00b0 C0F20003 		movt	r3, #:upper16:thread2
 515 00b4 FFF7FEFF 		bl	chThdCreateStatic
 516 00b8 0246     		mov	r2, r0
 517 00ba 40F20003 		movw	r3, #:lower16:threads
 518 00be C0F20003 		movt	r3, #:upper16:threads
 519 00c2 1A60     		str	r2, [r3, #0]
 520              		.loc 1 173 0
 521 00c4 40F20000 		movw	r0, #:lower16:sem1
 522 00c8 C0F20000 		movt	r0, #:upper16:sem1
 523 00cc 4FF0FA01 		mov	r1, #250
 524 00d0 FFF7FEFF 		bl	chSemWaitTimeout
 525 00d4 0490     		str	r0, [sp, #16]
 526              		.loc 1 174 0
 527 00d6 FFF7FEFF 		bl	test_wait_threads
 528              		.loc 1 175 0
 529 00da 049B     		ldr	r3, [sp, #16]
 530 00dc 002B     		cmp	r3, #0
 531 00de 14BF     		ite	ne
 532 00e0 0023     		movne	r3, #0
 533 00e2 0123     		moveq	r3, #1
 534 00e4 4FF00400 		mov	r0, #4
 535 00e8 1946     		mov	r1, r3
 536 00ea FFF7FEFF 		bl	_test_assert
 537 00ee 0346     		mov	r3, r0
 538 00f0 002B     		cmp	r3, #0
 539 00f2 40F09980 		bne	.L8
 540              	.L13:
 541              		.loc 1 176 0
 542 00f6 40F20003 		movw	r3, #:lower16:sem1
 543 00fa C0F20003 		movt	r3, #:upper16:sem1
 544 00fe 1A68     		ldr	r2, [r3, #0]
 545 0100 40F20003 		movw	r3, #:lower16:sem1
 546 0104 C0F20003 		movt	r3, #:upper16:sem1
 547 0108 9A42     		cmp	r2, r3
 548 010a 14BF     		ite	ne
 549 010c 0023     		movne	r3, #0
 550 010e 0123     		moveq	r3, #1
 551 0110 4FF00500 		mov	r0, #5
 552 0114 1946     		mov	r1, r3
 553 0116 FFF7FEFF 		bl	_test_assert
 554 011a 0346     		mov	r3, r0
 555 011c 002B     		cmp	r3, #0
 556 011e 40F08380 		bne	.L8
 557              	.L14:
ARM GAS  C:\Users\z80\AppData\Local\Temp\cczkIRrp.s 			page 11


 558              		.loc 1 177 0
 559 0122 40F20003 		movw	r3, #:lower16:sem1
 560 0126 C0F20003 		movt	r3, #:upper16:sem1
 561 012a 9B68     		ldr	r3, [r3, #8]
 562 012c 002B     		cmp	r3, #0
 563 012e 14BF     		ite	ne
 564 0130 0023     		movne	r3, #0
 565 0132 0123     		moveq	r3, #1
 566 0134 4FF00600 		mov	r0, #6
 567 0138 1946     		mov	r1, r3
 568 013a FFF7FEFF 		bl	_test_assert
 569 013e 0346     		mov	r3, r0
 570 0140 002B     		cmp	r3, #0
 571 0142 71D1     		bne	.L8
 572              	.L15:
 573              		.loc 1 182 0
 574 0144 FFF7FEFF 		bl	test_wait_tick
 575              		.loc 1 183 0
 576 0148 40F20003 		movw	r3, #:lower16:vtlist
 577 014c C0F20003 		movt	r3, #:upper16:vtlist
 578 0150 DB68     		ldr	r3, [r3, #12]
 579 0152 03F59C63 		add	r3, r3, #1248
 580 0156 03F10203 		add	r3, r3, #2
 581 015a 0393     		str	r3, [sp, #12]
 582              		.loc 1 184 0
 583 015c 4FF00003 		mov	r3, #0
 584 0160 0593     		str	r3, [sp, #20]
 585 0162 48E0     		b	.L16
 586              	.L20:
 587              		.loc 1 185 0
 588 0164 059B     		ldr	r3, [sp, #20]
 589 0166 DBB2     		uxtb	r3, r3
 590 0168 03F14103 		add	r3, r3, #65
 591 016c DBB2     		uxtb	r3, r3
 592 016e 1846     		mov	r0, r3
 593 0170 FFF7FEFF 		bl	test_emit_token
 594              		.loc 1 186 0
 595 0174 40F20000 		movw	r0, #:lower16:sem1
 596 0178 C0F20000 		movt	r0, #:upper16:sem1
 597 017c 4FF0FA01 		mov	r1, #250
 598 0180 FFF7FEFF 		bl	chSemWaitTimeout
 599 0184 0490     		str	r0, [sp, #16]
 600              		.loc 1 187 0
 601 0186 049B     		ldr	r3, [sp, #16]
 602 0188 B3F1FF3F 		cmp	r3, #-1
 603 018c 14BF     		ite	ne
 604 018e 0023     		movne	r3, #0
 605 0190 0123     		moveq	r3, #1
 606 0192 4FF00700 		mov	r0, #7
 607 0196 1946     		mov	r1, r3
 608 0198 FFF7FEFF 		bl	_test_assert
 609 019c 0346     		mov	r3, r0
 610 019e 002B     		cmp	r3, #0
 611 01a0 42D1     		bne	.L8
 612              	.L17:
 613              		.loc 1 188 0
 614 01a2 40F20003 		movw	r3, #:lower16:sem1
ARM GAS  C:\Users\z80\AppData\Local\Temp\cczkIRrp.s 			page 12


 615 01a6 C0F20003 		movt	r3, #:upper16:sem1
 616 01aa 1A68     		ldr	r2, [r3, #0]
 617 01ac 40F20003 		movw	r3, #:lower16:sem1
 618 01b0 C0F20003 		movt	r3, #:upper16:sem1
 619 01b4 9A42     		cmp	r2, r3
 620 01b6 14BF     		ite	ne
 621 01b8 0023     		movne	r3, #0
 622 01ba 0123     		moveq	r3, #1
 623 01bc 4FF00800 		mov	r0, #8
 624 01c0 1946     		mov	r1, r3
 625 01c2 FFF7FEFF 		bl	_test_assert
 626 01c6 0346     		mov	r3, r0
 627 01c8 002B     		cmp	r3, #0
 628 01ca 2DD1     		bne	.L8
 629              	.L18:
 630              		.loc 1 189 0
 631 01cc 40F20003 		movw	r3, #:lower16:sem1
 632 01d0 C0F20003 		movt	r3, #:upper16:sem1
 633 01d4 9B68     		ldr	r3, [r3, #8]
 634 01d6 002B     		cmp	r3, #0
 635 01d8 14BF     		ite	ne
 636 01da 0023     		movne	r3, #0
 637 01dc 0123     		moveq	r3, #1
 638 01de 4FF00900 		mov	r0, #9
 639 01e2 1946     		mov	r1, r3
 640 01e4 FFF7FEFF 		bl	_test_assert
 641 01e8 0346     		mov	r3, r0
 642 01ea 002B     		cmp	r3, #0
 643 01ec 1CD1     		bne	.L8
 644              	.L19:
 645              		.loc 1 184 0
 646 01ee 059B     		ldr	r3, [sp, #20]
 647 01f0 03F10103 		add	r3, r3, #1
 648 01f4 0593     		str	r3, [sp, #20]
 649              	.L16:
 650              		.loc 1 184 0 is_stmt 0 discriminator 1
 651 01f6 059B     		ldr	r3, [sp, #20]
 652 01f8 042B     		cmp	r3, #4
 653 01fa B3DD     		ble	.L20
 654              		.loc 1 191 0 is_stmt 1
 655 01fc 4FF00A00 		mov	r0, #10
 656 0200 40F20001 		movw	r1, #:lower16:.LC5
 657 0204 C0F20001 		movt	r1, #:upper16:.LC5
 658 0208 FFF7FEFF 		bl	_test_assert_sequence
 659 020c 0346     		mov	r3, r0
 660 020e 002B     		cmp	r3, #0
 661 0210 0AD1     		bne	.L8
 662              	.L21:
 663              		.loc 1 192 0
 664 0212 039B     		ldr	r3, [sp, #12]
 665 0214 03F10303 		add	r3, r3, #3
 666 0218 4FF00B00 		mov	r0, #11
 667 021c 0399     		ldr	r1, [sp, #12]
 668 021e 1A46     		mov	r2, r3
 669 0220 FFF7FEFF 		bl	_test_assert_time_window
 670 0224 0346     		mov	r3, r0
 671 0226 002B     		cmp	r3, #0
ARM GAS  C:\Users\z80\AppData\Local\Temp\cczkIRrp.s 			page 13


 672              	.L8:
 673              		.loc 1 193 0
 674 0228 07B0     		add	sp, sp, #28
 675 022a 00BD     		pop	{pc}
 676              		.cfi_endproc
 677              	.LFE12:
 678              		.size	sem2_execute, .-sem2_execute
 679              		.global	testsem2
 680 022c AFF30080 		.section	.rodata
 681 0032 0000     		.align	2
 682              	.LC7:
 683 0034 53656D61 		.ascii	"Semaphores, timeout\000"
 683      70686F72 
 683      65732C20 
 683      74696D65 
 683      6F757400 
 684              		.section	.rodata.testsem2,"a",%progbits
 685              		.align	2
 686              		.type	testsem2, %object
 687              		.size	testsem2, 16
 688              	testsem2:
 689 0000 34000000 		.word	.LC7
 690 0004 00000000 		.word	sem2_setup
 691 0008 00000000 		.word	0
 692 000c 00000000 		.word	sem2_execute
 693              		.section	.text.sem3_setup,"ax",%progbits
 694              		.align	2
 695              		.p2align 4,,15
 696              		.thumb
 697              		.thumb_func
 698              		.type	sem3_setup, %function
 699              	sem3_setup:
 700              	.LFB13:
 701              		.loc 1 215 0
 702              		.cfi_startproc
 703              		@ args = 0, pretend = 0, frame = 0
 704              		@ frame_needed = 0, uses_anonymous_args = 0
 705 0000 08B5     		push	{r3, lr}
 706              	.LCFI10:
 707              		.cfi_def_cfa_offset 8
 708              		.cfi_offset 14, -4
 709              		.cfi_offset 3, -8
 710              		.loc 1 217 0
 711 0002 40F20000 		movw	r0, #:lower16:sem1
 712 0006 C0F20000 		movt	r0, #:upper16:sem1
 713 000a 4FF00001 		mov	r1, #0
 714 000e FFF7FEFF 		bl	chSemInit
 715              		.loc 1 218 0
 716 0012 08BD     		pop	{r3, pc}
 717              		.cfi_endproc
 718              	.LFE13:
 719              		.size	sem3_setup, .-sem3_setup
 720 0014 AFF30080 		.section	.text.thread3,"ax",%progbits
 720      AFF30080 
 720      AFF30080 
 721              		.align	2
 722              		.p2align 4,,15
ARM GAS  C:\Users\z80\AppData\Local\Temp\cczkIRrp.s 			page 14


 723              		.thumb
 724              		.thumb_func
 725              		.type	thread3, %function
 726              	thread3:
 727              	.LFB14:
 728              		.loc 1 220 0
 729              		.cfi_startproc
 730              		@ args = 0, pretend = 0, frame = 8
 731              		@ frame_needed = 0, uses_anonymous_args = 0
 732 0000 00B5     		push	{lr}
 733              	.LCFI11:
 734              		.cfi_def_cfa_offset 4
 735              		.cfi_offset 14, -4
 736 0002 83B0     		sub	sp, sp, #12
 737              	.LCFI12:
 738              		.cfi_def_cfa_offset 16
 739 0004 0190     		str	r0, [sp, #4]
 740              		.loc 1 223 0
 741 0006 40F20000 		movw	r0, #:lower16:sem1
 742 000a C0F20000 		movt	r0, #:upper16:sem1
 743 000e FFF7FEFF 		bl	chSemWait
 744              		.loc 1 224 0
 745 0012 40F20000 		movw	r0, #:lower16:sem1
 746 0016 C0F20000 		movt	r0, #:upper16:sem1
 747 001a FFF7FEFF 		bl	chSemSignal
 748              		.loc 1 225 0
 749 001e 4FF00003 		mov	r3, #0
 750              		.loc 1 226 0
 751 0022 1846     		mov	r0, r3
 752 0024 03B0     		add	sp, sp, #12
 753 0026 00BD     		pop	{pc}
 754              		.cfi_endproc
 755              	.LFE14:
 756              		.size	thread3, .-thread3
 757 0028 AFF30080 		.section	.text.sem3_execute,"ax",%progbits
 757      AFF30080 
 758              		.align	2
 759              		.p2align 4,,15
 760              		.thumb
 761              		.thumb_func
 762              		.type	sem3_execute, %function
 763              	sem3_execute:
 764              	.LFB15:
 765              		.loc 1 228 0
 766              		.cfi_startproc
 767              		@ args = 0, pretend = 0, frame = 0
 768              		@ frame_needed = 0, uses_anonymous_args = 0
 769 0000 00B5     		push	{lr}
 770              	.LCFI13:
 771              		.cfi_def_cfa_offset 4
 772              		.cfi_offset 14, -4
 773 0002 83B0     		sub	sp, sp, #12
 774              	.LCFI14:
 775              		.cfi_def_cfa_offset 16
 776              		.loc 1 230 0
 777 0004 40F20003 		movw	r3, #:lower16:wa
 778 0008 C0F20003 		movt	r3, #:upper16:wa
ARM GAS  C:\Users\z80\AppData\Local\Temp\cczkIRrp.s 			page 15


 779 000c 1A68     		ldr	r2, [r3, #0]
 780 000e 40F20003 		movw	r3, #:lower16:rlist
 781 0012 C0F20003 		movt	r3, #:upper16:rlist
 782 0016 DB69     		ldr	r3, [r3, #28]
 783 0018 9B68     		ldr	r3, [r3, #8]
 784 001a 03F10103 		add	r3, r3, #1
 785 001e 4FF00001 		mov	r1, #0
 786 0022 0091     		str	r1, [sp, #0]
 787 0024 1046     		mov	r0, r2
 788 0026 4FF49871 		mov	r1, #304
 789 002a 1A46     		mov	r2, r3
 790 002c 40F20003 		movw	r3, #:lower16:thread3
 791 0030 C0F20003 		movt	r3, #:upper16:thread3
 792 0034 FFF7FEFF 		bl	chThdCreateStatic
 793 0038 0246     		mov	r2, r0
 794 003a 40F20003 		movw	r3, #:lower16:threads
 795 003e C0F20003 		movt	r3, #:upper16:threads
 796 0042 1A60     		str	r2, [r3, #0]
 797              		.loc 1 231 0
 798 0044 40F20000 		movw	r0, #:lower16:sem1
 799 0048 C0F20000 		movt	r0, #:upper16:sem1
 800 004c 40F20001 		movw	r1, #:lower16:sem1
 801 0050 C0F20001 		movt	r1, #:upper16:sem1
 802 0054 FFF7FEFF 		bl	chSemSignalWait
 803              		.loc 1 232 0
 804 0058 40F20003 		movw	r3, #:lower16:sem1
 805 005c C0F20003 		movt	r3, #:upper16:sem1
 806 0060 1A68     		ldr	r2, [r3, #0]
 807 0062 40F20003 		movw	r3, #:lower16:sem1
 808 0066 C0F20003 		movt	r3, #:upper16:sem1
 809 006a 9A42     		cmp	r2, r3
 810 006c 14BF     		ite	ne
 811 006e 0023     		movne	r3, #0
 812 0070 0123     		moveq	r3, #1
 813 0072 4FF00100 		mov	r0, #1
 814 0076 1946     		mov	r1, r3
 815 0078 FFF7FEFF 		bl	_test_assert
 816 007c 0346     		mov	r3, r0
 817 007e 002B     		cmp	r3, #0
 818 0080 3FD1     		bne	.L24
 819              	.L25:
 820              		.loc 1 233 0
 821 0082 40F20003 		movw	r3, #:lower16:sem1
 822 0086 C0F20003 		movt	r3, #:upper16:sem1
 823 008a 9B68     		ldr	r3, [r3, #8]
 824 008c 002B     		cmp	r3, #0
 825 008e 14BF     		ite	ne
 826 0090 0023     		movne	r3, #0
 827 0092 0123     		moveq	r3, #1
 828 0094 4FF00200 		mov	r0, #2
 829 0098 1946     		mov	r1, r3
 830 009a FFF7FEFF 		bl	_test_assert
 831 009e 0346     		mov	r3, r0
 832 00a0 002B     		cmp	r3, #0
 833 00a2 2ED1     		bne	.L24
 834              	.L27:
 835              		.loc 1 235 0
ARM GAS  C:\Users\z80\AppData\Local\Temp\cczkIRrp.s 			page 16


 836 00a4 40F20000 		movw	r0, #:lower16:sem1
 837 00a8 C0F20000 		movt	r0, #:upper16:sem1
 838 00ac 40F20001 		movw	r1, #:lower16:sem1
 839 00b0 C0F20001 		movt	r1, #:upper16:sem1
 840 00b4 FFF7FEFF 		bl	chSemSignalWait
 841              		.loc 1 236 0
 842 00b8 40F20003 		movw	r3, #:lower16:sem1
 843 00bc C0F20003 		movt	r3, #:upper16:sem1
 844 00c0 1A68     		ldr	r2, [r3, #0]
 845 00c2 40F20003 		movw	r3, #:lower16:sem1
 846 00c6 C0F20003 		movt	r3, #:upper16:sem1
 847 00ca 9A42     		cmp	r2, r3
 848 00cc 14BF     		ite	ne
 849 00ce 0023     		movne	r3, #0
 850 00d0 0123     		moveq	r3, #1
 851 00d2 4FF00300 		mov	r0, #3
 852 00d6 1946     		mov	r1, r3
 853 00d8 FFF7FEFF 		bl	_test_assert
 854 00dc 0346     		mov	r3, r0
 855 00de 002B     		cmp	r3, #0
 856 00e0 0FD1     		bne	.L24
 857              	.L28:
 858              		.loc 1 237 0
 859 00e2 40F20003 		movw	r3, #:lower16:sem1
 860 00e6 C0F20003 		movt	r3, #:upper16:sem1
 861 00ea 9B68     		ldr	r3, [r3, #8]
 862 00ec 002B     		cmp	r3, #0
 863 00ee 14BF     		ite	ne
 864 00f0 0023     		movne	r3, #0
 865 00f2 0123     		moveq	r3, #1
 866 00f4 4FF00400 		mov	r0, #4
 867 00f8 1946     		mov	r1, r3
 868 00fa FFF7FEFF 		bl	_test_assert
 869 00fe 0346     		mov	r3, r0
 870 0100 002B     		cmp	r3, #0
 871              	.L24:
 872              		.loc 1 238 0
 873 0102 03B0     		add	sp, sp, #12
 874 0104 00BD     		pop	{pc}
 875              		.cfi_endproc
 876              	.LFE15:
 877              		.size	sem3_execute, .-sem3_execute
 878              		.global	testsem3
 879 0106 00BFAFF3 		.section	.rodata
 879      0080AFF3 
 879      0080
 880              		.align	2
 881              	.LC8:
 882 0048 53656D61 		.ascii	"Semaphores, atomic signal-wait\000"
 882      70686F72 
 882      65732C20 
 882      61746F6D 
 882      69632073 
 883              		.section	.rodata.testsem3,"a",%progbits
 884              		.align	2
 885              		.type	testsem3, %object
 886              		.size	testsem3, 16
ARM GAS  C:\Users\z80\AppData\Local\Temp\cczkIRrp.s 			page 17


 887              	testsem3:
 888 0000 48000000 		.word	.LC8
 889 0004 00000000 		.word	sem3_setup
 890 0008 00000000 		.word	0
 891 000c 00000000 		.word	sem3_execute
 892              		.section	.text.thread4,"ax",%progbits
 893              		.align	2
 894              		.p2align 4,,15
 895              		.thumb
 896              		.thumb_func
 897              		.type	thread4, %function
 898              	thread4:
 899              	.LFB16:
 900              		.loc 1 256 0
 901              		.cfi_startproc
 902              		@ args = 0, pretend = 0, frame = 8
 903              		@ frame_needed = 0, uses_anonymous_args = 0
 904 0000 00B5     		push	{lr}
 905              	.LCFI15:
 906              		.cfi_def_cfa_offset 4
 907              		.cfi_offset 14, -4
 908 0002 83B0     		sub	sp, sp, #12
 909              	.LCFI16:
 910              		.cfi_def_cfa_offset 16
 911 0004 0190     		str	r0, [sp, #4]
 912              	.LBB6:
 913              		.loc 1 258 0
 914 0006 4FF02003 		mov	r3, #32
 915              	@ 258 "../chibios_2.4.x/test/testsem.c" 1
 916 000a 83F31188 		msr     BASEPRI, r3
 917              	@ 0 "" 2
 918              		.thumb
 919              	.LBE6:
 920 000e FFF7FEFF 		bl	dbg_check_lock
 921 0012 019B     		ldr	r3, [sp, #4]
 922 0014 9B68     		ldr	r3, [r3, #8]
 923 0016 002B     		cmp	r3, #0
 924 0018 03DC     		bgt	.L30
 925              		.loc 1 258 0 is_stmt 0 discriminator 1
 926 001a 019B     		ldr	r3, [sp, #4]
 927 001c 1846     		mov	r0, r3
 928 001e FFF7FEFF 		bl	chSemSignalI
 929              	.L30:
 930              		.loc 1 258 0 discriminator 2
 931 0022 FFF7FEFF 		bl	chSchRescheduleS
 932 0026 FFF7FEFF 		bl	dbg_check_unlock
 933              	.LBB7:
 934 002a 4FF00003 		mov	r3, #0
 935              	@ 258 "../chibios_2.4.x/test/testsem.c" 1
 936 002e 83F31188 		msr     BASEPRI, r3
 937              	@ 0 "" 2
 938              		.thumb
 939              	.LBE7:
 940              		.loc 1 259 0 is_stmt 1 discriminator 2
 941 0032 4FF00003 		mov	r3, #0
 942              		.loc 1 260 0 discriminator 2
 943 0036 1846     		mov	r0, r3
ARM GAS  C:\Users\z80\AppData\Local\Temp\cczkIRrp.s 			page 18


 944 0038 03B0     		add	sp, sp, #12
 945 003a 00BD     		pop	{pc}
 946              		.cfi_endproc
 947              	.LFE16:
 948              		.size	thread4, .-thread4
 949 003c AFF30080 		.section	.text.sem4_execute,"ax",%progbits
 950              		.align	2
 951              		.p2align 4,,15
 952              		.thumb
 953              		.thumb_func
 954              		.type	sem4_execute, %function
 955              	sem4_execute:
 956              	.LFB17:
 957              		.loc 1 262 0
 958              		.cfi_startproc
 959              		@ args = 0, pretend = 0, frame = 16
 960              		@ frame_needed = 0, uses_anonymous_args = 0
 961 0000 00B5     		push	{lr}
 962              	.LCFI17:
 963              		.cfi_def_cfa_offset 4
 964              		.cfi_offset 14, -4
 965 0002 87B0     		sub	sp, sp, #28
 966              	.LCFI18:
 967              		.cfi_def_cfa_offset 32
 968              		.loc 1 266 0
 969 0004 03AB     		add	r3, sp, #12
 970 0006 1846     		mov	r0, r3
 971 0008 4FF00001 		mov	r1, #0
 972 000c FFF7FEFF 		bl	chSemInit
 973              		.loc 1 267 0
 974 0010 03AB     		add	r3, sp, #12
 975 0012 1846     		mov	r0, r3
 976 0014 4FF00001 		mov	r1, #0
 977 0018 FFF7FEFF 		bl	chSemReset
 978              		.loc 1 268 0
 979 001c 059B     		ldr	r3, [sp, #20]
 980 001e 002B     		cmp	r3, #0
 981 0020 CCBF     		ite	gt
 982 0022 0023     		movgt	r3, #0
 983 0024 0123     		movle	r3, #1
 984 0026 4FF00100 		mov	r0, #1
 985 002a 1946     		mov	r1, r3
 986 002c FFF7FEFF 		bl	_test_assert
 987 0030 0346     		mov	r3, r0
 988 0032 002B     		cmp	r3, #0
 989 0034 40F08D80 		bne	.L31
 990              	.L32:
 991              		.loc 1 271 0
 992 0038 40F20003 		movw	r3, #:lower16:wa
 993 003c C0F20003 		movt	r3, #:upper16:wa
 994 0040 1A68     		ldr	r2, [r3, #0]
 995              		.loc 1 272 0
 996 0042 40F20003 		movw	r3, #:lower16:rlist
 997 0046 C0F20003 		movt	r3, #:upper16:rlist
 998 004a DB69     		ldr	r3, [r3, #28]
 999 004c 9B68     		ldr	r3, [r3, #8]
 1000              		.loc 1 271 0
ARM GAS  C:\Users\z80\AppData\Local\Temp\cczkIRrp.s 			page 19


 1001 004e 03F1FF33 		add	r3, r3, #-1
 1002 0052 03A9     		add	r1, sp, #12
 1003 0054 0091     		str	r1, [sp, #0]
 1004 0056 1046     		mov	r0, r2
 1005 0058 4FF49871 		mov	r1, #304
 1006 005c 1A46     		mov	r2, r3
 1007 005e 40F20003 		movw	r3, #:lower16:thread4
 1008 0062 C0F20003 		movt	r3, #:upper16:thread4
 1009 0066 FFF7FEFF 		bl	chThdCreateStatic
 1010 006a 0246     		mov	r2, r0
 1011 006c 40F20003 		movw	r3, #:lower16:threads
 1012 0070 C0F20003 		movt	r3, #:upper16:threads
 1013 0074 1A60     		str	r2, [r3, #0]
 1014              		.loc 1 275 0
 1015 0076 03AB     		add	r3, sp, #12
 1016 0078 1846     		mov	r0, r3
 1017 007a FFF7FEFF 		bl	chSemWait
 1018              		.loc 1 278 0
 1019 007e 059B     		ldr	r3, [sp, #20]
 1020 0080 002B     		cmp	r3, #0
 1021 0082 CCBF     		ite	gt
 1022 0084 0023     		movgt	r3, #0
 1023 0086 0123     		movle	r3, #1
 1024 0088 4FF00200 		mov	r0, #2
 1025 008c 1946     		mov	r1, r3
 1026 008e FFF7FEFF 		bl	_test_assert
 1027 0092 0346     		mov	r3, r0
 1028 0094 002B     		cmp	r3, #0
 1029 0096 5CD1     		bne	.L31
 1030              	.L34:
 1031              	.LBB8:
 1032              		.loc 1 282 0
 1033 0098 4FF02003 		mov	r3, #32
 1034              	@ 282 "../chibios_2.4.x/test/testsem.c" 1
 1035 009c 83F31188 		msr     BASEPRI, r3
 1036              	@ 0 "" 2
 1037              		.thumb
 1038              	.LBE8:
 1039 00a0 FFF7FEFF 		bl	dbg_check_lock
 1040 00a4 059B     		ldr	r3, [sp, #20]
 1041 00a6 002B     		cmp	r3, #0
 1042 00a8 03DC     		bgt	.L35
 1043              		.loc 1 282 0 is_stmt 0 discriminator 1
 1044 00aa 03AB     		add	r3, sp, #12
 1045 00ac 1846     		mov	r0, r3
 1046 00ae FFF7FEFF 		bl	chSemSignalI
 1047              	.L35:
 1048              		.loc 1 282 0 discriminator 2
 1049 00b2 FFF7FEFF 		bl	chSchRescheduleS
 1050 00b6 FFF7FEFF 		bl	dbg_check_unlock
 1051              	.LBB9:
 1052 00ba 4FF00003 		mov	r3, #0
 1053              	@ 282 "../chibios_2.4.x/test/testsem.c" 1
 1054 00be 83F31188 		msr     BASEPRI, r3
 1055              	@ 0 "" 2
 1056              		.thumb
 1057              	.LBE9:
ARM GAS  C:\Users\z80\AppData\Local\Temp\cczkIRrp.s 			page 20


 1058              		.loc 1 283 0 is_stmt 1 discriminator 2
 1059 00c2 059B     		ldr	r3, [sp, #20]
 1060 00c4 002B     		cmp	r3, #0
 1061 00c6 D4BF     		ite	le
 1062 00c8 0023     		movle	r3, #0
 1063 00ca 0123     		movgt	r3, #1
 1064 00cc 4FF00300 		mov	r0, #3
 1065 00d0 1946     		mov	r1, r3
 1066 00d2 FFF7FEFF 		bl	_test_assert
 1067 00d6 0346     		mov	r3, r0
 1068 00d8 002B     		cmp	r3, #0
 1069 00da 3AD1     		bne	.L31
 1070              	.L36:
 1071              		.loc 1 284 0
 1072 00dc 059B     		ldr	r3, [sp, #20]
 1073 00de 012B     		cmp	r3, #1
 1074 00e0 14BF     		ite	ne
 1075 00e2 0023     		movne	r3, #0
 1076 00e4 0123     		moveq	r3, #1
 1077 00e6 4FF00400 		mov	r0, #4
 1078 00ea 1946     		mov	r1, r3
 1079 00ec FFF7FEFF 		bl	_test_assert
 1080 00f0 0346     		mov	r3, r0
 1081 00f2 002B     		cmp	r3, #0
 1082 00f4 2DD1     		bne	.L31
 1083              	.L37:
 1084              	.LBB10:
 1085              		.loc 1 287 0
 1086 00f6 4FF02003 		mov	r3, #32
 1087              	@ 287 "../chibios_2.4.x/test/testsem.c" 1
 1088 00fa 83F31188 		msr     BASEPRI, r3
 1089              	@ 0 "" 2
 1090              		.thumb
 1091              	.LBE10:
 1092 00fe FFF7FEFF 		bl	dbg_check_lock
 1093 0102 059B     		ldr	r3, [sp, #20]
 1094 0104 002B     		cmp	r3, #0
 1095 0106 03DC     		bgt	.L38
 1096              		.loc 1 287 0 is_stmt 0 discriminator 1
 1097 0108 03AB     		add	r3, sp, #12
 1098 010a 1846     		mov	r0, r3
 1099 010c FFF7FEFF 		bl	chSemSignalI
 1100              	.L38:
 1101              		.loc 1 287 0 discriminator 2
 1102 0110 FFF7FEFF 		bl	chSchRescheduleS
 1103 0114 FFF7FEFF 		bl	dbg_check_unlock
 1104              	.LBB11:
 1105 0118 4FF00003 		mov	r3, #0
 1106              	@ 287 "../chibios_2.4.x/test/testsem.c" 1
 1107 011c 83F31188 		msr     BASEPRI, r3
 1108              	@ 0 "" 2
 1109              		.thumb
 1110              	.LBE11:
 1111              		.loc 1 288 0 is_stmt 1 discriminator 2
 1112 0120 059B     		ldr	r3, [sp, #20]
 1113 0122 002B     		cmp	r3, #0
 1114 0124 D4BF     		ite	le
ARM GAS  C:\Users\z80\AppData\Local\Temp\cczkIRrp.s 			page 21


 1115 0126 0023     		movle	r3, #0
 1116 0128 0123     		movgt	r3, #1
 1117 012a 4FF00300 		mov	r0, #3
 1118 012e 1946     		mov	r1, r3
 1119 0130 FFF7FEFF 		bl	_test_assert
 1120 0134 0346     		mov	r3, r0
 1121 0136 002B     		cmp	r3, #0
 1122 0138 0BD1     		bne	.L31
 1123              	.L39:
 1124              		.loc 1 289 0
 1125 013a 059B     		ldr	r3, [sp, #20]
 1126 013c 012B     		cmp	r3, #1
 1127 013e 14BF     		ite	ne
 1128 0140 0023     		movne	r3, #0
 1129 0142 0123     		moveq	r3, #1
 1130 0144 4FF00500 		mov	r0, #5
 1131 0148 1946     		mov	r1, r3
 1132 014a FFF7FEFF 		bl	_test_assert
 1133 014e 0346     		mov	r3, r0
 1134 0150 002B     		cmp	r3, #0
 1135              	.L31:
 1136              		.loc 1 290 0
 1137 0152 07B0     		add	sp, sp, #28
 1138 0154 00BD     		pop	{pc}
 1139              		.cfi_endproc
 1140              	.LFE17:
 1141              		.size	sem4_execute, .-sem4_execute
 1142              		.global	testsem4
 1143 0156 00BFAFF3 		.section	.rodata
 1143      0080AFF3 
 1143      0080
 1144 0067 00       		.align	2
 1145              	.LC9:
 1146 0068 42696E61 		.ascii	"Binary Semaphores, functionality\000"
 1146      72792053 
 1146      656D6170 
 1146      686F7265 
 1146      732C2066 
 1147 0089 000000   		.section	.rodata.testsem4,"a",%progbits
 1148              		.align	2
 1149              		.type	testsem4, %object
 1150              		.size	testsem4, 16
 1151              	testsem4:
 1152 0000 68000000 		.word	.LC9
 1153 0004 00000000 		.word	0
 1154 0008 00000000 		.word	0
 1155 000c 00000000 		.word	sem4_execute
 1156              		.global	patternsem
 1157              		.section	.rodata.patternsem,"a",%progbits
 1158              		.align	2
 1159              		.type	patternsem, %object
 1160              		.size	patternsem, 20
 1161              	patternsem:
 1162 0000 00000000 		.word	testsem1
 1163 0004 00000000 		.word	testsem2
 1164 0008 00000000 		.word	testsem3
 1165 000c 00000000 		.word	testsem4
ARM GAS  C:\Users\z80\AppData\Local\Temp\cczkIRrp.s 			page 22


 1166 0010 00000000 		.word	0
 1167              		.text
 1168              	.Letext0:
 1169              		.file 2 "c:\\programs\\codesourcery\\2011.03-56\\bin\\../lib/gcc/arm-none-eabi/4.6.3/../../../../a
 1170              		.file 3 "../chibios_2.4.x/os/ports/GCC/ARMCMx/chtypes.h"
 1171              		.file 4 "../chibios_2.4.x/os/kernel/include/chlists.h"
 1172              		.file 5 "../chibios_2.4.x/os/kernel/include/chthreads.h"
 1173              		.file 6 "../chibios_2.4.x/os/ports/GCC/ARMCMx/chcore_v7m.h"
 1174              		.file 7 "../chibios_2.4.x/os/kernel/include/chvt.h"
 1175              		.file 8 "../chibios_2.4.x/os/kernel/include/chschd.h"
 1176              		.file 9 "../chibios_2.4.x/os/kernel/include/chsem.h"
 1177              		.file 10 "../chibios_2.4.x/os/kernel/include/chbsem.h"
 1178              		.file 11 "../chibios_2.4.x/os/kernel/include/chmtx.h"
 1179              		.file 12 "../chibios_2.4.x/test/test.h"