ARM GAS  C:\Users\z80\AppData\Local\Temp\ccuZvOnj.s 			page 1


   1              		.syntax unified
   2              		.cpu cortex-m3
   3              		.fpu softvfp
   4              		.eabi_attribute 20, 1
   5              		.eabi_attribute 21, 1
   6              		.eabi_attribute 23, 3
   7              		.eabi_attribute 24, 1
   8              		.eabi_attribute 25, 1
   9              		.eabi_attribute 26, 1
  10              		.eabi_attribute 30, 2
  11              		.eabi_attribute 34, 1
  12              		.eabi_attribute 18, 4
  13              		.thumb
  14              		.file	"testmtx.c"
  15              		.text
  16              	.Ltext0:
  17              		.cfi_sections	.debug_frame
  18              		.section	.text.mtx8_execute,"ax",%progbits
  19              		.align	2
  20              		.p2align 4,,15
  21              		.thumb
  22              		.thumb_func
  23              		.type	mtx8_execute, %function
  24              	mtx8_execute:
  25              	.LFB36:
  26              		.file 1 "../chibios_2.4.x/test/testmtx.c"
  27              		.loc 1 606 0
  28              		.cfi_startproc
  29              		@ args = 0, pretend = 0, frame = 0
  30              		@ frame_needed = 0, uses_anonymous_args = 0
  31              		.loc 1 608 0
  32 0000 40F20000 		movw	r0, #:lower16:rlist
  33              		.loc 1 606 0
  34 0004 F0B5     		push	{r4, r5, r6, r7, lr}
  35              	.LCFI0:
  36              		.cfi_def_cfa_offset 20
  37              		.cfi_offset 14, -4
  38              		.cfi_offset 7, -8
  39              		.cfi_offset 6, -12
  40              		.cfi_offset 5, -16
  41              		.cfi_offset 4, -20
  42              		.loc 1 608 0
  43 0006 C0F20000 		movt	r0, #:upper16:rlist
  44 000a C369     		ldr	r3, [r0, #28]
  45              		.loc 1 609 0
  46 000c 40F20005 		movw	r5, #:lower16:wa
  47              		.loc 1 608 0
  48 0010 9E68     		ldr	r6, [r3, #8]
  49              	.LVL0:
  50              		.loc 1 609 0
  51 0012 C0F20005 		movt	r5, #:upper16:wa
  52 0016 40F20004 		movw	r4, #:lower16:.LC0
  53 001a 40F20003 		movw	r3, #:lower16:thread11
  54              		.loc 1 606 0
  55 001e 83B0     		sub	sp, sp, #12
  56              	.LCFI1:
  57              		.cfi_def_cfa_offset 32
ARM GAS  C:\Users\z80\AppData\Local\Temp\ccuZvOnj.s 			page 2


  58              		.loc 1 609 0
  59 0020 721C     		adds	r2, r6, #1
  60 0022 2868     		ldr	r0, [r5, #0]
  61              	.LVL1:
  62 0024 C0F20004 		movt	r4, #:upper16:.LC0
  63 0028 4FF49871 		mov	r1, #304
  64 002c C0F20003 		movt	r3, #:upper16:thread11
  65 0030 0094     		str	r4, [sp, #0]
  66 0032 FFF7FEFF 		bl	chThdCreateStatic
  67              	.LVL2:
  68 0036 40F20004 		movw	r4, #:lower16:threads
  69              		.loc 1 610 0
  70 003a D5F804E0 		ldr	lr, [r5, #4]
  71              		.loc 1 609 0
  72 003e C0F20004 		movt	r4, #:upper16:threads
  73              		.loc 1 610 0
  74 0042 40F20007 		movw	r7, #:lower16:.LC1
  75 0046 40F20003 		movw	r3, #:lower16:thread10
  76              		.loc 1 609 0
  77 004a 2060     		str	r0, [r4, #0]
  78              		.loc 1 610 0
  79 004c B21C     		adds	r2, r6, #2
  80 004e 7046     		mov	r0, lr
  81 0050 C0F20007 		movt	r7, #:upper16:.LC1
  82 0054 4FF49871 		mov	r1, #304
  83 0058 C0F20003 		movt	r3, #:upper16:thread10
  84 005c 0097     		str	r7, [sp, #0]
  85 005e FFF7FEFF 		bl	chThdCreateStatic
  86              		.loc 1 611 0
  87 0062 AF68     		ldr	r7, [r5, #8]
  88 0064 40F20003 		movw	r3, #:lower16:thread12
  89 0068 40F20005 		movw	r5, #:lower16:.LC2
  90 006c 4FF49871 		mov	r1, #304
  91 0070 F21C     		adds	r2, r6, #3
  92 0072 C0F20003 		movt	r3, #:upper16:thread12
  93              		.loc 1 610 0
  94 0076 6060     		str	r0, [r4, #4]
  95              		.loc 1 611 0
  96 0078 C0F20005 		movt	r5, #:upper16:.LC2
  97 007c 3846     		mov	r0, r7
  98 007e 0095     		str	r5, [sp, #0]
  99 0080 FFF7FEFF 		bl	chThdCreateStatic
 100              		.loc 1 612 0
 101 0084 40F20005 		movw	r5, #:lower16:.LANCHOR0
 102 0088 C0F20005 		movt	r5, #:upper16:.LANCHOR0
 103              		.loc 1 611 0
 104 008c A060     		str	r0, [r4, #8]
 105              		.loc 1 612 0
 106 008e 2846     		mov	r0, r5
 107 0090 FFF7FEFF 		bl	chCondSignal
 108              		.loc 1 613 0
 109 0094 2846     		mov	r0, r5
 110 0096 FFF7FEFF 		bl	chCondSignal
 111              		.loc 1 614 0
 112 009a FFF7FEFF 		bl	test_wait_threads
 113              		.loc 1 615 0
 114 009e 40F20001 		movw	r1, #:lower16:.LC3
ARM GAS  C:\Users\z80\AppData\Local\Temp\ccuZvOnj.s 			page 3


 115 00a2 0120     		movs	r0, #1
 116 00a4 C0F20001 		movt	r1, #:upper16:.LC3
 117              		.loc 1 616 0
 118 00a8 03B0     		add	sp, sp, #12
 119 00aa BDE8F040 		pop	{r4, r5, r6, r7, lr}
 120              		.loc 1 615 0
 121 00ae FFF7FEBF 		b	_test_assert_sequence
 122              		.cfi_endproc
 123              	.LFE36:
 124              		.size	mtx8_execute, .-mtx8_execute
 125 00b2 00BFAFF3 		.section	.text.thread12,"ax",%progbits
 125      0080AFF3 
 125      0080AFF3 
 125      0080
 126              		.align	2
 127              		.p2align 4,,15
 128              		.thumb
 129              		.thumb_func
 130              		.type	thread12, %function
 131              	thread12:
 132              	.LFB35:
 133              		.loc 1 598 0
 134              		.cfi_startproc
 135              		@ args = 0, pretend = 0, frame = 0
 136              		@ frame_needed = 0, uses_anonymous_args = 0
 137              	.LVL3:
 138 0000 10B5     		push	{r4, lr}
 139              	.LCFI2:
 140              		.cfi_def_cfa_offset 8
 141              		.cfi_offset 14, -4
 142              		.cfi_offset 4, -8
 143              		.loc 1 598 0
 144 0002 0446     		mov	r4, r0
 145              		.loc 1 600 0
 146 0004 40F20000 		movw	r0, #:lower16:.LANCHOR1
 147              	.LVL4:
 148 0008 C0F20000 		movt	r0, #:upper16:.LANCHOR1
 149 000c FFF7FEFF 		bl	chMtxLock
 150              		.loc 1 601 0
 151 0010 2078     		ldrb	r0, [r4, #0]	@ zero_extendqisi2
 152 0012 FFF7FEFF 		bl	test_emit_token
 153              		.loc 1 602 0
 154 0016 FFF7FEFF 		bl	chMtxUnlock
 155              		.loc 1 604 0
 156 001a 0020     		movs	r0, #0
 157 001c 10BD     		pop	{r4, pc}
 158              		.cfi_endproc
 159              	.LFE35:
 160              		.size	thread12, .-thread12
 161 001e 00BF     		.section	.text.thread1,"ax",%progbits
 162              		.align	2
 163              		.p2align 4,,15
 164              		.thumb
 165              		.thumb_func
 166              		.type	thread1, %function
 167              	thread1:
 168              	.LFB8:
ARM GAS  C:\Users\z80\AppData\Local\Temp\ccuZvOnj.s 			page 4


 169              		.loc 1 100 0
 170              		.cfi_startproc
 171              		@ args = 0, pretend = 0, frame = 0
 172              		@ frame_needed = 0, uses_anonymous_args = 0
 173              	.LVL5:
 174 0000 10B5     		push	{r4, lr}
 175              	.LCFI3:
 176              		.cfi_def_cfa_offset 8
 177              		.cfi_offset 14, -4
 178              		.cfi_offset 4, -8
 179              		.loc 1 100 0
 180 0002 0446     		mov	r4, r0
 181              		.loc 1 102 0
 182 0004 40F20000 		movw	r0, #:lower16:.LANCHOR2
 183              	.LVL6:
 184 0008 C0F20000 		movt	r0, #:upper16:.LANCHOR2
 185 000c FFF7FEFF 		bl	chMtxLock
 186              		.loc 1 103 0
 187 0010 2078     		ldrb	r0, [r4, #0]	@ zero_extendqisi2
 188 0012 FFF7FEFF 		bl	test_emit_token
 189              		.loc 1 104 0
 190 0016 FFF7FEFF 		bl	chMtxUnlock
 191              		.loc 1 106 0
 192 001a 0020     		movs	r0, #0
 193 001c 10BD     		pop	{r4, pc}
 194              		.cfi_endproc
 195              	.LFE8:
 196              		.size	thread1, .-thread1
 197 001e 00BF     		.section	.text.thread10,"ax",%progbits
 198              		.align	2
 199              		.p2align 4,,15
 200              		.thumb
 201              		.thumb_func
 202              		.type	thread10, %function
 203              	thread10:
 204              	.LFB29:
 205              		.loc 1 495 0
 206              		.cfi_startproc
 207              		@ args = 0, pretend = 0, frame = 0
 208              		@ frame_needed = 0, uses_anonymous_args = 0
 209              	.LVL7:
 210 0000 10B5     		push	{r4, lr}
 211              	.LCFI4:
 212              		.cfi_def_cfa_offset 8
 213              		.cfi_offset 14, -4
 214              		.cfi_offset 4, -8
 215              		.loc 1 495 0
 216 0002 0446     		mov	r4, r0
 217              		.loc 1 497 0
 218 0004 40F20000 		movw	r0, #:lower16:.LANCHOR2
 219              	.LVL8:
 220 0008 C0F20000 		movt	r0, #:upper16:.LANCHOR2
 221 000c FFF7FEFF 		bl	chMtxLock
 222              		.loc 1 498 0
 223 0010 40F20000 		movw	r0, #:lower16:.LANCHOR0
 224 0014 C0F20000 		movt	r0, #:upper16:.LANCHOR0
 225 0018 FFF7FEFF 		bl	chCondWait
ARM GAS  C:\Users\z80\AppData\Local\Temp\ccuZvOnj.s 			page 5


 226              		.loc 1 499 0
 227 001c 2078     		ldrb	r0, [r4, #0]	@ zero_extendqisi2
 228 001e FFF7FEFF 		bl	test_emit_token
 229              		.loc 1 500 0
 230 0022 FFF7FEFF 		bl	chMtxUnlock
 231              		.loc 1 502 0
 232 0026 0020     		movs	r0, #0
 233 0028 10BD     		pop	{r4, pc}
 234              		.cfi_endproc
 235              	.LFE29:
 236              		.size	thread10, .-thread10
 237 002a 00BFAFF3 		.section	.text.thread11,"ax",%progbits
 237      0080
 238              		.align	2
 239              		.p2align 4,,15
 240              		.thumb
 241              		.thumb_func
 242              		.type	thread11, %function
 243              	thread11:
 244              	.LFB34:
 245              		.loc 1 583 0
 246              		.cfi_startproc
 247              		@ args = 0, pretend = 0, frame = 0
 248              		@ frame_needed = 0, uses_anonymous_args = 0
 249              	.LVL9:
 250 0000 10B5     		push	{r4, lr}
 251              	.LCFI5:
 252              		.cfi_def_cfa_offset 8
 253              		.cfi_offset 14, -4
 254              		.cfi_offset 4, -8
 255              		.loc 1 583 0
 256 0002 0446     		mov	r4, r0
 257              		.loc 1 585 0
 258 0004 40F20000 		movw	r0, #:lower16:.LANCHOR1
 259              	.LVL10:
 260 0008 C0F20000 		movt	r0, #:upper16:.LANCHOR1
 261 000c FFF7FEFF 		bl	chMtxLock
 262              		.loc 1 586 0
 263 0010 40F20000 		movw	r0, #:lower16:.LANCHOR2
 264 0014 C0F20000 		movt	r0, #:upper16:.LANCHOR2
 265 0018 FFF7FEFF 		bl	chMtxLock
 266              		.loc 1 588 0
 267 001c 40F20000 		movw	r0, #:lower16:.LANCHOR0
 268 0020 4FF0FF31 		mov	r1, #-1
 269 0024 C0F20000 		movt	r0, #:upper16:.LANCHOR0
 270 0028 FFF7FEFF 		bl	chCondWaitTimeout
 271              		.loc 1 592 0
 272 002c 2078     		ldrb	r0, [r4, #0]	@ zero_extendqisi2
 273 002e FFF7FEFF 		bl	test_emit_token
 274              		.loc 1 593 0
 275 0032 FFF7FEFF 		bl	chMtxUnlock
 276              		.loc 1 594 0
 277 0036 FFF7FEFF 		bl	chMtxUnlock
 278              		.loc 1 596 0
 279 003a 0020     		movs	r0, #0
 280 003c 10BD     		pop	{r4, pc}
 281              		.cfi_endproc
ARM GAS  C:\Users\z80\AppData\Local\Temp\ccuZvOnj.s 			page 6


 282              	.LFE34:
 283              		.size	thread11, .-thread11
 284 003e 00BF     		.section	.text.mtx8_setup,"ax",%progbits
 285              		.align	2
 286              		.p2align 4,,15
 287              		.thumb
 288              		.thumb_func
 289              		.type	mtx8_setup, %function
 290              	mtx8_setup:
 291              	.LFB33:
 292              		.loc 1 576 0
 293              		.cfi_startproc
 294              		@ args = 0, pretend = 0, frame = 0
 295              		@ frame_needed = 0, uses_anonymous_args = 0
 296              		.loc 1 578 0
 297 0000 40F20000 		movw	r0, #:lower16:.LANCHOR0
 298              		.loc 1 576 0
 299 0004 08B5     		push	{r3, lr}
 300              	.LCFI6:
 301              		.cfi_def_cfa_offset 8
 302              		.cfi_offset 14, -4
 303              		.cfi_offset 3, -8
 304              		.loc 1 578 0
 305 0006 C0F20000 		movt	r0, #:upper16:.LANCHOR0
 306 000a FFF7FEFF 		bl	chCondInit
 307              		.loc 1 579 0
 308 000e 40F20000 		movw	r0, #:lower16:.LANCHOR2
 309 0012 C0F20000 		movt	r0, #:upper16:.LANCHOR2
 310 0016 FFF7FEFF 		bl	chMtxInit
 311              		.loc 1 580 0
 312 001a 40F20000 		movw	r0, #:lower16:.LANCHOR1
 313 001e C0F20000 		movt	r0, #:upper16:.LANCHOR1
 314              		.loc 1 581 0
 315 0022 BDE80840 		pop	{r3, lr}
 316              		.loc 1 580 0
 317 0026 FFF7FEBF 		b	chMtxInit
 318              		.cfi_endproc
 319              	.LFE33:
 320              		.size	mtx8_setup, .-mtx8_setup
 321 002a 00BFAFF3 		.section	.text.mtx7_setup,"ax",%progbits
 321      0080
 322              		.align	2
 323              		.p2align 4,,15
 324              		.thumb
 325              		.thumb_func
 326              		.type	mtx7_setup, %function
 327              	mtx7_setup:
 328              	.LFB31:
 329              		.loc 1 541 0
 330              		.cfi_startproc
 331              		@ args = 0, pretend = 0, frame = 0
 332              		@ frame_needed = 0, uses_anonymous_args = 0
 333              		.loc 1 543 0
 334 0000 40F20000 		movw	r0, #:lower16:.LANCHOR0
 335              		.loc 1 541 0
 336 0004 08B5     		push	{r3, lr}
 337              	.LCFI7:
ARM GAS  C:\Users\z80\AppData\Local\Temp\ccuZvOnj.s 			page 7


 338              		.cfi_def_cfa_offset 8
 339              		.cfi_offset 14, -4
 340              		.cfi_offset 3, -8
 341              		.loc 1 543 0
 342 0006 C0F20000 		movt	r0, #:upper16:.LANCHOR0
 343 000a FFF7FEFF 		bl	chCondInit
 344              		.loc 1 544 0
 345 000e 40F20000 		movw	r0, #:lower16:.LANCHOR2
 346 0012 C0F20000 		movt	r0, #:upper16:.LANCHOR2
 347              		.loc 1 545 0
 348 0016 BDE80840 		pop	{r3, lr}
 349              		.loc 1 544 0
 350 001a FFF7FEBF 		b	chMtxInit
 351              		.cfi_endproc
 352              	.LFE31:
 353              		.size	mtx7_setup, .-mtx7_setup
 354 001e 00BF     		.section	.text.mtx6_setup,"ax",%progbits
 355              		.align	2
 356              		.p2align 4,,15
 357              		.thumb
 358              		.thumb_func
 359              		.type	mtx6_setup, %function
 360              	mtx6_setup:
 361              	.LFB28:
 362              		.loc 1 489 0
 363              		.cfi_startproc
 364              		@ args = 0, pretend = 0, frame = 0
 365              		@ frame_needed = 0, uses_anonymous_args = 0
 366              		.loc 1 491 0
 367 0000 40F20000 		movw	r0, #:lower16:.LANCHOR0
 368              		.loc 1 489 0
 369 0004 08B5     		push	{r3, lr}
 370              	.LCFI8:
 371              		.cfi_def_cfa_offset 8
 372              		.cfi_offset 14, -4
 373              		.cfi_offset 3, -8
 374              		.loc 1 491 0
 375 0006 C0F20000 		movt	r0, #:upper16:.LANCHOR0
 376 000a FFF7FEFF 		bl	chCondInit
 377              		.loc 1 492 0
 378 000e 40F20000 		movw	r0, #:lower16:.LANCHOR2
 379 0012 C0F20000 		movt	r0, #:upper16:.LANCHOR2
 380              		.loc 1 493 0
 381 0016 BDE80840 		pop	{r3, lr}
 382              		.loc 1 492 0
 383 001a FFF7FEBF 		b	chMtxInit
 384              		.cfi_endproc
 385              	.LFE28:
 386              		.size	mtx6_setup, .-mtx6_setup
 387 001e 00BF     		.section	.text.mtx5_setup,"ax",%progbits
 388              		.align	2
 389              		.p2align 4,,15
 390              		.thumb
 391              		.thumb_func
 392              		.type	mtx5_setup, %function
 393              	mtx5_setup:
 394              	.LFB26:
ARM GAS  C:\Users\z80\AppData\Local\Temp\ccuZvOnj.s 			page 8


 395              		.loc 1 439 0
 396              		.cfi_startproc
 397              		@ args = 0, pretend = 0, frame = 0
 398              		@ frame_needed = 0, uses_anonymous_args = 0
 399              		@ link register save eliminated.
 400              		.loc 1 441 0
 401 0000 40F20000 		movw	r0, #:lower16:.LANCHOR2
 402 0004 C0F20000 		movt	r0, #:upper16:.LANCHOR2
 403              		.loc 1 442 0
 404              		.loc 1 441 0
 405 0008 FFF7FEBF 		b	chMtxInit
 406              		.cfi_endproc
 407              	.LFE26:
 408              		.size	mtx5_setup, .-mtx5_setup
 409 000c AFF30080 		.section	.text.mtx4_setup,"ax",%progbits
 410              		.align	2
 411              		.p2align 4,,15
 412              		.thumb
 413              		.thumb_func
 414              		.type	mtx4_setup, %function
 415              	mtx4_setup:
 416              	.LFB22:
 417              		.loc 1 352 0
 418              		.cfi_startproc
 419              		@ args = 0, pretend = 0, frame = 0
 420              		@ frame_needed = 0, uses_anonymous_args = 0
 421              		.loc 1 354 0
 422 0000 40F20000 		movw	r0, #:lower16:.LANCHOR2
 423              		.loc 1 352 0
 424 0004 08B5     		push	{r3, lr}
 425              	.LCFI9:
 426              		.cfi_def_cfa_offset 8
 427              		.cfi_offset 14, -4
 428              		.cfi_offset 3, -8
 429              		.loc 1 354 0
 430 0006 C0F20000 		movt	r0, #:upper16:.LANCHOR2
 431 000a FFF7FEFF 		bl	chMtxInit
 432              		.loc 1 355 0
 433 000e 40F20000 		movw	r0, #:lower16:.LANCHOR1
 434 0012 C0F20000 		movt	r0, #:upper16:.LANCHOR1
 435              		.loc 1 356 0
 436 0016 BDE80840 		pop	{r3, lr}
 437              		.loc 1 355 0
 438 001a FFF7FEBF 		b	chMtxInit
 439              		.cfi_endproc
 440              	.LFE22:
 441              		.size	mtx4_setup, .-mtx4_setup
 442 001e 00BF     		.section	.text.mtx3_setup,"ax",%progbits
 443              		.align	2
 444              		.p2align 4,,15
 445              		.thumb
 446              		.thumb_func
 447              		.type	mtx3_setup, %function
 448              	mtx3_setup:
 449              	.LFB15:
 450              		.loc 1 252 0
 451              		.cfi_startproc
ARM GAS  C:\Users\z80\AppData\Local\Temp\ccuZvOnj.s 			page 9


 452              		@ args = 0, pretend = 0, frame = 0
 453              		@ frame_needed = 0, uses_anonymous_args = 0
 454              		.loc 1 254 0
 455 0000 40F20000 		movw	r0, #:lower16:.LANCHOR2
 456              		.loc 1 252 0
 457 0004 08B5     		push	{r3, lr}
 458              	.LCFI10:
 459              		.cfi_def_cfa_offset 8
 460              		.cfi_offset 14, -4
 461              		.cfi_offset 3, -8
 462              		.loc 1 254 0
 463 0006 C0F20000 		movt	r0, #:upper16:.LANCHOR2
 464 000a FFF7FEFF 		bl	chMtxInit
 465              		.loc 1 255 0
 466 000e 40F20000 		movw	r0, #:lower16:.LANCHOR1
 467 0012 C0F20000 		movt	r0, #:upper16:.LANCHOR1
 468              		.loc 1 256 0
 469 0016 BDE80840 		pop	{r3, lr}
 470              		.loc 1 255 0
 471 001a FFF7FEBF 		b	chMtxInit
 472              		.cfi_endproc
 473              	.LFE15:
 474              		.size	mtx3_setup, .-mtx3_setup
 475 001e 00BF     		.section	.text.mtx2_setup,"ax",%progbits
 476              		.align	2
 477              		.p2align 4,,15
 478              		.thumb
 479              		.thumb_func
 480              		.type	mtx2_setup, %function
 481              	mtx2_setup:
 482              	.LFB10:
 483              		.loc 1 162 0
 484              		.cfi_startproc
 485              		@ args = 0, pretend = 0, frame = 0
 486              		@ frame_needed = 0, uses_anonymous_args = 0
 487              		@ link register save eliminated.
 488              		.loc 1 164 0
 489 0000 40F20000 		movw	r0, #:lower16:.LANCHOR2
 490 0004 C0F20000 		movt	r0, #:upper16:.LANCHOR2
 491              		.loc 1 165 0
 492              		.loc 1 164 0
 493 0008 FFF7FEBF 		b	chMtxInit
 494              		.cfi_endproc
 495              	.LFE10:
 496              		.size	mtx2_setup, .-mtx2_setup
 497 000c AFF30080 		.section	.text.mtx1_setup,"ax",%progbits
 498              		.align	2
 499              		.p2align 4,,15
 500              		.thumb
 501              		.thumb_func
 502              		.type	mtx1_setup, %function
 503              	mtx1_setup:
 504              	.LFB7:
 505              		.loc 1 95 0
 506              		.cfi_startproc
 507              		@ args = 0, pretend = 0, frame = 0
 508              		@ frame_needed = 0, uses_anonymous_args = 0
ARM GAS  C:\Users\z80\AppData\Local\Temp\ccuZvOnj.s 			page 10


 509              		@ link register save eliminated.
 510              		.loc 1 97 0
 511 0000 40F20000 		movw	r0, #:lower16:.LANCHOR2
 512 0004 C0F20000 		movt	r0, #:upper16:.LANCHOR2
 513              		.loc 1 98 0
 514              		.loc 1 97 0
 515 0008 FFF7FEBF 		b	chMtxInit
 516              		.cfi_endproc
 517              	.LFE7:
 518              		.size	mtx1_setup, .-mtx1_setup
 519 000c AFF30080 		.section	.text.mtx7_execute,"ax",%progbits
 520              		.align	2
 521              		.p2align 4,,15
 522              		.thumb
 523              		.thumb_func
 524              		.type	mtx7_execute, %function
 525              	mtx7_execute:
 526              	.LFB32:
 527              		.loc 1 547 0
 528              		.cfi_startproc
 529              		@ args = 0, pretend = 0, frame = 0
 530              		@ frame_needed = 0, uses_anonymous_args = 0
 531              		.loc 1 549 0
 532 0000 40F20000 		movw	r0, #:lower16:rlist
 533              		.loc 1 547 0
 534 0004 F0B5     		push	{r4, r5, r6, r7, lr}
 535              	.LCFI11:
 536              		.cfi_def_cfa_offset 20
 537              		.cfi_offset 14, -4
 538              		.cfi_offset 7, -8
 539              		.cfi_offset 6, -12
 540              		.cfi_offset 5, -16
 541              		.cfi_offset 4, -20
 542              		.loc 1 549 0
 543 0006 C0F20000 		movt	r0, #:upper16:rlist
 544 000a C369     		ldr	r3, [r0, #28]
 545              		.loc 1 550 0
 546 000c 40F20006 		movw	r6, #:lower16:wa
 547              		.loc 1 549 0
 548 0010 9F68     		ldr	r7, [r3, #8]
 549              	.LVL11:
 550              		.loc 1 550 0
 551 0012 40F20005 		movw	r5, #:lower16:thread10
 552 0016 C0F20006 		movt	r6, #:upper16:wa
 553 001a C0F20005 		movt	r5, #:upper16:thread10
 554 001e 40F20004 		movw	r4, #:lower16:.LC4
 555              		.loc 1 547 0
 556 0022 83B0     		sub	sp, sp, #12
 557              	.LCFI12:
 558              		.cfi_def_cfa_offset 32
 559              		.loc 1 550 0
 560 0024 7A1C     		adds	r2, r7, #1
 561 0026 2B46     		mov	r3, r5
 562 0028 3068     		ldr	r0, [r6, #0]
 563              	.LVL12:
 564 002a C0F20004 		movt	r4, #:upper16:.LC4
 565 002e 4FF49871 		mov	r1, #304
ARM GAS  C:\Users\z80\AppData\Local\Temp\ccuZvOnj.s 			page 11


 566 0032 0094     		str	r4, [sp, #0]
 567 0034 FFF7FEFF 		bl	chThdCreateStatic
 568              	.LVL13:
 569 0038 40F20004 		movw	r4, #:lower16:threads
 570              		.loc 1 551 0
 571 003c D6F804C0 		ldr	ip, [r6, #4]
 572              		.loc 1 550 0
 573 0040 C0F20004 		movt	r4, #:upper16:threads
 574              		.loc 1 551 0
 575 0044 40F2000E 		movw	lr, #:lower16:.LC5
 576              		.loc 1 550 0
 577 0048 2060     		str	r0, [r4, #0]
 578              		.loc 1 551 0
 579 004a C0F2000E 		movt	lr, #:upper16:.LC5
 580 004e BA1C     		adds	r2, r7, #2
 581 0050 2B46     		mov	r3, r5
 582 0052 4FF49871 		mov	r1, #304
 583 0056 6046     		mov	r0, ip
 584 0058 CDF800E0 		str	lr, [sp, #0]
 585 005c FFF7FEFF 		bl	chThdCreateStatic
 586              		.loc 1 552 0
 587 0060 D6F808C0 		ldr	ip, [r6, #8]
 588 0064 40F2000E 		movw	lr, #:lower16:.LC1
 589              		.loc 1 551 0
 590 0068 6060     		str	r0, [r4, #4]
 591              		.loc 1 552 0
 592 006a C0F2000E 		movt	lr, #:upper16:.LC1
 593 006e FA1C     		adds	r2, r7, #3
 594 0070 2B46     		mov	r3, r5
 595 0072 4FF49871 		mov	r1, #304
 596 0076 6046     		mov	r0, ip
 597 0078 CDF800E0 		str	lr, [sp, #0]
 598 007c FFF7FEFF 		bl	chThdCreateStatic
 599              		.loc 1 553 0
 600 0080 D6F80CC0 		ldr	ip, [r6, #12]
 601 0084 40F2000E 		movw	lr, #:lower16:.LC2
 602              		.loc 1 552 0
 603 0088 A060     		str	r0, [r4, #8]
 604              		.loc 1 553 0
 605 008a C0F2000E 		movt	lr, #:upper16:.LC2
 606 008e 6046     		mov	r0, ip
 607 0090 3A1D     		adds	r2, r7, #4
 608 0092 2B46     		mov	r3, r5
 609 0094 4FF49871 		mov	r1, #304
 610 0098 CDF800E0 		str	lr, [sp, #0]
 611 009c FFF7FEFF 		bl	chThdCreateStatic
 612              		.loc 1 554 0
 613 00a0 D6F810E0 		ldr	lr, [r6, #16]
 614 00a4 40F20006 		movw	r6, #:lower16:.LC0
 615 00a8 4FF49871 		mov	r1, #304
 616 00ac 7A1D     		adds	r2, r7, #5
 617 00ae 2B46     		mov	r3, r5
 618              		.loc 1 553 0
 619 00b0 E060     		str	r0, [r4, #12]
 620              		.loc 1 554 0
 621 00b2 C0F20006 		movt	r6, #:upper16:.LC0
 622 00b6 7046     		mov	r0, lr
ARM GAS  C:\Users\z80\AppData\Local\Temp\ccuZvOnj.s 			page 12


 623 00b8 0096     		str	r6, [sp, #0]
 624 00ba FFF7FEFF 		bl	chThdCreateStatic
 625 00be 2061     		str	r0, [r4, #16]
 626              		.loc 1 555 0
 627 00c0 40F20000 		movw	r0, #:lower16:.LANCHOR0
 628 00c4 C0F20000 		movt	r0, #:upper16:.LANCHOR0
 629 00c8 FFF7FEFF 		bl	chCondBroadcast
 630              		.loc 1 556 0
 631 00cc FFF7FEFF 		bl	test_wait_threads
 632              		.loc 1 557 0
 633 00d0 40F20001 		movw	r1, #:lower16:.LC6
 634 00d4 0120     		movs	r0, #1
 635 00d6 C0F20001 		movt	r1, #:upper16:.LC6
 636              		.loc 1 558 0
 637 00da 03B0     		add	sp, sp, #12
 638 00dc BDE8F040 		pop	{r4, r5, r6, r7, lr}
 639              		.loc 1 557 0
 640 00e0 FFF7FEBF 		b	_test_assert_sequence
 641              		.cfi_endproc
 642              	.LFE32:
 643              		.size	mtx7_execute, .-mtx7_execute
 644 00e4 AFF30080 		.section	.text.mtx6_execute,"ax",%progbits
 644      AFF30080 
 644      AFF30080 
 645              		.align	2
 646              		.p2align 4,,15
 647              		.thumb
 648              		.thumb_func
 649              		.type	mtx6_execute, %function
 650              	mtx6_execute:
 651              	.LFB30:
 652              		.loc 1 504 0
 653              		.cfi_startproc
 654              		@ args = 0, pretend = 0, frame = 0
 655              		@ frame_needed = 0, uses_anonymous_args = 0
 656              		.loc 1 506 0
 657 0000 40F20000 		movw	r0, #:lower16:rlist
 658              		.loc 1 504 0
 659 0004 F0B5     		push	{r4, r5, r6, r7, lr}
 660              	.LCFI13:
 661              		.cfi_def_cfa_offset 20
 662              		.cfi_offset 14, -4
 663              		.cfi_offset 7, -8
 664              		.cfi_offset 6, -12
 665              		.cfi_offset 5, -16
 666              		.cfi_offset 4, -20
 667              		.loc 1 506 0
 668 0006 C0F20000 		movt	r0, #:upper16:rlist
 669 000a C369     		ldr	r3, [r0, #28]
 670              		.loc 1 507 0
 671 000c 40F20006 		movw	r6, #:lower16:wa
 672              		.loc 1 506 0
 673 0010 9F68     		ldr	r7, [r3, #8]
 674              	.LVL14:
 675              		.loc 1 507 0
 676 0012 40F20005 		movw	r5, #:lower16:thread10
 677 0016 C0F20006 		movt	r6, #:upper16:wa
ARM GAS  C:\Users\z80\AppData\Local\Temp\ccuZvOnj.s 			page 13


 678 001a C0F20005 		movt	r5, #:upper16:thread10
 679 001e 40F20004 		movw	r4, #:lower16:.LC4
 680              		.loc 1 504 0
 681 0022 83B0     		sub	sp, sp, #12
 682              	.LCFI14:
 683              		.cfi_def_cfa_offset 32
 684              		.loc 1 507 0
 685 0024 7A1C     		adds	r2, r7, #1
 686 0026 2B46     		mov	r3, r5
 687 0028 3068     		ldr	r0, [r6, #0]
 688              	.LVL15:
 689 002a C0F20004 		movt	r4, #:upper16:.LC4
 690 002e 4FF49871 		mov	r1, #304
 691 0032 0094     		str	r4, [sp, #0]
 692 0034 FFF7FEFF 		bl	chThdCreateStatic
 693              	.LVL16:
 694 0038 40F20004 		movw	r4, #:lower16:threads
 695              		.loc 1 508 0
 696 003c 7168     		ldr	r1, [r6, #4]
 697              		.loc 1 507 0
 698 003e C0F20004 		movt	r4, #:upper16:threads
 699              		.loc 1 508 0
 700 0042 40F2000E 		movw	lr, #:lower16:.LC5
 701              		.loc 1 507 0
 702 0046 2060     		str	r0, [r4, #0]
 703              		.loc 1 508 0
 704 0048 C0F2000E 		movt	lr, #:upper16:.LC5
 705 004c BA1C     		adds	r2, r7, #2
 706 004e 2B46     		mov	r3, r5
 707 0050 0846     		mov	r0, r1
 708 0052 4FF49871 		mov	r1, #304
 709 0056 CDF800E0 		str	lr, [sp, #0]
 710 005a FFF7FEFF 		bl	chThdCreateStatic
 711              		.loc 1 509 0
 712 005e B168     		ldr	r1, [r6, #8]
 713 0060 40F2000C 		movw	ip, #:lower16:.LC1
 714 0064 C0F2000C 		movt	ip, #:upper16:.LC1
 715              		.loc 1 508 0
 716 0068 6060     		str	r0, [r4, #4]
 717              		.loc 1 509 0
 718 006a FA1C     		adds	r2, r7, #3
 719 006c 2B46     		mov	r3, r5
 720 006e 0846     		mov	r0, r1
 721 0070 4FF49871 		mov	r1, #304
 722 0074 CDF800C0 		str	ip, [sp, #0]
 723 0078 FFF7FEFF 		bl	chThdCreateStatic
 724              		.loc 1 510 0
 725 007c F168     		ldr	r1, [r6, #12]
 726 007e 40F2000E 		movw	lr, #:lower16:.LC2
 727              		.loc 1 509 0
 728 0082 A060     		str	r0, [r4, #8]
 729              		.loc 1 510 0
 730 0084 C0F2000E 		movt	lr, #:upper16:.LC2
 731 0088 3A1D     		adds	r2, r7, #4
 732 008a 2B46     		mov	r3, r5
 733 008c 0846     		mov	r0, r1
 734 008e 4FF49871 		mov	r1, #304
ARM GAS  C:\Users\z80\AppData\Local\Temp\ccuZvOnj.s 			page 14


 735 0092 CDF800E0 		str	lr, [sp, #0]
 736 0096 FFF7FEFF 		bl	chThdCreateStatic
 737              		.loc 1 511 0
 738 009a 3269     		ldr	r2, [r6, #16]
 739 009c 40F20006 		movw	r6, #:lower16:.LC0
 740              		.loc 1 510 0
 741 00a0 E060     		str	r0, [r4, #12]
 742              		.loc 1 511 0
 743 00a2 2B46     		mov	r3, r5
 744 00a4 C0F20006 		movt	r6, #:upper16:.LC0
 745 00a8 1046     		mov	r0, r2
 746 00aa 4FF49871 		mov	r1, #304
 747 00ae 7A1D     		adds	r2, r7, #5
 748 00b0 0096     		str	r6, [sp, #0]
 749 00b2 FFF7FEFF 		bl	chThdCreateStatic
 750              	.LBB2:
 751              		.loc 1 512 0
 752 00b6 2023     		movs	r3, #32
 753              	.LVL17:
 754              	.LBE2:
 755              		.loc 1 511 0
 756 00b8 2061     		str	r0, [r4, #16]
 757              	.LBB3:
 758              		.loc 1 512 0
 759              	@ 512 "../chibios_2.4.x/test/testmtx.c" 1
 760 00ba 83F31188 		msr     BASEPRI, r3
 761              	@ 0 "" 2
 762              	.LVL18:
 763              		.thumb
 764              	.LBE3:
 765              		.loc 1 513 0
 766 00be 40F20004 		movw	r4, #:lower16:.LANCHOR0
 767 00c2 C0F20004 		movt	r4, #:upper16:.LANCHOR0
 768              		.loc 1 512 0
 769 00c6 FFF7FEFF 		bl	dbg_check_lock
 770              	.LVL19:
 771              		.loc 1 513 0
 772 00ca 2046     		mov	r0, r4
 773 00cc FFF7FEFF 		bl	chCondSignalI
 774              		.loc 1 514 0
 775 00d0 2046     		mov	r0, r4
 776 00d2 FFF7FEFF 		bl	chCondSignalI
 777              		.loc 1 515 0
 778 00d6 2046     		mov	r0, r4
 779 00d8 FFF7FEFF 		bl	chCondSignalI
 780              		.loc 1 516 0
 781 00dc 2046     		mov	r0, r4
 782 00de FFF7FEFF 		bl	chCondSignalI
 783              		.loc 1 517 0
 784 00e2 2046     		mov	r0, r4
 785 00e4 FFF7FEFF 		bl	chCondSignalI
 786              		.loc 1 518 0
 787 00e8 FFF7FEFF 		bl	chSchRescheduleS
 788              		.loc 1 519 0
 789 00ec FFF7FEFF 		bl	dbg_check_unlock
 790              	.LBB4:
 791 00f0 0023     		movs	r3, #0
ARM GAS  C:\Users\z80\AppData\Local\Temp\ccuZvOnj.s 			page 15


 792              	.LVL20:
 793              	@ 519 "../chibios_2.4.x/test/testmtx.c" 1
 794 00f2 83F31188 		msr     BASEPRI, r3
 795              	@ 0 "" 2
 796              	.LVL21:
 797              		.thumb
 798              	.LBE4:
 799              		.loc 1 520 0
 800 00f6 FFF7FEFF 		bl	test_wait_threads
 801              	.LVL22:
 802              		.loc 1 521 0
 803 00fa 40F20001 		movw	r1, #:lower16:.LC6
 804 00fe 0120     		movs	r0, #1
 805 0100 C0F20001 		movt	r1, #:upper16:.LC6
 806              		.loc 1 522 0
 807 0104 03B0     		add	sp, sp, #12
 808 0106 BDE8F040 		pop	{r4, r5, r6, r7, lr}
 809              		.loc 1 521 0
 810 010a FFF7FEBF 		b	_test_assert_sequence
 811              		.cfi_endproc
 812              	.LFE30:
 813              		.size	mtx6_execute, .-mtx6_execute
 814 010e 00BF     		.section	.text.mtx1_execute,"ax",%progbits
 815              		.align	2
 816              		.p2align 4,,15
 817              		.thumb
 818              		.thumb_func
 819              		.type	mtx1_execute, %function
 820              	mtx1_execute:
 821              	.LFB9:
 822              		.loc 1 108 0
 823              		.cfi_startproc
 824              		@ args = 0, pretend = 0, frame = 0
 825              		@ frame_needed = 0, uses_anonymous_args = 0
 826 0000 F0B5     		push	{r4, r5, r6, r7, lr}
 827              	.LCFI15:
 828              		.cfi_def_cfa_offset 20
 829              		.cfi_offset 14, -4
 830              		.cfi_offset 7, -8
 831              		.cfi_offset 6, -12
 832              		.cfi_offset 5, -16
 833              		.cfi_offset 4, -20
 834              		.loc 1 110 0
 835 0002 40F20007 		movw	r7, #:lower16:rlist
 836 0006 C0F20007 		movt	r7, #:upper16:rlist
 837 000a FE69     		ldr	r6, [r7, #28]
 838              		.loc 1 111 0
 839 000c 40F20000 		movw	r0, #:lower16:.LANCHOR2
 840              		.loc 1 108 0
 841 0010 83B0     		sub	sp, sp, #12
 842              	.LCFI16:
 843              		.cfi_def_cfa_offset 32
 844              		.loc 1 110 0
 845 0012 B668     		ldr	r6, [r6, #8]
 846              	.LVL23:
 847              		.loc 1 111 0
 848 0014 C0F20000 		movt	r0, #:upper16:.LANCHOR2
ARM GAS  C:\Users\z80\AppData\Local\Temp\ccuZvOnj.s 			page 16


 849              		.loc 1 112 0
 850 0018 40F20005 		movw	r5, #:lower16:wa
 851              		.loc 1 111 0
 852 001c FFF7FEFF 		bl	chMtxLock
 853              	.LVL24:
 854              		.loc 1 112 0
 855 0020 C0F20005 		movt	r5, #:upper16:wa
 856 0024 40F20004 		movw	r4, #:lower16:.LC4
 857 0028 40F20003 		movw	r3, #:lower16:thread1
 858 002c 721C     		adds	r2, r6, #1
 859 002e 2868     		ldr	r0, [r5, #0]
 860 0030 C0F20004 		movt	r4, #:upper16:.LC4
 861 0034 4FF49871 		mov	r1, #304
 862 0038 C0F20003 		movt	r3, #:upper16:thread1
 863 003c 0094     		str	r4, [sp, #0]
 864 003e FFF7FEFF 		bl	chThdCreateStatic
 865 0042 40F20004 		movw	r4, #:lower16:threads
 866              		.loc 1 113 0
 867 0046 D5F804C0 		ldr	ip, [r5, #4]
 868              		.loc 1 112 0
 869 004a C0F20004 		movt	r4, #:upper16:threads
 870              		.loc 1 113 0
 871 004e 40F2000E 		movw	lr, #:lower16:.LC5
 872 0052 40F20003 		movw	r3, #:lower16:thread1
 873              		.loc 1 112 0
 874 0056 2060     		str	r0, [r4, #0]
 875              		.loc 1 113 0
 876 0058 C0F2000E 		movt	lr, #:upper16:.LC5
 877 005c B21C     		adds	r2, r6, #2
 878 005e 4FF49871 		mov	r1, #304
 879 0062 C0F20003 		movt	r3, #:upper16:thread1
 880 0066 6046     		mov	r0, ip
 881 0068 CDF800E0 		str	lr, [sp, #0]
 882 006c FFF7FEFF 		bl	chThdCreateStatic
 883              		.loc 1 114 0
 884 0070 D5F808C0 		ldr	ip, [r5, #8]
 885 0074 40F2000E 		movw	lr, #:lower16:.LC1
 886 0078 40F20003 		movw	r3, #:lower16:thread1
 887              		.loc 1 113 0
 888 007c 6060     		str	r0, [r4, #4]
 889              		.loc 1 114 0
 890 007e C0F2000E 		movt	lr, #:upper16:.LC1
 891 0082 F21C     		adds	r2, r6, #3
 892 0084 4FF49871 		mov	r1, #304
 893 0088 C0F20003 		movt	r3, #:upper16:thread1
 894 008c 6046     		mov	r0, ip
 895 008e CDF800E0 		str	lr, [sp, #0]
 896 0092 FFF7FEFF 		bl	chThdCreateStatic
 897              		.loc 1 115 0
 898 0096 D5F80CC0 		ldr	ip, [r5, #12]
 899 009a 40F2000E 		movw	lr, #:lower16:.LC2
 900 009e 40F20003 		movw	r3, #:lower16:thread1
 901              		.loc 1 114 0
 902 00a2 A060     		str	r0, [r4, #8]
 903              		.loc 1 115 0
 904 00a4 C0F2000E 		movt	lr, #:upper16:.LC2
 905 00a8 6046     		mov	r0, ip
ARM GAS  C:\Users\z80\AppData\Local\Temp\ccuZvOnj.s 			page 17


 906 00aa 321D     		adds	r2, r6, #4
 907 00ac 4FF49871 		mov	r1, #304
 908 00b0 C0F20003 		movt	r3, #:upper16:thread1
 909 00b4 CDF800E0 		str	lr, [sp, #0]
 910 00b8 FFF7FEFF 		bl	chThdCreateStatic
 911              		.loc 1 116 0
 912 00bc D5F810E0 		ldr	lr, [r5, #16]
 913 00c0 40F20003 		movw	r3, #:lower16:thread1
 914 00c4 40F20005 		movw	r5, #:lower16:.LC0
 915 00c8 721D     		adds	r2, r6, #5
 916 00ca 4FF49871 		mov	r1, #304
 917 00ce C0F20003 		movt	r3, #:upper16:thread1
 918              		.loc 1 115 0
 919 00d2 E060     		str	r0, [r4, #12]
 920              		.loc 1 116 0
 921 00d4 C0F20005 		movt	r5, #:upper16:.LC0
 922 00d8 7046     		mov	r0, lr
 923 00da 0095     		str	r5, [sp, #0]
 924 00dc FFF7FEFF 		bl	chThdCreateStatic
 925 00e0 2061     		str	r0, [r4, #16]
 926              		.loc 1 117 0
 927 00e2 FFF7FEFF 		bl	chMtxUnlock
 928              		.loc 1 118 0
 929 00e6 FFF7FEFF 		bl	test_wait_threads
 930              		.loc 1 119 0
 931 00ea F969     		ldr	r1, [r7, #28]
 932 00ec 0120     		movs	r0, #1
 933 00ee 8A68     		ldr	r2, [r1, #8]
 934 00f0 931B     		subs	r3, r2, r6
 935 00f2 5942     		rsbs	r1, r3, #0
 936 00f4 41EB0301 		adc	r1, r1, r3
 937 00f8 FFF7FEFF 		bl	_test_assert
 938 00fc 08B1     		cbz	r0, .L19
 939              		.loc 1 121 0
 940 00fe 03B0     		add	sp, sp, #12
 941 0100 F0BD     		pop	{r4, r5, r6, r7, pc}
 942              	.L19:
 943              		.loc 1 120 0
 944 0102 40F20001 		movw	r1, #:lower16:.LC6
 945 0106 0220     		movs	r0, #2
 946 0108 C0F20001 		movt	r1, #:upper16:.LC6
 947              		.loc 1 121 0
 948 010c 03B0     		add	sp, sp, #12
 949 010e BDE8F040 		pop	{r4, r5, r6, r7, lr}
 950              		.loc 1 120 0
 951 0112 FFF7FEBF 		b	_test_assert_sequence
 952              		.cfi_endproc
 953              	.LFE9:
 954              		.size	mtx1_execute, .-mtx1_execute
 955 0116 00BFAFF3 		.section	.text.mtx5_execute,"ax",%progbits
 955      0080AFF3 
 955      0080
 956              		.align	2
 957              		.p2align 4,,15
 958              		.thumb
 959              		.thumb_func
 960              		.type	mtx5_execute, %function
ARM GAS  C:\Users\z80\AppData\Local\Temp\ccuZvOnj.s 			page 18


 961              	mtx5_execute:
 962              	.LFB27:
 963              		.loc 1 444 0
 964              		.cfi_startproc
 965              		@ args = 0, pretend = 0, frame = 0
 966              		@ frame_needed = 0, uses_anonymous_args = 0
 967 0000 F8B5     		push	{r3, r4, r5, r6, r7, lr}
 968              	.LCFI17:
 969              		.cfi_def_cfa_offset 24
 970              		.cfi_offset 14, -4
 971              		.cfi_offset 7, -8
 972              		.cfi_offset 6, -12
 973              		.cfi_offset 5, -16
 974              		.cfi_offset 4, -20
 975              		.cfi_offset 3, -24
 976              		.loc 1 448 0
 977 0002 40F20005 		movw	r5, #:lower16:rlist
 978 0006 C0F20005 		movt	r5, #:upper16:rlist
 979              		.loc 1 450 0
 980 000a 40F20004 		movw	r4, #:lower16:.LANCHOR2
 981              		.loc 1 448 0
 982 000e EB69     		ldr	r3, [r5, #28]
 983              		.loc 1 450 0
 984 0010 C0F20004 		movt	r4, #:upper16:.LANCHOR2
 985 0014 2046     		mov	r0, r4
 986              		.loc 1 448 0
 987 0016 9E68     		ldr	r6, [r3, #8]
 988              	.LVL25:
 989              		.loc 1 450 0
 990 0018 FFF7FEFF 		bl	chMtxTryLock
 991              	.LVL26:
 992 001c 0146     		mov	r1, r0
 993              	.LVL27:
 994              		.loc 1 451 0
 995 001e 0120     		movs	r0, #1
 996              	.LVL28:
 997 0020 FFF7FEFF 		bl	_test_assert
 998              	.LVL29:
 999 0024 00B1     		cbz	r0, .L22
 1000              	.L20:
 1001 0026 F8BD     		pop	{r3, r4, r5, r6, r7, pc}
 1002              	.L22:
 1003              		.loc 1 453 0
 1004 0028 2046     		mov	r0, r4
 1005 002a FFF7FEFF 		bl	chMtxTryLock
 1006              	.LVL30:
 1007              		.loc 1 454 0
 1008 002e D0F10101 		rsbs	r1, r0, #1
 1009 0032 38BF     		it	cc
 1010 0034 0021     		movcc	r1, #0
 1011 0036 0220     		movs	r0, #2
 1012              	.LVL31:
 1013 0038 FFF7FEFF 		bl	_test_assert
 1014 003c 0746     		mov	r7, r0
 1015 003e 0028     		cmp	r0, #0
 1016 0040 F1D1     		bne	.L20
 1017              	.LBB5:
ARM GAS  C:\Users\z80\AppData\Local\Temp\ccuZvOnj.s 			page 19


 1018              		.loc 1 456 0
 1019 0042 2023     		movs	r3, #32
 1020              	.LVL32:
 1021              	@ 456 "../chibios_2.4.x/test/testmtx.c" 1
 1022 0044 83F31188 		msr     BASEPRI, r3
 1023              	@ 0 "" 2
 1024              	.LVL33:
 1025              		.thumb
 1026              	.LBE5:
 1027 0048 FFF7FEFF 		bl	dbg_check_lock
 1028              	.LVL34:
 1029              		.loc 1 457 0
 1030 004c FFF7FEFF 		bl	chMtxUnlockS
 1031              		.loc 1 458 0
 1032 0050 FFF7FEFF 		bl	dbg_check_unlock
 1033              	.LBB6:
 1034 0054 3B46     		mov	r3, r7
 1035              	.LVL35:
 1036              	@ 458 "../chibios_2.4.x/test/testmtx.c" 1
 1037 0056 83F31188 		msr     BASEPRI, r3
 1038              	@ 0 "" 2
 1039              	.LVL36:
 1040              		.thumb
 1041              	.LBE6:
 1042              		.loc 1 460 0
 1043 005a 2368     		ldr	r3, [r4, #0]
 1044              	.LVL37:
 1045 005c 0320     		movs	r0, #3
 1046 005e 1A1B     		subs	r2, r3, r4
 1047 0060 5142     		rsbs	r1, r2, #0
 1048 0062 41EB0201 		adc	r1, r1, r2
 1049 0066 FFF7FEFF 		bl	_test_assert
 1050 006a 0028     		cmp	r0, #0
 1051 006c DBD1     		bne	.L20
 1052              		.loc 1 461 0
 1053 006e A168     		ldr	r1, [r4, #8]
 1054 0070 0420     		movs	r0, #4
 1055 0072 D1F10101 		rsbs	r1, r1, #1
 1056 0076 38BF     		it	cc
 1057 0078 0021     		movcc	r1, #0
 1058 007a FFF7FEFF 		bl	_test_assert
 1059 007e 0028     		cmp	r0, #0
 1060 0080 D1D1     		bne	.L20
 1061              		.loc 1 462 0
 1062 0082 EA69     		ldr	r2, [r5, #28]
 1063 0084 0520     		movs	r0, #5
 1064 0086 9168     		ldr	r1, [r2, #8]
 1065 0088 8B1B     		subs	r3, r1, r6
 1066 008a 5A42     		rsbs	r2, r3, #0
 1067 008c 42EB0301 		adc	r1, r2, r3
 1068 0090 FFF7FEFF 		bl	_test_assert
 1069 0094 0028     		cmp	r0, #0
 1070 0096 C6D1     		bne	.L20
 1071              		.loc 1 464 0
 1072 0098 2046     		mov	r0, r4
 1073 009a FFF7FEFF 		bl	chMtxLock
 1074              		.loc 1 465 0
ARM GAS  C:\Users\z80\AppData\Local\Temp\ccuZvOnj.s 			page 20


 1075 009e FFF7FEFF 		bl	chMtxUnlockAll
 1076              		.loc 1 466 0
 1077 00a2 2268     		ldr	r2, [r4, #0]
 1078 00a4 0620     		movs	r0, #6
 1079 00a6 111B     		subs	r1, r2, r4
 1080 00a8 4B42     		rsbs	r3, r1, #0
 1081 00aa 43EB0101 		adc	r1, r3, r1
 1082 00ae FFF7FEFF 		bl	_test_assert
 1083 00b2 0028     		cmp	r0, #0
 1084 00b4 B7D1     		bne	.L20
 1085              		.loc 1 467 0
 1086 00b6 A368     		ldr	r3, [r4, #8]
 1087 00b8 0720     		movs	r0, #7
 1088 00ba D3F10101 		rsbs	r1, r3, #1
 1089 00be 38BF     		it	cc
 1090 00c0 0021     		movcc	r1, #0
 1091              		.loc 1 468 0
 1092 00c2 BDE8F840 		pop	{r3, r4, r5, r6, r7, lr}
 1093              		.loc 1 467 0
 1094 00c6 FFF7FEBF 		b	_test_assert
 1095              		.cfi_endproc
 1096              	.LFE27:
 1097              		.size	mtx5_execute, .-mtx5_execute
 1098 00ca 00BFAFF3 		.section	.text.mtx4_execute,"ax",%progbits
 1098      0080
 1099              		.align	2
 1100              		.p2align 4,,15
 1101              		.thumb
 1102              		.thumb_func
 1103              		.type	mtx4_execute, %function
 1104              	mtx4_execute:
 1105              	.LFB25:
 1106              		.loc 1 376 0
 1107              		.cfi_startproc
 1108              		@ args = 0, pretend = 0, frame = 0
 1109              		@ frame_needed = 0, uses_anonymous_args = 0
 1110 0000 2DE9F047 		push	{r4, r5, r6, r7, r8, r9, sl, lr}
 1111              	.LCFI18:
 1112              		.cfi_def_cfa_offset 32
 1113              		.cfi_offset 14, -4
 1114              		.cfi_offset 10, -8
 1115              		.cfi_offset 9, -12
 1116              		.cfi_offset 8, -16
 1117              		.cfi_offset 7, -20
 1118              		.cfi_offset 6, -24
 1119              		.cfi_offset 5, -28
 1120              		.cfi_offset 4, -32
 1121              		.loc 1 379 0
 1122 0004 40F20004 		movw	r4, #:lower16:rlist
 1123 0008 C0F20004 		movt	r4, #:upper16:rlist
 1124 000c E069     		ldr	r0, [r4, #28]
 1125              		.loc 1 382 0
 1126 000e 40F20006 		movw	r6, #:lower16:wa
 1127              		.loc 1 379 0
 1128 0012 8768     		ldr	r7, [r0, #8]
 1129              	.LVL38:
 1130              		.loc 1 382 0
ARM GAS  C:\Users\z80\AppData\Local\Temp\ccuZvOnj.s 			page 21


 1131 0014 C0F20006 		movt	r6, #:upper16:wa
 1132 0018 D6F80090 		ldr	r9, [r6, #0]
 1133              		.loc 1 380 0
 1134 001c 07F10108 		add	r8, r7, #1
 1135              	.LVL39:
 1136              		.loc 1 382 0
 1137 0020 40F20005 		movw	r5, #:lower16:.LC2
 1138 0024 40F20003 		movw	r3, #:lower16:thread4a
 1139              		.loc 1 376 0
 1140 0028 82B0     		sub	sp, sp, #8
 1141              	.LCFI19:
 1142              		.cfi_def_cfa_offset 40
 1143              		.loc 1 382 0
 1144 002a C0F20005 		movt	r5, #:upper16:.LC2
 1145 002e 4FF49871 		mov	r1, #304
 1146 0032 4246     		mov	r2, r8
 1147 0034 C0F20003 		movt	r3, #:upper16:thread4a
 1148 0038 4846     		mov	r0, r9
 1149 003a 0095     		str	r5, [sp, #0]
 1150 003c FFF7FEFF 		bl	chThdCreateStatic
 1151              	.LVL40:
 1152 0040 40F20005 		movw	r5, #:lower16:threads
 1153              		.loc 1 383 0
 1154 0044 D6F804A0 		ldr	sl, [r6, #4]
 1155              		.loc 1 382 0
 1156 0048 C0F20005 		movt	r5, #:upper16:threads
 1157              		.loc 1 381 0
 1158 004c BE1C     		adds	r6, r7, #2
 1159              	.LVL41:
 1160              		.loc 1 383 0
 1161 004e 40F2000E 		movw	lr, #:lower16:.LC0
 1162 0052 40F20003 		movw	r3, #:lower16:thread4b
 1163 0056 4FF49871 		mov	r1, #304
 1164              		.loc 1 382 0
 1165 005a 2860     		str	r0, [r5, #0]
 1166              		.loc 1 383 0
 1167 005c C0F2000E 		movt	lr, #:upper16:.LC0
 1168 0060 3246     		mov	r2, r6
 1169 0062 C0F20003 		movt	r3, #:upper16:thread4b
 1170 0066 5046     		mov	r0, sl
 1171 0068 CDF800E0 		str	lr, [sp, #0]
 1172 006c FFF7FEFF 		bl	chThdCreateStatic
 1173 0070 6860     		str	r0, [r5, #4]
 1174              		.loc 1 384 0
 1175 0072 40F20000 		movw	r0, #:lower16:.LANCHOR1
 1176 0076 C0F20000 		movt	r0, #:upper16:.LANCHOR1
 1177 007a FFF7FEFF 		bl	chMtxLock
 1178              		.loc 1 385 0
 1179 007e E169     		ldr	r1, [r4, #28]
 1180 0080 0120     		movs	r0, #1
 1181 0082 8B68     		ldr	r3, [r1, #8]
 1182 0084 DA1B     		subs	r2, r3, r7
 1183 0086 5142     		rsbs	r1, r2, #0
 1184 0088 41EB0201 		adc	r1, r1, r2
 1185 008c FFF7FEFF 		bl	_test_assert
 1186 0090 10B1     		cbz	r0, .L25
 1187              	.L23:
ARM GAS  C:\Users\z80\AppData\Local\Temp\ccuZvOnj.s 			page 22


 1188              		.loc 1 420 0
 1189 0092 02B0     		add	sp, sp, #8
 1190 0094 BDE8F087 		pop	{r4, r5, r6, r7, r8, r9, sl, pc}
 1191              	.L25:
 1192              		.loc 1 386 0
 1193 0098 3220     		movs	r0, #50
 1194 009a FFF7FEFF 		bl	chThdSleep
 1195              		.loc 1 387 0
 1196 009e E169     		ldr	r1, [r4, #28]
 1197 00a0 0220     		movs	r0, #2
 1198 00a2 8B68     		ldr	r3, [r1, #8]
 1199 00a4 C8EB030C 		rsb	ip, r8, r3
 1200 00a8 DCF10002 		rsbs	r2, ip, #0
 1201 00ac 42EB0C01 		adc	r1, r2, ip
 1202 00b0 FFF7FEFF 		bl	_test_assert
 1203 00b4 0028     		cmp	r0, #0
 1204 00b6 ECD1     		bne	.L23
 1205              		.loc 1 388 0
 1206 00b8 40F20000 		movw	r0, #:lower16:.LANCHOR2
 1207 00bc C0F20000 		movt	r0, #:upper16:.LANCHOR2
 1208 00c0 FFF7FEFF 		bl	chMtxLock
 1209              		.loc 1 389 0
 1210 00c4 E269     		ldr	r2, [r4, #28]
 1211 00c6 0320     		movs	r0, #3
 1212 00c8 9168     		ldr	r1, [r2, #8]
 1213 00ca C8EB0103 		rsb	r3, r8, r1
 1214 00ce 5A42     		rsbs	r2, r3, #0
 1215 00d0 42EB0301 		adc	r1, r2, r3
 1216 00d4 FFF7FEFF 		bl	_test_assert
 1217 00d8 0028     		cmp	r0, #0
 1218 00da DAD1     		bne	.L23
 1219              		.loc 1 390 0
 1220 00dc 3220     		movs	r0, #50
 1221 00de FFF7FEFF 		bl	chThdSleep
 1222              		.loc 1 391 0
 1223 00e2 E369     		ldr	r3, [r4, #28]
 1224 00e4 0420     		movs	r0, #4
 1225 00e6 9A68     		ldr	r2, [r3, #8]
 1226 00e8 911B     		subs	r1, r2, r6
 1227 00ea 4B42     		rsbs	r3, r1, #0
 1228 00ec 43EB0101 		adc	r1, r3, r1
 1229 00f0 FFF7FEFF 		bl	_test_assert
 1230 00f4 0028     		cmp	r0, #0
 1231 00f6 CCD1     		bne	.L23
 1232              		.loc 1 392 0
 1233 00f8 FFF7FEFF 		bl	chMtxUnlock
 1234              		.loc 1 393 0
 1235 00fc E369     		ldr	r3, [r4, #28]
 1236 00fe 0520     		movs	r0, #5
 1237 0100 9A68     		ldr	r2, [r3, #8]
 1238 0102 C8EB0201 		rsb	r1, r8, r2
 1239 0106 D1F1000C 		rsbs	ip, r1, #0
 1240 010a 4CEB0101 		adc	r1, ip, r1
 1241 010e FFF7FEFF 		bl	_test_assert
 1242 0112 0028     		cmp	r0, #0
 1243 0114 BDD1     		bne	.L23
 1244              		.loc 1 394 0
ARM GAS  C:\Users\z80\AppData\Local\Temp\ccuZvOnj.s 			page 23


 1245 0116 3220     		movs	r0, #50
 1246 0118 FFF7FEFF 		bl	chThdSleep
 1247              		.loc 1 395 0
 1248 011c E369     		ldr	r3, [r4, #28]
 1249 011e 0620     		movs	r0, #6
 1250 0120 9A68     		ldr	r2, [r3, #8]
 1251 0122 C8EB0201 		rsb	r1, r8, r2
 1252 0126 D1F1000C 		rsbs	ip, r1, #0
 1253 012a 4CEB0101 		adc	r1, ip, r1
 1254 012e FFF7FEFF 		bl	_test_assert
 1255 0132 0028     		cmp	r0, #0
 1256 0134 ADD1     		bne	.L23
 1257              		.loc 1 396 0
 1258 0136 FFF7FEFF 		bl	chMtxUnlockAll
 1259              		.loc 1 397 0
 1260 013a E169     		ldr	r1, [r4, #28]
 1261 013c 0720     		movs	r0, #7
 1262 013e 8B68     		ldr	r3, [r1, #8]
 1263 0140 DA1B     		subs	r2, r3, r7
 1264 0142 5142     		rsbs	r1, r2, #0
 1265 0144 41EB0201 		adc	r1, r1, r2
 1266 0148 FFF7FEFF 		bl	_test_assert
 1267 014c 0028     		cmp	r0, #0
 1268 014e A0D1     		bne	.L23
 1269              		.loc 1 398 0
 1270 0150 FFF7FEFF 		bl	test_wait_threads
 1271              		.loc 1 401 0
 1272 0154 40F2000C 		movw	ip, #:lower16:.LC5
 1273 0158 40F20003 		movw	r3, #:lower16:thread4a
 1274 015c C0F2000C 		movt	ip, #:upper16:.LC5
 1275 0160 4FF49871 		mov	r1, #304
 1276 0164 4246     		mov	r2, r8
 1277 0166 C0F20003 		movt	r3, #:upper16:thread4a
 1278 016a 4846     		mov	r0, r9
 1279 016c CDF800C0 		str	ip, [sp, #0]
 1280 0170 FFF7FEFF 		bl	chThdCreateStatic
 1281              		.loc 1 402 0
 1282 0174 40F2000E 		movw	lr, #:lower16:.LC1
 1283 0178 40F20003 		movw	r3, #:lower16:thread4b
 1284 017c 4FF49871 		mov	r1, #304
 1285              		.loc 1 401 0
 1286 0180 2860     		str	r0, [r5, #0]
 1287              		.loc 1 402 0
 1288 0182 C0F2000E 		movt	lr, #:upper16:.LC1
 1289 0186 3246     		mov	r2, r6
 1290 0188 C0F20003 		movt	r3, #:upper16:thread4b
 1291 018c 5046     		mov	r0, sl
 1292 018e CDF800E0 		str	lr, [sp, #0]
 1293 0192 FFF7FEFF 		bl	chThdCreateStatic
 1294 0196 6860     		str	r0, [r5, #4]
 1295              		.loc 1 403 0
 1296 0198 40F20000 		movw	r0, #:lower16:.LANCHOR1
 1297 019c C0F20000 		movt	r0, #:upper16:.LANCHOR1
 1298 01a0 FFF7FEFF 		bl	chMtxLock
 1299              		.loc 1 404 0
 1300 01a4 E269     		ldr	r2, [r4, #28]
 1301 01a6 0820     		movs	r0, #8
ARM GAS  C:\Users\z80\AppData\Local\Temp\ccuZvOnj.s 			page 24


 1302 01a8 9168     		ldr	r1, [r2, #8]
 1303 01aa CB1B     		subs	r3, r1, r7
 1304 01ac 5A42     		rsbs	r2, r3, #0
 1305 01ae 42EB0301 		adc	r1, r2, r3
 1306 01b2 FFF7FEFF 		bl	_test_assert
 1307 01b6 0028     		cmp	r0, #0
 1308 01b8 7FF46BAF 		bne	.L23
 1309              		.loc 1 405 0
 1310 01bc 3220     		movs	r0, #50
 1311 01be FFF7FEFF 		bl	chThdSleep
 1312              		.loc 1 406 0
 1313 01c2 E369     		ldr	r3, [r4, #28]
 1314 01c4 0920     		movs	r0, #9
 1315 01c6 9A68     		ldr	r2, [r3, #8]
 1316 01c8 C8EB0201 		rsb	r1, r8, r2
 1317 01cc 4B42     		rsbs	r3, r1, #0
 1318 01ce 43EB0101 		adc	r1, r3, r1
 1319 01d2 FFF7FEFF 		bl	_test_assert
 1320 01d6 0028     		cmp	r0, #0
 1321 01d8 7FF45BAF 		bne	.L23
 1322              		.loc 1 407 0
 1323 01dc 40F20000 		movw	r0, #:lower16:.LANCHOR2
 1324 01e0 C0F20000 		movt	r0, #:upper16:.LANCHOR2
 1325 01e4 FFF7FEFF 		bl	chMtxLock
 1326              		.loc 1 408 0
 1327 01e8 E369     		ldr	r3, [r4, #28]
 1328 01ea 0A20     		movs	r0, #10
 1329 01ec 9A68     		ldr	r2, [r3, #8]
 1330 01ee C8EB0201 		rsb	r1, r8, r2
 1331 01f2 D1F1000C 		rsbs	ip, r1, #0
 1332 01f6 4CEB0101 		adc	r1, ip, r1
 1333 01fa FFF7FEFF 		bl	_test_assert
 1334 01fe 0028     		cmp	r0, #0
 1335 0200 7FF447AF 		bne	.L23
 1336              		.loc 1 409 0
 1337 0204 3220     		movs	r0, #50
 1338 0206 FFF7FEFF 		bl	chThdSleep
 1339              		.loc 1 410 0
 1340 020a E469     		ldr	r4, [r4, #28]
 1341 020c 0B20     		movs	r0, #11
 1342 020e A268     		ldr	r2, [r4, #8]
 1343 0210 40F20004 		movw	r4, #:lower16:rlist
 1344 0214 911B     		subs	r1, r2, r6
 1345 0216 4D42     		rsbs	r5, r1, #0
 1346 0218 45EB0101 		adc	r1, r5, r1
 1347 021c FFF7FEFF 		bl	_test_assert
 1348 0220 C0F20004 		movt	r4, #:upper16:rlist
 1349 0224 0546     		mov	r5, r0
 1350 0226 0028     		cmp	r0, #0
 1351 0228 7FF433AF 		bne	.L23
 1352              	.LBB7:
 1353              		.loc 1 411 0
 1354 022c 2023     		movs	r3, #32
 1355              	.LVL42:
 1356              	@ 411 "../chibios_2.4.x/test/testmtx.c" 1
 1357 022e 83F31188 		msr     BASEPRI, r3
 1358              	@ 0 "" 2
ARM GAS  C:\Users\z80\AppData\Local\Temp\ccuZvOnj.s 			page 25


 1359              	.LVL43:
 1360              		.thumb
 1361              	.LBE7:
 1362 0232 FFF7FEFF 		bl	dbg_check_lock
 1363              	.LVL44:
 1364              		.loc 1 412 0
 1365 0236 FFF7FEFF 		bl	chMtxUnlockS
 1366              		.loc 1 413 0
 1367 023a FFF7FEFF 		bl	dbg_check_unlock
 1368              	.LBB8:
 1369 023e 2B46     		mov	r3, r5
 1370              	.LVL45:
 1371              	@ 413 "../chibios_2.4.x/test/testmtx.c" 1
 1372 0240 83F31188 		msr     BASEPRI, r3
 1373              	@ 0 "" 2
 1374              	.LVL46:
 1375              		.thumb
 1376              	.LBE8:
 1377              		.loc 1 414 0
 1378 0244 E369     		ldr	r3, [r4, #28]
 1379              	.LVL47:
 1380 0246 0C20     		movs	r0, #12
 1381 0248 9A68     		ldr	r2, [r3, #8]
 1382 024a C8EB0201 		rsb	r1, r8, r2
 1383 024e 4B42     		rsbs	r3, r1, #0
 1384 0250 43EB0101 		adc	r1, r3, r1
 1385 0254 FFF7FEFF 		bl	_test_assert
 1386 0258 0028     		cmp	r0, #0
 1387 025a 7FF41AAF 		bne	.L23
 1388              		.loc 1 415 0
 1389 025e 3220     		movs	r0, #50
 1390 0260 FFF7FEFF 		bl	chThdSleep
 1391              		.loc 1 416 0
 1392 0264 E369     		ldr	r3, [r4, #28]
 1393 0266 0D20     		movs	r0, #13
 1394 0268 9A68     		ldr	r2, [r3, #8]
 1395 026a C8EB0201 		rsb	r1, r8, r2
 1396 026e D1F1000C 		rsbs	ip, r1, #0
 1397 0272 4CEB0101 		adc	r1, ip, r1
 1398 0276 FFF7FEFF 		bl	_test_assert
 1399 027a 0028     		cmp	r0, #0
 1400 027c 7FF409AF 		bne	.L23
 1401              		.loc 1 417 0
 1402 0280 FFF7FEFF 		bl	chMtxUnlockAll
 1403              		.loc 1 418 0
 1404 0284 E369     		ldr	r3, [r4, #28]
 1405 0286 0E20     		movs	r0, #14
 1406 0288 9A68     		ldr	r2, [r3, #8]
 1407 028a D11B     		subs	r1, r2, r7
 1408 028c D1F1000C 		rsbs	ip, r1, #0
 1409 0290 4CEB0101 		adc	r1, ip, r1
 1410 0294 FFF7FEFF 		bl	_test_assert
 1411 0298 0028     		cmp	r0, #0
 1412 029a 7FF4FAAE 		bne	.L23
 1413              		.loc 1 420 0
 1414 029e 02B0     		add	sp, sp, #8
 1415 02a0 BDE8F047 		pop	{r4, r5, r6, r7, r8, r9, sl, lr}
ARM GAS  C:\Users\z80\AppData\Local\Temp\ccuZvOnj.s 			page 26


 1416              		.loc 1 419 0
 1417 02a4 FFF7FEBF 		b	test_wait_threads
 1418              		.cfi_endproc
 1419              	.LFE25:
 1420              		.size	mtx4_execute, .-mtx4_execute
 1421 02a8 AFF30080 		.section	.text.thread4b,"ax",%progbits
 1421      AFF30080 
 1422              		.align	2
 1423              		.p2align 4,,15
 1424              		.thumb
 1425              		.thumb_func
 1426              		.type	thread4b, %function
 1427              	thread4b:
 1428              	.LFB24:
 1429              		.loc 1 367 0
 1430              		.cfi_startproc
 1431              		@ args = 0, pretend = 0, frame = 0
 1432              		@ frame_needed = 0, uses_anonymous_args = 0
 1433              	.LVL48:
 1434 0000 08B5     		push	{r3, lr}
 1435              	.LCFI20:
 1436              		.cfi_def_cfa_offset 8
 1437              		.cfi_offset 14, -4
 1438              		.cfi_offset 3, -8
 1439              		.loc 1 370 0
 1440 0002 4B20     		movs	r0, #75
 1441              	.LVL49:
 1442 0004 FFF7FEFF 		bl	chThdSleep
 1443              		.loc 1 371 0
 1444 0008 40F20000 		movw	r0, #:lower16:.LANCHOR2
 1445 000c C0F20000 		movt	r0, #:upper16:.LANCHOR2
 1446 0010 FFF7FEFF 		bl	chMtxLock
 1447              		.loc 1 372 0
 1448 0014 FFF7FEFF 		bl	chMtxUnlock
 1449              		.loc 1 374 0
 1450 0018 0020     		movs	r0, #0
 1451 001a 08BD     		pop	{r3, pc}
 1452              		.cfi_endproc
 1453              	.LFE24:
 1454              		.size	thread4b, .-thread4b
 1455 001c AFF30080 		.section	.text.thread4a,"ax",%progbits
 1456              		.align	2
 1457              		.p2align 4,,15
 1458              		.thumb
 1459              		.thumb_func
 1460              		.type	thread4a, %function
 1461              	thread4a:
 1462              	.LFB23:
 1463              		.loc 1 358 0
 1464              		.cfi_startproc
 1465              		@ args = 0, pretend = 0, frame = 0
 1466              		@ frame_needed = 0, uses_anonymous_args = 0
 1467              	.LVL50:
 1468 0000 08B5     		push	{r3, lr}
 1469              	.LCFI21:
 1470              		.cfi_def_cfa_offset 8
 1471              		.cfi_offset 14, -4
ARM GAS  C:\Users\z80\AppData\Local\Temp\ccuZvOnj.s 			page 27


 1472              		.cfi_offset 3, -8
 1473              		.loc 1 361 0
 1474 0002 1920     		movs	r0, #25
 1475              	.LVL51:
 1476 0004 FFF7FEFF 		bl	chThdSleep
 1477              		.loc 1 362 0
 1478 0008 40F20000 		movw	r0, #:lower16:.LANCHOR1
 1479 000c C0F20000 		movt	r0, #:upper16:.LANCHOR1
 1480 0010 FFF7FEFF 		bl	chMtxLock
 1481              		.loc 1 363 0
 1482 0014 FFF7FEFF 		bl	chMtxUnlock
 1483              		.loc 1 365 0
 1484 0018 0020     		movs	r0, #0
 1485 001a 08BD     		pop	{r3, pc}
 1486              		.cfi_endproc
 1487              	.LFE23:
 1488              		.size	thread4a, .-thread4a
 1489 001c AFF30080 		.section	.text.mtx3_execute,"ax",%progbits
 1490              		.align	2
 1491              		.p2align 4,,15
 1492              		.thumb
 1493              		.thumb_func
 1494              		.type	mtx3_execute, %function
 1495              	mtx3_execute:
 1496              	.LFB21:
 1497              		.loc 1 319 0
 1498              		.cfi_startproc
 1499              		@ args = 0, pretend = 0, frame = 0
 1500              		@ frame_needed = 0, uses_anonymous_args = 0
 1501 0000 2DE9F041 		push	{r4, r5, r6, r7, r8, lr}
 1502              	.LCFI22:
 1503              		.cfi_def_cfa_offset 24
 1504              		.cfi_offset 14, -4
 1505              		.cfi_offset 8, -8
 1506              		.cfi_offset 7, -12
 1507              		.cfi_offset 6, -16
 1508              		.cfi_offset 5, -20
 1509              		.cfi_offset 4, -24
 1510              		.loc 1 324 0
 1511 0004 40F20006 		movw	r6, #:lower16:rlist
 1512              		.loc 1 319 0
 1513 0008 82B0     		sub	sp, sp, #8
 1514              	.LCFI23:
 1515              		.cfi_def_cfa_offset 32
 1516              		.loc 1 324 0
 1517 000a C0F20006 		movt	r6, #:upper16:rlist
 1518              		.loc 1 322 0
 1519 000e FFF7FEFF 		bl	test_wait_tick
 1520              		.loc 1 324 0
 1521 0012 F069     		ldr	r0, [r6, #28]
 1522 0014 40F20005 		movw	r5, #:lower16:wa
 1523 0018 8268     		ldr	r2, [r0, #8]
 1524 001a C0F20005 		movt	r5, #:upper16:wa
 1525              		.loc 1 323 0
 1526 001e 40F20008 		movw	r8, #:lower16:vtlist
 1527              		.loc 1 324 0
 1528 0022 40F20003 		movw	r3, #:lower16:thread3LL
ARM GAS  C:\Users\z80\AppData\Local\Temp\ccuZvOnj.s 			page 28


 1529 0026 0027     		movs	r7, #0
 1530 0028 2868     		ldr	r0, [r5, #0]
 1531 002a 4FF49871 		mov	r1, #304
 1532 002e 053A     		subs	r2, r2, #5
 1533 0030 C0F20003 		movt	r3, #:upper16:thread3LL
 1534              		.loc 1 323 0
 1535 0034 C0F20008 		movt	r8, #:upper16:vtlist
 1536 0038 D8F80C80 		ldr	r8, [r8, #12]
 1537              	.LVL52:
 1538              		.loc 1 324 0
 1539 003c 0097     		str	r7, [sp, #0]
 1540 003e FFF7FEFF 		bl	chThdCreateStatic
 1541              		.loc 1 325 0
 1542 0042 F469     		ldr	r4, [r6, #28]
 1543 0044 D5F804E0 		ldr	lr, [r5, #4]
 1544 0048 A268     		ldr	r2, [r4, #8]
 1545              		.loc 1 324 0
 1546 004a 40F20004 		movw	r4, #:lower16:threads
 1547 004e C0F20004 		movt	r4, #:upper16:threads
 1548              		.loc 1 325 0
 1549 0052 40F20003 		movw	r3, #:lower16:thread3L
 1550              		.loc 1 324 0
 1551 0056 2060     		str	r0, [r4, #0]
 1552              		.loc 1 325 0
 1553 0058 4FF49871 		mov	r1, #304
 1554 005c 7046     		mov	r0, lr
 1555 005e 043A     		subs	r2, r2, #4
 1556 0060 C0F20003 		movt	r3, #:upper16:thread3L
 1557 0064 0097     		str	r7, [sp, #0]
 1558 0066 FFF7FEFF 		bl	chThdCreateStatic
 1559              		.loc 1 326 0
 1560 006a F369     		ldr	r3, [r6, #28]
 1561 006c D5F808C0 		ldr	ip, [r5, #8]
 1562 0070 9A68     		ldr	r2, [r3, #8]
 1563 0072 40F20003 		movw	r3, #:lower16:thread3M
 1564              		.loc 1 325 0
 1565 0076 6060     		str	r0, [r4, #4]
 1566              		.loc 1 326 0
 1567 0078 4FF49871 		mov	r1, #304
 1568 007c 6046     		mov	r0, ip
 1569 007e 033A     		subs	r2, r2, #3
 1570 0080 C0F20003 		movt	r3, #:upper16:thread3M
 1571 0084 0097     		str	r7, [sp, #0]
 1572 0086 FFF7FEFF 		bl	chThdCreateStatic
 1573              		.loc 1 327 0
 1574 008a F169     		ldr	r1, [r6, #28]
 1575 008c D5F80CE0 		ldr	lr, [r5, #12]
 1576 0090 8A68     		ldr	r2, [r1, #8]
 1577 0092 40F20003 		movw	r3, #:lower16:thread3H
 1578              		.loc 1 326 0
 1579 0096 A060     		str	r0, [r4, #8]
 1580              		.loc 1 327 0
 1581 0098 4FF49871 		mov	r1, #304
 1582 009c 7046     		mov	r0, lr
 1583 009e 023A     		subs	r2, r2, #2
 1584 00a0 C0F20003 		movt	r3, #:upper16:thread3H
 1585 00a4 0097     		str	r7, [sp, #0]
ARM GAS  C:\Users\z80\AppData\Local\Temp\ccuZvOnj.s 			page 29


 1586 00a6 FFF7FEFF 		bl	chThdCreateStatic
 1587              		.loc 1 328 0
 1588 00aa F369     		ldr	r3, [r6, #28]
 1589 00ac 2D69     		ldr	r5, [r5, #16]
 1590 00ae 9A68     		ldr	r2, [r3, #8]
 1591 00b0 40F20003 		movw	r3, #:lower16:thread3HH
 1592 00b4 4FF49871 		mov	r1, #304
 1593              		.loc 1 327 0
 1594 00b8 E060     		str	r0, [r4, #12]
 1595              		.loc 1 328 0
 1596 00ba 013A     		subs	r2, r2, #1
 1597 00bc C0F20003 		movt	r3, #:upper16:thread3HH
 1598 00c0 2846     		mov	r0, r5
 1599 00c2 0097     		str	r7, [sp, #0]
 1600 00c4 FFF7FEFF 		bl	chThdCreateStatic
 1601 00c8 2061     		str	r0, [r4, #16]
 1602              		.loc 1 329 0
 1603 00ca FFF7FEFF 		bl	test_wait_threads
 1604              		.loc 1 330 0
 1605 00ce 40F20001 		movw	r1, #:lower16:.LC6
 1606 00d2 0120     		movs	r0, #1
 1607 00d4 C0F20001 		movt	r1, #:upper16:.LC6
 1608 00d8 FFF7FEFF 		bl	_test_assert_sequence
 1609 00dc 10B1     		cbz	r0, .L30
 1610              		.loc 1 332 0
 1611 00de 02B0     		add	sp, sp, #8
 1612 00e0 BDE8F081 		pop	{r4, r5, r6, r7, r8, pc}
 1613              	.L30:
 1614              		.loc 1 331 0
 1615 00e4 0220     		movs	r0, #2
 1616 00e6 08F13701 		add	r1, r8, #55
 1617 00ea 08F13C02 		add	r2, r8, #60
 1618              		.loc 1 332 0
 1619 00ee 02B0     		add	sp, sp, #8
 1620 00f0 BDE8F041 		pop	{r4, r5, r6, r7, r8, lr}
 1621              		.loc 1 331 0
 1622 00f4 FFF7FEBF 		b	_test_assert_time_window
 1623              		.cfi_endproc
 1624              	.LFE21:
 1625              		.size	mtx3_execute, .-mtx3_execute
 1626 00f8 AFF30080 		.section	.text.mtx2_execute,"ax",%progbits
 1626      AFF30080 
 1627              		.align	2
 1628              		.p2align 4,,15
 1629              		.thumb
 1630              		.thumb_func
 1631              		.type	mtx2_execute, %function
 1632              	mtx2_execute:
 1633              	.LFB14:
 1634              		.loc 1 201 0
 1635              		.cfi_startproc
 1636              		@ args = 0, pretend = 0, frame = 0
 1637              		@ frame_needed = 0, uses_anonymous_args = 0
 1638 0000 2DE9F041 		push	{r4, r5, r6, r7, r8, lr}
 1639              	.LCFI24:
 1640              		.cfi_def_cfa_offset 24
 1641              		.cfi_offset 14, -4
ARM GAS  C:\Users\z80\AppData\Local\Temp\ccuZvOnj.s 			page 30


 1642              		.cfi_offset 8, -8
 1643              		.cfi_offset 7, -12
 1644              		.cfi_offset 6, -16
 1645              		.cfi_offset 5, -20
 1646              		.cfi_offset 4, -24
 1647              		.loc 1 206 0
 1648 0004 40F20006 		movw	r6, #:lower16:rlist
 1649              		.loc 1 201 0
 1650 0008 82B0     		sub	sp, sp, #8
 1651              	.LCFI25:
 1652              		.cfi_def_cfa_offset 32
 1653              		.loc 1 206 0
 1654 000a C0F20006 		movt	r6, #:upper16:rlist
 1655              		.loc 1 204 0
 1656 000e FFF7FEFF 		bl	test_wait_tick
 1657              		.loc 1 206 0
 1658 0012 F069     		ldr	r0, [r6, #28]
 1659 0014 40F20005 		movw	r5, #:lower16:wa
 1660 0018 8268     		ldr	r2, [r0, #8]
 1661 001a C0F20005 		movt	r5, #:upper16:wa
 1662              		.loc 1 205 0
 1663 001e 40F20004 		movw	r4, #:lower16:vtlist
 1664              		.loc 1 206 0
 1665 0022 40F20003 		movw	r3, #:lower16:thread2H
 1666 0026 0027     		movs	r7, #0
 1667 0028 2868     		ldr	r0, [r5, #0]
 1668              		.loc 1 205 0
 1669 002a C0F20004 		movt	r4, #:upper16:vtlist
 1670              		.loc 1 206 0
 1671 002e 4FF49871 		mov	r1, #304
 1672 0032 013A     		subs	r2, r2, #1
 1673 0034 C0F20003 		movt	r3, #:upper16:thread2H
 1674              		.loc 1 205 0
 1675 0038 D4F80C80 		ldr	r8, [r4, #12]
 1676              	.LVL53:
 1677              		.loc 1 206 0
 1678 003c 0097     		str	r7, [sp, #0]
 1679 003e FFF7FEFF 		bl	chThdCreateStatic
 1680              		.loc 1 207 0
 1681 0042 F169     		ldr	r1, [r6, #28]
 1682 0044 D5F804E0 		ldr	lr, [r5, #4]
 1683 0048 8A68     		ldr	r2, [r1, #8]
 1684              		.loc 1 206 0
 1685 004a 40F20004 		movw	r4, #:lower16:threads
 1686 004e C0F20004 		movt	r4, #:upper16:threads
 1687              		.loc 1 207 0
 1688 0052 40F20003 		movw	r3, #:lower16:thread2M
 1689              		.loc 1 206 0
 1690 0056 2060     		str	r0, [r4, #0]
 1691              		.loc 1 207 0
 1692 0058 4FF49871 		mov	r1, #304
 1693 005c 7046     		mov	r0, lr
 1694 005e 023A     		subs	r2, r2, #2
 1695 0060 C0F20003 		movt	r3, #:upper16:thread2M
 1696 0064 0097     		str	r7, [sp, #0]
 1697 0066 FFF7FEFF 		bl	chThdCreateStatic
 1698              		.loc 1 208 0
ARM GAS  C:\Users\z80\AppData\Local\Temp\ccuZvOnj.s 			page 31


 1699 006a F369     		ldr	r3, [r6, #28]
 1700 006c AD68     		ldr	r5, [r5, #8]
 1701 006e 9A68     		ldr	r2, [r3, #8]
 1702 0070 40F20003 		movw	r3, #:lower16:thread2L
 1703 0074 4FF49871 		mov	r1, #304
 1704              		.loc 1 207 0
 1705 0078 6060     		str	r0, [r4, #4]
 1706              		.loc 1 208 0
 1707 007a 033A     		subs	r2, r2, #3
 1708 007c C0F20003 		movt	r3, #:upper16:thread2L
 1709 0080 2846     		mov	r0, r5
 1710 0082 0097     		str	r7, [sp, #0]
 1711 0084 FFF7FEFF 		bl	chThdCreateStatic
 1712 0088 A060     		str	r0, [r4, #8]
 1713              		.loc 1 209 0
 1714 008a FFF7FEFF 		bl	test_wait_threads
 1715              		.loc 1 210 0
 1716 008e 40F20001 		movw	r1, #:lower16:.LC3
 1717 0092 0120     		movs	r0, #1
 1718 0094 C0F20001 		movt	r1, #:upper16:.LC3
 1719 0098 FFF7FEFF 		bl	_test_assert_sequence
 1720 009c 10B1     		cbz	r0, .L33
 1721              		.loc 1 212 0
 1722 009e 02B0     		add	sp, sp, #8
 1723 00a0 BDE8F081 		pop	{r4, r5, r6, r7, r8, pc}
 1724              	.L33:
 1725              		.loc 1 211 0
 1726 00a4 0220     		movs	r0, #2
 1727 00a6 08F13201 		add	r1, r8, #50
 1728 00aa 08F13702 		add	r2, r8, #55
 1729              		.loc 1 212 0
 1730 00ae 02B0     		add	sp, sp, #8
 1731 00b0 BDE8F041 		pop	{r4, r5, r6, r7, r8, lr}
 1732              		.loc 1 211 0
 1733 00b4 FFF7FEBF 		b	_test_assert_time_window
 1734              		.cfi_endproc
 1735              	.LFE14:
 1736              		.size	mtx2_execute, .-mtx2_execute
 1737 00b8 AFF30080 		.section	.text.thread3HH,"ax",%progbits
 1737      AFF30080 
 1738              		.align	2
 1739              		.p2align 4,,15
 1740              		.thumb
 1741              		.thumb_func
 1742              		.type	thread3HH, %function
 1743              	thread3HH:
 1744              	.LFB20:
 1745              		.loc 1 308 0
 1746              		.cfi_startproc
 1747              		@ args = 0, pretend = 0, frame = 0
 1748              		@ frame_needed = 0, uses_anonymous_args = 0
 1749              	.LVL54:
 1750 0000 08B5     		push	{r3, lr}
 1751              	.LCFI26:
 1752              		.cfi_def_cfa_offset 8
 1753              		.cfi_offset 14, -4
 1754              		.cfi_offset 3, -8
ARM GAS  C:\Users\z80\AppData\Local\Temp\ccuZvOnj.s 			page 32


 1755              		.loc 1 311 0
 1756 0002 1920     		movs	r0, #25
 1757              	.LVL55:
 1758 0004 FFF7FEFF 		bl	chThdSleep
 1759              		.loc 1 312 0
 1760 0008 40F20000 		movw	r0, #:lower16:.LANCHOR1
 1761 000c C0F20000 		movt	r0, #:upper16:.LANCHOR1
 1762 0010 FFF7FEFF 		bl	chMtxLock
 1763              		.loc 1 313 0
 1764 0014 0A20     		movs	r0, #10
 1765 0016 FFF7FEFF 		bl	test_cpu_pulse
 1766              		.loc 1 314 0
 1767 001a FFF7FEFF 		bl	chMtxUnlock
 1768              		.loc 1 315 0
 1769 001e 4120     		movs	r0, #65
 1770 0020 FFF7FEFF 		bl	test_emit_token
 1771              		.loc 1 317 0
 1772 0024 0020     		movs	r0, #0
 1773 0026 08BD     		pop	{r3, pc}
 1774              		.cfi_endproc
 1775              	.LFE20:
 1776              		.size	thread3HH, .-thread3HH
 1777 0028 AFF30080 		.section	.text.thread3H,"ax",%progbits
 1777      AFF30080 
 1778              		.align	2
 1779              		.p2align 4,,15
 1780              		.thumb
 1781              		.thumb_func
 1782              		.type	thread3H, %function
 1783              	thread3H:
 1784              	.LFB19:
 1785              		.loc 1 298 0
 1786              		.cfi_startproc
 1787              		@ args = 0, pretend = 0, frame = 0
 1788              		@ frame_needed = 0, uses_anonymous_args = 0
 1789              	.LVL56:
 1790 0000 08B5     		push	{r3, lr}
 1791              	.LCFI27:
 1792              		.cfi_def_cfa_offset 8
 1793              		.cfi_offset 14, -4
 1794              		.cfi_offset 3, -8
 1795              		.loc 1 301 0
 1796 0002 1420     		movs	r0, #20
 1797              	.LVL57:
 1798 0004 FFF7FEFF 		bl	chThdSleep
 1799              		.loc 1 302 0
 1800 0008 1420     		movs	r0, #20
 1801 000a FFF7FEFF 		bl	test_cpu_pulse
 1802              		.loc 1 303 0
 1803 000e 4220     		movs	r0, #66
 1804 0010 FFF7FEFF 		bl	test_emit_token
 1805              		.loc 1 305 0
 1806 0014 0020     		movs	r0, #0
 1807 0016 08BD     		pop	{r3, pc}
 1808              		.cfi_endproc
 1809              	.LFE19:
 1810              		.size	thread3H, .-thread3H
ARM GAS  C:\Users\z80\AppData\Local\Temp\ccuZvOnj.s 			page 33


 1811 0018 AFF30080 		.section	.text.thread3M,"ax",%progbits
 1811      AFF30080 
 1812              		.align	2
 1813              		.p2align 4,,15
 1814              		.thumb
 1815              		.thumb_func
 1816              		.type	thread3M, %function
 1817              	thread3M:
 1818              	.LFB18:
 1819              		.loc 1 286 0
 1820              		.cfi_startproc
 1821              		@ args = 0, pretend = 0, frame = 0
 1822              		@ frame_needed = 0, uses_anonymous_args = 0
 1823              	.LVL58:
 1824 0000 08B5     		push	{r3, lr}
 1825              	.LCFI28:
 1826              		.cfi_def_cfa_offset 8
 1827              		.cfi_offset 14, -4
 1828              		.cfi_offset 3, -8
 1829              		.loc 1 289 0
 1830 0002 0A20     		movs	r0, #10
 1831              	.LVL59:
 1832 0004 FFF7FEFF 		bl	chThdSleep
 1833              		.loc 1 290 0
 1834 0008 40F20000 		movw	r0, #:lower16:.LANCHOR1
 1835 000c C0F20000 		movt	r0, #:upper16:.LANCHOR1
 1836 0010 FFF7FEFF 		bl	chMtxLock
 1837              		.loc 1 291 0
 1838 0014 0A20     		movs	r0, #10
 1839 0016 FFF7FEFF 		bl	test_cpu_pulse
 1840              		.loc 1 292 0
 1841 001a FFF7FEFF 		bl	chMtxUnlock
 1842              		.loc 1 293 0
 1843 001e 4320     		movs	r0, #67
 1844 0020 FFF7FEFF 		bl	test_emit_token
 1845              		.loc 1 295 0
 1846 0024 0020     		movs	r0, #0
 1847 0026 08BD     		pop	{r3, pc}
 1848              		.cfi_endproc
 1849              	.LFE18:
 1850              		.size	thread3M, .-thread3M
 1851 0028 AFF30080 		.section	.text.thread3L,"ax",%progbits
 1851      AFF30080 
 1852              		.align	2
 1853              		.p2align 4,,15
 1854              		.thumb
 1855              		.thumb_func
 1856              		.type	thread3L, %function
 1857              	thread3L:
 1858              	.LFB17:
 1859              		.loc 1 270 0
 1860              		.cfi_startproc
 1861              		@ args = 0, pretend = 0, frame = 0
 1862              		@ frame_needed = 0, uses_anonymous_args = 0
 1863              	.LVL60:
 1864 0000 08B5     		push	{r3, lr}
 1865              	.LCFI29:
ARM GAS  C:\Users\z80\AppData\Local\Temp\ccuZvOnj.s 			page 34


 1866              		.cfi_def_cfa_offset 8
 1867              		.cfi_offset 14, -4
 1868              		.cfi_offset 3, -8
 1869              		.loc 1 273 0
 1870 0002 0520     		movs	r0, #5
 1871              	.LVL61:
 1872 0004 FFF7FEFF 		bl	chThdSleep
 1873              		.loc 1 274 0
 1874 0008 40F20000 		movw	r0, #:lower16:.LANCHOR1
 1875 000c C0F20000 		movt	r0, #:upper16:.LANCHOR1
 1876 0010 FFF7FEFF 		bl	chMtxLock
 1877              		.loc 1 275 0
 1878 0014 1420     		movs	r0, #20
 1879 0016 FFF7FEFF 		bl	test_cpu_pulse
 1880              		.loc 1 276 0
 1881 001a 40F20000 		movw	r0, #:lower16:.LANCHOR2
 1882 001e C0F20000 		movt	r0, #:upper16:.LANCHOR2
 1883 0022 FFF7FEFF 		bl	chMtxLock
 1884              		.loc 1 277 0
 1885 0026 0A20     		movs	r0, #10
 1886 0028 FFF7FEFF 		bl	test_cpu_pulse
 1887              		.loc 1 278 0
 1888 002c FFF7FEFF 		bl	chMtxUnlock
 1889              		.loc 1 279 0
 1890 0030 0A20     		movs	r0, #10
 1891 0032 FFF7FEFF 		bl	test_cpu_pulse
 1892              		.loc 1 280 0
 1893 0036 FFF7FEFF 		bl	chMtxUnlock
 1894              		.loc 1 281 0
 1895 003a 4420     		movs	r0, #68
 1896 003c FFF7FEFF 		bl	test_emit_token
 1897              		.loc 1 283 0
 1898 0040 0020     		movs	r0, #0
 1899 0042 08BD     		pop	{r3, pc}
 1900              		.cfi_endproc
 1901              	.LFE17:
 1902              		.size	thread3L, .-thread3L
 1903 0044 AFF30080 		.section	.text.thread3LL,"ax",%progbits
 1903      AFF30080 
 1903      AFF30080 
 1904              		.align	2
 1905              		.p2align 4,,15
 1906              		.thumb
 1907              		.thumb_func
 1908              		.type	thread3LL, %function
 1909              	thread3LL:
 1910              	.LFB16:
 1911              		.loc 1 259 0
 1912              		.cfi_startproc
 1913              		@ args = 0, pretend = 0, frame = 0
 1914              		@ frame_needed = 0, uses_anonymous_args = 0
 1915              	.LVL62:
 1916              		.loc 1 262 0
 1917 0000 40F20000 		movw	r0, #:lower16:.LANCHOR2
 1918              	.LVL63:
 1919              		.loc 1 259 0
 1920 0004 08B5     		push	{r3, lr}
ARM GAS  C:\Users\z80\AppData\Local\Temp\ccuZvOnj.s 			page 35


 1921              	.LCFI30:
 1922              		.cfi_def_cfa_offset 8
 1923              		.cfi_offset 14, -4
 1924              		.cfi_offset 3, -8
 1925              		.loc 1 262 0
 1926 0006 C0F20000 		movt	r0, #:upper16:.LANCHOR2
 1927 000a FFF7FEFF 		bl	chMtxLock
 1928              		.loc 1 263 0
 1929 000e 1E20     		movs	r0, #30
 1930 0010 FFF7FEFF 		bl	test_cpu_pulse
 1931              		.loc 1 264 0
 1932 0014 FFF7FEFF 		bl	chMtxUnlock
 1933              		.loc 1 265 0
 1934 0018 4520     		movs	r0, #69
 1935 001a FFF7FEFF 		bl	test_emit_token
 1936              		.loc 1 267 0
 1937 001e 0020     		movs	r0, #0
 1938 0020 08BD     		pop	{r3, pc}
 1939              		.cfi_endproc
 1940              	.LFE16:
 1941              		.size	thread3LL, .-thread3LL
 1942 0022 00BFAFF3 		.section	.text.thread2L,"ax",%progbits
 1942      0080AFF3 
 1942      0080AFF3 
 1942      0080
 1943              		.align	2
 1944              		.p2align 4,,15
 1945              		.thumb
 1946              		.thumb_func
 1947              		.type	thread2L, %function
 1948              	thread2L:
 1949              	.LFB11:
 1950              		.loc 1 168 0
 1951              		.cfi_startproc
 1952              		@ args = 0, pretend = 0, frame = 0
 1953              		@ frame_needed = 0, uses_anonymous_args = 0
 1954              	.LVL64:
 1955              		.loc 1 171 0
 1956 0000 40F20000 		movw	r0, #:lower16:.LANCHOR2
 1957              	.LVL65:
 1958              		.loc 1 168 0
 1959 0004 08B5     		push	{r3, lr}
 1960              	.LCFI31:
 1961              		.cfi_def_cfa_offset 8
 1962              		.cfi_offset 14, -4
 1963              		.cfi_offset 3, -8
 1964              		.loc 1 171 0
 1965 0006 C0F20000 		movt	r0, #:upper16:.LANCHOR2
 1966 000a FFF7FEFF 		bl	chMtxLock
 1967              		.loc 1 172 0
 1968 000e 2820     		movs	r0, #40
 1969 0010 FFF7FEFF 		bl	test_cpu_pulse
 1970              		.loc 1 173 0
 1971 0014 FFF7FEFF 		bl	chMtxUnlock
 1972              		.loc 1 174 0
 1973 0018 0A20     		movs	r0, #10
 1974 001a FFF7FEFF 		bl	test_cpu_pulse
ARM GAS  C:\Users\z80\AppData\Local\Temp\ccuZvOnj.s 			page 36


 1975              		.loc 1 175 0
 1976 001e 4320     		movs	r0, #67
 1977 0020 FFF7FEFF 		bl	test_emit_token
 1978              		.loc 1 177 0
 1979 0024 0020     		movs	r0, #0
 1980 0026 08BD     		pop	{r3, pc}
 1981              		.cfi_endproc
 1982              	.LFE11:
 1983              		.size	thread2L, .-thread2L
 1984 0028 AFF30080 		.section	.text.thread2M,"ax",%progbits
 1984      AFF30080 
 1985              		.align	2
 1986              		.p2align 4,,15
 1987              		.thumb
 1988              		.thumb_func
 1989              		.type	thread2M, %function
 1990              	thread2M:
 1991              	.LFB12:
 1992              		.loc 1 180 0
 1993              		.cfi_startproc
 1994              		@ args = 0, pretend = 0, frame = 0
 1995              		@ frame_needed = 0, uses_anonymous_args = 0
 1996              	.LVL66:
 1997 0000 08B5     		push	{r3, lr}
 1998              	.LCFI32:
 1999              		.cfi_def_cfa_offset 8
 2000              		.cfi_offset 14, -4
 2001              		.cfi_offset 3, -8
 2002              		.loc 1 183 0
 2003 0002 0A20     		movs	r0, #10
 2004              	.LVL67:
 2005 0004 FFF7FEFF 		bl	chThdSleep
 2006              		.loc 1 184 0
 2007 0008 2820     		movs	r0, #40
 2008 000a FFF7FEFF 		bl	test_cpu_pulse
 2009              		.loc 1 185 0
 2010 000e 4220     		movs	r0, #66
 2011 0010 FFF7FEFF 		bl	test_emit_token
 2012              		.loc 1 187 0
 2013 0014 0020     		movs	r0, #0
 2014 0016 08BD     		pop	{r3, pc}
 2015              		.cfi_endproc
 2016              	.LFE12:
 2017              		.size	thread2M, .-thread2M
 2018 0018 AFF30080 		.section	.text.thread2H,"ax",%progbits
 2018      AFF30080 
 2019              		.align	2
 2020              		.p2align 4,,15
 2021              		.thumb
 2022              		.thumb_func
 2023              		.type	thread2H, %function
 2024              	thread2H:
 2025              	.LFB13:
 2026              		.loc 1 190 0
 2027              		.cfi_startproc
 2028              		@ args = 0, pretend = 0, frame = 0
 2029              		@ frame_needed = 0, uses_anonymous_args = 0
ARM GAS  C:\Users\z80\AppData\Local\Temp\ccuZvOnj.s 			page 37


 2030              	.LVL68:
 2031 0000 08B5     		push	{r3, lr}
 2032              	.LCFI33:
 2033              		.cfi_def_cfa_offset 8
 2034              		.cfi_offset 14, -4
 2035              		.cfi_offset 3, -8
 2036              		.loc 1 193 0
 2037 0002 1420     		movs	r0, #20
 2038              	.LVL69:
 2039 0004 FFF7FEFF 		bl	chThdSleep
 2040              		.loc 1 194 0
 2041 0008 40F20000 		movw	r0, #:lower16:.LANCHOR2
 2042 000c C0F20000 		movt	r0, #:upper16:.LANCHOR2
 2043 0010 FFF7FEFF 		bl	chMtxLock
 2044              		.loc 1 195 0
 2045 0014 0A20     		movs	r0, #10
 2046 0016 FFF7FEFF 		bl	test_cpu_pulse
 2047              		.loc 1 196 0
 2048 001a FFF7FEFF 		bl	chMtxUnlock
 2049              		.loc 1 197 0
 2050 001e 4120     		movs	r0, #65
 2051 0020 FFF7FEFF 		bl	test_emit_token
 2052              		.loc 1 199 0
 2053 0024 0020     		movs	r0, #0
 2054 0026 08BD     		pop	{r3, pc}
 2055              		.cfi_endproc
 2056              	.LFE13:
 2057              		.size	thread2H, .-thread2H
 2058              		.global	patternmtx
 2059              		.global	testmtx8
 2060              		.global	testmtx7
 2061              		.global	testmtx6
 2062              		.global	testmtx5
 2063              		.global	testmtx4
 2064              		.global	testmtx3
 2065              		.global	testmtx2
 2066              		.global	testmtx1
 2067 0028 AFF30080 		.section	.rodata.testmtx5,"a",%progbits
 2067      AFF30080 
 2068              		.align	2
 2069              		.type	testmtx5, %object
 2070              		.size	testmtx5, 16
 2071              	testmtx5:
 2072 0000 64000000 		.word	.LC10
 2073 0004 00000000 		.word	mtx5_setup
 2074 0008 00000000 		.word	0
 2075 000c 00000000 		.word	mtx5_execute
 2076              		.section	.rodata.testmtx6,"a",%progbits
 2077              		.align	2
 2078              		.type	testmtx6, %object
 2079              		.size	testmtx6, 16
 2080              	testmtx6:
 2081 0000 4C000000 		.word	.LC9
 2082 0004 00000000 		.word	mtx6_setup
 2083 0008 00000000 		.word	0
 2084 000c 00000000 		.word	mtx6_execute
 2085              		.section	.rodata.testmtx7,"a",%progbits
ARM GAS  C:\Users\z80\AppData\Local\Temp\ccuZvOnj.s 			page 38


 2086              		.align	2
 2087              		.type	testmtx7, %object
 2088              		.size	testmtx7, 16
 2089              	testmtx7:
 2090 0000 34000000 		.word	.LC8
 2091 0004 00000000 		.word	mtx7_setup
 2092 0008 00000000 		.word	0
 2093 000c 00000000 		.word	mtx7_execute
 2094              		.section	.rodata.testmtx8,"a",%progbits
 2095              		.align	2
 2096              		.type	testmtx8, %object
 2097              		.size	testmtx8, 16
 2098              	testmtx8:
 2099 0000 20000000 		.word	.LC7
 2100 0004 00000000 		.word	mtx8_setup
 2101 0008 00000000 		.word	0
 2102 000c 00000000 		.word	mtx8_execute
 2103              		.section	.data.m1,"aw",%progbits
 2104              		.align	2
 2105              		.set	.LANCHOR2,. + 0
 2106              		.type	m1, %object
 2107              		.size	m1, 16
 2108              	m1:
 2109 0000 00000000 		.word	m1
 2110 0004 00000000 		.word	m1
 2111 0008 00000000 		.word	0
 2112 000c 00000000 		.word	0
 2113              		.section	.data.m2,"aw",%progbits
 2114              		.align	2
 2115              		.set	.LANCHOR1,. + 0
 2116              		.type	m2, %object
 2117              		.size	m2, 16
 2118              	m2:
 2119 0000 00000000 		.word	m2
 2120 0004 00000000 		.word	m2
 2121 0008 00000000 		.word	0
 2122 000c 00000000 		.word	0
 2123              		.section	.rodata.str1.4,"aMS",%progbits,1
 2124              		.align	2
 2125              	.LC0:
 2126 0000 4100     		.ascii	"A\000"
 2127 0002 0000     		.space	2
 2128              	.LC1:
 2129 0004 4300     		.ascii	"C\000"
 2130 0006 0000     		.space	2
 2131              	.LC2:
 2132 0008 4200     		.ascii	"B\000"
 2133 000a 0000     		.space	2
 2134              	.LC3:
 2135 000c 41424300 		.ascii	"ABC\000"
 2136              	.LC4:
 2137 0010 4500     		.ascii	"E\000"
 2138 0012 0000     		.space	2
 2139              	.LC5:
 2140 0014 4400     		.ascii	"D\000"
 2141 0016 0000     		.space	2
 2142              	.LC6:
ARM GAS  C:\Users\z80\AppData\Local\Temp\ccuZvOnj.s 			page 39


 2143 0018 41424344 		.ascii	"ABCDE\000"
 2143      4500
 2144 001e 0000     		.space	2
 2145              	.LC7:
 2146 0020 436F6E64 		.ascii	"CondVar, boost test\000"
 2146      5661722C 
 2146      20626F6F 
 2146      73742074 
 2146      65737400 
 2147              	.LC8:
 2148 0034 436F6E64 		.ascii	"CondVar, broadcast test\000"
 2148      5661722C 
 2148      2062726F 
 2148      61646361 
 2148      73742074 
 2149              	.LC9:
 2150 004c 436F6E64 		.ascii	"CondVar, signal test\000"
 2150      5661722C 
 2150      20736967 
 2150      6E616C20 
 2150      74657374 
 2151 0061 000000   		.space	3
 2152              	.LC10:
 2153 0064 4D757465 		.ascii	"Mutexes, status\000"
 2153      7865732C 
 2153      20737461 
 2153      74757300 
 2154              	.LC11:
 2155 0074 4D757465 		.ascii	"Mutexes, priority return\000"
 2155      7865732C 
 2155      20707269 
 2155      6F726974 
 2155      79207265 
 2156 008d 000000   		.space	3
 2157              	.LC12:
 2158 0090 4D757465 		.ascii	"Mutexes, priority inheritance, complex case\000"
 2158      7865732C 
 2158      20707269 
 2158      6F726974 
 2158      7920696E 
 2159              	.LC13:
 2160 00bc 4D757465 		.ascii	"Mutexes, priority inheritance, simple case\000"
 2160      7865732C 
 2160      20707269 
 2160      6F726974 
 2160      7920696E 
 2161 00e7 00       		.space	1
 2162              	.LC14:
 2163 00e8 4D757465 		.ascii	"Mutexes, priority enqueuing test\000"
 2163      7865732C 
 2163      20707269 
 2163      6F726974 
 2163      7920656E 
 2164 0109 000000   		.section	.rodata.patternmtx,"a",%progbits
 2165              		.align	2
 2166              		.type	patternmtx, %object
 2167              		.size	patternmtx, 36
ARM GAS  C:\Users\z80\AppData\Local\Temp\ccuZvOnj.s 			page 40


 2168              	patternmtx:
 2169 0000 00000000 		.word	testmtx1
 2170 0004 00000000 		.word	testmtx2
 2171 0008 00000000 		.word	testmtx3
 2172 000c 00000000 		.word	testmtx4
 2173 0010 00000000 		.word	testmtx5
 2174 0014 00000000 		.word	testmtx6
 2175 0018 00000000 		.word	testmtx7
 2176 001c 00000000 		.word	testmtx8
 2177 0020 00000000 		.word	0
 2178              		.section	.data.c1,"aw",%progbits
 2179              		.align	2
 2180              		.set	.LANCHOR0,. + 0
 2181              		.type	c1, %object
 2182              		.size	c1, 8
 2183              	c1:
 2184 0000 00000000 		.word	c1
 2185 0004 00000000 		.word	c1
 2186              		.section	.rodata.testmtx1,"a",%progbits
 2187              		.align	2
 2188              		.type	testmtx1, %object
 2189              		.size	testmtx1, 16
 2190              	testmtx1:
 2191 0000 E8000000 		.word	.LC14
 2192 0004 00000000 		.word	mtx1_setup
 2193 0008 00000000 		.word	0
 2194 000c 00000000 		.word	mtx1_execute
 2195              		.section	.rodata.testmtx2,"a",%progbits
 2196              		.align	2
 2197              		.type	testmtx2, %object
 2198              		.size	testmtx2, 16
 2199              	testmtx2:
 2200 0000 BC000000 		.word	.LC13
 2201 0004 00000000 		.word	mtx2_setup
 2202 0008 00000000 		.word	0
 2203 000c 00000000 		.word	mtx2_execute
 2204              		.section	.rodata.testmtx3,"a",%progbits
 2205              		.align	2
 2206              		.type	testmtx3, %object
 2207              		.size	testmtx3, 16
 2208              	testmtx3:
 2209 0000 90000000 		.word	.LC12
 2210 0004 00000000 		.word	mtx3_setup
 2211 0008 00000000 		.word	0
 2212 000c 00000000 		.word	mtx3_execute
 2213              		.section	.rodata.testmtx4,"a",%progbits
 2214              		.align	2
 2215              		.type	testmtx4, %object
 2216              		.size	testmtx4, 16
 2217              	testmtx4:
 2218 0000 74000000 		.word	.LC11
 2219 0004 00000000 		.word	mtx4_setup
 2220 0008 00000000 		.word	0
 2221 000c 00000000 		.word	mtx4_execute
 2222              		.text
 2223              	.Letext0:
 2224              		.file 2 "c:\\programs\\codesourcery\\2011.03-56\\bin\\../lib/gcc/arm-none-eabi/4.6.3/../../../../a
ARM GAS  C:\Users\z80\AppData\Local\Temp\ccuZvOnj.s 			page 41


 2225              		.file 3 "../chibios_2.4.x/os/ports/GCC/ARMCMx/chtypes.h"
 2226              		.file 4 "../chibios_2.4.x/os/kernel/include/chlists.h"
 2227              		.file 5 "../chibios_2.4.x/os/kernel/include/chthreads.h"
 2228              		.file 6 "../chibios_2.4.x/os/ports/GCC/ARMCMx/chcore_v7m.h"
 2229              		.file 7 "../chibios_2.4.x/os/kernel/include/chvt.h"
 2230              		.file 8 "../chibios_2.4.x/os/kernel/include/chschd.h"
 2231              		.file 9 "../chibios_2.4.x/os/kernel/include/chmtx.h"
 2232              		.file 10 "../chibios_2.4.x/os/kernel/include/chcond.h"
 2233              		.file 11 "../chibios_2.4.x/test/test.h"