ARM GAS  C:\Users\z80\AppData\Local\Temp\cc5UgZt9.s 			page 1


   1              		.syntax unified
   2              		.cpu cortex-m3
   3              		.fpu softvfp
   4              		.eabi_attribute 20, 1
   5              		.eabi_attribute 21, 1
   6              		.eabi_attribute 23, 3
   7              		.eabi_attribute 24, 1
   8              		.eabi_attribute 25, 1
   9              		.eabi_attribute 26, 1
  10              		.eabi_attribute 30, 2
  11              		.eabi_attribute 34, 1
  12              		.eabi_attribute 18, 4
  13              		.thumb
  14              		.file	"testevt.c"
  15              		.text
  16              	.Ltext0:
  17              		.cfi_sections	.debug_frame
  18              		.section	.text.evt3_setup,"ax",%progbits
  19              		.align	2
  20              		.p2align 4,,15
  21              		.thumb
  22              		.thumb_func
  23              		.type	evt3_setup, %function
  24              	evt3_setup:
  25              	.LFB16:
  26              		.file 1 "../chibios_2.4.x/test/testevt.c"
  27              		.loc 1 258 0
  28              		.cfi_startproc
  29              		@ args = 0, pretend = 0, frame = 0
  30              		@ frame_needed = 0, uses_anonymous_args = 0
  31              		@ link register save eliminated.
  32              		.loc 1 260 0
  33 0000 4FF0FF30 		mov	r0, #-1
  34              		.loc 1 261 0
  35              		.loc 1 260 0
  36 0004 FFF7FEBF 		b	chEvtClearFlags
  37              		.cfi_endproc
  38              	.LFE16:
  39              		.size	evt3_setup, .-evt3_setup
  40 0008 AFF30080 		.section	.text.evt2_setup,"ax",%progbits
  40      AFF30080 
  41              		.align	2
  42              		.p2align 4,,15
  43              		.thumb
  44              		.thumb_func
  45              		.type	evt2_setup, %function
  46              	evt2_setup:
  47              	.LFB12:
  48              		.loc 1 139 0
  49              		.cfi_startproc
  50              		@ args = 0, pretend = 0, frame = 0
  51              		@ frame_needed = 0, uses_anonymous_args = 0
  52              		@ link register save eliminated.
  53              		.loc 1 141 0
  54 0000 4FF0FF30 		mov	r0, #-1
  55              		.loc 1 142 0
  56              		.loc 1 141 0
ARM GAS  C:\Users\z80\AppData\Local\Temp\cc5UgZt9.s 			page 2


  57 0004 FFF7FEBF 		b	chEvtClearFlags
  58              		.cfi_endproc
  59              	.LFE12:
  60              		.size	evt2_setup, .-evt2_setup
  61 0008 AFF30080 		.section	.text.evt1_setup,"ax",%progbits
  61      AFF30080 
  62              		.align	2
  63              		.p2align 4,,15
  64              		.thumb
  65              		.thumb_func
  66              		.type	evt1_setup, %function
  67              	evt1_setup:
  68              	.LFB7:
  69              		.loc 1 86 0
  70              		.cfi_startproc
  71              		@ args = 0, pretend = 0, frame = 0
  72              		@ frame_needed = 0, uses_anonymous_args = 0
  73              		@ link register save eliminated.
  74              		.loc 1 88 0
  75 0000 4FF0FF30 		mov	r0, #-1
  76              		.loc 1 89 0
  77              		.loc 1 88 0
  78 0004 FFF7FEBF 		b	chEvtClearFlags
  79              		.cfi_endproc
  80              	.LFE7:
  81              		.size	evt1_setup, .-evt1_setup
  82 0008 AFF30080 		.section	.text.thread2,"ax",%progbits
  82      AFF30080 
  83              		.align	2
  84              		.p2align 4,,15
  85              		.thumb
  86              		.thumb_func
  87              		.type	thread2, %function
  88              	thread2:
  89              	.LFB14:
  90              		.loc 1 151 0
  91              		.cfi_startproc
  92              		@ args = 0, pretend = 0, frame = 0
  93              		@ frame_needed = 0, uses_anonymous_args = 0
  94              	.LVL0:
  95              		.loc 1 154 0
  96 0000 40F20000 		movw	r0, #:lower16:.LANCHOR0
  97              	.LVL1:
  98              		.loc 1 151 0
  99 0004 08B5     		push	{r3, lr}
 100              	.LCFI0:
 101              		.cfi_def_cfa_offset 8
 102              		.cfi_offset 14, -4
 103              		.cfi_offset 3, -8
 104              		.loc 1 154 0
 105 0006 0021     		movs	r1, #0
 106 0008 C0F20000 		movt	r0, #:upper16:.LANCHOR0
 107 000c FFF7FEFF 		bl	chEvtBroadcastFlags
 108              		.loc 1 155 0
 109 0010 1920     		movs	r0, #25
 110 0012 FFF7FEFF 		bl	chThdSleep
 111              		.loc 1 156 0
ARM GAS  C:\Users\z80\AppData\Local\Temp\cc5UgZt9.s 			page 3


 112 0016 40F20000 		movw	r0, #:lower16:.LANCHOR1
 113 001a C0F20000 		movt	r0, #:upper16:.LANCHOR1
 114 001e 0021     		movs	r1, #0
 115 0020 FFF7FEFF 		bl	chEvtBroadcastFlags
 116              		.loc 1 158 0
 117 0024 0020     		movs	r0, #0
 118 0026 08BD     		pop	{r3, pc}
 119              		.cfi_endproc
 120              	.LFE14:
 121              		.size	thread2, .-thread2
 122 0028 AFF30080 		.section	.text.thread1,"ax",%progbits
 122      AFF30080 
 123              		.align	2
 124              		.p2align 4,,15
 125              		.thumb
 126              		.thumb_func
 127              		.type	thread1, %function
 128              	thread1:
 129              	.LFB13:
 130              		.loc 1 144 0
 131              		.cfi_startproc
 132              		@ args = 0, pretend = 0, frame = 0
 133              		@ frame_needed = 0, uses_anonymous_args = 0
 134              	.LVL2:
 135 0000 10B5     		push	{r4, lr}
 136              	.LCFI1:
 137              		.cfi_def_cfa_offset 8
 138              		.cfi_offset 14, -4
 139              		.cfi_offset 4, -8
 140              		.loc 1 144 0
 141 0002 0446     		mov	r4, r0
 142              		.loc 1 146 0
 143 0004 1920     		movs	r0, #25
 144              	.LVL3:
 145 0006 FFF7FEFF 		bl	chThdSleep
 146              		.loc 1 147 0
 147 000a 2046     		mov	r0, r4
 148 000c 0121     		movs	r1, #1
 149 000e FFF7FEFF 		bl	chEvtSignalFlags
 150              		.loc 1 149 0
 151 0012 0020     		movs	r0, #0
 152 0014 10BD     		pop	{r4, pc}
 153              		.cfi_endproc
 154              	.LFE13:
 155              		.size	thread1, .-thread1
 156 0016 00BFAFF3 		.section	.text.evt1_execute,"ax",%progbits
 156      0080AFF3 
 156      0080
 157              		.align	2
 158              		.p2align 4,,15
 159              		.thumb
 160              		.thumb_func
 161              		.type	evt1_execute, %function
 162              	evt1_execute:
 163              	.LFB11:
 164              		.loc 1 96 0
 165              		.cfi_startproc
ARM GAS  C:\Users\z80\AppData\Local\Temp\cc5UgZt9.s 			page 4


 166              		@ args = 0, pretend = 0, frame = 24
 167              		@ frame_needed = 0, uses_anonymous_args = 0
 168 0000 10B5     		push	{r4, lr}
 169              	.LCFI2:
 170              		.cfi_def_cfa_offset 8
 171              		.cfi_offset 14, -4
 172              		.cfi_offset 4, -8
 173              		.loc 1 102 0
 174 0002 40F20004 		movw	r4, #:lower16:.LANCHOR0
 175              		.loc 1 96 0
 176 0006 86B0     		sub	sp, sp, #24
 177              	.LCFI3:
 178              		.cfi_def_cfa_offset 32
 179              		.loc 1 102 0
 180 0008 C0F20004 		movt	r4, #:upper16:.LANCHOR0
 181              		.loc 1 103 0
 182 000c 0122     		movs	r2, #1
 183 000e 2046     		mov	r0, r4
 184 0010 6946     		mov	r1, sp
 185              		.loc 1 102 0
 186 0012 2460     		str	r4, [r4, #0]
 187              		.loc 1 103 0
 188 0014 FFF7FEFF 		bl	chEvtRegisterMask
 189              		.loc 1 104 0
 190 0018 2046     		mov	r0, r4
 191 001a 03A9     		add	r1, sp, #12
 192 001c 0222     		movs	r2, #2
 193 001e FFF7FEFF 		bl	chEvtRegisterMask
 194              		.loc 1 105 0
 195 0022 2168     		ldr	r1, [r4, #0]
 196 0024 0120     		movs	r0, #1
 197 0026 091B     		subs	r1, r1, r4
 198 0028 18BF     		it	ne
 199 002a 0121     		movne	r1, #1
 200 002c FFF7FEFF 		bl	_test_assert
 201 0030 08B1     		cbz	r0, .L9
 202              	.L6:
 203              		.loc 1 116 0
 204 0032 06B0     		add	sp, sp, #24
 205 0034 10BD     		pop	{r4, pc}
 206              	.L9:
 207              		.loc 1 106 0
 208 0036 2046     		mov	r0, r4
 209 0038 6946     		mov	r1, sp
 210 003a FFF7FEFF 		bl	chEvtUnregister
 211              		.loc 1 107 0
 212 003e 2268     		ldr	r2, [r4, #0]
 213 0040 0220     		movs	r0, #2
 214 0042 111B     		subs	r1, r2, r4
 215 0044 18BF     		it	ne
 216 0046 0121     		movne	r1, #1
 217 0048 FFF7FEFF 		bl	_test_assert
 218 004c 0028     		cmp	r0, #0
 219 004e F0D1     		bne	.L6
 220              		.loc 1 108 0
 221 0050 2046     		mov	r0, r4
 222 0052 03A9     		add	r1, sp, #12
ARM GAS  C:\Users\z80\AppData\Local\Temp\cc5UgZt9.s 			page 5


 223 0054 FFF7FEFF 		bl	chEvtUnregister
 224              		.loc 1 109 0
 225 0058 2168     		ldr	r1, [r4, #0]
 226 005a 0320     		movs	r0, #3
 227 005c 0B1B     		subs	r3, r1, r4
 228 005e D3F1000C 		rsbs	ip, r3, #0
 229 0062 4CEB0301 		adc	r1, ip, r3
 230 0066 FFF7FEFF 		bl	_test_assert
 231 006a 0028     		cmp	r0, #0
 232 006c E1D1     		bne	.L6
 233              		.loc 1 114 0
 234 006e 40F20000 		movw	r0, #:lower16:.LANCHOR2
 235 0072 0721     		movs	r1, #7
 236 0074 C0F20000 		movt	r0, #:upper16:.LANCHOR2
 237 0078 FFF7FEFF 		bl	chEvtDispatch
 238              		.loc 1 115 0
 239 007c 40F20001 		movw	r1, #:lower16:.LC0
 240 0080 0420     		movs	r0, #4
 241 0082 C0F20001 		movt	r1, #:upper16:.LC0
 242 0086 FFF7FEFF 		bl	_test_assert_sequence
 243 008a D2E7     		b	.L6
 244              		.cfi_endproc
 245              	.LFE11:
 246              		.size	evt1_execute, .-evt1_execute
 247 008c AFF30080 		.section	.text.h3,"ax",%progbits
 248              		.align	2
 249              		.p2align 4,,15
 250              		.thumb
 251              		.thumb_func
 252              		.type	h3, %function
 253              	h3:
 254              	.LFB10:
 255              		.loc 1 93 0
 256              		.cfi_startproc
 257              		@ args = 0, pretend = 0, frame = 0
 258              		@ frame_needed = 0, uses_anonymous_args = 0
 259              		@ link register save eliminated.
 260              	.LVL4:
 261              		.loc 1 93 0
 262 0000 4320     		movs	r0, #67
 263              	.LVL5:
 264 0002 FFF7FEBF 		b	test_emit_token
 265              		.cfi_endproc
 266              	.LFE10:
 267              		.size	h3, .-h3
 268 0006 00BFAFF3 		.section	.text.h2,"ax",%progbits
 268      0080AFF3 
 268      0080
 269              		.align	2
 270              		.p2align 4,,15
 271              		.thumb
 272              		.thumb_func
 273              		.type	h2, %function
 274              	h2:
 275              	.LFB9:
 276              		.loc 1 92 0
 277              		.cfi_startproc
ARM GAS  C:\Users\z80\AppData\Local\Temp\cc5UgZt9.s 			page 6


 278              		@ args = 0, pretend = 0, frame = 0
 279              		@ frame_needed = 0, uses_anonymous_args = 0
 280              		@ link register save eliminated.
 281              	.LVL6:
 282              		.loc 1 92 0
 283 0000 4220     		movs	r0, #66
 284              	.LVL7:
 285 0002 FFF7FEBF 		b	test_emit_token
 286              		.cfi_endproc
 287              	.LFE9:
 288              		.size	h2, .-h2
 289 0006 00BFAFF3 		.section	.text.h1,"ax",%progbits
 289      0080AFF3 
 289      0080
 290              		.align	2
 291              		.p2align 4,,15
 292              		.thumb
 293              		.thumb_func
 294              		.type	h1, %function
 295              	h1:
 296              	.LFB8:
 297              		.loc 1 91 0
 298              		.cfi_startproc
 299              		@ args = 0, pretend = 0, frame = 0
 300              		@ frame_needed = 0, uses_anonymous_args = 0
 301              		@ link register save eliminated.
 302              	.LVL8:
 303              		.loc 1 91 0
 304 0000 4120     		movs	r0, #65
 305              	.LVL9:
 306 0002 FFF7FEBF 		b	test_emit_token
 307              		.cfi_endproc
 308              	.LFE8:
 309              		.size	h1, .-h1
 310 0006 00BFAFF3 		.section	.text.evt3_execute,"ax",%progbits
 310      0080AFF3 
 310      0080
 311              		.align	2
 312              		.p2align 4,,15
 313              		.thumb
 314              		.thumb_func
 315              		.type	evt3_execute, %function
 316              	evt3_execute:
 317              	.LFB17:
 318              		.loc 1 263 0
 319              		.cfi_startproc
 320              		@ args = 0, pretend = 0, frame = 0
 321              		@ frame_needed = 0, uses_anonymous_args = 0
 322 0000 08B5     		push	{r3, lr}
 323              	.LCFI4:
 324              		.cfi_def_cfa_offset 8
 325              		.cfi_offset 14, -4
 326              		.cfi_offset 3, -8
 327              		.loc 1 269 0
 328 0002 0021     		movs	r1, #0
 329 0004 4FF0FF30 		mov	r0, #-1
 330 0008 FFF7FEFF 		bl	chEvtWaitOneTimeout
ARM GAS  C:\Users\z80\AppData\Local\Temp\cc5UgZt9.s 			page 7


 331              	.LVL10:
 332              		.loc 1 270 0
 333 000c D0F10101 		rsbs	r1, r0, #1
 334 0010 38BF     		it	cc
 335 0012 0021     		movcc	r1, #0
 336 0014 0120     		movs	r0, #1
 337              	.LVL11:
 338 0016 FFF7FEFF 		bl	_test_assert
 339 001a 00B1     		cbz	r0, .L15
 340              	.L13:
 341 001c 08BD     		pop	{r3, pc}
 342              	.L15:
 343              		.loc 1 271 0
 344 001e 0146     		mov	r1, r0
 345 0020 4FF0FF30 		mov	r0, #-1
 346 0024 FFF7FEFF 		bl	chEvtWaitAnyTimeout
 347              	.LVL12:
 348              		.loc 1 272 0
 349 0028 D0F10101 		rsbs	r1, r0, #1
 350 002c 38BF     		it	cc
 351 002e 0021     		movcc	r1, #0
 352 0030 0220     		movs	r0, #2
 353              	.LVL13:
 354 0032 FFF7FEFF 		bl	_test_assert
 355 0036 0028     		cmp	r0, #0
 356 0038 F0D1     		bne	.L13
 357              		.loc 1 273 0
 358 003a 0146     		mov	r1, r0
 359 003c 4FF0FF30 		mov	r0, #-1
 360 0040 FFF7FEFF 		bl	chEvtWaitAllTimeout
 361              	.LVL14:
 362              		.loc 1 274 0
 363 0044 D0F10101 		rsbs	r1, r0, #1
 364 0048 38BF     		it	cc
 365 004a 0021     		movcc	r1, #0
 366 004c 0320     		movs	r0, #3
 367              	.LVL15:
 368 004e FFF7FEFF 		bl	_test_assert
 369 0052 0028     		cmp	r0, #0
 370 0054 E2D1     		bne	.L13
 371              	.LBB4:
 372              	.LBB5:
 373              		.loc 1 275 0
 374 0056 0A21     		movs	r1, #10
 375 0058 4FF0FF30 		mov	r0, #-1
 376 005c FFF7FEFF 		bl	chEvtWaitOneTimeout
 377              	.LVL16:
 378              		.loc 1 276 0
 379 0060 D0F10101 		rsbs	r1, r0, #1
 380 0064 38BF     		it	cc
 381 0066 0021     		movcc	r1, #0
 382 0068 0420     		movs	r0, #4
 383              	.LVL17:
 384 006a FFF7FEFF 		bl	_test_assert
 385 006e 0028     		cmp	r0, #0
 386 0070 D4D1     		bne	.L13
 387              		.loc 1 277 0
ARM GAS  C:\Users\z80\AppData\Local\Temp\cc5UgZt9.s 			page 8


 388 0072 0A21     		movs	r1, #10
 389 0074 4FF0FF30 		mov	r0, #-1
 390 0078 FFF7FEFF 		bl	chEvtWaitAnyTimeout
 391              	.LVL18:
 392              		.loc 1 278 0
 393 007c D0F10101 		rsbs	r1, r0, #1
 394 0080 38BF     		it	cc
 395 0082 0021     		movcc	r1, #0
 396 0084 0520     		movs	r0, #5
 397              	.LVL19:
 398 0086 FFF7FEFF 		bl	_test_assert
 399 008a 0028     		cmp	r0, #0
 400 008c C6D1     		bne	.L13
 401              		.loc 1 279 0
 402 008e 0A21     		movs	r1, #10
 403 0090 4FF0FF30 		mov	r0, #-1
 404 0094 FFF7FEFF 		bl	chEvtWaitAllTimeout
 405              	.LVL20:
 406              		.loc 1 280 0
 407 0098 D0F10101 		rsbs	r1, r0, #1
 408 009c 38BF     		it	cc
 409 009e 0021     		movcc	r1, #0
 410 00a0 0620     		movs	r0, #6
 411              	.LVL21:
 412              	.LBE5:
 413              	.LBE4:
 414              		.loc 1 281 0
 415 00a2 BDE80840 		pop	{r3, lr}
 416              	.LBB7:
 417              	.LBB6:
 418              		.loc 1 280 0
 419 00a6 FFF7FEBF 		b	_test_assert
 420              	.LBE6:
 421              	.LBE7:
 422              		.cfi_endproc
 423              	.LFE17:
 424              		.size	evt3_execute, .-evt3_execute
 425 00aa 00BFAFF3 		.section	.text.evt2_execute,"ax",%progbits
 425      0080
 426              		.align	2
 427              		.p2align 4,,15
 428              		.thumb
 429              		.thumb_func
 430              		.type	evt2_execute, %function
 431              	evt2_execute:
 432              	.LFB15:
 433              		.loc 1 160 0
 434              		.cfi_startproc
 435              		@ args = 0, pretend = 0, frame = 24
 436              		@ frame_needed = 0, uses_anonymous_args = 0
 437 0000 2DE9F043 		push	{r4, r5, r6, r7, r8, r9, lr}
 438              	.LCFI5:
 439              		.cfi_def_cfa_offset 28
 440              		.cfi_offset 14, -4
 441              		.cfi_offset 9, -8
 442              		.cfi_offset 8, -12
 443              		.cfi_offset 7, -16
ARM GAS  C:\Users\z80\AppData\Local\Temp\cc5UgZt9.s 			page 9


 444              		.cfi_offset 6, -20
 445              		.cfi_offset 5, -24
 446              		.cfi_offset 4, -28
 447              		.loc 1 168 0
 448 0004 0520     		movs	r0, #5
 449              		.loc 1 160 0
 450 0006 89B0     		sub	sp, sp, #36
 451              	.LCFI6:
 452              		.cfi_def_cfa_offset 64
 453              		.loc 1 168 0
 454 0008 FFF7FEFF 		bl	chEvtAddFlags
 455              		.loc 1 169 0
 456 000c 4FF0FF30 		mov	r0, #-1
 457 0010 FFF7FEFF 		bl	chEvtWaitOne
 458              	.LVL22:
 459              		.loc 1 170 0
 460 0014 A0F10100 		sub	r0, r0, #1
 461              	.LVL23:
 462 0018 4142     		rsbs	r1, r0, #0
 463 001a 41EB0001 		adc	r1, r1, r0
 464 001e 0120     		movs	r0, #1
 465              	.LVL24:
 466 0020 FFF7FEFF 		bl	_test_assert
 467 0024 10B1     		cbz	r0, .L18
 468              	.L16:
 469              		.loc 1 233 0
 470 0026 09B0     		add	sp, sp, #36
 471 0028 BDE8F083 		pop	{r4, r5, r6, r7, r8, r9, pc}
 472              	.L18:
 473              		.loc 1 171 0
 474 002c 4FF0FF30 		mov	r0, #-1
 475 0030 FFF7FEFF 		bl	chEvtWaitOne
 476              	.LVL25:
 477              		.loc 1 172 0
 478 0034 A0F10403 		sub	r3, r0, #4
 479 0038 5A42     		rsbs	r2, r3, #0
 480 003a 42EB0301 		adc	r1, r2, r3
 481 003e 0220     		movs	r0, #2
 482              	.LVL26:
 483 0040 FFF7FEFF 		bl	_test_assert
 484              	.LVL27:
 485 0044 0028     		cmp	r0, #0
 486 0046 EED1     		bne	.L16
 487              		.loc 1 173 0
 488 0048 4FF0FF30 		mov	r0, #-1
 489 004c FFF7FEFF 		bl	chEvtClearFlags
 490              	.LVL28:
 491              		.loc 1 174 0
 492 0050 D0F10101 		rsbs	r1, r0, #1
 493 0054 38BF     		it	cc
 494 0056 0021     		movcc	r1, #0
 495 0058 0320     		movs	r0, #3
 496              	.LVL29:
 497 005a FFF7FEFF 		bl	_test_assert
 498 005e 0028     		cmp	r0, #0
 499 0060 E1D1     		bne	.L16
 500              	.LBB10:
ARM GAS  C:\Users\z80\AppData\Local\Temp\cc5UgZt9.s 			page 10


 501              	.LBB11:
 502              		.loc 1 181 0
 503 0062 40F20006 		movw	r6, #:lower16:rlist
 504 0066 C0F20006 		movt	r6, #:upper16:rlist
 505              		.loc 1 179 0
 506 006a FFF7FEFF 		bl	test_wait_tick
 507              		.loc 1 181 0
 508 006e 40F20005 		movw	r5, #:lower16:wa
 509 0072 F469     		ldr	r4, [r6, #28]
 510 0074 C0F20005 		movt	r5, #:upper16:wa
 511 0078 A768     		ldr	r7, [r4, #8]
 512 007a D5F80080 		ldr	r8, [r5, #0]
 513 007e 40F20003 		movw	r3, #:lower16:thread1
 514              		.loc 1 180 0
 515 0082 40F20005 		movw	r5, #:lower16:vtlist
 516              		.loc 1 181 0
 517 0086 7A1E     		subs	r2, r7, #1
 518 0088 4FF49871 		mov	r1, #304
 519 008c C0F20003 		movt	r3, #:upper16:thread1
 520              		.loc 1 180 0
 521 0090 C0F20005 		movt	r5, #:upper16:vtlist
 522              		.loc 1 181 0
 523 0094 4046     		mov	r0, r8
 524              		.loc 1 180 0
 525 0096 EF68     		ldr	r7, [r5, #12]
 526              	.LVL30:
 527              		.loc 1 181 0
 528 0098 0094     		str	r4, [sp, #0]
 529 009a FFF7FEFF 		bl	chThdCreateStatic
 530 009e 40F20004 		movw	r4, #:lower16:threads
 531 00a2 C0F20004 		movt	r4, #:upper16:threads
 532 00a6 2060     		str	r0, [r4, #0]
 533              		.loc 1 183 0
 534 00a8 4FF0FF30 		mov	r0, #-1
 535 00ac FFF7FEFF 		bl	chEvtWaitOne
 536              		.loc 1 184 0
 537 00b0 07F11901 		add	r1, r7, #25
 538              		.loc 1 183 0
 539 00b4 8146     		mov	r9, r0
 540              	.LVL31:
 541              		.loc 1 184 0
 542 00b6 07F11C02 		add	r2, r7, #28
 543 00ba 0420     		movs	r0, #4
 544              	.LVL32:
 545 00bc FFF7FEFF 		bl	_test_assert_time_window
 546 00c0 0028     		cmp	r0, #0
 547 00c2 B0D1     		bne	.L16
 548              		.loc 1 185 0
 549 00c4 A9F10101 		sub	r1, r9, #1
 550 00c8 0520     		movs	r0, #5
 551 00ca D1F1000C 		rsbs	ip, r1, #0
 552 00ce 4CEB0101 		adc	r1, ip, r1
 553 00d2 FFF7FEFF 		bl	_test_assert
 554 00d6 0028     		cmp	r0, #0
 555 00d8 A5D1     		bne	.L16
 556              		.loc 1 186 0
 557 00da 4FF0FF30 		mov	r0, #-1
ARM GAS  C:\Users\z80\AppData\Local\Temp\cc5UgZt9.s 			page 11


 558 00de FFF7FEFF 		bl	chEvtClearFlags
 559              	.LVL33:
 560              		.loc 1 187 0
 561 00e2 D0F10101 		rsbs	r1, r0, #1
 562 00e6 38BF     		it	cc
 563 00e8 0021     		movcc	r1, #0
 564 00ea 0620     		movs	r0, #6
 565              	.LVL34:
 566 00ec FFF7FEFF 		bl	_test_assert
 567 00f0 0028     		cmp	r0, #0
 568 00f2 98D1     		bne	.L16
 569              		.loc 1 188 0
 570 00f4 FFF7FEFF 		bl	test_wait_threads
 571              		.loc 1 193 0
 572 00f8 0520     		movs	r0, #5
 573 00fa FFF7FEFF 		bl	chEvtAddFlags
 574              		.loc 1 194 0
 575 00fe 4FF0FF30 		mov	r0, #-1
 576 0102 FFF7FEFF 		bl	chEvtWaitAny
 577              	.LVL35:
 578              		.loc 1 195 0
 579 0106 A0F10502 		sub	r2, r0, #5
 580 010a 5042     		rsbs	r0, r2, #0
 581              	.LVL36:
 582 010c 40EB0201 		adc	r1, r0, r2
 583 0110 0720     		movs	r0, #7
 584 0112 FFF7FEFF 		bl	_test_assert
 585              	.LVL37:
 586 0116 0028     		cmp	r0, #0
 587 0118 85D1     		bne	.L16
 588              		.loc 1 196 0
 589 011a 4FF0FF30 		mov	r0, #-1
 590 011e FFF7FEFF 		bl	chEvtClearFlags
 591              	.LVL38:
 592              		.loc 1 197 0
 593 0122 D0F10101 		rsbs	r1, r0, #1
 594 0126 38BF     		it	cc
 595 0128 0021     		movcc	r1, #0
 596 012a 0820     		movs	r0, #8
 597              	.LVL39:
 598 012c FFF7FEFF 		bl	_test_assert
 599 0130 0028     		cmp	r0, #0
 600 0132 7FF478AF 		bne	.L16
 601              		.loc 1 202 0
 602 0136 FFF7FEFF 		bl	test_wait_tick
 603              		.loc 1 204 0
 604 013a D6F81CE0 		ldr	lr, [r6, #28]
 605 013e 40F20003 		movw	r3, #:lower16:thread1
 606 0142 DEF80870 		ldr	r7, [lr, #8]
 607              	.LVL40:
 608 0146 4FF49871 		mov	r1, #304
 609 014a 7A1E     		subs	r2, r7, #1
 610 014c C0F20003 		movt	r3, #:upper16:thread1
 611 0150 4046     		mov	r0, r8
 612              		.loc 1 203 0
 613 0152 EF68     		ldr	r7, [r5, #12]
 614              	.LVL41:
ARM GAS  C:\Users\z80\AppData\Local\Temp\cc5UgZt9.s 			page 12


 615              		.loc 1 204 0
 616 0154 CDF800E0 		str	lr, [sp, #0]
 617 0158 FFF7FEFF 		bl	chThdCreateStatic
 618 015c 2060     		str	r0, [r4, #0]
 619              		.loc 1 206 0
 620 015e 4FF0FF30 		mov	r0, #-1
 621 0162 FFF7FEFF 		bl	chEvtWaitAny
 622              		.loc 1 207 0
 623 0166 07F11901 		add	r1, r7, #25
 624              		.loc 1 206 0
 625 016a 8146     		mov	r9, r0
 626              	.LVL42:
 627              		.loc 1 207 0
 628 016c 07F11C02 		add	r2, r7, #28
 629 0170 0920     		movs	r0, #9
 630              	.LVL43:
 631 0172 FFF7FEFF 		bl	_test_assert_time_window
 632 0176 0028     		cmp	r0, #0
 633 0178 7FF455AF 		bne	.L16
 634              		.loc 1 208 0
 635 017c A9F10101 		sub	r1, r9, #1
 636 0180 0A20     		movs	r0, #10
 637 0182 4B42     		rsbs	r3, r1, #0
 638 0184 43EB0101 		adc	r1, r3, r1
 639 0188 FFF7FEFF 		bl	_test_assert
 640 018c 0028     		cmp	r0, #0
 641 018e 7FF44AAF 		bne	.L16
 642              		.loc 1 209 0
 643 0192 4FF0FF30 		mov	r0, #-1
 644 0196 FFF7FEFF 		bl	chEvtClearFlags
 645              	.LVL44:
 646              		.loc 1 210 0
 647 019a D0F10101 		rsbs	r1, r0, #1
 648 019e 38BF     		it	cc
 649 01a0 0021     		movcc	r1, #0
 650 01a2 0B20     		movs	r0, #11
 651              	.LVL45:
 652 01a4 FFF7FEFF 		bl	_test_assert
 653 01a8 0028     		cmp	r0, #0
 654 01aa 7FF43CAF 		bne	.L16
 655              		.loc 1 216 0
 656 01ae 40F20007 		movw	r7, #:lower16:.LANCHOR0
 657              	.LVL46:
 658              		.loc 1 217 0
 659 01b2 40F20009 		movw	r9, #:lower16:.LANCHOR1
 660              		.loc 1 216 0
 661 01b6 C0F20007 		movt	r7, #:upper16:.LANCHOR0
 662              		.loc 1 217 0
 663 01ba C0F20009 		movt	r9, #:upper16:.LANCHOR1
 664              		.loc 1 211 0
 665 01be FFF7FEFF 		bl	test_wait_threads
 666              		.loc 1 218 0
 667 01c2 3846     		mov	r0, r7
 668 01c4 02A9     		add	r1, sp, #8
 669 01c6 0122     		movs	r2, #1
 670              		.loc 1 216 0
 671 01c8 3F60     		str	r7, [r7, #0]
ARM GAS  C:\Users\z80\AppData\Local\Temp\cc5UgZt9.s 			page 13


 672              		.loc 1 217 0
 673 01ca C9F80090 		str	r9, [r9, #0]
 674              		.loc 1 218 0
 675 01ce FFF7FEFF 		bl	chEvtRegisterMask
 676              		.loc 1 219 0
 677 01d2 05A9     		add	r1, sp, #20
 678 01d4 0422     		movs	r2, #4
 679 01d6 4846     		mov	r0, r9
 680 01d8 FFF7FEFF 		bl	chEvtRegisterMask
 681              		.loc 1 220 0
 682 01dc FFF7FEFF 		bl	test_wait_tick
 683              		.loc 1 222 0
 684 01e0 F269     		ldr	r2, [r6, #28]
 685 01e2 40F20003 		movw	r3, #:lower16:thread2
 686 01e6 9068     		ldr	r0, [r2, #8]
 687 01e8 40F20006 		movw	r6, #:lower16:.LC1
 688 01ec 421E     		subs	r2, r0, #1
 689 01ee 4FF49871 		mov	r1, #304
 690 01f2 C0F20003 		movt	r3, #:upper16:thread2
 691 01f6 C0F20006 		movt	r6, #:upper16:.LC1
 692 01fa 4046     		mov	r0, r8
 693              		.loc 1 221 0
 694 01fc ED68     		ldr	r5, [r5, #12]
 695              	.LVL47:
 696              		.loc 1 222 0
 697 01fe 0096     		str	r6, [sp, #0]
 698 0200 FFF7FEFF 		bl	chThdCreateStatic
 699 0204 2060     		str	r0, [r4, #0]
 700              		.loc 1 224 0
 701 0206 0520     		movs	r0, #5
 702 0208 FFF7FEFF 		bl	chEvtWaitAll
 703              		.loc 1 225 0
 704 020c 0C20     		movs	r0, #12
 705 020e 05F11901 		add	r1, r5, #25
 706 0212 05F11C02 		add	r2, r5, #28
 707 0216 FFF7FEFF 		bl	_test_assert_time_window
 708 021a 0028     		cmp	r0, #0
 709 021c 7FF403AF 		bne	.L16
 710              		.loc 1 226 0
 711 0220 4FF0FF30 		mov	r0, #-1
 712 0224 FFF7FEFF 		bl	chEvtClearFlags
 713              	.LVL48:
 714              		.loc 1 227 0
 715 0228 D0F10101 		rsbs	r1, r0, #1
 716 022c 38BF     		it	cc
 717 022e 0021     		movcc	r1, #0
 718 0230 0D20     		movs	r0, #13
 719              	.LVL49:
 720 0232 FFF7FEFF 		bl	_test_assert
 721 0236 0028     		cmp	r0, #0
 722 0238 7FF4F5AE 		bne	.L16
 723              		.loc 1 228 0
 724 023c FFF7FEFF 		bl	test_wait_threads
 725              		.loc 1 229 0
 726 0240 3846     		mov	r0, r7
 727 0242 02A9     		add	r1, sp, #8
 728 0244 FFF7FEFF 		bl	chEvtUnregister
ARM GAS  C:\Users\z80\AppData\Local\Temp\cc5UgZt9.s 			page 14


 729              		.loc 1 230 0
 730 0248 4846     		mov	r0, r9
 731 024a 05A9     		add	r1, sp, #20
 732 024c FFF7FEFF 		bl	chEvtUnregister
 733              		.loc 1 231 0
 734 0250 3A68     		ldr	r2, [r7, #0]
 735 0252 0E20     		movs	r0, #14
 736 0254 D11B     		subs	r1, r2, r7
 737 0256 4B42     		rsbs	r3, r1, #0
 738 0258 43EB0101 		adc	r1, r3, r1
 739 025c FFF7FEFF 		bl	_test_assert
 740 0260 0028     		cmp	r0, #0
 741 0262 7FF4E0AE 		bne	.L16
 742              		.loc 1 232 0
 743 0266 D9F80020 		ldr	r2, [r9, #0]
 744 026a 0F20     		movs	r0, #15
 745 026c C9EB0201 		rsb	r1, r9, r2
 746 0270 4B42     		rsbs	r3, r1, #0
 747 0272 43EB0101 		adc	r1, r3, r1
 748 0276 FFF7FEFF 		bl	_test_assert
 749 027a D4E6     		b	.L16
 750              	.LBE11:
 751              	.LBE10:
 752              		.cfi_endproc
 753              	.LFE15:
 754              		.size	evt2_execute, .-evt2_execute
 755              		.global	patternevt
 756              		.global	testevt3
 757              		.global	testevt2
 758              		.global	testevt1
 759 027c AFF30080 		.section	.rodata.patternevt,"a",%progbits
 760              		.align	2
 761              		.type	patternevt, %object
 762              		.size	patternevt, 16
 763              	patternevt:
 764 0000 00000000 		.word	testevt1
 765 0004 00000000 		.word	testevt2
 766 0008 00000000 		.word	testevt3
 767 000c 00000000 		.word	0
 768              		.section	.rodata.testevt2,"a",%progbits
 769              		.align	2
 770              		.type	testevt2, %object
 771              		.size	testevt2, 16
 772              	testevt2:
 773 0000 1C000000 		.word	.LC3
 774 0004 00000000 		.word	evt2_setup
 775 0008 00000000 		.word	0
 776 000c 00000000 		.word	evt2_execute
 777              		.section	.rodata.str1.4,"aMS",%progbits,1
 778              		.align	2
 779              	.LC0:
 780 0000 41424300 		.ascii	"ABC\000"
 781              	.LC1:
 782 0004 4100     		.ascii	"A\000"
 783 0006 0000     		.space	2
 784              	.LC2:
 785 0008 4576656E 		.ascii	"Events, timeouts\000"
ARM GAS  C:\Users\z80\AppData\Local\Temp\cc5UgZt9.s 			page 15


 785      74732C20 
 785      74696D65 
 785      6F757473 
 785      00
 786 0019 000000   		.space	3
 787              	.LC3:
 788 001c 4576656E 		.ascii	"Events, wait and broadcast\000"
 788      74732C20 
 788      77616974 
 788      20616E64 
 788      2062726F 
 789 0037 00       		.space	1
 790              	.LC4:
 791 0038 4576656E 		.ascii	"Events, registration and dispatch\000"
 791      74732C20 
 791      72656769 
 791      73747261 
 791      74696F6E 
 792 005a 0000     		.section	.rodata.testevt1,"a",%progbits
 793              		.align	2
 794              		.type	testevt1, %object
 795              		.size	testevt1, 16
 796              	testevt1:
 797 0000 38000000 		.word	.LC4
 798 0004 00000000 		.word	evt1_setup
 799 0008 00000000 		.word	0
 800 000c 00000000 		.word	evt1_execute
 801              		.section	.rodata.evhndl,"a",%progbits
 802              		.align	2
 803              		.set	.LANCHOR2,. + 0
 804              		.type	evhndl, %object
 805              		.size	evhndl, 12
 806              	evhndl:
 807 0000 00000000 		.word	h1
 808 0004 00000000 		.word	h2
 809 0008 00000000 		.word	h3
 810              		.section	.rodata.testevt3,"a",%progbits
 811              		.align	2
 812              		.type	testevt3, %object
 813              		.size	testevt3, 16
 814              	testevt3:
 815 0000 08000000 		.word	.LC2
 816 0004 00000000 		.word	evt3_setup
 817 0008 00000000 		.word	0
 818 000c 00000000 		.word	evt3_execute
 819              		.section	.data.es1,"aw",%progbits
 820              		.align	2
 821              		.set	.LANCHOR0,. + 0
 822              		.type	es1, %object
 823              		.size	es1, 4
 824              	es1:
 825 0000 00000000 		.word	es1
 826              		.section	.data.es2,"aw",%progbits
 827              		.align	2
 828              		.set	.LANCHOR1,. + 0
 829              		.type	es2, %object
 830              		.size	es2, 4
ARM GAS  C:\Users\z80\AppData\Local\Temp\cc5UgZt9.s 			page 16


 831              	es2:
 832 0000 00000000 		.word	es2
 833              		.text
 834              	.Letext0:
 835              		.file 2 "c:\\programs\\codesourcery\\2011.03-56\\bin\\../lib/gcc/arm-none-eabi/4.6.3/../../../../a
 836              		.file 3 "../chibios_2.4.x/os/ports/GCC/ARMCMx/chtypes.h"
 837              		.file 4 "../chibios_2.4.x/os/kernel/include/chlists.h"
 838              		.file 5 "../chibios_2.4.x/os/kernel/include/chthreads.h"
 839              		.file 6 "../chibios_2.4.x/os/ports/GCC/ARMCMx/chcore_v7m.h"
 840              		.file 7 "../chibios_2.4.x/os/kernel/include/chvt.h"
 841              		.file 8 "../chibios_2.4.x/os/kernel/include/chschd.h"
 842              		.file 9 "../chibios_2.4.x/os/kernel/include/chmtx.h"
 843              		.file 10 "../chibios_2.4.x/os/kernel/include/chevents.h"
 844              		.file 11 "../chibios_2.4.x/test/test.h"