ARM GAS  C:\Users\z80\AppData\Local\Temp\cclZliZY.s 			page 1


   1              		.syntax unified
   2              		.cpu cortex-m3
   3              		.fpu softvfp
   4              		.eabi_attribute 20, 1
   5              		.eabi_attribute 21, 1
   6              		.eabi_attribute 23, 3
   7              		.eabi_attribute 24, 1
   8              		.eabi_attribute 25, 1
   9              		.eabi_attribute 26, 1
  10              		.eabi_attribute 30, 2
  11              		.eabi_attribute 34, 1
  12              		.eabi_attribute 18, 4
  13              		.thumb
  14              		.file	"testmbox.c"
  15              		.text
  16              	.Ltext0:
  17              		.cfi_sections	.debug_frame
  18              		.section	.text.mbox1_setup,"ax",%progbits
  19              		.align	2
  20              		.p2align 4,,15
  21              		.thumb
  22              		.thumb_func
  23              		.type	mbox1_setup, %function
  24              	mbox1_setup:
  25              	.LFB7:
  26              		.file 1 "../chibios_2.4.x/test/testmbox.c"
  27              		.loc 1 82 0
  28              		.cfi_startproc
  29              		@ args = 0, pretend = 0, frame = 0
  30              		@ frame_needed = 0, uses_anonymous_args = 0
  31              		@ link register save eliminated.
  32              		.loc 1 84 0
  33 0000 40F20000 		movw	r0, #:lower16:.LANCHOR0
  34 0004 40F20001 		movw	r1, #:lower16:test
  35 0008 C0F20000 		movt	r0, #:upper16:.LANCHOR0
  36 000c C0F20001 		movt	r1, #:upper16:test
  37 0010 0522     		movs	r2, #5
  38              		.loc 1 85 0
  39              		.loc 1 84 0
  40 0012 FFF7FEBF 		b	chMBInit
  41              		.cfi_endproc
  42              	.LFE7:
  43              		.size	mbox1_setup, .-mbox1_setup
  44 0016 00BFAFF3 		.section	.text.mbox1_execute,"ax",%progbits
  44      0080AFF3 
  44      0080
  45              		.align	2
  46              		.p2align 4,,15
  47              		.thumb
  48              		.thumb_func
  49              		.type	mbox1_execute, %function
  50              	mbox1_execute:
  51              	.LFB8:
  52              		.loc 1 87 0
  53              		.cfi_startproc
  54              		@ args = 0, pretend = 0, frame = 8
  55              		@ frame_needed = 0, uses_anonymous_args = 0
ARM GAS  C:\Users\z80\AppData\Local\Temp\cclZliZY.s 			page 2


  56 0000 70B5     		push	{r4, r5, r6, lr}
  57              	.LCFI0:
  58              		.cfi_def_cfa_offset 16
  59              		.cfi_offset 14, -4
  60              		.cfi_offset 6, -8
  61              		.cfi_offset 5, -12
  62              		.cfi_offset 4, -16
  63              		.loc 1 94 0
  64 0002 40F20004 		movw	r4, #:lower16:.LANCHOR0
  65 0006 C0F20004 		movt	r4, #:upper16:.LANCHOR0
  66 000a 636A     		ldr	r3, [r4, #36]
  67 000c 0120     		movs	r0, #1
  68 000e A3F10502 		sub	r2, r3, #5
  69 0012 5142     		rsbs	r1, r2, #0
  70              		.loc 1 87 0
  71 0014 82B0     		sub	sp, sp, #8
  72              	.LCFI1:
  73              		.cfi_def_cfa_offset 24
  74              		.loc 1 94 0
  75 0016 41EB0201 		adc	r1, r1, r2
  76 001a FFF7FEFF 		bl	_test_assert
  77 001e 0028     		cmp	r0, #0
  78 0020 45D1     		bne	.L2
  79              		.loc 1 100 0
  80 0022 4221     		movs	r1, #66
  81 0024 2046     		mov	r0, r4
  82 0026 4FF0FF32 		mov	r2, #-1
  83 002a FFF7FEFF 		bl	chMBPost
  84              	.LVL0:
  85              		.loc 1 101 0
  86 002e D0F10101 		rsbs	r1, r0, #1
  87 0032 38BF     		it	cc
  88 0034 0021     		movcc	r1, #0
  89 0036 0220     		movs	r0, #2
  90              	.LVL1:
  91 0038 FFF7FEFF 		bl	_test_assert
  92 003c B8BB     		cbnz	r0, .L2
  93              	.LVL2:
  94              		.loc 1 100 0
  95 003e 4321     		movs	r1, #67
  96 0040 2046     		mov	r0, r4
  97 0042 4FF0FF32 		mov	r2, #-1
  98 0046 FFF7FEFF 		bl	chMBPost
  99              	.LVL3:
 100              		.loc 1 101 0
 101 004a D0F10101 		rsbs	r1, r0, #1
 102 004e 38BF     		it	cc
 103 0050 0021     		movcc	r1, #0
 104 0052 0220     		movs	r0, #2
 105              	.LVL4:
 106 0054 FFF7FEFF 		bl	_test_assert
 107 0058 48BB     		cbnz	r0, .L2
 108              	.LVL5:
 109              		.loc 1 100 0
 110 005a 4421     		movs	r1, #68
 111 005c 2046     		mov	r0, r4
 112 005e 4FF0FF32 		mov	r2, #-1
ARM GAS  C:\Users\z80\AppData\Local\Temp\cclZliZY.s 			page 3


 113 0062 FFF7FEFF 		bl	chMBPost
 114              	.LVL6:
 115              		.loc 1 101 0
 116 0066 D0F10101 		rsbs	r1, r0, #1
 117 006a 38BF     		it	cc
 118 006c 0021     		movcc	r1, #0
 119 006e 0220     		movs	r0, #2
 120              	.LVL7:
 121 0070 FFF7FEFF 		bl	_test_assert
 122 0074 D8B9     		cbnz	r0, .L2
 123              	.LVL8:
 124              		.loc 1 100 0
 125 0076 4521     		movs	r1, #69
 126 0078 2046     		mov	r0, r4
 127 007a 4FF0FF32 		mov	r2, #-1
 128 007e FFF7FEFF 		bl	chMBPost
 129              	.LVL9:
 130              		.loc 1 101 0
 131 0082 D0F10101 		rsbs	r1, r0, #1
 132 0086 38BF     		it	cc
 133 0088 0021     		movcc	r1, #0
 134 008a 0220     		movs	r0, #2
 135              	.LVL10:
 136 008c FFF7FEFF 		bl	_test_assert
 137 0090 68B9     		cbnz	r0, .L2
 138              	.LVL11:
 139              		.loc 1 103 0
 140 0092 4121     		movs	r1, #65
 141 0094 2046     		mov	r0, r4
 142 0096 4FF0FF32 		mov	r2, #-1
 143 009a FFF7FEFF 		bl	chMBPostAhead
 144              	.LVL12:
 145              		.loc 1 104 0
 146 009e D0F10101 		rsbs	r1, r0, #1
 147 00a2 38BF     		it	cc
 148 00a4 0021     		movcc	r1, #0
 149 00a6 0320     		movs	r0, #3
 150              	.LVL13:
 151 00a8 FFF7FEFF 		bl	_test_assert
 152 00ac 08B1     		cbz	r0, .L25
 153              	.LVL14:
 154              	.L2:
 155              		.loc 1 231 0
 156 00ae 02B0     		add	sp, sp, #8
 157 00b0 70BD     		pop	{r4, r5, r6, pc}
 158              	.LVL15:
 159              	.L25:
 160              	.LBB116:
 161              	.LBB117:
 162              		.loc 1 109 0
 163 00b2 5821     		movs	r1, #88
 164 00b4 0122     		movs	r2, #1
 165 00b6 2046     		mov	r0, r4
 166 00b8 FFF7FEFF 		bl	chMBPost
 167              	.LVL16:
 168              		.loc 1 110 0
 169 00bc A0F1FF35 		sub	r5, r0, #-1
ARM GAS  C:\Users\z80\AppData\Local\Temp\cclZliZY.s 			page 4


 170 00c0 6842     		rsbs	r0, r5, #0
 171              	.LVL17:
 172 00c2 40EB0501 		adc	r1, r0, r5
 173 00c6 0420     		movs	r0, #4
 174 00c8 FFF7FEFF 		bl	_test_assert
 175 00cc 0546     		mov	r5, r0
 176              	.LVL18:
 177 00ce 0028     		cmp	r0, #0
 178 00d0 EDD1     		bne	.L2
 179              	.LBB118:
 180              		.loc 1 111 0
 181 00d2 2023     		movs	r3, #32
 182              	.LVL19:
 183              	@ 111 "../chibios_2.4.x/test/testmbox.c" 1
 184 00d4 83F31188 		msr     BASEPRI, r3
 185              	@ 0 "" 2
 186              	.LVL20:
 187              		.thumb
 188              	.LBE118:
 189 00d8 FFF7FEFF 		bl	dbg_check_lock
 190              	.LVL21:
 191              		.loc 1 112 0
 192 00dc 5821     		movs	r1, #88
 193 00de 2046     		mov	r0, r4
 194 00e0 FFF7FEFF 		bl	chMBPostI
 195 00e4 0646     		mov	r6, r0
 196              	.LVL22:
 197              		.loc 1 113 0
 198 00e6 FFF7FEFF 		bl	dbg_check_unlock
 199              	.LVL23:
 200              	.LBB119:
 201 00ea 2B46     		mov	r3, r5
 202              	.LVL24:
 203              	@ 113 "../chibios_2.4.x/test/testmbox.c" 1
 204 00ec 83F31188 		msr     BASEPRI, r3
 205              	@ 0 "" 2
 206              	.LVL25:
 207              		.thumb
 208              	.LBE119:
 209              		.loc 1 114 0
 210 00f0 A6F1FF31 		sub	r1, r6, #-1
 211 00f4 0520     		movs	r0, #5
 212 00f6 D1F1000C 		rsbs	ip, r1, #0
 213 00fa 4CEB0101 		adc	r1, ip, r1
 214 00fe FFF7FEFF 		bl	_test_assert
 215              	.LVL26:
 216 0102 0028     		cmp	r0, #0
 217 0104 D3D1     		bne	.L2
 218              		.loc 1 115 0
 219 0106 5821     		movs	r1, #88
 220 0108 0122     		movs	r2, #1
 221 010a 2046     		mov	r0, r4
 222 010c FFF7FEFF 		bl	chMBPostAhead
 223              	.LVL27:
 224              		.loc 1 116 0
 225 0110 A0F1FF33 		sub	r3, r0, #-1
 226 0114 5A42     		rsbs	r2, r3, #0
ARM GAS  C:\Users\z80\AppData\Local\Temp\cclZliZY.s 			page 5


 227 0116 42EB0301 		adc	r1, r2, r3
 228 011a 0620     		movs	r0, #6
 229              	.LVL28:
 230 011c FFF7FEFF 		bl	_test_assert
 231              	.LVL29:
 232 0120 0546     		mov	r5, r0
 233 0122 0028     		cmp	r0, #0
 234 0124 C3D1     		bne	.L2
 235              	.LBB120:
 236              		.loc 1 117 0
 237 0126 2023     		movs	r3, #32
 238              	.LVL30:
 239              	@ 117 "../chibios_2.4.x/test/testmbox.c" 1
 240 0128 83F31188 		msr     BASEPRI, r3
 241              	@ 0 "" 2
 242              	.LVL31:
 243              		.thumb
 244              	.LBE120:
 245 012c FFF7FEFF 		bl	dbg_check_lock
 246              	.LVL32:
 247              		.loc 1 118 0
 248 0130 5821     		movs	r1, #88
 249 0132 2046     		mov	r0, r4
 250 0134 FFF7FEFF 		bl	chMBPostAheadI
 251 0138 0646     		mov	r6, r0
 252              	.LVL33:
 253              		.loc 1 119 0
 254 013a FFF7FEFF 		bl	dbg_check_unlock
 255              	.LVL34:
 256              	.LBB121:
 257 013e 2B46     		mov	r3, r5
 258              	.LVL35:
 259              	@ 119 "../chibios_2.4.x/test/testmbox.c" 1
 260 0140 83F31188 		msr     BASEPRI, r3
 261              	@ 0 "" 2
 262              	.LVL36:
 263              		.thumb
 264              	.LBE121:
 265              		.loc 1 120 0
 266 0144 A6F1FF31 		sub	r1, r6, #-1
 267 0148 0720     		movs	r0, #7
 268 014a D1F1000C 		rsbs	ip, r1, #0
 269 014e 4CEB0101 		adc	r1, ip, r1
 270 0152 FFF7FEFF 		bl	_test_assert
 271              	.LVL37:
 272 0156 0028     		cmp	r0, #0
 273 0158 A9D1     		bne	.L2
 274              	.LBB122:
 275              		.loc 1 125 0
 276 015a 2023     		movs	r3, #32
 277              	.LVL38:
 278              	@ 125 "../chibios_2.4.x/test/testmbox.c" 1
 279 015c 83F31188 		msr     BASEPRI, r3
 280              	@ 0 "" 2
 281              	.LVL39:
 282              		.thumb
 283              	.LBE122:
ARM GAS  C:\Users\z80\AppData\Local\Temp\cclZliZY.s 			page 6


 284 0160 FFF7FEFF 		bl	dbg_check_lock
 285              	.LVL40:
 286 0164 646A     		ldr	r4, [r4, #36]
 287 0166 0820     		movs	r0, #8
 288 0168 D4F10101 		rsbs	r1, r4, #1
 289 016c 38BF     		it	cc
 290 016e 0021     		movcc	r1, #0
 291 0170 FFF7FEFF 		bl	_test_assert
 292 0174 40F20004 		movw	r4, #:lower16:.LANCHOR0
 293 0178 0646     		mov	r6, r0
 294              	.LVL41:
 295 017a C0F20004 		movt	r4, #:upper16:.LANCHOR0
 296 017e 0028     		cmp	r0, #0
 297 0180 40F02F83 		bne	.L19
 298 0184 FFF7FEFF 		bl	dbg_check_unlock
 299              	.LBB123:
 300 0188 3346     		mov	r3, r6
 301              	.LVL42:
 302              	@ 125 "../chibios_2.4.x/test/testmbox.c" 1
 303 018a 83F31188 		msr     BASEPRI, r3
 304              	@ 0 "" 2
 305              	.LVL43:
 306              		.thumb
 307              	.LBE123:
 308              	.LBB124:
 309              		.loc 1 126 0
 310 018e 2023     		movs	r3, #32
 311              	.LVL44:
 312              	@ 126 "../chibios_2.4.x/test/testmbox.c" 1
 313 0190 83F31188 		msr     BASEPRI, r3
 314              	@ 0 "" 2
 315              	.LVL45:
 316              		.thumb
 317              	.LBE124:
 318 0194 FFF7FEFF 		bl	dbg_check_lock
 319              	.LVL46:
 320 0198 A369     		ldr	r3, [r4, #24]
 321 019a 0920     		movs	r0, #9
 322 019c A3F10505 		sub	r5, r3, #5
 323 01a0 6A42     		rsbs	r2, r5, #0
 324 01a2 42EB0501 		adc	r1, r2, r5
 325 01a6 FFF7FEFF 		bl	_test_assert
 326 01aa 0546     		mov	r5, r0
 327 01ac 0028     		cmp	r0, #0
 328 01ae 40F01E83 		bne	.L23
 329 01b2 FFF7FEFF 		bl	dbg_check_unlock
 330              	.LBB125:
 331 01b6 2B46     		mov	r3, r5
 332              	.LVL47:
 333              	@ 126 "../chibios_2.4.x/test/testmbox.c" 1
 334 01b8 83F31188 		msr     BASEPRI, r3
 335              	@ 0 "" 2
 336              	.LVL48:
 337              		.thumb
 338              	.LBE125:
 339              	.LBB126:
 340              		.loc 1 127 0
ARM GAS  C:\Users\z80\AppData\Local\Temp\cclZliZY.s 			page 7


 341 01bc 2023     		movs	r3, #32
 342              	.LVL49:
 343              	@ 127 "../chibios_2.4.x/test/testmbox.c" 1
 344 01be 83F31188 		msr     BASEPRI, r3
 345              	@ 0 "" 2
 346              	.LVL50:
 347              		.thumb
 348              	.LBE126:
 349 01c2 FFF7FEFF 		bl	dbg_check_lock
 350              	.LVL51:
 351 01c6 E268     		ldr	r2, [r4, #12]
 352 01c8 A368     		ldr	r3, [r4, #8]
 353 01ca 0A20     		movs	r0, #10
 354 01cc D11A     		subs	r1, r2, r3
 355 01ce 4E42     		rsbs	r6, r1, #0
 356 01d0 46EB0101 		adc	r1, r6, r1
 357 01d4 FFF7FEFF 		bl	_test_assert
 358 01d8 0646     		mov	r6, r0
 359 01da 0028     		cmp	r0, #0
 360 01dc 40F00D83 		bne	.L22
 361 01e0 FFF7FEFF 		bl	dbg_check_unlock
 362              	.LBB127:
 363 01e4 3346     		mov	r3, r6
 364              	.LVL52:
 365              	@ 127 "../chibios_2.4.x/test/testmbox.c" 1
 366 01e6 83F31188 		msr     BASEPRI, r3
 367              	@ 0 "" 2
 368              	.LVL53:
 369              		.thumb
 370              	.LBE127:
 371              		.loc 1 133 0
 372 01ea 4FF0FF32 		mov	r2, #-1
 373 01ee 01A9     		add	r1, sp, #4
 374 01f0 2046     		mov	r0, r4
 375 01f2 FFF7FEFF 		bl	chMBFetch
 376              	.LVL54:
 377              		.loc 1 134 0
 378 01f6 D0F10101 		rsbs	r1, r0, #1
 379 01fa 38BF     		it	cc
 380 01fc 0021     		movcc	r1, #0
 381 01fe 0B20     		movs	r0, #11
 382              	.LVL55:
 383 0200 FFF7FEFF 		bl	_test_assert
 384 0204 0028     		cmp	r0, #0
 385 0206 7FF452AF 		bne	.L2
 386              		.loc 1 135 0
 387 020a 9DF80400 		ldrb	r0, [sp, #4]	@ zero_extendqisi2
 388 020e FFF7FEFF 		bl	test_emit_token
 389              	.LVL56:
 390              		.loc 1 133 0
 391 0212 01A9     		add	r1, sp, #4
 392 0214 2046     		mov	r0, r4
 393 0216 4FF0FF32 		mov	r2, #-1
 394 021a FFF7FEFF 		bl	chMBFetch
 395              	.LVL57:
 396              		.loc 1 134 0
 397 021e D0F10101 		rsbs	r1, r0, #1
ARM GAS  C:\Users\z80\AppData\Local\Temp\cclZliZY.s 			page 8


 398 0222 38BF     		it	cc
 399 0224 0021     		movcc	r1, #0
 400 0226 0B20     		movs	r0, #11
 401              	.LVL58:
 402 0228 FFF7FEFF 		bl	_test_assert
 403 022c 0028     		cmp	r0, #0
 404 022e 7FF43EAF 		bne	.L2
 405              		.loc 1 135 0
 406 0232 9DF80400 		ldrb	r0, [sp, #4]	@ zero_extendqisi2
 407 0236 FFF7FEFF 		bl	test_emit_token
 408              	.LVL59:
 409              		.loc 1 133 0
 410 023a 01A9     		add	r1, sp, #4
 411 023c 2046     		mov	r0, r4
 412 023e 4FF0FF32 		mov	r2, #-1
 413 0242 FFF7FEFF 		bl	chMBFetch
 414              	.LVL60:
 415              		.loc 1 134 0
 416 0246 D0F10101 		rsbs	r1, r0, #1
 417 024a 38BF     		it	cc
 418 024c 0021     		movcc	r1, #0
 419 024e 0B20     		movs	r0, #11
 420              	.LVL61:
 421 0250 FFF7FEFF 		bl	_test_assert
 422 0254 0028     		cmp	r0, #0
 423 0256 7FF42AAF 		bne	.L2
 424              		.loc 1 135 0
 425 025a 9DF80400 		ldrb	r0, [sp, #4]	@ zero_extendqisi2
 426 025e FFF7FEFF 		bl	test_emit_token
 427              	.LVL62:
 428              		.loc 1 133 0
 429 0262 01A9     		add	r1, sp, #4
 430 0264 2046     		mov	r0, r4
 431 0266 4FF0FF32 		mov	r2, #-1
 432 026a FFF7FEFF 		bl	chMBFetch
 433              	.LVL63:
 434              		.loc 1 134 0
 435 026e D0F10101 		rsbs	r1, r0, #1
 436 0272 38BF     		it	cc
 437 0274 0021     		movcc	r1, #0
 438 0276 0B20     		movs	r0, #11
 439              	.LVL64:
 440 0278 FFF7FEFF 		bl	_test_assert
 441 027c 0028     		cmp	r0, #0
 442 027e 7FF416AF 		bne	.L2
 443              		.loc 1 135 0
 444 0282 9DF80400 		ldrb	r0, [sp, #4]	@ zero_extendqisi2
 445 0286 FFF7FEFF 		bl	test_emit_token
 446              	.LVL65:
 447              		.loc 1 133 0
 448 028a 01A9     		add	r1, sp, #4
 449 028c 2046     		mov	r0, r4
 450 028e 4FF0FF32 		mov	r2, #-1
 451 0292 FFF7FEFF 		bl	chMBFetch
 452              	.LVL66:
 453              		.loc 1 134 0
 454 0296 D0F10101 		rsbs	r1, r0, #1
ARM GAS  C:\Users\z80\AppData\Local\Temp\cclZliZY.s 			page 9


 455 029a 38BF     		it	cc
 456 029c 0021     		movcc	r1, #0
 457 029e 0B20     		movs	r0, #11
 458              	.LVL67:
 459 02a0 FFF7FEFF 		bl	_test_assert
 460 02a4 0028     		cmp	r0, #0
 461 02a6 7FF402AF 		bne	.L2
 462              		.loc 1 135 0
 463 02aa 9DF80400 		ldrb	r0, [sp, #4]	@ zero_extendqisi2
 464 02ae FFF7FEFF 		bl	test_emit_token
 465              	.LVL68:
 466              		.loc 1 137 0
 467 02b2 40F20001 		movw	r1, #:lower16:.LC0
 468 02b6 0C20     		movs	r0, #12
 469 02b8 C0F20001 		movt	r1, #:upper16:.LC0
 470 02bc FFF7FEFF 		bl	_test_assert_sequence
 471 02c0 0028     		cmp	r0, #0
 472 02c2 7FF4F4AE 		bne	.L2
 473              		.loc 1 142 0
 474 02c6 4721     		movs	r1, #71
 475 02c8 2046     		mov	r0, r4
 476 02ca 4FF0FF32 		mov	r2, #-1
 477 02ce FFF7FEFF 		bl	chMBPost
 478              	.LVL69:
 479              		.loc 1 143 0
 480 02d2 D0F10101 		rsbs	r1, r0, #1
 481 02d6 38BF     		it	cc
 482 02d8 0021     		movcc	r1, #0
 483 02da 0D20     		movs	r0, #13
 484              	.LVL70:
 485 02dc FFF7FEFF 		bl	_test_assert
 486 02e0 0028     		cmp	r0, #0
 487 02e2 7FF4E4AE 		bne	.L2
 488              		.loc 1 144 0
 489 02e6 40F20004 		movw	r4, #:lower16:.LANCHOR0
 490 02ea C0F20004 		movt	r4, #:upper16:.LANCHOR0
 491 02ee 01A9     		add	r1, sp, #4
 492 02f0 2046     		mov	r0, r4
 493 02f2 4FF0FF32 		mov	r2, #-1
 494 02f6 FFF7FEFF 		bl	chMBFetch
 495              	.LVL71:
 496              		.loc 1 145 0
 497 02fa D0F10101 		rsbs	r1, r0, #1
 498 02fe 38BF     		it	cc
 499 0300 0021     		movcc	r1, #0
 500 0302 0E20     		movs	r0, #14
 501              	.LVL72:
 502 0304 FFF7FEFF 		bl	_test_assert
 503 0308 0028     		cmp	r0, #0
 504 030a 7FF4D0AE 		bne	.L2
 505              		.loc 1 146 0
 506 030e 2368     		ldr	r3, [r4, #0]
 507 0310 A268     		ldr	r2, [r4, #8]
 508 0312 0F20     		movs	r0, #15
 509 0314 991A     		subs	r1, r3, r2
 510 0316 D1F1000E 		rsbs	lr, r1, #0
 511 031a 4EEB0101 		adc	r1, lr, r1
ARM GAS  C:\Users\z80\AppData\Local\Temp\cclZliZY.s 			page 10


 512 031e FFF7FEFF 		bl	_test_assert
 513 0322 0028     		cmp	r0, #0
 514 0324 7FF4C3AE 		bne	.L2
 515              		.loc 1 147 0
 516 0328 2268     		ldr	r2, [r4, #0]
 517 032a E368     		ldr	r3, [r4, #12]
 518 032c 1020     		movs	r0, #16
 519 032e D11A     		subs	r1, r2, r3
 520 0330 D1F1000E 		rsbs	lr, r1, #0
 521 0334 4EEB0101 		adc	r1, lr, r1
 522 0338 FFF7FEFF 		bl	_test_assert
 523 033c 0028     		cmp	r0, #0
 524 033e 7FF4B6AE 		bne	.L2
 525              		.loc 1 152 0
 526 0342 0122     		movs	r2, #1
 527 0344 01A9     		add	r1, sp, #4
 528 0346 2046     		mov	r0, r4
 529 0348 FFF7FEFF 		bl	chMBFetch
 530              	.LVL73:
 531              		.loc 1 153 0
 532 034c A0F1FF35 		sub	r5, r0, #-1
 533 0350 6842     		rsbs	r0, r5, #0
 534              	.LVL74:
 535 0352 40EB0501 		adc	r1, r0, r5
 536 0356 1120     		movs	r0, #17
 537 0358 FFF7FEFF 		bl	_test_assert
 538 035c 0546     		mov	r5, r0
 539              	.LVL75:
 540 035e 0028     		cmp	r0, #0
 541 0360 7FF4A5AE 		bne	.L2
 542              	.LBB128:
 543              		.loc 1 154 0
 544 0364 2023     		movs	r3, #32
 545              	.LVL76:
 546              	@ 154 "../chibios_2.4.x/test/testmbox.c" 1
 547 0366 83F31188 		msr     BASEPRI, r3
 548              	@ 0 "" 2
 549              	.LVL77:
 550              		.thumb
 551              	.LBE128:
 552 036a FFF7FEFF 		bl	dbg_check_lock
 553              	.LVL78:
 554              		.loc 1 155 0
 555 036e 01A9     		add	r1, sp, #4
 556 0370 2046     		mov	r0, r4
 557 0372 FFF7FEFF 		bl	chMBFetchI
 558 0376 0646     		mov	r6, r0
 559              	.LVL79:
 560              		.loc 1 156 0
 561 0378 FFF7FEFF 		bl	dbg_check_unlock
 562              	.LVL80:
 563              	.LBB129:
 564 037c 2B46     		mov	r3, r5
 565              	.LVL81:
 566              	@ 156 "../chibios_2.4.x/test/testmbox.c" 1
 567 037e 83F31188 		msr     BASEPRI, r3
 568              	@ 0 "" 2
ARM GAS  C:\Users\z80\AppData\Local\Temp\cclZliZY.s 			page 11


 569              	.LVL82:
 570              		.thumb
 571              	.LBE129:
 572              		.loc 1 157 0
 573 0382 A6F1FF31 		sub	r1, r6, #-1
 574 0386 1220     		movs	r0, #18
 575 0388 D1F1000C 		rsbs	ip, r1, #0
 576 038c 4CEB0101 		adc	r1, ip, r1
 577 0390 FFF7FEFF 		bl	_test_assert
 578              	.LVL83:
 579 0394 0546     		mov	r5, r0
 580 0396 0028     		cmp	r0, #0
 581 0398 7FF489AE 		bne	.L2
 582              	.LBB130:
 583              		.loc 1 162 0
 584 039c 2023     		movs	r3, #32
 585              	.LVL84:
 586              	@ 162 "../chibios_2.4.x/test/testmbox.c" 1
 587 039e 83F31188 		msr     BASEPRI, r3
 588              	@ 0 "" 2
 589              	.LVL85:
 590              		.thumb
 591              	.LBE130:
 592 03a2 FFF7FEFF 		bl	dbg_check_lock
 593              	.LVL86:
 594 03a6 636A     		ldr	r3, [r4, #36]
 595 03a8 1320     		movs	r0, #19
 596 03aa A3F10502 		sub	r2, r3, #5
 597 03ae 5642     		rsbs	r6, r2, #0
 598              	.LVL87:
 599 03b0 46EB0201 		adc	r1, r6, r2
 600 03b4 FFF7FEFF 		bl	_test_assert
 601 03b8 0646     		mov	r6, r0
 602 03ba 0028     		cmp	r0, #0
 603 03bc 40F01D82 		bne	.L22
 604 03c0 FFF7FEFF 		bl	dbg_check_unlock
 605              	.LBB131:
 606 03c4 3346     		mov	r3, r6
 607              	.LVL88:
 608              	@ 162 "../chibios_2.4.x/test/testmbox.c" 1
 609 03c6 83F31188 		msr     BASEPRI, r3
 610              	@ 0 "" 2
 611              	.LVL89:
 612              		.thumb
 613              	.LBE131:
 614              	.LBB132:
 615              		.loc 1 163 0
 616 03ca 2023     		movs	r3, #32
 617              	.LVL90:
 618              	@ 163 "../chibios_2.4.x/test/testmbox.c" 1
 619 03cc 83F31188 		msr     BASEPRI, r3
 620              	@ 0 "" 2
 621              	.LVL91:
 622              		.thumb
 623              	.LBE132:
 624 03d0 FFF7FEFF 		bl	dbg_check_lock
 625              	.LVL92:
ARM GAS  C:\Users\z80\AppData\Local\Temp\cclZliZY.s 			page 12


 626 03d4 A569     		ldr	r5, [r4, #24]
 627 03d6 1420     		movs	r0, #20
 628 03d8 D5F10101 		rsbs	r1, r5, #1
 629 03dc 38BF     		it	cc
 630 03de 0021     		movcc	r1, #0
 631 03e0 FFF7FEFF 		bl	_test_assert
 632 03e4 0546     		mov	r5, r0
 633 03e6 0028     		cmp	r0, #0
 634 03e8 40F00182 		bne	.L23
 635 03ec FFF7FEFF 		bl	dbg_check_unlock
 636              	.LBB133:
 637 03f0 2B46     		mov	r3, r5
 638              	.LVL93:
 639              	@ 163 "../chibios_2.4.x/test/testmbox.c" 1
 640 03f2 83F31188 		msr     BASEPRI, r3
 641              	@ 0 "" 2
 642              	.LVL94:
 643              		.thumb
 644              	.LBE133:
 645              	.LBB134:
 646              		.loc 1 164 0
 647 03f6 2023     		movs	r3, #32
 648              	.LVL95:
 649              	@ 164 "../chibios_2.4.x/test/testmbox.c" 1
 650 03f8 83F31188 		msr     BASEPRI, r3
 651              	@ 0 "" 2
 652              	.LVL96:
 653              		.thumb
 654              	.LBE134:
 655 03fc FFF7FEFF 		bl	dbg_check_lock
 656              	.LVL97:
 657 0400 A668     		ldr	r6, [r4, #8]
 658 0402 E268     		ldr	r2, [r4, #12]
 659 0404 1520     		movs	r0, #21
 660 0406 911B     		subs	r1, r2, r6
 661 0408 D1F1000C 		rsbs	ip, r1, #0
 662 040c 4CEB0101 		adc	r1, ip, r1
 663 0410 FFF7FEFF 		bl	_test_assert
 664 0414 0646     		mov	r6, r0
 665 0416 0028     		cmp	r0, #0
 666 0418 40F0EF81 		bne	.L22
 667 041c FFF7FEFF 		bl	dbg_check_unlock
 668              	.LBB135:
 669 0420 3346     		mov	r3, r6
 670              	.LVL98:
 671              	@ 164 "../chibios_2.4.x/test/testmbox.c" 1
 672 0422 83F31188 		msr     BASEPRI, r3
 673              	@ 0 "" 2
 674              	.LVL99:
 675              		.thumb
 676              	.LBE135:
 677              	.LBB136:
 678              		.loc 1 169 0
 679 0426 2023     		movs	r3, #32
 680              	.LVL100:
 681              	@ 169 "../chibios_2.4.x/test/testmbox.c" 1
 682 0428 83F31188 		msr     BASEPRI, r3
ARM GAS  C:\Users\z80\AppData\Local\Temp\cclZliZY.s 			page 13


 683              	@ 0 "" 2
 684              	.LVL101:
 685              		.thumb
 686              	.LBE136:
 687 042c FFF7FEFF 		bl	dbg_check_lock
 688              	.LVL102:
 689              		.loc 1 170 0
 690 0430 4121     		movs	r1, #65
 691 0432 2046     		mov	r0, r4
 692 0434 FFF7FEFF 		bl	chMBPostI
 693              	.LVL103:
 694              		.loc 1 171 0
 695 0438 D0F10101 		rsbs	r1, r0, #1
 696 043c 38BF     		it	cc
 697 043e 0021     		movcc	r1, #0
 698 0440 1620     		movs	r0, #22
 699              	.LVL104:
 700 0442 FFF7FEFF 		bl	_test_assert
 701 0446 0028     		cmp	r0, #0
 702 0448 7FF431AE 		bne	.L2
 703              		.loc 1 172 0
 704 044c 4221     		movs	r1, #66
 705 044e 2046     		mov	r0, r4
 706 0450 FFF7FEFF 		bl	chMBPostI
 707              	.LVL105:
 708              		.loc 1 173 0
 709 0454 D0F10101 		rsbs	r1, r0, #1
 710 0458 38BF     		it	cc
 711 045a 0021     		movcc	r1, #0
 712 045c 1720     		movs	r0, #23
 713              	.LVL106:
 714 045e FFF7FEFF 		bl	_test_assert
 715 0462 0028     		cmp	r0, #0
 716 0464 7FF423AE 		bne	.L2
 717              		.loc 1 174 0
 718 0468 40F20004 		movw	r4, #:lower16:.LANCHOR0
 719 046c C0F20004 		movt	r4, #:upper16:.LANCHOR0
 720 0470 4321     		movs	r1, #67
 721 0472 2046     		mov	r0, r4
 722 0474 FFF7FEFF 		bl	chMBPostI
 723              	.LVL107:
 724              		.loc 1 175 0
 725 0478 D0F10101 		rsbs	r1, r0, #1
 726 047c 38BF     		it	cc
 727 047e 0021     		movcc	r1, #0
 728 0480 1820     		movs	r0, #24
 729              	.LVL108:
 730 0482 FFF7FEFF 		bl	_test_assert
 731 0486 0028     		cmp	r0, #0
 732 0488 7FF411AE 		bne	.L2
 733              		.loc 1 176 0
 734 048c 4421     		movs	r1, #68
 735 048e 2046     		mov	r0, r4
 736 0490 FFF7FEFF 		bl	chMBPostI
 737              	.LVL109:
 738              		.loc 1 177 0
 739 0494 D0F10101 		rsbs	r1, r0, #1
ARM GAS  C:\Users\z80\AppData\Local\Temp\cclZliZY.s 			page 14


 740 0498 38BF     		it	cc
 741 049a 0021     		movcc	r1, #0
 742 049c 1920     		movs	r0, #25
 743              	.LVL110:
 744 049e FFF7FEFF 		bl	_test_assert
 745 04a2 0546     		mov	r5, r0
 746 04a4 0028     		cmp	r0, #0
 747 04a6 7FF402AE 		bne	.L2
 748              		.loc 1 178 0
 749 04aa 4521     		movs	r1, #69
 750 04ac 2046     		mov	r0, r4
 751 04ae FFF7FEFF 		bl	chMBPostI
 752 04b2 0646     		mov	r6, r0
 753              	.LVL111:
 754              		.loc 1 179 0
 755 04b4 FFF7FEFF 		bl	dbg_check_unlock
 756              	.LVL112:
 757              	.LBB137:
 758 04b8 2B46     		mov	r3, r5
 759              	.LVL113:
 760              	@ 179 "../chibios_2.4.x/test/testmbox.c" 1
 761 04ba 83F31188 		msr     BASEPRI, r3
 762              	@ 0 "" 2
 763              	.LVL114:
 764              		.thumb
 765              	.LBE137:
 766              		.loc 1 180 0
 767 04be 1A20     		movs	r0, #26
 768 04c0 D6F10101 		rsbs	r1, r6, #1
 769 04c4 38BF     		it	cc
 770 04c6 0021     		movcc	r1, #0
 771 04c8 FFF7FEFF 		bl	_test_assert
 772              	.LVL115:
 773 04cc 0028     		cmp	r0, #0
 774 04ce 7FF4EEAD 		bne	.L2
 775              		.loc 1 181 0
 776 04d2 A368     		ldr	r3, [r4, #8]
 777 04d4 E268     		ldr	r2, [r4, #12]
 778 04d6 1B20     		movs	r0, #27
 779 04d8 D11A     		subs	r1, r2, r3
 780 04da 4B42     		rsbs	r3, r1, #0
 781 04dc 43EB0101 		adc	r1, r3, r1
 782 04e0 FFF7FEFF 		bl	_test_assert
 783 04e4 0028     		cmp	r0, #0
 784 04e6 7FF4E2AD 		bne	.L2
 785 04ea 0525     		movs	r5, #5
 786              	.LVL116:
 787              	.L10:
 788              	.LBB138:
 789              		.loc 1 183 0
 790 04ec 2023     		movs	r3, #32
 791              	.LVL117:
 792              	@ 183 "../chibios_2.4.x/test/testmbox.c" 1
 793 04ee 83F31188 		msr     BASEPRI, r3
 794              	@ 0 "" 2
 795              	.LVL118:
 796              		.thumb
ARM GAS  C:\Users\z80\AppData\Local\Temp\cclZliZY.s 			page 15


 797              	.LBE138:
 798              		.loc 1 184 0
 799 04f2 40F20004 		movw	r4, #:lower16:.LANCHOR0
 800 04f6 C0F20004 		movt	r4, #:upper16:.LANCHOR0
 801              		.loc 1 183 0
 802 04fa FFF7FEFF 		bl	dbg_check_lock
 803              	.LVL119:
 804              		.loc 1 184 0
 805 04fe 01A9     		add	r1, sp, #4
 806 0500 2046     		mov	r0, r4
 807 0502 FFF7FEFF 		bl	chMBFetchI
 808 0506 0646     		mov	r6, r0
 809              	.LVL120:
 810              		.loc 1 185 0
 811 0508 FFF7FEFF 		bl	dbg_check_unlock
 812              	.LVL121:
 813              	.LBB139:
 814 050c 0023     		movs	r3, #0
 815              	.LVL122:
 816              	@ 185 "../chibios_2.4.x/test/testmbox.c" 1
 817 050e 83F31188 		msr     BASEPRI, r3
 818              	@ 0 "" 2
 819              	.LVL123:
 820              		.thumb
 821              	.LBE139:
 822              		.loc 1 186 0
 823 0512 F11A     		subs	r1, r6, r3
 824              	.LVL124:
 825 0514 1C20     		movs	r0, #28
 826 0516 D1F1000C 		rsbs	ip, r1, #0
 827 051a 4CEB0101 		adc	r1, ip, r1
 828 051e FFF7FEFF 		bl	_test_assert
 829 0522 0028     		cmp	r0, #0
 830 0524 7FF4C3AD 		bne	.L2
 831              		.loc 1 187 0
 832 0528 9DF80400 		ldrb	r0, [sp, #4]	@ zero_extendqisi2
 833 052c FFF7FEFF 		bl	test_emit_token
 834              		.loc 1 182 0
 835 0530 013D     		subs	r5, r5, #1
 836 0532 DBD1     		bne	.L10
 837              		.loc 1 189 0
 838 0534 40F20001 		movw	r1, #:lower16:.LC0
 839 0538 1D20     		movs	r0, #29
 840 053a C0F20001 		movt	r1, #:upper16:.LC0
 841 053e FFF7FEFF 		bl	_test_assert_sequence
 842 0542 0028     		cmp	r0, #0
 843 0544 7FF4B3AD 		bne	.L2
 844              	.LBB140:
 845              		.loc 1 190 0
 846 0548 2023     		movs	r3, #32
 847              	.LVL125:
 848              	@ 190 "../chibios_2.4.x/test/testmbox.c" 1
 849 054a 83F31188 		msr     BASEPRI, r3
 850              	@ 0 "" 2
 851              	.LVL126:
 852              		.thumb
 853              	.LBE140:
ARM GAS  C:\Users\z80\AppData\Local\Temp\cclZliZY.s 			page 16


 854 054e FFF7FEFF 		bl	dbg_check_lock
 855              	.LVL127:
 856 0552 616A     		ldr	r1, [r4, #36]
 857 0554 1E20     		movs	r0, #30
 858 0556 A1F10502 		sub	r2, r1, #5
 859 055a 5342     		rsbs	r3, r2, #0
 860 055c 43EB0201 		adc	r1, r3, r2
 861 0560 FFF7FEFF 		bl	_test_assert
 862 0564 0028     		cmp	r0, #0
 863 0566 40F04881 		bne	.L22
 864 056a FFF7FEFF 		bl	dbg_check_unlock
 865              	.LBB141:
 866 056e 2B46     		mov	r3, r5
 867              	.LVL128:
 868              	@ 190 "../chibios_2.4.x/test/testmbox.c" 1
 869 0570 83F31188 		msr     BASEPRI, r3
 870              	@ 0 "" 2
 871              	.LVL129:
 872              		.thumb
 873              	.LBE141:
 874              	.LBB142:
 875              		.loc 1 191 0
 876 0574 2023     		movs	r3, #32
 877              	.LVL130:
 878              	@ 191 "../chibios_2.4.x/test/testmbox.c" 1
 879 0576 83F31188 		msr     BASEPRI, r3
 880              	@ 0 "" 2
 881              	.LVL131:
 882              		.thumb
 883              	.LBE142:
 884 057a FFF7FEFF 		bl	dbg_check_lock
 885              	.LVL132:
 886 057e A369     		ldr	r3, [r4, #24]
 887 0580 1F20     		movs	r0, #31
 888 0582 D3F10101 		rsbs	r1, r3, #1
 889 0586 38BF     		it	cc
 890 0588 0021     		movcc	r1, #0
 891 058a FFF7FEFF 		bl	_test_assert
 892 058e 0028     		cmp	r0, #0
 893 0590 40F03381 		bne	.L22
 894 0594 FFF7FEFF 		bl	dbg_check_unlock
 895              	.LBB143:
 896 0598 2B46     		mov	r3, r5
 897              	.LVL133:
 898              	@ 191 "../chibios_2.4.x/test/testmbox.c" 1
 899 059a 83F31188 		msr     BASEPRI, r3
 900              	@ 0 "" 2
 901              	.LVL134:
 902              		.thumb
 903              	.LBE143:
 904              		.loc 1 192 0
 905 059e E268     		ldr	r2, [r4, #12]
 906 05a0 A368     		ldr	r3, [r4, #8]
 907              	.LVL135:
 908 05a2 2020     		movs	r0, #32
 909 05a4 D11A     		subs	r1, r2, r3
 910 05a6 4A42     		rsbs	r2, r1, #0
ARM GAS  C:\Users\z80\AppData\Local\Temp\cclZliZY.s 			page 17


 911 05a8 42EB0101 		adc	r1, r2, r1
 912 05ac FFF7FEFF 		bl	_test_assert
 913 05b0 0028     		cmp	r0, #0
 914 05b2 7FF47CAD 		bne	.L2
 915              	.LBB144:
 916              		.loc 1 194 0
 917 05b6 2023     		movs	r3, #32
 918              	.LVL136:
 919              	@ 194 "../chibios_2.4.x/test/testmbox.c" 1
 920 05b8 83F31188 		msr     BASEPRI, r3
 921              	@ 0 "" 2
 922              	.LVL137:
 923              		.thumb
 924              	.LBE144:
 925 05bc FFF7FEFF 		bl	dbg_check_lock
 926              	.LVL138:
 927              		.loc 1 195 0
 928 05c0 4521     		movs	r1, #69
 929 05c2 2046     		mov	r0, r4
 930 05c4 FFF7FEFF 		bl	chMBPostAheadI
 931              	.LVL139:
 932              		.loc 1 196 0
 933 05c8 D0F10101 		rsbs	r1, r0, #1
 934 05cc 38BF     		it	cc
 935 05ce 0021     		movcc	r1, #0
 936 05d0 2120     		movs	r0, #33
 937              	.LVL140:
 938 05d2 FFF7FEFF 		bl	_test_assert
 939 05d6 0028     		cmp	r0, #0
 940 05d8 7FF469AD 		bne	.L2
 941              		.loc 1 197 0
 942 05dc 4421     		movs	r1, #68
 943 05de 2046     		mov	r0, r4
 944 05e0 FFF7FEFF 		bl	chMBPostAheadI
 945              	.LVL141:
 946              		.loc 1 198 0
 947 05e4 D0F10101 		rsbs	r1, r0, #1
 948 05e8 38BF     		it	cc
 949 05ea 0021     		movcc	r1, #0
 950 05ec 2220     		movs	r0, #34
 951              	.LVL142:
 952 05ee FFF7FEFF 		bl	_test_assert
 953 05f2 0028     		cmp	r0, #0
 954 05f4 7FF45BAD 		bne	.L2
 955              		.loc 1 199 0
 956 05f8 4321     		movs	r1, #67
 957 05fa 2046     		mov	r0, r4
 958 05fc FFF7FEFF 		bl	chMBPostAheadI
 959              	.LVL143:
 960              		.loc 1 200 0
 961 0600 D0F10101 		rsbs	r1, r0, #1
 962 0604 38BF     		it	cc
 963 0606 0021     		movcc	r1, #0
 964 0608 2320     		movs	r0, #35
 965              	.LVL144:
 966 060a FFF7FEFF 		bl	_test_assert
 967 060e 0028     		cmp	r0, #0
ARM GAS  C:\Users\z80\AppData\Local\Temp\cclZliZY.s 			page 18


 968 0610 7FF44DAD 		bne	.L2
 969              		.loc 1 201 0
 970 0614 4221     		movs	r1, #66
 971 0616 2046     		mov	r0, r4
 972 0618 FFF7FEFF 		bl	chMBPostAheadI
 973              	.LVL145:
 974              		.loc 1 202 0
 975 061c D0F10101 		rsbs	r1, r0, #1
 976 0620 38BF     		it	cc
 977 0622 0021     		movcc	r1, #0
 978 0624 2420     		movs	r0, #36
 979              	.LVL146:
 980 0626 FFF7FEFF 		bl	_test_assert
 981 062a 0028     		cmp	r0, #0
 982 062c 7FF43FAD 		bne	.L2
 983              		.loc 1 203 0
 984 0630 40F20004 		movw	r4, #:lower16:.LANCHOR0
 985 0634 C0F20004 		movt	r4, #:upper16:.LANCHOR0
 986 0638 4121     		movs	r1, #65
 987 063a 2046     		mov	r0, r4
 988 063c FFF7FEFF 		bl	chMBPostAheadI
 989 0640 0546     		mov	r5, r0
 990              	.LVL147:
 991              		.loc 1 204 0
 992 0642 FFF7FEFF 		bl	dbg_check_unlock
 993              	.LVL148:
 994              	.LBB145:
 995 0646 0023     		movs	r3, #0
 996              	.LVL149:
 997              	@ 204 "../chibios_2.4.x/test/testmbox.c" 1
 998 0648 83F31188 		msr     BASEPRI, r3
 999              	@ 0 "" 2
 1000              	.LVL150:
 1001              		.thumb
 1002              	.LBE145:
 1003              		.loc 1 205 0
 1004 064c EB1A     		subs	r3, r5, r3
 1005              	.LVL151:
 1006 064e 2520     		movs	r0, #37
 1007 0650 5942     		rsbs	r1, r3, #0
 1008 0652 41EB0301 		adc	r1, r1, r3
 1009 0656 FFF7FEFF 		bl	_test_assert
 1010 065a 0028     		cmp	r0, #0
 1011 065c 7FF427AD 		bne	.L2
 1012              		.loc 1 206 0
 1013 0660 E268     		ldr	r2, [r4, #12]
 1014 0662 A368     		ldr	r3, [r4, #8]
 1015 0664 2620     		movs	r0, #38
 1016 0666 D11A     		subs	r1, r2, r3
 1017 0668 4A42     		rsbs	r2, r1, #0
 1018 066a 42EB0101 		adc	r1, r2, r1
 1019 066e FFF7FEFF 		bl	_test_assert
 1020 0672 0028     		cmp	r0, #0
 1021 0674 7FF41BAD 		bne	.L2
 1022 0678 0525     		movs	r5, #5
 1023              	.LVL152:
 1024              	.L13:
ARM GAS  C:\Users\z80\AppData\Local\Temp\cclZliZY.s 			page 19


 1025              	.LBB146:
 1026              		.loc 1 208 0
 1027 067a 2023     		movs	r3, #32
 1028              	.LVL153:
 1029              	@ 208 "../chibios_2.4.x/test/testmbox.c" 1
 1030 067c 83F31188 		msr     BASEPRI, r3
 1031              	@ 0 "" 2
 1032              	.LVL154:
 1033              		.thumb
 1034              	.LBE146:
 1035              		.loc 1 209 0
 1036 0680 40F20004 		movw	r4, #:lower16:.LANCHOR0
 1037 0684 C0F20004 		movt	r4, #:upper16:.LANCHOR0
 1038              		.loc 1 208 0
 1039 0688 FFF7FEFF 		bl	dbg_check_lock
 1040              	.LVL155:
 1041              		.loc 1 209 0
 1042 068c 01A9     		add	r1, sp, #4
 1043 068e 2046     		mov	r0, r4
 1044 0690 FFF7FEFF 		bl	chMBFetchI
 1045 0694 0646     		mov	r6, r0
 1046              	.LVL156:
 1047              		.loc 1 210 0
 1048 0696 FFF7FEFF 		bl	dbg_check_unlock
 1049              	.LVL157:
 1050              	.LBB147:
 1051 069a 0023     		movs	r3, #0
 1052              	.LVL158:
 1053              	@ 210 "../chibios_2.4.x/test/testmbox.c" 1
 1054 069c 83F31188 		msr     BASEPRI, r3
 1055              	@ 0 "" 2
 1056              	.LVL159:
 1057              		.thumb
 1058              	.LBE147:
 1059              		.loc 1 211 0
 1060 06a0 F11A     		subs	r1, r6, r3
 1061              	.LVL160:
 1062 06a2 2720     		movs	r0, #39
 1063 06a4 D1F1000C 		rsbs	ip, r1, #0
 1064 06a8 4CEB0101 		adc	r1, ip, r1
 1065 06ac FFF7FEFF 		bl	_test_assert
 1066 06b0 0028     		cmp	r0, #0
 1067 06b2 7FF4FCAC 		bne	.L2
 1068              		.loc 1 212 0
 1069 06b6 9DF80400 		ldrb	r0, [sp, #4]	@ zero_extendqisi2
 1070 06ba FFF7FEFF 		bl	test_emit_token
 1071              		.loc 1 207 0
 1072 06be 013D     		subs	r5, r5, #1
 1073 06c0 DBD1     		bne	.L13
 1074              		.loc 1 214 0
 1075 06c2 40F20001 		movw	r1, #:lower16:.LC0
 1076 06c6 2820     		movs	r0, #40
 1077 06c8 C0F20001 		movt	r1, #:upper16:.LC0
 1078 06cc FFF7FEFF 		bl	_test_assert_sequence
 1079 06d0 0028     		cmp	r0, #0
 1080 06d2 7FF4ECAC 		bne	.L2
 1081              	.LBB148:
ARM GAS  C:\Users\z80\AppData\Local\Temp\cclZliZY.s 			page 20


 1082              		.loc 1 215 0
 1083 06d6 2023     		movs	r3, #32
 1084              	.LVL161:
 1085              	@ 215 "../chibios_2.4.x/test/testmbox.c" 1
 1086 06d8 83F31188 		msr     BASEPRI, r3
 1087              	@ 0 "" 2
 1088              	.LVL162:
 1089              		.thumb
 1090              	.LBE148:
 1091 06dc FFF7FEFF 		bl	dbg_check_lock
 1092              	.LVL163:
 1093 06e0 616A     		ldr	r1, [r4, #36]
 1094 06e2 2920     		movs	r0, #41
 1095 06e4 A1F10503 		sub	r3, r1, #5
 1096 06e8 5A42     		rsbs	r2, r3, #0
 1097 06ea 42EB0301 		adc	r1, r2, r3
 1098 06ee FFF7FEFF 		bl	_test_assert
 1099 06f2 0028     		cmp	r0, #0
 1100 06f4 40F08180 		bne	.L22
 1101 06f8 FFF7FEFF 		bl	dbg_check_unlock
 1102              	.LBB149:
 1103 06fc 2B46     		mov	r3, r5
 1104              	.LVL164:
 1105              	@ 215 "../chibios_2.4.x/test/testmbox.c" 1
 1106 06fe 83F31188 		msr     BASEPRI, r3
 1107              	@ 0 "" 2
 1108              	.LVL165:
 1109              		.thumb
 1110              	.LBE149:
 1111              	.LBB150:
 1112              		.loc 1 216 0
 1113 0702 2023     		movs	r3, #32
 1114              	.LVL166:
 1115              	@ 216 "../chibios_2.4.x/test/testmbox.c" 1
 1116 0704 83F31188 		msr     BASEPRI, r3
 1117              	@ 0 "" 2
 1118              	.LVL167:
 1119              		.thumb
 1120              	.LBE150:
 1121 0708 FFF7FEFF 		bl	dbg_check_lock
 1122              	.LVL168:
 1123 070c A269     		ldr	r2, [r4, #24]
 1124 070e 2A20     		movs	r0, #42
 1125 0710 D2F10101 		rsbs	r1, r2, #1
 1126 0714 38BF     		it	cc
 1127 0716 0021     		movcc	r1, #0
 1128 0718 FFF7FEFF 		bl	_test_assert
 1129 071c 0028     		cmp	r0, #0
 1130 071e 6CD1     		bne	.L22
 1131 0720 FFF7FEFF 		bl	dbg_check_unlock
 1132              	.LBB151:
 1133 0724 2B46     		mov	r3, r5
 1134              	.LVL169:
 1135              	@ 216 "../chibios_2.4.x/test/testmbox.c" 1
 1136 0726 83F31188 		msr     BASEPRI, r3
 1137              	@ 0 "" 2
 1138              	.LVL170:
ARM GAS  C:\Users\z80\AppData\Local\Temp\cclZliZY.s 			page 21


 1139              		.thumb
 1140              	.LBE151:
 1141              		.loc 1 217 0
 1142 072a A368     		ldr	r3, [r4, #8]
 1143              	.LVL171:
 1144 072c E268     		ldr	r2, [r4, #12]
 1145 072e 2B20     		movs	r0, #43
 1146 0730 D11A     		subs	r1, r2, r3
 1147 0732 4B42     		rsbs	r3, r1, #0
 1148 0734 43EB0101 		adc	r1, r3, r1
 1149 0738 FFF7FEFF 		bl	_test_assert
 1150 073c 0028     		cmp	r0, #0
 1151 073e 7FF4B6AC 		bne	.L2
 1152              		.loc 1 222 0
 1153 0742 2046     		mov	r0, r4
 1154 0744 FFF7FEFF 		bl	chMBReset
 1155              	.LBB152:
 1156              		.loc 1 227 0
 1157 0748 2023     		movs	r3, #32
 1158              	.LVL172:
 1159              	@ 227 "../chibios_2.4.x/test/testmbox.c" 1
 1160 074a 83F31188 		msr     BASEPRI, r3
 1161              	@ 0 "" 2
 1162              	.LVL173:
 1163              		.thumb
 1164              	.LBE152:
 1165 074e FFF7FEFF 		bl	dbg_check_lock
 1166              	.LVL174:
 1167 0752 626A     		ldr	r2, [r4, #36]
 1168 0754 2C20     		movs	r0, #44
 1169 0756 A2F10501 		sub	r1, r2, #5
 1170 075a D1F1000C 		rsbs	ip, r1, #0
 1171 075e 4CEB0101 		adc	r1, ip, r1
 1172 0762 FFF7FEFF 		bl	_test_assert
 1173 0766 0028     		cmp	r0, #0
 1174 0768 47D1     		bne	.L22
 1175 076a FFF7FEFF 		bl	dbg_check_unlock
 1176              	.LBB153:
 1177 076e 2B46     		mov	r3, r5
 1178              	.LVL175:
 1179              	@ 227 "../chibios_2.4.x/test/testmbox.c" 1
 1180 0770 83F31188 		msr     BASEPRI, r3
 1181              	@ 0 "" 2
 1182              	.LVL176:
 1183              		.thumb
 1184              	.LBE153:
 1185              	.LBB154:
 1186              		.loc 1 228 0
 1187 0774 2023     		movs	r3, #32
 1188              	.LVL177:
 1189              	@ 228 "../chibios_2.4.x/test/testmbox.c" 1
 1190 0776 83F31188 		msr     BASEPRI, r3
 1191              	@ 0 "" 2
 1192              	.LVL178:
 1193              		.thumb
 1194              	.LBE154:
 1195 077a FFF7FEFF 		bl	dbg_check_lock
ARM GAS  C:\Users\z80\AppData\Local\Temp\cclZliZY.s 			page 22


 1196              	.LVL179:
 1197 077e A369     		ldr	r3, [r4, #24]
 1198 0780 2D20     		movs	r0, #45
 1199 0782 D3F10101 		rsbs	r1, r3, #1
 1200 0786 38BF     		it	cc
 1201 0788 0021     		movcc	r1, #0
 1202 078a FFF7FEFF 		bl	_test_assert
 1203 078e A0BB     		cbnz	r0, .L22
 1204 0790 FFF7FEFF 		bl	dbg_check_unlock
 1205              	.LBB155:
 1206 0794 2B46     		mov	r3, r5
 1207              	.LVL180:
 1208              	@ 228 "../chibios_2.4.x/test/testmbox.c" 1
 1209 0796 83F31188 		msr     BASEPRI, r3
 1210              	@ 0 "" 2
 1211              	.LVL181:
 1212              		.thumb
 1213              	.LBE155:
 1214              	.LBB156:
 1215              		.loc 1 229 0
 1216 079a 2023     		movs	r3, #32
 1217              	.LVL182:
 1218              	@ 229 "../chibios_2.4.x/test/testmbox.c" 1
 1219 079c 83F31188 		msr     BASEPRI, r3
 1220              	@ 0 "" 2
 1221              	.LVL183:
 1222              		.thumb
 1223              	.LBE156:
 1224 07a0 FFF7FEFF 		bl	dbg_check_lock
 1225              	.LVL184:
 1226 07a4 2268     		ldr	r2, [r4, #0]
 1227 07a6 A368     		ldr	r3, [r4, #8]
 1228 07a8 2E20     		movs	r0, #46
 1229 07aa D11A     		subs	r1, r2, r3
 1230 07ac D1F1000C 		rsbs	ip, r1, #0
 1231 07b0 4CEB0101 		adc	r1, ip, r1
 1232 07b4 FFF7FEFF 		bl	_test_assert
 1233 07b8 F8B9     		cbnz	r0, .L22
 1234 07ba FFF7FEFF 		bl	dbg_check_unlock
 1235              	.LBB157:
 1236 07be 2B46     		mov	r3, r5
 1237              	.LVL185:
 1238              	@ 229 "../chibios_2.4.x/test/testmbox.c" 1
 1239 07c0 83F31188 		msr     BASEPRI, r3
 1240              	@ 0 "" 2
 1241              	.LVL186:
 1242              		.thumb
 1243              	.LBE157:
 1244              	.LBB158:
 1245              		.loc 1 230 0
 1246 07c4 2023     		movs	r3, #32
 1247              	.LVL187:
 1248              	@ 230 "../chibios_2.4.x/test/testmbox.c" 1
 1249 07c6 83F31188 		msr     BASEPRI, r3
 1250              	@ 0 "" 2
 1251              	.LVL188:
 1252              		.thumb
ARM GAS  C:\Users\z80\AppData\Local\Temp\cclZliZY.s 			page 23


 1253              	.LBE158:
 1254 07ca FFF7FEFF 		bl	dbg_check_lock
 1255              	.LVL189:
 1256 07ce 2368     		ldr	r3, [r4, #0]
 1257 07d0 E268     		ldr	r2, [r4, #12]
 1258 07d2 2F20     		movs	r0, #47
 1259 07d4 991A     		subs	r1, r3, r2
 1260 07d6 D1F1000C 		rsbs	ip, r1, #0
 1261 07da 4CEB0101 		adc	r1, ip, r1
 1262 07de FFF7FEFF 		bl	_test_assert
 1263              	.LVL190:
 1264              	.L19:
 1265 07e2 FFF7FEFF 		bl	dbg_check_unlock
 1266              	.LBB159:
 1267 07e6 0023     		movs	r3, #0
 1268              	@ 230 "../chibios_2.4.x/test/testmbox.c" 1
 1269 07e8 83F31188 		msr     BASEPRI, r3
 1270              	@ 0 "" 2
 1271              	.LVL191:
 1272              		.thumb
 1273 07ec 5FE4     		b	.L2
 1274              	.LVL192:
 1275              	.L23:
 1276              	.LBE159:
 1277              		.loc 1 163 0
 1278 07ee FFF7FEFF 		bl	dbg_check_unlock
 1279              	.LBB160:
 1280 07f2 3346     		mov	r3, r6
 1281              	@ 163 "../chibios_2.4.x/test/testmbox.c" 1
 1282 07f4 83F31188 		msr     BASEPRI, r3
 1283              	@ 0 "" 2
 1284              	.LVL193:
 1285              		.thumb
 1286 07f8 59E4     		b	.L2
 1287              	.LVL194:
 1288              	.L22:
 1289              	.LBE160:
 1290              		.loc 1 229 0
 1291 07fa FFF7FEFF 		bl	dbg_check_unlock
 1292              	.LBB161:
 1293 07fe 2B46     		mov	r3, r5
 1294              	@ 229 "../chibios_2.4.x/test/testmbox.c" 1
 1295 0800 83F31188 		msr     BASEPRI, r3
 1296              	@ 0 "" 2
 1297              	.LVL195:
 1298              		.thumb
 1299 0804 53E4     		b	.L2
 1300              	.LBE161:
 1301              	.LBE117:
 1302              	.LBE116:
 1303              		.cfi_endproc
 1304              	.LFE8:
 1305              		.size	mbox1_execute, .-mbox1_execute
 1306              		.global	patternmbox
 1307              		.global	testmbox1
 1308 0806 00BFAFF3 		.section	.data.mb1,"aw",%progbits
 1308      0080AFF3 
ARM GAS  C:\Users\z80\AppData\Local\Temp\cclZliZY.s 			page 24


 1308      0080
 1309              		.align	2
 1310              		.set	.LANCHOR0,. + 0
 1311              		.type	mb1, %object
 1312              		.size	mb1, 40
 1313              	mb1:
 1314 0000 00000000 		.word	test
 1315 0004 14000000 		.word	test+20
 1316 0008 00000000 		.word	test
 1317 000c 00000000 		.word	test
 1318 0010 10000000 		.word	mb1+16
 1319 0014 10000000 		.word	mb1+16
 1320 0018 00000000 		.word	0
 1321 001c 1C000000 		.word	mb1+28
 1322 0020 1C000000 		.word	mb1+28
 1323 0024 05000000 		.word	5
 1324              		.section	.rodata.patternmbox,"a",%progbits
 1325              		.align	2
 1326              		.type	patternmbox, %object
 1327              		.size	patternmbox, 8
 1328              	patternmbox:
 1329 0000 00000000 		.word	testmbox1
 1330 0004 00000000 		.word	0
 1331              		.section	.rodata.str1.4,"aMS",%progbits,1
 1332              		.align	2
 1333              	.LC0:
 1334 0000 41424344 		.ascii	"ABCDE\000"
 1334      4500
 1335 0006 0000     		.space	2
 1336              	.LC1:
 1337 0008 4D61696C 		.ascii	"Mailboxes, queuing and timeouts\000"
 1337      626F7865 
 1337      732C2071 
 1337      75657569 
 1337      6E672061 
 1338              		.section	.rodata.testmbox1,"a",%progbits
 1339              		.align	2
 1340              		.type	testmbox1, %object
 1341              		.size	testmbox1, 16
 1342              	testmbox1:
 1343 0000 08000000 		.word	.LC1
 1344 0004 00000000 		.word	mbox1_setup
 1345 0008 00000000 		.word	0
 1346 000c 00000000 		.word	mbox1_execute
 1347              		.text
 1348              	.Letext0:
 1349              		.file 2 "c:\\programs\\codesourcery\\2011.03-56\\bin\\../lib/gcc/arm-none-eabi/4.6.3/../../../../a
 1350              		.file 3 "../chibios_2.4.x/os/ports/GCC/ARMCMx/chtypes.h"
 1351              		.file 4 "../chibios_2.4.x/os/kernel/include/chlists.h"
 1352              		.file 5 "../chibios_2.4.x/os/kernel/include/chthreads.h"
 1353              		.file 6 "../chibios_2.4.x/os/ports/GCC/ARMCMx/chcore_v7m.h"
 1354              		.file 7 "../chibios_2.4.x/os/kernel/include/chsem.h"
 1355              		.file 8 "../chibios_2.4.x/os/kernel/include/chmtx.h"
 1356              		.file 9 "../chibios_2.4.x/os/kernel/include/chmboxes.h"
 1357              		.file 10 "../chibios_2.4.x/test/test.h"
 1358              		.section	.debug_info,"",%progbits
 1359              	.Ldebug_info0:
ARM GAS  C:\Users\z80\AppData\Local\Temp\cclZliZY.s 			page 25


 1360 0000 DF0D0000 		.4byte	0xddf
 1361 0004 0200     		.2byte	0x2
 1362 0006 00000000 		.4byte	.Ldebug_abbrev0
 1363 000a 04       		.byte	0x4
 1364 000b 01       		.uleb128 0x1
 1365 000c 68020000 		.4byte	.LASF74
 1366 0010 01       		.byte	0x1
 1367 0011 A3020000 		.4byte	.LASF75
 1368 0015 88000000 		.4byte	.LASF76
 1369 0019 00000000 		.4byte	0
 1370 001d 00000000 		.4byte	0
 1371 0021 00000000 		.4byte	.Ldebug_ranges0+0
 1372 0025 00000000 		.4byte	.Ldebug_line0
 1373 0029 02       		.uleb128 0x2
 1374 002a 04       		.byte	0x4
 1375 002b 05       		.byte	0x5
 1376 002c 696E7400 		.ascii	"int\000"
 1377 0030 03       		.uleb128 0x3
 1378 0031 04       		.byte	0x4
 1379 0032 07       		.byte	0x7
 1380 0033 F1000000 		.4byte	.LASF0
 1381 0037 03       		.uleb128 0x3
 1382 0038 01       		.byte	0x1
 1383 0039 06       		.byte	0x6
 1384 003a 74000000 		.4byte	.LASF1
 1385 003e 04       		.uleb128 0x4
 1386 003f F1020000 		.4byte	.LASF5
 1387 0043 02       		.byte	0x2
 1388 0044 2A       		.byte	0x2a
 1389 0045 49000000 		.4byte	0x49
 1390 0049 03       		.uleb128 0x3
 1391 004a 01       		.byte	0x1
 1392 004b 08       		.byte	0x8
 1393 004c FD010000 		.4byte	.LASF2
 1394 0050 03       		.uleb128 0x3
 1395 0051 02       		.byte	0x2
 1396 0052 05       		.byte	0x5
 1397 0053 1C020000 		.4byte	.LASF3
 1398 0057 03       		.uleb128 0x3
 1399 0058 02       		.byte	0x2
 1400 0059 07       		.byte	0x7
 1401 005a 42010000 		.4byte	.LASF4
 1402 005e 04       		.uleb128 0x4
 1403 005f F5010000 		.4byte	.LASF6
 1404 0063 02       		.byte	0x2
 1405 0064 4F       		.byte	0x4f
 1406 0065 69000000 		.4byte	0x69
 1407 0069 03       		.uleb128 0x3
 1408 006a 04       		.byte	0x4
 1409 006b 05       		.byte	0x5
 1410 006c B5000000 		.4byte	.LASF7
 1411 0070 04       		.uleb128 0x4
 1412 0071 5F020000 		.4byte	.LASF8
 1413 0075 02       		.byte	0x2
 1414 0076 50       		.byte	0x50
 1415 0077 7B000000 		.4byte	0x7b
 1416 007b 03       		.uleb128 0x3
ARM GAS  C:\Users\z80\AppData\Local\Temp\cclZliZY.s 			page 26


 1417 007c 04       		.byte	0x4
 1418 007d 07       		.byte	0x7
 1419 007e 08010000 		.4byte	.LASF9
 1420 0082 03       		.uleb128 0x3
 1421 0083 08       		.byte	0x8
 1422 0084 05       		.byte	0x5
 1423 0085 66000000 		.4byte	.LASF10
 1424 0089 04       		.uleb128 0x4
 1425 008a 14000000 		.4byte	.LASF11
 1426 008e 02       		.byte	0x2
 1427 008f 78       		.byte	0x78
 1428 0090 94000000 		.4byte	0x94
 1429 0094 03       		.uleb128 0x3
 1430 0095 08       		.byte	0x8
 1431 0096 07       		.byte	0x7
 1432 0097 25000000 		.4byte	.LASF12
 1433 009b 04       		.uleb128 0x4
 1434 009c 5B010000 		.4byte	.LASF13
 1435 00a0 03       		.byte	0x3
 1436 00a1 2F       		.byte	0x2f
 1437 00a2 3E000000 		.4byte	0x3e
 1438 00a6 04       		.uleb128 0x4
 1439 00a7 BE000000 		.4byte	.LASF14
 1440 00ab 03       		.byte	0x3
 1441 00ac 30       		.byte	0x30
 1442 00ad 3E000000 		.4byte	0x3e
 1443 00b1 04       		.uleb128 0x4
 1444 00b2 ED010000 		.4byte	.LASF15
 1445 00b6 03       		.byte	0x3
 1446 00b7 32       		.byte	0x32
 1447 00b8 70000000 		.4byte	0x70
 1448 00bc 04       		.uleb128 0x4
 1449 00bd 55010000 		.4byte	.LASF16
 1450 00c1 03       		.byte	0x3
 1451 00c2 33       		.byte	0x33
 1452 00c3 5E000000 		.4byte	0x5e
 1453 00c7 04       		.uleb128 0x4
 1454 00c8 7B010000 		.4byte	.LASF17
 1455 00cc 03       		.byte	0x3
 1456 00cd 35       		.byte	0x35
 1457 00ce 70000000 		.4byte	0x70
 1458 00d2 04       		.uleb128 0x4
 1459 00d3 80020000 		.4byte	.LASF18
 1460 00d7 03       		.byte	0x3
 1461 00d8 36       		.byte	0x36
 1462 00d9 70000000 		.4byte	0x70
 1463 00dd 04       		.uleb128 0x4
 1464 00de E0000000 		.4byte	.LASF19
 1465 00e2 03       		.byte	0x3
 1466 00e3 37       		.byte	0x37
 1467 00e4 5E000000 		.4byte	0x5e
 1468 00e8 04       		.uleb128 0x4
 1469 00e9 44020000 		.4byte	.LASF20
 1470 00ed 04       		.byte	0x4
 1471 00ee 2A       		.byte	0x2a
 1472 00ef F3000000 		.4byte	0xf3
 1473 00f3 05       		.uleb128 0x5
ARM GAS  C:\Users\z80\AppData\Local\Temp\cclZliZY.s 			page 27


 1474 00f4 44020000 		.4byte	.LASF20
 1475 00f8 48       		.byte	0x48
 1476 00f9 05       		.byte	0x5
 1477 00fa 5E       		.byte	0x5e
 1478 00fb FC010000 		.4byte	0x1fc
 1479 00ff 06       		.uleb128 0x6
 1480 0100 35020000 		.4byte	.LASF21
 1481 0104 05       		.byte	0x5
 1482 0105 5F       		.byte	0x5f
 1483 0106 21020000 		.4byte	0x221
 1484 010a 02       		.byte	0x2
 1485 010b 23       		.byte	0x23
 1486 010c 00       		.uleb128 0
 1487 010d 06       		.uleb128 0x6
 1488 010e DE010000 		.4byte	.LASF22
 1489 0112 05       		.byte	0x5
 1490 0113 61       		.byte	0x61
 1491 0114 21020000 		.4byte	0x221
 1492 0118 02       		.byte	0x2
 1493 0119 23       		.byte	0x23
 1494 011a 04       		.uleb128 0x4
 1495 011b 06       		.uleb128 0x6
 1496 011c 5F000000 		.4byte	.LASF23
 1497 0120 05       		.byte	0x5
 1498 0121 63       		.byte	0x63
 1499 0122 B1000000 		.4byte	0xb1
 1500 0126 02       		.byte	0x2
 1501 0127 23       		.byte	0x23
 1502 0128 08       		.uleb128 0x8
 1503 0129 06       		.uleb128 0x6
 1504 012a 0F030000 		.4byte	.LASF24
 1505 012e 05       		.byte	0x5
 1506 012f 64       		.byte	0x64
 1507 0130 F9020000 		.4byte	0x2f9
 1508 0134 02       		.byte	0x2
 1509 0135 23       		.byte	0x23
 1510 0136 0C       		.uleb128 0xc
 1511 0137 06       		.uleb128 0x6
 1512 0138 C7000000 		.4byte	.LASF25
 1513 013c 05       		.byte	0x5
 1514 013d 66       		.byte	0x66
 1515 013e 21020000 		.4byte	0x221
 1516 0142 02       		.byte	0x2
 1517 0143 23       		.byte	0x23
 1518 0144 10       		.uleb128 0x10
 1519 0145 06       		.uleb128 0x6
 1520 0146 AB010000 		.4byte	.LASF26
 1521 014a 05       		.byte	0x5
 1522 014b 67       		.byte	0x67
 1523 014c 21020000 		.4byte	0x221
 1524 0150 02       		.byte	0x2
 1525 0151 23       		.byte	0x23
 1526 0152 14       		.uleb128 0x14
 1527 0153 06       		.uleb128 0x6
 1528 0154 00030000 		.4byte	.LASF27
 1529 0158 05       		.byte	0x5
 1530 0159 6E       		.byte	0x6e
ARM GAS  C:\Users\z80\AppData\Local\Temp\cclZliZY.s 			page 28


 1531 015a 40040000 		.4byte	0x440
 1532 015e 02       		.byte	0x2
 1533 015f 23       		.byte	0x23
 1534 0160 18       		.uleb128 0x18
 1535 0161 06       		.uleb128 0x6
 1536 0162 E6000000 		.4byte	.LASF28
 1537 0166 05       		.byte	0x5
 1538 0167 74       		.byte	0x74
 1539 0168 52040000 		.4byte	0x452
 1540 016c 02       		.byte	0x2
 1541 016d 23       		.byte	0x23
 1542 016e 1C       		.uleb128 0x1c
 1543 016f 06       		.uleb128 0x6
 1544 0170 26020000 		.4byte	.LASF29
 1545 0174 05       		.byte	0x5
 1546 0175 79       		.byte	0x79
 1547 0176 A6000000 		.4byte	0xa6
 1548 017a 02       		.byte	0x2
 1549 017b 23       		.byte	0x23
 1550 017c 20       		.uleb128 0x20
 1551 017d 06       		.uleb128 0x6
 1552 017e 3C020000 		.4byte	.LASF30
 1553 0182 05       		.byte	0x5
 1554 0183 7D       		.byte	0x7d
 1555 0184 9B000000 		.4byte	0x9b
 1556 0188 02       		.byte	0x2
 1557 0189 23       		.byte	0x23
 1558 018a 21       		.uleb128 0x21
 1559 018b 06       		.uleb128 0x6
 1560 018c 9C020000 		.4byte	.LASF31
 1561 0190 05       		.byte	0x5
 1562 0191 89       		.byte	0x89
 1563 0192 1C030000 		.4byte	0x31c
 1564 0196 02       		.byte	0x2
 1565 0197 23       		.byte	0x23
 1566 0198 24       		.uleb128 0x24
 1567 0199 07       		.uleb128 0x7
 1568 019a 705F7500 		.ascii	"p_u\000"
 1569 019e 05       		.byte	0x5
 1570 019f AE       		.byte	0xae
 1571 01a0 0B040000 		.4byte	0x40b
 1572 01a4 02       		.byte	0x2
 1573 01a5 23       		.byte	0x23
 1574 01a6 28       		.uleb128 0x28
 1575 01a7 06       		.uleb128 0x6
 1576 01a8 15030000 		.4byte	.LASF32
 1577 01ac 05       		.byte	0x5
 1578 01ad B3       		.byte	0xb3
 1579 01ae 49020000 		.4byte	0x249
 1580 01b2 02       		.byte	0x2
 1581 01b3 23       		.byte	0x23
 1582 01b4 2C       		.uleb128 0x2c
 1583 01b5 06       		.uleb128 0x6
 1584 01b6 C4020000 		.4byte	.LASF33
 1585 01ba 05       		.byte	0x5
 1586 01bb B9       		.byte	0xb9
 1587 01bc 27020000 		.4byte	0x227
ARM GAS  C:\Users\z80\AppData\Local\Temp\cclZliZY.s 			page 29


 1588 01c0 02       		.byte	0x2
 1589 01c1 23       		.byte	0x23
 1590 01c2 30       		.uleb128 0x30
 1591 01c3 06       		.uleb128 0x6
 1592 01c4 07000000 		.4byte	.LASF34
 1593 01c8 05       		.byte	0x5
 1594 01c9 BD       		.byte	0xbd
 1595 01ca BC000000 		.4byte	0xbc
 1596 01ce 02       		.byte	0x2
 1597 01cf 23       		.byte	0x23
 1598 01d0 38       		.uleb128 0x38
 1599 01d1 06       		.uleb128 0x6
 1600 01d2 54020000 		.4byte	.LASF35
 1601 01d6 05       		.byte	0x5
 1602 01d7 C3       		.byte	0xc3
 1603 01d8 C7000000 		.4byte	0xc7
 1604 01dc 02       		.byte	0x2
 1605 01dd 23       		.byte	0x23
 1606 01de 3C       		.uleb128 0x3c
 1607 01df 06       		.uleb128 0x6
 1608 01e0 12020000 		.4byte	.LASF36
 1609 01e4 05       		.byte	0x5
 1610 01e5 CA       		.byte	0xca
 1611 01e6 58040000 		.4byte	0x458
 1612 01ea 02       		.byte	0x2
 1613 01eb 23       		.byte	0x23
 1614 01ec 40       		.uleb128 0x40
 1615 01ed 06       		.uleb128 0x6
 1616 01ee 8A020000 		.4byte	.LASF37
 1617 01f2 05       		.byte	0x5
 1618 01f3 CE       		.byte	0xce
 1619 01f4 B1000000 		.4byte	0xb1
 1620 01f8 02       		.byte	0x2
 1621 01f9 23       		.byte	0x23
 1622 01fa 44       		.uleb128 0x44
 1623 01fb 00       		.byte	0
 1624 01fc 08       		.uleb128 0x8
 1625 01fd 08       		.byte	0x8
 1626 01fe 04       		.byte	0x4
 1627 01ff 61       		.byte	0x61
 1628 0200 21020000 		.4byte	0x221
 1629 0204 06       		.uleb128 0x6
 1630 0205 35020000 		.4byte	.LASF21
 1631 0209 04       		.byte	0x4
 1632 020a 62       		.byte	0x62
 1633 020b 21020000 		.4byte	0x221
 1634 020f 02       		.byte	0x2
 1635 0210 23       		.byte	0x23
 1636 0211 00       		.uleb128 0
 1637 0212 06       		.uleb128 0x6
 1638 0213 DE010000 		.4byte	.LASF22
 1639 0217 04       		.byte	0x4
 1640 0218 64       		.byte	0x64
 1641 0219 21020000 		.4byte	0x221
 1642 021d 02       		.byte	0x2
 1643 021e 23       		.byte	0x23
 1644 021f 04       		.uleb128 0x4
ARM GAS  C:\Users\z80\AppData\Local\Temp\cclZliZY.s 			page 30


 1645 0220 00       		.byte	0
 1646 0221 09       		.uleb128 0x9
 1647 0222 04       		.byte	0x4
 1648 0223 E8000000 		.4byte	0xe8
 1649 0227 04       		.uleb128 0x4
 1650 0228 B3010000 		.4byte	.LASF38
 1651 022c 04       		.byte	0x4
 1652 022d 66       		.byte	0x66
 1653 022e FC010000 		.4byte	0x1fc
 1654 0232 08       		.uleb128 0x8
 1655 0233 04       		.byte	0x4
 1656 0234 04       		.byte	0x4
 1657 0235 6B       		.byte	0x6b
 1658 0236 49020000 		.4byte	0x249
 1659 023a 06       		.uleb128 0x6
 1660 023b 35020000 		.4byte	.LASF21
 1661 023f 04       		.byte	0x4
 1662 0240 6D       		.byte	0x6d
 1663 0241 21020000 		.4byte	0x221
 1664 0245 02       		.byte	0x2
 1665 0246 23       		.byte	0x23
 1666 0247 00       		.uleb128 0
 1667 0248 00       		.byte	0
 1668 0249 04       		.uleb128 0x4
 1669 024a 6F010000 		.4byte	.LASF39
 1670 024e 04       		.byte	0x4
 1671 024f 70       		.byte	0x70
 1672 0250 32020000 		.4byte	0x232
 1673 0254 04       		.uleb128 0x4
 1674 0255 D7000000 		.4byte	.LASF40
 1675 0259 06       		.byte	0x6
 1676 025a D7       		.byte	0xd7
 1677 025b 5F020000 		.4byte	0x25f
 1678 025f 0A       		.uleb128 0xa
 1679 0260 04       		.byte	0x4
 1680 0261 04       		.uleb128 0x4
 1681 0262 97010000 		.4byte	.LASF41
 1682 0266 06       		.byte	0x6
 1683 0267 DD       		.byte	0xdd
 1684 0268 89000000 		.4byte	0x89
 1685 026c 05       		.uleb128 0x5
 1686 026d 00000000 		.4byte	.LASF42
 1687 0271 24       		.byte	0x24
 1688 0272 06       		.byte	0x6
 1689 0273 FE       		.byte	0xfe
 1690 0274 F9020000 		.4byte	0x2f9
 1691 0278 0B       		.uleb128 0xb
 1692 0279 723400   		.ascii	"r4\000"
 1693 027c 06       		.byte	0x6
 1694 027d 1101     		.2byte	0x111
 1695 027f 54020000 		.4byte	0x254
 1696 0283 02       		.byte	0x2
 1697 0284 23       		.byte	0x23
 1698 0285 00       		.uleb128 0
 1699 0286 0B       		.uleb128 0xb
 1700 0287 723500   		.ascii	"r5\000"
 1701 028a 06       		.byte	0x6
ARM GAS  C:\Users\z80\AppData\Local\Temp\cclZliZY.s 			page 31


 1702 028b 1201     		.2byte	0x112
 1703 028d 54020000 		.4byte	0x254
 1704 0291 02       		.byte	0x2
 1705 0292 23       		.byte	0x23
 1706 0293 04       		.uleb128 0x4
 1707 0294 0B       		.uleb128 0xb
 1708 0295 723600   		.ascii	"r6\000"
 1709 0298 06       		.byte	0x6
 1710 0299 1301     		.2byte	0x113
 1711 029b 54020000 		.4byte	0x254
 1712 029f 02       		.byte	0x2
 1713 02a0 23       		.byte	0x23
 1714 02a1 08       		.uleb128 0x8
 1715 02a2 0B       		.uleb128 0xb
 1716 02a3 723700   		.ascii	"r7\000"
 1717 02a6 06       		.byte	0x6
 1718 02a7 1401     		.2byte	0x114
 1719 02a9 54020000 		.4byte	0x254
 1720 02ad 02       		.byte	0x2
 1721 02ae 23       		.byte	0x23
 1722 02af 0C       		.uleb128 0xc
 1723 02b0 0B       		.uleb128 0xb
 1724 02b1 723800   		.ascii	"r8\000"
 1725 02b4 06       		.byte	0x6
 1726 02b5 1501     		.2byte	0x115
 1727 02b7 54020000 		.4byte	0x254
 1728 02bb 02       		.byte	0x2
 1729 02bc 23       		.byte	0x23
 1730 02bd 10       		.uleb128 0x10
 1731 02be 0B       		.uleb128 0xb
 1732 02bf 723900   		.ascii	"r9\000"
 1733 02c2 06       		.byte	0x6
 1734 02c3 1601     		.2byte	0x116
 1735 02c5 54020000 		.4byte	0x254
 1736 02c9 02       		.byte	0x2
 1737 02ca 23       		.byte	0x23
 1738 02cb 14       		.uleb128 0x14
 1739 02cc 0B       		.uleb128 0xb
 1740 02cd 72313000 		.ascii	"r10\000"
 1741 02d1 06       		.byte	0x6
 1742 02d2 1701     		.2byte	0x117
 1743 02d4 54020000 		.4byte	0x254
 1744 02d8 02       		.byte	0x2
 1745 02d9 23       		.byte	0x23
 1746 02da 18       		.uleb128 0x18
 1747 02db 0B       		.uleb128 0xb
 1748 02dc 72313100 		.ascii	"r11\000"
 1749 02e0 06       		.byte	0x6
 1750 02e1 1801     		.2byte	0x118
 1751 02e3 54020000 		.4byte	0x254
 1752 02e7 02       		.byte	0x2
 1753 02e8 23       		.byte	0x23
 1754 02e9 1C       		.uleb128 0x1c
 1755 02ea 0B       		.uleb128 0xb
 1756 02eb 6C7200   		.ascii	"lr\000"
 1757 02ee 06       		.byte	0x6
 1758 02ef 1901     		.2byte	0x119
ARM GAS  C:\Users\z80\AppData\Local\Temp\cclZliZY.s 			page 32


 1759 02f1 54020000 		.4byte	0x254
 1760 02f5 02       		.byte	0x2
 1761 02f6 23       		.byte	0x23
 1762 02f7 20       		.uleb128 0x20
 1763 02f8 00       		.byte	0
 1764 02f9 0C       		.uleb128 0xc
 1765 02fa 3A010000 		.4byte	.LASF43
 1766 02fe 04       		.byte	0x4
 1767 02ff 06       		.byte	0x6
 1768 0300 2301     		.2byte	0x123
 1769 0302 16030000 		.4byte	0x316
 1770 0306 0B       		.uleb128 0xb
 1771 0307 72313300 		.ascii	"r13\000"
 1772 030b 06       		.byte	0x6
 1773 030c 2401     		.2byte	0x124
 1774 030e 16030000 		.4byte	0x316
 1775 0312 02       		.byte	0x2
 1776 0313 23       		.byte	0x23
 1777 0314 00       		.uleb128 0
 1778 0315 00       		.byte	0
 1779 0316 09       		.uleb128 0x9
 1780 0317 04       		.byte	0x4
 1781 0318 6C020000 		.4byte	0x26c
 1782 031c 0D       		.uleb128 0xd
 1783 031d D2000000 		.4byte	0xd2
 1784 0321 05       		.uleb128 0x5
 1785 0322 CF020000 		.4byte	.LASF44
 1786 0326 0C       		.byte	0xc
 1787 0327 07       		.byte	0x7
 1788 0328 2C       		.byte	0x2c
 1789 0329 4A030000 		.4byte	0x34a
 1790 032d 06       		.uleb128 0x6
 1791 032e CF000000 		.4byte	.LASF45
 1792 0332 07       		.byte	0x7
 1793 0333 2D       		.byte	0x2d
 1794 0334 27020000 		.4byte	0x227
 1795 0338 02       		.byte	0x2
 1796 0339 23       		.byte	0x23
 1797 033a 00       		.uleb128 0
 1798 033b 06       		.uleb128 0x6
 1799 033c 34010000 		.4byte	.LASF46
 1800 0340 07       		.byte	0x7
 1801 0341 2F       		.byte	0x2f
 1802 0342 DD000000 		.4byte	0xdd
 1803 0346 02       		.byte	0x2
 1804 0347 23       		.byte	0x23
 1805 0348 08       		.uleb128 0x8
 1806 0349 00       		.byte	0
 1807 034a 04       		.uleb128 0x4
 1808 034b CF020000 		.4byte	.LASF44
 1809 034f 07       		.byte	0x7
 1810 0350 30       		.byte	0x30
 1811 0351 21030000 		.4byte	0x321
 1812 0355 05       		.uleb128 0x5
 1813 0356 87010000 		.4byte	.LASF47
 1814 035a 10       		.byte	0x10
 1815 035b 08       		.byte	0x8
ARM GAS  C:\Users\z80\AppData\Local\Temp\cclZliZY.s 			page 33


 1816 035c 2C       		.byte	0x2c
 1817 035d 8C030000 		.4byte	0x38c
 1818 0361 06       		.uleb128 0x6
 1819 0362 80000000 		.4byte	.LASF48
 1820 0366 08       		.byte	0x8
 1821 0367 2D       		.byte	0x2d
 1822 0368 27020000 		.4byte	0x227
 1823 036c 02       		.byte	0x2
 1824 036d 23       		.byte	0x23
 1825 036e 00       		.uleb128 0
 1826 036f 06       		.uleb128 0x6
 1827 0370 07030000 		.4byte	.LASF49
 1828 0374 08       		.byte	0x8
 1829 0375 2F       		.byte	0x2f
 1830 0376 21020000 		.4byte	0x221
 1831 037a 02       		.byte	0x2
 1832 037b 23       		.byte	0x23
 1833 037c 08       		.uleb128 0x8
 1834 037d 06       		.uleb128 0x6
 1835 037e 79020000 		.4byte	.LASF50
 1836 0382 08       		.byte	0x8
 1837 0383 31       		.byte	0x31
 1838 0384 8C030000 		.4byte	0x38c
 1839 0388 02       		.byte	0x2
 1840 0389 23       		.byte	0x23
 1841 038a 0C       		.uleb128 0xc
 1842 038b 00       		.byte	0
 1843 038c 09       		.uleb128 0x9
 1844 038d 04       		.byte	0x4
 1845 038e 55030000 		.4byte	0x355
 1846 0392 04       		.uleb128 0x4
 1847 0393 87010000 		.4byte	.LASF47
 1848 0397 08       		.byte	0x8
 1849 0398 33       		.byte	0x33
 1850 0399 55030000 		.4byte	0x355
 1851 039d 08       		.uleb128 0x8
 1852 039e 28       		.byte	0x28
 1853 039f 09       		.byte	0x9
 1854 03a0 33       		.byte	0x33
 1855 03a1 FA030000 		.4byte	0x3fa
 1856 03a5 06       		.uleb128 0x6
 1857 03a6 C6010000 		.4byte	.LASF51
 1858 03aa 09       		.byte	0x9
 1859 03ab 34       		.byte	0x34
 1860 03ac FA030000 		.4byte	0x3fa
 1861 03b0 02       		.byte	0x2
 1862 03b1 23       		.byte	0x23
 1863 03b2 00       		.uleb128 0
 1864 03b3 06       		.uleb128 0x6
 1865 03b4 0B020000 		.4byte	.LASF52
 1866 03b8 09       		.byte	0x9
 1867 03b9 36       		.byte	0x36
 1868 03ba FA030000 		.4byte	0x3fa
 1869 03be 02       		.byte	0x2
 1870 03bf 23       		.byte	0x23
 1871 03c0 04       		.uleb128 0x4
 1872 03c1 06       		.uleb128 0x6
ARM GAS  C:\Users\z80\AppData\Local\Temp\cclZliZY.s 			page 34


 1873 03c2 56000000 		.4byte	.LASF53
 1874 03c6 09       		.byte	0x9
 1875 03c7 38       		.byte	0x38
 1876 03c8 FA030000 		.4byte	0x3fa
 1877 03cc 02       		.byte	0x2
 1878 03cd 23       		.byte	0x23
 1879 03ce 08       		.uleb128 0x8
 1880 03cf 06       		.uleb128 0x6
 1881 03d0 A2010000 		.4byte	.LASF54
 1882 03d4 09       		.byte	0x9
 1883 03d5 39       		.byte	0x39
 1884 03d6 FA030000 		.4byte	0x3fa
 1885 03da 02       		.byte	0x2
 1886 03db 23       		.byte	0x23
 1887 03dc 0C       		.uleb128 0xc
 1888 03dd 06       		.uleb128 0x6
 1889 03de D9020000 		.4byte	.LASF55
 1890 03e2 09       		.byte	0x9
 1891 03e3 3A       		.byte	0x3a
 1892 03e4 4A030000 		.4byte	0x34a
 1893 03e8 02       		.byte	0x2
 1894 03e9 23       		.byte	0x23
 1895 03ea 10       		.uleb128 0x10
 1896 03eb 06       		.uleb128 0x6
 1897 03ec 23010000 		.4byte	.LASF56
 1898 03f0 09       		.byte	0x9
 1899 03f1 3C       		.byte	0x3c
 1900 03f2 4A030000 		.4byte	0x34a
 1901 03f6 02       		.byte	0x2
 1902 03f7 23       		.byte	0x23
 1903 03f8 1C       		.uleb128 0x1c
 1904 03f9 00       		.byte	0
 1905 03fa 09       		.uleb128 0x9
 1906 03fb 04       		.byte	0x4
 1907 03fc BC000000 		.4byte	0xbc
 1908 0400 04       		.uleb128 0x4
 1909 0401 1D000000 		.4byte	.LASF57
 1910 0405 09       		.byte	0x9
 1911 0406 3E       		.byte	0x3e
 1912 0407 9D030000 		.4byte	0x39d
 1913 040b 0E       		.uleb128 0xe
 1914 040c 04       		.byte	0x4
 1915 040d 05       		.byte	0x5
 1916 040e 90       		.byte	0x90
 1917 040f 40040000 		.4byte	0x440
 1918 0413 0F       		.uleb128 0xf
 1919 0414 0D000000 		.4byte	.LASF58
 1920 0418 05       		.byte	0x5
 1921 0419 97       		.byte	0x97
 1922 041a BC000000 		.4byte	0xbc
 1923 041e 0F       		.uleb128 0xf
 1924 041f 48000000 		.4byte	.LASF59
 1925 0423 05       		.byte	0x5
 1926 0424 9E       		.byte	0x9e
 1927 0425 BC000000 		.4byte	0xbc
 1928 0429 0F       		.uleb128 0xf
 1929 042a F9020000 		.4byte	.LASF60
ARM GAS  C:\Users\z80\AppData\Local\Temp\cclZliZY.s 			page 35


 1930 042e 05       		.byte	0x5
 1931 042f A5       		.byte	0xa5
 1932 0430 5F020000 		.4byte	0x25f
 1933 0434 0F       		.uleb128 0xf
 1934 0435 2E020000 		.4byte	.LASF61
 1935 0439 05       		.byte	0x5
 1936 043a AC       		.byte	0xac
 1937 043b C7000000 		.4byte	0xc7
 1938 043f 00       		.byte	0
 1939 0440 09       		.uleb128 0x9
 1940 0441 04       		.byte	0x4
 1941 0442 46040000 		.4byte	0x446
 1942 0446 10       		.uleb128 0x10
 1943 0447 4B040000 		.4byte	0x44b
 1944 044b 03       		.uleb128 0x3
 1945 044c 01       		.byte	0x1
 1946 044d 08       		.byte	0x8
 1947 044e 74020000 		.4byte	.LASF62
 1948 0452 09       		.uleb128 0x9
 1949 0453 04       		.byte	0x4
 1950 0454 61020000 		.4byte	0x261
 1951 0458 09       		.uleb128 0x9
 1952 0459 04       		.byte	0x4
 1953 045a 92030000 		.4byte	0x392
 1954 045e 05       		.uleb128 0x5
 1955 045f 4B020000 		.4byte	.LASF63
 1956 0463 10       		.byte	0x10
 1957 0464 0A       		.byte	0xa
 1958 0465 46       		.byte	0x46
 1959 0466 A3040000 		.4byte	0x4a3
 1960 046a 06       		.uleb128 0x6
 1961 046b 2F010000 		.4byte	.LASF64
 1962 046f 0A       		.byte	0xa
 1963 0470 47       		.byte	0x47
 1964 0471 40040000 		.4byte	0x440
 1965 0475 02       		.byte	0x2
 1966 0476 23       		.byte	0x23
 1967 0477 00       		.uleb128 0
 1968 0478 06       		.uleb128 0x6
 1969 0479 C0010000 		.4byte	.LASF65
 1970 047d 0A       		.byte	0xa
 1971 047e 48       		.byte	0x48
 1972 047f A5040000 		.4byte	0x4a5
 1973 0483 02       		.byte	0x2
 1974 0484 23       		.byte	0x23
 1975 0485 04       		.uleb128 0x4
 1976 0486 06       		.uleb128 0x6
 1977 0487 1A010000 		.4byte	.LASF66
 1978 048b 0A       		.byte	0xa
 1979 048c 49       		.byte	0x49
 1980 048d A5040000 		.4byte	0x4a5
 1981 0491 02       		.byte	0x2
 1982 0492 23       		.byte	0x23
 1983 0493 08       		.uleb128 0x8
 1984 0494 06       		.uleb128 0x6
 1985 0495 E5010000 		.4byte	.LASF67
 1986 0499 0A       		.byte	0xa
ARM GAS  C:\Users\z80\AppData\Local\Temp\cclZliZY.s 			page 36


 1987 049a 4A       		.byte	0x4a
 1988 049b A5040000 		.4byte	0x4a5
 1989 049f 02       		.byte	0x2
 1990 04a0 23       		.byte	0x23
 1991 04a1 0C       		.uleb128 0xc
 1992 04a2 00       		.byte	0
 1993 04a3 11       		.uleb128 0x11
 1994 04a4 01       		.byte	0x1
 1995 04a5 09       		.uleb128 0x9
 1996 04a6 04       		.byte	0x4
 1997 04a7 A3040000 		.4byte	0x4a3
 1998 04ab 12       		.uleb128 0x12
 1999 04ac F005     		.2byte	0x5f0
 2000 04ae 0A       		.byte	0xa
 2001 04af 4F       		.byte	0x4f
 2002 04b0 FA040000 		.4byte	0x4fa
 2003 04b4 07       		.uleb128 0x7
 2004 04b5 543000   		.ascii	"T0\000"
 2005 04b8 0A       		.byte	0xa
 2006 04b9 50       		.byte	0x50
 2007 04ba FA040000 		.4byte	0x4fa
 2008 04be 02       		.byte	0x2
 2009 04bf 23       		.byte	0x23
 2010 04c0 00       		.uleb128 0
 2011 04c1 07       		.uleb128 0x7
 2012 04c2 543100   		.ascii	"T1\000"
 2013 04c5 0A       		.byte	0xa
 2014 04c6 51       		.byte	0x51
 2015 04c7 FA040000 		.4byte	0x4fa
 2016 04cb 03       		.byte	0x3
 2017 04cc 23       		.byte	0x23
 2018 04cd B002     		.uleb128 0x130
 2019 04cf 07       		.uleb128 0x7
 2020 04d0 543200   		.ascii	"T2\000"
 2021 04d3 0A       		.byte	0xa
 2022 04d4 52       		.byte	0x52
 2023 04d5 FA040000 		.4byte	0x4fa
 2024 04d9 03       		.byte	0x3
 2025 04da 23       		.byte	0x23
 2026 04db E004     		.uleb128 0x260
 2027 04dd 07       		.uleb128 0x7
 2028 04de 543300   		.ascii	"T3\000"
 2029 04e1 0A       		.byte	0xa
 2030 04e2 53       		.byte	0x53
 2031 04e3 FA040000 		.4byte	0x4fa
 2032 04e7 03       		.byte	0x3
 2033 04e8 23       		.byte	0x23
 2034 04e9 9007     		.uleb128 0x390
 2035 04eb 07       		.uleb128 0x7
 2036 04ec 543400   		.ascii	"T4\000"
 2037 04ef 0A       		.byte	0xa
 2038 04f0 54       		.byte	0x54
 2039 04f1 FA040000 		.4byte	0x4fa
 2040 04f5 03       		.byte	0x3
 2041 04f6 23       		.byte	0x23
 2042 04f7 C009     		.uleb128 0x4c0
 2043 04f9 00       		.byte	0
ARM GAS  C:\Users\z80\AppData\Local\Temp\cclZliZY.s 			page 37


 2044 04fa 13       		.uleb128 0x13
 2045 04fb 61020000 		.4byte	0x261
 2046 04ff 0A050000 		.4byte	0x50a
 2047 0503 14       		.uleb128 0x14
 2048 0504 30000000 		.4byte	0x30
 2049 0508 25       		.byte	0x25
 2050 0509 00       		.byte	0
 2051 050a 15       		.uleb128 0x15
 2052 050b E4020000 		.4byte	.LASF77
 2053 050f F005     		.2byte	0x5f0
 2054 0511 0A       		.byte	0xa
 2055 0512 4E       		.byte	0x4e
 2056 0513 2D050000 		.4byte	0x52d
 2057 0517 16       		.uleb128 0x16
 2058 0518 776100   		.ascii	"wa\000"
 2059 051b 0A       		.byte	0xa
 2060 051c 55       		.byte	0x55
 2061 051d AB040000 		.4byte	0x4ab
 2062 0521 0F       		.uleb128 0xf
 2063 0522 95020000 		.4byte	.LASF68
 2064 0526 0A       		.byte	0xa
 2065 0527 56       		.byte	0x56
 2066 0528 2D050000 		.4byte	0x52d
 2067 052c 00       		.byte	0
 2068 052d 13       		.uleb128 0x13
 2069 052e 3E000000 		.4byte	0x3e
 2070 0532 3E050000 		.4byte	0x53e
 2071 0536 17       		.uleb128 0x17
 2072 0537 30000000 		.4byte	0x30
 2073 053b EF05     		.2byte	0x5ef
 2074 053d 00       		.byte	0
 2075 053e 18       		.uleb128 0x18
 2076 053f D0010000 		.4byte	.LASF78
 2077 0543 01       		.byte	0x1
 2078 0544 57       		.byte	0x57
 2079 0545 01       		.byte	0x1
 2080 0546 01       		.byte	0x1
 2081 0547 1F090000 		.4byte	0x91f
 2082 054b 19       		.uleb128 0x19
 2083 054c FE000000 		.4byte	.LASF69
 2084 0550 01       		.byte	0x1
 2085 0551 58       		.byte	0x58
 2086 0552 BC000000 		.4byte	0xbc
 2087 0556 19       		.uleb128 0x19
 2088 0557 03010000 		.4byte	.LASF70
 2089 055b 01       		.byte	0x1
 2090 055c 58       		.byte	0x58
 2091 055d BC000000 		.4byte	0xbc
 2092 0561 1A       		.uleb128 0x1a
 2093 0562 6900     		.ascii	"i\000"
 2094 0564 01       		.byte	0x1
 2095 0565 59       		.byte	0x59
 2096 0566 30000000 		.4byte	0x30
 2097 056a 1B       		.uleb128 0x1b
 2098 056b 7B050000 		.4byte	0x57b
 2099 056f 1A       		.uleb128 0x1a
 2100 0570 746D7000 		.ascii	"tmp\000"
ARM GAS  C:\Users\z80\AppData\Local\Temp\cclZliZY.s 			page 38


 2101 0574 01       		.byte	0x1
 2102 0575 6F       		.byte	0x6f
 2103 0576 70000000 		.4byte	0x70
 2104 057a 00       		.byte	0
 2105 057b 1B       		.uleb128 0x1b
 2106 057c 8C050000 		.4byte	0x58c
 2107 0580 1A       		.uleb128 0x1a
 2108 0581 746D7000 		.ascii	"tmp\000"
 2109 0585 01       		.byte	0x1
 2110 0586 71       		.byte	0x71
 2111 0587 70000000 		.4byte	0x70
 2112 058b 00       		.byte	0
 2113 058c 1B       		.uleb128 0x1b
 2114 058d 9D050000 		.4byte	0x59d
 2115 0591 1A       		.uleb128 0x1a
 2116 0592 746D7000 		.ascii	"tmp\000"
 2117 0596 01       		.byte	0x1
 2118 0597 75       		.byte	0x75
 2119 0598 70000000 		.4byte	0x70
 2120 059c 00       		.byte	0
 2121 059d 1B       		.uleb128 0x1b
 2122 059e AE050000 		.4byte	0x5ae
 2123 05a2 1A       		.uleb128 0x1a
 2124 05a3 746D7000 		.ascii	"tmp\000"
 2125 05a7 01       		.byte	0x1
 2126 05a8 77       		.byte	0x77
 2127 05a9 70000000 		.4byte	0x70
 2128 05ad 00       		.byte	0
 2129 05ae 1B       		.uleb128 0x1b
 2130 05af BF050000 		.4byte	0x5bf
 2131 05b3 1A       		.uleb128 0x1a
 2132 05b4 746D7000 		.ascii	"tmp\000"
 2133 05b8 01       		.byte	0x1
 2134 05b9 7D       		.byte	0x7d
 2135 05ba 70000000 		.4byte	0x70
 2136 05be 00       		.byte	0
 2137 05bf 1B       		.uleb128 0x1b
 2138 05c0 D0050000 		.4byte	0x5d0
 2139 05c4 1A       		.uleb128 0x1a
 2140 05c5 746D7000 		.ascii	"tmp\000"
 2141 05c9 01       		.byte	0x1
 2142 05ca 7D       		.byte	0x7d
 2143 05cb 70000000 		.4byte	0x70
 2144 05cf 00       		.byte	0
 2145 05d0 1B       		.uleb128 0x1b
 2146 05d1 E1050000 		.4byte	0x5e1
 2147 05d5 1A       		.uleb128 0x1a
 2148 05d6 746D7000 		.ascii	"tmp\000"
 2149 05da 01       		.byte	0x1
 2150 05db 7D       		.byte	0x7d
 2151 05dc 70000000 		.4byte	0x70
 2152 05e0 00       		.byte	0
 2153 05e1 1B       		.uleb128 0x1b
 2154 05e2 F2050000 		.4byte	0x5f2
 2155 05e6 1A       		.uleb128 0x1a
 2156 05e7 746D7000 		.ascii	"tmp\000"
 2157 05eb 01       		.byte	0x1
ARM GAS  C:\Users\z80\AppData\Local\Temp\cclZliZY.s 			page 39


 2158 05ec 7E       		.byte	0x7e
 2159 05ed 70000000 		.4byte	0x70
 2160 05f1 00       		.byte	0
 2161 05f2 1B       		.uleb128 0x1b
 2162 05f3 03060000 		.4byte	0x603
 2163 05f7 1A       		.uleb128 0x1a
 2164 05f8 746D7000 		.ascii	"tmp\000"
 2165 05fc 01       		.byte	0x1
 2166 05fd 7E       		.byte	0x7e
 2167 05fe 70000000 		.4byte	0x70
 2168 0602 00       		.byte	0
 2169 0603 1B       		.uleb128 0x1b
 2170 0604 14060000 		.4byte	0x614
 2171 0608 1A       		.uleb128 0x1a
 2172 0609 746D7000 		.ascii	"tmp\000"
 2173 060d 01       		.byte	0x1
 2174 060e 7E       		.byte	0x7e
 2175 060f 70000000 		.4byte	0x70
 2176 0613 00       		.byte	0
 2177 0614 1B       		.uleb128 0x1b
 2178 0615 25060000 		.4byte	0x625
 2179 0619 1A       		.uleb128 0x1a
 2180 061a 746D7000 		.ascii	"tmp\000"
 2181 061e 01       		.byte	0x1
 2182 061f 7F       		.byte	0x7f
 2183 0620 70000000 		.4byte	0x70
 2184 0624 00       		.byte	0
 2185 0625 1B       		.uleb128 0x1b
 2186 0626 36060000 		.4byte	0x636
 2187 062a 1A       		.uleb128 0x1a
 2188 062b 746D7000 		.ascii	"tmp\000"
 2189 062f 01       		.byte	0x1
 2190 0630 7F       		.byte	0x7f
 2191 0631 70000000 		.4byte	0x70
 2192 0635 00       		.byte	0
 2193 0636 1B       		.uleb128 0x1b
 2194 0637 47060000 		.4byte	0x647
 2195 063b 1A       		.uleb128 0x1a
 2196 063c 746D7000 		.ascii	"tmp\000"
 2197 0640 01       		.byte	0x1
 2198 0641 7F       		.byte	0x7f
 2199 0642 70000000 		.4byte	0x70
 2200 0646 00       		.byte	0
 2201 0647 1B       		.uleb128 0x1b
 2202 0648 58060000 		.4byte	0x658
 2203 064c 1A       		.uleb128 0x1a
 2204 064d 746D7000 		.ascii	"tmp\000"
 2205 0651 01       		.byte	0x1
 2206 0652 9A       		.byte	0x9a
 2207 0653 70000000 		.4byte	0x70
 2208 0657 00       		.byte	0
 2209 0658 1B       		.uleb128 0x1b
 2210 0659 69060000 		.4byte	0x669
 2211 065d 1A       		.uleb128 0x1a
 2212 065e 746D7000 		.ascii	"tmp\000"
 2213 0662 01       		.byte	0x1
 2214 0663 9C       		.byte	0x9c
ARM GAS  C:\Users\z80\AppData\Local\Temp\cclZliZY.s 			page 40


 2215 0664 70000000 		.4byte	0x70
 2216 0668 00       		.byte	0
 2217 0669 1B       		.uleb128 0x1b
 2218 066a 7A060000 		.4byte	0x67a
 2219 066e 1A       		.uleb128 0x1a
 2220 066f 746D7000 		.ascii	"tmp\000"
 2221 0673 01       		.byte	0x1
 2222 0674 A2       		.byte	0xa2
 2223 0675 70000000 		.4byte	0x70
 2224 0679 00       		.byte	0
 2225 067a 1B       		.uleb128 0x1b
 2226 067b 8B060000 		.4byte	0x68b
 2227 067f 1A       		.uleb128 0x1a
 2228 0680 746D7000 		.ascii	"tmp\000"
 2229 0684 01       		.byte	0x1
 2230 0685 A2       		.byte	0xa2
 2231 0686 70000000 		.4byte	0x70
 2232 068a 00       		.byte	0
 2233 068b 1B       		.uleb128 0x1b
 2234 068c 9C060000 		.4byte	0x69c
 2235 0690 1A       		.uleb128 0x1a
 2236 0691 746D7000 		.ascii	"tmp\000"
 2237 0695 01       		.byte	0x1
 2238 0696 A2       		.byte	0xa2
 2239 0697 70000000 		.4byte	0x70
 2240 069b 00       		.byte	0
 2241 069c 1B       		.uleb128 0x1b
 2242 069d AD060000 		.4byte	0x6ad
 2243 06a1 1A       		.uleb128 0x1a
 2244 06a2 746D7000 		.ascii	"tmp\000"
 2245 06a6 01       		.byte	0x1
 2246 06a7 A3       		.byte	0xa3
 2247 06a8 70000000 		.4byte	0x70
 2248 06ac 00       		.byte	0
 2249 06ad 1B       		.uleb128 0x1b
 2250 06ae BE060000 		.4byte	0x6be
 2251 06b2 1A       		.uleb128 0x1a
 2252 06b3 746D7000 		.ascii	"tmp\000"
 2253 06b7 01       		.byte	0x1
 2254 06b8 A3       		.byte	0xa3
 2255 06b9 70000000 		.4byte	0x70
 2256 06bd 00       		.byte	0
 2257 06be 1B       		.uleb128 0x1b
 2258 06bf CF060000 		.4byte	0x6cf
 2259 06c3 1A       		.uleb128 0x1a
 2260 06c4 746D7000 		.ascii	"tmp\000"
 2261 06c8 01       		.byte	0x1
 2262 06c9 A3       		.byte	0xa3
 2263 06ca 70000000 		.4byte	0x70
 2264 06ce 00       		.byte	0
 2265 06cf 1B       		.uleb128 0x1b
 2266 06d0 E0060000 		.4byte	0x6e0
 2267 06d4 1A       		.uleb128 0x1a
 2268 06d5 746D7000 		.ascii	"tmp\000"
 2269 06d9 01       		.byte	0x1
 2270 06da A4       		.byte	0xa4
 2271 06db 70000000 		.4byte	0x70
ARM GAS  C:\Users\z80\AppData\Local\Temp\cclZliZY.s 			page 41


 2272 06df 00       		.byte	0
 2273 06e0 1B       		.uleb128 0x1b
 2274 06e1 F1060000 		.4byte	0x6f1
 2275 06e5 1A       		.uleb128 0x1a
 2276 06e6 746D7000 		.ascii	"tmp\000"
 2277 06ea 01       		.byte	0x1
 2278 06eb A4       		.byte	0xa4
 2279 06ec 70000000 		.4byte	0x70
 2280 06f0 00       		.byte	0
 2281 06f1 1B       		.uleb128 0x1b
 2282 06f2 02070000 		.4byte	0x702
 2283 06f6 1A       		.uleb128 0x1a
 2284 06f7 746D7000 		.ascii	"tmp\000"
 2285 06fb 01       		.byte	0x1
 2286 06fc A4       		.byte	0xa4
 2287 06fd 70000000 		.4byte	0x70
 2288 0701 00       		.byte	0
 2289 0702 1B       		.uleb128 0x1b
 2290 0703 13070000 		.4byte	0x713
 2291 0707 1A       		.uleb128 0x1a
 2292 0708 746D7000 		.ascii	"tmp\000"
 2293 070c 01       		.byte	0x1
 2294 070d A9       		.byte	0xa9
 2295 070e 70000000 		.4byte	0x70
 2296 0712 00       		.byte	0
 2297 0713 1B       		.uleb128 0x1b
 2298 0714 24070000 		.4byte	0x724
 2299 0718 1A       		.uleb128 0x1a
 2300 0719 746D7000 		.ascii	"tmp\000"
 2301 071d 01       		.byte	0x1
 2302 071e B3       		.byte	0xb3
 2303 071f 70000000 		.4byte	0x70
 2304 0723 00       		.byte	0
 2305 0724 1B       		.uleb128 0x1b
 2306 0725 35070000 		.4byte	0x735
 2307 0729 1A       		.uleb128 0x1a
 2308 072a 746D7000 		.ascii	"tmp\000"
 2309 072e 01       		.byte	0x1
 2310 072f B7       		.byte	0xb7
 2311 0730 70000000 		.4byte	0x70
 2312 0734 00       		.byte	0
 2313 0735 1B       		.uleb128 0x1b
 2314 0736 46070000 		.4byte	0x746
 2315 073a 1A       		.uleb128 0x1a
 2316 073b 746D7000 		.ascii	"tmp\000"
 2317 073f 01       		.byte	0x1
 2318 0740 B9       		.byte	0xb9
 2319 0741 70000000 		.4byte	0x70
 2320 0745 00       		.byte	0
 2321 0746 1B       		.uleb128 0x1b
 2322 0747 57070000 		.4byte	0x757
 2323 074b 1A       		.uleb128 0x1a
 2324 074c 746D7000 		.ascii	"tmp\000"
 2325 0750 01       		.byte	0x1
 2326 0751 BE       		.byte	0xbe
 2327 0752 70000000 		.4byte	0x70
 2328 0756 00       		.byte	0
ARM GAS  C:\Users\z80\AppData\Local\Temp\cclZliZY.s 			page 42


 2329 0757 1B       		.uleb128 0x1b
 2330 0758 68070000 		.4byte	0x768
 2331 075c 1A       		.uleb128 0x1a
 2332 075d 746D7000 		.ascii	"tmp\000"
 2333 0761 01       		.byte	0x1
 2334 0762 BE       		.byte	0xbe
 2335 0763 70000000 		.4byte	0x70
 2336 0767 00       		.byte	0
 2337 0768 1B       		.uleb128 0x1b
 2338 0769 79070000 		.4byte	0x779
 2339 076d 1A       		.uleb128 0x1a
 2340 076e 746D7000 		.ascii	"tmp\000"
 2341 0772 01       		.byte	0x1
 2342 0773 BE       		.byte	0xbe
 2343 0774 70000000 		.4byte	0x70
 2344 0778 00       		.byte	0
 2345 0779 1B       		.uleb128 0x1b
 2346 077a 8A070000 		.4byte	0x78a
 2347 077e 1A       		.uleb128 0x1a
 2348 077f 746D7000 		.ascii	"tmp\000"
 2349 0783 01       		.byte	0x1
 2350 0784 BF       		.byte	0xbf
 2351 0785 70000000 		.4byte	0x70
 2352 0789 00       		.byte	0
 2353 078a 1B       		.uleb128 0x1b
 2354 078b 9B070000 		.4byte	0x79b
 2355 078f 1A       		.uleb128 0x1a
 2356 0790 746D7000 		.ascii	"tmp\000"
 2357 0794 01       		.byte	0x1
 2358 0795 BF       		.byte	0xbf
 2359 0796 70000000 		.4byte	0x70
 2360 079a 00       		.byte	0
 2361 079b 1B       		.uleb128 0x1b
 2362 079c AC070000 		.4byte	0x7ac
 2363 07a0 1A       		.uleb128 0x1a
 2364 07a1 746D7000 		.ascii	"tmp\000"
 2365 07a5 01       		.byte	0x1
 2366 07a6 BF       		.byte	0xbf
 2367 07a7 70000000 		.4byte	0x70
 2368 07ab 00       		.byte	0
 2369 07ac 1B       		.uleb128 0x1b
 2370 07ad BD070000 		.4byte	0x7bd
 2371 07b1 1A       		.uleb128 0x1a
 2372 07b2 746D7000 		.ascii	"tmp\000"
 2373 07b6 01       		.byte	0x1
 2374 07b7 C2       		.byte	0xc2
 2375 07b8 70000000 		.4byte	0x70
 2376 07bc 00       		.byte	0
 2377 07bd 1B       		.uleb128 0x1b
 2378 07be CE070000 		.4byte	0x7ce
 2379 07c2 1A       		.uleb128 0x1a
 2380 07c3 746D7000 		.ascii	"tmp\000"
 2381 07c7 01       		.byte	0x1
 2382 07c8 CC       		.byte	0xcc
 2383 07c9 70000000 		.4byte	0x70
 2384 07cd 00       		.byte	0
 2385 07ce 1B       		.uleb128 0x1b
ARM GAS  C:\Users\z80\AppData\Local\Temp\cclZliZY.s 			page 43


 2386 07cf DF070000 		.4byte	0x7df
 2387 07d3 1A       		.uleb128 0x1a
 2388 07d4 746D7000 		.ascii	"tmp\000"
 2389 07d8 01       		.byte	0x1
 2390 07d9 D0       		.byte	0xd0
 2391 07da 70000000 		.4byte	0x70
 2392 07de 00       		.byte	0
 2393 07df 1B       		.uleb128 0x1b
 2394 07e0 F0070000 		.4byte	0x7f0
 2395 07e4 1A       		.uleb128 0x1a
 2396 07e5 746D7000 		.ascii	"tmp\000"
 2397 07e9 01       		.byte	0x1
 2398 07ea D2       		.byte	0xd2
 2399 07eb 70000000 		.4byte	0x70
 2400 07ef 00       		.byte	0
 2401 07f0 1B       		.uleb128 0x1b
 2402 07f1 01080000 		.4byte	0x801
 2403 07f5 1A       		.uleb128 0x1a
 2404 07f6 746D7000 		.ascii	"tmp\000"
 2405 07fa 01       		.byte	0x1
 2406 07fb D7       		.byte	0xd7
 2407 07fc 70000000 		.4byte	0x70
 2408 0800 00       		.byte	0
 2409 0801 1B       		.uleb128 0x1b
 2410 0802 12080000 		.4byte	0x812
 2411 0806 1A       		.uleb128 0x1a
 2412 0807 746D7000 		.ascii	"tmp\000"
 2413 080b 01       		.byte	0x1
 2414 080c D7       		.byte	0xd7
 2415 080d 70000000 		.4byte	0x70
 2416 0811 00       		.byte	0
 2417 0812 1B       		.uleb128 0x1b
 2418 0813 23080000 		.4byte	0x823
 2419 0817 1A       		.uleb128 0x1a
 2420 0818 746D7000 		.ascii	"tmp\000"
 2421 081c 01       		.byte	0x1
 2422 081d D7       		.byte	0xd7
 2423 081e 70000000 		.4byte	0x70
 2424 0822 00       		.byte	0
 2425 0823 1B       		.uleb128 0x1b
 2426 0824 34080000 		.4byte	0x834
 2427 0828 1A       		.uleb128 0x1a
 2428 0829 746D7000 		.ascii	"tmp\000"
 2429 082d 01       		.byte	0x1
 2430 082e D8       		.byte	0xd8
 2431 082f 70000000 		.4byte	0x70
 2432 0833 00       		.byte	0
 2433 0834 1B       		.uleb128 0x1b
 2434 0835 45080000 		.4byte	0x845
 2435 0839 1A       		.uleb128 0x1a
 2436 083a 746D7000 		.ascii	"tmp\000"
 2437 083e 01       		.byte	0x1
 2438 083f D8       		.byte	0xd8
 2439 0840 70000000 		.4byte	0x70
 2440 0844 00       		.byte	0
 2441 0845 1B       		.uleb128 0x1b
 2442 0846 56080000 		.4byte	0x856
ARM GAS  C:\Users\z80\AppData\Local\Temp\cclZliZY.s 			page 44


 2443 084a 1A       		.uleb128 0x1a
 2444 084b 746D7000 		.ascii	"tmp\000"
 2445 084f 01       		.byte	0x1
 2446 0850 D8       		.byte	0xd8
 2447 0851 70000000 		.4byte	0x70
 2448 0855 00       		.byte	0
 2449 0856 1B       		.uleb128 0x1b
 2450 0857 67080000 		.4byte	0x867
 2451 085b 1A       		.uleb128 0x1a
 2452 085c 746D7000 		.ascii	"tmp\000"
 2453 0860 01       		.byte	0x1
 2454 0861 E3       		.byte	0xe3
 2455 0862 70000000 		.4byte	0x70
 2456 0866 00       		.byte	0
 2457 0867 1B       		.uleb128 0x1b
 2458 0868 78080000 		.4byte	0x878
 2459 086c 1A       		.uleb128 0x1a
 2460 086d 746D7000 		.ascii	"tmp\000"
 2461 0871 01       		.byte	0x1
 2462 0872 E3       		.byte	0xe3
 2463 0873 70000000 		.4byte	0x70
 2464 0877 00       		.byte	0
 2465 0878 1B       		.uleb128 0x1b
 2466 0879 89080000 		.4byte	0x889
 2467 087d 1A       		.uleb128 0x1a
 2468 087e 746D7000 		.ascii	"tmp\000"
 2469 0882 01       		.byte	0x1
 2470 0883 E3       		.byte	0xe3
 2471 0884 70000000 		.4byte	0x70
 2472 0888 00       		.byte	0
 2473 0889 1B       		.uleb128 0x1b
 2474 088a 9A080000 		.4byte	0x89a
 2475 088e 1A       		.uleb128 0x1a
 2476 088f 746D7000 		.ascii	"tmp\000"
 2477 0893 01       		.byte	0x1
 2478 0894 E4       		.byte	0xe4
 2479 0895 70000000 		.4byte	0x70
 2480 0899 00       		.byte	0
 2481 089a 1B       		.uleb128 0x1b
 2482 089b AB080000 		.4byte	0x8ab
 2483 089f 1A       		.uleb128 0x1a
 2484 08a0 746D7000 		.ascii	"tmp\000"
 2485 08a4 01       		.byte	0x1
 2486 08a5 E4       		.byte	0xe4
 2487 08a6 70000000 		.4byte	0x70
 2488 08aa 00       		.byte	0
 2489 08ab 1B       		.uleb128 0x1b
 2490 08ac BC080000 		.4byte	0x8bc
 2491 08b0 1A       		.uleb128 0x1a
 2492 08b1 746D7000 		.ascii	"tmp\000"
 2493 08b5 01       		.byte	0x1
 2494 08b6 E4       		.byte	0xe4
 2495 08b7 70000000 		.4byte	0x70
 2496 08bb 00       		.byte	0
 2497 08bc 1B       		.uleb128 0x1b
 2498 08bd CD080000 		.4byte	0x8cd
 2499 08c1 1A       		.uleb128 0x1a
ARM GAS  C:\Users\z80\AppData\Local\Temp\cclZliZY.s 			page 45


 2500 08c2 746D7000 		.ascii	"tmp\000"
 2501 08c6 01       		.byte	0x1
 2502 08c7 E5       		.byte	0xe5
 2503 08c8 70000000 		.4byte	0x70
 2504 08cc 00       		.byte	0
 2505 08cd 1B       		.uleb128 0x1b
 2506 08ce DE080000 		.4byte	0x8de
 2507 08d2 1A       		.uleb128 0x1a
 2508 08d3 746D7000 		.ascii	"tmp\000"
 2509 08d7 01       		.byte	0x1
 2510 08d8 E5       		.byte	0xe5
 2511 08d9 70000000 		.4byte	0x70
 2512 08dd 00       		.byte	0
 2513 08de 1B       		.uleb128 0x1b
 2514 08df EF080000 		.4byte	0x8ef
 2515 08e3 1A       		.uleb128 0x1a
 2516 08e4 746D7000 		.ascii	"tmp\000"
 2517 08e8 01       		.byte	0x1
 2518 08e9 E5       		.byte	0xe5
 2519 08ea 70000000 		.4byte	0x70
 2520 08ee 00       		.byte	0
 2521 08ef 1B       		.uleb128 0x1b
 2522 08f0 00090000 		.4byte	0x900
 2523 08f4 1A       		.uleb128 0x1a
 2524 08f5 746D7000 		.ascii	"tmp\000"
 2525 08f9 01       		.byte	0x1
 2526 08fa E6       		.byte	0xe6
 2527 08fb 70000000 		.4byte	0x70
 2528 08ff 00       		.byte	0
 2529 0900 1B       		.uleb128 0x1b
 2530 0901 11090000 		.4byte	0x911
 2531 0905 1A       		.uleb128 0x1a
 2532 0906 746D7000 		.ascii	"tmp\000"
 2533 090a 01       		.byte	0x1
 2534 090b E6       		.byte	0xe6
 2535 090c 70000000 		.4byte	0x70
 2536 0910 00       		.byte	0
 2537 0911 1C       		.uleb128 0x1c
 2538 0912 1A       		.uleb128 0x1a
 2539 0913 746D7000 		.ascii	"tmp\000"
 2540 0917 01       		.byte	0x1
 2541 0918 E6       		.byte	0xe6
 2542 0919 70000000 		.4byte	0x70
 2543 091d 00       		.byte	0
 2544 091e 00       		.byte	0
 2545 091f 1D       		.uleb128 0x1d
 2546 0920 63010000 		.4byte	.LASF79
 2547 0924 01       		.byte	0x1
 2548 0925 52       		.byte	0x52
 2549 0926 01       		.byte	0x1
 2550 0927 00000000 		.4byte	.LFB7
 2551 092b 16000000 		.4byte	.LFE7
 2552 092f 02       		.byte	0x2
 2553 0930 7D       		.byte	0x7d
 2554 0931 00       		.sleb128 0
 2555 0932 1E       		.uleb128 0x1e
 2556 0933 3E050000 		.4byte	0x53e
ARM GAS  C:\Users\z80\AppData\Local\Temp\cclZliZY.s 			page 46


 2557 0937 00000000 		.4byte	.LFB8
 2558 093b 06080000 		.4byte	.LFE8
 2559 093f 00000000 		.4byte	.LLST0
 2560 0943 800D0000 		.4byte	0xd80
 2561 0947 1F       		.uleb128 0x1f
 2562 0948 4B050000 		.4byte	0x54b
 2563 094c 2C000000 		.4byte	.LLST1
 2564 0950 20       		.uleb128 0x20
 2565 0951 56050000 		.4byte	0x556
 2566 0955 1F       		.uleb128 0x1f
 2567 0956 61050000 		.4byte	0x561
 2568 095a 6B000000 		.4byte	.LLST2
 2569 095e 21       		.uleb128 0x21
 2570 095f 3E050000 		.4byte	0x53e
 2571 0963 B2000000 		.4byte	.LBB116
 2572 0967 06080000 		.4byte	.LBE116
 2573 096b 01       		.byte	0x1
 2574 096c 57       		.byte	0x57
 2575 096d 22       		.uleb128 0x22
 2576 096e B2000000 		.4byte	.LBB117
 2577 0972 06080000 		.4byte	.LBE117
 2578 0976 1F       		.uleb128 0x1f
 2579 0977 4B050000 		.4byte	0x54b
 2580 097b AF000000 		.4byte	.LLST3
 2581 097f 20       		.uleb128 0x20
 2582 0980 56050000 		.4byte	0x556
 2583 0984 1F       		.uleb128 0x1f
 2584 0985 61050000 		.4byte	0x561
 2585 0989 3E020000 		.4byte	.LLST4
 2586 098d 23       		.uleb128 0x23
 2587 098e D2000000 		.4byte	.LBB118
 2588 0992 D8000000 		.4byte	.LBE118
 2589 0996 A4090000 		.4byte	0x9a4
 2590 099a 1F       		.uleb128 0x1f
 2591 099b 6F050000 		.4byte	0x56f
 2592 099f 8E020000 		.4byte	.LLST5
 2593 09a3 00       		.byte	0
 2594 09a4 23       		.uleb128 0x23
 2595 09a5 EA000000 		.4byte	.LBB119
 2596 09a9 F0000000 		.4byte	.LBE119
 2597 09ad BB090000 		.4byte	0x9bb
 2598 09b1 1F       		.uleb128 0x1f
 2599 09b2 80050000 		.4byte	0x580
 2600 09b6 A1020000 		.4byte	.LLST6
 2601 09ba 00       		.byte	0
 2602 09bb 23       		.uleb128 0x23
 2603 09bc 26010000 		.4byte	.LBB120
 2604 09c0 2C010000 		.4byte	.LBE120
 2605 09c4 D2090000 		.4byte	0x9d2
 2606 09c8 1F       		.uleb128 0x1f
 2607 09c9 91050000 		.4byte	0x591
 2608 09cd B4020000 		.4byte	.LLST7
 2609 09d1 00       		.byte	0
 2610 09d2 23       		.uleb128 0x23
 2611 09d3 3E010000 		.4byte	.LBB121
 2612 09d7 44010000 		.4byte	.LBE121
 2613 09db E9090000 		.4byte	0x9e9
ARM GAS  C:\Users\z80\AppData\Local\Temp\cclZliZY.s 			page 47


 2614 09df 1F       		.uleb128 0x1f
 2615 09e0 A2050000 		.4byte	0x5a2
 2616 09e4 C7020000 		.4byte	.LLST8
 2617 09e8 00       		.byte	0
 2618 09e9 23       		.uleb128 0x23
 2619 09ea 5A010000 		.4byte	.LBB122
 2620 09ee 60010000 		.4byte	.LBE122
 2621 09f2 000A0000 		.4byte	0xa00
 2622 09f6 1F       		.uleb128 0x1f
 2623 09f7 B3050000 		.4byte	0x5b3
 2624 09fb DA020000 		.4byte	.LLST9
 2625 09ff 00       		.byte	0
 2626 0a00 23       		.uleb128 0x23
 2627 0a01 88010000 		.4byte	.LBB123
 2628 0a05 8E010000 		.4byte	.LBE123
 2629 0a09 170A0000 		.4byte	0xa17
 2630 0a0d 1F       		.uleb128 0x1f
 2631 0a0e D5050000 		.4byte	0x5d5
 2632 0a12 ED020000 		.4byte	.LLST10
 2633 0a16 00       		.byte	0
 2634 0a17 23       		.uleb128 0x23
 2635 0a18 8E010000 		.4byte	.LBB124
 2636 0a1c 94010000 		.4byte	.LBE124
 2637 0a20 2E0A0000 		.4byte	0xa2e
 2638 0a24 1F       		.uleb128 0x1f
 2639 0a25 E6050000 		.4byte	0x5e6
 2640 0a29 00030000 		.4byte	.LLST11
 2641 0a2d 00       		.byte	0
 2642 0a2e 23       		.uleb128 0x23
 2643 0a2f B6010000 		.4byte	.LBB125
 2644 0a33 BC010000 		.4byte	.LBE125
 2645 0a37 450A0000 		.4byte	0xa45
 2646 0a3b 1F       		.uleb128 0x1f
 2647 0a3c 08060000 		.4byte	0x608
 2648 0a40 13030000 		.4byte	.LLST12
 2649 0a44 00       		.byte	0
 2650 0a45 23       		.uleb128 0x23
 2651 0a46 BC010000 		.4byte	.LBB126
 2652 0a4a C2010000 		.4byte	.LBE126
 2653 0a4e 5C0A0000 		.4byte	0xa5c
 2654 0a52 1F       		.uleb128 0x1f
 2655 0a53 19060000 		.4byte	0x619
 2656 0a57 26030000 		.4byte	.LLST13
 2657 0a5b 00       		.byte	0
 2658 0a5c 23       		.uleb128 0x23
 2659 0a5d E4010000 		.4byte	.LBB127
 2660 0a61 EA010000 		.4byte	.LBE127
 2661 0a65 730A0000 		.4byte	0xa73
 2662 0a69 1F       		.uleb128 0x1f
 2663 0a6a 3B060000 		.4byte	0x63b
 2664 0a6e 39030000 		.4byte	.LLST14
 2665 0a72 00       		.byte	0
 2666 0a73 23       		.uleb128 0x23
 2667 0a74 64030000 		.4byte	.LBB128
 2668 0a78 6A030000 		.4byte	.LBE128
 2669 0a7c 8A0A0000 		.4byte	0xa8a
 2670 0a80 1F       		.uleb128 0x1f
ARM GAS  C:\Users\z80\AppData\Local\Temp\cclZliZY.s 			page 48


 2671 0a81 4C060000 		.4byte	0x64c
 2672 0a85 4C030000 		.4byte	.LLST15
 2673 0a89 00       		.byte	0
 2674 0a8a 23       		.uleb128 0x23
 2675 0a8b 7C030000 		.4byte	.LBB129
 2676 0a8f 82030000 		.4byte	.LBE129
 2677 0a93 A10A0000 		.4byte	0xaa1
 2678 0a97 1F       		.uleb128 0x1f
 2679 0a98 5D060000 		.4byte	0x65d
 2680 0a9c 5F030000 		.4byte	.LLST16
 2681 0aa0 00       		.byte	0
 2682 0aa1 23       		.uleb128 0x23
 2683 0aa2 9C030000 		.4byte	.LBB130
 2684 0aa6 A2030000 		.4byte	.LBE130
 2685 0aaa B80A0000 		.4byte	0xab8
 2686 0aae 1F       		.uleb128 0x1f
 2687 0aaf 6E060000 		.4byte	0x66e
 2688 0ab3 72030000 		.4byte	.LLST17
 2689 0ab7 00       		.byte	0
 2690 0ab8 23       		.uleb128 0x23
 2691 0ab9 C4030000 		.4byte	.LBB131
 2692 0abd CA030000 		.4byte	.LBE131
 2693 0ac1 CF0A0000 		.4byte	0xacf
 2694 0ac5 1F       		.uleb128 0x1f
 2695 0ac6 90060000 		.4byte	0x690
 2696 0aca 85030000 		.4byte	.LLST18
 2697 0ace 00       		.byte	0
 2698 0acf 23       		.uleb128 0x23
 2699 0ad0 CA030000 		.4byte	.LBB132
 2700 0ad4 D0030000 		.4byte	.LBE132
 2701 0ad8 E60A0000 		.4byte	0xae6
 2702 0adc 1F       		.uleb128 0x1f
 2703 0add A1060000 		.4byte	0x6a1
 2704 0ae1 98030000 		.4byte	.LLST19
 2705 0ae5 00       		.byte	0
 2706 0ae6 23       		.uleb128 0x23
 2707 0ae7 F0030000 		.4byte	.LBB133
 2708 0aeb F6030000 		.4byte	.LBE133
 2709 0aef FD0A0000 		.4byte	0xafd
 2710 0af3 1F       		.uleb128 0x1f
 2711 0af4 C3060000 		.4byte	0x6c3
 2712 0af8 AB030000 		.4byte	.LLST20
 2713 0afc 00       		.byte	0
 2714 0afd 23       		.uleb128 0x23
 2715 0afe F6030000 		.4byte	.LBB134
 2716 0b02 FC030000 		.4byte	.LBE134
 2717 0b06 140B0000 		.4byte	0xb14
 2718 0b0a 1F       		.uleb128 0x1f
 2719 0b0b D4060000 		.4byte	0x6d4
 2720 0b0f BE030000 		.4byte	.LLST21
 2721 0b13 00       		.byte	0
 2722 0b14 23       		.uleb128 0x23
 2723 0b15 20040000 		.4byte	.LBB135
 2724 0b19 26040000 		.4byte	.LBE135
 2725 0b1d 2B0B0000 		.4byte	0xb2b
 2726 0b21 1F       		.uleb128 0x1f
 2727 0b22 F6060000 		.4byte	0x6f6
ARM GAS  C:\Users\z80\AppData\Local\Temp\cclZliZY.s 			page 49


 2728 0b26 D1030000 		.4byte	.LLST22
 2729 0b2a 00       		.byte	0
 2730 0b2b 23       		.uleb128 0x23
 2731 0b2c 26040000 		.4byte	.LBB136
 2732 0b30 2C040000 		.4byte	.LBE136
 2733 0b34 420B0000 		.4byte	0xb42
 2734 0b38 1F       		.uleb128 0x1f
 2735 0b39 07070000 		.4byte	0x707
 2736 0b3d E4030000 		.4byte	.LLST23
 2737 0b41 00       		.byte	0
 2738 0b42 23       		.uleb128 0x23
 2739 0b43 B8040000 		.4byte	.LBB137
 2740 0b47 BE040000 		.4byte	.LBE137
 2741 0b4b 590B0000 		.4byte	0xb59
 2742 0b4f 1F       		.uleb128 0x1f
 2743 0b50 18070000 		.4byte	0x718
 2744 0b54 F7030000 		.4byte	.LLST24
 2745 0b58 00       		.byte	0
 2746 0b59 23       		.uleb128 0x23
 2747 0b5a EC040000 		.4byte	.LBB138
 2748 0b5e F2040000 		.4byte	.LBE138
 2749 0b62 700B0000 		.4byte	0xb70
 2750 0b66 1F       		.uleb128 0x1f
 2751 0b67 29070000 		.4byte	0x729
 2752 0b6b 0A040000 		.4byte	.LLST25
 2753 0b6f 00       		.byte	0
 2754 0b70 23       		.uleb128 0x23
 2755 0b71 0C050000 		.4byte	.LBB139
 2756 0b75 12050000 		.4byte	.LBE139
 2757 0b79 870B0000 		.4byte	0xb87
 2758 0b7d 1F       		.uleb128 0x1f
 2759 0b7e 3A070000 		.4byte	0x73a
 2760 0b82 1D040000 		.4byte	.LLST26
 2761 0b86 00       		.byte	0
 2762 0b87 23       		.uleb128 0x23
 2763 0b88 48050000 		.4byte	.LBB140
 2764 0b8c 4E050000 		.4byte	.LBE140
 2765 0b90 9E0B0000 		.4byte	0xb9e
 2766 0b94 1F       		.uleb128 0x1f
 2767 0b95 4B070000 		.4byte	0x74b
 2768 0b99 30040000 		.4byte	.LLST27
 2769 0b9d 00       		.byte	0
 2770 0b9e 23       		.uleb128 0x23
 2771 0b9f 6E050000 		.4byte	.LBB141
 2772 0ba3 74050000 		.4byte	.LBE141
 2773 0ba7 B50B0000 		.4byte	0xbb5
 2774 0bab 1F       		.uleb128 0x1f
 2775 0bac 6D070000 		.4byte	0x76d
 2776 0bb0 43040000 		.4byte	.LLST28
 2777 0bb4 00       		.byte	0
 2778 0bb5 23       		.uleb128 0x23
 2779 0bb6 74050000 		.4byte	.LBB142
 2780 0bba 7A050000 		.4byte	.LBE142
 2781 0bbe CC0B0000 		.4byte	0xbcc
 2782 0bc2 1F       		.uleb128 0x1f
 2783 0bc3 7E070000 		.4byte	0x77e
 2784 0bc7 56040000 		.4byte	.LLST29
ARM GAS  C:\Users\z80\AppData\Local\Temp\cclZliZY.s 			page 50


 2785 0bcb 00       		.byte	0
 2786 0bcc 23       		.uleb128 0x23
 2787 0bcd 98050000 		.4byte	.LBB143
 2788 0bd1 9E050000 		.4byte	.LBE143
 2789 0bd5 E30B0000 		.4byte	0xbe3
 2790 0bd9 1F       		.uleb128 0x1f
 2791 0bda A0070000 		.4byte	0x7a0
 2792 0bde 69040000 		.4byte	.LLST30
 2793 0be2 00       		.byte	0
 2794 0be3 23       		.uleb128 0x23
 2795 0be4 B6050000 		.4byte	.LBB144
 2796 0be8 BC050000 		.4byte	.LBE144
 2797 0bec FA0B0000 		.4byte	0xbfa
 2798 0bf0 1F       		.uleb128 0x1f
 2799 0bf1 B1070000 		.4byte	0x7b1
 2800 0bf5 7C040000 		.4byte	.LLST31
 2801 0bf9 00       		.byte	0
 2802 0bfa 23       		.uleb128 0x23
 2803 0bfb 46060000 		.4byte	.LBB145
 2804 0bff 4C060000 		.4byte	.LBE145
 2805 0c03 110C0000 		.4byte	0xc11
 2806 0c07 1F       		.uleb128 0x1f
 2807 0c08 C2070000 		.4byte	0x7c2
 2808 0c0c 8F040000 		.4byte	.LLST32
 2809 0c10 00       		.byte	0
 2810 0c11 23       		.uleb128 0x23
 2811 0c12 7A060000 		.4byte	.LBB146
 2812 0c16 80060000 		.4byte	.LBE146
 2813 0c1a 280C0000 		.4byte	0xc28
 2814 0c1e 1F       		.uleb128 0x1f
 2815 0c1f D3070000 		.4byte	0x7d3
 2816 0c23 A2040000 		.4byte	.LLST33
 2817 0c27 00       		.byte	0
 2818 0c28 23       		.uleb128 0x23
 2819 0c29 9A060000 		.4byte	.LBB147
 2820 0c2d A0060000 		.4byte	.LBE147
 2821 0c31 3F0C0000 		.4byte	0xc3f
 2822 0c35 1F       		.uleb128 0x1f
 2823 0c36 E4070000 		.4byte	0x7e4
 2824 0c3a B5040000 		.4byte	.LLST34
 2825 0c3e 00       		.byte	0
 2826 0c3f 23       		.uleb128 0x23
 2827 0c40 D6060000 		.4byte	.LBB148
 2828 0c44 DC060000 		.4byte	.LBE148
 2829 0c48 560C0000 		.4byte	0xc56
 2830 0c4c 1F       		.uleb128 0x1f
 2831 0c4d F5070000 		.4byte	0x7f5
 2832 0c51 C8040000 		.4byte	.LLST35
 2833 0c55 00       		.byte	0
 2834 0c56 23       		.uleb128 0x23
 2835 0c57 FC060000 		.4byte	.LBB149
 2836 0c5b 02070000 		.4byte	.LBE149
 2837 0c5f 6D0C0000 		.4byte	0xc6d
 2838 0c63 1F       		.uleb128 0x1f
 2839 0c64 17080000 		.4byte	0x817
 2840 0c68 DB040000 		.4byte	.LLST36
 2841 0c6c 00       		.byte	0
ARM GAS  C:\Users\z80\AppData\Local\Temp\cclZliZY.s 			page 51


 2842 0c6d 23       		.uleb128 0x23
 2843 0c6e 02070000 		.4byte	.LBB150
 2844 0c72 08070000 		.4byte	.LBE150
 2845 0c76 840C0000 		.4byte	0xc84
 2846 0c7a 1F       		.uleb128 0x1f
 2847 0c7b 28080000 		.4byte	0x828
 2848 0c7f EE040000 		.4byte	.LLST37
 2849 0c83 00       		.byte	0
 2850 0c84 23       		.uleb128 0x23
 2851 0c85 24070000 		.4byte	.LBB151
 2852 0c89 2A070000 		.4byte	.LBE151
 2853 0c8d 9B0C0000 		.4byte	0xc9b
 2854 0c91 1F       		.uleb128 0x1f
 2855 0c92 4A080000 		.4byte	0x84a
 2856 0c96 01050000 		.4byte	.LLST38
 2857 0c9a 00       		.byte	0
 2858 0c9b 23       		.uleb128 0x23
 2859 0c9c 48070000 		.4byte	.LBB152
 2860 0ca0 4E070000 		.4byte	.LBE152
 2861 0ca4 B20C0000 		.4byte	0xcb2
 2862 0ca8 1F       		.uleb128 0x1f
 2863 0ca9 5B080000 		.4byte	0x85b
 2864 0cad 14050000 		.4byte	.LLST39
 2865 0cb1 00       		.byte	0
 2866 0cb2 23       		.uleb128 0x23
 2867 0cb3 6E070000 		.4byte	.LBB153
 2868 0cb7 74070000 		.4byte	.LBE153
 2869 0cbb C90C0000 		.4byte	0xcc9
 2870 0cbf 1F       		.uleb128 0x1f
 2871 0cc0 7D080000 		.4byte	0x87d
 2872 0cc4 27050000 		.4byte	.LLST40
 2873 0cc8 00       		.byte	0
 2874 0cc9 23       		.uleb128 0x23
 2875 0cca 74070000 		.4byte	.LBB154
 2876 0cce 7A070000 		.4byte	.LBE154
 2877 0cd2 E00C0000 		.4byte	0xce0
 2878 0cd6 1F       		.uleb128 0x1f
 2879 0cd7 8E080000 		.4byte	0x88e
 2880 0cdb 3A050000 		.4byte	.LLST41
 2881 0cdf 00       		.byte	0
 2882 0ce0 23       		.uleb128 0x23
 2883 0ce1 94070000 		.4byte	.LBB155
 2884 0ce5 9A070000 		.4byte	.LBE155
 2885 0ce9 F70C0000 		.4byte	0xcf7
 2886 0ced 1F       		.uleb128 0x1f
 2887 0cee B0080000 		.4byte	0x8b0
 2888 0cf2 4D050000 		.4byte	.LLST42
 2889 0cf6 00       		.byte	0
 2890 0cf7 23       		.uleb128 0x23
 2891 0cf8 9A070000 		.4byte	.LBB156
 2892 0cfc A0070000 		.4byte	.LBE156
 2893 0d00 0E0D0000 		.4byte	0xd0e
 2894 0d04 1F       		.uleb128 0x1f
 2895 0d05 C1080000 		.4byte	0x8c1
 2896 0d09 60050000 		.4byte	.LLST43
 2897 0d0d 00       		.byte	0
 2898 0d0e 23       		.uleb128 0x23
ARM GAS  C:\Users\z80\AppData\Local\Temp\cclZliZY.s 			page 52


 2899 0d0f BE070000 		.4byte	.LBB157
 2900 0d13 C4070000 		.4byte	.LBE157
 2901 0d17 250D0000 		.4byte	0xd25
 2902 0d1b 1F       		.uleb128 0x1f
 2903 0d1c E3080000 		.4byte	0x8e3
 2904 0d20 73050000 		.4byte	.LLST44
 2905 0d24 00       		.byte	0
 2906 0d25 23       		.uleb128 0x23
 2907 0d26 C4070000 		.4byte	.LBB158
 2908 0d2a CA070000 		.4byte	.LBE158
 2909 0d2e 3C0D0000 		.4byte	0xd3c
 2910 0d32 1F       		.uleb128 0x1f
 2911 0d33 F4080000 		.4byte	0x8f4
 2912 0d37 86050000 		.4byte	.LLST45
 2913 0d3b 00       		.byte	0
 2914 0d3c 23       		.uleb128 0x23
 2915 0d3d E6070000 		.4byte	.LBB159
 2916 0d41 EE070000 		.4byte	.LBE159
 2917 0d45 530D0000 		.4byte	0xd53
 2918 0d49 1F       		.uleb128 0x1f
 2919 0d4a 12090000 		.4byte	0x912
 2920 0d4e 99050000 		.4byte	.LLST46
 2921 0d52 00       		.byte	0
 2922 0d53 23       		.uleb128 0x23
 2923 0d54 F2070000 		.4byte	.LBB160
 2924 0d58 FA070000 		.4byte	.LBE160
 2925 0d5c 6A0D0000 		.4byte	0xd6a
 2926 0d60 1F       		.uleb128 0x1f
 2927 0d61 B2060000 		.4byte	0x6b2
 2928 0d65 B7050000 		.4byte	.LLST47
 2929 0d69 00       		.byte	0
 2930 0d6a 22       		.uleb128 0x22
 2931 0d6b FE070000 		.4byte	.LBB161
 2932 0d6f 06080000 		.4byte	.LBE161
 2933 0d73 1F       		.uleb128 0x1f
 2934 0d74 D2080000 		.4byte	0x8d2
 2935 0d78 D5050000 		.4byte	.LLST48
 2936 0d7c 00       		.byte	0
 2937 0d7d 00       		.byte	0
 2938 0d7e 00       		.byte	0
 2939 0d7f 00       		.byte	0
 2940 0d80 24       		.uleb128 0x24
 2941 0d81 6D623100 		.ascii	"mb1\000"
 2942 0d85 01       		.byte	0x1
 2943 0d86 47       		.byte	0x47
 2944 0d87 00040000 		.4byte	0x400
 2945 0d8b 05       		.byte	0x5
 2946 0d8c 03       		.byte	0x3
 2947 0d8d 00000000 		.4byte	mb1
 2948 0d91 25       		.uleb128 0x25
 2949 0d92 51000000 		.4byte	.LASF71
 2950 0d96 0A       		.byte	0xa
 2951 0d97 B1       		.byte	0xb1
 2952 0d98 0A050000 		.4byte	0x50a
 2953 0d9c 01       		.byte	0x1
 2954 0d9d 01       		.byte	0x1
 2955 0d9e 26       		.uleb128 0x26
ARM GAS  C:\Users\z80\AppData\Local\Temp\cclZliZY.s 			page 53


 2956 0d9f 8D010000 		.4byte	.LASF72
 2957 0da3 01       		.byte	0x1
 2958 0da4 E9       		.byte	0xe9
 2959 0da5 B00D0000 		.4byte	0xdb0
 2960 0da9 01       		.byte	0x1
 2961 0daa 05       		.byte	0x5
 2962 0dab 03       		.byte	0x3
 2963 0dac 00000000 		.4byte	testmbox1
 2964 0db0 10       		.uleb128 0x10
 2965 0db1 5E040000 		.4byte	0x45e
 2966 0db5 13       		.uleb128 0x13
 2967 0db6 C50D0000 		.4byte	0xdc5
 2968 0dba C50D0000 		.4byte	0xdc5
 2969 0dbe 14       		.uleb128 0x14
 2970 0dbf 30000000 		.4byte	0x30
 2971 0dc3 01       		.byte	0x1
 2972 0dc4 00       		.byte	0
 2973 0dc5 09       		.uleb128 0x9
 2974 0dc6 04       		.byte	0x4
 2975 0dc7 B00D0000 		.4byte	0xdb0
 2976 0dcb 26       		.uleb128 0x26
 2977 0dcc 3C000000 		.4byte	.LASF73
 2978 0dd0 01       		.byte	0x1
 2979 0dd1 F5       		.byte	0xf5
 2980 0dd2 DD0D0000 		.4byte	0xddd
 2981 0dd6 01       		.byte	0x1
 2982 0dd7 05       		.byte	0x5
 2983 0dd8 03       		.byte	0x3
 2984 0dd9 00000000 		.4byte	patternmbox
 2985 0ddd 10       		.uleb128 0x10
 2986 0dde B50D0000 		.4byte	0xdb5
 2987 0de2 00       		.byte	0
 2988              		.section	.debug_abbrev,"",%progbits
 2989              	.Ldebug_abbrev0:
 2990 0000 01       		.uleb128 0x1
 2991 0001 11       		.uleb128 0x11
 2992 0002 01       		.byte	0x1
 2993 0003 25       		.uleb128 0x25
 2994 0004 0E       		.uleb128 0xe
 2995 0005 13       		.uleb128 0x13
 2996 0006 0B       		.uleb128 0xb
 2997 0007 03       		.uleb128 0x3
 2998 0008 0E       		.uleb128 0xe
 2999 0009 1B       		.uleb128 0x1b
 3000 000a 0E       		.uleb128 0xe
 3001 000b 11       		.uleb128 0x11
 3002 000c 01       		.uleb128 0x1
 3003 000d 52       		.uleb128 0x52
 3004 000e 01       		.uleb128 0x1
 3005 000f 55       		.uleb128 0x55
 3006 0010 06       		.uleb128 0x6
 3007 0011 10       		.uleb128 0x10
 3008 0012 06       		.uleb128 0x6
 3009 0013 00       		.byte	0
 3010 0014 00       		.byte	0
 3011 0015 02       		.uleb128 0x2
 3012 0016 24       		.uleb128 0x24
ARM GAS  C:\Users\z80\AppData\Local\Temp\cclZliZY.s 			page 54


 3013 0017 00       		.byte	0
 3014 0018 0B       		.uleb128 0xb
 3015 0019 0B       		.uleb128 0xb
 3016 001a 3E       		.uleb128 0x3e
 3017 001b 0B       		.uleb128 0xb
 3018 001c 03       		.uleb128 0x3
 3019 001d 08       		.uleb128 0x8
 3020 001e 00       		.byte	0
 3021 001f 00       		.byte	0
 3022 0020 03       		.uleb128 0x3
 3023 0021 24       		.uleb128 0x24
 3024 0022 00       		.byte	0
 3025 0023 0B       		.uleb128 0xb
 3026 0024 0B       		.uleb128 0xb
 3027 0025 3E       		.uleb128 0x3e
 3028 0026 0B       		.uleb128 0xb
 3029 0027 03       		.uleb128 0x3
 3030 0028 0E       		.uleb128 0xe
 3031 0029 00       		.byte	0
 3032 002a 00       		.byte	0
 3033 002b 04       		.uleb128 0x4
 3034 002c 16       		.uleb128 0x16
 3035 002d 00       		.byte	0
 3036 002e 03       		.uleb128 0x3
 3037 002f 0E       		.uleb128 0xe
 3038 0030 3A       		.uleb128 0x3a
 3039 0031 0B       		.uleb128 0xb
 3040 0032 3B       		.uleb128 0x3b
 3041 0033 0B       		.uleb128 0xb
 3042 0034 49       		.uleb128 0x49
 3043 0035 13       		.uleb128 0x13
 3044 0036 00       		.byte	0
 3045 0037 00       		.byte	0
 3046 0038 05       		.uleb128 0x5
 3047 0039 13       		.uleb128 0x13
 3048 003a 01       		.byte	0x1
 3049 003b 03       		.uleb128 0x3
 3050 003c 0E       		.uleb128 0xe
 3051 003d 0B       		.uleb128 0xb
 3052 003e 0B       		.uleb128 0xb
 3053 003f 3A       		.uleb128 0x3a
 3054 0040 0B       		.uleb128 0xb
 3055 0041 3B       		.uleb128 0x3b
 3056 0042 0B       		.uleb128 0xb
 3057 0043 01       		.uleb128 0x1
 3058 0044 13       		.uleb128 0x13
 3059 0045 00       		.byte	0
 3060 0046 00       		.byte	0
 3061 0047 06       		.uleb128 0x6
 3062 0048 0D       		.uleb128 0xd
 3063 0049 00       		.byte	0
 3064 004a 03       		.uleb128 0x3
 3065 004b 0E       		.uleb128 0xe
 3066 004c 3A       		.uleb128 0x3a
 3067 004d 0B       		.uleb128 0xb
 3068 004e 3B       		.uleb128 0x3b
 3069 004f 0B       		.uleb128 0xb
ARM GAS  C:\Users\z80\AppData\Local\Temp\cclZliZY.s 			page 55


 3070 0050 49       		.uleb128 0x49
 3071 0051 13       		.uleb128 0x13
 3072 0052 38       		.uleb128 0x38
 3073 0053 0A       		.uleb128 0xa
 3074 0054 00       		.byte	0
 3075 0055 00       		.byte	0
 3076 0056 07       		.uleb128 0x7
 3077 0057 0D       		.uleb128 0xd
 3078 0058 00       		.byte	0
 3079 0059 03       		.uleb128 0x3
 3080 005a 08       		.uleb128 0x8
 3081 005b 3A       		.uleb128 0x3a
 3082 005c 0B       		.uleb128 0xb
 3083 005d 3B       		.uleb128 0x3b
 3084 005e 0B       		.uleb128 0xb
 3085 005f 49       		.uleb128 0x49
 3086 0060 13       		.uleb128 0x13
 3087 0061 38       		.uleb128 0x38
 3088 0062 0A       		.uleb128 0xa
 3089 0063 00       		.byte	0
 3090 0064 00       		.byte	0
 3091 0065 08       		.uleb128 0x8
 3092 0066 13       		.uleb128 0x13
 3093 0067 01       		.byte	0x1
 3094 0068 0B       		.uleb128 0xb
 3095 0069 0B       		.uleb128 0xb
 3096 006a 3A       		.uleb128 0x3a
 3097 006b 0B       		.uleb128 0xb
 3098 006c 3B       		.uleb128 0x3b
 3099 006d 0B       		.uleb128 0xb
 3100 006e 01       		.uleb128 0x1
 3101 006f 13       		.uleb128 0x13
 3102 0070 00       		.byte	0
 3103 0071 00       		.byte	0
 3104 0072 09       		.uleb128 0x9
 3105 0073 0F       		.uleb128 0xf
 3106 0074 00       		.byte	0
 3107 0075 0B       		.uleb128 0xb
 3108 0076 0B       		.uleb128 0xb
 3109 0077 49       		.uleb128 0x49
 3110 0078 13       		.uleb128 0x13
 3111 0079 00       		.byte	0
 3112 007a 00       		.byte	0
 3113 007b 0A       		.uleb128 0xa
 3114 007c 0F       		.uleb128 0xf
 3115 007d 00       		.byte	0
 3116 007e 0B       		.uleb128 0xb
 3117 007f 0B       		.uleb128 0xb
 3118 0080 00       		.byte	0
 3119 0081 00       		.byte	0
 3120 0082 0B       		.uleb128 0xb
 3121 0083 0D       		.uleb128 0xd
 3122 0084 00       		.byte	0
 3123 0085 03       		.uleb128 0x3
 3124 0086 08       		.uleb128 0x8
 3125 0087 3A       		.uleb128 0x3a
 3126 0088 0B       		.uleb128 0xb
ARM GAS  C:\Users\z80\AppData\Local\Temp\cclZliZY.s 			page 56


 3127 0089 3B       		.uleb128 0x3b
 3128 008a 05       		.uleb128 0x5
 3129 008b 49       		.uleb128 0x49
 3130 008c 13       		.uleb128 0x13
 3131 008d 38       		.uleb128 0x38
 3132 008e 0A       		.uleb128 0xa
 3133 008f 00       		.byte	0
 3134 0090 00       		.byte	0
 3135 0091 0C       		.uleb128 0xc
 3136 0092 13       		.uleb128 0x13
 3137 0093 01       		.byte	0x1
 3138 0094 03       		.uleb128 0x3
 3139 0095 0E       		.uleb128 0xe
 3140 0096 0B       		.uleb128 0xb
 3141 0097 0B       		.uleb128 0xb
 3142 0098 3A       		.uleb128 0x3a
 3143 0099 0B       		.uleb128 0xb
 3144 009a 3B       		.uleb128 0x3b
 3145 009b 05       		.uleb128 0x5
 3146 009c 01       		.uleb128 0x1
 3147 009d 13       		.uleb128 0x13
 3148 009e 00       		.byte	0
 3149 009f 00       		.byte	0
 3150 00a0 0D       		.uleb128 0xd
 3151 00a1 35       		.uleb128 0x35
 3152 00a2 00       		.byte	0
 3153 00a3 49       		.uleb128 0x49
 3154 00a4 13       		.uleb128 0x13
 3155 00a5 00       		.byte	0
 3156 00a6 00       		.byte	0
 3157 00a7 0E       		.uleb128 0xe
 3158 00a8 17       		.uleb128 0x17
 3159 00a9 01       		.byte	0x1
 3160 00aa 0B       		.uleb128 0xb
 3161 00ab 0B       		.uleb128 0xb
 3162 00ac 3A       		.uleb128 0x3a
 3163 00ad 0B       		.uleb128 0xb
 3164 00ae 3B       		.uleb128 0x3b
 3165 00af 0B       		.uleb128 0xb
 3166 00b0 01       		.uleb128 0x1
 3167 00b1 13       		.uleb128 0x13
 3168 00b2 00       		.byte	0
 3169 00b3 00       		.byte	0
 3170 00b4 0F       		.uleb128 0xf
 3171 00b5 0D       		.uleb128 0xd
 3172 00b6 00       		.byte	0
 3173 00b7 03       		.uleb128 0x3
 3174 00b8 0E       		.uleb128 0xe
 3175 00b9 3A       		.uleb128 0x3a
 3176 00ba 0B       		.uleb128 0xb
 3177 00bb 3B       		.uleb128 0x3b
 3178 00bc 0B       		.uleb128 0xb
 3179 00bd 49       		.uleb128 0x49
 3180 00be 13       		.uleb128 0x13
 3181 00bf 00       		.byte	0
 3182 00c0 00       		.byte	0
 3183 00c1 10       		.uleb128 0x10
ARM GAS  C:\Users\z80\AppData\Local\Temp\cclZliZY.s 			page 57


 3184 00c2 26       		.uleb128 0x26
 3185 00c3 00       		.byte	0
 3186 00c4 49       		.uleb128 0x49
 3187 00c5 13       		.uleb128 0x13
 3188 00c6 00       		.byte	0
 3189 00c7 00       		.byte	0
 3190 00c8 11       		.uleb128 0x11
 3191 00c9 15       		.uleb128 0x15
 3192 00ca 00       		.byte	0
 3193 00cb 27       		.uleb128 0x27
 3194 00cc 0C       		.uleb128 0xc
 3195 00cd 00       		.byte	0
 3196 00ce 00       		.byte	0
 3197 00cf 12       		.uleb128 0x12
 3198 00d0 13       		.uleb128 0x13
 3199 00d1 01       		.byte	0x1
 3200 00d2 0B       		.uleb128 0xb
 3201 00d3 05       		.uleb128 0x5
 3202 00d4 3A       		.uleb128 0x3a
 3203 00d5 0B       		.uleb128 0xb
 3204 00d6 3B       		.uleb128 0x3b
 3205 00d7 0B       		.uleb128 0xb
 3206 00d8 01       		.uleb128 0x1
 3207 00d9 13       		.uleb128 0x13
 3208 00da 00       		.byte	0
 3209 00db 00       		.byte	0
 3210 00dc 13       		.uleb128 0x13
 3211 00dd 01       		.uleb128 0x1
 3212 00de 01       		.byte	0x1
 3213 00df 49       		.uleb128 0x49
 3214 00e0 13       		.uleb128 0x13
 3215 00e1 01       		.uleb128 0x1
 3216 00e2 13       		.uleb128 0x13
 3217 00e3 00       		.byte	0
 3218 00e4 00       		.byte	0
 3219 00e5 14       		.uleb128 0x14
 3220 00e6 21       		.uleb128 0x21
 3221 00e7 00       		.byte	0
 3222 00e8 49       		.uleb128 0x49
 3223 00e9 13       		.uleb128 0x13
 3224 00ea 2F       		.uleb128 0x2f
 3225 00eb 0B       		.uleb128 0xb
 3226 00ec 00       		.byte	0
 3227 00ed 00       		.byte	0
 3228 00ee 15       		.uleb128 0x15
 3229 00ef 17       		.uleb128 0x17
 3230 00f0 01       		.byte	0x1
 3231 00f1 03       		.uleb128 0x3
 3232 00f2 0E       		.uleb128 0xe
 3233 00f3 0B       		.uleb128 0xb
 3234 00f4 05       		.uleb128 0x5
 3235 00f5 3A       		.uleb128 0x3a
 3236 00f6 0B       		.uleb128 0xb
 3237 00f7 3B       		.uleb128 0x3b
 3238 00f8 0B       		.uleb128 0xb
 3239 00f9 01       		.uleb128 0x1
 3240 00fa 13       		.uleb128 0x13
ARM GAS  C:\Users\z80\AppData\Local\Temp\cclZliZY.s 			page 58


 3241 00fb 00       		.byte	0
 3242 00fc 00       		.byte	0
 3243 00fd 16       		.uleb128 0x16
 3244 00fe 0D       		.uleb128 0xd
 3245 00ff 00       		.byte	0
 3246 0100 03       		.uleb128 0x3
 3247 0101 08       		.uleb128 0x8
 3248 0102 3A       		.uleb128 0x3a
 3249 0103 0B       		.uleb128 0xb
 3250 0104 3B       		.uleb128 0x3b
 3251 0105 0B       		.uleb128 0xb
 3252 0106 49       		.uleb128 0x49
 3253 0107 13       		.uleb128 0x13
 3254 0108 00       		.byte	0
 3255 0109 00       		.byte	0
 3256 010a 17       		.uleb128 0x17
 3257 010b 21       		.uleb128 0x21
 3258 010c 00       		.byte	0
 3259 010d 49       		.uleb128 0x49
 3260 010e 13       		.uleb128 0x13
 3261 010f 2F       		.uleb128 0x2f
 3262 0110 05       		.uleb128 0x5
 3263 0111 00       		.byte	0
 3264 0112 00       		.byte	0
 3265 0113 18       		.uleb128 0x18
 3266 0114 2E       		.uleb128 0x2e
 3267 0115 01       		.byte	0x1
 3268 0116 03       		.uleb128 0x3
 3269 0117 0E       		.uleb128 0xe
 3270 0118 3A       		.uleb128 0x3a
 3271 0119 0B       		.uleb128 0xb
 3272 011a 3B       		.uleb128 0x3b
 3273 011b 0B       		.uleb128 0xb
 3274 011c 27       		.uleb128 0x27
 3275 011d 0C       		.uleb128 0xc
 3276 011e 20       		.uleb128 0x20
 3277 011f 0B       		.uleb128 0xb
 3278 0120 01       		.uleb128 0x1
 3279 0121 13       		.uleb128 0x13
 3280 0122 00       		.byte	0
 3281 0123 00       		.byte	0
 3282 0124 19       		.uleb128 0x19
 3283 0125 34       		.uleb128 0x34
 3284 0126 00       		.byte	0
 3285 0127 03       		.uleb128 0x3
 3286 0128 0E       		.uleb128 0xe
 3287 0129 3A       		.uleb128 0x3a
 3288 012a 0B       		.uleb128 0xb
 3289 012b 3B       		.uleb128 0x3b
 3290 012c 0B       		.uleb128 0xb
 3291 012d 49       		.uleb128 0x49
 3292 012e 13       		.uleb128 0x13
 3293 012f 00       		.byte	0
 3294 0130 00       		.byte	0
 3295 0131 1A       		.uleb128 0x1a
 3296 0132 34       		.uleb128 0x34
 3297 0133 00       		.byte	0
ARM GAS  C:\Users\z80\AppData\Local\Temp\cclZliZY.s 			page 59


 3298 0134 03       		.uleb128 0x3
 3299 0135 08       		.uleb128 0x8
 3300 0136 3A       		.uleb128 0x3a
 3301 0137 0B       		.uleb128 0xb
 3302 0138 3B       		.uleb128 0x3b
 3303 0139 0B       		.uleb128 0xb
 3304 013a 49       		.uleb128 0x49
 3305 013b 13       		.uleb128 0x13
 3306 013c 00       		.byte	0
 3307 013d 00       		.byte	0
 3308 013e 1B       		.uleb128 0x1b
 3309 013f 0B       		.uleb128 0xb
 3310 0140 01       		.byte	0x1
 3311 0141 01       		.uleb128 0x1
 3312 0142 13       		.uleb128 0x13
 3313 0143 00       		.byte	0
 3314 0144 00       		.byte	0
 3315 0145 1C       		.uleb128 0x1c
 3316 0146 0B       		.uleb128 0xb
 3317 0147 01       		.byte	0x1
 3318 0148 00       		.byte	0
 3319 0149 00       		.byte	0
 3320 014a 1D       		.uleb128 0x1d
 3321 014b 2E       		.uleb128 0x2e
 3322 014c 00       		.byte	0
 3323 014d 03       		.uleb128 0x3
 3324 014e 0E       		.uleb128 0xe
 3325 014f 3A       		.uleb128 0x3a
 3326 0150 0B       		.uleb128 0xb
 3327 0151 3B       		.uleb128 0x3b
 3328 0152 0B       		.uleb128 0xb
 3329 0153 27       		.uleb128 0x27
 3330 0154 0C       		.uleb128 0xc
 3331 0155 11       		.uleb128 0x11
 3332 0156 01       		.uleb128 0x1
 3333 0157 12       		.uleb128 0x12
 3334 0158 01       		.uleb128 0x1
 3335 0159 40       		.uleb128 0x40
 3336 015a 0A       		.uleb128 0xa
 3337 015b 00       		.byte	0
 3338 015c 00       		.byte	0
 3339 015d 1E       		.uleb128 0x1e
 3340 015e 2E       		.uleb128 0x2e
 3341 015f 01       		.byte	0x1
 3342 0160 31       		.uleb128 0x31
 3343 0161 13       		.uleb128 0x13
 3344 0162 11       		.uleb128 0x11
 3345 0163 01       		.uleb128 0x1
 3346 0164 12       		.uleb128 0x12
 3347 0165 01       		.uleb128 0x1
 3348 0166 40       		.uleb128 0x40
 3349 0167 06       		.uleb128 0x6
 3350 0168 01       		.uleb128 0x1
 3351 0169 13       		.uleb128 0x13
 3352 016a 00       		.byte	0
 3353 016b 00       		.byte	0
 3354 016c 1F       		.uleb128 0x1f
ARM GAS  C:\Users\z80\AppData\Local\Temp\cclZliZY.s 			page 60


 3355 016d 34       		.uleb128 0x34
 3356 016e 00       		.byte	0
 3357 016f 31       		.uleb128 0x31
 3358 0170 13       		.uleb128 0x13
 3359 0171 02       		.uleb128 0x2
 3360 0172 06       		.uleb128 0x6
 3361 0173 00       		.byte	0
 3362 0174 00       		.byte	0
 3363 0175 20       		.uleb128 0x20
 3364 0176 34       		.uleb128 0x34
 3365 0177 00       		.byte	0
 3366 0178 31       		.uleb128 0x31
 3367 0179 13       		.uleb128 0x13
 3368 017a 00       		.byte	0
 3369 017b 00       		.byte	0
 3370 017c 21       		.uleb128 0x21
 3371 017d 1D       		.uleb128 0x1d
 3372 017e 01       		.byte	0x1
 3373 017f 31       		.uleb128 0x31
 3374 0180 13       		.uleb128 0x13
 3375 0181 11       		.uleb128 0x11
 3376 0182 01       		.uleb128 0x1
 3377 0183 12       		.uleb128 0x12
 3378 0184 01       		.uleb128 0x1
 3379 0185 58       		.uleb128 0x58
 3380 0186 0B       		.uleb128 0xb
 3381 0187 59       		.uleb128 0x59
 3382 0188 0B       		.uleb128 0xb
 3383 0189 00       		.byte	0
 3384 018a 00       		.byte	0
 3385 018b 22       		.uleb128 0x22
 3386 018c 0B       		.uleb128 0xb
 3387 018d 01       		.byte	0x1
 3388 018e 11       		.uleb128 0x11
 3389 018f 01       		.uleb128 0x1
 3390 0190 12       		.uleb128 0x12
 3391 0191 01       		.uleb128 0x1
 3392 0192 00       		.byte	0
 3393 0193 00       		.byte	0
 3394 0194 23       		.uleb128 0x23
 3395 0195 0B       		.uleb128 0xb
 3396 0196 01       		.byte	0x1
 3397 0197 11       		.uleb128 0x11
 3398 0198 01       		.uleb128 0x1
 3399 0199 12       		.uleb128 0x12
 3400 019a 01       		.uleb128 0x1
 3401 019b 01       		.uleb128 0x1
 3402 019c 13       		.uleb128 0x13
 3403 019d 00       		.byte	0
 3404 019e 00       		.byte	0
 3405 019f 24       		.uleb128 0x24
 3406 01a0 34       		.uleb128 0x34
 3407 01a1 00       		.byte	0
 3408 01a2 03       		.uleb128 0x3
 3409 01a3 08       		.uleb128 0x8
 3410 01a4 3A       		.uleb128 0x3a
 3411 01a5 0B       		.uleb128 0xb
ARM GAS  C:\Users\z80\AppData\Local\Temp\cclZliZY.s 			page 61


 3412 01a6 3B       		.uleb128 0x3b
 3413 01a7 0B       		.uleb128 0xb
 3414 01a8 49       		.uleb128 0x49
 3415 01a9 13       		.uleb128 0x13
 3416 01aa 02       		.uleb128 0x2
 3417 01ab 0A       		.uleb128 0xa
 3418 01ac 00       		.byte	0
 3419 01ad 00       		.byte	0
 3420 01ae 25       		.uleb128 0x25
 3421 01af 34       		.uleb128 0x34
 3422 01b0 00       		.byte	0
 3423 01b1 03       		.uleb128 0x3
 3424 01b2 0E       		.uleb128 0xe
 3425 01b3 3A       		.uleb128 0x3a
 3426 01b4 0B       		.uleb128 0xb
 3427 01b5 3B       		.uleb128 0x3b
 3428 01b6 0B       		.uleb128 0xb
 3429 01b7 49       		.uleb128 0x49
 3430 01b8 13       		.uleb128 0x13
 3431 01b9 3F       		.uleb128 0x3f
 3432 01ba 0C       		.uleb128 0xc
 3433 01bb 3C       		.uleb128 0x3c
 3434 01bc 0C       		.uleb128 0xc
 3435 01bd 00       		.byte	0
 3436 01be 00       		.byte	0
 3437 01bf 26       		.uleb128 0x26
 3438 01c0 34       		.uleb128 0x34
 3439 01c1 00       		.byte	0
 3440 01c2 03       		.uleb128 0x3
 3441 01c3 0E       		.uleb128 0xe
 3442 01c4 3A       		.uleb128 0x3a
 3443 01c5 0B       		.uleb128 0xb
 3444 01c6 3B       		.uleb128 0x3b
 3445 01c7 0B       		.uleb128 0xb
 3446 01c8 49       		.uleb128 0x49
 3447 01c9 13       		.uleb128 0x13
 3448 01ca 3F       		.uleb128 0x3f
 3449 01cb 0C       		.uleb128 0xc
 3450 01cc 02       		.uleb128 0x2
 3451 01cd 0A       		.uleb128 0xa
 3452 01ce 00       		.byte	0
 3453 01cf 00       		.byte	0
 3454 01d0 00       		.byte	0
 3455              		.section	.debug_loc,"",%progbits
 3456              	.Ldebug_loc0:
 3457              	.LLST0:
 3458 0000 00000000 		.4byte	.LFB8
 3459 0004 02000000 		.4byte	.LCFI0
 3460 0008 0200     		.2byte	0x2
 3461 000a 7D       		.byte	0x7d
 3462 000b 00       		.sleb128 0
 3463 000c 02000000 		.4byte	.LCFI0
 3464 0010 16000000 		.4byte	.LCFI1
 3465 0014 0200     		.2byte	0x2
 3466 0016 7D       		.byte	0x7d
 3467 0017 10       		.sleb128 16
 3468 0018 16000000 		.4byte	.LCFI1
ARM GAS  C:\Users\z80\AppData\Local\Temp\cclZliZY.s 			page 62


 3469 001c 06080000 		.4byte	.LFE8
 3470 0020 0200     		.2byte	0x2
 3471 0022 7D       		.byte	0x7d
 3472 0023 18       		.sleb128 24
 3473 0024 00000000 		.4byte	0
 3474 0028 00000000 		.4byte	0
 3475              	.LLST1:
 3476 002c 2E000000 		.4byte	.LVL0
 3477 0030 38000000 		.4byte	.LVL1
 3478 0034 0100     		.2byte	0x1
 3479 0036 50       		.byte	0x50
 3480 0037 4A000000 		.4byte	.LVL3
 3481 003b 54000000 		.4byte	.LVL4
 3482 003f 0100     		.2byte	0x1
 3483 0041 50       		.byte	0x50
 3484 0042 66000000 		.4byte	.LVL6
 3485 0046 70000000 		.4byte	.LVL7
 3486 004a 0100     		.2byte	0x1
 3487 004c 50       		.byte	0x50
 3488 004d 82000000 		.4byte	.LVL9
 3489 0051 8C000000 		.4byte	.LVL10
 3490 0055 0100     		.2byte	0x1
 3491 0057 50       		.byte	0x50
 3492 0058 9E000000 		.4byte	.LVL12
 3493 005c A8000000 		.4byte	.LVL13
 3494 0060 0100     		.2byte	0x1
 3495 0062 50       		.byte	0x50
 3496 0063 00000000 		.4byte	0
 3497 0067 00000000 		.4byte	0
 3498              	.LLST2:
 3499 006b 3E000000 		.4byte	.LVL2
 3500 006f 5A000000 		.4byte	.LVL5
 3501 0073 0200     		.2byte	0x2
 3502 0075 31       		.byte	0x31
 3503 0076 9F       		.byte	0x9f
 3504 0077 5A000000 		.4byte	.LVL5
 3505 007b 76000000 		.4byte	.LVL8
 3506 007f 0200     		.2byte	0x2
 3507 0081 32       		.byte	0x32
 3508 0082 9F       		.byte	0x9f
 3509 0083 76000000 		.4byte	.LVL8
 3510 0087 92000000 		.4byte	.LVL11
 3511 008b 0200     		.2byte	0x2
 3512 008d 33       		.byte	0x33
 3513 008e 9F       		.byte	0x9f
 3514 008f 92000000 		.4byte	.LVL11
 3515 0093 AE000000 		.4byte	.LVL14
 3516 0097 0200     		.2byte	0x2
 3517 0099 34       		.byte	0x34
 3518 009a 9F       		.byte	0x9f
 3519 009b B2000000 		.4byte	.LVL15
 3520 009f 06080000 		.4byte	.LFE8
 3521 00a3 0200     		.2byte	0x2
 3522 00a5 34       		.byte	0x34
 3523 00a6 9F       		.byte	0x9f
 3524 00a7 00000000 		.4byte	0
 3525 00ab 00000000 		.4byte	0
ARM GAS  C:\Users\z80\AppData\Local\Temp\cclZliZY.s 			page 63


 3526              	.LLST3:
 3527 00af BC000000 		.4byte	.LVL16
 3528 00b3 C2000000 		.4byte	.LVL17
 3529 00b7 0100     		.2byte	0x1
 3530 00b9 50       		.byte	0x50
 3531 00ba C2000000 		.4byte	.LVL17
 3532 00be CE000000 		.4byte	.LVL18
 3533 00c2 0300     		.2byte	0x3
 3534 00c4 75       		.byte	0x75
 3535 00c5 7F       		.sleb128 -1
 3536 00c6 9F       		.byte	0x9f
 3537 00c7 E6000000 		.4byte	.LVL22
 3538 00cb E9000000 		.4byte	.LVL23-1
 3539 00cf 0100     		.2byte	0x1
 3540 00d1 50       		.byte	0x50
 3541 00d2 E9000000 		.4byte	.LVL23-1
 3542 00d6 10010000 		.4byte	.LVL27
 3543 00da 0100     		.2byte	0x1
 3544 00dc 56       		.byte	0x56
 3545 00dd 10010000 		.4byte	.LVL27
 3546 00e1 1C010000 		.4byte	.LVL28
 3547 00e5 0100     		.2byte	0x1
 3548 00e7 50       		.byte	0x50
 3549 00e8 1C010000 		.4byte	.LVL28
 3550 00ec 1F010000 		.4byte	.LVL29-1
 3551 00f0 0300     		.2byte	0x3
 3552 00f2 73       		.byte	0x73
 3553 00f3 7F       		.sleb128 -1
 3554 00f4 9F       		.byte	0x9f
 3555 00f5 3A010000 		.4byte	.LVL33
 3556 00f9 3D010000 		.4byte	.LVL34-1
 3557 00fd 0100     		.2byte	0x1
 3558 00ff 50       		.byte	0x50
 3559 0100 3D010000 		.4byte	.LVL34-1
 3560 0104 7A010000 		.4byte	.LVL41
 3561 0108 0100     		.2byte	0x1
 3562 010a 56       		.byte	0x56
 3563 010b F6010000 		.4byte	.LVL54
 3564 010f 00020000 		.4byte	.LVL55
 3565 0113 0100     		.2byte	0x1
 3566 0115 50       		.byte	0x50
 3567 0116 1E020000 		.4byte	.LVL57
 3568 011a 28020000 		.4byte	.LVL58
 3569 011e 0100     		.2byte	0x1
 3570 0120 50       		.byte	0x50
 3571 0121 46020000 		.4byte	.LVL60
 3572 0125 50020000 		.4byte	.LVL61
 3573 0129 0100     		.2byte	0x1
 3574 012b 50       		.byte	0x50
 3575 012c 6E020000 		.4byte	.LVL63
 3576 0130 78020000 		.4byte	.LVL64
 3577 0134 0100     		.2byte	0x1
 3578 0136 50       		.byte	0x50
 3579 0137 96020000 		.4byte	.LVL66
 3580 013b A0020000 		.4byte	.LVL67
 3581 013f 0100     		.2byte	0x1
 3582 0141 50       		.byte	0x50
ARM GAS  C:\Users\z80\AppData\Local\Temp\cclZliZY.s 			page 64


 3583 0142 D2020000 		.4byte	.LVL69
 3584 0146 DC020000 		.4byte	.LVL70
 3585 014a 0100     		.2byte	0x1
 3586 014c 50       		.byte	0x50
 3587 014d FA020000 		.4byte	.LVL71
 3588 0151 04030000 		.4byte	.LVL72
 3589 0155 0100     		.2byte	0x1
 3590 0157 50       		.byte	0x50
 3591 0158 4C030000 		.4byte	.LVL73
 3592 015c 52030000 		.4byte	.LVL74
 3593 0160 0100     		.2byte	0x1
 3594 0162 50       		.byte	0x50
 3595 0163 52030000 		.4byte	.LVL74
 3596 0167 5E030000 		.4byte	.LVL75
 3597 016b 0300     		.2byte	0x3
 3598 016d 75       		.byte	0x75
 3599 016e 7F       		.sleb128 -1
 3600 016f 9F       		.byte	0x9f
 3601 0170 78030000 		.4byte	.LVL79
 3602 0174 7B030000 		.4byte	.LVL80-1
 3603 0178 0100     		.2byte	0x1
 3604 017a 50       		.byte	0x50
 3605 017b 7B030000 		.4byte	.LVL80-1
 3606 017f B0030000 		.4byte	.LVL87
 3607 0183 0100     		.2byte	0x1
 3608 0185 56       		.byte	0x56
 3609 0186 38040000 		.4byte	.LVL103
 3610 018a 42040000 		.4byte	.LVL104
 3611 018e 0100     		.2byte	0x1
 3612 0190 50       		.byte	0x50
 3613 0191 54040000 		.4byte	.LVL105
 3614 0195 5E040000 		.4byte	.LVL106
 3615 0199 0100     		.2byte	0x1
 3616 019b 50       		.byte	0x50
 3617 019c 78040000 		.4byte	.LVL107
 3618 01a0 82040000 		.4byte	.LVL108
 3619 01a4 0100     		.2byte	0x1
 3620 01a6 50       		.byte	0x50
 3621 01a7 94040000 		.4byte	.LVL109
 3622 01ab 9E040000 		.4byte	.LVL110
 3623 01af 0100     		.2byte	0x1
 3624 01b1 50       		.byte	0x50
 3625 01b2 B4040000 		.4byte	.LVL111
 3626 01b6 B7040000 		.4byte	.LVL112-1
 3627 01ba 0100     		.2byte	0x1
 3628 01bc 50       		.byte	0x50
 3629 01bd B7040000 		.4byte	.LVL112-1
 3630 01c1 08050000 		.4byte	.LVL120
 3631 01c5 0100     		.2byte	0x1
 3632 01c7 56       		.byte	0x56
 3633 01c8 08050000 		.4byte	.LVL120
 3634 01cc 0B050000 		.4byte	.LVL121-1
 3635 01d0 0100     		.2byte	0x1
 3636 01d2 50       		.byte	0x50
 3637 01d3 0B050000 		.4byte	.LVL121-1
 3638 01d7 C8050000 		.4byte	.LVL139
 3639 01db 0100     		.2byte	0x1
ARM GAS  C:\Users\z80\AppData\Local\Temp\cclZliZY.s 			page 65


 3640 01dd 56       		.byte	0x56
 3641 01de C8050000 		.4byte	.LVL139
 3642 01e2 D2050000 		.4byte	.LVL140
 3643 01e6 0100     		.2byte	0x1
 3644 01e8 50       		.byte	0x50
 3645 01e9 E4050000 		.4byte	.LVL141
 3646 01ed EE050000 		.4byte	.LVL142
 3647 01f1 0100     		.2byte	0x1
 3648 01f3 50       		.byte	0x50
 3649 01f4 00060000 		.4byte	.LVL143
 3650 01f8 0A060000 		.4byte	.LVL144
 3651 01fc 0100     		.2byte	0x1
 3652 01fe 50       		.byte	0x50
 3653 01ff 1C060000 		.4byte	.LVL145
 3654 0203 26060000 		.4byte	.LVL146
 3655 0207 0100     		.2byte	0x1
 3656 0209 50       		.byte	0x50
 3657 020a 42060000 		.4byte	.LVL147
 3658 020e 45060000 		.4byte	.LVL148-1
 3659 0212 0100     		.2byte	0x1
 3660 0214 50       		.byte	0x50
 3661 0215 45060000 		.4byte	.LVL148-1
 3662 0219 7A060000 		.4byte	.LVL152
 3663 021d 0100     		.2byte	0x1
 3664 021f 55       		.byte	0x55
 3665 0220 96060000 		.4byte	.LVL156
 3666 0224 99060000 		.4byte	.LVL157-1
 3667 0228 0100     		.2byte	0x1
 3668 022a 50       		.byte	0x50
 3669 022b 99060000 		.4byte	.LVL157-1
 3670 022f E2070000 		.4byte	.LVL190
 3671 0233 0100     		.2byte	0x1
 3672 0235 56       		.byte	0x56
 3673 0236 00000000 		.4byte	0
 3674 023a 00000000 		.4byte	0
 3675              	.LLST4:
 3676 023e EA010000 		.4byte	.LVL53
 3677 0242 12020000 		.4byte	.LVL56
 3678 0246 0200     		.2byte	0x2
 3679 0248 30       		.byte	0x30
 3680 0249 9F       		.byte	0x9f
 3681 024a 12020000 		.4byte	.LVL56
 3682 024e 3A020000 		.4byte	.LVL59
 3683 0252 0200     		.2byte	0x2
 3684 0254 31       		.byte	0x31
 3685 0255 9F       		.byte	0x9f
 3686 0256 3A020000 		.4byte	.LVL59
 3687 025a 62020000 		.4byte	.LVL62
 3688 025e 0200     		.2byte	0x2
 3689 0260 32       		.byte	0x32
 3690 0261 9F       		.byte	0x9f
 3691 0262 62020000 		.4byte	.LVL62
 3692 0266 8A020000 		.4byte	.LVL65
 3693 026a 0200     		.2byte	0x2
 3694 026c 33       		.byte	0x33
 3695 026d 9F       		.byte	0x9f
 3696 026e 8A020000 		.4byte	.LVL65
ARM GAS  C:\Users\z80\AppData\Local\Temp\cclZliZY.s 			page 66


 3697 0272 B2020000 		.4byte	.LVL68
 3698 0276 0200     		.2byte	0x2
 3699 0278 34       		.byte	0x34
 3700 0279 9F       		.byte	0x9f
 3701 027a B2020000 		.4byte	.LVL68
 3702 027e EC040000 		.4byte	.LVL116
 3703 0282 0200     		.2byte	0x2
 3704 0284 35       		.byte	0x35
 3705 0285 9F       		.byte	0x9f
 3706 0286 00000000 		.4byte	0
 3707 028a 00000000 		.4byte	0
 3708              	.LLST5:
 3709 028e D8000000 		.4byte	.LVL20
 3710 0292 DB000000 		.4byte	.LVL21-1
 3711 0296 0100     		.2byte	0x1
 3712 0298 53       		.byte	0x53
 3713 0299 00000000 		.4byte	0
 3714 029d 00000000 		.4byte	0
 3715              	.LLST6:
 3716 02a1 F0000000 		.4byte	.LVL25
 3717 02a5 01010000 		.4byte	.LVL26-1
 3718 02a9 0100     		.2byte	0x1
 3719 02ab 53       		.byte	0x53
 3720 02ac 00000000 		.4byte	0
 3721 02b0 00000000 		.4byte	0
 3722              	.LLST7:
 3723 02b4 2C010000 		.4byte	.LVL31
 3724 02b8 2F010000 		.4byte	.LVL32-1
 3725 02bc 0100     		.2byte	0x1
 3726 02be 53       		.byte	0x53
 3727 02bf 00000000 		.4byte	0
 3728 02c3 00000000 		.4byte	0
 3729              	.LLST8:
 3730 02c7 44010000 		.4byte	.LVL36
 3731 02cb 55010000 		.4byte	.LVL37-1
 3732 02cf 0100     		.2byte	0x1
 3733 02d1 53       		.byte	0x53
 3734 02d2 00000000 		.4byte	0
 3735 02d6 00000000 		.4byte	0
 3736              	.LLST9:
 3737 02da 60010000 		.4byte	.LVL39
 3738 02de 63010000 		.4byte	.LVL40-1
 3739 02e2 0100     		.2byte	0x1
 3740 02e4 53       		.byte	0x53
 3741 02e5 00000000 		.4byte	0
 3742 02e9 00000000 		.4byte	0
 3743              	.LLST10:
 3744 02ed 8E010000 		.4byte	.LVL43
 3745 02f1 90010000 		.4byte	.LVL44
 3746 02f5 0100     		.2byte	0x1
 3747 02f7 53       		.byte	0x53
 3748 02f8 00000000 		.4byte	0
 3749 02fc 00000000 		.4byte	0
 3750              	.LLST11:
 3751 0300 94010000 		.4byte	.LVL45
 3752 0304 97010000 		.4byte	.LVL46-1
 3753 0308 0100     		.2byte	0x1
ARM GAS  C:\Users\z80\AppData\Local\Temp\cclZliZY.s 			page 67


 3754 030a 53       		.byte	0x53
 3755 030b 00000000 		.4byte	0
 3756 030f 00000000 		.4byte	0
 3757              	.LLST12:
 3758 0313 BC010000 		.4byte	.LVL48
 3759 0317 BE010000 		.4byte	.LVL49
 3760 031b 0100     		.2byte	0x1
 3761 031d 53       		.byte	0x53
 3762 031e 00000000 		.4byte	0
 3763 0322 00000000 		.4byte	0
 3764              	.LLST13:
 3765 0326 C2010000 		.4byte	.LVL50
 3766 032a C5010000 		.4byte	.LVL51-1
 3767 032e 0100     		.2byte	0x1
 3768 0330 53       		.byte	0x53
 3769 0331 00000000 		.4byte	0
 3770 0335 00000000 		.4byte	0
 3771              	.LLST14:
 3772 0339 EA010000 		.4byte	.LVL53
 3773 033d F5010000 		.4byte	.LVL54-1
 3774 0341 0100     		.2byte	0x1
 3775 0343 53       		.byte	0x53
 3776 0344 00000000 		.4byte	0
 3777 0348 00000000 		.4byte	0
 3778              	.LLST15:
 3779 034c 6A030000 		.4byte	.LVL77
 3780 0350 6D030000 		.4byte	.LVL78-1
 3781 0354 0100     		.2byte	0x1
 3782 0356 53       		.byte	0x53
 3783 0357 00000000 		.4byte	0
 3784 035b 00000000 		.4byte	0
 3785              	.LLST16:
 3786 035f 82030000 		.4byte	.LVL82
 3787 0363 93030000 		.4byte	.LVL83-1
 3788 0367 0100     		.2byte	0x1
 3789 0369 53       		.byte	0x53
 3790 036a 00000000 		.4byte	0
 3791 036e 00000000 		.4byte	0
 3792              	.LLST17:
 3793 0372 A2030000 		.4byte	.LVL85
 3794 0376 A5030000 		.4byte	.LVL86-1
 3795 037a 0100     		.2byte	0x1
 3796 037c 53       		.byte	0x53
 3797 037d 00000000 		.4byte	0
 3798 0381 00000000 		.4byte	0
 3799              	.LLST18:
 3800 0385 CA030000 		.4byte	.LVL89
 3801 0389 CC030000 		.4byte	.LVL90
 3802 038d 0100     		.2byte	0x1
 3803 038f 53       		.byte	0x53
 3804 0390 00000000 		.4byte	0
 3805 0394 00000000 		.4byte	0
 3806              	.LLST19:
 3807 0398 D0030000 		.4byte	.LVL91
 3808 039c D3030000 		.4byte	.LVL92-1
 3809 03a0 0100     		.2byte	0x1
 3810 03a2 53       		.byte	0x53
ARM GAS  C:\Users\z80\AppData\Local\Temp\cclZliZY.s 			page 68


 3811 03a3 00000000 		.4byte	0
 3812 03a7 00000000 		.4byte	0
 3813              	.LLST20:
 3814 03ab F6030000 		.4byte	.LVL94
 3815 03af F8030000 		.4byte	.LVL95
 3816 03b3 0100     		.2byte	0x1
 3817 03b5 53       		.byte	0x53
 3818 03b6 00000000 		.4byte	0
 3819 03ba 00000000 		.4byte	0
 3820              	.LLST21:
 3821 03be FC030000 		.4byte	.LVL96
 3822 03c2 FF030000 		.4byte	.LVL97-1
 3823 03c6 0100     		.2byte	0x1
 3824 03c8 53       		.byte	0x53
 3825 03c9 00000000 		.4byte	0
 3826 03cd 00000000 		.4byte	0
 3827              	.LLST22:
 3828 03d1 26040000 		.4byte	.LVL99
 3829 03d5 28040000 		.4byte	.LVL100
 3830 03d9 0100     		.2byte	0x1
 3831 03db 53       		.byte	0x53
 3832 03dc 00000000 		.4byte	0
 3833 03e0 00000000 		.4byte	0
 3834              	.LLST23:
 3835 03e4 2C040000 		.4byte	.LVL101
 3836 03e8 2F040000 		.4byte	.LVL102-1
 3837 03ec 0100     		.2byte	0x1
 3838 03ee 53       		.byte	0x53
 3839 03ef 00000000 		.4byte	0
 3840 03f3 00000000 		.4byte	0
 3841              	.LLST24:
 3842 03f7 BE040000 		.4byte	.LVL114
 3843 03fb CB040000 		.4byte	.LVL115-1
 3844 03ff 0100     		.2byte	0x1
 3845 0401 53       		.byte	0x53
 3846 0402 00000000 		.4byte	0
 3847 0406 00000000 		.4byte	0
 3848              	.LLST25:
 3849 040a F2040000 		.4byte	.LVL118
 3850 040e FD040000 		.4byte	.LVL119-1
 3851 0412 0100     		.2byte	0x1
 3852 0414 53       		.byte	0x53
 3853 0415 00000000 		.4byte	0
 3854 0419 00000000 		.4byte	0
 3855              	.LLST26:
 3856 041d 12050000 		.4byte	.LVL123
 3857 0421 14050000 		.4byte	.LVL124
 3858 0425 0100     		.2byte	0x1
 3859 0427 53       		.byte	0x53
 3860 0428 00000000 		.4byte	0
 3861 042c 00000000 		.4byte	0
 3862              	.LLST27:
 3863 0430 4E050000 		.4byte	.LVL126
 3864 0434 51050000 		.4byte	.LVL127-1
 3865 0438 0100     		.2byte	0x1
 3866 043a 53       		.byte	0x53
 3867 043b 00000000 		.4byte	0
ARM GAS  C:\Users\z80\AppData\Local\Temp\cclZliZY.s 			page 69


 3868 043f 00000000 		.4byte	0
 3869              	.LLST28:
 3870 0443 74050000 		.4byte	.LVL129
 3871 0447 76050000 		.4byte	.LVL130
 3872 044b 0100     		.2byte	0x1
 3873 044d 53       		.byte	0x53
 3874 044e 00000000 		.4byte	0
 3875 0452 00000000 		.4byte	0
 3876              	.LLST29:
 3877 0456 7A050000 		.4byte	.LVL131
 3878 045a 7D050000 		.4byte	.LVL132-1
 3879 045e 0100     		.2byte	0x1
 3880 0460 53       		.byte	0x53
 3881 0461 00000000 		.4byte	0
 3882 0465 00000000 		.4byte	0
 3883              	.LLST30:
 3884 0469 9E050000 		.4byte	.LVL134
 3885 046d A2050000 		.4byte	.LVL135
 3886 0471 0100     		.2byte	0x1
 3887 0473 53       		.byte	0x53
 3888 0474 00000000 		.4byte	0
 3889 0478 00000000 		.4byte	0
 3890              	.LLST31:
 3891 047c BC050000 		.4byte	.LVL137
 3892 0480 BF050000 		.4byte	.LVL138-1
 3893 0484 0100     		.2byte	0x1
 3894 0486 53       		.byte	0x53
 3895 0487 00000000 		.4byte	0
 3896 048b 00000000 		.4byte	0
 3897              	.LLST32:
 3898 048f 4C060000 		.4byte	.LVL150
 3899 0493 4E060000 		.4byte	.LVL151
 3900 0497 0100     		.2byte	0x1
 3901 0499 53       		.byte	0x53
 3902 049a 00000000 		.4byte	0
 3903 049e 00000000 		.4byte	0
 3904              	.LLST33:
 3905 04a2 80060000 		.4byte	.LVL154
 3906 04a6 8B060000 		.4byte	.LVL155-1
 3907 04aa 0100     		.2byte	0x1
 3908 04ac 53       		.byte	0x53
 3909 04ad 00000000 		.4byte	0
 3910 04b1 00000000 		.4byte	0
 3911              	.LLST34:
 3912 04b5 A0060000 		.4byte	.LVL159
 3913 04b9 A2060000 		.4byte	.LVL160
 3914 04bd 0100     		.2byte	0x1
 3915 04bf 53       		.byte	0x53
 3916 04c0 00000000 		.4byte	0
 3917 04c4 00000000 		.4byte	0
 3918              	.LLST35:
 3919 04c8 DC060000 		.4byte	.LVL162
 3920 04cc DF060000 		.4byte	.LVL163-1
 3921 04d0 0100     		.2byte	0x1
 3922 04d2 53       		.byte	0x53
 3923 04d3 00000000 		.4byte	0
 3924 04d7 00000000 		.4byte	0
ARM GAS  C:\Users\z80\AppData\Local\Temp\cclZliZY.s 			page 70


 3925              	.LLST36:
 3926 04db 02070000 		.4byte	.LVL165
 3927 04df 04070000 		.4byte	.LVL166
 3928 04e3 0100     		.2byte	0x1
 3929 04e5 53       		.byte	0x53
 3930 04e6 00000000 		.4byte	0
 3931 04ea 00000000 		.4byte	0
 3932              	.LLST37:
 3933 04ee 08070000 		.4byte	.LVL167
 3934 04f2 0B070000 		.4byte	.LVL168-1
 3935 04f6 0100     		.2byte	0x1
 3936 04f8 53       		.byte	0x53
 3937 04f9 00000000 		.4byte	0
 3938 04fd 00000000 		.4byte	0
 3939              	.LLST38:
 3940 0501 2A070000 		.4byte	.LVL170
 3941 0505 2C070000 		.4byte	.LVL171
 3942 0509 0100     		.2byte	0x1
 3943 050b 53       		.byte	0x53
 3944 050c 00000000 		.4byte	0
 3945 0510 00000000 		.4byte	0
 3946              	.LLST39:
 3947 0514 4E070000 		.4byte	.LVL173
 3948 0518 51070000 		.4byte	.LVL174-1
 3949 051c 0100     		.2byte	0x1
 3950 051e 53       		.byte	0x53
 3951 051f 00000000 		.4byte	0
 3952 0523 00000000 		.4byte	0
 3953              	.LLST40:
 3954 0527 74070000 		.4byte	.LVL176
 3955 052b 76070000 		.4byte	.LVL177
 3956 052f 0100     		.2byte	0x1
 3957 0531 53       		.byte	0x53
 3958 0532 00000000 		.4byte	0
 3959 0536 00000000 		.4byte	0
 3960              	.LLST41:
 3961 053a 7A070000 		.4byte	.LVL178
 3962 053e 7D070000 		.4byte	.LVL179-1
 3963 0542 0100     		.2byte	0x1
 3964 0544 53       		.byte	0x53
 3965 0545 00000000 		.4byte	0
 3966 0549 00000000 		.4byte	0
 3967              	.LLST42:
 3968 054d 9A070000 		.4byte	.LVL181
 3969 0551 9C070000 		.4byte	.LVL182
 3970 0555 0100     		.2byte	0x1
 3971 0557 53       		.byte	0x53
 3972 0558 00000000 		.4byte	0
 3973 055c 00000000 		.4byte	0
 3974              	.LLST43:
 3975 0560 A0070000 		.4byte	.LVL183
 3976 0564 A3070000 		.4byte	.LVL184-1
 3977 0568 0100     		.2byte	0x1
 3978 056a 53       		.byte	0x53
 3979 056b 00000000 		.4byte	0
 3980 056f 00000000 		.4byte	0
 3981              	.LLST44:
ARM GAS  C:\Users\z80\AppData\Local\Temp\cclZliZY.s 			page 71


 3982 0573 C4070000 		.4byte	.LVL186
 3983 0577 C6070000 		.4byte	.LVL187
 3984 057b 0100     		.2byte	0x1
 3985 057d 53       		.byte	0x53
 3986 057e 00000000 		.4byte	0
 3987 0582 00000000 		.4byte	0
 3988              	.LLST45:
 3989 0586 CA070000 		.4byte	.LVL188
 3990 058a CD070000 		.4byte	.LVL189-1
 3991 058e 0100     		.2byte	0x1
 3992 0590 53       		.byte	0x53
 3993 0591 00000000 		.4byte	0
 3994 0595 00000000 		.4byte	0
 3995              	.LLST46:
 3996 0599 AE000000 		.4byte	.LVL14
 3997 059d B2000000 		.4byte	.LVL15
 3998 05a1 0100     		.2byte	0x1
 3999 05a3 53       		.byte	0x53
 4000 05a4 EC070000 		.4byte	.LVL191
 4001 05a8 EE070000 		.4byte	.LVL192
 4002 05ac 0100     		.2byte	0x1
 4003 05ae 53       		.byte	0x53
 4004 05af 00000000 		.4byte	0
 4005 05b3 00000000 		.4byte	0
 4006              	.LLST47:
 4007 05b7 AE000000 		.4byte	.LVL14
 4008 05bb B2000000 		.4byte	.LVL15
 4009 05bf 0100     		.2byte	0x1
 4010 05c1 53       		.byte	0x53
 4011 05c2 F8070000 		.4byte	.LVL193
 4012 05c6 FA070000 		.4byte	.LVL194
 4013 05ca 0100     		.2byte	0x1
 4014 05cc 53       		.byte	0x53
 4015 05cd 00000000 		.4byte	0
 4016 05d1 00000000 		.4byte	0
 4017              	.LLST48:
 4018 05d5 AE000000 		.4byte	.LVL14
 4019 05d9 B2000000 		.4byte	.LVL15
 4020 05dd 0100     		.2byte	0x1
 4021 05df 53       		.byte	0x53
 4022 05e0 04080000 		.4byte	.LVL195
 4023 05e4 06080000 		.4byte	.LFE8
 4024 05e8 0100     		.2byte	0x1
 4025 05ea 53       		.byte	0x53
 4026 05eb 00000000 		.4byte	0
 4027 05ef 00000000 		.4byte	0
 4028              		.section	.debug_aranges,"",%progbits
 4029 0000 24000000 		.4byte	0x24
 4030 0004 0200     		.2byte	0x2
 4031 0006 00000000 		.4byte	.Ldebug_info0
 4032 000a 04       		.byte	0x4
 4033 000b 00       		.byte	0
 4034 000c 0000     		.2byte	0
 4035 000e 0000     		.2byte	0
 4036 0010 00000000 		.4byte	.LFB7
 4037 0014 16000000 		.4byte	.LFE7-.LFB7
 4038 0018 00000000 		.4byte	.LFB8
ARM GAS  C:\Users\z80\AppData\Local\Temp\cclZliZY.s 			page 72


 4039 001c 06080000 		.4byte	.LFE8-.LFB8
 4040 0020 00000000 		.4byte	0
 4041 0024 00000000 		.4byte	0
 4042              		.section	.debug_ranges,"",%progbits
 4043              	.Ldebug_ranges0:
 4044 0000 00000000 		.4byte	.LFB7
 4045 0004 16000000 		.4byte	.LFE7
 4046 0008 00000000 		.4byte	.LFB8
 4047 000c 06080000 		.4byte	.LFE8
 4048 0010 00000000 		.4byte	0
 4049 0014 00000000 		.4byte	0
 4050              		.section	.debug_line,"",%progbits
 4051              	.Ldebug_line0:
 4052 0000 15020000 		.section	.debug_str,"MS",%progbits,1
 4052      02005B01 
 4052      00000201 
 4052      FB0E0D00 
 4052      01010101 
 4053              	.LASF42:
 4054 0000 696E7463 		.ascii	"intctx\000"
 4054      747800
 4055              	.LASF34:
 4056 0007 705F6D73 		.ascii	"p_msg\000"
 4056      6700
 4057              	.LASF58:
 4058 000d 7264796D 		.ascii	"rdymsg\000"
 4058      736700
 4059              	.LASF11:
 4060 0014 75696E74 		.ascii	"uint64_t\000"
 4060      36345F74 
 4060      00
 4061              	.LASF57:
 4062 001d 4D61696C 		.ascii	"Mailbox\000"
 4062      626F7800 
 4063              	.LASF12:
 4064 0025 6C6F6E67 		.ascii	"long long unsigned int\000"
 4064      206C6F6E 
 4064      6720756E 
 4064      7369676E 
 4064      65642069 
 4065              	.LASF73:
 4066 003c 70617474 		.ascii	"patternmbox\000"
 4066      65726E6D 
 4066      626F7800 
 4067              	.LASF59:
 4068 0048 65786974 		.ascii	"exitcode\000"
 4068      636F6465 
 4068      00
 4069              	.LASF71:
 4070 0051 74657374 		.ascii	"test\000"
 4070      00
 4071              	.LASF53:
 4072 0056 6D625F77 		.ascii	"mb_wrptr\000"
 4072      72707472 
 4072      00
 4073              	.LASF23:
 4074 005f 705F7072 		.ascii	"p_prio\000"
ARM GAS  C:\Users\z80\AppData\Local\Temp\cclZliZY.s 			page 73


 4074      696F00
 4075              	.LASF10:
 4076 0066 6C6F6E67 		.ascii	"long long int\000"
 4076      206C6F6E 
 4076      6720696E 
 4076      7400
 4077              	.LASF1:
 4078 0074 7369676E 		.ascii	"signed char\000"
 4078      65642063 
 4078      68617200 
 4079              	.LASF48:
 4080 0080 6D5F7175 		.ascii	"m_queue\000"
 4080      65756500 
 4081              	.LASF76:
 4082 0088 433A5C70 		.ascii	"C:\\projects\\digitizer.git\\firmware\\digitizer\000"
 4082      726F6A65 
 4082      6374735C 
 4082      64696769 
 4082      74697A65 
 4083              	.LASF7:
 4084 00b5 6C6F6E67 		.ascii	"long int\000"
 4084      20696E74 
 4084      00
 4085              	.LASF14:
 4086 00be 74737461 		.ascii	"tstate_t\000"
 4086      74655F74 
 4086      00
 4087              	.LASF25:
 4088 00c7 705F6E65 		.ascii	"p_newer\000"
 4088      77657200 
 4089              	.LASF45:
 4090 00cf 735F7175 		.ascii	"s_queue\000"
 4090      65756500 
 4091              	.LASF40:
 4092 00d7 72656761 		.ascii	"regarm_t\000"
 4092      726D5F74 
 4092      00
 4093              	.LASF19:
 4094 00e0 636E745F 		.ascii	"cnt_t\000"
 4094      7400
 4095              	.LASF28:
 4096 00e6 705F7374 		.ascii	"p_stklimit\000"
 4096      6B6C696D 
 4096      697400
 4097              	.LASF0:
 4098 00f1 756E7369 		.ascii	"unsigned int\000"
 4098      676E6564 
 4098      20696E74 
 4098      00
 4099              	.LASF69:
 4100 00fe 6D736731 		.ascii	"msg1\000"
 4100      00
 4101              	.LASF70:
 4102 0103 6D736732 		.ascii	"msg2\000"
 4102      00
 4103              	.LASF9:
 4104 0108 6C6F6E67 		.ascii	"long unsigned int\000"
ARM GAS  C:\Users\z80\AppData\Local\Temp\cclZliZY.s 			page 74


 4104      20756E73 
 4104      69676E65 
 4104      6420696E 
 4104      7400
 4105              	.LASF66:
 4106 011a 74656172 		.ascii	"teardown\000"
 4106      646F776E 
 4106      00
 4107              	.LASF56:
 4108 0123 6D625F65 		.ascii	"mb_emptysem\000"
 4108      6D707479 
 4108      73656D00 
 4109              	.LASF64:
 4110 012f 6E616D65 		.ascii	"name\000"
 4110      00
 4111              	.LASF46:
 4112 0134 735F636E 		.ascii	"s_cnt\000"
 4112      7400
 4113              	.LASF43:
 4114 013a 636F6E74 		.ascii	"context\000"
 4114      65787400 
 4115              	.LASF4:
 4116 0142 73686F72 		.ascii	"short unsigned int\000"
 4116      7420756E 
 4116      7369676E 
 4116      65642069 
 4116      6E7400
 4117              	.LASF16:
 4118 0155 6D73675F 		.ascii	"msg_t\000"
 4118      7400
 4119              	.LASF13:
 4120 015b 746D6F64 		.ascii	"tmode_t\000"
 4120      655F7400 
 4121              	.LASF79:
 4122 0163 6D626F78 		.ascii	"mbox1_setup\000"
 4122      315F7365 
 4122      74757000 
 4123              	.LASF39:
 4124 016f 54687265 		.ascii	"ThreadsList\000"
 4124      6164734C 
 4124      69737400 
 4125              	.LASF17:
 4126 017b 6576656E 		.ascii	"eventmask_t\000"
 4126      746D6173 
 4126      6B5F7400 
 4127              	.LASF47:
 4128 0187 4D757465 		.ascii	"Mutex\000"
 4128      7800
 4129              	.LASF72:
 4130 018d 74657374 		.ascii	"testmbox1\000"
 4130      6D626F78 
 4130      3100
 4131              	.LASF41:
 4132 0197 73746B61 		.ascii	"stkalign_t\000"
 4132      6C69676E 
 4132      5F7400
 4133              	.LASF54:
ARM GAS  C:\Users\z80\AppData\Local\Temp\cclZliZY.s 			page 75


 4134 01a2 6D625F72 		.ascii	"mb_rdptr\000"
 4134      64707472 
 4134      00
 4135              	.LASF26:
 4136 01ab 705F6F6C 		.ascii	"p_older\000"
 4136      64657200 
 4137              	.LASF38:
 4138 01b3 54687265 		.ascii	"ThreadsQueue\000"
 4138      61647351 
 4138      75657565 
 4138      00
 4139              	.LASF65:
 4140 01c0 73657475 		.ascii	"setup\000"
 4140      7000
 4141              	.LASF51:
 4142 01c6 6D625F62 		.ascii	"mb_buffer\000"
 4142      75666665 
 4142      7200
 4143              	.LASF78:
 4144 01d0 6D626F78 		.ascii	"mbox1_execute\000"
 4144      315F6578 
 4144      65637574 
 4144      6500
 4145              	.LASF22:
 4146 01de 705F7072 		.ascii	"p_prev\000"
 4146      657600
 4147              	.LASF67:
 4148 01e5 65786563 		.ascii	"execute\000"
 4148      75746500 
 4149              	.LASF15:
 4150 01ed 74707269 		.ascii	"tprio_t\000"
 4150      6F5F7400 
 4151              	.LASF6:
 4152 01f5 696E7433 		.ascii	"int32_t\000"
 4152      325F7400 
 4153              	.LASF2:
 4154 01fd 756E7369 		.ascii	"unsigned char\000"
 4154      676E6564 
 4154      20636861 
 4154      7200
 4155              	.LASF52:
 4156 020b 6D625F74 		.ascii	"mb_top\000"
 4156      6F7000
 4157              	.LASF36:
 4158 0212 705F6D74 		.ascii	"p_mtxlist\000"
 4158      786C6973 
 4158      7400
 4159              	.LASF3:
 4160 021c 73686F72 		.ascii	"short int\000"
 4160      7420696E 
 4160      7400
 4161              	.LASF29:
 4162 0226 705F7374 		.ascii	"p_state\000"
 4162      61746500 
 4163              	.LASF61:
 4164 022e 65776D61 		.ascii	"ewmask\000"
 4164      736B00
ARM GAS  C:\Users\z80\AppData\Local\Temp\cclZliZY.s 			page 76


 4165              	.LASF21:
 4166 0235 705F6E65 		.ascii	"p_next\000"
 4166      787400
 4167              	.LASF30:
 4168 023c 705F666C 		.ascii	"p_flags\000"
 4168      61677300 
 4169              	.LASF20:
 4170 0244 54687265 		.ascii	"Thread\000"
 4170      616400
 4171              	.LASF63:
 4172 024b 74657374 		.ascii	"testcase\000"
 4172      63617365 
 4172      00
 4173              	.LASF35:
 4174 0254 705F6570 		.ascii	"p_epending\000"
 4174      656E6469 
 4174      6E6700
 4175              	.LASF8:
 4176 025f 75696E74 		.ascii	"uint32_t\000"
 4176      33325F74 
 4176      00
 4177              	.LASF74:
 4178 0268 474E5520 		.ascii	"GNU C 4.6.3\000"
 4178      4320342E 
 4178      362E3300 
 4179              	.LASF62:
 4180 0274 63686172 		.ascii	"char\000"
 4180      00
 4181              	.LASF50:
 4182 0279 6D5F6E65 		.ascii	"m_next\000"
 4182      787400
 4183              	.LASF18:
 4184 0280 73797374 		.ascii	"systime_t\000"
 4184      696D655F 
 4184      7400
 4185              	.LASF37:
 4186 028a 705F7265 		.ascii	"p_realprio\000"
 4186      616C7072 
 4186      696F00
 4187              	.LASF68:
 4188 0295 62756666 		.ascii	"buffer\000"
 4188      657200
 4189              	.LASF31:
 4190 029c 705F7469 		.ascii	"p_time\000"
 4190      6D6500
 4191              	.LASF75:
 4192 02a3 2E2E2F63 		.ascii	"../chibios_2.4.x/test/testmbox.c\000"
 4192      68696269 
 4192      6F735F32 
 4192      2E342E78 
 4192      2F746573 
 4193              	.LASF33:
 4194 02c4 705F6D73 		.ascii	"p_msgqueue\000"
 4194      67717565 
 4194      756500
 4195              	.LASF44:
 4196 02cf 53656D61 		.ascii	"Semaphore\000"
ARM GAS  C:\Users\z80\AppData\Local\Temp\cclZliZY.s 			page 77


 4196      70686F72 
 4196      6500
 4197              	.LASF55:
 4198 02d9 6D625F66 		.ascii	"mb_fullsem\000"
 4198      756C6C73 
 4198      656D00
 4199              	.LASF77:
 4200 02e4 74657374 		.ascii	"test_buffers\000"
 4200      5F627566 
 4200      66657273 
 4200      00
 4201              	.LASF5:
 4202 02f1 75696E74 		.ascii	"uint8_t\000"
 4202      385F7400 
 4203              	.LASF60:
 4204 02f9 77746F62 		.ascii	"wtobjp\000"
 4204      6A7000
 4205              	.LASF27:
 4206 0300 705F6E61 		.ascii	"p_name\000"
 4206      6D6500
 4207              	.LASF49:
 4208 0307 6D5F6F77 		.ascii	"m_owner\000"
 4208      6E657200 
 4209              	.LASF24:
 4210 030f 705F6374 		.ascii	"p_ctx\000"
 4210      7800
 4211              	.LASF32:
 4212 0315 705F7761 		.ascii	"p_waiting\000"
 4212      6974696E 
 4212      6700
 4213              		.ident	"GCC: (Sourcery CodeBench Lite 2012.03-56) 4.6.3"
ARM GAS  C:\Users\z80\AppData\Local\Temp\cclZliZY.s 			page 78


DEFINED SYMBOLS
                            *ABS*:00000000 testmbox.c
C:\Users\z80\AppData\Local\Temp\cclZliZY.s:19     .text.mbox1_setup:00000000 $t
C:\Users\z80\AppData\Local\Temp\cclZliZY.s:24     .text.mbox1_setup:00000000 mbox1_setup
C:\Users\z80\AppData\Local\Temp\cclZliZY.s:1310   .data.mb1:00000000 .LANCHOR0
C:\Users\z80\AppData\Local\Temp\cclZliZY.s:45     .text.mbox1_execute:00000000 $t
C:\Users\z80\AppData\Local\Temp\cclZliZY.s:50     .text.mbox1_execute:00000000 mbox1_execute
C:\Users\z80\AppData\Local\Temp\cclZliZY.s:1333   .rodata.str1.4:00000000 .LC0
C:\Users\z80\AppData\Local\Temp\cclZliZY.s:1328   .rodata.patternmbox:00000000 patternmbox
C:\Users\z80\AppData\Local\Temp\cclZliZY.s:1342   .rodata.testmbox1:00000000 testmbox1
C:\Users\z80\AppData\Local\Temp\cclZliZY.s:1309   .data.mb1:00000000 $d
C:\Users\z80\AppData\Local\Temp\cclZliZY.s:1313   .data.mb1:00000000 mb1
C:\Users\z80\AppData\Local\Temp\cclZliZY.s:1325   .rodata.patternmbox:00000000 $d
C:\Users\z80\AppData\Local\Temp\cclZliZY.s:1332   .rodata.str1.4:00000000 $d
C:\Users\z80\AppData\Local\Temp\cclZliZY.s:1339   .rodata.testmbox1:00000000 $d
                     .debug_frame:00000010 $d

UNDEFINED SYMBOLS
test
chMBInit
_test_assert
chMBPost
chMBPostAhead
dbg_check_lock
chMBPostI
dbg_check_unlock
chMBPostAheadI
chMBFetch
test_emit_token
_test_assert_sequence
chMBFetchI
chMBReset
