ARM GAS  C:\Users\z80\AppData\Local\Temp\ccI1wunY.s 			page 1


   1              		.syntax unified
   2              		.cpu cortex-m3
   3              		.fpu softvfp
   4              		.eabi_attribute 20, 1
   5              		.eabi_attribute 21, 1
   6              		.eabi_attribute 23, 3
   7              		.eabi_attribute 24, 1
   8              		.eabi_attribute 25, 1
   9              		.eabi_attribute 26, 1
  10              		.eabi_attribute 30, 2
  11              		.eabi_attribute 18, 4
  12              		.thumb
  13              		.file	"timer_ctrl.c"
  14              		.section	.debug_abbrev,"",%progbits
  15              	.Ldebug_abbrev0:
  16              		.section	.debug_info,"",%progbits
  17              	.Ldebug_info0:
  18              		.section	.debug_line,"",%progbits
  19              	.Ldebug_line0:
  20 0000 4A010000 		.text
  20      02001E01 
  20      00000201 
  20      FB0E0D00 
  20      01010101 
  21              	.Ltext0:
  22              		.cfi_sections	.debug_frame
  23              		.section	.text.gptCb,"ax",%progbits
  24              		.align	2
  25              		.p2align 4,,15
  26              		.thumb
  27              		.thumb_func
  28              		.type	gptCb, %function
  29              	gptCb:
  30              	.LFB63:
  31              		.file 1 "./src/timer_ctrl.c"
  32              		.loc 1 31 0
  33              		.cfi_startproc
  34              		@ args = 0, pretend = 0, frame = 0
  35              		@ frame_needed = 0, uses_anonymous_args = 0
  36              	.LVL0:
  37 0000 08B5     		push	{r3, lr}
  38              	.LCFI0:
  39              		.cfi_def_cfa_offset 8
  40              	.LBB2:
  41              		.loc 1 33 0
  42 0002 2023     		movs	r3, #32
  43              		.cfi_offset 14, -4
  44              		.cfi_offset 3, -8
  45              	.LVL1:
  46              	@ 33 "./src/timer_ctrl.c" 1
  47 0004 83F31188 		msr     BASEPRI, r3
  48              	@ 0 "" 2
  49              	.LVL2:
  50              		.thumb
  51              	.LBE2:
  52 0008 FFF7FEFF 		bl	dbg_check_lock_from_isr
  53              	.LVL3:
ARM GAS  C:\Users\z80\AppData\Local\Temp\ccI1wunY.s 			page 2


  54              		.loc 1 34 0
  55 000c FFF7FEFF 		bl	queryAdcI
  56              		.loc 1 35 0
  57 0010 FFF7FEFF 		bl	processDacI
  58              		.loc 1 36 0
  59 0014 FFF7FEFF 		bl	dbg_check_unlock_from_isr
  60              	.LBB3:
  61 0018 0023     		movs	r3, #0
  62              	.LVL4:
  63              	@ 36 "./src/timer_ctrl.c" 1
  64 001a 83F31188 		msr     BASEPRI, r3
  65              	@ 0 "" 2
  66              	.LVL5:
  67              		.thumb
  68              	.LBE3:
  69              		.loc 1 37 0
  70 001e 08BD     		pop	{r3, pc}
  71              		.cfi_endproc
  72              	.LFE63:
  73              		.size	gptCb, .-gptCb
  74              		.section	.text.initTimer,"ax",%progbits
  75              		.align	2
  76              		.p2align 4,,15
  77              		.global	initTimer
  78              		.thumb
  79              		.thumb_func
  80              		.type	initTimer, %function
  81              	initTimer:
  82              	.LFB62:
  83              		.loc 1 25 0
  84              		.cfi_startproc
  85              		@ args = 0, pretend = 0, frame = 0
  86              		@ frame_needed = 0, uses_anonymous_args = 0
  87 0000 10B5     		push	{r4, lr}
  88              	.LCFI1:
  89              		.cfi_def_cfa_offset 8
  90              		.loc 1 26 0
  91 0002 40F20004 		movw	r4, #:lower16:GPTD1
  92              		.cfi_offset 14, -4
  93              		.cfi_offset 4, -8
  94 0006 C0F20004 		movt	r4, #:upper16:GPTD1
  95 000a 40F20001 		movw	r1, #:lower16:.LANCHOR0
  96 000e 2046     		mov	r0, r4
  97 0010 C0F20001 		movt	r1, #:upper16:.LANCHOR0
  98 0014 FFF7FEFF 		bl	gptStart
  99              		.loc 1 27 0
 100 0018 2046     		mov	r0, r4
 101 001a 6421     		movs	r1, #100
 102 001c FFF7FEFF 		bl	gptStartContinuous
 103              		.loc 1 28 0
 104 0020 10BD     		pop	{r4, pc}
 105              		.cfi_endproc
 106              	.LFE62:
 107              		.size	initTimer, .-initTimer
 108 0022 00BFAFF3 		.section	.rodata.gptCfg,"a",%progbits
 108      0080AFF3 
 108      0080AFF3 
ARM GAS  C:\Users\z80\AppData\Local\Temp\ccI1wunY.s 			page 3


 108      0080
 109              		.align	2
 110              		.set	.LANCHOR0,. + 0
 111              		.type	gptCfg, %object
 112              		.size	gptCfg, 8
 113              	gptCfg:
 114 0000 40420F00 		.word	1000000
 115 0004 00000000 		.word	gptCb
 116              		.text
 117              	.Letext0:
 118              		.section	.debug_loc,"",%progbits
 119              	.Ldebug_loc0:
 120              	.LLST0:
 121 0000 00000000 		.4byte	.LFB63
 122 0004 02000000 		.4byte	.LCFI0
 123 0008 0200     		.2byte	0x2
 124 000a 7D       		.byte	0x7d
 125 000b 00       		.sleb128 0
 126 000c 02000000 		.4byte	.LCFI0
 127 0010 20000000 		.4byte	.LFE63
 128 0014 0200     		.2byte	0x2
 129 0016 7D       		.byte	0x7d
 130 0017 08       		.sleb128 8
 131 0018 00000000 		.4byte	0x0
 132 001c 00000000 		.4byte	0x0
 133              	.LLST1:
 134 0020 00000000 		.4byte	.LVL0
 135 0024 0B000000 		.4byte	.LVL3-1
 136 0028 0100     		.2byte	0x1
 137 002a 50       		.byte	0x50
 138 002b 00000000 		.4byte	0x0
 139 002f 00000000 		.4byte	0x0
 140              	.LLST2:
 141 0033 08000000 		.4byte	.LVL2
 142 0037 0B000000 		.4byte	.LVL3-1
 143 003b 0100     		.2byte	0x1
 144 003d 53       		.byte	0x53
 145 003e 00000000 		.4byte	0x0
 146 0042 00000000 		.4byte	0x0
 147              	.LLST3:
 148 0046 1E000000 		.4byte	.LVL5
 149 004a 20000000 		.4byte	.LFE63
 150 004e 0100     		.2byte	0x1
 151 0050 53       		.byte	0x53
 152 0051 00000000 		.4byte	0x0
 153 0055 00000000 		.4byte	0x0
 154              	.LLST4:
 155 0059 00000000 		.4byte	.LFB62
 156 005d 02000000 		.4byte	.LCFI1
 157 0061 0200     		.2byte	0x2
 158 0063 7D       		.byte	0x7d
 159 0064 00       		.sleb128 0
 160 0065 02000000 		.4byte	.LCFI1
 161 0069 22000000 		.4byte	.LFE62
 162 006d 0200     		.2byte	0x2
 163 006f 7D       		.byte	0x7d
 164 0070 08       		.sleb128 8
ARM GAS  C:\Users\z80\AppData\Local\Temp\ccI1wunY.s 			page 4


 165 0071 00000000 		.4byte	0x0
 166 0075 00000000 		.4byte	0x0
 167              		.file 2 "c:/programs/yagarto/lib/gcc/../../arm-none-eabi/sys-include/stdint.h"
 168              		.file 3 "../chibios_2.4.x/os/hal/platforms/STM32/stm32.h"
 169              		.file 4 "../chibios_2.4.x/os/hal/include/gpt.h"
 170              		.file 5 "../chibios_2.4.x/os/hal/platforms/STM32/gpt_lld.h"
 171              		.file 6 "../chibios_2.4.x/os/ports/common/ARMCMx/CMSIS/include/core_cm3.h"
 172              		.section	.debug_info
 173 0000 46040000 		.4byte	0x446
 174 0004 0200     		.2byte	0x2
 175 0006 00000000 		.4byte	.Ldebug_abbrev0
 176 000a 04       		.byte	0x4
 177 000b 01       		.uleb128 0x1
 178 000c F1010000 		.4byte	.LASF54
 179 0010 01       		.byte	0x1
 180 0011 0B020000 		.4byte	.LASF55
 181 0015 C4010000 		.4byte	.LASF56
 182 0019 00000000 		.4byte	0x0
 183 001d 00000000 		.4byte	0x0
 184 0021 00000000 		.4byte	.Ldebug_ranges0+0x0
 185 0025 00000000 		.4byte	.Ldebug_line0
 186 0029 02       		.uleb128 0x2
 187 002a 04       		.byte	0x4
 188 002b 05       		.byte	0x5
 189 002c 696E7400 		.ascii	"int\000"
 190 0030 03       		.uleb128 0x3
 191 0031 04       		.byte	0x4
 192 0032 07       		.byte	0x7
 193 0033 19010000 		.4byte	.LASF0
 194 0037 03       		.uleb128 0x3
 195 0038 01       		.byte	0x1
 196 0039 06       		.byte	0x6
 197 003a ED000000 		.4byte	.LASF1
 198 003e 03       		.uleb128 0x3
 199 003f 01       		.byte	0x1
 200 0040 08       		.byte	0x8
 201 0041 DF000000 		.4byte	.LASF2
 202 0045 03       		.uleb128 0x3
 203 0046 02       		.byte	0x2
 204 0047 05       		.byte	0x5
 205 0048 27000000 		.4byte	.LASF3
 206 004c 04       		.uleb128 0x4
 207 004d 26010000 		.4byte	.LASF5
 208 0051 02       		.byte	0x2
 209 0052 36       		.byte	0x36
 210 0053 57000000 		.4byte	0x57
 211 0057 03       		.uleb128 0x3
 212 0058 02       		.byte	0x2
 213 0059 07       		.byte	0x7
 214 005a 58010000 		.4byte	.LASF4
 215 005e 04       		.uleb128 0x4
 216 005f 81010000 		.4byte	.LASF6
 217 0063 02       		.byte	0x2
 218 0064 4F       		.byte	0x4f
 219 0065 69000000 		.4byte	0x69
 220 0069 03       		.uleb128 0x3
 221 006a 04       		.byte	0x4
ARM GAS  C:\Users\z80\AppData\Local\Temp\ccI1wunY.s 			page 5


 222 006b 05       		.byte	0x5
 223 006c CB000000 		.4byte	.LASF7
 224 0070 04       		.uleb128 0x4
 225 0071 10010000 		.4byte	.LASF8
 226 0075 02       		.byte	0x2
 227 0076 50       		.byte	0x50
 228 0077 7B000000 		.4byte	0x7b
 229 007b 03       		.uleb128 0x3
 230 007c 04       		.byte	0x4
 231 007d 07       		.byte	0x7
 232 007e AC010000 		.4byte	.LASF9
 233 0082 03       		.uleb128 0x3
 234 0083 08       		.byte	0x8
 235 0084 05       		.byte	0x5
 236 0085 AD000000 		.4byte	.LASF10
 237 0089 03       		.uleb128 0x3
 238 008a 08       		.byte	0x8
 239 008b 07       		.byte	0x7
 240 008c F9000000 		.4byte	.LASF11
 241 0090 05       		.uleb128 0x5
 242 0091 70000000 		.4byte	0x70
 243 0095 06       		.uleb128 0x6
 244 0096 04       		.byte	0x4
 245 0097 07       		.byte	0x7
 246 0098 03       		.uleb128 0x3
 247 0099 01       		.byte	0x1
 248 009a 08       		.byte	0x8
 249 009b 6B010000 		.4byte	.LASF12
 250 009f 07       		.uleb128 0x7
 251 00a0 70000000 		.4byte	0x70
 252 00a4 AF000000 		.4byte	0xaf
 253 00a8 08       		.uleb128 0x8
 254 00a9 95000000 		.4byte	0x95
 255 00ad 03       		.byte	0x3
 256 00ae 00       		.byte	0x0
 257 00af 05       		.uleb128 0x5
 258 00b0 4C000000 		.4byte	0x4c
 259 00b4 05       		.uleb128 0x5
 260 00b5 5E000000 		.4byte	0x5e
 261 00b9 09       		.uleb128 0x9
 262 00ba 54       		.byte	0x54
 263 00bb 03       		.byte	0x3
 264 00bc 72       		.byte	0x72
 265 00bd 8E020000 		.4byte	0x28e
 266 00c1 0A       		.uleb128 0xa
 267 00c2 43523100 		.ascii	"CR1\000"
 268 00c6 03       		.byte	0x3
 269 00c7 73       		.byte	0x73
 270 00c8 AF000000 		.4byte	0xaf
 271 00cc 02       		.byte	0x2
 272 00cd 23       		.byte	0x23
 273 00ce 00       		.uleb128 0x0
 274 00cf 0B       		.uleb128 0xb
 275 00d0 52000000 		.4byte	.LASF13
 276 00d4 03       		.byte	0x3
 277 00d5 74       		.byte	0x74
 278 00d6 4C000000 		.4byte	0x4c
ARM GAS  C:\Users\z80\AppData\Local\Temp\ccI1wunY.s 			page 6


 279 00da 02       		.byte	0x2
 280 00db 23       		.byte	0x23
 281 00dc 02       		.uleb128 0x2
 282 00dd 0A       		.uleb128 0xa
 283 00de 43523200 		.ascii	"CR2\000"
 284 00e2 03       		.byte	0x3
 285 00e3 75       		.byte	0x75
 286 00e4 AF000000 		.4byte	0xaf
 287 00e8 02       		.byte	0x2
 288 00e9 23       		.byte	0x23
 289 00ea 04       		.uleb128 0x4
 290 00eb 0B       		.uleb128 0xb
 291 00ec 5A000000 		.4byte	.LASF14
 292 00f0 03       		.byte	0x3
 293 00f1 76       		.byte	0x76
 294 00f2 4C000000 		.4byte	0x4c
 295 00f6 02       		.byte	0x2
 296 00f7 23       		.byte	0x23
 297 00f8 06       		.uleb128 0x6
 298 00f9 0B       		.uleb128 0xb
 299 00fa DA000000 		.4byte	.LASF15
 300 00fe 03       		.byte	0x3
 301 00ff 77       		.byte	0x77
 302 0100 AF000000 		.4byte	0xaf
 303 0104 02       		.byte	0x2
 304 0105 23       		.byte	0x23
 305 0106 08       		.uleb128 0x8
 306 0107 0B       		.uleb128 0xb
 307 0108 62000000 		.4byte	.LASF16
 308 010c 03       		.byte	0x3
 309 010d 78       		.byte	0x78
 310 010e 4C000000 		.4byte	0x4c
 311 0112 02       		.byte	0x2
 312 0113 23       		.byte	0x23
 313 0114 0A       		.uleb128 0xa
 314 0115 0B       		.uleb128 0xb
 315 0116 2F010000 		.4byte	.LASF17
 316 011a 03       		.byte	0x3
 317 011b 79       		.byte	0x79
 318 011c AF000000 		.4byte	0xaf
 319 0120 02       		.byte	0x2
 320 0121 23       		.byte	0x23
 321 0122 0C       		.uleb128 0xc
 322 0123 0B       		.uleb128 0xb
 323 0124 6A000000 		.4byte	.LASF18
 324 0128 03       		.byte	0x3
 325 0129 7A       		.byte	0x7a
 326 012a 4C000000 		.4byte	0x4c
 327 012e 02       		.byte	0x2
 328 012f 23       		.byte	0x23
 329 0130 0E       		.uleb128 0xe
 330 0131 0A       		.uleb128 0xa
 331 0132 535200   		.ascii	"SR\000"
 332 0135 03       		.byte	0x3
 333 0136 7B       		.byte	0x7b
 334 0137 AF000000 		.4byte	0xaf
 335 013b 02       		.byte	0x2
ARM GAS  C:\Users\z80\AppData\Local\Temp\ccI1wunY.s 			page 7


 336 013c 23       		.byte	0x23
 337 013d 10       		.uleb128 0x10
 338 013e 0B       		.uleb128 0xb
 339 013f 72000000 		.4byte	.LASF19
 340 0143 03       		.byte	0x3
 341 0144 7C       		.byte	0x7c
 342 0145 4C000000 		.4byte	0x4c
 343 0149 02       		.byte	0x2
 344 014a 23       		.byte	0x23
 345 014b 12       		.uleb128 0x12
 346 014c 0A       		.uleb128 0xa
 347 014d 45475200 		.ascii	"EGR\000"
 348 0151 03       		.byte	0x3
 349 0152 7D       		.byte	0x7d
 350 0153 AF000000 		.4byte	0xaf
 351 0157 02       		.byte	0x2
 352 0158 23       		.byte	0x23
 353 0159 14       		.uleb128 0x14
 354 015a 0B       		.uleb128 0xb
 355 015b 7A000000 		.4byte	.LASF20
 356 015f 03       		.byte	0x3
 357 0160 7E       		.byte	0x7e
 358 0161 4C000000 		.4byte	0x4c
 359 0165 02       		.byte	0x2
 360 0166 23       		.byte	0x23
 361 0167 16       		.uleb128 0x16
 362 0168 0B       		.uleb128 0xb
 363 0169 D4000000 		.4byte	.LASF21
 364 016d 03       		.byte	0x3
 365 016e 7F       		.byte	0x7f
 366 016f AF000000 		.4byte	0xaf
 367 0173 02       		.byte	0x2
 368 0174 23       		.byte	0x23
 369 0175 18       		.uleb128 0x18
 370 0176 0B       		.uleb128 0xb
 371 0177 82000000 		.4byte	.LASF22
 372 017b 03       		.byte	0x3
 373 017c 80       		.byte	0x80
 374 017d 4C000000 		.4byte	0x4c
 375 0181 02       		.byte	0x2
 376 0182 23       		.byte	0x23
 377 0183 1A       		.uleb128 0x1a
 378 0184 0B       		.uleb128 0xb
 379 0185 21000000 		.4byte	.LASF23
 380 0189 03       		.byte	0x3
 381 018a 81       		.byte	0x81
 382 018b AF000000 		.4byte	0xaf
 383 018f 02       		.byte	0x2
 384 0190 23       		.byte	0x23
 385 0191 1C       		.uleb128 0x1c
 386 0192 0B       		.uleb128 0xb
 387 0193 8A000000 		.4byte	.LASF24
 388 0197 03       		.byte	0x3
 389 0198 82       		.byte	0x82
 390 0199 4C000000 		.4byte	0x4c
 391 019d 02       		.byte	0x2
 392 019e 23       		.byte	0x23
ARM GAS  C:\Users\z80\AppData\Local\Temp\ccI1wunY.s 			page 8


 393 019f 1E       		.uleb128 0x1e
 394 01a0 0B       		.uleb128 0xb
 395 01a1 00000000 		.4byte	.LASF25
 396 01a5 03       		.byte	0x3
 397 01a6 83       		.byte	0x83
 398 01a7 AF000000 		.4byte	0xaf
 399 01ab 02       		.byte	0x2
 400 01ac 23       		.byte	0x23
 401 01ad 20       		.uleb128 0x20
 402 01ae 0B       		.uleb128 0xb
 403 01af 92000000 		.4byte	.LASF26
 404 01b3 03       		.byte	0x3
 405 01b4 84       		.byte	0x84
 406 01b5 4C000000 		.4byte	0x4c
 407 01b9 02       		.byte	0x2
 408 01ba 23       		.byte	0x23
 409 01bb 22       		.uleb128 0x22
 410 01bc 0A       		.uleb128 0xa
 411 01bd 434E5400 		.ascii	"CNT\000"
 412 01c1 03       		.byte	0x3
 413 01c2 85       		.byte	0x85
 414 01c3 90000000 		.4byte	0x90
 415 01c7 02       		.byte	0x2
 416 01c8 23       		.byte	0x23
 417 01c9 24       		.uleb128 0x24
 418 01ca 0A       		.uleb128 0xa
 419 01cb 50534300 		.ascii	"PSC\000"
 420 01cf 03       		.byte	0x3
 421 01d0 86       		.byte	0x86
 422 01d1 AF000000 		.4byte	0xaf
 423 01d5 02       		.byte	0x2
 424 01d6 23       		.byte	0x23
 425 01d7 28       		.uleb128 0x28
 426 01d8 0B       		.uleb128 0xb
 427 01d9 9A000000 		.4byte	.LASF27
 428 01dd 03       		.byte	0x3
 429 01de 87       		.byte	0x87
 430 01df 4C000000 		.4byte	0x4c
 431 01e3 02       		.byte	0x2
 432 01e4 23       		.byte	0x23
 433 01e5 2A       		.uleb128 0x2a
 434 01e6 0A       		.uleb128 0xa
 435 01e7 41525200 		.ascii	"ARR\000"
 436 01eb 03       		.byte	0x3
 437 01ec 88       		.byte	0x88
 438 01ed 90000000 		.4byte	0x90
 439 01f1 02       		.byte	0x2
 440 01f2 23       		.byte	0x23
 441 01f3 2C       		.uleb128 0x2c
 442 01f4 0A       		.uleb128 0xa
 443 01f5 52435200 		.ascii	"RCR\000"
 444 01f9 03       		.byte	0x3
 445 01fa 89       		.byte	0x89
 446 01fb AF000000 		.4byte	0xaf
 447 01ff 02       		.byte	0x2
 448 0200 23       		.byte	0x23
 449 0201 30       		.uleb128 0x30
ARM GAS  C:\Users\z80\AppData\Local\Temp\ccI1wunY.s 			page 9


 450 0202 0B       		.uleb128 0xb
 451 0203 FD010000 		.4byte	.LASF28
 452 0207 03       		.byte	0x3
 453 0208 8A       		.byte	0x8a
 454 0209 4C000000 		.4byte	0x4c
 455 020d 02       		.byte	0x2
 456 020e 23       		.byte	0x23
 457 020f 32       		.uleb128 0x32
 458 0210 0A       		.uleb128 0xa
 459 0211 43435200 		.ascii	"CCR\000"
 460 0215 03       		.byte	0x3
 461 0216 8B       		.byte	0x8b
 462 0217 8E020000 		.4byte	0x28e
 463 021b 02       		.byte	0x2
 464 021c 23       		.byte	0x23
 465 021d 34       		.uleb128 0x34
 466 021e 0B       		.uleb128 0xb
 467 021f 7C010000 		.4byte	.LASF29
 468 0223 03       		.byte	0x3
 469 0224 8C       		.byte	0x8c
 470 0225 AF000000 		.4byte	0xaf
 471 0229 02       		.byte	0x2
 472 022a 23       		.byte	0x23
 473 022b 44       		.uleb128 0x44
 474 022c 0B       		.uleb128 0xb
 475 022d 34010000 		.4byte	.LASF30
 476 0231 03       		.byte	0x3
 477 0232 8D       		.byte	0x8d
 478 0233 4C000000 		.4byte	0x4c
 479 0237 02       		.byte	0x2
 480 0238 23       		.byte	0x23
 481 0239 46       		.uleb128 0x46
 482 023a 0A       		.uleb128 0xa
 483 023b 44435200 		.ascii	"DCR\000"
 484 023f 03       		.byte	0x3
 485 0240 8E       		.byte	0x8e
 486 0241 AF000000 		.4byte	0xaf
 487 0245 02       		.byte	0x2
 488 0246 23       		.byte	0x23
 489 0247 48       		.uleb128 0x48
 490 0248 0B       		.uleb128 0xb
 491 0249 3D010000 		.4byte	.LASF31
 492 024d 03       		.byte	0x3
 493 024e 8F       		.byte	0x8f
 494 024f 4C000000 		.4byte	0x4c
 495 0253 02       		.byte	0x2
 496 0254 23       		.byte	0x23
 497 0255 4A       		.uleb128 0x4a
 498 0256 0B       		.uleb128 0xb
 499 0257 16000000 		.4byte	.LASF32
 500 025b 03       		.byte	0x3
 501 025c 90       		.byte	0x90
 502 025d AF000000 		.4byte	0xaf
 503 0261 02       		.byte	0x2
 504 0262 23       		.byte	0x23
 505 0263 4C       		.uleb128 0x4c
 506 0264 0B       		.uleb128 0xb
ARM GAS  C:\Users\z80\AppData\Local\Temp\ccI1wunY.s 			page 10


 507 0265 46010000 		.4byte	.LASF33
 508 0269 03       		.byte	0x3
 509 026a 91       		.byte	0x91
 510 026b 4C000000 		.4byte	0x4c
 511 026f 02       		.byte	0x2
 512 0270 23       		.byte	0x23
 513 0271 4E       		.uleb128 0x4e
 514 0272 0A       		.uleb128 0xa
 515 0273 4F5200   		.ascii	"OR\000"
 516 0276 03       		.byte	0x3
 517 0277 92       		.byte	0x92
 518 0278 AF000000 		.4byte	0xaf
 519 027c 02       		.byte	0x2
 520 027d 23       		.byte	0x23
 521 027e 50       		.uleb128 0x50
 522 027f 0B       		.uleb128 0xb
 523 0280 4F010000 		.4byte	.LASF34
 524 0284 03       		.byte	0x3
 525 0285 93       		.byte	0x93
 526 0286 4C000000 		.4byte	0x4c
 527 028a 02       		.byte	0x2
 528 028b 23       		.byte	0x23
 529 028c 52       		.uleb128 0x52
 530 028d 00       		.byte	0x0
 531 028e 05       		.uleb128 0x5
 532 028f 9F000000 		.4byte	0x9f
 533 0293 04       		.uleb128 0x4
 534 0294 70010000 		.4byte	.LASF35
 535 0298 03       		.byte	0x3
 536 0299 94       		.byte	0x94
 537 029a B9000000 		.4byte	0xb9
 538 029e 0C       		.uleb128 0xc
 539 029f 01       		.byte	0x1
 540 02a0 04       		.byte	0x4
 541 02a1 3C       		.byte	0x3c
 542 02a2 C5020000 		.4byte	0x2c5
 543 02a6 0D       		.uleb128 0xd
 544 02a7 05000000 		.4byte	.LASF36
 545 02ab 00       		.sleb128 0
 546 02ac 0D       		.uleb128 0xd
 547 02ad 39020000 		.4byte	.LASF37
 548 02b1 01       		.sleb128 1
 549 02b2 0D       		.uleb128 0xd
 550 02b3 98010000 		.4byte	.LASF38
 551 02b7 02       		.sleb128 2
 552 02b8 0D       		.uleb128 0xd
 553 02b9 89010000 		.4byte	.LASF39
 554 02bd 03       		.sleb128 3
 555 02be 0D       		.uleb128 0xd
 556 02bf 46000000 		.4byte	.LASF40
 557 02c3 04       		.sleb128 4
 558 02c4 00       		.byte	0x0
 559 02c5 04       		.uleb128 0x4
 560 02c6 A2000000 		.4byte	.LASF41
 561 02ca 04       		.byte	0x4
 562 02cb 42       		.byte	0x42
 563 02cc 9E020000 		.4byte	0x29e
ARM GAS  C:\Users\z80\AppData\Local\Temp\ccI1wunY.s 			page 11


 564 02d0 04       		.uleb128 0x4
 565 02d1 A2010000 		.4byte	.LASF42
 566 02d5 04       		.byte	0x4
 567 02d6 47       		.byte	0x47
 568 02d7 DB020000 		.4byte	0x2db
 569 02db 0E       		.uleb128 0xe
 570 02dc A2010000 		.4byte	.LASF42
 571 02e0 10       		.byte	0x10
 572 02e1 05       		.byte	0x5
 573 02e2 DC       		.byte	0xdc
 574 02e3 20030000 		.4byte	0x320
 575 02e7 0B       		.uleb128 0xb
 576 02e8 1B000000 		.4byte	.LASF43
 577 02ec 05       		.byte	0x5
 578 02ed E0       		.byte	0xe0
 579 02ee C5020000 		.4byte	0x2c5
 580 02f2 02       		.byte	0x2
 581 02f3 23       		.byte	0x23
 582 02f4 00       		.uleb128 0x0
 583 02f5 0B       		.uleb128 0xb
 584 02f6 3F000000 		.4byte	.LASF44
 585 02fa 05       		.byte	0x5
 586 02fb E4       		.byte	0xe4
 587 02fc 7E030000 		.4byte	0x37e
 588 0300 02       		.byte	0x2
 589 0301 23       		.byte	0x23
 590 0302 04       		.uleb128 0x4
 591 0303 0B       		.uleb128 0xb
 592 0304 BE010000 		.4byte	.LASF45
 593 0308 05       		.byte	0x5
 594 0309 EC       		.byte	0xec
 595 030a 70000000 		.4byte	0x70
 596 030e 02       		.byte	0x2
 597 030f 23       		.byte	0x23
 598 0310 08       		.uleb128 0x8
 599 0311 0A       		.uleb128 0xa
 600 0312 74696D00 		.ascii	"tim\000"
 601 0316 05       		.byte	0x5
 602 0317 F0       		.byte	0xf0
 603 0318 89030000 		.4byte	0x389
 604 031c 02       		.byte	0x2
 605 031d 23       		.byte	0x23
 606 031e 0C       		.uleb128 0xc
 607 031f 00       		.byte	0x0
 608 0320 04       		.uleb128 0x4
 609 0321 31000000 		.4byte	.LASF46
 610 0325 04       		.byte	0x4
 611 0326 4E       		.byte	0x4e
 612 0327 2B030000 		.4byte	0x32b
 613 032b 0F       		.uleb128 0xf
 614 032c 04       		.byte	0x4
 615 032d 31030000 		.4byte	0x331
 616 0331 10       		.uleb128 0x10
 617 0332 01       		.byte	0x1
 618 0333 3D030000 		.4byte	0x33d
 619 0337 11       		.uleb128 0x11
 620 0338 3D030000 		.4byte	0x33d
ARM GAS  C:\Users\z80\AppData\Local\Temp\ccI1wunY.s 			page 12


 621 033c 00       		.byte	0x0
 622 033d 0F       		.uleb128 0xf
 623 033e 04       		.byte	0x4
 624 033f D0020000 		.4byte	0x2d0
 625 0343 04       		.uleb128 0x4
 626 0344 4F020000 		.4byte	.LASF47
 627 0348 05       		.byte	0x5
 628 0349 BF       		.byte	0xbf
 629 034a 70000000 		.4byte	0x70
 630 034e 09       		.uleb128 0x9
 631 034f 08       		.byte	0x8
 632 0350 05       		.byte	0x5
 633 0351 CA       		.byte	0xca
 634 0352 73030000 		.4byte	0x373
 635 0356 0B       		.uleb128 0xb
 636 0357 2F020000 		.4byte	.LASF48
 637 035b 05       		.byte	0x5
 638 035c D0       		.byte	0xd0
 639 035d 43030000 		.4byte	0x343
 640 0361 02       		.byte	0x2
 641 0362 23       		.byte	0x23
 642 0363 00       		.uleb128 0x0
 643 0364 0B       		.uleb128 0xb
 644 0365 59020000 		.4byte	.LASF49
 645 0369 05       		.byte	0x5
 646 036a D5       		.byte	0xd5
 647 036b 20030000 		.4byte	0x320
 648 036f 02       		.byte	0x2
 649 0370 23       		.byte	0x23
 650 0371 04       		.uleb128 0x4
 651 0372 00       		.byte	0x0
 652 0373 04       		.uleb128 0x4
 653 0374 25020000 		.4byte	.LASF50
 654 0378 05       		.byte	0x5
 655 0379 D7       		.byte	0xd7
 656 037a 4E030000 		.4byte	0x34e
 657 037e 0F       		.uleb128 0xf
 658 037f 04       		.byte	0x4
 659 0380 84030000 		.4byte	0x384
 660 0384 12       		.uleb128 0x12
 661 0385 73030000 		.4byte	0x373
 662 0389 0F       		.uleb128 0xf
 663 038a 04       		.byte	0x4
 664 038b 93020000 		.4byte	0x293
 665 038f 13       		.uleb128 0x13
 666 0390 10000000 		.4byte	.LASF57
 667 0394 01       		.byte	0x1
 668 0395 1E       		.byte	0x1e
 669 0396 01       		.byte	0x1
 670 0397 00000000 		.4byte	.LFB63
 671 039b 20000000 		.4byte	.LFE63
 672 039f 00000000 		.4byte	.LLST0
 673 03a3 ED030000 		.4byte	0x3ed
 674 03a7 14       		.uleb128 0x14
 675 03a8 06020000 		.4byte	.LASF58
 676 03ac 01       		.byte	0x1
 677 03ad 1E       		.byte	0x1e
ARM GAS  C:\Users\z80\AppData\Local\Temp\ccI1wunY.s 			page 13


 678 03ae 3D030000 		.4byte	0x33d
 679 03b2 20000000 		.4byte	.LLST1
 680 03b6 15       		.uleb128 0x15
 681 03b7 02000000 		.4byte	.LBB2
 682 03bb 08000000 		.4byte	.LBE2
 683 03bf D3030000 		.4byte	0x3d3
 684 03c3 16       		.uleb128 0x16
 685 03c4 746D7000 		.ascii	"tmp\000"
 686 03c8 01       		.byte	0x1
 687 03c9 21       		.byte	0x21
 688 03ca 70000000 		.4byte	0x70
 689 03ce 33000000 		.4byte	.LLST2
 690 03d2 00       		.byte	0x0
 691 03d3 17       		.uleb128 0x17
 692 03d4 18000000 		.4byte	.LBB3
 693 03d8 1E000000 		.4byte	.LBE3
 694 03dc 16       		.uleb128 0x16
 695 03dd 746D7000 		.ascii	"tmp\000"
 696 03e1 01       		.byte	0x1
 697 03e2 24       		.byte	0x24
 698 03e3 70000000 		.4byte	0x70
 699 03e7 46000000 		.4byte	.LLST3
 700 03eb 00       		.byte	0x0
 701 03ec 00       		.byte	0x0
 702 03ed 18       		.uleb128 0x18
 703 03ee 01       		.byte	0x1
 704 03ef BB000000 		.4byte	.LASF59
 705 03f3 01       		.byte	0x1
 706 03f4 18       		.byte	0x18
 707 03f5 01       		.byte	0x1
 708 03f6 00000000 		.4byte	.LFB62
 709 03fa 22000000 		.4byte	.LFE62
 710 03fe 59000000 		.4byte	.LLST4
 711 0402 19       		.uleb128 0x19
 712 0403 42020000 		.4byte	.LASF51
 713 0407 06       		.byte	0x6
 714 0408 9404     		.2byte	0x494
 715 040a B4000000 		.4byte	0xb4
 716 040e 01       		.byte	0x1
 717 040f 01       		.byte	0x1
 718 0410 1A       		.uleb128 0x1a
 719 0411 C5000000 		.4byte	.LASF52
 720 0415 05       		.byte	0x5
 721 0416 FC       		.byte	0xfc
 722 0417 D0020000 		.4byte	0x2d0
 723 041b 01       		.byte	0x1
 724 041c 01       		.byte	0x1
 725 041d 1B       		.uleb128 0x1b
 726 041e 1E020000 		.4byte	.LASF53
 727 0422 01       		.byte	0x1
 728 0423 0A       		.byte	0xa
 729 0424 84030000 		.4byte	0x384
 730 0428 05       		.byte	0x5
 731 0429 03       		.byte	0x3
 732 042a 00000000 		.4byte	gptCfg
 733 042e 19       		.uleb128 0x19
 734 042f 42020000 		.4byte	.LASF51
ARM GAS  C:\Users\z80\AppData\Local\Temp\ccI1wunY.s 			page 14


 735 0433 06       		.byte	0x6
 736 0434 9404     		.2byte	0x494
 737 0436 B4000000 		.4byte	0xb4
 738 043a 01       		.byte	0x1
 739 043b 01       		.byte	0x1
 740 043c 1A       		.uleb128 0x1a
 741 043d C5000000 		.4byte	.LASF52
 742 0441 05       		.byte	0x5
 743 0442 FC       		.byte	0xfc
 744 0443 D0020000 		.4byte	0x2d0
 745 0447 01       		.byte	0x1
 746 0448 01       		.byte	0x1
 747 0449 00       		.byte	0x0
 748              		.section	.debug_abbrev
 749 0000 01       		.uleb128 0x1
 750 0001 11       		.uleb128 0x11
 751 0002 01       		.byte	0x1
 752 0003 25       		.uleb128 0x25
 753 0004 0E       		.uleb128 0xe
 754 0005 13       		.uleb128 0x13
 755 0006 0B       		.uleb128 0xb
 756 0007 03       		.uleb128 0x3
 757 0008 0E       		.uleb128 0xe
 758 0009 1B       		.uleb128 0x1b
 759 000a 0E       		.uleb128 0xe
 760 000b 11       		.uleb128 0x11
 761 000c 01       		.uleb128 0x1
 762 000d 52       		.uleb128 0x52
 763 000e 01       		.uleb128 0x1
 764 000f 55       		.uleb128 0x55
 765 0010 06       		.uleb128 0x6
 766 0011 10       		.uleb128 0x10
 767 0012 06       		.uleb128 0x6
 768 0013 00       		.byte	0x0
 769 0014 00       		.byte	0x0
 770 0015 02       		.uleb128 0x2
 771 0016 24       		.uleb128 0x24
 772 0017 00       		.byte	0x0
 773 0018 0B       		.uleb128 0xb
 774 0019 0B       		.uleb128 0xb
 775 001a 3E       		.uleb128 0x3e
 776 001b 0B       		.uleb128 0xb
 777 001c 03       		.uleb128 0x3
 778 001d 08       		.uleb128 0x8
 779 001e 00       		.byte	0x0
 780 001f 00       		.byte	0x0
 781 0020 03       		.uleb128 0x3
 782 0021 24       		.uleb128 0x24
 783 0022 00       		.byte	0x0
 784 0023 0B       		.uleb128 0xb
 785 0024 0B       		.uleb128 0xb
 786 0025 3E       		.uleb128 0x3e
 787 0026 0B       		.uleb128 0xb
 788 0027 03       		.uleb128 0x3
 789 0028 0E       		.uleb128 0xe
 790 0029 00       		.byte	0x0
 791 002a 00       		.byte	0x0
ARM GAS  C:\Users\z80\AppData\Local\Temp\ccI1wunY.s 			page 15


 792 002b 04       		.uleb128 0x4
 793 002c 16       		.uleb128 0x16
 794 002d 00       		.byte	0x0
 795 002e 03       		.uleb128 0x3
 796 002f 0E       		.uleb128 0xe
 797 0030 3A       		.uleb128 0x3a
 798 0031 0B       		.uleb128 0xb
 799 0032 3B       		.uleb128 0x3b
 800 0033 0B       		.uleb128 0xb
 801 0034 49       		.uleb128 0x49
 802 0035 13       		.uleb128 0x13
 803 0036 00       		.byte	0x0
 804 0037 00       		.byte	0x0
 805 0038 05       		.uleb128 0x5
 806 0039 35       		.uleb128 0x35
 807 003a 00       		.byte	0x0
 808 003b 49       		.uleb128 0x49
 809 003c 13       		.uleb128 0x13
 810 003d 00       		.byte	0x0
 811 003e 00       		.byte	0x0
 812 003f 06       		.uleb128 0x6
 813 0040 24       		.uleb128 0x24
 814 0041 00       		.byte	0x0
 815 0042 0B       		.uleb128 0xb
 816 0043 0B       		.uleb128 0xb
 817 0044 3E       		.uleb128 0x3e
 818 0045 0B       		.uleb128 0xb
 819 0046 00       		.byte	0x0
 820 0047 00       		.byte	0x0
 821 0048 07       		.uleb128 0x7
 822 0049 01       		.uleb128 0x1
 823 004a 01       		.byte	0x1
 824 004b 49       		.uleb128 0x49
 825 004c 13       		.uleb128 0x13
 826 004d 01       		.uleb128 0x1
 827 004e 13       		.uleb128 0x13
 828 004f 00       		.byte	0x0
 829 0050 00       		.byte	0x0
 830 0051 08       		.uleb128 0x8
 831 0052 21       		.uleb128 0x21
 832 0053 00       		.byte	0x0
 833 0054 49       		.uleb128 0x49
 834 0055 13       		.uleb128 0x13
 835 0056 2F       		.uleb128 0x2f
 836 0057 0B       		.uleb128 0xb
 837 0058 00       		.byte	0x0
 838 0059 00       		.byte	0x0
 839 005a 09       		.uleb128 0x9
 840 005b 13       		.uleb128 0x13
 841 005c 01       		.byte	0x1
 842 005d 0B       		.uleb128 0xb
 843 005e 0B       		.uleb128 0xb
 844 005f 3A       		.uleb128 0x3a
 845 0060 0B       		.uleb128 0xb
 846 0061 3B       		.uleb128 0x3b
 847 0062 0B       		.uleb128 0xb
 848 0063 01       		.uleb128 0x1
ARM GAS  C:\Users\z80\AppData\Local\Temp\ccI1wunY.s 			page 16


 849 0064 13       		.uleb128 0x13
 850 0065 00       		.byte	0x0
 851 0066 00       		.byte	0x0
 852 0067 0A       		.uleb128 0xa
 853 0068 0D       		.uleb128 0xd
 854 0069 00       		.byte	0x0
 855 006a 03       		.uleb128 0x3
 856 006b 08       		.uleb128 0x8
 857 006c 3A       		.uleb128 0x3a
 858 006d 0B       		.uleb128 0xb
 859 006e 3B       		.uleb128 0x3b
 860 006f 0B       		.uleb128 0xb
 861 0070 49       		.uleb128 0x49
 862 0071 13       		.uleb128 0x13
 863 0072 38       		.uleb128 0x38
 864 0073 0A       		.uleb128 0xa
 865 0074 00       		.byte	0x0
 866 0075 00       		.byte	0x0
 867 0076 0B       		.uleb128 0xb
 868 0077 0D       		.uleb128 0xd
 869 0078 00       		.byte	0x0
 870 0079 03       		.uleb128 0x3
 871 007a 0E       		.uleb128 0xe
 872 007b 3A       		.uleb128 0x3a
 873 007c 0B       		.uleb128 0xb
 874 007d 3B       		.uleb128 0x3b
 875 007e 0B       		.uleb128 0xb
 876 007f 49       		.uleb128 0x49
 877 0080 13       		.uleb128 0x13
 878 0081 38       		.uleb128 0x38
 879 0082 0A       		.uleb128 0xa
 880 0083 00       		.byte	0x0
 881 0084 00       		.byte	0x0
 882 0085 0C       		.uleb128 0xc
 883 0086 04       		.uleb128 0x4
 884 0087 01       		.byte	0x1
 885 0088 0B       		.uleb128 0xb
 886 0089 0B       		.uleb128 0xb
 887 008a 3A       		.uleb128 0x3a
 888 008b 0B       		.uleb128 0xb
 889 008c 3B       		.uleb128 0x3b
 890 008d 0B       		.uleb128 0xb
 891 008e 01       		.uleb128 0x1
 892 008f 13       		.uleb128 0x13
 893 0090 00       		.byte	0x0
 894 0091 00       		.byte	0x0
 895 0092 0D       		.uleb128 0xd
 896 0093 28       		.uleb128 0x28
 897 0094 00       		.byte	0x0
 898 0095 03       		.uleb128 0x3
 899 0096 0E       		.uleb128 0xe
 900 0097 1C       		.uleb128 0x1c
 901 0098 0D       		.uleb128 0xd
 902 0099 00       		.byte	0x0
 903 009a 00       		.byte	0x0
 904 009b 0E       		.uleb128 0xe
 905 009c 13       		.uleb128 0x13
ARM GAS  C:\Users\z80\AppData\Local\Temp\ccI1wunY.s 			page 17


 906 009d 01       		.byte	0x1
 907 009e 03       		.uleb128 0x3
 908 009f 0E       		.uleb128 0xe
 909 00a0 0B       		.uleb128 0xb
 910 00a1 0B       		.uleb128 0xb
 911 00a2 3A       		.uleb128 0x3a
 912 00a3 0B       		.uleb128 0xb
 913 00a4 3B       		.uleb128 0x3b
 914 00a5 0B       		.uleb128 0xb
 915 00a6 01       		.uleb128 0x1
 916 00a7 13       		.uleb128 0x13
 917 00a8 00       		.byte	0x0
 918 00a9 00       		.byte	0x0
 919 00aa 0F       		.uleb128 0xf
 920 00ab 0F       		.uleb128 0xf
 921 00ac 00       		.byte	0x0
 922 00ad 0B       		.uleb128 0xb
 923 00ae 0B       		.uleb128 0xb
 924 00af 49       		.uleb128 0x49
 925 00b0 13       		.uleb128 0x13
 926 00b1 00       		.byte	0x0
 927 00b2 00       		.byte	0x0
 928 00b3 10       		.uleb128 0x10
 929 00b4 15       		.uleb128 0x15
 930 00b5 01       		.byte	0x1
 931 00b6 27       		.uleb128 0x27
 932 00b7 0C       		.uleb128 0xc
 933 00b8 01       		.uleb128 0x1
 934 00b9 13       		.uleb128 0x13
 935 00ba 00       		.byte	0x0
 936 00bb 00       		.byte	0x0
 937 00bc 11       		.uleb128 0x11
 938 00bd 05       		.uleb128 0x5
 939 00be 00       		.byte	0x0
 940 00bf 49       		.uleb128 0x49
 941 00c0 13       		.uleb128 0x13
 942 00c1 00       		.byte	0x0
 943 00c2 00       		.byte	0x0
 944 00c3 12       		.uleb128 0x12
 945 00c4 26       		.uleb128 0x26
 946 00c5 00       		.byte	0x0
 947 00c6 49       		.uleb128 0x49
 948 00c7 13       		.uleb128 0x13
 949 00c8 00       		.byte	0x0
 950 00c9 00       		.byte	0x0
 951 00ca 13       		.uleb128 0x13
 952 00cb 2E       		.uleb128 0x2e
 953 00cc 01       		.byte	0x1
 954 00cd 03       		.uleb128 0x3
 955 00ce 0E       		.uleb128 0xe
 956 00cf 3A       		.uleb128 0x3a
 957 00d0 0B       		.uleb128 0xb
 958 00d1 3B       		.uleb128 0x3b
 959 00d2 0B       		.uleb128 0xb
 960 00d3 27       		.uleb128 0x27
 961 00d4 0C       		.uleb128 0xc
 962 00d5 11       		.uleb128 0x11
ARM GAS  C:\Users\z80\AppData\Local\Temp\ccI1wunY.s 			page 18


 963 00d6 01       		.uleb128 0x1
 964 00d7 12       		.uleb128 0x12
 965 00d8 01       		.uleb128 0x1
 966 00d9 40       		.uleb128 0x40
 967 00da 06       		.uleb128 0x6
 968 00db 01       		.uleb128 0x1
 969 00dc 13       		.uleb128 0x13
 970 00dd 00       		.byte	0x0
 971 00de 00       		.byte	0x0
 972 00df 14       		.uleb128 0x14
 973 00e0 05       		.uleb128 0x5
 974 00e1 00       		.byte	0x0
 975 00e2 03       		.uleb128 0x3
 976 00e3 0E       		.uleb128 0xe
 977 00e4 3A       		.uleb128 0x3a
 978 00e5 0B       		.uleb128 0xb
 979 00e6 3B       		.uleb128 0x3b
 980 00e7 0B       		.uleb128 0xb
 981 00e8 49       		.uleb128 0x49
 982 00e9 13       		.uleb128 0x13
 983 00ea 02       		.uleb128 0x2
 984 00eb 06       		.uleb128 0x6
 985 00ec 00       		.byte	0x0
 986 00ed 00       		.byte	0x0
 987 00ee 15       		.uleb128 0x15
 988 00ef 0B       		.uleb128 0xb
 989 00f0 01       		.byte	0x1
 990 00f1 11       		.uleb128 0x11
 991 00f2 01       		.uleb128 0x1
 992 00f3 12       		.uleb128 0x12
 993 00f4 01       		.uleb128 0x1
 994 00f5 01       		.uleb128 0x1
 995 00f6 13       		.uleb128 0x13
 996 00f7 00       		.byte	0x0
 997 00f8 00       		.byte	0x0
 998 00f9 16       		.uleb128 0x16
 999 00fa 34       		.uleb128 0x34
 1000 00fb 00       		.byte	0x0
 1001 00fc 03       		.uleb128 0x3
 1002 00fd 08       		.uleb128 0x8
 1003 00fe 3A       		.uleb128 0x3a
 1004 00ff 0B       		.uleb128 0xb
 1005 0100 3B       		.uleb128 0x3b
 1006 0101 0B       		.uleb128 0xb
 1007 0102 49       		.uleb128 0x49
 1008 0103 13       		.uleb128 0x13
 1009 0104 02       		.uleb128 0x2
 1010 0105 06       		.uleb128 0x6
 1011 0106 00       		.byte	0x0
 1012 0107 00       		.byte	0x0
 1013 0108 17       		.uleb128 0x17
 1014 0109 0B       		.uleb128 0xb
 1015 010a 01       		.byte	0x1
 1016 010b 11       		.uleb128 0x11
 1017 010c 01       		.uleb128 0x1
 1018 010d 12       		.uleb128 0x12
 1019 010e 01       		.uleb128 0x1
ARM GAS  C:\Users\z80\AppData\Local\Temp\ccI1wunY.s 			page 19


 1020 010f 00       		.byte	0x0
 1021 0110 00       		.byte	0x0
 1022 0111 18       		.uleb128 0x18
 1023 0112 2E       		.uleb128 0x2e
 1024 0113 00       		.byte	0x0
 1025 0114 3F       		.uleb128 0x3f
 1026 0115 0C       		.uleb128 0xc
 1027 0116 03       		.uleb128 0x3
 1028 0117 0E       		.uleb128 0xe
 1029 0118 3A       		.uleb128 0x3a
 1030 0119 0B       		.uleb128 0xb
 1031 011a 3B       		.uleb128 0x3b
 1032 011b 0B       		.uleb128 0xb
 1033 011c 27       		.uleb128 0x27
 1034 011d 0C       		.uleb128 0xc
 1035 011e 11       		.uleb128 0x11
 1036 011f 01       		.uleb128 0x1
 1037 0120 12       		.uleb128 0x12
 1038 0121 01       		.uleb128 0x1
 1039 0122 40       		.uleb128 0x40
 1040 0123 06       		.uleb128 0x6
 1041 0124 00       		.byte	0x0
 1042 0125 00       		.byte	0x0
 1043 0126 19       		.uleb128 0x19
 1044 0127 34       		.uleb128 0x34
 1045 0128 00       		.byte	0x0
 1046 0129 03       		.uleb128 0x3
 1047 012a 0E       		.uleb128 0xe
 1048 012b 3A       		.uleb128 0x3a
 1049 012c 0B       		.uleb128 0xb
 1050 012d 3B       		.uleb128 0x3b
 1051 012e 05       		.uleb128 0x5
 1052 012f 49       		.uleb128 0x49
 1053 0130 13       		.uleb128 0x13
 1054 0131 3F       		.uleb128 0x3f
 1055 0132 0C       		.uleb128 0xc
 1056 0133 3C       		.uleb128 0x3c
 1057 0134 0C       		.uleb128 0xc
 1058 0135 00       		.byte	0x0
 1059 0136 00       		.byte	0x0
 1060 0137 1A       		.uleb128 0x1a
 1061 0138 34       		.uleb128 0x34
 1062 0139 00       		.byte	0x0
 1063 013a 03       		.uleb128 0x3
 1064 013b 0E       		.uleb128 0xe
 1065 013c 3A       		.uleb128 0x3a
 1066 013d 0B       		.uleb128 0xb
 1067 013e 3B       		.uleb128 0x3b
 1068 013f 0B       		.uleb128 0xb
 1069 0140 49       		.uleb128 0x49
 1070 0141 13       		.uleb128 0x13
 1071 0142 3F       		.uleb128 0x3f
 1072 0143 0C       		.uleb128 0xc
 1073 0144 3C       		.uleb128 0x3c
 1074 0145 0C       		.uleb128 0xc
 1075 0146 00       		.byte	0x0
 1076 0147 00       		.byte	0x0
ARM GAS  C:\Users\z80\AppData\Local\Temp\ccI1wunY.s 			page 20


 1077 0148 1B       		.uleb128 0x1b
 1078 0149 34       		.uleb128 0x34
 1079 014a 00       		.byte	0x0
 1080 014b 03       		.uleb128 0x3
 1081 014c 0E       		.uleb128 0xe
 1082 014d 3A       		.uleb128 0x3a
 1083 014e 0B       		.uleb128 0xb
 1084 014f 3B       		.uleb128 0x3b
 1085 0150 0B       		.uleb128 0xb
 1086 0151 49       		.uleb128 0x49
 1087 0152 13       		.uleb128 0x13
 1088 0153 02       		.uleb128 0x2
 1089 0154 0A       		.uleb128 0xa
 1090 0155 00       		.byte	0x0
 1091 0156 00       		.byte	0x0
 1092 0157 00       		.byte	0x0
 1093              		.section	.debug_pubnames,"",%progbits
 1094 0000 1C000000 		.4byte	0x1c
 1095 0004 0200     		.2byte	0x2
 1096 0006 00000000 		.4byte	.Ldebug_info0
 1097 000a 4A040000 		.4byte	0x44a
 1098 000e ED030000 		.4byte	0x3ed
 1099 0012 696E6974 		.ascii	"initTimer\000"
 1099      54696D65 
 1099      7200
 1100 001c 00000000 		.4byte	0x0
 1101              		.section	.debug_pubtypes,"",%progbits
 1102 0000 9D000000 		.4byte	0x9d
 1103 0004 0200     		.2byte	0x2
 1104 0006 00000000 		.4byte	.Ldebug_info0
 1105 000a 4A040000 		.4byte	0x44a
 1106 000e 4C000000 		.4byte	0x4c
 1107 0012 75696E74 		.ascii	"uint16_t\000"
 1107      31365F74 
 1107      00
 1108 001b 5E000000 		.4byte	0x5e
 1109 001f 696E7433 		.ascii	"int32_t\000"
 1109      325F7400 
 1110 0027 70000000 		.4byte	0x70
 1111 002b 75696E74 		.ascii	"uint32_t\000"
 1111      33325F74 
 1111      00
 1112 0034 93020000 		.4byte	0x293
 1113 0038 73746D33 		.ascii	"stm32_tim_t\000"
 1113      325F7469 
 1113      6D5F7400 
 1114 0044 C5020000 		.4byte	0x2c5
 1115 0048 67707473 		.ascii	"gptstate_t\000"
 1115      74617465 
 1115      5F7400
 1116 0053 D0020000 		.4byte	0x2d0
 1117 0057 47505444 		.ascii	"GPTDriver\000"
 1117      72697665 
 1117      7200
 1118 0061 20030000 		.4byte	0x320
 1119 0065 67707463 		.ascii	"gptcallback_t\000"
 1119      616C6C62 
ARM GAS  C:\Users\z80\AppData\Local\Temp\ccI1wunY.s 			page 21


 1119      61636B5F 
 1119      7400
 1120 0073 43030000 		.4byte	0x343
 1121 0077 67707466 		.ascii	"gptfreq_t\000"
 1121      7265715F 
 1121      7400
 1122 0081 73030000 		.4byte	0x373
 1123 0085 47505443 		.ascii	"GPTConfig\000"
 1123      6F6E6669 
 1123      6700
 1124 008f DB020000 		.4byte	0x2db
 1125 0093 47505444 		.ascii	"GPTDriver\000"
 1125      72697665 
 1125      7200
 1126 009d 00000000 		.4byte	0x0
 1127              		.section	.debug_aranges,"",%progbits
 1128 0000 24000000 		.4byte	0x24
 1129 0004 0200     		.2byte	0x2
 1130 0006 00000000 		.4byte	.Ldebug_info0
 1131 000a 04       		.byte	0x4
 1132 000b 00       		.byte	0x0
 1133 000c 0000     		.2byte	0x0
 1134 000e 0000     		.2byte	0x0
 1135 0010 00000000 		.4byte	.LFB63
 1136 0014 20000000 		.4byte	.LFE63-.LFB63
 1137 0018 00000000 		.4byte	.LFB62
 1138 001c 22000000 		.4byte	.LFE62-.LFB62
 1139 0020 00000000 		.4byte	0x0
 1140 0024 00000000 		.4byte	0x0
 1141              		.section	.debug_ranges,"",%progbits
 1142              	.Ldebug_ranges0:
 1143 0000 00000000 		.4byte	.LFB63
 1144 0004 20000000 		.4byte	.LFE63
 1145 0008 00000000 		.4byte	.LFB62
 1146 000c 22000000 		.4byte	.LFE62
 1147 0010 00000000 		.4byte	0x0
 1148 0014 00000000 		.4byte	0x0
 1149              		.section	.debug_str,"MS",%progbits,1
 1150              	.LASF25:
 1151 0000 43434552 		.ascii	"CCER\000"
 1151      00
 1152              	.LASF36:
 1153 0005 4750545F 		.ascii	"GPT_UNINIT\000"
 1153      554E494E 
 1153      495400
 1154              	.LASF57:
 1155 0010 67707443 		.ascii	"gptCb\000"
 1155      6200
 1156              	.LASF32:
 1157 0016 444D4152 		.ascii	"DMAR\000"
 1157      00
 1158              	.LASF43:
 1159 001b 73746174 		.ascii	"state\000"
 1159      6500
 1160              	.LASF23:
 1161 0021 43434D52 		.ascii	"CCMR2\000"
 1161      3200
ARM GAS  C:\Users\z80\AppData\Local\Temp\ccI1wunY.s 			page 22


 1162              	.LASF3:
 1163 0027 73686F72 		.ascii	"short int\000"
 1163      7420696E 
 1163      7400
 1164              	.LASF46:
 1165 0031 67707463 		.ascii	"gptcallback_t\000"
 1165      616C6C62 
 1165      61636B5F 
 1165      7400
 1166              	.LASF44:
 1167 003f 636F6E66 		.ascii	"config\000"
 1167      696700
 1168              	.LASF40:
 1169 0046 4750545F 		.ascii	"GPT_ONESHOT\000"
 1169      4F4E4553 
 1169      484F5400 
 1170              	.LASF13:
 1171 0052 5F726573 		.ascii	"_resvd0\000"
 1171      76643000 
 1172              	.LASF14:
 1173 005a 5F726573 		.ascii	"_resvd1\000"
 1173      76643100 
 1174              	.LASF16:
 1175 0062 5F726573 		.ascii	"_resvd2\000"
 1175      76643200 
 1176              	.LASF18:
 1177 006a 5F726573 		.ascii	"_resvd3\000"
 1177      76643300 
 1178              	.LASF19:
 1179 0072 5F726573 		.ascii	"_resvd4\000"
 1179      76643400 
 1180              	.LASF20:
 1181 007a 5F726573 		.ascii	"_resvd5\000"
 1181      76643500 
 1182              	.LASF22:
 1183 0082 5F726573 		.ascii	"_resvd6\000"
 1183      76643600 
 1184              	.LASF24:
 1185 008a 5F726573 		.ascii	"_resvd7\000"
 1185      76643700 
 1186              	.LASF26:
 1187 0092 5F726573 		.ascii	"_resvd8\000"
 1187      76643800 
 1188              	.LASF27:
 1189 009a 5F726573 		.ascii	"_resvd9\000"
 1189      76643900 
 1190              	.LASF41:
 1191 00a2 67707473 		.ascii	"gptstate_t\000"
 1191      74617465 
 1191      5F7400
 1192              	.LASF10:
 1193 00ad 6C6F6E67 		.ascii	"long long int\000"
 1193      206C6F6E 
 1193      6720696E 
 1193      7400
 1194              	.LASF59:
 1195 00bb 696E6974 		.ascii	"initTimer\000"
ARM GAS  C:\Users\z80\AppData\Local\Temp\ccI1wunY.s 			page 23


 1195      54696D65 
 1195      7200
 1196              	.LASF52:
 1197 00c5 47505444 		.ascii	"GPTD1\000"
 1197      3100
 1198              	.LASF7:
 1199 00cb 6C6F6E67 		.ascii	"long int\000"
 1199      20696E74 
 1199      00
 1200              	.LASF21:
 1201 00d4 43434D52 		.ascii	"CCMR1\000"
 1201      3100
 1202              	.LASF15:
 1203 00da 534D4352 		.ascii	"SMCR\000"
 1203      00
 1204              	.LASF2:
 1205 00df 756E7369 		.ascii	"unsigned char\000"
 1205      676E6564 
 1205      20636861 
 1205      7200
 1206              	.LASF1:
 1207 00ed 7369676E 		.ascii	"signed char\000"
 1207      65642063 
 1207      68617200 
 1208              	.LASF11:
 1209 00f9 6C6F6E67 		.ascii	"long long unsigned int\000"
 1209      206C6F6E 
 1209      6720756E 
 1209      7369676E 
 1209      65642069 
 1210              	.LASF8:
 1211 0110 75696E74 		.ascii	"uint32_t\000"
 1211      33325F74 
 1211      00
 1212              	.LASF0:
 1213 0119 756E7369 		.ascii	"unsigned int\000"
 1213      676E6564 
 1213      20696E74 
 1213      00
 1214              	.LASF5:
 1215 0126 75696E74 		.ascii	"uint16_t\000"
 1215      31365F74 
 1215      00
 1216              	.LASF17:
 1217 012f 44494552 		.ascii	"DIER\000"
 1217      00
 1218              	.LASF30:
 1219 0134 5F726573 		.ascii	"_resvd11\000"
 1219      76643131 
 1219      00
 1220              	.LASF31:
 1221 013d 5F726573 		.ascii	"_resvd12\000"
 1221      76643132 
 1221      00
 1222              	.LASF33:
 1223 0146 5F726573 		.ascii	"_resvd13\000"
 1223      76643133 
ARM GAS  C:\Users\z80\AppData\Local\Temp\ccI1wunY.s 			page 24


 1223      00
 1224              	.LASF34:
 1225 014f 5F726573 		.ascii	"_resvd14\000"
 1225      76643134 
 1225      00
 1226              	.LASF4:
 1227 0158 73686F72 		.ascii	"short unsigned int\000"
 1227      7420756E 
 1227      7369676E 
 1227      65642069 
 1227      6E7400
 1228              	.LASF12:
 1229 016b 63686172 		.ascii	"char\000"
 1229      00
 1230              	.LASF35:
 1231 0170 73746D33 		.ascii	"stm32_tim_t\000"
 1231      325F7469 
 1231      6D5F7400 
 1232              	.LASF29:
 1233 017c 42445452 		.ascii	"BDTR\000"
 1233      00
 1234              	.LASF6:
 1235 0181 696E7433 		.ascii	"int32_t\000"
 1235      325F7400 
 1236              	.LASF39:
 1237 0189 4750545F 		.ascii	"GPT_CONTINUOUS\000"
 1237      434F4E54 
 1237      494E554F 
 1237      555300
 1238              	.LASF38:
 1239 0198 4750545F 		.ascii	"GPT_READY\000"
 1239      52454144 
 1239      5900
 1240              	.LASF42:
 1241 01a2 47505444 		.ascii	"GPTDriver\000"
 1241      72697665 
 1241      7200
 1242              	.LASF9:
 1243 01ac 6C6F6E67 		.ascii	"long unsigned int\000"
 1243      20756E73 
 1243      69676E65 
 1243      6420696E 
 1243      7400
 1244              	.LASF45:
 1245 01be 636C6F63 		.ascii	"clock\000"
 1245      6B00
 1246              	.LASF56:
 1247 01c4 433A5C70 		.ascii	"C:\\projects\\digitizer.git\\firmware\\digitizer\000"
 1247      726F6A65 
 1247      6374735C 
 1247      64696769 
 1247      74697A65 
 1248              	.LASF54:
 1249 01f1 474E5520 		.ascii	"GNU C 4.5.0\000"
 1249      4320342E 
 1249      352E3000 
 1250              	.LASF28:
ARM GAS  C:\Users\z80\AppData\Local\Temp\ccI1wunY.s 			page 25


 1251 01fd 5F726573 		.ascii	"_resvd10\000"
 1251      76643130 
 1251      00
 1252              	.LASF58:
 1253 0206 67707470 		.ascii	"gptp\000"
 1253      00
 1254              	.LASF55:
 1255 020b 2E2F7372 		.ascii	"./src/timer_ctrl.c\000"
 1255      632F7469 
 1255      6D65725F 
 1255      6374726C 
 1255      2E6300
 1256              	.LASF53:
 1257 021e 67707443 		.ascii	"gptCfg\000"
 1257      666700
 1258              	.LASF50:
 1259 0225 47505443 		.ascii	"GPTConfig\000"
 1259      6F6E6669 
 1259      6700
 1260              	.LASF48:
 1261 022f 66726571 		.ascii	"frequency\000"
 1261      75656E63 
 1261      7900
 1262              	.LASF37:
 1263 0239 4750545F 		.ascii	"GPT_STOP\000"
 1263      53544F50 
 1263      00
 1264              	.LASF51:
 1265 0242 49544D5F 		.ascii	"ITM_RxBuffer\000"
 1265      52784275 
 1265      66666572 
 1265      00
 1266              	.LASF47:
 1267 024f 67707466 		.ascii	"gptfreq_t\000"
 1267      7265715F 
 1267      7400
 1268              	.LASF49:
 1269 0259 63616C6C 		.ascii	"callback\000"
 1269      6261636B 
 1269      00
 1270              		.ident	"GCC: (GNU) 4.5.0"
ARM GAS  C:\Users\z80\AppData\Local\Temp\ccI1wunY.s 			page 26


DEFINED SYMBOLS
                            *ABS*:00000000 timer_ctrl.c
C:\Users\z80\AppData\Local\Temp\ccI1wunY.s:24     .text.gptCb:00000000 $t
C:\Users\z80\AppData\Local\Temp\ccI1wunY.s:29     .text.gptCb:00000000 gptCb
C:\Users\z80\AppData\Local\Temp\ccI1wunY.s:75     .text.initTimer:00000000 $t
C:\Users\z80\AppData\Local\Temp\ccI1wunY.s:81     .text.initTimer:00000000 initTimer
C:\Users\z80\AppData\Local\Temp\ccI1wunY.s:110    .rodata.gptCfg:00000000 .LANCHOR0
C:\Users\z80\AppData\Local\Temp\ccI1wunY.s:109    .rodata.gptCfg:00000000 $d
C:\Users\z80\AppData\Local\Temp\ccI1wunY.s:113    .rodata.gptCfg:00000000 gptCfg
                     .debug_frame:00000010 $d

UNDEFINED SYMBOLS
dbg_check_lock_from_isr
queryAdcI
processDacI
dbg_check_unlock_from_isr
GPTD1
gptStart
gptStartContinuous
