ARM GAS  C:\Users\z80\AppData\Local\Temp\cchs8GPM.s 			page 1


   1              		.syntax unified
   2              		.cpu cortex-m3
   3              		.fpu softvfp
   4              		.eabi_attribute 20, 1
   5              		.eabi_attribute 21, 1
   6              		.eabi_attribute 23, 3
   7              		.eabi_attribute 24, 1
   8              		.eabi_attribute 25, 1
   9              		.eabi_attribute 26, 1
  10              		.eabi_attribute 30, 6
  11              		.eabi_attribute 18, 4
  12              		.thumb
  13              		.file	"timer_ctrl.c"
  20 0000 48010000 		.text
  20      02001E01 
  20      00000201 
  20      FB0E0D00 
  20      01010101 
  21              	.Ltext0:
  22              		.cfi_sections	.debug_frame
  23              		.section	.rodata.gptCfg,"a",%progbits
  24              		.align	2
  25              		.type	gptCfg, %object
  26              		.size	gptCfg, 8
  27              	gptCfg:
  28 0000 40548900 		.word	9000000
  29 0004 00000000 		.word	gptCb
  30              		.section	.text.initTimer,"ax",%progbits
  31              		.align	2
  32              		.p2align 4,,15
  33              		.global	initTimer
  34              		.thumb
  35              		.thumb_func
  36              		.type	initTimer, %function
  37              	initTimer:
  38              	.LFB62:
  39              		.file 1 "./src/timer_ctrl.c"
  40              		.loc 1 18 0
  41              		.cfi_startproc
  42              		@ args = 0, pretend = 0, frame = 0
  43              		@ frame_needed = 0, uses_anonymous_args = 0
  44 0000 08B5     		push	{r3, lr}
  45              	.LCFI0:
  46              		.cfi_def_cfa_offset 8
  47              		.loc 1 19 0
  48 0002 40F20000 		movw	r0, #:lower16:GPTD1
  49 0006 C0F20000 		movt	r0, #:upper16:GPTD1
  50 000a 40F20001 		movw	r1, #:lower16:gptCfg
  51 000e C0F20001 		movt	r1, #:upper16:gptCfg
  52              		.cfi_offset 14, -4
  53              		.cfi_offset 3, -8
ARM GAS  C:\Users\z80\AppData\Local\Temp\cchs8GPM.s 			page 2


  54 0012 FFF7FEFF 		bl	gptStart
  55              		.loc 1 20 0
  56 0016 40F20000 		movw	r0, #:lower16:GPTD1
  57 001a C0F20000 		movt	r0, #:upper16:GPTD1
  58 001e 4FF05A01 		mov	r1, #90
  59 0022 FFF7FEFF 		bl	gptStartContinuous
  60              		.loc 1 21 0
  61 0026 08BD     		pop	{r3, pc}
  62              		.cfi_endproc
  63              	.LFE62:
  64              		.size	initTimer, .-initTimer
  65 0028 AFF30080 		.section	.text.gptCb,"ax",%progbits
  65      AFF30080 
  66              		.align	2
  67              		.p2align 4,,15
  68              		.thumb
  69              		.thumb_func
  70              		.type	gptCb, %function
  71              	gptCb:
  72              	.LFB63:
  73              		.loc 1 24 0
  74              		.cfi_startproc
  75              		@ args = 0, pretend = 0, frame = 8
  76              		@ frame_needed = 0, uses_anonymous_args = 0
  77 0000 00B5     		push	{lr}
  78              	.LCFI1:
  79              		.cfi_def_cfa_offset 4
  80 0002 83B0     		sub	sp, sp, #12
  81              	.LCFI2:
  82              		.cfi_def_cfa_offset 16
  83 0004 0190     		str	r0, [sp, #4]
  84              		.loc 1 26 0
  85              		.cfi_offset 14, -4
  86 0006 FFF7FEFF 		bl	queryAdcI
  87              		.loc 1 27 0
  88 000a FFF7FEFF 		bl	processDacI
  89              		.loc 1 28 0
  90 000e 03B0     		add	sp, sp, #12
  91 0010 00BD     		pop	{pc}
  92              		.cfi_endproc
  93              	.LFE63:
  94              		.size	gptCb, .-gptCb
  95 0012 00BFAFF3 		.text
  95      0080AFF3 
  95      0080AFF3 
  95      0080
  96              	.Letext0: