ARM GAS  C:\Users\z80\AppData\Local\Temp\ccaDOXpz.s 			page 1


   1              		.syntax unified
   2              		.cpu cortex-m3
   3              		.fpu softvfp
   4              		.eabi_attribute 20, 1
   5              		.eabi_attribute 21, 1
   6              		.eabi_attribute 23, 3
   7              		.eabi_attribute 24, 1
   8              		.eabi_attribute 25, 1
   9              		.eabi_attribute 26, 1
  10              		.eabi_attribute 30, 2
  11              		.eabi_attribute 34, 1
  12              		.eabi_attribute 18, 4
  13              		.thumb
  14              		.file	"timer_ctrl.c"
  15              		.text
  16              	.Ltext0:
  17              		.cfi_sections	.debug_frame
  18              		.section	.text.gptCb,"ax",%progbits
  19              		.align	2
  20              		.p2align 4,,15
  21              		.thumb
  22              		.thumb_func
  23              		.type	gptCb, %function
  24              	gptCb:
  25              	.LFB63:
  26              		.file 1 "./src/timer_ctrl.c"
  27              		.loc 1 33 0
  28              		.cfi_startproc
  29              		@ args = 0, pretend = 0, frame = 0
  30              		@ frame_needed = 0, uses_anonymous_args = 0
  31              	.LVL0:
  32 0000 08B5     		push	{r3, lr}
  33              	.LCFI0:
  34              		.cfi_def_cfa_offset 8
  35              		.cfi_offset 14, -4
  36              		.cfi_offset 3, -8
  37              	.LBB2:
  38              		.loc 1 35 0
  39 0002 2023     		movs	r3, #32
  40              	.LVL1:
  41              	@ 35 "./src/timer_ctrl.c" 1
  42 0004 83F31188 		msr     BASEPRI, r3
  43              	@ 0 "" 2
  44              	.LVL2:
  45              		.thumb
  46              	.LBE2:
  47 0008 FFF7FEFF 		bl	dbg_check_lock_from_isr
  48              	.LVL3:
  49              		.loc 1 36 0
  50 000c FFF7FEFF 		bl	queryAdcI
  51              		.loc 1 37 0
  52 0010 FFF7FEFF 		bl	processDacI
  53              		.loc 1 38 0
  54 0014 FFF7FEFF 		bl	processSweepI
  55              		.loc 1 39 0
  56 0018 FFF7FEFF 		bl	dbg_check_unlock_from_isr
  57              	.LBB3:
ARM GAS  C:\Users\z80\AppData\Local\Temp\ccaDOXpz.s 			page 2


  58 001c 0023     		movs	r3, #0
  59              	.LVL4:
  60              	@ 39 "./src/timer_ctrl.c" 1
  61 001e 83F31188 		msr     BASEPRI, r3
  62              	@ 0 "" 2
  63              	.LVL5:
  64              		.thumb
  65              	.LBE3:
  66              		.loc 1 40 0
  67 0022 08BD     		pop	{r3, pc}
  68              		.cfi_endproc
  69              	.LFE63:
  70              		.size	gptCb, .-gptCb
  71 0024 AFF30080 		.section	.text.initTimer,"ax",%progbits
  71      AFF30080 
  71      AFF30080 
  72              		.align	2
  73              		.p2align 4,,15
  74              		.global	initTimer
  75              		.thumb
  76              		.thumb_func
  77              		.type	initTimer, %function
  78              	initTimer:
  79              	.LFB62:
  80              		.loc 1 26 0
  81              		.cfi_startproc
  82              		@ args = 0, pretend = 0, frame = 0
  83              		@ frame_needed = 0, uses_anonymous_args = 0
  84 0000 10B5     		push	{r4, lr}
  85              	.LCFI1:
  86              		.cfi_def_cfa_offset 8
  87              		.cfi_offset 14, -4
  88              		.cfi_offset 4, -8
  89              		.loc 1 27 0
  90 0002 40F20004 		movw	r4, #:lower16:GPTD1
  91 0006 C0F20004 		movt	r4, #:upper16:GPTD1
  92 000a 40F20001 		movw	r1, #:lower16:.LANCHOR0
  93 000e 2046     		mov	r0, r4
  94 0010 C0F20001 		movt	r1, #:upper16:.LANCHOR0
  95 0014 FFF7FEFF 		bl	gptStart
  96              		.loc 1 29 0
  97 0018 2046     		mov	r0, r4
  98 001a 4FF4FA71 		mov	r1, #500
  99              		.loc 1 30 0
 100 001e BDE81040 		pop	{r4, lr}
 101              		.loc 1 29 0
 102 0022 FFF7FEBF 		b	gptStartContinuous
 103              		.cfi_endproc
 104              	.LFE62:
 105              		.size	initTimer, .-initTimer
 106 0026 00BFAFF3 		.section	.rodata.gptCfg,"a",%progbits
 106      0080AFF3 
 106      0080
 107              		.align	2
 108              		.set	.LANCHOR0,. + 0
 109              		.type	gptCfg, %object
 110              		.size	gptCfg, 8
ARM GAS  C:\Users\z80\AppData\Local\Temp\ccaDOXpz.s 			page 3


 111              	gptCfg:
 112 0000 40420F00 		.word	1000000
 113 0004 00000000 		.word	gptCb
 114              		.text
 115              	.Letext0:
 116              		.file 2 "c:\\programs\\codesourcery\\2011.03-56\\bin\\../lib/gcc/arm-none-eabi/4.6.3/../../../../a
 117              		.file 3 "../chibios_2.4.x/os/hal/platforms/STM32/stm32.h"
 118              		.file 4 "../chibios_2.4.x/os/hal/include/gpt.h"
 119              		.file 5 "../chibios_2.4.x/os/hal/platforms/STM32/gpt_lld.h"
 120              		.file 6 "../chibios_2.4.x/os/ports/common/ARMCMx/CMSIS/include/core_cm3.h"
 121              		.section	.debug_info,"",%progbits
 122              	.Ldebug_info0:
 123 0000 28040000 		.4byte	0x428
 124 0004 0200     		.2byte	0x2
 125 0006 00000000 		.4byte	.Ldebug_abbrev0
 126 000a 04       		.byte	0x4
 127 000b 01       		.uleb128 0x1
 128 000c 89010000 		.4byte	.LASF54
 129 0010 01       		.byte	0x1
 130 0011 0B020000 		.4byte	.LASF55
 131 0015 D0010000 		.4byte	.LASF56
 132 0019 00000000 		.4byte	0
 133 001d 00000000 		.4byte	0
 134 0021 00000000 		.4byte	.Ldebug_ranges0+0
 135 0025 00000000 		.4byte	.Ldebug_line0
 136 0029 02       		.uleb128 0x2
 137 002a 04       		.byte	0x4
 138 002b 05       		.byte	0x5
 139 002c 696E7400 		.ascii	"int\000"
 140 0030 03       		.uleb128 0x3
 141 0031 04       		.byte	0x4
 142 0032 07       		.byte	0x7
 143 0033 19010000 		.4byte	.LASF0
 144 0037 03       		.uleb128 0x3
 145 0038 01       		.byte	0x1
 146 0039 06       		.byte	0x6
 147 003a ED000000 		.4byte	.LASF1
 148 003e 03       		.uleb128 0x3
 149 003f 01       		.byte	0x1
 150 0040 08       		.byte	0x8
 151 0041 DF000000 		.4byte	.LASF2
 152 0045 03       		.uleb128 0x3
 153 0046 02       		.byte	0x2
 154 0047 05       		.byte	0x5
 155 0048 27000000 		.4byte	.LASF3
 156 004c 04       		.uleb128 0x4
 157 004d 26010000 		.4byte	.LASF5
 158 0051 02       		.byte	0x2
 159 0052 36       		.byte	0x36
 160 0053 57000000 		.4byte	0x57
 161 0057 03       		.uleb128 0x3
 162 0058 02       		.byte	0x2
 163 0059 07       		.byte	0x7
 164 005a 58010000 		.4byte	.LASF4
 165 005e 04       		.uleb128 0x4
 166 005f 81010000 		.4byte	.LASF6
 167 0063 02       		.byte	0x2
ARM GAS  C:\Users\z80\AppData\Local\Temp\ccaDOXpz.s 			page 4


 168 0064 4F       		.byte	0x4f
 169 0065 69000000 		.4byte	0x69
 170 0069 03       		.uleb128 0x3
 171 006a 04       		.byte	0x4
 172 006b 05       		.byte	0x5
 173 006c CB000000 		.4byte	.LASF7
 174 0070 04       		.uleb128 0x4
 175 0071 10010000 		.4byte	.LASF8
 176 0075 02       		.byte	0x2
 177 0076 50       		.byte	0x50
 178 0077 7B000000 		.4byte	0x7b
 179 007b 03       		.uleb128 0x3
 180 007c 04       		.byte	0x4
 181 007d 07       		.byte	0x7
 182 007e B8010000 		.4byte	.LASF9
 183 0082 03       		.uleb128 0x3
 184 0083 08       		.byte	0x8
 185 0084 05       		.byte	0x5
 186 0085 AD000000 		.4byte	.LASF10
 187 0089 03       		.uleb128 0x3
 188 008a 08       		.byte	0x8
 189 008b 07       		.byte	0x7
 190 008c F9000000 		.4byte	.LASF11
 191 0090 05       		.uleb128 0x5
 192 0091 70000000 		.4byte	0x70
 193 0095 03       		.uleb128 0x3
 194 0096 01       		.byte	0x1
 195 0097 08       		.byte	0x8
 196 0098 6B010000 		.4byte	.LASF12
 197 009c 06       		.uleb128 0x6
 198 009d 70000000 		.4byte	0x70
 199 00a1 AC000000 		.4byte	0xac
 200 00a5 07       		.uleb128 0x7
 201 00a6 30000000 		.4byte	0x30
 202 00aa 03       		.byte	0x3
 203 00ab 00       		.byte	0
 204 00ac 05       		.uleb128 0x5
 205 00ad 4C000000 		.4byte	0x4c
 206 00b1 05       		.uleb128 0x5
 207 00b2 5E000000 		.4byte	0x5e
 208 00b6 08       		.uleb128 0x8
 209 00b7 54       		.byte	0x54
 210 00b8 03       		.byte	0x3
 211 00b9 72       		.byte	0x72
 212 00ba 8B020000 		.4byte	0x28b
 213 00be 09       		.uleb128 0x9
 214 00bf 43523100 		.ascii	"CR1\000"
 215 00c3 03       		.byte	0x3
 216 00c4 73       		.byte	0x73
 217 00c5 AC000000 		.4byte	0xac
 218 00c9 02       		.byte	0x2
 219 00ca 23       		.byte	0x23
 220 00cb 00       		.uleb128 0
 221 00cc 0A       		.uleb128 0xa
 222 00cd 52000000 		.4byte	.LASF13
 223 00d1 03       		.byte	0x3
 224 00d2 74       		.byte	0x74
ARM GAS  C:\Users\z80\AppData\Local\Temp\ccaDOXpz.s 			page 5


 225 00d3 4C000000 		.4byte	0x4c
 226 00d7 02       		.byte	0x2
 227 00d8 23       		.byte	0x23
 228 00d9 02       		.uleb128 0x2
 229 00da 09       		.uleb128 0x9
 230 00db 43523200 		.ascii	"CR2\000"
 231 00df 03       		.byte	0x3
 232 00e0 75       		.byte	0x75
 233 00e1 AC000000 		.4byte	0xac
 234 00e5 02       		.byte	0x2
 235 00e6 23       		.byte	0x23
 236 00e7 04       		.uleb128 0x4
 237 00e8 0A       		.uleb128 0xa
 238 00e9 5A000000 		.4byte	.LASF14
 239 00ed 03       		.byte	0x3
 240 00ee 76       		.byte	0x76
 241 00ef 4C000000 		.4byte	0x4c
 242 00f3 02       		.byte	0x2
 243 00f4 23       		.byte	0x23
 244 00f5 06       		.uleb128 0x6
 245 00f6 0A       		.uleb128 0xa
 246 00f7 DA000000 		.4byte	.LASF15
 247 00fb 03       		.byte	0x3
 248 00fc 77       		.byte	0x77
 249 00fd AC000000 		.4byte	0xac
 250 0101 02       		.byte	0x2
 251 0102 23       		.byte	0x23
 252 0103 08       		.uleb128 0x8
 253 0104 0A       		.uleb128 0xa
 254 0105 62000000 		.4byte	.LASF16
 255 0109 03       		.byte	0x3
 256 010a 78       		.byte	0x78
 257 010b 4C000000 		.4byte	0x4c
 258 010f 02       		.byte	0x2
 259 0110 23       		.byte	0x23
 260 0111 0A       		.uleb128 0xa
 261 0112 0A       		.uleb128 0xa
 262 0113 2F010000 		.4byte	.LASF17
 263 0117 03       		.byte	0x3
 264 0118 79       		.byte	0x79
 265 0119 AC000000 		.4byte	0xac
 266 011d 02       		.byte	0x2
 267 011e 23       		.byte	0x23
 268 011f 0C       		.uleb128 0xc
 269 0120 0A       		.uleb128 0xa
 270 0121 6A000000 		.4byte	.LASF18
 271 0125 03       		.byte	0x3
 272 0126 7A       		.byte	0x7a
 273 0127 4C000000 		.4byte	0x4c
 274 012b 02       		.byte	0x2
 275 012c 23       		.byte	0x23
 276 012d 0E       		.uleb128 0xe
 277 012e 09       		.uleb128 0x9
 278 012f 535200   		.ascii	"SR\000"
 279 0132 03       		.byte	0x3
 280 0133 7B       		.byte	0x7b
 281 0134 AC000000 		.4byte	0xac
ARM GAS  C:\Users\z80\AppData\Local\Temp\ccaDOXpz.s 			page 6


 282 0138 02       		.byte	0x2
 283 0139 23       		.byte	0x23
 284 013a 10       		.uleb128 0x10
 285 013b 0A       		.uleb128 0xa
 286 013c 72000000 		.4byte	.LASF19
 287 0140 03       		.byte	0x3
 288 0141 7C       		.byte	0x7c
 289 0142 4C000000 		.4byte	0x4c
 290 0146 02       		.byte	0x2
 291 0147 23       		.byte	0x23
 292 0148 12       		.uleb128 0x12
 293 0149 09       		.uleb128 0x9
 294 014a 45475200 		.ascii	"EGR\000"
 295 014e 03       		.byte	0x3
 296 014f 7D       		.byte	0x7d
 297 0150 AC000000 		.4byte	0xac
 298 0154 02       		.byte	0x2
 299 0155 23       		.byte	0x23
 300 0156 14       		.uleb128 0x14
 301 0157 0A       		.uleb128 0xa
 302 0158 7A000000 		.4byte	.LASF20
 303 015c 03       		.byte	0x3
 304 015d 7E       		.byte	0x7e
 305 015e 4C000000 		.4byte	0x4c
 306 0162 02       		.byte	0x2
 307 0163 23       		.byte	0x23
 308 0164 16       		.uleb128 0x16
 309 0165 0A       		.uleb128 0xa
 310 0166 D4000000 		.4byte	.LASF21
 311 016a 03       		.byte	0x3
 312 016b 7F       		.byte	0x7f
 313 016c AC000000 		.4byte	0xac
 314 0170 02       		.byte	0x2
 315 0171 23       		.byte	0x23
 316 0172 18       		.uleb128 0x18
 317 0173 0A       		.uleb128 0xa
 318 0174 82000000 		.4byte	.LASF22
 319 0178 03       		.byte	0x3
 320 0179 80       		.byte	0x80
 321 017a 4C000000 		.4byte	0x4c
 322 017e 02       		.byte	0x2
 323 017f 23       		.byte	0x23
 324 0180 1A       		.uleb128 0x1a
 325 0181 0A       		.uleb128 0xa
 326 0182 21000000 		.4byte	.LASF23
 327 0186 03       		.byte	0x3
 328 0187 81       		.byte	0x81
 329 0188 AC000000 		.4byte	0xac
 330 018c 02       		.byte	0x2
 331 018d 23       		.byte	0x23
 332 018e 1C       		.uleb128 0x1c
 333 018f 0A       		.uleb128 0xa
 334 0190 8A000000 		.4byte	.LASF24
 335 0194 03       		.byte	0x3
 336 0195 82       		.byte	0x82
 337 0196 4C000000 		.4byte	0x4c
 338 019a 02       		.byte	0x2
ARM GAS  C:\Users\z80\AppData\Local\Temp\ccaDOXpz.s 			page 7


 339 019b 23       		.byte	0x23
 340 019c 1E       		.uleb128 0x1e
 341 019d 0A       		.uleb128 0xa
 342 019e 00000000 		.4byte	.LASF25
 343 01a2 03       		.byte	0x3
 344 01a3 83       		.byte	0x83
 345 01a4 AC000000 		.4byte	0xac
 346 01a8 02       		.byte	0x2
 347 01a9 23       		.byte	0x23
 348 01aa 20       		.uleb128 0x20
 349 01ab 0A       		.uleb128 0xa
 350 01ac 92000000 		.4byte	.LASF26
 351 01b0 03       		.byte	0x3
 352 01b1 84       		.byte	0x84
 353 01b2 4C000000 		.4byte	0x4c
 354 01b6 02       		.byte	0x2
 355 01b7 23       		.byte	0x23
 356 01b8 22       		.uleb128 0x22
 357 01b9 09       		.uleb128 0x9
 358 01ba 434E5400 		.ascii	"CNT\000"
 359 01be 03       		.byte	0x3
 360 01bf 85       		.byte	0x85
 361 01c0 90000000 		.4byte	0x90
 362 01c4 02       		.byte	0x2
 363 01c5 23       		.byte	0x23
 364 01c6 24       		.uleb128 0x24
 365 01c7 09       		.uleb128 0x9
 366 01c8 50534300 		.ascii	"PSC\000"
 367 01cc 03       		.byte	0x3
 368 01cd 86       		.byte	0x86
 369 01ce AC000000 		.4byte	0xac
 370 01d2 02       		.byte	0x2
 371 01d3 23       		.byte	0x23
 372 01d4 28       		.uleb128 0x28
 373 01d5 0A       		.uleb128 0xa
 374 01d6 9A000000 		.4byte	.LASF27
 375 01da 03       		.byte	0x3
 376 01db 87       		.byte	0x87
 377 01dc 4C000000 		.4byte	0x4c
 378 01e0 02       		.byte	0x2
 379 01e1 23       		.byte	0x23
 380 01e2 2A       		.uleb128 0x2a
 381 01e3 09       		.uleb128 0x9
 382 01e4 41525200 		.ascii	"ARR\000"
 383 01e8 03       		.byte	0x3
 384 01e9 88       		.byte	0x88
 385 01ea 90000000 		.4byte	0x90
 386 01ee 02       		.byte	0x2
 387 01ef 23       		.byte	0x23
 388 01f0 2C       		.uleb128 0x2c
 389 01f1 09       		.uleb128 0x9
 390 01f2 52435200 		.ascii	"RCR\000"
 391 01f6 03       		.byte	0x3
 392 01f7 89       		.byte	0x89
 393 01f8 AC000000 		.4byte	0xac
 394 01fc 02       		.byte	0x2
 395 01fd 23       		.byte	0x23
ARM GAS  C:\Users\z80\AppData\Local\Temp\ccaDOXpz.s 			page 8


 396 01fe 30       		.uleb128 0x30
 397 01ff 0A       		.uleb128 0xa
 398 0200 FD010000 		.4byte	.LASF28
 399 0204 03       		.byte	0x3
 400 0205 8A       		.byte	0x8a
 401 0206 4C000000 		.4byte	0x4c
 402 020a 02       		.byte	0x2
 403 020b 23       		.byte	0x23
 404 020c 32       		.uleb128 0x32
 405 020d 09       		.uleb128 0x9
 406 020e 43435200 		.ascii	"CCR\000"
 407 0212 03       		.byte	0x3
 408 0213 8B       		.byte	0x8b
 409 0214 8B020000 		.4byte	0x28b
 410 0218 02       		.byte	0x2
 411 0219 23       		.byte	0x23
 412 021a 34       		.uleb128 0x34
 413 021b 0A       		.uleb128 0xa
 414 021c 7C010000 		.4byte	.LASF29
 415 0220 03       		.byte	0x3
 416 0221 8C       		.byte	0x8c
 417 0222 AC000000 		.4byte	0xac
 418 0226 02       		.byte	0x2
 419 0227 23       		.byte	0x23
 420 0228 44       		.uleb128 0x44
 421 0229 0A       		.uleb128 0xa
 422 022a 34010000 		.4byte	.LASF30
 423 022e 03       		.byte	0x3
 424 022f 8D       		.byte	0x8d
 425 0230 4C000000 		.4byte	0x4c
 426 0234 02       		.byte	0x2
 427 0235 23       		.byte	0x23
 428 0236 46       		.uleb128 0x46
 429 0237 09       		.uleb128 0x9
 430 0238 44435200 		.ascii	"DCR\000"
 431 023c 03       		.byte	0x3
 432 023d 8E       		.byte	0x8e
 433 023e AC000000 		.4byte	0xac
 434 0242 02       		.byte	0x2
 435 0243 23       		.byte	0x23
 436 0244 48       		.uleb128 0x48
 437 0245 0A       		.uleb128 0xa
 438 0246 3D010000 		.4byte	.LASF31
 439 024a 03       		.byte	0x3
 440 024b 8F       		.byte	0x8f
 441 024c 4C000000 		.4byte	0x4c
 442 0250 02       		.byte	0x2
 443 0251 23       		.byte	0x23
 444 0252 4A       		.uleb128 0x4a
 445 0253 0A       		.uleb128 0xa
 446 0254 16000000 		.4byte	.LASF32
 447 0258 03       		.byte	0x3
 448 0259 90       		.byte	0x90
 449 025a AC000000 		.4byte	0xac
 450 025e 02       		.byte	0x2
 451 025f 23       		.byte	0x23
 452 0260 4C       		.uleb128 0x4c
ARM GAS  C:\Users\z80\AppData\Local\Temp\ccaDOXpz.s 			page 9


 453 0261 0A       		.uleb128 0xa
 454 0262 46010000 		.4byte	.LASF33
 455 0266 03       		.byte	0x3
 456 0267 91       		.byte	0x91
 457 0268 4C000000 		.4byte	0x4c
 458 026c 02       		.byte	0x2
 459 026d 23       		.byte	0x23
 460 026e 4E       		.uleb128 0x4e
 461 026f 09       		.uleb128 0x9
 462 0270 4F5200   		.ascii	"OR\000"
 463 0273 03       		.byte	0x3
 464 0274 92       		.byte	0x92
 465 0275 AC000000 		.4byte	0xac
 466 0279 02       		.byte	0x2
 467 027a 23       		.byte	0x23
 468 027b 50       		.uleb128 0x50
 469 027c 0A       		.uleb128 0xa
 470 027d 4F010000 		.4byte	.LASF34
 471 0281 03       		.byte	0x3
 472 0282 93       		.byte	0x93
 473 0283 4C000000 		.4byte	0x4c
 474 0287 02       		.byte	0x2
 475 0288 23       		.byte	0x23
 476 0289 52       		.uleb128 0x52
 477 028a 00       		.byte	0
 478 028b 05       		.uleb128 0x5
 479 028c 9C000000 		.4byte	0x9c
 480 0290 04       		.uleb128 0x4
 481 0291 70010000 		.4byte	.LASF35
 482 0295 03       		.byte	0x3
 483 0296 94       		.byte	0x94
 484 0297 B6000000 		.4byte	0xb6
 485 029b 0B       		.uleb128 0xb
 486 029c 01       		.byte	0x1
 487 029d 04       		.byte	0x4
 488 029e 3C       		.byte	0x3c
 489 029f C2020000 		.4byte	0x2c2
 490 02a3 0C       		.uleb128 0xc
 491 02a4 05000000 		.4byte	.LASF36
 492 02a8 00       		.sleb128 0
 493 02a9 0C       		.uleb128 0xc
 494 02aa 39020000 		.4byte	.LASF37
 495 02ae 01       		.sleb128 1
 496 02af 0C       		.uleb128 0xc
 497 02b0 A4010000 		.4byte	.LASF38
 498 02b4 02       		.sleb128 2
 499 02b5 0C       		.uleb128 0xc
 500 02b6 95010000 		.4byte	.LASF39
 501 02ba 03       		.sleb128 3
 502 02bb 0C       		.uleb128 0xc
 503 02bc 46000000 		.4byte	.LASF40
 504 02c0 04       		.sleb128 4
 505 02c1 00       		.byte	0
 506 02c2 04       		.uleb128 0x4
 507 02c3 A2000000 		.4byte	.LASF41
 508 02c7 04       		.byte	0x4
 509 02c8 42       		.byte	0x42
ARM GAS  C:\Users\z80\AppData\Local\Temp\ccaDOXpz.s 			page 10


 510 02c9 9B020000 		.4byte	0x29b
 511 02cd 04       		.uleb128 0x4
 512 02ce AE010000 		.4byte	.LASF42
 513 02d2 04       		.byte	0x4
 514 02d3 47       		.byte	0x47
 515 02d4 D8020000 		.4byte	0x2d8
 516 02d8 0D       		.uleb128 0xd
 517 02d9 AE010000 		.4byte	.LASF42
 518 02dd 10       		.byte	0x10
 519 02de 05       		.byte	0x5
 520 02df DC       		.byte	0xdc
 521 02e0 1D030000 		.4byte	0x31d
 522 02e4 0A       		.uleb128 0xa
 523 02e5 1B000000 		.4byte	.LASF43
 524 02e9 05       		.byte	0x5
 525 02ea E0       		.byte	0xe0
 526 02eb C2020000 		.4byte	0x2c2
 527 02ef 02       		.byte	0x2
 528 02f0 23       		.byte	0x23
 529 02f1 00       		.uleb128 0
 530 02f2 0A       		.uleb128 0xa
 531 02f3 3F000000 		.4byte	.LASF44
 532 02f7 05       		.byte	0x5
 533 02f8 E4       		.byte	0xe4
 534 02f9 7B030000 		.4byte	0x37b
 535 02fd 02       		.byte	0x2
 536 02fe 23       		.byte	0x23
 537 02ff 04       		.uleb128 0x4
 538 0300 0A       		.uleb128 0xa
 539 0301 CA010000 		.4byte	.LASF45
 540 0305 05       		.byte	0x5
 541 0306 EC       		.byte	0xec
 542 0307 70000000 		.4byte	0x70
 543 030b 02       		.byte	0x2
 544 030c 23       		.byte	0x23
 545 030d 08       		.uleb128 0x8
 546 030e 09       		.uleb128 0x9
 547 030f 74696D00 		.ascii	"tim\000"
 548 0313 05       		.byte	0x5
 549 0314 F0       		.byte	0xf0
 550 0315 86030000 		.4byte	0x386
 551 0319 02       		.byte	0x2
 552 031a 23       		.byte	0x23
 553 031b 0C       		.uleb128 0xc
 554 031c 00       		.byte	0
 555 031d 04       		.uleb128 0x4
 556 031e 31000000 		.4byte	.LASF46
 557 0322 04       		.byte	0x4
 558 0323 4E       		.byte	0x4e
 559 0324 28030000 		.4byte	0x328
 560 0328 0E       		.uleb128 0xe
 561 0329 04       		.byte	0x4
 562 032a 2E030000 		.4byte	0x32e
 563 032e 0F       		.uleb128 0xf
 564 032f 01       		.byte	0x1
 565 0330 3A030000 		.4byte	0x33a
 566 0334 10       		.uleb128 0x10
ARM GAS  C:\Users\z80\AppData\Local\Temp\ccaDOXpz.s 			page 11


 567 0335 3A030000 		.4byte	0x33a
 568 0339 00       		.byte	0
 569 033a 0E       		.uleb128 0xe
 570 033b 04       		.byte	0x4
 571 033c CD020000 		.4byte	0x2cd
 572 0340 04       		.uleb128 0x4
 573 0341 4F020000 		.4byte	.LASF47
 574 0345 05       		.byte	0x5
 575 0346 BF       		.byte	0xbf
 576 0347 70000000 		.4byte	0x70
 577 034b 08       		.uleb128 0x8
 578 034c 08       		.byte	0x8
 579 034d 05       		.byte	0x5
 580 034e CA       		.byte	0xca
 581 034f 70030000 		.4byte	0x370
 582 0353 0A       		.uleb128 0xa
 583 0354 2F020000 		.4byte	.LASF48
 584 0358 05       		.byte	0x5
 585 0359 D0       		.byte	0xd0
 586 035a 40030000 		.4byte	0x340
 587 035e 02       		.byte	0x2
 588 035f 23       		.byte	0x23
 589 0360 00       		.uleb128 0
 590 0361 0A       		.uleb128 0xa
 591 0362 59020000 		.4byte	.LASF49
 592 0366 05       		.byte	0x5
 593 0367 D5       		.byte	0xd5
 594 0368 1D030000 		.4byte	0x31d
 595 036c 02       		.byte	0x2
 596 036d 23       		.byte	0x23
 597 036e 04       		.uleb128 0x4
 598 036f 00       		.byte	0
 599 0370 04       		.uleb128 0x4
 600 0371 25020000 		.4byte	.LASF50
 601 0375 05       		.byte	0x5
 602 0376 D7       		.byte	0xd7
 603 0377 4B030000 		.4byte	0x34b
 604 037b 0E       		.uleb128 0xe
 605 037c 04       		.byte	0x4
 606 037d 81030000 		.4byte	0x381
 607 0381 11       		.uleb128 0x11
 608 0382 70030000 		.4byte	0x370
 609 0386 0E       		.uleb128 0xe
 610 0387 04       		.byte	0x4
 611 0388 90020000 		.4byte	0x290
 612 038c 12       		.uleb128 0x12
 613 038d 10000000 		.4byte	.LASF57
 614 0391 01       		.byte	0x1
 615 0392 20       		.byte	0x20
 616 0393 01       		.byte	0x1
 617 0394 00000000 		.4byte	.LFB63
 618 0398 24000000 		.4byte	.LFE63
 619 039c 00000000 		.4byte	.LLST0
 620 03a0 EA030000 		.4byte	0x3ea
 621 03a4 13       		.uleb128 0x13
 622 03a5 06020000 		.4byte	.LASF58
 623 03a9 01       		.byte	0x1
ARM GAS  C:\Users\z80\AppData\Local\Temp\ccaDOXpz.s 			page 12


 624 03aa 20       		.byte	0x20
 625 03ab 3A030000 		.4byte	0x33a
 626 03af 20000000 		.4byte	.LLST1
 627 03b3 14       		.uleb128 0x14
 628 03b4 02000000 		.4byte	.LBB2
 629 03b8 08000000 		.4byte	.LBE2
 630 03bc D0030000 		.4byte	0x3d0
 631 03c0 15       		.uleb128 0x15
 632 03c1 746D7000 		.ascii	"tmp\000"
 633 03c5 01       		.byte	0x1
 634 03c6 23       		.byte	0x23
 635 03c7 70000000 		.4byte	0x70
 636 03cb 33000000 		.4byte	.LLST2
 637 03cf 00       		.byte	0
 638 03d0 16       		.uleb128 0x16
 639 03d1 1C000000 		.4byte	.LBB3
 640 03d5 22000000 		.4byte	.LBE3
 641 03d9 15       		.uleb128 0x15
 642 03da 746D7000 		.ascii	"tmp\000"
 643 03de 01       		.byte	0x1
 644 03df 27       		.byte	0x27
 645 03e0 70000000 		.4byte	0x70
 646 03e4 46000000 		.4byte	.LLST3
 647 03e8 00       		.byte	0
 648 03e9 00       		.byte	0
 649 03ea 17       		.uleb128 0x17
 650 03eb 01       		.byte	0x1
 651 03ec BB000000 		.4byte	.LASF59
 652 03f0 01       		.byte	0x1
 653 03f1 19       		.byte	0x19
 654 03f2 01       		.byte	0x1
 655 03f3 00000000 		.4byte	.LFB62
 656 03f7 26000000 		.4byte	.LFE62
 657 03fb 59000000 		.4byte	.LLST4
 658 03ff 18       		.uleb128 0x18
 659 0400 1E020000 		.4byte	.LASF51
 660 0404 01       		.byte	0x1
 661 0405 0B       		.byte	0xb
 662 0406 81030000 		.4byte	0x381
 663 040a 05       		.byte	0x5
 664 040b 03       		.byte	0x3
 665 040c 00000000 		.4byte	gptCfg
 666 0410 19       		.uleb128 0x19
 667 0411 42020000 		.4byte	.LASF52
 668 0415 06       		.byte	0x6
 669 0416 9404     		.2byte	0x494
 670 0418 B1000000 		.4byte	0xb1
 671 041c 01       		.byte	0x1
 672 041d 01       		.byte	0x1
 673 041e 1A       		.uleb128 0x1a
 674 041f C5000000 		.4byte	.LASF53
 675 0423 05       		.byte	0x5
 676 0424 FC       		.byte	0xfc
 677 0425 CD020000 		.4byte	0x2cd
 678 0429 01       		.byte	0x1
 679 042a 01       		.byte	0x1
 680 042b 00       		.byte	0
ARM GAS  C:\Users\z80\AppData\Local\Temp\ccaDOXpz.s 			page 13


 681              		.section	.debug_abbrev,"",%progbits
 682              	.Ldebug_abbrev0:
 683 0000 01       		.uleb128 0x1
 684 0001 11       		.uleb128 0x11
 685 0002 01       		.byte	0x1
 686 0003 25       		.uleb128 0x25
 687 0004 0E       		.uleb128 0xe
 688 0005 13       		.uleb128 0x13
 689 0006 0B       		.uleb128 0xb
 690 0007 03       		.uleb128 0x3
 691 0008 0E       		.uleb128 0xe
 692 0009 1B       		.uleb128 0x1b
 693 000a 0E       		.uleb128 0xe
 694 000b 11       		.uleb128 0x11
 695 000c 01       		.uleb128 0x1
 696 000d 52       		.uleb128 0x52
 697 000e 01       		.uleb128 0x1
 698 000f 55       		.uleb128 0x55
 699 0010 06       		.uleb128 0x6
 700 0011 10       		.uleb128 0x10
 701 0012 06       		.uleb128 0x6
 702 0013 00       		.byte	0
 703 0014 00       		.byte	0
 704 0015 02       		.uleb128 0x2
 705 0016 24       		.uleb128 0x24
 706 0017 00       		.byte	0
 707 0018 0B       		.uleb128 0xb
 708 0019 0B       		.uleb128 0xb
 709 001a 3E       		.uleb128 0x3e
 710 001b 0B       		.uleb128 0xb
 711 001c 03       		.uleb128 0x3
 712 001d 08       		.uleb128 0x8
 713 001e 00       		.byte	0
 714 001f 00       		.byte	0
 715 0020 03       		.uleb128 0x3
 716 0021 24       		.uleb128 0x24
 717 0022 00       		.byte	0
 718 0023 0B       		.uleb128 0xb
 719 0024 0B       		.uleb128 0xb
 720 0025 3E       		.uleb128 0x3e
 721 0026 0B       		.uleb128 0xb
 722 0027 03       		.uleb128 0x3
 723 0028 0E       		.uleb128 0xe
 724 0029 00       		.byte	0
 725 002a 00       		.byte	0
 726 002b 04       		.uleb128 0x4
 727 002c 16       		.uleb128 0x16
 728 002d 00       		.byte	0
 729 002e 03       		.uleb128 0x3
 730 002f 0E       		.uleb128 0xe
 731 0030 3A       		.uleb128 0x3a
 732 0031 0B       		.uleb128 0xb
 733 0032 3B       		.uleb128 0x3b
 734 0033 0B       		.uleb128 0xb
 735 0034 49       		.uleb128 0x49
 736 0035 13       		.uleb128 0x13
 737 0036 00       		.byte	0
ARM GAS  C:\Users\z80\AppData\Local\Temp\ccaDOXpz.s 			page 14


 738 0037 00       		.byte	0
 739 0038 05       		.uleb128 0x5
 740 0039 35       		.uleb128 0x35
 741 003a 00       		.byte	0
 742 003b 49       		.uleb128 0x49
 743 003c 13       		.uleb128 0x13
 744 003d 00       		.byte	0
 745 003e 00       		.byte	0
 746 003f 06       		.uleb128 0x6
 747 0040 01       		.uleb128 0x1
 748 0041 01       		.byte	0x1
 749 0042 49       		.uleb128 0x49
 750 0043 13       		.uleb128 0x13
 751 0044 01       		.uleb128 0x1
 752 0045 13       		.uleb128 0x13
 753 0046 00       		.byte	0
 754 0047 00       		.byte	0
 755 0048 07       		.uleb128 0x7
 756 0049 21       		.uleb128 0x21
 757 004a 00       		.byte	0
 758 004b 49       		.uleb128 0x49
 759 004c 13       		.uleb128 0x13
 760 004d 2F       		.uleb128 0x2f
 761 004e 0B       		.uleb128 0xb
 762 004f 00       		.byte	0
 763 0050 00       		.byte	0
 764 0051 08       		.uleb128 0x8
 765 0052 13       		.uleb128 0x13
 766 0053 01       		.byte	0x1
 767 0054 0B       		.uleb128 0xb
 768 0055 0B       		.uleb128 0xb
 769 0056 3A       		.uleb128 0x3a
 770 0057 0B       		.uleb128 0xb
 771 0058 3B       		.uleb128 0x3b
 772 0059 0B       		.uleb128 0xb
 773 005a 01       		.uleb128 0x1
 774 005b 13       		.uleb128 0x13
 775 005c 00       		.byte	0
 776 005d 00       		.byte	0
 777 005e 09       		.uleb128 0x9
 778 005f 0D       		.uleb128 0xd
 779 0060 00       		.byte	0
 780 0061 03       		.uleb128 0x3
 781 0062 08       		.uleb128 0x8
 782 0063 3A       		.uleb128 0x3a
 783 0064 0B       		.uleb128 0xb
 784 0065 3B       		.uleb128 0x3b
 785 0066 0B       		.uleb128 0xb
 786 0067 49       		.uleb128 0x49
 787 0068 13       		.uleb128 0x13
 788 0069 38       		.uleb128 0x38
 789 006a 0A       		.uleb128 0xa
 790 006b 00       		.byte	0
 791 006c 00       		.byte	0
 792 006d 0A       		.uleb128 0xa
 793 006e 0D       		.uleb128 0xd
 794 006f 00       		.byte	0
ARM GAS  C:\Users\z80\AppData\Local\Temp\ccaDOXpz.s 			page 15


 795 0070 03       		.uleb128 0x3
 796 0071 0E       		.uleb128 0xe
 797 0072 3A       		.uleb128 0x3a
 798 0073 0B       		.uleb128 0xb
 799 0074 3B       		.uleb128 0x3b
 800 0075 0B       		.uleb128 0xb
 801 0076 49       		.uleb128 0x49
 802 0077 13       		.uleb128 0x13
 803 0078 38       		.uleb128 0x38
 804 0079 0A       		.uleb128 0xa
 805 007a 00       		.byte	0
 806 007b 00       		.byte	0
 807 007c 0B       		.uleb128 0xb
 808 007d 04       		.uleb128 0x4
 809 007e 01       		.byte	0x1
 810 007f 0B       		.uleb128 0xb
 811 0080 0B       		.uleb128 0xb
 812 0081 3A       		.uleb128 0x3a
 813 0082 0B       		.uleb128 0xb
 814 0083 3B       		.uleb128 0x3b
 815 0084 0B       		.uleb128 0xb
 816 0085 01       		.uleb128 0x1
 817 0086 13       		.uleb128 0x13
 818 0087 00       		.byte	0
 819 0088 00       		.byte	0
 820 0089 0C       		.uleb128 0xc
 821 008a 28       		.uleb128 0x28
 822 008b 00       		.byte	0
 823 008c 03       		.uleb128 0x3
 824 008d 0E       		.uleb128 0xe
 825 008e 1C       		.uleb128 0x1c
 826 008f 0D       		.uleb128 0xd
 827 0090 00       		.byte	0
 828 0091 00       		.byte	0
 829 0092 0D       		.uleb128 0xd
 830 0093 13       		.uleb128 0x13
 831 0094 01       		.byte	0x1
 832 0095 03       		.uleb128 0x3
 833 0096 0E       		.uleb128 0xe
 834 0097 0B       		.uleb128 0xb
 835 0098 0B       		.uleb128 0xb
 836 0099 3A       		.uleb128 0x3a
 837 009a 0B       		.uleb128 0xb
 838 009b 3B       		.uleb128 0x3b
 839 009c 0B       		.uleb128 0xb
 840 009d 01       		.uleb128 0x1
 841 009e 13       		.uleb128 0x13
 842 009f 00       		.byte	0
 843 00a0 00       		.byte	0
 844 00a1 0E       		.uleb128 0xe
 845 00a2 0F       		.uleb128 0xf
 846 00a3 00       		.byte	0
 847 00a4 0B       		.uleb128 0xb
 848 00a5 0B       		.uleb128 0xb
 849 00a6 49       		.uleb128 0x49
 850 00a7 13       		.uleb128 0x13
 851 00a8 00       		.byte	0
ARM GAS  C:\Users\z80\AppData\Local\Temp\ccaDOXpz.s 			page 16


 852 00a9 00       		.byte	0
 853 00aa 0F       		.uleb128 0xf
 854 00ab 15       		.uleb128 0x15
 855 00ac 01       		.byte	0x1
 856 00ad 27       		.uleb128 0x27
 857 00ae 0C       		.uleb128 0xc
 858 00af 01       		.uleb128 0x1
 859 00b0 13       		.uleb128 0x13
 860 00b1 00       		.byte	0
 861 00b2 00       		.byte	0
 862 00b3 10       		.uleb128 0x10
 863 00b4 05       		.uleb128 0x5
 864 00b5 00       		.byte	0
 865 00b6 49       		.uleb128 0x49
 866 00b7 13       		.uleb128 0x13
 867 00b8 00       		.byte	0
 868 00b9 00       		.byte	0
 869 00ba 11       		.uleb128 0x11
 870 00bb 26       		.uleb128 0x26
 871 00bc 00       		.byte	0
 872 00bd 49       		.uleb128 0x49
 873 00be 13       		.uleb128 0x13
 874 00bf 00       		.byte	0
 875 00c0 00       		.byte	0
 876 00c1 12       		.uleb128 0x12
 877 00c2 2E       		.uleb128 0x2e
 878 00c3 01       		.byte	0x1
 879 00c4 03       		.uleb128 0x3
 880 00c5 0E       		.uleb128 0xe
 881 00c6 3A       		.uleb128 0x3a
 882 00c7 0B       		.uleb128 0xb
 883 00c8 3B       		.uleb128 0x3b
 884 00c9 0B       		.uleb128 0xb
 885 00ca 27       		.uleb128 0x27
 886 00cb 0C       		.uleb128 0xc
 887 00cc 11       		.uleb128 0x11
 888 00cd 01       		.uleb128 0x1
 889 00ce 12       		.uleb128 0x12
 890 00cf 01       		.uleb128 0x1
 891 00d0 40       		.uleb128 0x40
 892 00d1 06       		.uleb128 0x6
 893 00d2 01       		.uleb128 0x1
 894 00d3 13       		.uleb128 0x13
 895 00d4 00       		.byte	0
 896 00d5 00       		.byte	0
 897 00d6 13       		.uleb128 0x13
 898 00d7 05       		.uleb128 0x5
 899 00d8 00       		.byte	0
 900 00d9 03       		.uleb128 0x3
 901 00da 0E       		.uleb128 0xe
 902 00db 3A       		.uleb128 0x3a
 903 00dc 0B       		.uleb128 0xb
 904 00dd 3B       		.uleb128 0x3b
 905 00de 0B       		.uleb128 0xb
 906 00df 49       		.uleb128 0x49
 907 00e0 13       		.uleb128 0x13
 908 00e1 02       		.uleb128 0x2
ARM GAS  C:\Users\z80\AppData\Local\Temp\ccaDOXpz.s 			page 17


 909 00e2 06       		.uleb128 0x6
 910 00e3 00       		.byte	0
 911 00e4 00       		.byte	0
 912 00e5 14       		.uleb128 0x14
 913 00e6 0B       		.uleb128 0xb
 914 00e7 01       		.byte	0x1
 915 00e8 11       		.uleb128 0x11
 916 00e9 01       		.uleb128 0x1
 917 00ea 12       		.uleb128 0x12
 918 00eb 01       		.uleb128 0x1
 919 00ec 01       		.uleb128 0x1
 920 00ed 13       		.uleb128 0x13
 921 00ee 00       		.byte	0
 922 00ef 00       		.byte	0
 923 00f0 15       		.uleb128 0x15
 924 00f1 34       		.uleb128 0x34
 925 00f2 00       		.byte	0
 926 00f3 03       		.uleb128 0x3
 927 00f4 08       		.uleb128 0x8
 928 00f5 3A       		.uleb128 0x3a
 929 00f6 0B       		.uleb128 0xb
 930 00f7 3B       		.uleb128 0x3b
 931 00f8 0B       		.uleb128 0xb
 932 00f9 49       		.uleb128 0x49
 933 00fa 13       		.uleb128 0x13
 934 00fb 02       		.uleb128 0x2
 935 00fc 06       		.uleb128 0x6
 936 00fd 00       		.byte	0
 937 00fe 00       		.byte	0
 938 00ff 16       		.uleb128 0x16
 939 0100 0B       		.uleb128 0xb
 940 0101 01       		.byte	0x1
 941 0102 11       		.uleb128 0x11
 942 0103 01       		.uleb128 0x1
 943 0104 12       		.uleb128 0x12
 944 0105 01       		.uleb128 0x1
 945 0106 00       		.byte	0
 946 0107 00       		.byte	0
 947 0108 17       		.uleb128 0x17
 948 0109 2E       		.uleb128 0x2e
 949 010a 00       		.byte	0
 950 010b 3F       		.uleb128 0x3f
 951 010c 0C       		.uleb128 0xc
 952 010d 03       		.uleb128 0x3
 953 010e 0E       		.uleb128 0xe
 954 010f 3A       		.uleb128 0x3a
 955 0110 0B       		.uleb128 0xb
 956 0111 3B       		.uleb128 0x3b
 957 0112 0B       		.uleb128 0xb
 958 0113 27       		.uleb128 0x27
 959 0114 0C       		.uleb128 0xc
 960 0115 11       		.uleb128 0x11
 961 0116 01       		.uleb128 0x1
 962 0117 12       		.uleb128 0x12
 963 0118 01       		.uleb128 0x1
 964 0119 40       		.uleb128 0x40
 965 011a 06       		.uleb128 0x6
ARM GAS  C:\Users\z80\AppData\Local\Temp\ccaDOXpz.s 			page 18


 966 011b 00       		.byte	0
 967 011c 00       		.byte	0
 968 011d 18       		.uleb128 0x18
 969 011e 34       		.uleb128 0x34
 970 011f 00       		.byte	0
 971 0120 03       		.uleb128 0x3
 972 0121 0E       		.uleb128 0xe
 973 0122 3A       		.uleb128 0x3a
 974 0123 0B       		.uleb128 0xb
 975 0124 3B       		.uleb128 0x3b
 976 0125 0B       		.uleb128 0xb
 977 0126 49       		.uleb128 0x49
 978 0127 13       		.uleb128 0x13
 979 0128 02       		.uleb128 0x2
 980 0129 0A       		.uleb128 0xa
 981 012a 00       		.byte	0
 982 012b 00       		.byte	0
 983 012c 19       		.uleb128 0x19
 984 012d 34       		.uleb128 0x34
 985 012e 00       		.byte	0
 986 012f 03       		.uleb128 0x3
 987 0130 0E       		.uleb128 0xe
 988 0131 3A       		.uleb128 0x3a
 989 0132 0B       		.uleb128 0xb
 990 0133 3B       		.uleb128 0x3b
 991 0134 05       		.uleb128 0x5
 992 0135 49       		.uleb128 0x49
 993 0136 13       		.uleb128 0x13
 994 0137 3F       		.uleb128 0x3f
 995 0138 0C       		.uleb128 0xc
 996 0139 3C       		.uleb128 0x3c
 997 013a 0C       		.uleb128 0xc
 998 013b 00       		.byte	0
 999 013c 00       		.byte	0
 1000 013d 1A       		.uleb128 0x1a
 1001 013e 34       		.uleb128 0x34
 1002 013f 00       		.byte	0
 1003 0140 03       		.uleb128 0x3
 1004 0141 0E       		.uleb128 0xe
 1005 0142 3A       		.uleb128 0x3a
 1006 0143 0B       		.uleb128 0xb
 1007 0144 3B       		.uleb128 0x3b
 1008 0145 0B       		.uleb128 0xb
 1009 0146 49       		.uleb128 0x49
 1010 0147 13       		.uleb128 0x13
 1011 0148 3F       		.uleb128 0x3f
 1012 0149 0C       		.uleb128 0xc
 1013 014a 3C       		.uleb128 0x3c
 1014 014b 0C       		.uleb128 0xc
 1015 014c 00       		.byte	0
 1016 014d 00       		.byte	0
 1017 014e 00       		.byte	0
 1018              		.section	.debug_loc,"",%progbits
 1019              	.Ldebug_loc0:
 1020              	.LLST0:
 1021 0000 00000000 		.4byte	.LFB63
 1022 0004 02000000 		.4byte	.LCFI0
ARM GAS  C:\Users\z80\AppData\Local\Temp\ccaDOXpz.s 			page 19


 1023 0008 0200     		.2byte	0x2
 1024 000a 7D       		.byte	0x7d
 1025 000b 00       		.sleb128 0
 1026 000c 02000000 		.4byte	.LCFI0
 1027 0010 24000000 		.4byte	.LFE63
 1028 0014 0200     		.2byte	0x2
 1029 0016 7D       		.byte	0x7d
 1030 0017 08       		.sleb128 8
 1031 0018 00000000 		.4byte	0
 1032 001c 00000000 		.4byte	0
 1033              	.LLST1:
 1034 0020 00000000 		.4byte	.LVL0
 1035 0024 0B000000 		.4byte	.LVL3-1
 1036 0028 0100     		.2byte	0x1
 1037 002a 50       		.byte	0x50
 1038 002b 00000000 		.4byte	0
 1039 002f 00000000 		.4byte	0
 1040              	.LLST2:
 1041 0033 08000000 		.4byte	.LVL2
 1042 0037 0B000000 		.4byte	.LVL3-1
 1043 003b 0100     		.2byte	0x1
 1044 003d 53       		.byte	0x53
 1045 003e 00000000 		.4byte	0
 1046 0042 00000000 		.4byte	0
 1047              	.LLST3:
 1048 0046 22000000 		.4byte	.LVL5
 1049 004a 24000000 		.4byte	.LFE63
 1050 004e 0100     		.2byte	0x1
 1051 0050 53       		.byte	0x53
 1052 0051 00000000 		.4byte	0
 1053 0055 00000000 		.4byte	0
 1054              	.LLST4:
 1055 0059 00000000 		.4byte	.LFB62
 1056 005d 02000000 		.4byte	.LCFI1
 1057 0061 0200     		.2byte	0x2
 1058 0063 7D       		.byte	0x7d
 1059 0064 00       		.sleb128 0
 1060 0065 02000000 		.4byte	.LCFI1
 1061 0069 26000000 		.4byte	.LFE62
 1062 006d 0200     		.2byte	0x2
 1063 006f 7D       		.byte	0x7d
 1064 0070 08       		.sleb128 8
 1065 0071 00000000 		.4byte	0
 1066 0075 00000000 		.4byte	0
 1067              		.section	.debug_aranges,"",%progbits
 1068 0000 24000000 		.4byte	0x24
 1069 0004 0200     		.2byte	0x2
 1070 0006 00000000 		.4byte	.Ldebug_info0
 1071 000a 04       		.byte	0x4
 1072 000b 00       		.byte	0
 1073 000c 0000     		.2byte	0
 1074 000e 0000     		.2byte	0
 1075 0010 00000000 		.4byte	.LFB63
 1076 0014 24000000 		.4byte	.LFE63-.LFB63
 1077 0018 00000000 		.4byte	.LFB62
 1078 001c 26000000 		.4byte	.LFE62-.LFB62
 1079 0020 00000000 		.4byte	0
ARM GAS  C:\Users\z80\AppData\Local\Temp\ccaDOXpz.s 			page 20


 1080 0024 00000000 		.4byte	0
 1081              		.section	.debug_ranges,"",%progbits
 1082              	.Ldebug_ranges0:
 1083 0000 00000000 		.4byte	.LFB63
 1084 0004 24000000 		.4byte	.LFE63
 1085 0008 00000000 		.4byte	.LFB62
 1086 000c 26000000 		.4byte	.LFE62
 1087 0010 00000000 		.4byte	0
 1088 0014 00000000 		.4byte	0
 1089              		.section	.debug_line,"",%progbits
 1090              	.Ldebug_line0:
 1091 0000 79010000 		.section	.debug_str,"MS",%progbits,1
 1091      02004B01 
 1091      00000201 
 1091      FB0E0D00 
 1091      01010101 
 1092              	.LASF25:
 1093 0000 43434552 		.ascii	"CCER\000"
 1093      00
 1094              	.LASF36:
 1095 0005 4750545F 		.ascii	"GPT_UNINIT\000"
 1095      554E494E 
 1095      495400
 1096              	.LASF57:
 1097 0010 67707443 		.ascii	"gptCb\000"
 1097      6200
 1098              	.LASF32:
 1099 0016 444D4152 		.ascii	"DMAR\000"
 1099      00
 1100              	.LASF43:
 1101 001b 73746174 		.ascii	"state\000"
 1101      6500
 1102              	.LASF23:
 1103 0021 43434D52 		.ascii	"CCMR2\000"
 1103      3200
 1104              	.LASF3:
 1105 0027 73686F72 		.ascii	"short int\000"
 1105      7420696E 
 1105      7400
 1106              	.LASF46:
 1107 0031 67707463 		.ascii	"gptcallback_t\000"
 1107      616C6C62 
 1107      61636B5F 
 1107      7400
 1108              	.LASF44:
 1109 003f 636F6E66 		.ascii	"config\000"
 1109      696700
 1110              	.LASF40:
 1111 0046 4750545F 		.ascii	"GPT_ONESHOT\000"
 1111      4F4E4553 
 1111      484F5400 
 1112              	.LASF13:
 1113 0052 5F726573 		.ascii	"_resvd0\000"
 1113      76643000 
 1114              	.LASF14:
 1115 005a 5F726573 		.ascii	"_resvd1\000"
 1115      76643100 
ARM GAS  C:\Users\z80\AppData\Local\Temp\ccaDOXpz.s 			page 21


 1116              	.LASF16:
 1117 0062 5F726573 		.ascii	"_resvd2\000"
 1117      76643200 
 1118              	.LASF18:
 1119 006a 5F726573 		.ascii	"_resvd3\000"
 1119      76643300 
 1120              	.LASF19:
 1121 0072 5F726573 		.ascii	"_resvd4\000"
 1121      76643400 
 1122              	.LASF20:
 1123 007a 5F726573 		.ascii	"_resvd5\000"
 1123      76643500 
 1124              	.LASF22:
 1125 0082 5F726573 		.ascii	"_resvd6\000"
 1125      76643600 
 1126              	.LASF24:
 1127 008a 5F726573 		.ascii	"_resvd7\000"
 1127      76643700 
 1128              	.LASF26:
 1129 0092 5F726573 		.ascii	"_resvd8\000"
 1129      76643800 
 1130              	.LASF27:
 1131 009a 5F726573 		.ascii	"_resvd9\000"
 1131      76643900 
 1132              	.LASF41:
 1133 00a2 67707473 		.ascii	"gptstate_t\000"
 1133      74617465 
 1133      5F7400
 1134              	.LASF10:
 1135 00ad 6C6F6E67 		.ascii	"long long int\000"
 1135      206C6F6E 
 1135      6720696E 
 1135      7400
 1136              	.LASF59:
 1137 00bb 696E6974 		.ascii	"initTimer\000"
 1137      54696D65 
 1137      7200
 1138              	.LASF53:
 1139 00c5 47505444 		.ascii	"GPTD1\000"
 1139      3100
 1140              	.LASF7:
 1141 00cb 6C6F6E67 		.ascii	"long int\000"
 1141      20696E74 
 1141      00
 1142              	.LASF21:
 1143 00d4 43434D52 		.ascii	"CCMR1\000"
 1143      3100
 1144              	.LASF15:
 1145 00da 534D4352 		.ascii	"SMCR\000"
 1145      00
 1146              	.LASF2:
 1147 00df 756E7369 		.ascii	"unsigned char\000"
 1147      676E6564 
 1147      20636861 
 1147      7200
 1148              	.LASF1:
 1149 00ed 7369676E 		.ascii	"signed char\000"
ARM GAS  C:\Users\z80\AppData\Local\Temp\ccaDOXpz.s 			page 22


 1149      65642063 
 1149      68617200 
 1150              	.LASF11:
 1151 00f9 6C6F6E67 		.ascii	"long long unsigned int\000"
 1151      206C6F6E 
 1151      6720756E 
 1151      7369676E 
 1151      65642069 
 1152              	.LASF8:
 1153 0110 75696E74 		.ascii	"uint32_t\000"
 1153      33325F74 
 1153      00
 1154              	.LASF0:
 1155 0119 756E7369 		.ascii	"unsigned int\000"
 1155      676E6564 
 1155      20696E74 
 1155      00
 1156              	.LASF5:
 1157 0126 75696E74 		.ascii	"uint16_t\000"
 1157      31365F74 
 1157      00
 1158              	.LASF17:
 1159 012f 44494552 		.ascii	"DIER\000"
 1159      00
 1160              	.LASF30:
 1161 0134 5F726573 		.ascii	"_resvd11\000"
 1161      76643131 
 1161      00
 1162              	.LASF31:
 1163 013d 5F726573 		.ascii	"_resvd12\000"
 1163      76643132 
 1163      00
 1164              	.LASF33:
 1165 0146 5F726573 		.ascii	"_resvd13\000"
 1165      76643133 
 1165      00
 1166              	.LASF34:
 1167 014f 5F726573 		.ascii	"_resvd14\000"
 1167      76643134 
 1167      00
 1168              	.LASF4:
 1169 0158 73686F72 		.ascii	"short unsigned int\000"
 1169      7420756E 
 1169      7369676E 
 1169      65642069 
 1169      6E7400
 1170              	.LASF12:
 1171 016b 63686172 		.ascii	"char\000"
 1171      00
 1172              	.LASF35:
 1173 0170 73746D33 		.ascii	"stm32_tim_t\000"
 1173      325F7469 
 1173      6D5F7400 
 1174              	.LASF29:
 1175 017c 42445452 		.ascii	"BDTR\000"
 1175      00
 1176              	.LASF6:
ARM GAS  C:\Users\z80\AppData\Local\Temp\ccaDOXpz.s 			page 23


 1177 0181 696E7433 		.ascii	"int32_t\000"
 1177      325F7400 
 1178              	.LASF54:
 1179 0189 474E5520 		.ascii	"GNU C 4.6.3\000"
 1179      4320342E 
 1179      362E3300 
 1180              	.LASF39:
 1181 0195 4750545F 		.ascii	"GPT_CONTINUOUS\000"
 1181      434F4E54 
 1181      494E554F 
 1181      555300
 1182              	.LASF38:
 1183 01a4 4750545F 		.ascii	"GPT_READY\000"
 1183      52454144 
 1183      5900
 1184              	.LASF42:
 1185 01ae 47505444 		.ascii	"GPTDriver\000"
 1185      72697665 
 1185      7200
 1186              	.LASF9:
 1187 01b8 6C6F6E67 		.ascii	"long unsigned int\000"
 1187      20756E73 
 1187      69676E65 
 1187      6420696E 
 1187      7400
 1188              	.LASF45:
 1189 01ca 636C6F63 		.ascii	"clock\000"
 1189      6B00
 1190              	.LASF56:
 1191 01d0 433A5C70 		.ascii	"C:\\projects\\digitizer.git\\firmware\\digitizer\000"
 1191      726F6A65 
 1191      6374735C 
 1191      64696769 
 1191      74697A65 
 1192              	.LASF28:
 1193 01fd 5F726573 		.ascii	"_resvd10\000"
 1193      76643130 
 1193      00
 1194              	.LASF58:
 1195 0206 67707470 		.ascii	"gptp\000"
 1195      00
 1196              	.LASF55:
 1197 020b 2E2F7372 		.ascii	"./src/timer_ctrl.c\000"
 1197      632F7469 
 1197      6D65725F 
 1197      6374726C 
 1197      2E6300
 1198              	.LASF51:
 1199 021e 67707443 		.ascii	"gptCfg\000"
 1199      666700
 1200              	.LASF50:
 1201 0225 47505443 		.ascii	"GPTConfig\000"
 1201      6F6E6669 
 1201      6700
 1202              	.LASF48:
 1203 022f 66726571 		.ascii	"frequency\000"
 1203      75656E63 
ARM GAS  C:\Users\z80\AppData\Local\Temp\ccaDOXpz.s 			page 24


 1203      7900
 1204              	.LASF37:
 1205 0239 4750545F 		.ascii	"GPT_STOP\000"
 1205      53544F50 
 1205      00
 1206              	.LASF52:
 1207 0242 49544D5F 		.ascii	"ITM_RxBuffer\000"
 1207      52784275 
 1207      66666572 
 1207      00
 1208              	.LASF47:
 1209 024f 67707466 		.ascii	"gptfreq_t\000"
 1209      7265715F 
 1209      7400
 1210              	.LASF49:
 1211 0259 63616C6C 		.ascii	"callback\000"
 1211      6261636B 
 1211      00
 1212              		.ident	"GCC: (Sourcery CodeBench Lite 2012.03-56) 4.6.3"
ARM GAS  C:\Users\z80\AppData\Local\Temp\ccaDOXpz.s 			page 25


DEFINED SYMBOLS
                            *ABS*:00000000 timer_ctrl.c
C:\Users\z80\AppData\Local\Temp\ccaDOXpz.s:19     .text.gptCb:00000000 $t
C:\Users\z80\AppData\Local\Temp\ccaDOXpz.s:24     .text.gptCb:00000000 gptCb
C:\Users\z80\AppData\Local\Temp\ccaDOXpz.s:72     .text.initTimer:00000000 $t
C:\Users\z80\AppData\Local\Temp\ccaDOXpz.s:78     .text.initTimer:00000000 initTimer
C:\Users\z80\AppData\Local\Temp\ccaDOXpz.s:108    .rodata.gptCfg:00000000 .LANCHOR0
C:\Users\z80\AppData\Local\Temp\ccaDOXpz.s:107    .rodata.gptCfg:00000000 $d
C:\Users\z80\AppData\Local\Temp\ccaDOXpz.s:111    .rodata.gptCfg:00000000 gptCfg
                     .debug_frame:00000010 $d

UNDEFINED SYMBOLS
dbg_check_lock_from_isr
queryAdcI
processDacI
processSweepI
dbg_check_unlock_from_isr
GPTD1
gptStart
gptStartContinuous
